$ fq -d flac dv stereo16.flac
      |00 01 02 03 04 05 06 07 08 09 0a 0b 0c 0d 0e 0f|0123456789abcdef|.{}: stereo16.flac (flac) 0x0-0xc6aa (50858)
0x0000|66 4c 61 43                                    |fLaC            |  magic: "fLaC" (valid) 0x0-0x4 (4)
      |00 01 02 03 04 05 06 07 08 09 0a 0b 0c 0d 0e 0f|0123456789abcdef|  metadatablocks[0:4]: (flac_metadatablocks) 0x4-0x2070 (8300)
      |00 01 02 03 04 05 06 07 08 09 0a 0b 0c 0d 0e 0f|0123456789abcdef|    [0]{}: metadatablock (flac_metadatablock) 0x4-0x2a (38)
0x0000|            00                                 |    .           |      last_block: false 0x4-0x4.1 (0.1)
0x0000|            00                                 |    .           |      type: "streaminfo" (0) 0x4.1-0x5 (0.7)
0x0000|               00 00 22                        |     .."        |      length: 34 0x5-0x8 (3)
0x0000|                        10 00                  |        ..      |      minimum_block_size: 4096 0x8-0xa (2)
0x0000|                              10 00            |          ..    |      maximum_block_size: 4096 0xa-0xc (2)
0x0000|                                    00 00 0e   |            ... |      minimum_frame_size: 14 0xc-0xf (3)
0x0000|                                             00|               .|      maximum_frame_size: 16394 0xf-0x12 (3)
0x0010|40 0a                                          |@.              |
0x0010|      0a c4 42                                 |  ..B           |      sample_rate: 44100 0x12-0x14.4 (2.4)
0x0010|            42                                 |    B           |      channels: 2 0x14.4-0x14.7 (0.3)
0x0010|            42 f0                              |    B.          |      bits_per_sample: 16 0x14.7-0x15.4 (0.5)
0x0010|               f0 00 00 56 22                  |     ...V"      |      total_samples_in_stream: 22050 0x15.4-0x1a (4.4)
0x0010|                              5a 00 c8 73 b8 0b|          Z..s..|      md5: "5a00c873b80b8f6294d14fe75b14a7d3" (raw bits) 0x1a-0x2a (16)
0x0020|8f 62 94 d1 4f e7 5b 14 a7 d3                  |.b..O.[...      |
      |00 01 02 03 04 05 06 07 08 09 0a 0b 0c 0d 0e 0f|0123456789abcdef|    [1]{}: metadatablock (flac_metadatablock) 0x2a-0x40 (22)
0x0020|                              03               |          .     |      last_block: false 0x2a-0x2a.1 (0.1)
0x0020|                              03               |          .     |      type: "seektable" (3) 0x2a.1-0x2b (0.7)
0x0020|                                 00 00 12      |           ...  |      length: 18 0x2b-0x2e (3)
      |                                               |                |      seekpoints[0:1]: 0x2e-0x40 (18)
      |                                               |                |        [0]{}: seekpoint 0x2e-0x40 (18)
0x0020|                                          00 00|              ..|          sample_number: 0 0x2e-0x36 (8)
0x0030|00 00 00 00 00 00                              |......          |
0x0030|                  00 00 00 00 00 00 00 00      |      ........  |          offset: 0 0x36-0x3e (8)
0x0030|                                          10 00|              ..|          number_of_samples: 4096 0x3e-0x40 (2)
      |00 01 02 03 04 05 06 07 08 09 0a 0b 0c 0d 0e 0f|0123456789abcdef|    [2]{}: metadatablock (flac_metadatablock) 0x40-0x6c (44)
0x0040|04                                             |.               |      last_block: false 0x40-0x40.1 (0.1)
0x0040|04                                             |.               |      type: "vorbis_comment" (4) 0x40.1-0x41 (0.7)
0x0040|   00 00 28                                    | ..(            |      length: 40 0x41-0x44 (3)
      |00 01 02 03 04 05 06 07 08 09 0a 0b 0c 0d 0e 0f|0123456789abcdef|      comment{}: (vorbis_comment) 0x44-0x6c (40)
0x0040|            20 00 00 00                        |     ...        |        vendor_length: 32 0x44-0x48 (4)
0x0040|                        72 65 66 65 72 65 6e 63|        referenc|        vendor: "reference libFLAC 1.3.4 20220220" 0x48-0x68 (32)
0x0050|65 20 6c 69 62 46 4c 41 43 20 31 2e 33 2e 34 20|e libFLAC 1.3.4 |
0x0060|32 30 32 32 30 32 32 30                        |20220220        |
0x0060|                        00 00 00 00            |        ....    |        user_comment_list_length: 0 0x68-0x6c (4)
      |                                               |                |        user_comments[0:0]: 0x6c-0x6c (0)
      |00 01 02 03 04 05 06 07 08 09 0a 0b 0c 0d 0e 0f|0123456789abcdef|    [3]{}: metadatablock (flac_metadatablock) 0x6c-0x2070 (8196)
0x0060|                                    81         |            .   |      last_block: true 0x6c-0x6c.1 (0.1)
0x0060|                                    81         |            .   |      type: "padding" (1) 0x6c.1-0x6d (0.7)
0x0060|                                       00 20 00|             . .|      length: 8192 0x6d-0x70 (3)
0x0070|00 00 00 00 00 00 00 00 00 00 00 00 00 00 00 00|................|      data: raw bits 0x70-0x2070 (8192)
*     |until 0x206f.7 (8192)                          |                |
      |                                               |                |  frames[0:6]: 0x2070-0xc6aa (42554)
      |00 01 02 03 04 05 06 07 08 09 0a 0b 0c 0d 0e 0f|0123456789abcdef|    [0]{}: frame (flac_frame) 0x2070-0x207e (14)
      |                                               |                |      header{}: 0x2070-0x2076 (6)
0x2070|ff f8                                          |..              |        sync: 0b11111111111110 (valid) 0x2070-0x2071.6 (1.6)
0x2070|   f8                                          | .              |        reserved0: 0 (valid) 0x2071.6-0x2071.7 (0.1)
0x2070|   f8                                          | .              |        blocking_strategy: "fixed" (0) 0x2071.7-0x2072 (0.1)
0x2070|      c9                                       |  .             |        block_size: 4096 (0b1100) 0x2072-0x2072.4 (0.4)
0x2070|      c9                                       |  .             |        sample_rate: 44100 (0b1001) 0x2072.4-0x2073 (0.4)
0x2070|         18                                    |   .            |        channel_assignment: 2 (1) (lr) 0x2073-0x2073.4 (0.4)
0x2070|         18                                    |   .            |        sample_size: 16 (0b100) 0x2073.4-0x2073.7 (0.3)
0x2070|         18                                    |   .            |        reserved1: 0 (valid) 0x2073.7-0x2074 (0.1)
      |                                               |                |        end_of_header{}: 0x2074-0x2075 (1)
0x2070|            00                                 |    .           |          frame_number: 0 0x2074-0x2075 (1)
0x2070|               c2                              |     .          |        crc: 0xc2 (valid) 0x2075-0x2076 (1)
      |                                               |                |      subframes[0:2]: 0x2076-0x207c (6)
      |                                               |                |        [0]{}: subframe 0x2076-0x2079 (3)
0x2070|                  00                           |      .         |          zero_bit: 0 (valid) 0x2076-0x2076.1 (0.1)
0x2070|                  00                           |      .         |          subframe_type: "constant" (0b0) 0x2076.1-0x2076.7 (0.6)
0x2070|                  00                           |      .         |          wasted_bits_flag: 0 0x2076.7-0x2077 (0.1)
      |                                               |                |          subframe_sample_size: 16
0x2070|                     00 00                     |       ..       |          value: 0 0x2077-0x2079 (2)
      |                                               |                |        [1]{}: subframe 0x2079-0x207c (3)
0x2070|                           00                  |         .      |          zero_bit: 0 (valid) 0x2079-0x2079.1 (0.1)
0x2070|                           00                  |         .      |          subframe_type: "constant" (0b0) 0x2079.1-0x2079.7 (0.6)
0x2070|                           00                  |         .      |          wasted_bits_flag: 0 0x2079.7-0x207a (0.1)
      |                                               |                |          subframe_sample_size: 16
0x2070|                              00 00            |          ..    |          value: 0 0x207a-0x207c (2)
      |                                               |                |      byte_align: 0 (valid) 0x207c-0x207c (0)
0x2070|                                    b8 ee      |            ..  |      footer_crc: "b8ee" (raw bits) (valid) 0x207c-0x207e (2)
      |00 01 02 03 04 05 06 07 08 09 0a 0b 0c 0d 0e 0f|0123456789abcdef|    [1]{}: frame (flac_frame) 0x207e-0x2b54 (2774)
      |                                               |                |      header{}: 0x207e-0x2084 (6)
0x2070|                                          ff f8|              ..|        sync: 0b11111111111110 (valid) 0x207e-0x207f.6 (1.6)
0x2070|                                             f8|               .|        reserved0: 0 (valid) 0x207f.6-0x207f.7 (0.1)
0x2070|                                             f8|               .|        blocking_strategy: "fixed" (0) 0x207f.7-0x2080 (0.1)
0x2080|c9                                             |.               |        block_size: 4096 (0b1100) 0x2080-0x2080.4 (0.4)
0x2080|c9                                             |.               |        sample_rate: 44100 (0b1001) 0x2080.4-0x2081 (0.4)
0x2080|   18                                          | .              |        channel_assignment: 2 (1) (lr) 0x2081-0x2081.4 (0.4)
0x2080|   18                                          | .              |        sample_size: 16 (0b100) 0x2081.4-0x2081.7 (0.3)
0x2080|   18                                          | .              |        reserved1: 0 (valid) 0x2081.7-0x2082 (0.1)
      |                                               |                |        end_of_header{}: 0x2082-0x2083 (1)
0x2080|      01                                       |  .             |          frame_number: 1 0x2082-0x2083 (1)
0x2080|         c5                                    |   .            |        crc: 0xc5 (valid) 0x2083-0x2084 (1)
      |                                               |                |      subframes[0:2]: 0x2084-0x2b51.1 (2765.1)
      |                                               |                |        [0]{}: subframe 0x2084-0x24eb.5 (1127.5)
0x2080|            14                                 |    .           |          zero_bit: 0 (valid) 0x2084-0x2084.1 (0.1)
0x2080|            14                                 |    .           |          subframe_type: "fixed" (0b1010) 0x2084.1-0x2084.7 (0.6)
      |                                               |                |          lpc_order: 2
0x2080|            14                                 |    .           |          wasted_bits_flag: 0 0x2084.7-0x2085 (0.1)
      |                                               |                |          subframe_sample_size: 16
      |                                               |                |          warmup_samples[0:2]: 0x2085-0x2089 (4)
0x2080|               00 00                           |     ..         |            [0]: 0 value 0x2085-0x2087 (2)
0x2080|                     00 00                     |       ..       |            [1]: 0 value 0x2087-0x2089 (2)
0x2080|                           04                  |         .      |          residual_coding_method: 4 (0) (rice) 0x2089-0x2089.2 (0.2)
0x2080|                           04                  |         .      |          partition_order: 1 0x2089.2-0x2089.6 (0.4)
      |                                               |                |          rice_partitions: 2
      |                                               |                |          partitions[0:2]: 0x2089.6-0x24eb.5 (1121.7)
      |                                               |                |            [0]{}: partition 0x2089.6-0x22ae.3 (548.5)
      |                                               |                |              count: 2046
0x2080|                           04 3f               |         .?     |              rice_parameter: 0 0x2089.6-0x208a.2 (0.4)
0x2080|                              3f ff ff ff ff ff|          ?.....|              samples: raw bits 0x208a.2-0x22ae.3 (548.1)
0x2090|ff ff ff ff ff ff ff ff ff ff ff ff ff ff ff ff|................|
*     |until 0x22ae.2 (549)                           |                |
      |                                               |                |            [1]{}: partition 0x22ae.3-0x24eb.5 (573.2)
      |                                               |                |              count: 2048
0x22a0|                                          a0   |              . |              rice_parameter: 0 0x22ae.3-0x22ae.7 (0.4)
0x22a0|                                          a0 4a|              .J|              samples: raw bits 0x22ae.7-0x24eb.5 (572.6)
0x22b0|65 0b 25 9c b3 f9 65 cb 22 76 5d 2d 95 22 5a 57|e.%...e."v]-."ZW|
*     |until 0x24eb.4 (573)                           |                |
      |                                               |                |        [1]{}: subframe 0x24eb.5-0x2b51.1 (1637.4)
0x24e0|                                 1a            |           .    |          zero_bit: 0 (valid) 0x24eb.5-0x24eb.6 (0.1)
0x24e0|                                 1a 60         |           .`   |          subframe_type: "lpc" (0b100110) 0x24eb.6-0x24ec.4 (0.6)
      |                                               |                |          lpc_order: 7
0x24e0|                                    60         |            `   |          wasted_bits_flag: 0 0x24ec.4-0x24ec.5 (0.1)
      |                                               |                |          subframe_sample_size: 16
      |                                               |                |          warmup_samples[0:7]: 0x24ec.5-0x24fa.5 (14)
0x24e0|                                    60 00 00   |            `.. |            [0]: 0 value 0x24ec.5-0x24ee.5 (2)
0x24e0|                                          00 00|              ..|            [1]: 0 value 0x24ee.5-0x24f0.5 (2)
0x24f0|00                                             |.               |
0x24f0|00 00 00                                       |...             |            [2]: 0 value 0x24f0.5-0x24f2.5 (2)
0x24f0|      00 00 00                                 |  ...           |            [3]: 0 value 0x24f2.5-0x24f4.5 (2)
0x24f0|            00 00 00                           |    ...         |            [4]: 0 value 0x24f4.5-0x24f6.5 (2)
0x24f0|                  00 00 00                     |      ...       |            [5]: 0 value 0x24f6.5-0x24f8.5 (2)
0x24f0|                        00 00 05               |        ...     |            [6]: 0 value 0x24f8.5-0x24fa.5 (2)
0x24f0|                              05 a9            |          ..    |          precision: 12 0x24fa.5-0x24fb.1 (0.4)
0x24f0|                                 a9            |           .    |          shift: 10 0x24fb.1-0x24fb.6 (0.5)
      |                                               |                |          coefficients[0:7]: 0x24fb.6-0x2506.2 (10.4)
0x24f0|                                 a9 40 bf      |           .@.  |            [0]: 1282 value 0x24fb.6-0x24fd.2 (1.4)
0x24f0|                                       bf 47   |             .G |            [1]: -47 value 0x24fd.2-0x24fe.6 (1.4)
0x24f0|                                          47 cf|              G.|            [2]: -193 value 0x24fe.6-0x2500.2 (1.4)
0x2500|fc                                             |.               |
0x2500|fc c3                                          |..              |            [3]: -208 value 0x2500.2-0x2501.6 (1.4)
0x2500|   c3 df d3                                    | ...            |            [4]: -129 value 0x2501.6-0x2503.2 (1.4)
0x2500|         d3 8b                                 |   ..           |            [5]: 1250 value 0x2503.2-0x2504.6 (1.4)
0x2500|            8b 0f 05                           |    ...         |            [6]: -964 value 0x2504.6-0x2506.2 (1.4)
0x2500|                  05                           |      .         |          residual_coding_method: 4 (0) (rice) 0x2506.2-0x2506.4 (0.2)
0x2500|                  05                           |      .         |          partition_order: 5 0x2506.4-0x2507 (0.4)
      |                                               |                |          rice_partitions: 32
      |                                               |                |          partitions[0:32]: 0x2507-0x2b51.1 (1610.1)
      |                                               |                |            [0]{}: partition 0x2507-0x2516.5 (15.5)
      |                                               |                |              count: 121
0x2500|                     0f                        |       .        |              rice_parameter: 0 0x2507-0x2507.4 (0.4)
0x2500|                     0f ff ff ff ff ff ff ff ff|       .........|              samples: raw bits 0x2507.4-0x2516.5 (15.1)
0x2510|ff ff ff ff ff ff f8                           |.......         |
      |                                               |                |            [1]{}: partition 0x2516.5-0x2527.1 (16.4)
      |                                               |                |              count: 128
0x2510|                  f8 7f                        |      ..        |              rice_parameter: 0 0x2516.5-0x2517.1 (0.4)
0x2510|                     7f ff ff ff ff ff ff ff ff|       .........|              samples: raw bits 0x2517.1-0x2527.1 (16)
0x2520|ff ff ff ff ff ff ff a4                        |........        |
      |                                               |                |            [2]{}: partition 0x2527.1-0x258f (103.7)
      |                                               |                |              count: 128
0x2520|                     a4                        |       .        |              rice_parameter: 4 0x2527.1-0x2527.5 (0.4)
0x2520|                     a4 21 08 42 10 84 21 08 42|       .!.B..!.B|              samples: raw bits 0x2527.5-0x258f (103.3)
0x2530|10 84 21 08 42 10 84 21 08 42 10 84 21 08 42 10|..!.B..!.B..!.B.|
*     |until 0x258e.7 (104)                           |                |
      |                                               |                |            [3]{}: partition 0x258f-0x25c3.4 (52.4)
      |                                               |                |              count: 128
0x2580|                                             17|               .|              rice_parameter: 1 0x258f-0x258f.4 (0.4)
0x2580|                                             17|               .|              samples: raw bits 0x258f.4-0x25c3.4 (52)
0x2590|3f ea d5 24 92 22 22 22 11 10 88 44 41 10 88 44|?..$."""...DA..D|
*     |until 0x25c3.3 (52)                            |                |
      |                                               |                |            [4]{}: partition 0x25c3.4-0x25f5.7 (50.3)
      |                                               |                |              count: 128
0x25c0|         a1                                    |   .            |              rice_parameter: 1 0x25c3.4-0x25c4 (0.4)
0x25c0|            bd 3f db f6 ff 39 cf fa b5 49 24 88|    .?...9...I$.|              samples: raw bits 0x25c4-0x25f5.7 (49.7)
0x25d0|88 88 84 44 22 11 10 44 22 11 11 11 22 24 a4 55|...D"..D"..."$.U|
*     |until 0x25f5.6 (50)                            |                |
      |                                               |                |            [5]{}: partition 0x25f5.7-0x2626.3 (48.4)
      |                                               |                |              count: 128
0x25f0|               84 24                           |     .$         |              rice_parameter: 1 0x25f5.7-0x25f6.3 (0.4)
0x25f0|                  24 41 22 24 44 94 94 9a af 4f|      $A"$D....O|              samples: raw bits 0x25f6.3-0x2626.3 (48)
0x2600|f6 fd bf ce 73 fe ad 52 49 22 22 22 21 11 08 84|....s..RI"""!...|
*     |until 0x2626.2 (48)                            |                |
      |                                               |                |            [6]{}: partition 0x2626.3-0x265a.3 (52)
      |                                               |                |              count: 128
0x2620|                  42                           |      B         |              rice_parameter: 1 0x2626.3-0x2626.7 (0.4)
0x2620|                  42 89 22 22 11 10 88 44 44 42|      B.""...DDB|              samples: raw bits 0x2626.7-0x265a.3 (51.4)
0x2630|11 10 48 89 11 25 25 26 ab d3 fd bf 6f f3 9c ff|..H..%%&....o...|
*     |until 0x265a.2 (52)                            |                |
      |                                               |                |            [7]{}: partition 0x265a.3-0x268e.5 (52.2)
      |                                               |                |              count: 128
0x2650|                              e3               |          .     |              rice_parameter: 1 0x265a.3-0x265a.7 (0.4)
0x2650|                              e3 1b e6 6a ed 49|          ...j.I|              samples: raw bits 0x265a.7-0x268e.5 (51.6)
0x2660|49 22 48 88 84 44 22 11 11 10 84 44 12 22 44 49|I"H..D"....D."DI|
*     |until 0x268e.4 (52)                            |                |
      |                                               |                |            [8]{}: partition 0x268e.5-0x26c0.3 (49.6)
      |                                               |                |              count: 128
0x2680|                                          50 e9|              P.|              rice_parameter: 1 0x268e.5-0x268f.1 (0.4)
0x2680|                                             e9|               .|              samples: raw bits 0x268f.1-0x26c0.3 (49.2)
0x2690|7b 5b dc de f7 c6 f9 9a bb 52 52 48 92 22 21 11|{[.......RRH."!.|
*     |until 0x26c0.2 (50)                            |                |
      |                                               |                |            [9]{}: partition 0x26c0.3-0x26f1 (48.5)
      |                                               |                |              count: 128
0x26c0|42                                             |B               |              rice_parameter: 1 0x26c0.3-0x26c0.7 (0.4)
0x26c0|42 42 21 11 11 12 22 4a 45 5a 5e d6 f7 37 bd f1|BB!..."JEZ^..7..|              samples: raw bits 0x26c0.7-0x26f1 (48.1)
0x26d0|be 66 ae d4 94 92 24 88 88 44 42 21 11 11 08 44|.f....$..DB!...D|
*     |until 0x26f0.7 (49)                            |                |
      |                                               |                |            [10]{}: partition 0x26f1-0x2725.6 (52.6)
      |                                               |                |              count: 128
0x26f0|   14                                          | .              |              rice_parameter: 1 0x26f1-0x26f1.4 (0.4)
0x26f0|   14 92 22 22 22 11 10 88 44 41 10 88 44 44 44| .."""...DA..DDD|              samples: raw bits 0x26f1.4-0x2725.6 (52.2)
0x2700|88 92 91 56 97 b5 bd cd ef 7c 6f 99 ab b5 25 24|...V.....|o...%$|
*     |until 0x2725.5 (53)                            |                |
      |                                               |                |            [11]{}: partition 0x2725.6-0x275a.1 (52.3)
      |                                               |                |              count: 128
0x2720|               6c 7f                           |     l.         |              rice_parameter: 1 0x2725.6-0x2726.2 (0.4)
0x2720|                  7f 39 cf fa b5 49 24 88 88 88|      .9...I$...|              samples: raw bits 0x2726.2-0x275a.1 (51.7)
0x2730|84 44 22 11 10 44 22 11 11 11 22 24 a4 55 a5 ed|.D"..D"..."$.U..|
*     |until 0x275a (52)                              |                |
      |                                               |                |            [12]{}: partition 0x275a.1-0x278b.3 (49.2)
      |                                               |                |              count: 128
0x2750|                              0c               |          .     |              rice_parameter: 1 0x275a.1-0x275a.5 (0.4)
0x2750|                              0c 9a af 4f f6 fd|          ...O..|              samples: raw bits 0x275a.5-0x278b.3 (48.6)
0x2760|bf ce 73 fe ad 52 49 22 22 22 21 11 08 84 44 11|..s..RI"""!...D.|
*     |until 0x278b.2 (49)                            |                |
      |                                               |                |            [13]{}: partition 0x278b.3-0x27bc.7 (49.4)
      |                                               |                |              count: 128
0x2780|                                 42            |           B    |              rice_parameter: 1 0x278b.3-0x278b.7 (0.4)
0x2780|                                 42 44 42 11 10|           BDB..|              samples: raw bits 0x278b.7-0x27bc.7 (49)
0x2790|48 89 11 25 25 26 ab d3 fd bf 6f f3 9c ff ab 54|H..%%&....o....T|
*     |until 0x27bc.6 (49)                            |                |
      |                                               |                |            [14]{}: partition 0x27bc.7-0x27f1.1 (52.2)
      |                                               |                |              count: 128
0x27b0|                                    d4 29      |            .)  |              rice_parameter: 1 0x27bc.7-0x27bd.3 (0.4)
0x27b0|                                       29 49 22|             )I"|              samples: raw bits 0x27bd.3-0x27f1.1 (51.6)
0x27c0|48 88 84 44 22 11 11 10 84 44 12 22 44 49 49 49|H..D"....D."DIII|
*     |until 0x27f1 (52)                              |                |
      |                                               |                |            [15]{}: partition 0x27f1.1-0x2825.2 (52.1)
      |                                               |                |              count: 128
0x27f0|   8e                                          | .              |              rice_parameter: 1 0x27f1.1-0x27f1.5 (0.4)
0x27f0|   8e f7 c6 f9 9a bb 52 52 48 92 22 21 11 08 84| ......RRH."!...|              samples: raw bits 0x27f1.5-0x2825.2 (51.5)
0x2800|44 44 21 11 04 88 91 12 52 52 6a bd 3f db f6 ff|DD!.....RRj.?...|
*     |until 0x2825.1 (52)                            |                |
      |                                               |                |            [16]{}: partition 0x2825.2-0x2855.6 (48.4)
      |                                               |                |              count: 128
0x2820|               86                              |     .          |              rice_parameter: 1 0x2825.2-0x2825.6 (0.4)
0x2820|               86 45 5a 5e d6 f7 37 bd f1 be 66|     .EZ^..7...f|              samples: raw bits 0x2825.6-0x2855.6 (48)
0x2830|ae d4 94 92 24 88 88 44 42 21 11 11 08 44 41 22|....$..DB!...DA"|
*     |until 0x2855.5 (48)                            |                |
      |                                               |                |            [17]{}: partition 0x2855.6-0x2887.6 (50)
      |                                               |                |              count: 128
0x2850|               08 48                           |     .H         |              rice_parameter: 1 0x2855.6-0x2856.2 (0.4)
0x2850|                  48 44 41 10 88 44 44 44 88 92|      HDA..DDD..|              samples: raw bits 0x2856.2-0x2887.6 (49.4)
0x2860|91 56 97 b5 bd cd ef 7c 6f 99 ab b5 25 24 89 22|.V.....|o...%$."|
*     |until 0x2887.5 (50)                            |                |
      |                                               |                |            [18]{}: partition 0x2887.6-0x28bc.3 (52.5)
      |                                               |                |              count: 128
0x2880|                     a8 75                     |       .u       |              rice_parameter: 1 0x2887.6-0x2888.2 (0.4)
0x2880|                        75 49 24 88 88 88 84 44|        uI$....D|              samples: raw bits 0x2888.2-0x28bc.3 (52.1)
0x2890|22 11 10 44 22 11 11 11 22 24 a4 55 a5 ed 6f 73|"..D"..."$.U..os|
*     |until 0x28bc.2 (53)                            |                |
      |                                               |                |            [19]{}: partition 0x28bc.3-0x28f0.5 (52.2)
      |                                               |                |              count: 128
0x28b0|                                    62         |            b   |              rice_parameter: 1 0x28bc.3-0x28bc.7 (0.4)
0x28b0|                                    62 fd bf ce|            b...|              samples: raw bits 0x28bc.7-0x28f0.5 (51.6)
0x28c0|73 fe ad 52 49 22 22 22 21 11 08 84 44 11 08 84|s..RI"""!...D...|
*     |until 0x28f0.4 (52)                            |                |
      |                                               |                |            [20]{}: partition 0x28f0.5-0x2920.7 (48.2)
      |                                               |                |              count: 128
0x28f0|10 a5                                          |..              |              rice_parameter: 1 0x28f0.5-0x28f1.1 (0.4)
0x28f0|   a5 25 26 ab d3 fd bf 6f f3 9c ff ab 54 92 48| .%&....o....T.H|              samples: raw bits 0x28f1.1-0x2920.7 (47.6)
0x2900|88 88 88 44 42 21 11 04 42 21 11 11 12 22 4a 45|...DB!..B!..."JE|
*     |until 0x2920.6 (48)                            |                |
      |                                               |                |            [21]{}: partition 0x2920.7-0x2953.6 (50.7)
      |                                               |                |              count: 128
0x2920|44 24                                          |D$              |              rice_parameter: 1 0x2920.7-0x2921.3 (0.4)
0x2920|   24 22 11 11 10 84 44 12 22 44 49 49 49 aa f4| $"....D."DIII..|              samples: raw bits 0x2921.3-0x2953.6 (50.3)
0x2930|ff 6f db fc e7 3f ea d5 24 92 22 22 22 11 10 88|.o...?..$."""...|
*     |until 0x2953.5 (51)                            |                |
      |                                               |                |            [22]{}: partition 0x2953.6-0x2987.6 (52)
      |                                               |                |              count: 128
0x2950|         a8 7b                                 |   .{           |              rice_parameter: 1 0x2953.6-0x2954.2 (0.4)
0x2950|            7b 52 52 48 92 22 21 11 08 84 44 44|    {RRH."!...DD|              samples: raw bits 0x2954.2-0x2987.6 (51.4)
0x2960|21 11 04 88 91 12 52 52 6a bd 3f db f6 ff 39 cf|!.....RRj.?...9.|
*     |until 0x2987.5 (52)                            |                |
      |                                               |                |            [23]{}: partition 0x2987.6-0x29bb.3 (51.5)
      |                                               |                |              count: 128
0x2980|                     6c 77                     |       lw       |              rice_parameter: 1 0x2987.6-0x2988.2 (0.4)
0x2980|                        77 37 bd f1 be 66 ae d4|        w7...f..|              samples: raw bits 0x2988.2-0x29bb.3 (51.1)
0x2990|94 92 24 88 88 44 42 21 11 11 08 44 41 22 24 44|..$..DB!...DA"$D|
*     |until 0x29bb.2 (52)                            |                |
      |                                               |                |            [24]{}: partition 0x29bb.3-0x29eb.2 (47.7)
      |                                               |                |              count: 128
0x29b0|                                 42            |           B    |              rice_parameter: 1 0x29bb.3-0x29bb.7 (0.4)
0x29b0|                                 42 88 92 91 56|           B...V|              samples: raw bits 0x29bb.7-0x29eb.2 (47.3)
0x29c0|97 b5 bd cd ef 7c 6f 99 ab b5 25 24 89 22 22 11|.....|o...%$."".|
*     |until 0x29eb.1 (48)                            |                |
      |                                               |                |            [25]{}: partition 0x29eb.2-0x2a1e.6 (51.4)
      |                                               |                |              count: 128
0x29e0|                                 84            |           .    |              rice_parameter: 1 0x29eb.2-0x29eb.6 (0.4)
0x29e0|                                 84 84 44 22 11|           ..D".|              samples: raw bits 0x29eb.6-0x2a1e.6 (51)
0x29f0|10 44 22 11 11 11 22 24 a4 55 a5 ed 6f 73 7b df|.D"..."$.U..os{.|
*     |until 0x2a1e.5 (51)                            |                |
      |                                               |                |            [26]{}: partition 0x2a1e.6-0x2a53.1 (52.3)
      |                                               |                |              count: 128
0x2a10|                                          3c 7e|              <~|              rice_parameter: 1 0x2a1e.6-0x2a1f.2 (0.4)
0x2a10|                                             7e|               ~|              samples: raw bits 0x2a1f.2-0x2a53.1 (51.7)
0x2a20|ad 52 49 22 22 22 21 11 08 84 44 11 08 84 44 44|.RI"""!...D...DD|
*     |until 0x2a53 (52)                              |                |
      |                                               |                |            [27]{}: partition 0x2a53.1-0x2a86.4 (51.3)
      |                                               |                |              count: 128
0x2a50|         0b                                    |   .            |              rice_parameter: 1 0x2a53.1-0x2a53.5 (0.4)
0x2a50|         0b fd bf 6f f3 9c ff ab 54 92 48 88 88|   ...o....T.H..|              samples: raw bits 0x2a53.5-0x2a86.4 (50.7)
0x2a60|88 44 42 21 11 04 42 21 11 11 12 22 4a 45 5a 5e|.DB!..B!..."JEZ^|
*     |until 0x2a86.3 (51)                            |                |
      |                                               |                |            [28]{}: partition 0x2a86.4-0x2ab6.4 (48)
      |                                               |                |              count: 128
0x2a80|                  21                           |      !         |              rice_parameter: 1 0x2a86.4-0x2a87 (0.4)
0x2a80|                     22 44 49 49 49 aa f4 ff 6f|       "DIII...o|              samples: raw bits 0x2a87-0x2ab6.4 (47.4)
0x2a90|db fc e7 3f ea d5 24 92 22 22 22 11 10 88 44 41|...?..$."""...DA|
*     |until 0x2ab6.3 (48)                            |                |
      |                                               |                |            [29]{}: partition 0x2ab6.4-0x2aea.2 (51.6)
      |                                               |                |              count: 128
0x2ab0|                  21                           |      !         |              rice_parameter: 1 0x2ab6.4-0x2ab7 (0.4)
0x2ab0|                     22 21 11 08 84 44 44 21 11|       "!...DD!.|              samples: raw bits 0x2ab7-0x2aea.2 (51.2)
0x2ac0|04 88 91 12 52 52 6a bd 3f db f6 ff 39 cf fa b5|....RRj.?...9...|
*     |until 0x2aea.1 (52)                            |                |
      |                                               |                |            [30]{}: partition 0x2aea.2-0x2b1e.3 (52.1)
      |                                               |                |              count: 128
0x2ae0|                              c6               |          .     |              rice_parameter: 1 0x2aea.2-0x2aea.6 (0.4)
0x2ae0|                              c6 66 ae d4 94 92|          .f....|              samples: raw bits 0x2aea.6-0x2b1e.3 (51.5)
0x2af0|24 88 88 44 42 21 11 11 08 44 41 22 24 44 94 94|$..DB!...DA"$D..|
*     |until 0x2b1e.2 (52)                            |                |
      |                                               |                |            [31]{}: partition 0x2b1e.3-0x2b51.1 (50.6)
      |                                               |                |              count: 128
0x2b10|                                          63   |              c |              rice_parameter: 1 0x2b1e.3-0x2b1e.7 (0.4)
0x2b10|                                          63 b5|              c.|              samples: raw bits 0x2b1e.7-0x2b51.1 (50.2)
0x2b20|bd cd ef 7c 6f 99 ab b5 25 24 89 22 22 11 10 88|...|o...%$.""...|
*     |until 0x2b51 (51)                              |                |
0x2b50|   00                                          | .              |      byte_align: 0 (valid) 0x2b51.1-0x2b52 (0.7)
0x2b50|      55 fe                                    |  U.            |      footer_crc: "55fe" (raw bits) (valid) 0x2b52-0x2b54 (2)
      |00 01 02 03 04 05 06 07 08 09 0a 0b 0c 0d 0e 0f|0123456789abcdef|    [2]{}: frame (flac_frame) 0x2b54-0x6b5e (16394)
      |                                               |                |      header{}: 0x2b54-0x2b5a (6)
0x2b50|            ff f8                              |    ..          |        sync: 0b11111111111110 (valid) 0x2b54-0x2b55.6 (1.6)
0x2b50|               f8                              |     .          |        reserved0: 0 (valid) 0x2b55.6-0x2b55.7 (0.1)
0x2b50|               f8                              |     .          |        blocking_strategy: "fixed" (0) 0x2b55.7-0x2b56 (0.1)
0x2b50|                  c9                           |      .         |        block_size: 4096 (0b1100) 0x2b56-0x2b56.4 (0.4)
0x2b50|                  c9                           |      .         |        sample_rate: 44100 (0b1001) 0x2b56.4-0x2b57 (0.4)
0x2b50|                     18                        |       .        |        channel_assignment: 2 (1) (lr) 0x2b57-0x2b57.4 (0.4)
0x2b50|                     18                        |       .        |        sample_size: 16 (0b100) 0x2b57.4-0x2b57.7 (0.3)
0x2b50|                     18                        |       .        |        reserved1: 0 (valid) 0x2b57.7-0x2b58 (0.1)
      |                                               |                |        end_of_header{}: 0x2b58-0x2b59 (1)
0x2b50|                        02                     |        .       |          frame_number: 2 0x2b58-0x2b59 (1)
0x2b50|                           cc                  |         .      |        crc: 0xcc (valid) 0x2b59-0x2b5a (1)
      |                                               |                |      subframes[0:2]: 0x2b5a-0x6b5c (16386)
      |                                               |                |        [0]{}: subframe 0x2b5a-0x4b5b (8193)
0x2b50|                              02               |          .     |          zero_bit: 0 (valid) 0x2b5a-0x2b5a.1 (0.1)
0x2b50|                              02               |          .     |          subframe_type: "verbatim" (0b1) 0x2b5a.1-0x2b5a.7 (0.6)
0x2b50|                              02               |          .     |          wasted_bits_flag: 0 0x2b5a.7-0x2b5b (0.1)
      |                                               |                |          subframe_sample_size: 16
0x2b50|                                 f8 a7 f8 74 f8|           ...t.|          samples: raw bits 0x2b5b-0x4b5b (8192)
0x2b60|41 f8 0d f7 db f7 a9 f7 77 f7 46 f7 16 f6 e6 f6|A.......w.F.....|
*     |until 0x4b5a.7 (8192)                          |                |
      |                                               |                |        [1]{}: subframe 0x4b5b-0x6b5c (8193)
0x4b50|                                 02            |           .    |          zero_bit: 0 (valid) 0x4b5b-0x4b5b.1 (0.1)
0x4b50|                                 02            |           .    |          subframe_type: "verbatim" (0b1) 0x4b5b.1-0x4b5b.7 (0.6)
0x4b50|                                 02            |           .    |          wasted_bits_flag: 0 0x4b5b.7-0x4b5c (0.1)
      |                                               |                |          subframe_sample_size: 16
0x4b50|                                    04 63 03 0f|            .c..|          samples: raw bits 0x4b5c-0x6b5c (8192)
0x4b60|01 b5 00 58 fe fa fd 9e fc 46 fa f6 f9 af f8 74|...X.....F.....t|
*     |until 0x6b5b.7 (8192)                          |                |
      |                                               |                |      byte_align: 0 (valid) 0x6b5c-0x6b5c (0)
0x6b50|                                    5d 30      |            ]0  |      footer_crc: "5d30" (raw bits) (valid) 0x6b5c-0x6b5e (2)
      |00 01 02 03 04 05 06 07 08 09 0a 0b 0c 0d 0e 0f|0123456789abcdef|    [3]{}: frame (flac_frame) 0x6b5e-0x9575 (10775)
      |                                               |                |      header{}: 0x6b5e-0x6b64 (6)
0x6b50|                                          ff f8|              ..|        sync: 0b11111111111110 (valid) 0x6b5e-0x6b5f.6 (1.6)
0x6b50|                                             f8|               .|        reserved0: 0 (valid) 0x6b5f.6-0x6b5f.7 (0.1)
0x6b50|                                             f8|               .|        blocking_strategy: "fixed" (0) 0x6b5f.7-0x6b60 (0.1)
0x6b60|c9                                             |.               |        block_size: 4096 (0b1100) 0x6b60-0x6b60.4 (0.4)
0x6b60|c9                                             |.               |        sample_rate: 44100 (0b1001) 0x6b60.4-0x6b61 (0.4)
0x6b60|   18                                          | .              |        channel_assignment: 2 (1) (lr) 0x6b61-0x6b61.4 (0.4)
0x6b60|   18                                          | .              |        sample_size: 16 (0b100) 0x6b61.4-0x6b61.7 (0.3)
0x6b60|   18                                          | .              |        reserved1: 0 (valid) 0x6b61.7-0x6b62 (0.1)
      |                                               |                |        end_of_header{}: 0x6b62-0x6b63 (1)
0x6b60|      03                                       |  .             |          frame_number: 3 0x6b62-0x6b63 (1)
0x6b60|         cb                                    |   .            |        crc: 0xcb (valid) 0x6b63-0x6b64 (1)
      |                                               |                |      subframes[0:2]: 0x6b64-0x9572.6 (10766.6)
      |                                               |                |        [0]{}: subframe 0x6b64-0x833b.7 (6103.7)
0x6b60|            12                                 |    .           |          zero_bit: 0 (valid) 0x6b64-0x6b64.1 (0.1)
0x6b60|            12                                 |    .           |          subframe_type: "fixed" (0b1001) 0x6b64.1-0x6b64.7 (0.6)
      |                                               |                |          lpc_order: 1
0x6b60|            12                                 |    .           |          wasted_bits_flag: 0 0x6b64.7-0x6b65 (0.1)
      |                                               |                |          subframe_sample_size: 16
      |                                               |                |          warmup_samples[0:1]: 0x6b65-0x6b67 (2)
0x6b60|               14 b1                           |     ..         |            [0]: 5297 value 0x6b65-0x6b67 (2)
0x6b60|                     0b                        |       .        |          residual_coding_method: 4 (0) (rice) 0x6b67-0x6b67.2 (0.2)
0x6b60|                     0b                        |       .        |          partition_order: 2 0x6b67.2-0x6b67.6 (0.4)
      |                                               |                |          rice_partitions: 4
      |                                               |                |          partitions[0:4]: 0x6b67.6-0x833b.7 (6100.1)
      |                                               |                |            [0]{}: partition 0x6b67.6-0x73e0.3 (2168.5)
      |                                               |                |              count: 1023
0x6b60|                     0b 8c                     |       ..       |              rice_parameter: 14 0x6b67.6-0x6b68.2 (0.4)
0x6b60|                        8c d6 94 25 03 2f ba 9a|        ...%./..|              samples: raw bits 0x6b68.2-0x73e0.3 (2168.1)
0x6b70|2a 8a 98 19 ce 81 07 84 14 3d 82 ed dc 8b 97 65|*........=.....e|
*     |until 0x73e0.2 (2169)                          |                |
      |                                               |                |            [1]{}: partition 0x73e0.3-0x78fe.7 (1310.4)
      |                                               |                |              count: 1024
0x73e0|50                                             |P               |              rice_parameter: 8 0x73e0.3-0x73e0.7 (0.4)
0x73e0|50 47 9f 87 31 9c 5a 93 64 03 91 8e a9 45 a4 b5|PG..1.Z.d....E..|              samples: raw bits 0x73e0.7-0x78fe.7 (1310)
0x73f0|fc df 55 0b 50 d7 76 9d d7 7f c9 39 49 2d 26 04|..U.P.v....9I-&.|
*     |until 0x78fe.6 (1310)                          |                |
      |                                               |                |            [2]{}: partition 0x78fe.7-0x7e1d.3 (1310.4)
      |                                               |                |              count: 1024
0x78f0|                                          65 06|              e.|              rice_parameter: 8 0x78fe.7-0x78ff.3 (0.4)
0x78f0|                                             06|               .|              samples: raw bits 0x78ff.3-0x7e1d.3 (1310)
0x7900|98 ca 17 c2 c4 50 88 f3 f0 e6 33 8b 52 6c 80 72|.....P....3.Rl.r|
*     |until 0x7e1d.2 (1310)                          |                |
      |                                               |                |            [3]{}: partition 0x7e1d.3-0x833b.7 (1310.4)
      |                                               |                |              count: 1024
0x7e10|                                       d0      |             .  |              rice_parameter: 8 0x7e1d.3-0x7e1d.7 (0.4)
0x7e10|                                       d0 6c 8d|             .l.|              samples: raw bits 0x7e1d.7-0x833b.7 (1310)
0x7e20|d1 ba 37 46 c8 d3 19 42 f8 58 8a 11 1e 7e 1c c6|..7F...B.X...~..|
*     |until 0x833b.6 (1310)                          |                |
      |                                               |                |        [1]{}: subframe 0x833b.7-0x9572.6 (4662.7)
0x8330|                                 40            |           @    |          zero_bit: 0 (valid) 0x833b.7-0x833c (0.1)
0x8330|                                    25         |            %   |          subframe_type: "fixed" (0b1001) 0x833c-0x833c.6 (0.6)
      |                                               |                |          lpc_order: 1
0x8330|                                    25         |            %   |          wasted_bits_flag: 0 0x833c.6-0x833c.7 (0.1)
      |                                               |                |          subframe_sample_size: 16
      |                                               |                |          warmup_samples[0:1]: 0x833c.7-0x833e.7 (2)
0x8330|                                    25 77 62   |            %wb |            [0]: -17487 value 0x833c.7-0x833e.7 (2)
0x8330|                                          62 2f|              b/|          residual_coding_method: 4 (0) (rice) 0x833e.7-0x833f.1 (0.2)
0x8330|                                             2f|               /|          partition_order: 5 0x833f.1-0x833f.5 (0.4)
      |                                               |                |          rice_partitions: 32
      |                                               |                |          partitions[0:32]: 0x833f.5-0x9572.6 (4659.1)
      |                                               |                |            [0]{}: partition 0x833f.5-0x8451.1 (273.4)
      |                                               |                |              count: 127
0x8330|                                             2f|               /|              rice_parameter: 14 0x833f.5-0x8340.1 (0.4)
0x8340|38                                             |8               |
0x8340|38 d7 82 55 10 ca b3 be 44 26 02 07 71 30 90 bc|8..U....D&..q0..|              samples: raw bits 0x8340.1-0x8451.1 (273)
0x8350|41                                             |A               |
*     |until 0x8451 (273)                             |                |
      |                                               |                |            [1]{}: partition 0x8451.1-0x8563.3 (274.2)
      |                                               |                |              count: 128
0x8450|   f1                                          | .              |              rice_parameter: 14 0x8451.1-0x8451.5 (0.4)
0x8450|   f1 33 72 6f 69 a8 2f 93 60 26 4d 2c ef d5 dd| .3roi./.`&M,...|              samples: raw bits 0x8451.5-0x8563.3 (273.6)
0x8460|2d d6 87 bb 8e 5b 03 9e 5b b1 7f 52 17 d7 23 e7|-....[..[..R..#.|
*     |until 0x8563.2 (274)                           |                |
      |                                               |                |            [2]{}: partition 0x8563.3-0x867c.6 (281.3)
      |                                               |                |              count: 128
0x8560|         fc                                    |   .            |              rice_parameter: 14 0x8563.3-0x8563.7 (0.4)
0x8560|         fc bb 10 42 02 5e 8d 3c e5 a9 8c 06 2f|   ...B.^.<..../|              samples: raw bits 0x8563.7-0x867c.6 (280.7)
0x8570|f0 24 83 01 1a 34 9c d8 1d eb 1b 6b d8 92 d7 fb|.$...4.....k....|
*     |until 0x867c.5 (281)                           |                |
      |                                               |                |            [3]{}: partition 0x867c.6-0x878e.4 (273.6)
      |                                               |                |              count: 128
0x8670|                                    a3 83      |            ..  |              rice_parameter: 14 0x867c.6-0x867d.2 (0.4)
0x8670|                                       83 81 59|             ..Y|              samples: raw bits 0x867d.2-0x878e.4 (273.2)
0x8680|e4 02 92 78 5d 05 27 7d 5c 9d 0d fc c0 70 b7 08|...x].'}\....p..|
*     |until 0x878e.3 (274)                           |                |
      |                                               |                |            [4]{}: partition 0x878e.4-0x88a4.3 (277.7)
      |                                               |                |              count: 128
0x8780|                                          ce   |              . |              rice_parameter: 14 0x878e.4-0x878f (0.4)
0x8780|                                             1c|               .|              samples: raw bits 0x878f-0x88a4.3 (277.3)
0x8790|62 d8 82 dc ec 96 8a 60 9b e0 37 69 66 1d 99 91|b......`..7if...|
*     |until 0x88a4.2 (278)                           |                |
      |                                               |                |            [5]{}: partition 0x88a4.3-0x89b4.2 (271.7)
      |                                               |                |              count: 128
0x88a0|            5c                                 |    \           |              rice_parameter: 14 0x88a4.3-0x88a4.7 (0.4)
0x88a0|            5c 81 95 39 f5 57 b4 ca 73 12 c5 3c|    \..9.W..s..<|              samples: raw bits 0x88a4.7-0x89b4.2 (271.3)
0x88b0|8b bb 1e 27 69 71 40 4a 00 0e cd af a9 30 e0 10|...'iq@J.....0..|
*     |until 0x89b4.1 (272)                           |                |
      |                                               |                |            [6]{}: partition 0x89b4.2-0x8ac6.1 (273.7)
      |                                               |                |              count: 128
0x89b0|            38                                 |    8           |              rice_parameter: 14 0x89b4.2-0x89b4.6 (0.4)
0x89b0|            38 3b e6 9e 13 9f 50 ac de 03 7b fa|    8;....P...{.|              samples: raw bits 0x89b4.6-0x8ac6.1 (273.3)
0x89c0|b4 c2 2a 32 7e 9e 86 a3 21 ea 18 a3 79 61 47 64|..*2~...!...yaGd|
*     |until 0x8ac6 (274)                             |                |
      |                                               |                |            [7]{}: partition 0x8ac6.1-0x8bbe (247.7)
      |                                               |                |              count: 128
0x8ac0|                  68                           |      h         |              rice_parameter: 13 0x8ac6.1-0x8ac6.5 (0.4)
0x8ac0|                  68 05 ed 24 27 d9 ad 81 5e 40|      h..$'...^@|              samples: raw bits 0x8ac6.5-0x8bbe (247.3)
0x8ad0|02 05 70 05 8c 0d 72 80 01 53 18 00 b4 98 47 fa|..p...r..S....G.|
*     |until 0x8bbd.7 (248)                           |                |
      |                                               |                |            [8]{}: partition 0x8bbe-0x8c24 (102)
      |                                               |                |              count: 128
0x8bb0|                                          41   |              A |              rice_parameter: 4 0x8bbe-0x8bbe.4 (0.4)
0x8bb0|                                          41 01|              A.|              samples: raw bits 0x8bbe.4-0x8c24 (101.4)
0x8bc0|01 01 01 21 03 c7 84 0f 1e 10 3c 70 f1 c3 c7 8e|...!......<p....|
*     |until 0x8c23.7 (102)                           |                |
      |                                               |                |            [9]{}: partition 0x8c24-0x8c82 (94)
      |                                               |                |              count: 128
0x8c20|            4b                                 |    K           |              rice_parameter: 4 0x8c24-0x8c24.4 (0.4)
0x8c20|            4b 52 92 a4 a5 28 4a 10 84 61 18 c6|    KR...(J..a..|              samples: raw bits 0x8c24.4-0x8c82 (93.4)
0x8c30|71 9c eb 3a d6 b5 bd 6f 7c df 39 ce f3 bd ef 7d|q..:...o|.9....}|
*     |until 0x8c81.7 (94)                            |                |
      |                                               |                |            [10]{}: partition 0x8c82-0x8cf2.4 (112.4)
      |                                               |                |              count: 128
0x8c80|      55                                       |  U             |              rice_parameter: 5 0x8c82-0x8c82.4 (0.4)
0x8c80|      55 6a 55 ab 56 b5 5a b5 ab 56 ad 5a bd 6a|  UjU.V.Z..V.Z.j|              samples: raw bits 0x8c82.4-0x8cf2.4 (112)
0x8c90|d5 eb d7 af 5e bd 8a f5 ec d8 af 62 c5 9b 36 2c|....^......b..6,|
*     |until 0x8cf2.3 (112)                           |                |
      |                                               |                |            [11]{}: partition 0x8cf2.4-0x8d61 (110.4)
      |                                               |                |              count: 128
0x8cf0|      75                                       |  u             |              rice_parameter: 5 0x8cf2.4-0x8cf3 (0.4)
0x8cf0|         72 dd db 77 2d db b9 72 dd bb 76 ee 5a|   r..w-..r..v.Z|              samples: raw bits 0x8cf3-0x8d61 (110)
0x8d00|b9 6e dd bb 56 ed 5b b7 6a dd ab 56 ed 59 b5 6a|.n..V.[.j..V.Y.j|
*     |until 0x8d60.7 (110)                           |                |
      |                                               |                |            [12]{}: partition 0x8d61-0x8db4.1 (83.1)
      |                                               |                |              count: 128
0x8d60|   31                                          | 1              |              rice_parameter: 3 0x8d61-0x8d61.4 (0.4)
0x8d60|   31 62 44 89 12 24 f1 27 9a 79 e6 9a 69 a5 9a| 1bD..$.'.y..i..|              samples: raw bits 0x8d61.4-0x8db4.1 (82.5)
0x8d70|59 65 92 59 24 92 f2 5e f7 b5 ed 6b 56 d5 ad 69|Ye.Y$..^...kV..i|
*     |until 0x8db4 (83)                              |                |
      |                                               |                |            [13]{}: partition 0x8db4.1-0x8e22.1 (110)
      |                                               |                |              count: 128
0x8db0|            2f                                 |    /           |              rice_parameter: 5 0x8db4.1-0x8db4.5 (0.4)
0x8db0|            2f 1c 75 d7 5c 79 d7 9e 75 f7 9e 7d|    /.u.\y..u..}|              samples: raw bits 0x8db4.5-0x8e22.1 (109.4)
0x8dc0|f7 df 20 f9 07 c8 90 20 44 89 12 24 49 11 24 48|.. .... D..$I.$H|
*     |until 0x8e22 (110)                             |                |
      |                                               |                |            [14]{}: partition 0x8e22.1-0x8e92.5 (112.4)
      |                                               |                |              count: 128
0x8e20|      2b                                       |  +             |              rice_parameter: 5 0x8e22.1-0x8e22.5 (0.4)
0x8e20|      2b a7 4e 1d 38 74 e9 c3 a7 4e 1d 3a 74 e9|  +.N.8t...N.:t.|              samples: raw bits 0x8e22.5-0x8e92.5 (112)
0x8e30|d3 a7 4e 9d 3a 74 e9 d3 a7 4f 1d 3a 74 e9 d3 a7|..N.:t...O.:t...|
*     |until 0x8e92.4 (112)                           |                |
      |                                               |                |            [15]{}: partition 0x8e92.5-0x8ef4.1 (97.4)
      |                                               |                |              count: 128
0x8e90|      62 1e                                    |  b.            |              rice_parameter: 4 0x8e92.5-0x8e93.1 (0.4)
0x8e90|         1e 38 78 f1 c3 86 8e 1a 38 70 d1 a3 06|   .8x.....8p...|              samples: raw bits 0x8e93.1-0x8ef4.1 (97)
0x8ea0|8d 1a 30 60 c1 82 c6 0b 18 2c 50 b1 62 85 8a 14|..0`.....,P.b...|
*     |until 0x8ef4 (97)                              |                |
      |                                               |                |            [16]{}: partition 0x8ef4.1-0x8f55.5 (97.4)
      |                                               |                |              count: 128
0x8ef0|            a4                                 |    .           |              rice_parameter: 4 0x8ef4.1-0x8ef4.5 (0.4)
0x8ef0|            a4 23 18 ce 33 9d 67 5a d6 b7 ad ef|    .#..3.gZ....|              samples: raw bits 0x8ef4.5-0x8f55.5 (97)
0x8f00|9b e7 39 de 77 bd ef bd ef 7f df ff ff 45 14 51|..9.w........E.Q|
*     |until 0x8f55.4 (97)                            |                |
      |                                               |                |            [17]{}: partition 0x8f55.5-0x8fc6.1 (112.4)
      |                                               |                |              count: 128
0x8f50|               fa ad                           |     ..         |              rice_parameter: 5 0x8f55.5-0x8f56.1 (0.4)
0x8f50|                  ad 5a bd 7a f5 eb d7 b1 5e bd|      .Z.z....^.|              samples: raw bits 0x8f56.1-0x8fc6.1 (112)
0x8f60|9b 15 ec 58 b3 66 c5 8b 36 6c 59 b5 66 cd 9b 36|...X.f..6lY.f..6|
*     |until 0x8fc6 (112)                             |                |
      |                                               |                |            [18]{}: partition 0x8fc6.1-0x9032.7 (108.6)
      |                                               |                |              count: 128
0x8fc0|                  ab                           |      .         |              rice_parameter: 5 0x8fc6.1-0x8fc6.5 (0.4)
0x8fc0|                  ab 57 2d db b7 6a dd ab 76 ed|      .W-..j..v.|              samples: raw bits 0x8fc6.5-0x9032.7 (108.2)
0x8fd0|5b b5 6a dd ab 36 ad 5a b3 6a d5 9b 36 6c da b3|[.j..6.Z.j..6l..|
*     |until 0x9032.6 (109)                           |                |
      |                                               |                |            [19]{}: partition 0x9032.7-0x9086.7 (84)
      |                                               |                |              count: 128
0x9030|      ea 66                                    |  .f            |              rice_parameter: 3 0x9032.7-0x9033.3 (0.4)
0x9030|         66 9a 59 a5 96 59 25 92 49 2f 25 ef 7b|   f.Y..Y%.I/%.{|              samples: raw bits 0x9033.3-0x9086.7 (83.4)
0x9040|5e d6 b5 6d 5a d6 95 a5 29 ff 4e ff ee ee de dd|^..mZ...).N.....|
*     |until 0x9086.6 (84)                            |                |
      |                                               |                |            [20]{}: partition 0x9086.7-0x90f6.5 (111.6)
      |                                               |                |              count: 128
0x9080|                  18 bf                        |      ..        |              rice_parameter: 5 0x9086.7-0x9087.3 (0.4)
0x9080|                     bf 7d f7 c8 3e 41 f2 24 08|       .}..>A.$.|              samples: raw bits 0x9087.3-0x90f6.5 (111.2)
0x9090|11 22 44 89 12 44 49 12 24 4c 91 22 64 c9 93 28|."D..DI.$L."d..(|
*     |until 0x90f6.4 (112)                           |                |
      |                                               |                |            [21]{}: partition 0x90f6.5-0x9167.1 (112.4)
      |                                               |                |              count: 128
0x90f0|                  d2 ba                        |      ..        |              rice_parameter: 5 0x90f6.5-0x90f7.1 (0.4)
0x90f0|                     ba 74 e9 d3 a7 4e 9d 3a 74|       .t...N.:t|              samples: raw bits 0x90f7.1-0x9167.1 (112)
0x9100|e9 d3 c7 4e 9d 3a 74 e9 e3 a7 4e 9d 3a 78 e9 d3|...N.:t...N.:x..|
*     |until 0x9167 (112)                             |                |
      |                                               |                |            [22]{}: partition 0x9167.1-0x91c5.1 (94)
      |                                               |                |              count: 128
0x9160|                     21                        |       !        |              rice_parameter: 4 0x9167.1-0x9167.5 (0.4)
0x9160|                     21 a3 46 8c 18 30 60 b1 82|       !.F..0`..|              samples: raw bits 0x9167.5-0x91c5.1 (93.4)
0x9170|c6 0b 14 2c 58 a1 62 85 09 14 24 50 91 22 44 08|...,X.b...$P."D.|
*     |until 0x91c5 (94)                              |                |
      |                                               |                |            [23]{}: partition 0x91c5.1-0x922a.4 (101.3)
      |                                               |                |              count: 128
0x91c0|               a5                              |     .          |              rice_parameter: 4 0x91c5.1-0x91c5.5 (0.4)
0x91c0|               a5 eb 7b e6 f9 ce 77 9d ef 7b ef|     ..{...w..{.|              samples: raw bits 0x91c5.5-0x922a.4 (100.7)
0x91d0|7b df f7 ff ff d1 45 14 51 4d 34 d3 4d 55 53 55|{.....E.QM4.MUSU|
*     |until 0x922a.3 (101)                           |                |
      |                                               |                |            [24]{}: partition 0x922a.4-0x929b (112.4)
      |                                               |                |              count: 128
0x9220|                              f5               |          .     |              rice_parameter: 5 0x922a.4-0x922b (0.4)
0x9220|                                 62 c5 9b 36 2c|           b..6,|              samples: raw bits 0x922b-0x929b (112)
0x9230|59 b3 62 cd ab 36 6c d9 b5 6a d5 9b 56 ad 5a b5|Y.b..6l..j..V.Z.|
*     |until 0x929a.7 (112)                           |                |
      |                                               |                |            [25]{}: partition 0x929b-0x9306 (107)
      |                                               |                |              count: 128
0x9290|                                 56            |           V    |              rice_parameter: 5 0x929b-0x929b.4 (0.4)
0x9290|                                 56 ed 59 b5 6a|           V.Y.j|              samples: raw bits 0x929b.4-0x9306 (106.4)
0x92a0|d5 9b 56 ac d9 b3 66 d5 9b 36 2c d8 b3 66 c5 8b|..V...f..6,..f..|
*     |until 0x9305.7 (107)                           |                |
      |                                               |                |            [26]{}: partition 0x9306-0x935c.7 (86.7)
      |                                               |                |              count: 128
0x9300|                  37                           |      7         |              rice_parameter: 3 0x9306-0x9306.4 (0.4)
0x9300|                  37 bd ed 7b 5a d5 b5 6b 5a 56|      7..{Z..kZV|              samples: raw bits 0x9306.4-0x935c.7 (86.3)
0x9310|94 a7 fd 3b ff bb bb 7b 77 37 33 31 31 11 51 55|...;...{w7311.QU|
*     |until 0x935c.6 (87)                            |                |
      |                                               |                |            [27]{}: partition 0x935c.7-0x93cd.3 (112.4)
      |                                               |                |              count: 128
0x9350|                                    14 a8      |            ..  |              rice_parameter: 5 0x935c.7-0x935d.3 (0.4)
0x9350|                                       a8 91 24|             ..$|              samples: raw bits 0x935d.3-0x93cd.3 (112)
0x9360|44 91 22 44 c9 12 26 4c 99 32 84 ca 14 28 50 a1|D."D..&L.2...(P.|
*     |until 0x93cd.2 (112)                           |                |
      |                                               |                |            [28]{}: partition 0x93cd.3-0x943d.7 (112.4)
      |                                               |                |              count: 128
0x93c0|                                       4a      |             J  |              rice_parameter: 5 0x93cd.3-0x93cd.7 (0.4)
0x93c0|                                       4a e9 d3|             J..|              samples: raw bits 0x93cd.7-0x943d.7 (112)
0x93d0|a7 4e 9e 3a 74 e9 d3 a7 8e 9d 3a 74 e9 d3 c7 4e|.N.:t.....:t...N|
*     |until 0x943d.6 (112)                           |                |
      |                                               |                |            [29]{}: partition 0x943d.7-0x9498.3 (90.4)
      |                                               |                |              count: 128
0x9430|                                       4c 85   |             L. |              rice_parameter: 4 0x943d.7-0x943e.3 (0.4)
0x9430|                                          85 8a|              ..|              samples: raw bits 0x943e.3-0x9498.3 (90)
0x9440|16 28 50 91 42 45 09 12 24 40 81 22 04 08 3c f1|.(P.BE..$@."..<.|
*     |until 0x9498.2 (90)                            |                |
      |                                               |                |            [30]{}: partition 0x9498.3-0x9502.2 (105.7)
      |                                               |                |              count: 128
0x9490|                        6b                     |        k       |              rice_parameter: 5 0x9498.3-0x9498.7 (0.4)
0x9490|                        6b 5d b6 db 6d f6 df 7d|        k]..m..}|              samples: raw bits 0x9498.7-0x9502.2 (105.3)
0x94a0|f7 e3 8e 38 e3 9e 79 e7 9e ba e7 ae fb eb be fb|...8..y.........|
*     |until 0x9502.1 (106)                           |                |
      |                                               |                |            [31]{}: partition 0x9502.2-0x9572.6 (112.4)
      |                                               |                |              count: 128
0x9500|      d5                                       |  .             |              rice_parameter: 5 0x9502.2-0x9502.6 (0.4)
0x9500|      d5 9b 56 ad 59 b5 6a d5 ab 56 ad da b5 6e|  ..V.Y.j..V...n|              samples: raw bits 0x9502.6-0x9572.6 (112)
0x9510|dd ab 76 ed 5b b7 72 dd bb 76 ed db b9 72 dd cb|..v.[.r..v...r..|
*     |until 0x9572.5 (112)                           |                |
0x9570|      d4                                       |  .             |      byte_align: 0 (valid) 0x9572.6-0x9573 (0.2)
0x9570|         95 48                                 |   .H           |      footer_crc: "9548" (raw bits) (valid) 0x9573-0x9575 (2)
      |00 01 02 03 04 05 06 07 08 09 0a 0b 0c 0d 0e 0f|0123456789abcdef|    [4]{}: frame (flac_frame) 0x9575-0xb891 (8988)
      |                                               |                |      header{}: 0x9575-0x957b (6)
0x9570|               ff f8                           |     ..         |        sync: 0b11111111111110 (valid) 0x9575-0x9576.6 (1.6)
0x9570|                  f8                           |      .         |        reserved0: 0 (valid) 0x9576.6-0x9576.7 (0.1)
0x9570|                  f8                           |      .         |        blocking_strategy: "fixed" (0) 0x9576.7-0x9577 (0.1)
0x9570|                     c9                        |       .        |        block_size: 4096 (0b1100) 0x9577-0x9577.4 (0.4)
0x9570|                     c9                        |       .        |        sample_rate: 44100 (0b1001) 0x9577.4-0x9578 (0.4)
0x9570|                        18                     |        .       |        channel_assignment: 2 (1) (lr) 0x9578-0x9578.4 (0.4)
0x9570|                        18                     |        .       |        sample_size: 16 (0b100) 0x9578.4-0x9578.7 (0.3)
0x9570|                        18                     |        .       |        reserved1: 0 (valid) 0x9578.7-0x9579 (0.1)
      |                                               |                |        end_of_header{}: 0x9579-0x957a (1)
0x9570|                           04                  |         .      |          frame_number: 4 0x9579-0x957a (1)
0x9570|                              de               |          .     |        crc: 0xde (valid) 0x957a-0x957b (1)
      |                                               |                |      subframes[0:2]: 0x957b-0xb88e.2 (8979.2)
      |                                               |                |        [0]{}: subframe 0x957b-0xb4d9 (8030)
0x9570|                                 10            |           .    |          zero_bit: 0 (valid) 0x957b-0x957b.1 (0.1)
0x9570|                                 10            |           .    |          subframe_type: "fixed" (0b1000) 0x957b.1-0x957b.7 (0.6)
      |                                               |                |          lpc_order: 0
0x9570|                                 10            |           .    |          wasted_bits_flag: 0 0x957b.7-0x957c (0.1)
      |                                               |                |          subframe_sample_size: 16
      |                                               |                |          warmup_samples[0:0]: 0x957c-0x957c (0)
0x9570|                                    13         |            .   |          residual_coding_method: 4 (0) (rice) 0x957c-0x957c.2 (0.2)
0x9570|                                    13         |            .   |          partition_order: 4 0x957c.2-0x957c.6 (0.4)
      |                                               |                |          rice_partitions: 16
      |                                               |                |          partitions[0:16]: 0x957c.6-0xb4d9 (8028.2)
      |                                               |                |            [0]{}: partition 0x957c.6-0x9732.4 (437.6)
      |                                               |                |              count: 256
0x9570|                                    13 10      |            ..  |              rice_parameter: 12 0x957c.6-0x957d.2 (0.4)
0x9570|                                       10 df f3|             ...|              samples: raw bits 0x957d.2-0x9732.4 (437.2)
0x9580|ff 00 72 df 6c 9a 0b c5 76 2b 94 16 b6 46 5b b8|..r.l...v+...F[.|
*     |until 0x9732.3 (438)                           |                |
      |                                               |                |            [1]{}: partition 0x9732.4-0x98e8.3 (437.7)
      |                                               |                |              count: 256
0x9730|      2c                                       |  ,             |              rice_parameter: 12 0x9732.4-0x9733 (0.4)
0x9730|         4e b9 17 4f 8d 72 93 42 d7 76 a6 34 83|   N..O.r.B.v.4.|              samples: raw bits 0x9733-0x98e8.3 (437.3)
0x9740|a1 5b 36 9b 0e e3 0f 6b bd df 41 25 29 55 2f 56|.[6....k..A%)U/V|
*     |until 0x98e8.2 (438)                           |                |
      |                                               |                |            [2]{}: partition 0x98e8.3-0x9a9e.1 (437.6)
      |                                               |                |              count: 256
0x98e0|                        78                     |        x       |              rice_parameter: 12 0x98e8.3-0x98e8.7 (0.4)
0x98e0|                        78 b2 0a 86 e9 02 fe c7|        x.......|              samples: raw bits 0x98e8.7-0x9a9e.1 (437.2)
0x98f0|a8 7a bb c0 ed 5c 65 77 00 19 5d 55 c3 03 9a ba|.z...\ew..]U....|
*     |until 0x9a9e (438)                             |                |
      |                                               |                |            [3]{}: partition 0x9a9e.1-0x9c53.7 (437.6)
      |                                               |                |              count: 256
0x9a90|                                          63   |              c |              rice_parameter: 12 0x9a9e.1-0x9a9e.5 (0.4)
0x9a90|                                          63 12|              c.|              samples: raw bits 0x9a9e.5-0x9c53.7 (437.2)
0x9aa0|cb 5f 29 7c 94 b2 09 9d e2 db 06 31 ac 3d 36 a8|._)|.......1.=6.|
*     |until 0x9c53.6 (438)                           |                |
      |                                               |                |            [4]{}: partition 0x9c53.7-0x9e1d.2 (457.3)
      |                                               |                |              count: 256
0x9c50|         17 8d                                 |   ..           |              rice_parameter: 12 0x9c53.7-0x9c54.3 (0.4)
0x9c50|            8d 4f b2 06 b9 ba a8 29 90 a1 bf e7|    .O.....)....|              samples: raw bits 0x9c54.3-0x9e1d.2 (456.7)
0x9c60|fe 00 e5 be d9 34 17 8a ec 57 28 2d 6c 8c b7 70|.....4...W(-l..p|
*     |until 0x9e1d.1 (457)                           |                |
      |                                               |                |            [5]{}: partition 0x9e1d.2-0xa031.1 (531.7)
      |                                               |                |              count: 256
0x9e10|                                       39      |             9  |              rice_parameter: 14 0x9e1d.2-0x9e1d.6 (0.4)
0x9e10|                                       39 81 91|             9..|              samples: raw bits 0x9e1d.6-0xa031.1 (531.3)
0x9e20|8f 64 e8 42 2a 6e 7d 4c 40 6f 13 cd 59 17 c6 4e|.d.B*n}L@o..Y..N|
*     |until 0xa031 (532)                             |                |
      |                                               |                |            [6]{}: partition 0xa031.1-0xa23d.3 (524.2)
      |                                               |                |              count: 256
0xa030|   71                                          | q              |              rice_parameter: 14 0xa031.1-0xa031.5 (0.4)
0xa030|   71 27 95 4d 79 48 18 f4 49 68 cc b8 95 7b 6c| q'.MyH..Ih...{l|              samples: raw bits 0xa031.5-0xa23d.3 (523.6)
0xa040|51 a9 1a bc 14 6e 44 73 74 7c ba c7 0e 5b 46 ac|Q....nDst|...[F.|
*     |until 0xa23d.2 (524)                           |                |
      |                                               |                |            [7]{}: partition 0xa23d.3-0xa44b.6 (526.3)
      |                                               |                |              count: 256
0xa230|                                       bd      |             .  |              rice_parameter: 14 0xa23d.3-0xa23d.7 (0.4)
0xa230|                                       bd f9 40|             ..@|              samples: raw bits 0xa23d.7-0xa44b.6 (525.7)
0xa240|fb 70 f1 cc 35 d6 0f 1c 71 a7 4e db 0f 9d 54 22|.p..5...q.N...T"|
*     |until 0xa44b.5 (526)                           |                |
      |                                               |                |            [8]{}: partition 0xa44b.6-0xa65d.5 (529.7)
      |                                               |                |              count: 256
0xa440|                                 37 95         |           7.   |              rice_parameter: 14 0xa44b.6-0xa44c.2 (0.4)
0xa440|                                    95 05 cc 29|            ...)|              samples: raw bits 0xa44c.2-0xa65d.5 (529.3)
0xa450|6d f6 3c a8 9b b8 3a d9 1a 1e 6f cf 8e e0 b7 8c|m.<...:...o.....|
*     |until 0xa65d.4 (530)                           |                |
      |                                               |                |            [9]{}: partition 0xa65d.5-0xa871.1 (531.4)
      |                                               |                |              count: 256
0xa650|                                       af 56   |             .V |              rice_parameter: 14 0xa65d.5-0xa65e.1 (0.4)
0xa650|                                          56 aa|              V.|              samples: raw bits 0xa65e.1-0xa871.1 (531)
0xa660|16 34 96 e7 7b 1f ba a7 b7 4f 9f 8a 87 b5 81 d1|.4..{....O......|
*     |until 0xa871 (531)                             |                |
      |                                               |                |            [10]{}: partition 0xa871.1-0xaa83 (529.7)
      |                                               |                |              count: 256
0xa870|   73                                          | s              |              rice_parameter: 14 0xa871.1-0xa871.5 (0.4)
0xa870|   73 e1 08 ed a8 58 94 bc 10 6a b0 4b 08 34 1b| s....X...j.K.4.|              samples: raw bits 0xa871.5-0xaa83 (529.3)
0xa880|8f 90 47 76 07 3b 7f a1 5b 8e 24 51 38 15 27 f7|..Gv.;..[.$Q8.'.|
*     |until 0xaa82.7 (530)                           |                |
      |                                               |                |            [11]{}: partition 0xaa83-0xac93.2 (528.2)
      |                                               |                |              count: 256
0xaa80|         e1                                    |   .            |              rice_parameter: 14 0xaa83-0xaa83.4 (0.4)
0xaa80|         e1 66 88 97 fc 3c b8 cc 82 1b e3 87 44|   .f...<......D|              samples: raw bits 0xaa83.4-0xac93.2 (527.6)
0xaa90|0b 21 27 8d d1 f9 c1 50 6d d2 85 a1 de 73 eb 54|.!'....Pm....s.T|
*     |until 0xac93.1 (528)                           |                |
      |                                               |                |            [12]{}: partition 0xac93.2-0xaea5.4 (530.2)
      |                                               |                |              count: 256
0xac90|         b9                                    |   .            |              rice_parameter: 14 0xac93.2-0xac93.6 (0.4)
0xac90|         b9 df e1 aa 8c af b4 3a a7 b9 36 bc f4|   .......:..6..|              samples: raw bits 0xac93.6-0xaea5.4 (529.6)
0xaca0|18 5d 1c f8 22 74 23 80 a5 94 27 dc fd a2 5a 24|.].."t#...'...Z$|
*     |until 0xaea5.3 (530)                           |                |
      |                                               |                |            [13]{}: partition 0xaea5.4-0xb0b5.2 (527.6)
      |                                               |                |              count: 256
0xaea0|               5e                              |     ^          |              rice_parameter: 14 0xaea5.4-0xaea6 (0.4)
0xaea0|                  5b fb b8 4c c4 d2 e5 06 7c 11|      [..L....|.|              samples: raw bits 0xaea6-0xb0b5.2 (527.2)
0xaeb0|10 25 04 ea f3 9e 9b 06 a2 01 00 b1 e4 48 39 2c|.%...........H9,|
*     |until 0xb0b5.1 (528)                           |                |
      |                                               |                |            [14]{}: partition 0xb0b5.2-0xb2c6.5 (529.3)
      |                                               |                |              count: 256
0xb0b0|               b9                              |     .          |              rice_parameter: 14 0xb0b5.2-0xb0b5.6 (0.4)
0xb0b0|               b9 fa 32 9f a3 b4 ee 1f a4 1e 42|     ..2.......B|              samples: raw bits 0xb0b5.6-0xb2c6.5 (528.7)
0xb0c0|ae 65 d6 f1 5c 4b f8 a4 09 96 46 84 b2 e4 f3 b3|.e..\K....F.....|
*     |until 0xb2c6.4 (529)                           |                |
      |                                               |                |            [15]{}: partition 0xb2c6.5-0xb4d9 (530.3)
      |                                               |                |              count: 256
0xb2c0|                  97 26                        |      .&        |              rice_parameter: 14 0xb2c6.5-0xb2c7.1 (0.4)
0xb2c0|                     26 ea ec aa 1c 82 58 16 ec|       &.....X..|              samples: raw bits 0xb2c7.1-0xb4d9 (529.7)
0xb2d0|40 12 50 59 d8 c6 90 f2 bd 40 82 24 75 9b 70 c9|@.PY.....@.$u.p.|
*     |until 0xb4d8.7 (530)                           |                |
      |                                               |                |        [1]{}: subframe 0xb4d9-0xb88e.2 (949.2)
0xb4d0|                           14                  |         .      |          zero_bit: 0 (valid) 0xb4d9-0xb4d9.1 (0.1)
0xb4d0|                           14                  |         .      |          subframe_type: "fixed" (0b1010) 0xb4d9.1-0xb4d9.7 (0.6)
      |                                               |                |          lpc_order: 2
0xb4d0|                           14                  |         .      |          wasted_bits_flag: 0 0xb4d9.7-0xb4da (0.1)
      |                                               |                |          subframe_sample_size: 16
      |                                               |                |          warmup_samples[0:2]: 0xb4da-0xb4de (4)
0xb4d0|                              f8 a7            |          ..    |            [0]: -1881 value 0xb4da-0xb4dc (2)
0xb4d0|                                    f8 8d      |            ..  |            [1]: -1907 value 0xb4dc-0xb4de (2)
0xb4d0|                                          04   |              . |          residual_coding_method: 4 (0) (rice) 0xb4de-0xb4de.2 (0.2)
0xb4d0|                                          04   |              . |          partition_order: 1 0xb4de.2-0xb4de.6 (0.4)
      |                                               |                |          rice_partitions: 2
      |                                               |                |          partitions[0:2]: 0xb4de.6-0xb88e.2 (943.4)
      |                                               |                |            [0]{}: partition 0xb4de.6-0xb6b4.3 (469.5)
      |                                               |                |              count: 2046
0xb4d0|                                          04 0a|              ..|              rice_parameter: 0 0xb4de.6-0xb4df.2 (0.4)
0xb4d0|                                             0a|               .|              samples: raw bits 0xb4df.2-0xb6b4.3 (469.1)
0xb4e0|59 f2 cf 49 a6 92 96 65 2c cb 9e 52 92 ca 65 29|Y..I...e,..R..e)|
*     |until 0xb6b4.2 (470)                           |                |
      |                                               |                |            [1]{}: partition 0xb6b4.3-0xb88e.2 (473.7)
      |                                               |                |              count: 2048
0xb6b0|            20                                 |                |              rice_parameter: 0 0xb6b4.3-0xb6b4.7 (0.4)
0xb6b0|            20 25 2c d9 65 97 fe 44 f4 22 52 9d|     %,.e..D."R.|              samples: raw bits 0xb6b4.7-0xb88e.2 (473.3)
0xb6c0|29 66 e5 2f cb ff a7 d3 4e 94 d9 66 cb 97 2c b4|)f./....N..f..,.|
*     |until 0xb88e.1 (474)                           |                |
0xb880|                                          40   |              @ |      byte_align: 0 (valid) 0xb88e.2-0xb88f (0.6)
0xb880|                                             c1|               .|      footer_crc: "c13d" (raw bits) (valid) 0xb88f-0xb891 (2)
0xb890|3d                                             |=               |
      |00 01 02 03 04 05 06 07 08 09 0a 0b 0c 0d 0e 0f|0123456789abcdef|    [5]{}: frame (flac_frame) 0xb891-0xc6aa (3609)
      |                                               |                |      header{}: 0xb891-0xb899 (8)
0xb890|   ff f8                                       | ..             |        sync: 0b11111111111110 (valid) 0xb891-0xb892.6 (1.6)
0xb890|      f8                                       |  .             |        reserved0: 0 (valid) 0xb892.6-0xb892.7 (0.1)
0xb890|      f8                                       |  .             |        blocking_strategy: "fixed" (0) 0xb892.7-0xb893 (0.1)
0xb890|         79                                    |   y            |        block_size: 0b111 (end of header (16 bit)) 0xb893-0xb893.4 (0.4)
0xb890|         79                                    |   y            |        sample_rate: 44100 (0b1001) 0xb893.4-0xb894 (0.4)
0xb890|            18                                 |    .           |        channel_assignment: 2 (1) (lr) 0xb894-0xb894.4 (0.4)
0xb890|            18                                 |    .           |        sample_size: 16 (0b100) 0xb894.4-0xb894.7 (0.3)
0xb890|            18                                 |    .           |        reserved1: 0 (valid) 0xb894.7-0xb895 (0.1)
      |                                               |                |        end_of_header{}: 0xb895-0xb898 (3)
0xb890|               05                              |     .          |          frame_number: 5 0xb895-0xb896 (1)
0xb890|                  06 21                        |      .!        |          block_size: 1570 0xb896-0xb898 (2)
0xb890|                        5f                     |        _       |        crc: 0x5f (valid) 0xb898-0xb899 (1)
      |                                               |                |      subframes[0:2]: 0xb899-0xc6a7.2 (3598.2)
      |                                               |                |        [0]{}: subframe 0xb899-0xc4de (3141)
0xb890|                           02                  |         .      |          zero_bit: 0 (valid) 0xb899-0xb899.1 (0.1)
0xb890|                           02                  |         .      |          subframe_type: "verbatim" (0b1) 0xb899.1-0xb899.7 (0.6)
0xb890|                           02                  |         .      |          wasted_bits_flag: 0 0xb899.7-0xb89a (0.1)
      |                                               |                |          subframe_sample_size: 16
0xb890|                              3e 6f 45 a2 73 58|          >oE.sX|          samples: raw bits 0xb89a-0xc4de (3140)
0xb8a0|37 f3 8c da a2 16 cd 38 5a 8c fe b6 ca 3c 9f cb|7......8Z....<..|
*     |until 0xc4dd.7 (3140)                          |                |
      |                                               |                |        [1]{}: subframe 0xc4de-0xc6a7.2 (457.2)
0xc4d0|                                          14   |              . |          zero_bit: 0 (valid) 0xc4de-0xc4de.1 (0.1)
0xc4d0|                                          14   |              . |          subframe_type: "fixed" (0b1010) 0xc4de.1-0xc4de.7 (0.6)
      |                                               |                |          lpc_order: 2
0xc4d0|                                          14   |              . |          wasted_bits_flag: 0 0xc4de.7-0xc4df (0.1)
      |                                               |                |          subframe_sample_size: 16
      |                                               |                |          warmup_samples[0:2]: 0xc4df-0xc4e3 (4)
0xc4d0|                                             0f|               .|            [0]: 3979 value 0xc4df-0xc4e1 (2)
0xc4e0|8b                                             |.               |
0xc4e0|   0f 88                                       | ..             |            [1]: 3976 value 0xc4e1-0xc4e3 (2)
0xc4e0|         00                                    |   .            |          residual_coding_method: 4 (0) (rice) 0xc4e3-0xc4e3.2 (0.2)
0xc4e0|         00                                    |   .            |          partition_order: 0 0xc4e3.2-0xc4e3.6 (0.4)
      |                                               |                |          rice_partitions: 1
      |                                               |                |          partitions[0:1]: 0xc4e3.6-0xc6a7.2 (451.4)
      |                                               |                |            [0]{}: partition 0xc4e3.6-0xc6a7.2 (451.4)
      |                                               |                |              count: 1568
0xc4e0|         00 65                                 |   .e           |              rice_parameter: 1 0xc4e3.6-0xc4e4.2 (0.4)
0xc4e0|            65 d5 55 5a ad 5a d6 b9 74 ba aa aa|    e.UZ.Z..t...|              samples: raw bits 0xc4e4.2-0xc6a7.2 (451)
0xc4f0|b5 5a b5 72 e5 cb a9 75 6a aa d6 ab 5c ae 96 ba|.Z.r...uj...\...|
*     |until 0xc6a7.1 (451)                           |                |
0xc6a0|                     80                        |       .        |      byte_align: 0 (valid) 0xc6a7.2-0xc6a8 (0.6)
0xc6a0|                        06 d3|                 |        ..|     |      footer_crc: "06d3" (raw bits) (valid) 0xc6a8-0xc6aa (2)
      |00 01 02 03 04 05 06 07 08 09 0a 0b 0c 0d 0e 0f|0123456789abcdef|
  0x00|5a 00 c8 73 b8 0b 8f 62 94 d1 4f e7 5b 14 a7 d3|Z..s...b..O.[...|  md5_calculated: "5a00c873b80b8f6294d14fe75b14a7d3" (raw bits) (valid) 0x0-0x10 (16)
      |                                               |                |  decoded_samples: 22050
