$ fq -d zip verbose /test0.zip
     |00 01 02 03 04 05 06 07 08 09 0a 0b 0c 0d 0e 0f|0123456789abcdef|.: {} /test0.zip (zip) 0x0-0x292.7 (659)
     |                                               |                |  local_files: [4] 0x0-0x142.7 (323)
     |                                               |                |    [0]: local_file {} 0x0-0x3e.7 (63)
0x000|50 4b 03 04                                    |PK..            |      signature: raw bits (valid) 0x0-0x3.7 (4)
0x000|            0a 00                              |    ..          |      version_needed: 10 0x4-0x5.7 (2)
     |                                               |                |      flags: {} 0x6-0x7.7 (2)
0x000|                  00                           |      .         |        unused0: 0 0x6-0x6 (0.1)
0x000|                  00                           |      .         |        strong_encryption: false 0x6.1-0x6.1 (0.1)
0x000|                  00                           |      .         |        compressed_patched_data: false 0x6.2-0x6.2 (0.1)
0x000|                  00                           |      .         |        enhanced_deflation: false 0x6.3-0x6.3 (0.1)
0x000|                  00                           |      .         |        data_descriptor: false 0x6.4-0x6.4 (0.1)
0x000|                  00                           |      .         |        compression0: false 0x6.5-0x6.5 (0.1)
0x000|                  00                           |      .         |        compression1: false 0x6.6-0x6.6 (0.1)
0x000|                  00                           |      .         |        encrypted: false 0x6.7-0x6.7 (0.1)
0x000|                     00                        |       .        |        reserved0: 0 0x7-0x7.1 (0.2)
0x000|                     00                        |       .        |        mask_header_values: false 0x7.2-0x7.2 (0.1)
0x000|                     00                        |       .        |        reserved1: false 0x7.3-0x7.3 (0.1)
0x000|                     00                        |       .        |        language_encoding: false 0x7.4-0x7.4 (0.1)
0x000|                     00                        |       .        |        unused1: 0 0x7.5-0x7.7 (0.3)
0x000|                        00 00                  |        ..      |      compression_method: "None" (0) 0x8-0x9.7 (2)
     |                                               |                |      last_modification_date: {} 0xa-0xb.7 (2)
0x000|                              ef               |          .     |        hours: 29 0xa-0xa.4 (0.5)
0x000|                              ef 94            |          ..    |        minutes: 60 0xa.5-0xb.2 (0.6)
0x000|                                 94            |           .    |        seconds: 20 0xb.3-0xb.7 (0.5)
     |                                               |                |      last_modification_time: {} 0xc-0xd.7 (2)
0x000|                                    71         |            q   |        year: 56 0xc-0xc.6 (0.7)
0x000|                                    71 53      |            qS  |        month: 10 0xc.7-0xd.2 (0.4)
0x000|                                       53      |             S  |        day: 19 0xd.3-0xd.7 (0.5)
0x000|                                          00 00|              ..|      crc32_uncompressed: 0x0 0xe-0x11.7 (4)
0x010|00 00                                          |..              |
0x010|      00 00 00 00                              |  ....          |      compressed_size: 0 0x12-0x15.7 (4)
0x010|                  00 00 00 00                  |      ....      |      uncompressed_size: 0 0x16-0x19.7 (4)
0x010|                              05 00            |          ..    |      file_name_length: 5 0x1a-0x1b.7 (2)
0x010|                                    1c 00      |            ..  |      extra_field_length: 28 0x1c-0x1d.7 (2)
0x010|                                          74 65|              te|      file_name: "test/" 0x1e-0x22.7 (5)
0x020|73 74 2f                                       |st/             |
     |                                               |                |      extra_fields: [2] 0x23-0x3e.7 (28)
     |                                               |                |        [0]: extra_field {} 0x23-0x2f.7 (13)
0x020|         55 54                                 |   UT           |          header_id: 0x5455 (extended timestamp) 0x23-0x24.7 (2)
0x020|               09 00                           |     ..         |          data_size: 9 0x25-0x26.7 (2)
0x020|                     03 52 3e 95 61 59 3e 95 61|       .R>.aY>.a|          data: raw bits 0x27-0x2f.7 (9)
     |                                               |                |        [1]: extra_field {} 0x30-0x3e.7 (15)
0x030|75 78                                          |ux              |          header_id: 0x7875 (UNIX UID/GID) 0x30-0x31.7 (2)
0x030|      0b 00                                    |  ..            |          data_size: 11 0x32-0x33.7 (2)
0x030|            01 04 f5 01 00 00 04 14 00 00 00   |    ........... |          data: raw bits 0x34-0x3e.7 (11)
     |                                               |                |      uncompressed: raw bits 0x3f-NA (0)
     |                                               |                |    [1]: local_file {} 0x3f-0x7f.7 (65)
0x030|                                             50|               P|      signature: raw bits (valid) 0x3f-0x42.7 (4)
0x040|4b 03 04                                       |K..             |
0x040|         0a 00                                 |   ..           |      version_needed: 10 0x43-0x44.7 (2)
     |                                               |                |      flags: {} 0x45-0x46.7 (2)
0x040|               00                              |     .          |        unused0: 0 0x45-0x45 (0.1)
0x040|               00                              |     .          |        strong_encryption: false 0x45.1-0x45.1 (0.1)
0x040|               00                              |     .          |        compressed_patched_data: false 0x45.2-0x45.2 (0.1)
0x040|               00                              |     .          |        enhanced_deflation: false 0x45.3-0x45.3 (0.1)
0x040|               00                              |     .          |        data_descriptor: false 0x45.4-0x45.4 (0.1)
0x040|               00                              |     .          |        compression0: false 0x45.5-0x45.5 (0.1)
0x040|               00                              |     .          |        compression1: false 0x45.6-0x45.6 (0.1)
0x040|               00                              |     .          |        encrypted: false 0x45.7-0x45.7 (0.1)
0x040|                  00                           |      .         |        reserved0: 0 0x46-0x46.1 (0.2)
0x040|                  00                           |      .         |        mask_header_values: false 0x46.2-0x46.2 (0.1)
0x040|                  00                           |      .         |        reserved1: false 0x46.3-0x46.3 (0.1)
0x040|                  00                           |      .         |        language_encoding: false 0x46.4-0x46.4 (0.1)
0x040|                  00                           |      .         |        unused1: 0 0x46.5-0x46.7 (0.3)
0x040|                     00 00                     |       ..       |      compression_method: "None" (0) 0x47-0x48.7 (2)
     |                                               |                |      last_modification_date: {} 0x49-0x4a.7 (2)
0x040|                           4c                  |         L      |        hours: 9 0x49-0x49.4 (0.5)
0x040|                           4c 90               |         L.     |        minutes: 36 0x49.5-0x4a.2 (0.6)
0x040|                              90               |          .     |        seconds: 16 0x4a.3-0x4a.7 (0.5)
     |                                               |                |      last_modification_time: {} 0x4b-0x4c.7 (2)
0x040|                                 71            |           q    |        year: 56 0x4b-0x4b.6 (0.7)
0x040|                                 71 53         |           qS   |        month: 10 0x4b.7-0x4c.2 (0.4)
0x040|                                    53         |            S   |        day: 19 0x4c.3-0x4c.7 (0.5)
0x040|                                       00 00 00|             ...|      crc32_uncompressed: 0x0 0x4d-0x50.7 (4)
0x050|00                                             |.               |
0x050|   00 00 00 00                                 | ....           |      compressed_size: 0 0x51-0x54.7 (4)
0x050|               00 00 00 00                     |     ....       |      uncompressed_size: 0 0x55-0x58.7 (4)
0x050|                           07 00               |         ..     |      file_name_length: 7 0x59-0x5a.7 (2)
0x050|                                 1c 00         |           ..   |      extra_field_length: 28 0x5b-0x5c.7 (2)
0x050|                                       74 65 73|             tes|      file_name: "test/a/" 0x5d-0x63.7 (7)
0x060|74 2f 61 2f                                    |t/a/            |
     |                                               |                |      extra_fields: [2] 0x64-0x7f.7 (28)
     |                                               |                |        [0]: extra_field {} 0x64-0x70.7 (13)
0x060|            55 54                              |    UT          |          header_id: 0x5455 (extended timestamp) 0x64-0x65.7 (2)
0x060|                  09 00                        |      ..        |          data_size: 9 0x66-0x67.7 (2)
0x060|                        03 a0 35 95 61 a0 35 95|        ..5.a.5.|          data: raw bits 0x68-0x70.7 (9)
0x070|61                                             |a               |
     |                                               |                |        [1]: extra_field {} 0x71-0x7f.7 (15)
0x070|   75 78                                       | ux             |          header_id: 0x7875 (UNIX UID/GID) 0x71-0x72.7 (2)
0x070|         0b 00                                 |   ..           |          data_size: 11 0x73-0x74.7 (2)
0x070|               01 04 f5 01 00 00 04 14 00 00 00|     ...........|          data: raw bits 0x75-0x7f.7 (11)
     |                                               |                |      uncompressed: raw bits 0x80-NA (0)
     |                                               |                |    [2]: local_file {} 0x80-0xc9.7 (74)
0x080|50 4b 03 04                                    |PK..            |      signature: raw bits (valid) 0x80-0x83.7 (4)
0x080|            0a 00                              |    ..          |      version_needed: 10 0x84-0x85.7 (2)
     |                                               |                |      flags: {} 0x86-0x87.7 (2)
0x080|                  00                           |      .         |        unused0: 0 0x86-0x86 (0.1)
0x080|                  00                           |      .         |        strong_encryption: false 0x86.1-0x86.1 (0.1)
0x080|                  00                           |      .         |        compressed_patched_data: false 0x86.2-0x86.2 (0.1)
0x080|                  00                           |      .         |        enhanced_deflation: false 0x86.3-0x86.3 (0.1)
0x080|                  00                           |      .         |        data_descriptor: false 0x86.4-0x86.4 (0.1)
0x080|                  00                           |      .         |        compression0: false 0x86.5-0x86.5 (0.1)
0x080|                  00                           |      .         |        compression1: false 0x86.6-0x86.6 (0.1)
0x080|                  00                           |      .         |        encrypted: false 0x86.7-0x86.7 (0.1)
0x080|                     00                        |       .        |        reserved0: 0 0x87-0x87.1 (0.2)
0x080|                     00                        |       .        |        mask_header_values: false 0x87.2-0x87.2 (0.1)
0x080|                     00                        |       .        |        reserved1: false 0x87.3-0x87.3 (0.1)
0x080|                     00                        |       .        |        language_encoding: false 0x87.4-0x87.4 (0.1)
0x080|                     00                        |       .        |        unused1: 0 0x87.5-0x87.7 (0.3)
0x080|                        00 00                  |        ..      |      compression_method: "None" (0) 0x88-0x89.7 (2)
     |                                               |                |      last_modification_date: {} 0x8a-0x8b.7 (2)
0x080|                              4c               |          L     |        hours: 9 0x8a-0x8a.4 (0.5)
0x080|                              4c 90            |          L.    |        minutes: 36 0x8a.5-0x8b.2 (0.6)
0x080|                                 90            |           .    |        seconds: 16 0x8b.3-0x8b.7 (0.5)
     |                                               |                |      last_modification_time: {} 0x8c-0x8d.7 (2)
0x080|                                    71         |            q   |        year: 56 0x8c-0x8c.6 (0.7)
0x080|                                    71 53      |            qS  |        month: 10 0x8c.7-0x8d.2 (0.4)
0x080|                                       53      |             S  |        day: 19 0x8d.3-0x8d.7 (0.5)
0x080|                                          45 e5|              E.|      crc32_uncompressed: 0xad98e545 0x8e-0x91.7 (4)
0x090|98 ad                                          |..              |
0x090|      04 00 00 00                              |  ....          |      compressed_size: 4 0x92-0x95.7 (4)
0x090|                  04 00 00 00                  |      ....      |      uncompressed_size: 4 0x96-0x99.7 (4)
0x090|                              0c 00            |          ..    |      file_name_length: 12 0x9a-0x9b.7 (2)
0x090|                                    1c 00      |            ..  |      extra_field_length: 28 0x9c-0x9d.7 (2)
0x090|                                          74 65|              te|      file_name: "test/a/a.txt" 0x9e-0xa9.7 (12)
0x0a0|73 74 2f 61 2f 61 2e 74 78 74                  |st/a/a.txt      |
     |                                               |                |      extra_fields: [2] 0xaa-0xc5.7 (28)
     |                                               |                |        [0]: extra_field {} 0xaa-0xb6.7 (13)
0x0a0|                              55 54            |          UT    |          header_id: 0x5455 (extended timestamp) 0xaa-0xab.7 (2)
0x0a0|                                    09 00      |            ..  |          data_size: 9 0xac-0xad.7 (2)
0x0a0|                                          03 a0|              ..|          data: raw bits 0xae-0xb6.7 (9)
0x0b0|35 95 61 a1 35 95 61                           |5.a.5.a         |
     |                                               |                |        [1]: extra_field {} 0xb7-0xc5.7 (15)
0x0b0|                     75 78                     |       ux       |          header_id: 0x7875 (UNIX UID/GID) 0xb7-0xb8.7 (2)
0x0b0|                           0b 00               |         ..     |          data_size: 11 0xb9-0xba.7 (2)
0x0b0|                                 01 04 f5 01 00|           .....|          data: raw bits 0xbb-0xc5.7 (11)
0x0c0|00 04 14 00 00 00                              |......          |
0x0c0|                  61 61 61 61                  |      aaaa      |      uncompressed: raw bits 0xc6-0xc9.7 (4)
     |                                               |                |    [3]: local_file {} 0xca-0x142.7 (121)
0x0c0|                              50 4b 03 04      |          PK..  |      signature: raw bits (valid) 0xca-0xcd.7 (4)
0x0c0|                                          0a 00|              ..|      version_needed: 10 0xce-0xcf.7 (2)
     |                                               |                |      flags: {} 0xd0-0xd1.7 (2)
0x0d0|00                                             |.               |        unused0: 0 0xd0-0xd0 (0.1)
0x0d0|00                                             |.               |        strong_encryption: false 0xd0.1-0xd0.1 (0.1)
0x0d0|00                                             |.               |        compressed_patched_data: false 0xd0.2-0xd0.2 (0.1)
0x0d0|00                                             |.               |        enhanced_deflation: false 0xd0.3-0xd0.3 (0.1)
0x0d0|00                                             |.               |        data_descriptor: false 0xd0.4-0xd0.4 (0.1)
0x0d0|00                                             |.               |        compression0: false 0xd0.5-0xd0.5 (0.1)
0x0d0|00                                             |.               |        compression1: false 0xd0.6-0xd0.6 (0.1)
0x0d0|00                                             |.               |        encrypted: false 0xd0.7-0xd0.7 (0.1)
0x0d0|   00                                          | .              |        reserved0: 0 0xd1-0xd1.1 (0.2)
0x0d0|   00                                          | .              |        mask_header_values: false 0xd1.2-0xd1.2 (0.1)
0x0d0|   00                                          | .              |        reserved1: false 0xd1.3-0xd1.3 (0.1)
0x0d0|   00                                          | .              |        language_encoding: false 0xd1.4-0xd1.4 (0.1)
0x0d0|   00                                          | .              |        unused1: 0 0xd1.5-0xd1.7 (0.3)
0x0d0|      00 00                                    |  ..            |      compression_method: "None" (0) 0xd2-0xd3.7 (2)
     |                                               |                |      last_modification_date: {} 0xd4-0xd5.7 (2)
0x0d0|            f4                                 |    .           |        hours: 30 0xd4-0xd4.4 (0.5)
0x0d0|            f4 94                              |    ..          |        minutes: 36 0xd4.5-0xd5.2 (0.6)
0x0d0|               94                              |     .          |        seconds: 20 0xd5.3-0xd5.7 (0.5)
     |                                               |                |      last_modification_time: {} 0xd6-0xd7.7 (2)
0x0d0|                  71                           |      q         |        year: 56 0xd6-0xd6.6 (0.7)
0x0d0|                  71 53                        |      qS        |        month: 10 0xd6.7-0xd7.2 (0.4)
0x0d0|                     53                        |       S        |        day: 19 0xd7.3-0xd7.7 (0.5)
0x0d0|                        2c 89 b3 aa            |        ,...    |      crc32_uncompressed: 0xaab3892c 0xd8-0xdb.7 (4)
0x0d0|                                    35 00 00 00|            5...|      compressed_size: 53 0xdc-0xdf.7 (4)
0x0e0|35 00 00 00                                    |5...            |      uncompressed_size: 53 0xe0-0xe3.7 (4)
0x0e0|            0a 00                              |    ..          |      file_name_length: 10 0xe4-0xe5.7 (2)
0x0e0|                  1c 00                        |      ..        |      extra_field_length: 28 0xe6-0xe7.7 (2)
0x0e0|                        74 65 73 74 2f 61 2e 74|        test/a.t|      file_name: "test/a.txt" 0xe8-0xf1.7 (10)
0x0f0|78 74                                          |xt              |
     |                                               |                |      extra_fields: [2] 0xf2-0x10d.7 (28)
     |                                               |                |        [0]: extra_field {} 0xf2-0xfe.7 (13)
0x0f0|      55 54                                    |  UT            |          header_id: 0x5455 (extended timestamp) 0xf2-0xf3.7 (2)
0x0f0|            09 00                              |    ..          |          data_size: 9 0xf4-0xf5.7 (2)
0x0f0|                  03 5b 3e 95 61 5d 3e 95 61   |      .[>.a]>.a |          data: raw bits 0xf6-0xfe.7 (9)
     |                                               |                |        [1]: extra_field {} 0xff-0x10d.7 (15)
0x0f0|                                             75|               u|          header_id: 0x7875 (UNIX UID/GID) 0xff-0x100.7 (2)
0x100|78                                             |x               |
0x100|   0b 00                                       | ..             |          data_size: 11 0x101-0x102.7 (2)
0x100|         01 04 f5 01 00 00 04 14 00 00 00      |   ...........  |          data: raw bits 0x103-0x10d.7 (11)
0x100|                                          61 61|              aa|      uncompressed: raw bits 0x10e-0x142.7 (53)
0x110|61 61 61 61 61 61 61 61 61 61 61 61 61 61 61 61|aaaaaaaaaaaaaaaa|
*    |until 0x142.7 (53)                             |                |
     |                                               |                |  central_directories: [4] 0x143-0x27c.7 (314)
     |                                               |                |    [0]: central_directory {} 0x143-0x18d.7 (75)
0x140|         50 4b 01 02                           |   PK..         |      signature: raw bits (valid) 0x143-0x146.7 (4)
0x140|                     1e 03                     |       ..       |      version_made_by: 798 0x147-0x148.7 (2)
0x140|                           0a 00               |         ..     |      version_needed: 10 0x149-0x14a.7 (2)
     |                                               |                |      flags: {} 0x14b-0x14c.7 (2)
0x140|                                 00            |           .    |        unused0: 0 0x14b-0x14b (0.1)
0x140|                                 00            |           .    |        strong_encryption: false 0x14b.1-0x14b.1 (0.1)
0x140|                                 00            |           .    |        compressed_patched_data: false 0x14b.2-0x14b.2 (0.1)
0x140|                                 00            |           .    |        enhanced_deflation: false 0x14b.3-0x14b.3 (0.1)
0x140|                                 00            |           .    |        data_descriptor: false 0x14b.4-0x14b.4 (0.1)
0x140|                                 00            |           .    |        compression0: false 0x14b.5-0x14b.5 (0.1)
0x140|                                 00            |           .    |        compression1: false 0x14b.6-0x14b.6 (0.1)
0x140|                                 00            |           .    |        encrypted: false 0x14b.7-0x14b.7 (0.1)
0x140|                                    00         |            .   |        reserved0: 0 0x14c-0x14c.1 (0.2)
0x140|                                    00         |            .   |        mask_header_values: false 0x14c.2-0x14c.2 (0.1)
0x140|                                    00         |            .   |        reserved1: false 0x14c.3-0x14c.3 (0.1)
0x140|                                    00         |            .   |        language_encoding: false 0x14c.4-0x14c.4 (0.1)
0x140|                                    00         |            .   |        unused1: 0 0x14c.5-0x14c.7 (0.3)
0x140|                                       00 00   |             .. |      compression_method: "None" (0) 0x14d-0x14e.7 (2)
     |                                               |                |      last_modification_date: {} 0x14f-0x150.7 (2)
0x140|                                             ef|               .|        hours: 29 0x14f-0x14f.4 (0.5)
0x140|                                             ef|               .|        minutes: 60 0x14f.5-0x150.2 (0.6)
0x150|94                                             |.               |
0x150|94                                             |.               |        seconds: 20 0x150.3-0x150.7 (0.5)
     |                                               |                |      last_modification_time: {} 0x151-0x152.7 (2)
0x150|   71                                          | q              |        year: 56 0x151-0x151.6 (0.7)
0x150|   71 53                                       | qS             |        month: 10 0x151.7-0x152.2 (0.4)
0x150|      53                                       |  S             |        day: 19 0x152.3-0x152.7 (0.5)
0x150|         00 00 00 00                           |   ....         |      crc32_uncompressed: 0x0 0x153-0x156.7 (4)
0x150|                     00 00 00 00               |       ....     |      compressed_size: 0 0x157-0x15a.7 (4)
0x150|                                 00 00 00 00   |           .... |      uncompressed_size: 0 0x15b-0x15e.7 (4)
0x150|                                             05|               .|      file_name_length: 5 0x15f-0x160.7 (2)
0x160|00                                             |.               |
0x160|   18 00                                       | ..             |      extra_field_length: 24 0x161-0x162.7 (2)
0x160|         00 00                                 |   ..           |      file_comment_length: 0 0x163-0x164.7 (2)
0x160|               00 00                           |     ..         |      disk_number_where_file_starts: 0 0x165-0x166.7 (2)
0x160|                     00 00                     |       ..       |      internal_file_attributes: 0 0x167-0x168.7 (2)
0x160|                           10 00 ed 41         |         ...A   |      external_file_attributes: 1106051088 0x169-0x16c.7 (4)
0x160|                                       00 00 00|             ...|      relative_offset_of_local_file_header: 0 0x16d-0x170.7 (4)
0x170|00                                             |.               |
0x170|   74 65 73 74 2f                              | test/          |      file_name: "test/" 0x171-0x175.7 (5)
     |                                               |                |      extra_fields: [2] 0x176-0x18d.7 (24)
     |                                               |                |        [0]: extra_field {} 0x176-0x17e.7 (9)
0x170|                  55 54                        |      UT        |          header_id: 0x5455 (extended timestamp) 0x176-0x177.7 (2)
0x170|                        05 00                  |        ..      |          data_size: 5 0x178-0x179.7 (2)
0x170|                              03 52 3e 95 61   |          .R>.a |          data: raw bits 0x17a-0x17e.7 (5)
     |                                               |                |        [1]: extra_field {} 0x17f-0x18d.7 (15)
0x170|                                             75|               u|          header_id: 0x7875 (UNIX UID/GID) 0x17f-0x180.7 (2)
0x180|78                                             |x               |
0x180|   0b 00                                       | ..             |          data_size: 11 0x181-0x182.7 (2)
0x180|         01 04 f5 01 00 00 04 14 00 00 00      |   ...........  |          data: raw bits 0x183-0x18d.7 (11)
     |                                               |                |      file_comment: "" 0x18e-NA (0)
     |                                               |                |    [1]: central_directory {} 0x18e-0x1da.7 (77)
0x180|                                          50 4b|              PK|      signature: raw bits (valid) 0x18e-0x191.7 (4)
0x190|01 02                                          |..              |
0x190|      1e 03                                    |  ..            |      version_made_by: 798 0x192-0x193.7 (2)
0x190|            0a 00                              |    ..          |      version_needed: 10 0x194-0x195.7 (2)
     |                                               |                |      flags: {} 0x196-0x197.7 (2)
0x190|                  00                           |      .         |        unused0: 0 0x196-0x196 (0.1)
0x190|                  00                           |      .         |        strong_encryption: false 0x196.1-0x196.1 (0.1)
0x190|                  00                           |      .         |        compressed_patched_data: false 0x196.2-0x196.2 (0.1)
0x190|                  00                           |      .         |        enhanced_deflation: false 0x196.3-0x196.3 (0.1)
0x190|                  00                           |      .         |        data_descriptor: false 0x196.4-0x196.4 (0.1)
0x190|                  00                           |      .         |        compression0: false 0x196.5-0x196.5 (0.1)
0x190|                  00                           |      .         |        compression1: false 0x196.6-0x196.6 (0.1)
0x190|                  00                           |      .         |        encrypted: false 0x196.7-0x196.7 (0.1)
0x190|                     00                        |       .        |        reserved0: 0 0x197-0x197.1 (0.2)
0x190|                     00                        |       .        |        mask_header_values: false 0x197.2-0x197.2 (0.1)
0x190|                     00                        |       .        |        reserved1: false 0x197.3-0x197.3 (0.1)
0x190|                     00                        |       .        |        language_encoding: false 0x197.4-0x197.4 (0.1)
0x190|                     00                        |       .        |        unused1: 0 0x197.5-0x197.7 (0.3)
0x190|                        00 00                  |        ..      |      compression_method: "None" (0) 0x198-0x199.7 (2)
     |                                               |                |      last_modification_date: {} 0x19a-0x19b.7 (2)
0x190|                              4c               |          L     |        hours: 9 0x19a-0x19a.4 (0.5)
0x190|                              4c 90            |          L.    |        minutes: 36 0x19a.5-0x19b.2 (0.6)
0x190|                                 90            |           .    |        seconds: 16 0x19b.3-0x19b.7 (0.5)
     |                                               |                |      last_modification_time: {} 0x19c-0x19d.7 (2)
0x190|                                    71         |            q   |        year: 56 0x19c-0x19c.6 (0.7)
0x190|                                    71 53      |            qS  |        month: 10 0x19c.7-0x19d.2 (0.4)
0x190|                                       53      |             S  |        day: 19 0x19d.3-0x19d.7 (0.5)
0x190|                                          00 00|              ..|      crc32_uncompressed: 0x0 0x19e-0x1a1.7 (4)
0x1a0|00 00                                          |..              |
0x1a0|      00 00 00 00                              |  ....          |      compressed_size: 0 0x1a2-0x1a5.7 (4)
0x1a0|                  00 00 00 00                  |      ....      |      uncompressed_size: 0 0x1a6-0x1a9.7 (4)
0x1a0|                              07 00            |          ..    |      file_name_length: 7 0x1aa-0x1ab.7 (2)
0x1a0|                                    18 00      |            ..  |      extra_field_length: 24 0x1ac-0x1ad.7 (2)
0x1a0|                                          00 00|              ..|      file_comment_length: 0 0x1ae-0x1af.7 (2)
0x1b0|00 00                                          |..              |      disk_number_where_file_starts: 0 0x1b0-0x1b1.7 (2)
0x1b0|      00 00                                    |  ..            |      internal_file_attributes: 0 0x1b2-0x1b3.7 (2)
0x1b0|            10 00 ed 41                        |    ...A        |      external_file_attributes: 1106051088 0x1b4-0x1b7.7 (4)
0x1b0|                        3f 00 00 00            |        ?...    |      relative_offset_of_local_file_header: 63 0x1b8-0x1bb.7 (4)
0x1b0|                                    74 65 73 74|            test|      file_name: "test/a/" 0x1bc-0x1c2.7 (7)
0x1c0|2f 61 2f                                       |/a/             |
     |                                               |                |      extra_fields: [2] 0x1c3-0x1da.7 (24)
     |                                               |                |        [0]: extra_field {} 0x1c3-0x1cb.7 (9)
0x1c0|         55 54                                 |   UT           |          header_id: 0x5455 (extended timestamp) 0x1c3-0x1c4.7 (2)
0x1c0|               05 00                           |     ..         |          data_size: 5 0x1c5-0x1c6.7 (2)
0x1c0|                     03 a0 35 95 61            |       ..5.a    |          data: raw bits 0x1c7-0x1cb.7 (5)
     |                                               |                |        [1]: extra_field {} 0x1cc-0x1da.7 (15)
0x1c0|                                    75 78      |            ux  |          header_id: 0x7875 (UNIX UID/GID) 0x1cc-0x1cd.7 (2)
0x1c0|                                          0b 00|              ..|          data_size: 11 0x1ce-0x1cf.7 (2)
0x1d0|01 04 f5 01 00 00 04 14 00 00 00               |...........     |          data: raw bits 0x1d0-0x1da.7 (11)
     |                                               |                |      file_comment: "" 0x1db-NA (0)
     |                                               |                |    [2]: central_directory {} 0x1db-0x22c.7 (82)
0x1d0|                                 50 4b 01 02   |           PK.. |      signature: raw bits (valid) 0x1db-0x1de.7 (4)
0x1d0|                                             1e|               .|      version_made_by: 798 0x1df-0x1e0.7 (2)
0x1e0|03                                             |.               |
0x1e0|   0a 00                                       | ..             |      version_needed: 10 0x1e1-0x1e2.7 (2)
     |                                               |                |      flags: {} 0x1e3-0x1e4.7 (2)
0x1e0|         00                                    |   .            |        unused0: 0 0x1e3-0x1e3 (0.1)
0x1e0|         00                                    |   .            |        strong_encryption: false 0x1e3.1-0x1e3.1 (0.1)
0x1e0|         00                                    |   .            |        compressed_patched_data: false 0x1e3.2-0x1e3.2 (0.1)
0x1e0|         00                                    |   .            |        enhanced_deflation: false 0x1e3.3-0x1e3.3 (0.1)
0x1e0|         00                                    |   .            |        data_descriptor: false 0x1e3.4-0x1e3.4 (0.1)
0x1e0|         00                                    |   .            |        compression0: false 0x1e3.5-0x1e3.5 (0.1)
0x1e0|         00                                    |   .            |        compression1: false 0x1e3.6-0x1e3.6 (0.1)
0x1e0|         00                                    |   .            |        encrypted: false 0x1e3.7-0x1e3.7 (0.1)
0x1e0|            00                                 |    .           |        reserved0: 0 0x1e4-0x1e4.1 (0.2)
0x1e0|            00                                 |    .           |        mask_header_values: false 0x1e4.2-0x1e4.2 (0.1)
0x1e0|            00                                 |    .           |        reserved1: false 0x1e4.3-0x1e4.3 (0.1)
0x1e0|            00                                 |    .           |        language_encoding: false 0x1e4.4-0x1e4.4 (0.1)
0x1e0|            00                                 |    .           |        unused1: 0 0x1e4.5-0x1e4.7 (0.3)
0x1e0|               00 00                           |     ..         |      compression_method: "None" (0) 0x1e5-0x1e6.7 (2)
     |                                               |                |      last_modification_date: {} 0x1e7-0x1e8.7 (2)
0x1e0|                     4c                        |       L        |        hours: 9 0x1e7-0x1e7.4 (0.5)
0x1e0|                     4c 90                     |       L.       |        minutes: 36 0x1e7.5-0x1e8.2 (0.6)
0x1e0|                        90                     |        .       |        seconds: 16 0x1e8.3-0x1e8.7 (0.5)
     |                                               |                |      last_modification_time: {} 0x1e9-0x1ea.7 (2)
0x1e0|                           71                  |         q      |        year: 56 0x1e9-0x1e9.6 (0.7)
0x1e0|                           71 53               |         qS     |        month: 10 0x1e9.7-0x1ea.2 (0.4)
0x1e0|                              53               |          S     |        day: 19 0x1ea.3-0x1ea.7 (0.5)
0x1e0|                                 45 e5 98 ad   |           E... |      crc32_uncompressed: 0xad98e545 0x1eb-0x1ee.7 (4)
0x1e0|                                             04|               .|      compressed_size: 4 0x1ef-0x1f2.7 (4)
0x1f0|00 00 00                                       |...             |
0x1f0|         04 00 00 00                           |   ....         |      uncompressed_size: 4 0x1f3-0x1f6.7 (4)
0x1f0|                     0c 00                     |       ..       |      file_name_length: 12 0x1f7-0x1f8.7 (2)
0x1f0|                           18 00               |         ..     |      extra_field_length: 24 0x1f9-0x1fa.7 (2)
0x1f0|                                 00 00         |           ..   |      file_comment_length: 0 0x1fb-0x1fc.7 (2)
0x1f0|                                       00 00   |             .. |      disk_number_where_file_starts: 0 0x1fd-0x1fe.7 (2)
0x1f0|                                             00|               .|      internal_file_attributes: 0 0x1ff-0x200.7 (2)
0x200|00                                             |.               |
0x200|   00 00 a4 81                                 | ....           |      external_file_attributes: 2175008768 0x201-0x204.7 (4)
0x200|               80 00 00 00                     |     ....       |      relative_offset_of_local_file_header: 128 0x205-0x208.7 (4)
0x200|                           74 65 73 74 2f 61 2f|         test/a/|      file_name: "test/a/a.txt" 0x209-0x214.7 (12)
0x210|61 2e 74 78 74                                 |a.txt           |
     |                                               |                |      extra_fields: [2] 0x215-0x22c.7 (24)
     |                                               |                |        [0]: extra_field {} 0x215-0x21d.7 (9)
0x210|               55 54                           |     UT         |          header_id: 0x5455 (extended timestamp) 0x215-0x216.7 (2)
0x210|                     05 00                     |       ..       |          data_size: 5 0x217-0x218.7 (2)
0x210|                           03 a0 35 95 61      |         ..5.a  |          data: raw bits 0x219-0x21d.7 (5)
     |                                               |                |        [1]: extra_field {} 0x21e-0x22c.7 (15)
0x210|                                          75 78|              ux|          header_id: 0x7875 (UNIX UID/GID) 0x21e-0x21f.7 (2)
0x220|0b 00                                          |..              |          data_size: 11 0x220-0x221.7 (2)
0x220|      01 04 f5 01 00 00 04 14 00 00 00         |  ...........   |          data: raw bits 0x222-0x22c.7 (11)
     |                                               |                |      file_comment: "" 0x22d-NA (0)
     |                                               |                |    [3]: central_directory {} 0x22d-0x27c.7 (80)
0x220|                                       50 4b 01|             PK.|      signature: raw bits (valid) 0x22d-0x230.7 (4)
0x230|02                                             |.               |
0x230|   1e 03                                       | ..             |      version_made_by: 798 0x231-0x232.7 (2)
0x230|         0a 00                                 |   ..           |      version_needed: 10 0x233-0x234.7 (2)
     |                                               |                |      flags: {} 0x235-0x236.7 (2)
0x230|               00                              |     .          |        unused0: 0 0x235-0x235 (0.1)
0x230|               00                              |     .          |        strong_encryption: false 0x235.1-0x235.1 (0.1)
0x230|               00                              |     .          |        compressed_patched_data: false 0x235.2-0x235.2 (0.1)
0x230|               00                              |     .          |        enhanced_deflation: false 0x235.3-0x235.3 (0.1)
0x230|               00                              |     .          |        data_descriptor: false 0x235.4-0x235.4 (0.1)
0x230|               00                              |     .          |        compression0: false 0x235.5-0x235.5 (0.1)
0x230|               00                              |     .          |        compression1: false 0x235.6-0x235.6 (0.1)
0x230|               00                              |     .          |        encrypted: false 0x235.7-0x235.7 (0.1)
0x230|                  00                           |      .         |        reserved0: 0 0x236-0x236.1 (0.2)
0x230|                  00                           |      .         |        mask_header_values: false 0x236.2-0x236.2 (0.1)
0x230|                  00                           |      .         |        reserved1: false 0x236.3-0x236.3 (0.1)
0x230|                  00                           |      .         |        language_encoding: false 0x236.4-0x236.4 (0.1)
0x230|                  00                           |      .         |        unused1: 0 0x236.5-0x236.7 (0.3)
0x230|                     00 00                     |       ..       |      compression_method: "None" (0) 0x237-0x238.7 (2)
     |                                               |                |      last_modification_date: {} 0x239-0x23a.7 (2)
0x230|                           f4                  |         .      |        hours: 30 0x239-0x239.4 (0.5)
0x230|                           f4 94               |         ..     |        minutes: 36 0x239.5-0x23a.2 (0.6)
0x230|                              94               |          .     |        seconds: 20 0x23a.3-0x23a.7 (0.5)
     |                                               |                |      last_modification_time: {} 0x23b-0x23c.7 (2)
0x230|                                 71            |           q    |        year: 56 0x23b-0x23b.6 (0.7)
0x230|                                 71 53         |           qS   |        month: 10 0x23b.7-0x23c.2 (0.4)
0x230|                                    53         |            S   |        day: 19 0x23c.3-0x23c.7 (0.5)
0x230|                                       2c 89 b3|             ,..|      crc32_uncompressed: 0xaab3892c 0x23d-0x240.7 (4)
0x240|aa                                             |.               |
0x240|   35 00 00 00                                 | 5...           |      compressed_size: 53 0x241-0x244.7 (4)
0x240|               35 00 00 00                     |     5...       |      uncompressed_size: 53 0x245-0x248.7 (4)
0x240|                           0a 00               |         ..     |      file_name_length: 10 0x249-0x24a.7 (2)
0x240|                                 18 00         |           ..   |      extra_field_length: 24 0x24b-0x24c.7 (2)
0x240|                                       00 00   |             .. |      file_comment_length: 0 0x24d-0x24e.7 (2)
0x240|                                             00|               .|      disk_number_where_file_starts: 0 0x24f-0x250.7 (2)
0x250|00                                             |.               |
0x250|   00 00                                       | ..             |      internal_file_attributes: 0 0x251-0x252.7 (2)
0x250|         00 00 a4 81                           |   ....         |      external_file_attributes: 2175008768 0x253-0x256.7 (4)
0x250|                     ca 00 00 00               |       ....     |      relative_offset_of_local_file_header: 202 0x257-0x25a.7 (4)
0x250|                                 74 65 73 74 2f|           test/|      file_name: "test/a.txt" 0x25b-0x264.7 (10)
0x260|61 2e 74 78 74                                 |a.txt           |
     |                                               |                |      extra_fields: [2] 0x265-0x27c.7 (24)
     |                                               |                |        [0]: extra_field {} 0x265-0x26d.7 (9)
0x260|               55 54                           |     UT         |          header_id: 0x5455 (extended timestamp) 0x265-0x266.7 (2)
0x260|                     05 00                     |       ..       |          data_size: 5 0x267-0x268.7 (2)
0x260|                           03 5b 3e 95 61      |         .[>.a  |          data: raw bits 0x269-0x26d.7 (5)
     |                                               |                |        [1]: extra_field {} 0x26e-0x27c.7 (15)
0x260|                                          75 78|              ux|          header_id: 0x7875 (UNIX UID/GID) 0x26e-0x26f.7 (2)
0x270|0b 00                                          |..              |          data_size: 11 0x270-0x271.7 (2)
0x270|      01 04 f5 01 00 00 04 14 00 00 00         |  ...........   |          data: raw bits 0x272-0x27c.7 (11)
     |                                               |                |      file_comment: "" 0x27d-NA (0)
     |                                               |                |  end_of_central_directory: {} 0x27d-0x292.7 (22)
0x270|                                       50 4b 05|             PK.|    signature: raw bits (valid) 0x27d-0x280.7 (4)
0x280|06                                             |.               |
0x280|   00 00                                       | ..             |    disk_nr: 0 0x281-0x282.7 (2)
0x280|         00 00                                 |   ..           |    central_directory_start_disk_nr: 0 0x283-0x284.7 (2)
0x280|               04 00                           |     ..         |    nr_of_central_directory_records_on_disk: 4 0x285-0x286.7 (2)
0x280|                     04 00                     |       ..       |    nr_of_central_directory_records: 4 0x287-0x288.7 (2)
0x280|                           3a 01 00 00         |         :...   |    size_of_central directory: 314 0x289-0x28c.7 (4)
0x280|                                       43 01 00|             C..|    offset_of_start_of_central_directory: 323 0x28d-0x290.7 (4)
0x290|00                                             |.               |
0x290|   00 00|                                      | ..|            |    comment_length: 0 0x291-0x292.7 (2)
     |                                               |                |    comment: "" 0x293-NA (0)
