$ fq -d zip verbose /test9.zip
     |00 01 02 03 04 05 06 07 08 09 0a 0b 0c 0d 0e 0f|0123456789abcdef|.: {} /test9.zip (zip) 0x0-0x263.7 (612)
     |                                               |                |  local_files: [4] 0x0-0x113.7 (276)
     |                                               |                |    [0]: local_file {} 0x0-0x3e.7 (63)
0x000|50 4b 03 04                                    |PK..            |      signature: raw bits (valid) 0x0-0x3.7 (4)
0x000|            0a 00                              |    ..          |      version_needed: 10 0x4-0x5.7 (2)
     |                                               |                |      flags: {} 0x6-0x7.7 (2)
0x000|                  00                           |      .         |        unused0: 0 0x6-0x6 (0.1)
0x000|                  00                           |      .         |        strong_encryption: false 0x6.1-0x6.1 (0.1)
0x000|                  00                           |      .         |        compressed_patched_data: false 0x6.2-0x6.2 (0.1)
0x000|                  00                           |      .         |        enhanced_deflation: false 0x6.3-0x6.3 (0.1)
0x000|                  00                           |      .         |        data_descriptor: false 0x6.4-0x6.4 (0.1)
0x000|                  00                           |      .         |        compression0: false 0x6.5-0x6.5 (0.1)
0x000|                  00                           |      .         |        compression1: false 0x6.6-0x6.6 (0.1)
0x000|                  00                           |      .         |        encrypted: false 0x6.7-0x6.7 (0.1)
0x000|                     00                        |       .        |        reserved0: 0 0x7-0x7.1 (0.2)
0x000|                     00                        |       .        |        mask_header_values: false 0x7.2-0x7.2 (0.1)
0x000|                     00                        |       .        |        reserved1: false 0x7.3-0x7.3 (0.1)
0x000|                     00                        |       .        |        language_encoding: false 0x7.4-0x7.4 (0.1)
0x000|                     00                        |       .        |        unused1: 0 0x7.5-0x7.7 (0.3)
0x000|                        00 00                  |        ..      |      compression_method: "None" (0) 0x8-0x9.7 (2)
     |                                               |                |      last_modification_date: {} 0xa-0xb.7 (2)
0x000|                              ef               |          .     |        hours: 29 0xa-0xa.4 (0.5)
0x000|                              ef 94            |          ..    |        minutes: 60 0xa.5-0xb.2 (0.6)
0x000|                                 94            |           .    |        seconds: 20 0xb.3-0xb.7 (0.5)
     |                                               |                |      last_modification_time: {} 0xc-0xd.7 (2)
0x000|                                    71         |            q   |        year: 56 0xc-0xc.6 (0.7)
0x000|                                    71 53      |            qS  |        month: 10 0xc.7-0xd.2 (0.4)
0x000|                                       53      |             S  |        day: 19 0xd.3-0xd.7 (0.5)
0x000|                                          00 00|              ..|      crc32_uncompressed: 0x0 0xe-0x11.7 (4)
0x010|00 00                                          |..              |
0x010|      00 00 00 00                              |  ....          |      compressed_size: 0 0x12-0x15.7 (4)
0x010|                  00 00 00 00                  |      ....      |      uncompressed_size: 0 0x16-0x19.7 (4)
0x010|                              05 00            |          ..    |      file_name_length: 5 0x1a-0x1b.7 (2)
0x010|                                    1c 00      |            ..  |      extra_field_length: 28 0x1c-0x1d.7 (2)
0x010|                                          74 65|              te|      file_name: "test/" 0x1e-0x22.7 (5)
0x020|73 74 2f                                       |st/             |
     |                                               |                |      extra_fields: [2] 0x23-0x3e.7 (28)
     |                                               |                |        [0]: extra_field {} 0x23-0x2f.7 (13)
0x020|         55 54                                 |   UT           |          header_id: 0x5455 (extended timestamp) 0x23-0x24.7 (2)
0x020|               09 00                           |     ..         |          data_size: 9 0x25-0x26.7 (2)
0x020|                     03 52 3e 95 61 59 3e 95 61|       .R>.aY>.a|          data: raw bits 0x27-0x2f.7 (9)
     |                                               |                |        [1]: extra_field {} 0x30-0x3e.7 (15)
0x030|75 78                                          |ux              |          header_id: 0x7875 (UNIX UID/GID) 0x30-0x31.7 (2)
0x030|      0b 00                                    |  ..            |          data_size: 11 0x32-0x33.7 (2)
0x030|            01 04 f5 01 00 00 04 14 00 00 00   |    ........... |          data: raw bits 0x34-0x3e.7 (11)
     |                                               |                |      uncompressed: raw bits 0x3f-NA (0)
     |                                               |                |    [1]: local_file {} 0x3f-0x7f.7 (65)
0x030|                                             50|               P|      signature: raw bits (valid) 0x3f-0x42.7 (4)
0x040|4b 03 04                                       |K..             |
0x040|         0a 00                                 |   ..           |      version_needed: 10 0x43-0x44.7 (2)
     |                                               |                |      flags: {} 0x45-0x46.7 (2)
0x040|               00                              |     .          |        unused0: 0 0x45-0x45 (0.1)
0x040|               00                              |     .          |        strong_encryption: false 0x45.1-0x45.1 (0.1)
0x040|               00                              |     .          |        compressed_patched_data: false 0x45.2-0x45.2 (0.1)
0x040|               00                              |     .          |        enhanced_deflation: false 0x45.3-0x45.3 (0.1)
0x040|               00                              |     .          |        data_descriptor: false 0x45.4-0x45.4 (0.1)
0x040|               00                              |     .          |        compression0: false 0x45.5-0x45.5 (0.1)
0x040|               00                              |     .          |        compression1: false 0x45.6-0x45.6 (0.1)
0x040|               00                              |     .          |        encrypted: false 0x45.7-0x45.7 (0.1)
0x040|                  00                           |      .         |        reserved0: 0 0x46-0x46.1 (0.2)
0x040|                  00                           |      .         |        mask_header_values: false 0x46.2-0x46.2 (0.1)
0x040|                  00                           |      .         |        reserved1: false 0x46.3-0x46.3 (0.1)
0x040|                  00                           |      .         |        language_encoding: false 0x46.4-0x46.4 (0.1)
0x040|                  00                           |      .         |        unused1: 0 0x46.5-0x46.7 (0.3)
0x040|                     00 00                     |       ..       |      compression_method: "None" (0) 0x47-0x48.7 (2)
     |                                               |                |      last_modification_date: {} 0x49-0x4a.7 (2)
0x040|                           4c                  |         L      |        hours: 9 0x49-0x49.4 (0.5)
0x040|                           4c 90               |         L.     |        minutes: 36 0x49.5-0x4a.2 (0.6)
0x040|                              90               |          .     |        seconds: 16 0x4a.3-0x4a.7 (0.5)
     |                                               |                |      last_modification_time: {} 0x4b-0x4c.7 (2)
0x040|                                 71            |           q    |        year: 56 0x4b-0x4b.6 (0.7)
0x040|                                 71 53         |           qS   |        month: 10 0x4b.7-0x4c.2 (0.4)
0x040|                                    53         |            S   |        day: 19 0x4c.3-0x4c.7 (0.5)
0x040|                                       00 00 00|             ...|      crc32_uncompressed: 0x0 0x4d-0x50.7 (4)
0x050|00                                             |.               |
0x050|   00 00 00 00                                 | ....           |      compressed_size: 0 0x51-0x54.7 (4)
0x050|               00 00 00 00                     |     ....       |      uncompressed_size: 0 0x55-0x58.7 (4)
0x050|                           07 00               |         ..     |      file_name_length: 7 0x59-0x5a.7 (2)
0x050|                                 1c 00         |           ..   |      extra_field_length: 28 0x5b-0x5c.7 (2)
0x050|                                       74 65 73|             tes|      file_name: "test/a/" 0x5d-0x63.7 (7)
0x060|74 2f 61 2f                                    |t/a/            |
     |                                               |                |      extra_fields: [2] 0x64-0x7f.7 (28)
     |                                               |                |        [0]: extra_field {} 0x64-0x70.7 (13)
0x060|            55 54                              |    UT          |          header_id: 0x5455 (extended timestamp) 0x64-0x65.7 (2)
0x060|                  09 00                        |      ..        |          data_size: 9 0x66-0x67.7 (2)
0x060|                        03 a0 35 95 61 a0 35 95|        ..5.a.5.|          data: raw bits 0x68-0x70.7 (9)
0x070|61                                             |a               |
     |                                               |                |        [1]: extra_field {} 0x71-0x7f.7 (15)
0x070|   75 78                                       | ux             |          header_id: 0x7875 (UNIX UID/GID) 0x71-0x72.7 (2)
0x070|         0b 00                                 |   ..           |          data_size: 11 0x73-0x74.7 (2)
0x070|               01 04 f5 01 00 00 04 14 00 00 00|     ...........|          data: raw bits 0x75-0x7f.7 (11)
     |                                               |                |      uncompressed: raw bits 0x80-NA (0)
     |                                               |                |    [2]: local_file {} 0x80-0xc9.7 (74)
0x080|50 4b 03 04                                    |PK..            |      signature: raw bits (valid) 0x80-0x83.7 (4)
0x080|            0a 00                              |    ..          |      version_needed: 10 0x84-0x85.7 (2)
     |                                               |                |      flags: {} 0x86-0x87.7 (2)
0x080|                  02                           |      .         |        unused0: 0 0x86-0x86 (0.1)
0x080|                  02                           |      .         |        strong_encryption: false 0x86.1-0x86.1 (0.1)
0x080|                  02                           |      .         |        compressed_patched_data: false 0x86.2-0x86.2 (0.1)
0x080|                  02                           |      .         |        enhanced_deflation: false 0x86.3-0x86.3 (0.1)
0x080|                  02                           |      .         |        data_descriptor: false 0x86.4-0x86.4 (0.1)
0x080|                  02                           |      .         |        compression0: false 0x86.5-0x86.5 (0.1)
0x080|                  02                           |      .         |        compression1: true 0x86.6-0x86.6 (0.1)
0x080|                  02                           |      .         |        encrypted: false 0x86.7-0x86.7 (0.1)
0x080|                     00                        |       .        |        reserved0: 0 0x87-0x87.1 (0.2)
0x080|                     00                        |       .        |        mask_header_values: false 0x87.2-0x87.2 (0.1)
0x080|                     00                        |       .        |        reserved1: false 0x87.3-0x87.3 (0.1)
0x080|                     00                        |       .        |        language_encoding: false 0x87.4-0x87.4 (0.1)
0x080|                     00                        |       .        |        unused1: 0 0x87.5-0x87.7 (0.3)
0x080|                        00 00                  |        ..      |      compression_method: "None" (0) 0x88-0x89.7 (2)
     |                                               |                |      last_modification_date: {} 0x8a-0x8b.7 (2)
0x080|                              4c               |          L     |        hours: 9 0x8a-0x8a.4 (0.5)
0x080|                              4c 90            |          L.    |        minutes: 36 0x8a.5-0x8b.2 (0.6)
0x080|                                 90            |           .    |        seconds: 16 0x8b.3-0x8b.7 (0.5)
     |                                               |                |      last_modification_time: {} 0x8c-0x8d.7 (2)
0x080|                                    71         |            q   |        year: 56 0x8c-0x8c.6 (0.7)
0x080|                                    71 53      |            qS  |        month: 10 0x8c.7-0x8d.2 (0.4)
0x080|                                       53      |             S  |        day: 19 0x8d.3-0x8d.7 (0.5)
0x080|                                          45 e5|              E.|      crc32_uncompressed: 0xad98e545 0x8e-0x91.7 (4)
0x090|98 ad                                          |..              |
0x090|      04 00 00 00                              |  ....          |      compressed_size: 4 0x92-0x95.7 (4)
0x090|                  04 00 00 00                  |      ....      |      uncompressed_size: 4 0x96-0x99.7 (4)
0x090|                              0c 00            |          ..    |      file_name_length: 12 0x9a-0x9b.7 (2)
0x090|                                    1c 00      |            ..  |      extra_field_length: 28 0x9c-0x9d.7 (2)
0x090|                                          74 65|              te|      file_name: "test/a/a.txt" 0x9e-0xa9.7 (12)
0x0a0|73 74 2f 61 2f 61 2e 74 78 74                  |st/a/a.txt      |
     |                                               |                |      extra_fields: [2] 0xaa-0xc5.7 (28)
     |                                               |                |        [0]: extra_field {} 0xaa-0xb6.7 (13)
0x0a0|                              55 54            |          UT    |          header_id: 0x5455 (extended timestamp) 0xaa-0xab.7 (2)
0x0a0|                                    09 00      |            ..  |          data_size: 9 0xac-0xad.7 (2)
0x0a0|                                          03 a0|              ..|          data: raw bits 0xae-0xb6.7 (9)
0x0b0|35 95 61 a1 35 95 61                           |5.a.5.a         |
     |                                               |                |        [1]: extra_field {} 0xb7-0xc5.7 (15)
0x0b0|                     75 78                     |       ux       |          header_id: 0x7875 (UNIX UID/GID) 0xb7-0xb8.7 (2)
0x0b0|                           0b 00               |         ..     |          data_size: 11 0xb9-0xba.7 (2)
0x0b0|                                 01 04 f5 01 00|           .....|          data: raw bits 0xbb-0xc5.7 (11)
0x0c0|00 04 14 00 00 00                              |......          |
0x0c0|                  61 61 61 61                  |      aaaa      |      uncompressed: raw bits 0xc6-0xc9.7 (4)
     |                                               |                |    [3]: local_file {} 0xca-0x113.7 (74)
0x0c0|                              50 4b 03 04      |          PK..  |      signature: raw bits (valid) 0xca-0xcd.7 (4)
0x0c0|                                          14 00|              ..|      version_needed: 20 0xce-0xcf.7 (2)
     |                                               |                |      flags: {} 0xd0-0xd1.7 (2)
0x0d0|02                                             |.               |        unused0: 0 0xd0-0xd0 (0.1)
0x0d0|02                                             |.               |        strong_encryption: false 0xd0.1-0xd0.1 (0.1)
0x0d0|02                                             |.               |        compressed_patched_data: false 0xd0.2-0xd0.2 (0.1)
0x0d0|02                                             |.               |        enhanced_deflation: false 0xd0.3-0xd0.3 (0.1)
0x0d0|02                                             |.               |        data_descriptor: false 0xd0.4-0xd0.4 (0.1)
0x0d0|02                                             |.               |        compression0: false 0xd0.5-0xd0.5 (0.1)
0x0d0|02                                             |.               |        compression1: true 0xd0.6-0xd0.6 (0.1)
0x0d0|02                                             |.               |        encrypted: false 0xd0.7-0xd0.7 (0.1)
0x0d0|   00                                          | .              |        reserved0: 0 0xd1-0xd1.1 (0.2)
0x0d0|   00                                          | .              |        mask_header_values: false 0xd1.2-0xd1.2 (0.1)
0x0d0|   00                                          | .              |        reserved1: false 0xd1.3-0xd1.3 (0.1)
0x0d0|   00                                          | .              |        language_encoding: false 0xd1.4-0xd1.4 (0.1)
0x0d0|   00                                          | .              |        unused1: 0 0xd1.5-0xd1.7 (0.3)
0x0d0|      08 00                                    |  ..            |      compression_method: "Deflated" (8) 0xd2-0xd3.7 (2)
     |                                               |                |      last_modification_date: {} 0xd4-0xd5.7 (2)
0x0d0|            f4                                 |    .           |        hours: 30 0xd4-0xd4.4 (0.5)
0x0d0|            f4 94                              |    ..          |        minutes: 36 0xd4.5-0xd5.2 (0.6)
0x0d0|               94                              |     .          |        seconds: 20 0xd5.3-0xd5.7 (0.5)
     |                                               |                |      last_modification_time: {} 0xd6-0xd7.7 (2)
0x0d0|                  71                           |      q         |        year: 56 0xd6-0xd6.6 (0.7)
0x0d0|                  71 53                        |      qS        |        month: 10 0xd6.7-0xd7.2 (0.4)
0x0d0|                     53                        |       S        |        day: 19 0xd7.3-0xd7.7 (0.5)
0x0d0|                        2c 89 b3 aa            |        ,...    |      crc32_uncompressed: 0xaab3892c 0xd8-0xdb.7 (4)
0x0d0|                                    06 00 00 00|            ....|      compressed_size: 6 0xdc-0xdf.7 (4)
0x0e0|35 00 00 00                                    |5...            |      uncompressed_size: 53 0xe0-0xe3.7 (4)
0x0e0|            0a 00                              |    ..          |      file_name_length: 10 0xe4-0xe5.7 (2)
0x0e0|                  1c 00                        |      ..        |      extra_field_length: 28 0xe6-0xe7.7 (2)
0x0e0|                        74 65 73 74 2f 61 2e 74|        test/a.t|      file_name: "test/a.txt" 0xe8-0xf1.7 (10)
0x0f0|78 74                                          |xt              |
     |                                               |                |      extra_fields: [2] 0xf2-0x10d.7 (28)
     |                                               |                |        [0]: extra_field {} 0xf2-0xfe.7 (13)
0x0f0|      55 54                                    |  UT            |          header_id: 0x5455 (extended timestamp) 0xf2-0xf3.7 (2)
0x0f0|            09 00                              |    ..          |          data_size: 9 0xf4-0xf5.7 (2)
0x0f0|                  03 5b 3e 95 61 5d 3e 95 61   |      .[>.a]>.a |          data: raw bits 0xf6-0xfe.7 (9)
     |                                               |                |        [1]: extra_field {} 0xff-0x10d.7 (15)
0x0f0|                                             75|               u|          header_id: 0x7875 (UNIX UID/GID) 0xff-0x100.7 (2)
0x100|78                                             |x               |
0x100|   0b 00                                       | ..             |          data_size: 11 0x101-0x102.7 (2)
0x100|         01 04 f5 01 00 00 04 14 00 00 00      |   ...........  |          data: raw bits 0x103-0x10d.7 (11)
 0x00|61 61 61 61 61 61 61 61 61 61 61 61 61 61 61 61|aaaaaaaaaaaaaaaa|      uncompressed: raw bits 0x0-0x34.7 (53)
 *   |until 0x34.7 (end) (53)                        |                |
0x100|                                          4b 4c|              KL|      compressed: raw bits 0x10e-0x113.7 (6)
0x110|24 03 00 00                                    |$...            |
     |                                               |                |  central_directories: [4] 0x114-0x24d.7 (314)
     |                                               |                |    [0]: central_directory {} 0x114-0x15e.7 (75)
0x110|            50 4b 01 02                        |    PK..        |      signature: raw bits (valid) 0x114-0x117.7 (4)
0x110|                        1e 03                  |        ..      |      version_made_by: 798 0x118-0x119.7 (2)
0x110|                              0a 00            |          ..    |      version_needed: 10 0x11a-0x11b.7 (2)
     |                                               |                |      flags: {} 0x11c-0x11d.7 (2)
0x110|                                    00         |            .   |        unused0: 0 0x11c-0x11c (0.1)
0x110|                                    00         |            .   |        strong_encryption: false 0x11c.1-0x11c.1 (0.1)
0x110|                                    00         |            .   |        compressed_patched_data: false 0x11c.2-0x11c.2 (0.1)
0x110|                                    00         |            .   |        enhanced_deflation: false 0x11c.3-0x11c.3 (0.1)
0x110|                                    00         |            .   |        data_descriptor: false 0x11c.4-0x11c.4 (0.1)
0x110|                                    00         |            .   |        compression0: false 0x11c.5-0x11c.5 (0.1)
0x110|                                    00         |            .   |        compression1: false 0x11c.6-0x11c.6 (0.1)
0x110|                                    00         |            .   |        encrypted: false 0x11c.7-0x11c.7 (0.1)
0x110|                                       00      |             .  |        reserved0: 0 0x11d-0x11d.1 (0.2)
0x110|                                       00      |             .  |        mask_header_values: false 0x11d.2-0x11d.2 (0.1)
0x110|                                       00      |             .  |        reserved1: false 0x11d.3-0x11d.3 (0.1)
0x110|                                       00      |             .  |        language_encoding: false 0x11d.4-0x11d.4 (0.1)
0x110|                                       00      |             .  |        unused1: 0 0x11d.5-0x11d.7 (0.3)
0x110|                                          00 00|              ..|      compression_method: "None" (0) 0x11e-0x11f.7 (2)
     |                                               |                |      last_modification_date: {} 0x120-0x121.7 (2)
0x120|ef                                             |.               |        hours: 29 0x120-0x120.4 (0.5)
0x120|ef 94                                          |..              |        minutes: 60 0x120.5-0x121.2 (0.6)
0x120|   94                                          | .              |        seconds: 20 0x121.3-0x121.7 (0.5)
     |                                               |                |      last_modification_time: {} 0x122-0x123.7 (2)
0x120|      71                                       |  q             |        year: 56 0x122-0x122.6 (0.7)
0x120|      71 53                                    |  qS            |        month: 10 0x122.7-0x123.2 (0.4)
0x120|         53                                    |   S            |        day: 19 0x123.3-0x123.7 (0.5)
0x120|            00 00 00 00                        |    ....        |      crc32_uncompressed: 0x0 0x124-0x127.7 (4)
0x120|                        00 00 00 00            |        ....    |      compressed_size: 0 0x128-0x12b.7 (4)
0x120|                                    00 00 00 00|            ....|      uncompressed_size: 0 0x12c-0x12f.7 (4)
0x130|05 00                                          |..              |      file_name_length: 5 0x130-0x131.7 (2)
0x130|      18 00                                    |  ..            |      extra_field_length: 24 0x132-0x133.7 (2)
0x130|            00 00                              |    ..          |      file_comment_length: 0 0x134-0x135.7 (2)
0x130|                  00 00                        |      ..        |      disk_number_where_file_starts: 0 0x136-0x137.7 (2)
0x130|                        00 00                  |        ..      |      internal_file_attributes: 0 0x138-0x139.7 (2)
0x130|                              10 00 ed 41      |          ...A  |      external_file_attributes: 1106051088 0x13a-0x13d.7 (4)
0x130|                                          00 00|              ..|      relative_offset_of_local_file_header: 0 0x13e-0x141.7 (4)
0x140|00 00                                          |..              |
0x140|      74 65 73 74 2f                           |  test/         |      file_name: "test/" 0x142-0x146.7 (5)
     |                                               |                |      extra_fields: [2] 0x147-0x15e.7 (24)
     |                                               |                |        [0]: extra_field {} 0x147-0x14f.7 (9)
0x140|                     55 54                     |       UT       |          header_id: 0x5455 (extended timestamp) 0x147-0x148.7 (2)
0x140|                           05 00               |         ..     |          data_size: 5 0x149-0x14a.7 (2)
0x140|                                 03 52 3e 95 61|           .R>.a|          data: raw bits 0x14b-0x14f.7 (5)
     |                                               |                |        [1]: extra_field {} 0x150-0x15e.7 (15)
0x150|75 78                                          |ux              |          header_id: 0x7875 (UNIX UID/GID) 0x150-0x151.7 (2)
0x150|      0b 00                                    |  ..            |          data_size: 11 0x152-0x153.7 (2)
0x150|            01 04 f5 01 00 00 04 14 00 00 00   |    ........... |          data: raw bits 0x154-0x15e.7 (11)
     |                                               |                |      file_comment: "" 0x15f-NA (0)
     |                                               |                |    [1]: central_directory {} 0x15f-0x1ab.7 (77)
0x150|                                             50|               P|      signature: raw bits (valid) 0x15f-0x162.7 (4)
0x160|4b 01 02                                       |K..             |
0x160|         1e 03                                 |   ..           |      version_made_by: 798 0x163-0x164.7 (2)
0x160|               0a 00                           |     ..         |      version_needed: 10 0x165-0x166.7 (2)
     |                                               |                |      flags: {} 0x167-0x168.7 (2)
0x160|                     00                        |       .        |        unused0: 0 0x167-0x167 (0.1)
0x160|                     00                        |       .        |        strong_encryption: false 0x167.1-0x167.1 (0.1)
0x160|                     00                        |       .        |        compressed_patched_data: false 0x167.2-0x167.2 (0.1)
0x160|                     00                        |       .        |        enhanced_deflation: false 0x167.3-0x167.3 (0.1)
0x160|                     00                        |       .        |        data_descriptor: false 0x167.4-0x167.4 (0.1)
0x160|                     00                        |       .        |        compression0: false 0x167.5-0x167.5 (0.1)
0x160|                     00                        |       .        |        compression1: false 0x167.6-0x167.6 (0.1)
0x160|                     00                        |       .        |        encrypted: false 0x167.7-0x167.7 (0.1)
0x160|                        00                     |        .       |        reserved0: 0 0x168-0x168.1 (0.2)
0x160|                        00                     |        .       |        mask_header_values: false 0x168.2-0x168.2 (0.1)
0x160|                        00                     |        .       |        reserved1: false 0x168.3-0x168.3 (0.1)
0x160|                        00                     |        .       |        language_encoding: false 0x168.4-0x168.4 (0.1)
0x160|                        00                     |        .       |        unused1: 0 0x168.5-0x168.7 (0.3)
0x160|                           00 00               |         ..     |      compression_method: "None" (0) 0x169-0x16a.7 (2)
     |                                               |                |      last_modification_date: {} 0x16b-0x16c.7 (2)
0x160|                                 4c            |           L    |        hours: 9 0x16b-0x16b.4 (0.5)
0x160|                                 4c 90         |           L.   |        minutes: 36 0x16b.5-0x16c.2 (0.6)
0x160|                                    90         |            .   |        seconds: 16 0x16c.3-0x16c.7 (0.5)
     |                                               |                |      last_modification_time: {} 0x16d-0x16e.7 (2)
0x160|                                       71      |             q  |        year: 56 0x16d-0x16d.6 (0.7)
0x160|                                       71 53   |             qS |        month: 10 0x16d.7-0x16e.2 (0.4)
0x160|                                          53   |              S |        day: 19 0x16e.3-0x16e.7 (0.5)
0x160|                                             00|               .|      crc32_uncompressed: 0x0 0x16f-0x172.7 (4)
0x170|00 00 00                                       |...             |
0x170|         00 00 00 00                           |   ....         |      compressed_size: 0 0x173-0x176.7 (4)
0x170|                     00 00 00 00               |       ....     |      uncompressed_size: 0 0x177-0x17a.7 (4)
0x170|                                 07 00         |           ..   |      file_name_length: 7 0x17b-0x17c.7 (2)
0x170|                                       18 00   |             .. |      extra_field_length: 24 0x17d-0x17e.7 (2)
0x170|                                             00|               .|      file_comment_length: 0 0x17f-0x180.7 (2)
0x180|00                                             |.               |
0x180|   00 00                                       | ..             |      disk_number_where_file_starts: 0 0x181-0x182.7 (2)
0x180|         00 00                                 |   ..           |      internal_file_attributes: 0 0x183-0x184.7 (2)
0x180|               10 00 ed 41                     |     ...A       |      external_file_attributes: 1106051088 0x185-0x188.7 (4)
0x180|                           3f 00 00 00         |         ?...   |      relative_offset_of_local_file_header: 63 0x189-0x18c.7 (4)
0x180|                                       74 65 73|             tes|      file_name: "test/a/" 0x18d-0x193.7 (7)
0x190|74 2f 61 2f                                    |t/a/            |
     |                                               |                |      extra_fields: [2] 0x194-0x1ab.7 (24)
     |                                               |                |        [0]: extra_field {} 0x194-0x19c.7 (9)
0x190|            55 54                              |    UT          |          header_id: 0x5455 (extended timestamp) 0x194-0x195.7 (2)
0x190|                  05 00                        |      ..        |          data_size: 5 0x196-0x197.7 (2)
0x190|                        03 a0 35 95 61         |        ..5.a   |          data: raw bits 0x198-0x19c.7 (5)
     |                                               |                |        [1]: extra_field {} 0x19d-0x1ab.7 (15)
0x190|                                       75 78   |             ux |          header_id: 0x7875 (UNIX UID/GID) 0x19d-0x19e.7 (2)
0x190|                                             0b|               .|          data_size: 11 0x19f-0x1a0.7 (2)
0x1a0|00                                             |.               |
0x1a0|   01 04 f5 01 00 00 04 14 00 00 00            | ...........    |          data: raw bits 0x1a1-0x1ab.7 (11)
     |                                               |                |      file_comment: "" 0x1ac-NA (0)
     |                                               |                |    [2]: central_directory {} 0x1ac-0x1fd.7 (82)
0x1a0|                                    50 4b 01 02|            PK..|      signature: raw bits (valid) 0x1ac-0x1af.7 (4)
0x1b0|1e 03                                          |..              |      version_made_by: 798 0x1b0-0x1b1.7 (2)
0x1b0|      0a 00                                    |  ..            |      version_needed: 10 0x1b2-0x1b3.7 (2)
     |                                               |                |      flags: {} 0x1b4-0x1b5.7 (2)
0x1b0|            02                                 |    .           |        unused0: 0 0x1b4-0x1b4 (0.1)
0x1b0|            02                                 |    .           |        strong_encryption: false 0x1b4.1-0x1b4.1 (0.1)
0x1b0|            02                                 |    .           |        compressed_patched_data: false 0x1b4.2-0x1b4.2 (0.1)
0x1b0|            02                                 |    .           |        enhanced_deflation: false 0x1b4.3-0x1b4.3 (0.1)
0x1b0|            02                                 |    .           |        data_descriptor: false 0x1b4.4-0x1b4.4 (0.1)
0x1b0|            02                                 |    .           |        compression0: false 0x1b4.5-0x1b4.5 (0.1)
0x1b0|            02                                 |    .           |        compression1: true 0x1b4.6-0x1b4.6 (0.1)
0x1b0|            02                                 |    .           |        encrypted: false 0x1b4.7-0x1b4.7 (0.1)
0x1b0|               00                              |     .          |        reserved0: 0 0x1b5-0x1b5.1 (0.2)
0x1b0|               00                              |     .          |        mask_header_values: false 0x1b5.2-0x1b5.2 (0.1)
0x1b0|               00                              |     .          |        reserved1: false 0x1b5.3-0x1b5.3 (0.1)
0x1b0|               00                              |     .          |        language_encoding: false 0x1b5.4-0x1b5.4 (0.1)
0x1b0|               00                              |     .          |        unused1: 0 0x1b5.5-0x1b5.7 (0.3)
0x1b0|                  00 00                        |      ..        |      compression_method: "None" (0) 0x1b6-0x1b7.7 (2)
     |                                               |                |      last_modification_date: {} 0x1b8-0x1b9.7 (2)
0x1b0|                        4c                     |        L       |        hours: 9 0x1b8-0x1b8.4 (0.5)
0x1b0|                        4c 90                  |        L.      |        minutes: 36 0x1b8.5-0x1b9.2 (0.6)
0x1b0|                           90                  |         .      |        seconds: 16 0x1b9.3-0x1b9.7 (0.5)
     |                                               |                |      last_modification_time: {} 0x1ba-0x1bb.7 (2)
0x1b0|                              71               |          q     |        year: 56 0x1ba-0x1ba.6 (0.7)
0x1b0|                              71 53            |          qS    |        month: 10 0x1ba.7-0x1bb.2 (0.4)
0x1b0|                                 53            |           S    |        day: 19 0x1bb.3-0x1bb.7 (0.5)
0x1b0|                                    45 e5 98 ad|            E...|      crc32_uncompressed: 0xad98e545 0x1bc-0x1bf.7 (4)
0x1c0|04 00 00 00                                    |....            |      compressed_size: 4 0x1c0-0x1c3.7 (4)
0x1c0|            04 00 00 00                        |    ....        |      uncompressed_size: 4 0x1c4-0x1c7.7 (4)
0x1c0|                        0c 00                  |        ..      |      file_name_length: 12 0x1c8-0x1c9.7 (2)
0x1c0|                              18 00            |          ..    |      extra_field_length: 24 0x1ca-0x1cb.7 (2)
0x1c0|                                    00 00      |            ..  |      file_comment_length: 0 0x1cc-0x1cd.7 (2)
0x1c0|                                          00 00|              ..|      disk_number_where_file_starts: 0 0x1ce-0x1cf.7 (2)
0x1d0|01 00                                          |..              |      internal_file_attributes: 1 0x1d0-0x1d1.7 (2)
0x1d0|      00 00 a4 81                              |  ....          |      external_file_attributes: 2175008768 0x1d2-0x1d5.7 (4)
0x1d0|                  80 00 00 00                  |      ....      |      relative_offset_of_local_file_header: 128 0x1d6-0x1d9.7 (4)
0x1d0|                              74 65 73 74 2f 61|          test/a|      file_name: "test/a/a.txt" 0x1da-0x1e5.7 (12)
0x1e0|2f 61 2e 74 78 74                              |/a.txt          |
     |                                               |                |      extra_fields: [2] 0x1e6-0x1fd.7 (24)
     |                                               |                |        [0]: extra_field {} 0x1e6-0x1ee.7 (9)
0x1e0|                  55 54                        |      UT        |          header_id: 0x5455 (extended timestamp) 0x1e6-0x1e7.7 (2)
0x1e0|                        05 00                  |        ..      |          data_size: 5 0x1e8-0x1e9.7 (2)
0x1e0|                              03 a0 35 95 61   |          ..5.a |          data: raw bits 0x1ea-0x1ee.7 (5)
     |                                               |                |        [1]: extra_field {} 0x1ef-0x1fd.7 (15)
0x1e0|                                             75|               u|          header_id: 0x7875 (UNIX UID/GID) 0x1ef-0x1f0.7 (2)
0x1f0|78                                             |x               |
0x1f0|   0b 00                                       | ..             |          data_size: 11 0x1f1-0x1f2.7 (2)
0x1f0|         01 04 f5 01 00 00 04 14 00 00 00      |   ...........  |          data: raw bits 0x1f3-0x1fd.7 (11)
     |                                               |                |      file_comment: "" 0x1fe-NA (0)
     |                                               |                |    [3]: central_directory {} 0x1fe-0x24d.7 (80)
0x1f0|                                          50 4b|              PK|      signature: raw bits (valid) 0x1fe-0x201.7 (4)
0x200|01 02                                          |..              |
0x200|      1e 03                                    |  ..            |      version_made_by: 798 0x202-0x203.7 (2)
0x200|            14 00                              |    ..          |      version_needed: 20 0x204-0x205.7 (2)
     |                                               |                |      flags: {} 0x206-0x207.7 (2)
0x200|                  02                           |      .         |        unused0: 0 0x206-0x206 (0.1)
0x200|                  02                           |      .         |        strong_encryption: false 0x206.1-0x206.1 (0.1)
0x200|                  02                           |      .         |        compressed_patched_data: false 0x206.2-0x206.2 (0.1)
0x200|                  02                           |      .         |        enhanced_deflation: false 0x206.3-0x206.3 (0.1)
0x200|                  02                           |      .         |        data_descriptor: false 0x206.4-0x206.4 (0.1)
0x200|                  02                           |      .         |        compression0: false 0x206.5-0x206.5 (0.1)
0x200|                  02                           |      .         |        compression1: true 0x206.6-0x206.6 (0.1)
0x200|                  02                           |      .         |        encrypted: false 0x206.7-0x206.7 (0.1)
0x200|                     00                        |       .        |        reserved0: 0 0x207-0x207.1 (0.2)
0x200|                     00                        |       .        |        mask_header_values: false 0x207.2-0x207.2 (0.1)
0x200|                     00                        |       .        |        reserved1: false 0x207.3-0x207.3 (0.1)
0x200|                     00                        |       .        |        language_encoding: false 0x207.4-0x207.4 (0.1)
0x200|                     00                        |       .        |        unused1: 0 0x207.5-0x207.7 (0.3)
0x200|                        08 00                  |        ..      |      compression_method: "Deflated" (8) 0x208-0x209.7 (2)
     |                                               |                |      last_modification_date: {} 0x20a-0x20b.7 (2)
0x200|                              f4               |          .     |        hours: 30 0x20a-0x20a.4 (0.5)
0x200|                              f4 94            |          ..    |        minutes: 36 0x20a.5-0x20b.2 (0.6)
0x200|                                 94            |           .    |        seconds: 20 0x20b.3-0x20b.7 (0.5)
     |                                               |                |      last_modification_time: {} 0x20c-0x20d.7 (2)
0x200|                                    71         |            q   |        year: 56 0x20c-0x20c.6 (0.7)
0x200|                                    71 53      |            qS  |        month: 10 0x20c.7-0x20d.2 (0.4)
0x200|                                       53      |             S  |        day: 19 0x20d.3-0x20d.7 (0.5)
0x200|                                          2c 89|              ,.|      crc32_uncompressed: 0xaab3892c 0x20e-0x211.7 (4)
0x210|b3 aa                                          |..              |
0x210|      06 00 00 00                              |  ....          |      compressed_size: 6 0x212-0x215.7 (4)
0x210|                  35 00 00 00                  |      5...      |      uncompressed_size: 53 0x216-0x219.7 (4)
0x210|                              0a 00            |          ..    |      file_name_length: 10 0x21a-0x21b.7 (2)
0x210|                                    18 00      |            ..  |      extra_field_length: 24 0x21c-0x21d.7 (2)
0x210|                                          00 00|              ..|      file_comment_length: 0 0x21e-0x21f.7 (2)
0x220|00 00                                          |..              |      disk_number_where_file_starts: 0 0x220-0x221.7 (2)
0x220|      01 00                                    |  ..            |      internal_file_attributes: 1 0x222-0x223.7 (2)
0x220|            00 00 a4 81                        |    ....        |      external_file_attributes: 2175008768 0x224-0x227.7 (4)
0x220|                        ca 00 00 00            |        ....    |      relative_offset_of_local_file_header: 202 0x228-0x22b.7 (4)
0x220|                                    74 65 73 74|            test|      file_name: "test/a.txt" 0x22c-0x235.7 (10)
0x230|2f 61 2e 74 78 74                              |/a.txt          |
     |                                               |                |      extra_fields: [2] 0x236-0x24d.7 (24)
     |                                               |                |        [0]: extra_field {} 0x236-0x23e.7 (9)
0x230|                  55 54                        |      UT        |          header_id: 0x5455 (extended timestamp) 0x236-0x237.7 (2)
0x230|                        05 00                  |        ..      |          data_size: 5 0x238-0x239.7 (2)
0x230|                              03 5b 3e 95 61   |          .[>.a |          data: raw bits 0x23a-0x23e.7 (5)
     |                                               |                |        [1]: extra_field {} 0x23f-0x24d.7 (15)
0x230|                                             75|               u|          header_id: 0x7875 (UNIX UID/GID) 0x23f-0x240.7 (2)
0x240|78                                             |x               |
0x240|   0b 00                                       | ..             |          data_size: 11 0x241-0x242.7 (2)
0x240|         01 04 f5 01 00 00 04 14 00 00 00      |   ...........  |          data: raw bits 0x243-0x24d.7 (11)
     |                                               |                |      file_comment: "" 0x24e-NA (0)
     |                                               |                |  end_of_central_directory: {} 0x24e-0x263.7 (22)
0x240|                                          50 4b|              PK|    signature: raw bits (valid) 0x24e-0x251.7 (4)
0x250|05 06                                          |..              |
0x250|      00 00                                    |  ..            |    disk_nr: 0 0x252-0x253.7 (2)
0x250|            00 00                              |    ..          |    central_directory_start_disk_nr: 0 0x254-0x255.7 (2)
0x250|                  04 00                        |      ..        |    nr_of_central_directory_records_on_disk: 4 0x256-0x257.7 (2)
0x250|                        04 00                  |        ..      |    nr_of_central_directory_records: 4 0x258-0x259.7 (2)
0x250|                              3a 01 00 00      |          :...  |    size_of_central directory: 314 0x25a-0x25d.7 (4)
0x250|                                          14 01|              ..|    offset_of_start_of_central_directory: 276 0x25e-0x261.7 (4)
0x260|00 00                                          |..              |
0x260|      00 00|                                   |  ..|           |    comment_length: 0 0x262-0x263.7 (2)
     |                                               |                |    comment: "" 0x264-NA (0)
