$ fq dv sample4.book 
     |00 01 02 03 04 05 06 07 08 09 0a 0b 0c 0d 0e 0f|0123456789abcdef|.{}: sample4.book (apple_bookmark) 0x0-0x2f4 (756)
     |                                               |                |  header{}: 0x0-0x30 (48)
0x000|62 6f 6f 6b                                    |book            |    magic: "book" (valid) 0x0-0x4 (4)
0x000|            f4 02 00 00                        |    ....        |    total_size: 756 0x4-0x8 (4)
0x000|                        00 00 04 10            |        ....    |    unknown: 268697600 0x8-0xc (4)
0x000|                                    30 00 00 00|            0...|    header_size: 48 (valid) 0xc-0x10 (4)
0x010|00 00 00 00 00 00 00 00 00 00 00 00 00 00 00 00|................|    reserved: raw bits 0x10-0x30 (32)
0x020|00 00 00 00 00 00 00 00 00 00 00 00 00 00 00 00|................|
0x030|d8 01 00 00                                    |....            |  first_toc_offset: 472 0x30-0x34 (4)
     |                                               |                |  bookmark_entries[0:18]: 0x34-0x2f4 (704)
     |                                               |                |    [0]{}: entry 0x40-0x228 (488)
     |                                               |                |      record{}: 0x40-0xac (108)
     |                                               |                |        data[0:5]: 0x40-0xac (108)
     |                                               |                |          [0]{}: element 0x40-0x9c (92)
     |                                               |                |            record{}: 0x40-0x50 (16)
0x040|05 00 00 00                                    |....            |              length: 5 0x40-0x44 (4)
0x040|            01 01 00 00                        |    ....        |              type: "string" (257) (UTF-8 String) 0x44-0x48 (4)
0x040|                        55 73 65 72 73         |        Users   |              data: "Users" 0x48-0x4d (5)
0x040|                                       00 00 00|             ...|              alignment_bytes: raw bits 0x4d-0x50 (3)
0x090|                        10 00 00 00            |        ....    |            offset: 16 0x98-0x9c (4)
     |                                               |                |          [1]{}: element 0x50-0xa0 (80)
     |                                               |                |            record{}: 0x50-0x68 (24)
0x050|0d 00 00 00                                    |....            |              length: 13 0x50-0x54 (4)
0x050|            01 01 00 00                        |    ....        |              type: "string" (257) (UTF-8 String) 0x54-0x58 (4)
0x050|                        64 61 76 69 64 6d 63 64|        davidmcd|              data: "davidmcdonald" 0x58-0x65 (13)
0x060|6f 6e 61 6c 64                                 |onald           |
0x060|               00 00 00                        |     ...        |              alignment_bytes: raw bits 0x65-0x68 (3)
0x090|                                    20 00 00 00|             ...|            offset: 32 0x9c-0xa0 (4)
     |                                               |                |          [2]{}: element 0x68-0xa4 (60)
     |                                               |                |            record{}: 0x68-0x74 (12)
0x060|                        02 00 00 00            |        ....    |              length: 2 0x68-0x6c (4)
0x060|                                    01 01 00 00|            ....|              type: "string" (257) (UTF-8 String) 0x6c-0x70 (4)
0x070|67 6f                                          |go              |              data: "go" 0x70-0x72 (2)
0x070|      00 00                                    |  ..            |              alignment_bytes: raw bits 0x72-0x74 (2)
0x0a0|38 00 00 00                                    |8...            |            offset: 56 0xa0-0xa4 (4)
     |                                               |                |          [3]{}: element 0x74-0xa8 (52)
     |                                               |                |            record{}: 0x74-0x80 (12)
0x070|            03 00 00 00                        |    ....        |              length: 3 0x74-0x78 (4)
0x070|                        01 01 00 00            |        ....    |              type: "string" (257) (UTF-8 String) 0x78-0x7c (4)
0x070|                                    73 72 63   |            src |              data: "src" 0x7c-0x7f (3)
0x070|                                             00|               .|              alignment_bytes: raw bits 0x7f-0x80 (1)
0x0a0|            44 00 00 00                        |    D...        |            offset: 68 0xa4-0xa8 (4)
     |                                               |                |          [4]{}: element 0x80-0xac (44)
     |                                               |                |            record{}: 0x80-0x90 (16)
0x080|06 00 00 00                                    |....            |              length: 6 0x80-0x84 (4)
0x080|            01 01 00 00                        |    ....        |              type: "string" (257) (UTF-8 String) 0x84-0x88 (4)
0x080|                        74 68 65 73 69 73      |        thesis  |              data: "thesis" 0x88-0x8e (6)
0x080|                                          00 00|              ..|              alignment_bytes: raw bits 0x8e-0x90 (2)
0x0a0|                        50 00 00 00            |        P...    |            offset: 80 0xa8-0xac (4)
0x090|14 00 00 00                                    |....            |        length: 20 0x90-0x94 (4)
0x090|            01 06 00 00                        |    ....        |        type: "array" (1537) (Array of 4-byte offsets to data items) 0x94-0x98 (4)
0x210|                                    04 10 00 00|            ....|      key: "target_path" (4100) (Array of individual path components) 0x21c-0x220 (4)
0x220|60 00 00 00                                    |`...            |      offset_to_record: 96 0x220-0x224 (4)
0x220|            00 00 00 00                        |    ....        |      unused: 0 0x224-0x228 (4)
     |                                               |                |    [1]{}: entry 0xac-0x234 (392)
     |                                               |                |      record{}: 0xac-0x118 (108)
     |                                               |                |        data[0:5]: 0xac-0x118 (108)
     |                                               |                |          [0]{}: element 0xac-0x108 (92)
     |                                               |                |            record{}: 0xac-0xbc (16)
0x0a0|                                    08 00 00 00|            ....|              length: 8 0xac-0xb0 (4)
0x0b0|04 03 00 00                                    |....            |              type: "long" (772) ((signed 64-bit) 8-byte number) 0xb0-0xb4 (4)
0x0b0|            0b 5b 00 00 00 00 00 00            |    .[......    |              data: 23307 0xb4-0xbc (8)
0x100|            7c 00 00 00                        |    |...        |            offset: 124 0x104-0x108 (4)
     |                                               |                |          [1]{}: element 0xbc-0x10c (80)
     |                                               |                |            record{}: 0xbc-0xcc (16)
0x0b0|                                    08 00 00 00|            ....|              length: 8 0xbc-0xc0 (4)
0x0c0|04 03 00 00                                    |....            |              type: "long" (772) ((signed 64-bit) 8-byte number) 0xc0-0xc4 (4)
0x0c0|            1c 9e 08 00 00 00 00 00            |    ........    |              data: 564764 0xc4-0xcc (8)
0x100|                        8c 00 00 00            |        ....    |            offset: 140 0x108-0x10c (4)
     |                                               |                |          [2]{}: element 0xcc-0x110 (68)
     |                                               |                |            record{}: 0xcc-0xdc (16)
0x0c0|                                    08 00 00 00|            ....|              length: 8 0xcc-0xd0 (4)
0x0d0|04 03 00 00                                    |....            |              type: "long" (772) ((signed 64-bit) 8-byte number) 0xd0-0xd4 (4)
0x0d0|            44 37 12 00 00 00 00 00            |    D7......    |              data: 1193796 0xd4-0xdc (8)
0x100|                                    9c 00 00 00|            ....|            offset: 156 0x10c-0x110 (4)
     |                                               |                |          [3]{}: element 0xdc-0x114 (56)
     |                                               |                |            record{}: 0xdc-0xec (16)
0x0d0|                                    08 00 00 00|            ....|              length: 8 0xdc-0xe0 (4)
0x0e0|04 03 00 00                                    |....            |              type: "long" (772) ((signed 64-bit) 8-byte number) 0xe0-0xe4 (4)
0x0e0|            9f 15 15 00 00 00 00 00            |    ........    |              data: 1381791 0xe4-0xec (8)
0x110|ac 00 00 00                                    |....            |            offset: 172 0x110-0x114 (4)
     |                                               |                |          [4]{}: element 0xec-0x118 (44)
     |                                               |                |            record{}: 0xec-0xfc (16)
0x0e0|                                    08 00 00 00|            ....|              length: 8 0xec-0xf0 (4)
0x0f0|04 03 00 00                                    |....            |              type: "long" (772) ((signed 64-bit) 8-byte number) 0xf0-0xf4 (4)
0x0f0|            53 f0 f9 01 00 00 00 00            |    S.......    |              data: 33157203 0xf4-0xfc (8)
0x110|            bc 00 00 00                        |    ....        |            offset: 188 0x114-0x118 (4)
0x0f0|                                    14 00 00 00|            ....|        length: 20 0xfc-0x100 (4)
0x100|01 06 00 00                                    |....            |        type: "array" (1537) (Array of 4-byte offsets to data items) 0x100-0x104 (4)
0x220|                        05 10 00 00            |        ....    |      key: "target_cnid_path" (4101) (Array of CNIDs) 0x228-0x22c (4)
0x220|                                    cc 00 00 00|            ....|      offset_to_record: 204 0x22c-0x230 (4)
0x230|00 00 00 00                                    |....            |      unused: 0 0x230-0x234 (4)
     |                                               |                |    [2]{}: entry 0x128-0x240 (280)
     |                                               |                |      record{}: 0x128-0x148 (32)
0x120|                        18 00 00 00            |        ....    |        length: 24 (valid) 0x128-0x12c (4)
0x120|                                    01 02 00 00|            ....|        raw_type: "data" (513) (valid) 0x12c-0x130 (4)
     |                                               |                |        type: "flag_data"
     |                                               |                |        property_flags{}: 0x130-0x138 (8)
0x130|02                                             |.               |          is_hidden: false 0x130-0x130.1 (0.1)
0x130|02                                             |.               |          is_user_immutable: false 0x130.1-0x130.2 (0.1)
0x130|02                                             |.               |          is_system_immutable: false 0x130.2-0x130.3 (0.1)
0x130|02                                             |.               |          is_package: false 0x130.3-0x130.4 (0.1)
0x130|02                                             |.               |          is_volume: false 0x130.4-0x130.5 (0.1)
0x130|02                                             |.               |          is_symbolic_link: false 0x130.5-0x130.6 (0.1)
0x130|02                                             |.               |          is_directory: true 0x130.6-0x130.7 (0.1)
0x130|02                                             |.               |          is_regular_file: false 0x130.7-0x131 (0.1)
0x130|   00                                          | .              |          is_alias_file: false 0x131-0x131.1 (0.1)
0x130|   00                                          | .              |          is_executable: false 0x131.1-0x131.2 (0.1)
0x130|   00                                          | .              |          is_writeable: false 0x131.2-0x131.3 (0.1)
0x130|   00                                          | .              |          is_readable: false 0x131.3-0x131.4 (0.1)
0x130|   00                                          | .              |          can_set_hidden_extension: false 0x131.4-0x131.5 (0.1)
0x130|   00                                          | .              |          is_compressed: false 0x131.5-0x131.6 (0.1)
0x130|   00                                          | .              |          is_application: false 0x131.6-0x131.7 (0.1)
0x130|   00                                          | .              |          has_hidden_extension: false 0x131.7-0x132 (0.1)
0x130|      00                                       |  .             |          reserved_bits_0: raw bits 0x132-0x132.7 (0.7)
0x130|      00                                       |  .             |          is_mount_trigger: false 0x132.7-0x133 (0.1)
0x130|         00 00 00 00 00                        |   .....        |          reserved: raw bits 0x133-0x138 (5)
     |                                               |                |        enabled_property_flags{}: 0x138-0x140 (8)
0x130|                        1f                     |        .       |          is_hidden: false 0x138-0x138.1 (0.1)
0x130|                        1f                     |        .       |          is_user_immutable: false 0x138.1-0x138.2 (0.1)
0x130|                        1f                     |        .       |          is_system_immutable: false 0x138.2-0x138.3 (0.1)
0x130|                        1f                     |        .       |          is_package: true 0x138.3-0x138.4 (0.1)
0x130|                        1f                     |        .       |          is_volume: true 0x138.4-0x138.5 (0.1)
0x130|                        1f                     |        .       |          is_symbolic_link: true 0x138.5-0x138.6 (0.1)
0x130|                        1f                     |        .       |          is_directory: true 0x138.6-0x138.7 (0.1)
0x130|                        1f                     |        .       |          is_regular_file: true 0x138.7-0x139 (0.1)
0x130|                           02                  |         .      |          is_alias_file: false 0x139-0x139.1 (0.1)
0x130|                           02                  |         .      |          is_executable: false 0x139.1-0x139.2 (0.1)
0x130|                           02                  |         .      |          is_writeable: false 0x139.2-0x139.3 (0.1)
0x130|                           02                  |         .      |          is_readable: false 0x139.3-0x139.4 (0.1)
0x130|                           02                  |         .      |          can_set_hidden_extension: false 0x139.4-0x139.5 (0.1)
0x130|                           02                  |         .      |          is_compressed: false 0x139.5-0x139.6 (0.1)
0x130|                           02                  |         .      |          is_application: true 0x139.6-0x139.7 (0.1)
0x130|                           02                  |         .      |          has_hidden_extension: false 0x139.7-0x13a (0.1)
0x130|                              00               |          .     |          reserved_bits_0: raw bits 0x13a-0x13a.7 (0.7)
0x130|                              00               |          .     |          is_mount_trigger: false 0x13a.7-0x13b (0.1)
0x130|                                 00 00 00 00 00|           .....|          reserved: raw bits 0x13b-0x140 (5)
0x140|1a 02 00 00 00 00 00 00                        |........        |        reserved: raw bits 0x140-0x148 (8)
0x230|            10 10 00 00                        |    ....        |      key: "target_flags" (4112) (flag bitfield) 0x234-0x238 (4)
0x230|                        f8 00 00 00            |        ....    |      offset_to_record: 248 0x238-0x23c (4)
0x230|                                    00 00 00 00|            ....|      unused: 0 0x23c-0x240 (4)
     |                                               |                |    [3]{}: entry 0x118-0x24c (308)
     |                                               |                |      record{}: 0x118-0x128 (16)
0x110|                        08 00 00 00            |        ....    |        length: 8 0x118-0x11c (4)
0x110|                                    00 04 00 00|            ....|        type: "date" (1024) (Big-endian IEEE double precision seconds since 2001-01-01 00:00:00 UTC) 0x11c-0x120 (4)
0x120|41 c3 ff 97 6f 07 8e 98                        |A...o...        |        data: 6.710351020590391e+08 (2022-04-07T14:38:22Z) 0x120-0x128 (8)
0x240|40 10 00 00                                    |@...            |      key: "target_creation_date" (4160) (Date) 0x240-0x244 (4)
0x240|            e8 00 00 00                        |    ....        |      offset_to_record: 232 0x244-0x248 (4)
0x240|                        00 00 00 00            |        ....    |      unused: 0 0x248-0x24c (4)
     |                                               |                |    [4]{}: entry 0x1f4-0x258 (100)
     |                                               |                |      record{}: 0x1f4-0x200 (12)
0x1f0|            01 00 00 00                        |    ....        |        length: 1 0x1f4-0x1f8 (4)
0x1f0|                        01 01 00 00            |        ....    |        type: "string" (257) (UTF-8 String) 0x1f8-0x1fc (4)
0x1f0|                                    2f         |            /   |        data: "/" 0x1fc-0x1fd (1)
0x1f0|                                       00 00 00|             ...|        alignment_bytes: raw bits 0x1fd-0x200 (3)
0x240|                                    02 20 00 00|            . ..|      key: "volume_path" (8194) (Array of individual path components) 0x24c-0x250 (4)
0x250|c4 01 00 00                                    |....            |      offset_to_record: 452 0x250-0x254 (4)
0x250|            00 00 00 00                        |    ....        |      unused: 0 0x254-0x258 (4)
     |                                               |                |    [5]{}: entry 0x164-0x264 (256)
     |                                               |                |      record{}: 0x164-0x174 (16)
0x160|            08 00 00 00                        |    ....        |        length: 8 0x164-0x168 (4)
0x160|                        01 09 00 00            |        ....    |        type: "url" (2305) (UTF-8 string) 0x168-0x16c (4)
0x160|                                    66 69 6c 65|            file|        data: "file:///" 0x16c-0x174 (8)
0x170|3a 2f 2f 2f                                    |:///            |
0x250|                        05 20 00 00            |        . ..    |      key: "volume_url" (8197) (URL of volume root) 0x258-0x25c (4)
0x250|                                    34 01 00 00|            4...|      offset_to_record: 308 0x25c-0x260 (4)
0x260|00 00 00 00                                    |....            |      unused: 0 0x260-0x264 (4)
     |                                               |                |    [6]{}: entry 0x174-0x270 (252)
     |                                               |                |      record{}: 0x174-0x18c (24)
0x170|            0c 00 00 00                        |    ....        |        length: 12 0x174-0x178 (4)
0x170|                        01 01 00 00            |        ....    |        type: "string" (257) (UTF-8 String) 0x178-0x17c (4)
0x170|                                    4d 61 63 69|            Maci|        data: "Macintosh HD" 0x17c-0x188 (12)
0x180|6e 74 6f 73 68 20 48 44                        |ntosh HD        |
0x180|                        08 00 00 00            |        ....    |        alignment_bytes: raw bits 0x188-0x18c (4)
0x260|            10 20 00 00                        |    . ..        |      key: "volume_name" (8208) (String) 0x264-0x268 (4)
0x260|                        44 01 00 00            |        D...    |      offset_to_record: 324 0x268-0x26c (4)
0x260|                                    00 00 00 00|            ....|      unused: 0 0x26c-0x270 (4)
     |                                               |                |    [7]{}: entry 0x1a8-0x27c (212)
     |                                               |                |      record{}: 0x1a8-0x1d8 (48)
0x1a0|                        24 00 00 00            |        $...    |        length: 36 0x1a8-0x1ac (4)
0x1a0|                                    01 01 00 00|            ....|        type: "string" (257) (UTF-8 String) 0x1ac-0x1b0 (4)
0x1b0|38 41 38 32 39 41 30 33 2d 39 42 32 34 2d 34 30|8A829A03-9B24-40|        data: "8A829A03-9B24-4085-8051-18978712E4BE" 0x1b0-0x1d4 (36)
*    |until 0x1d3.7 (36)                             |                |
0x1d0|            18 00 00 00                        |    ....        |        alignment_bytes: raw bits 0x1d4-0x1d8 (4)
0x270|11 20 00 00                                    |. ..            |      key: "volume_uuid" (8209) (String UUID) 0x270-0x274 (4)
0x270|            78 01 00 00                        |    x...        |      offset_to_record: 376 0x274-0x278 (4)
0x270|                        00 00 00 00            |        ....    |      unused: 0 0x278-0x27c (4)
     |                                               |                |    [8]{}: entry 0x188-0x288 (256)
     |                                               |                |      record{}: 0x188-0x198 (16)
0x180|                        08 00 00 00            |        ....    |        length: 8 0x188-0x18c (4)
0x180|                                    04 03 00 00|            ....|        type: "long" (772) ((signed 64-bit) 8-byte number) 0x18c-0x190 (4)
0x190|00 a0 20 68 74 00 00 00                        |.. ht...        |        data: 499963174912 0x190-0x198 (8)
0x270|                                    12 20 00 00|            . ..|      key: "volume_size" (8210) (8-byte integer) 0x27c-0x280 (4)
0x280|58 01 00 00                                    |X...            |      offset_to_record: 344 0x280-0x284 (4)
0x280|            00 00 00 00                        |    ....        |      unused: 0 0x284-0x288 (4)
     |                                               |                |    [9]{}: entry 0x198-0x294 (252)
     |                                               |                |      record{}: 0x198-0x1a8 (16)
0x190|                        08 00 00 00            |        ....    |        length: 8 0x198-0x19c (4)
0x190|                                    00 04 00 00|            ....|        type: "date" (1024) (Big-endian IEEE double precision seconds since 2001-01-01 00:00:00 UTC) 0x19c-0x1a0 (4)
0x1a0|41 c1 de 44 80 00 00 00                        |A..D....        |        data: 5.995584e+08 (2020-01-01T08:00:00Z) 0x1a0-0x1a8 (8)
0x280|                        13 20 00 00            |        . ..    |      key: "volume_creation_date" (8211) (Date) 0x288-0x28c (4)
0x280|                                    68 01 00 00|            h...|      offset_to_record: 360 0x28c-0x290 (4)
0x290|00 00 00 00                                    |....            |      unused: 0 0x290-0x294 (4)
     |                                               |                |    [10]{}: entry 0x1d4-0x2a0 (204)
     |                                               |                |      record{}: 0x1d4-0x1f4 (32)
0x1d0|            18 00 00 00                        |    ....        |        length: 24 (valid) 0x1d4-0x1d8 (4)
0x1d0|                        01 02 00 00            |        ....    |        raw_type: "data" (513) (valid) 0x1d8-0x1dc (4)
     |                                               |                |        type: "flag_data"
     |                                               |                |        property_flags{}: 0x1dc-0x1e4 (8)
0x1d0|                                    81         |            .   |          is_internal: true 0x1dc-0x1dc.1 (0.1)
0x1d0|                                    81         |            .   |          is_removable: false 0x1dc.1-0x1dc.2 (0.1)
0x1d0|                                    81         |            .   |          is_ejectable: false 0x1dc.2-0x1dc.3 (0.1)
0x1d0|                                    81         |            .   |          is_quarantined: false 0x1dc.3-0x1dc.4 (0.1)
0x1d0|                                    81         |            .   |          is_read_only: false 0x1dc.4-0x1dc.5 (0.1)
0x1d0|                                    81         |            .   |          dont_browse: false 0x1dc.5-0x1dc.6 (0.1)
0x1d0|                                    81         |            .   |          is_automount: false 0x1dc.6-0x1dc.7 (0.1)
0x1d0|                                    81         |            .   |          is_local: true 0x1dc.7-0x1dd (0.1)
0x1d0|                                       00      |             .  |          is_dvd: false 0x1dd-0x1dd.1 (0.1)
0x1d0|                                       00      |             .  |          is_cd: false 0x1dd.1-0x1dd.2 (0.1)
0x1d0|                                       00      |             .  |          is_idisk: false 0x1dd.2-0x1dd.3 (0.1)
0x1d0|                                       00      |             .  |          is_ipod: false 0x1dd.3-0x1dd.4 (0.1)
0x1d0|                                       00      |             .  |          is_local_idisk_mirror: false 0x1dd.4-0x1dd.5 (0.1)
0x1d0|                                       00      |             .  |          is_file_vault: false 0x1dd.5-0x1dd.6 (0.1)
0x1d0|                                       00      |             .  |          is_disk_image: false 0x1dd.6-0x1dd.7 (0.1)
0x1d0|                                       00      |             .  |          is_external: false 0x1dd.7-0x1de (0.1)
0x1d0|                                          00   |              . |          reserved_0: raw bits 0x1de-0x1de.7 (0.7)
0x1d0|                                          00   |              . |          is_device_file_system: false 0x1de.7-0x1df (0.1)
0x1d0|                                             00|               .|          reserved_1: raw bits 0x1df-0x1e0 (1)
0x1e0|01                                             |.               |          supports_read_dir_attr: false 0x1e0-0x1e0.1 (0.1)
0x1e0|01                                             |.               |          supports_copy_file: false 0x1e0.1-0x1e0.2 (0.1)
0x1e0|01                                             |.               |          supports_deny_modes: false 0x1e0.2-0x1e0.3 (0.1)
0x1e0|01                                             |.               |          supports_symbolic_links: false 0x1e0.3-0x1e0.4 (0.1)
0x1e0|01                                             |.               |          reserved_2: false 0x1e0.4-0x1e0.5 (0.1)
0x1e0|01                                             |.               |          supports_exchange: false 0x1e0.5-0x1e0.6 (0.1)
0x1e0|01                                             |.               |          supports_search_fs: false 0x1e0.6-0x1e0.7 (0.1)
0x1e0|01                                             |.               |          supports_persistent_ids: true 0x1e0.7-0x1e1 (0.1)
0x1e0|   00                                          | .              |          supports_extended_security: false 0x1e1-0x1e1.1 (0.1)
0x1e0|   00                                          | .              |          has_no_root_directory_times: false 0x1e1.1-0x1e1.2 (0.1)
0x1e0|   00                                          | .              |          supports_flock: false 0x1e1.2-0x1e1.3 (0.1)
0x1e0|   00                                          | .              |          supports_case_preserved_names: false 0x1e1.3-0x1e1.4 (0.1)
0x1e0|   00                                          | .              |          supports_case_sensitive_names: false 0x1e1.4-0x1e1.5 (0.1)
0x1e0|   00                                          | .              |          supports_fast_stat_fs: false 0x1e1.5-0x1e1.6 (0.1)
0x1e0|   00                                          | .              |          supports_rename: false 0x1e1.6-0x1e1.7 (0.1)
0x1e0|   00                                          | .              |          supports_journaling: false 0x1e1.7-0x1e2 (0.1)
0x1e0|      00                                       |  .             |          supports_zero_runs: false 0x1e2-0x1e2.1 (0.1)
0x1e0|      00                                       |  .             |          supports_sparse_files: false 0x1e2.1-0x1e2.2 (0.1)
0x1e0|      00                                       |  .             |          is_journaling: false 0x1e2.2-0x1e2.3 (0.1)
0x1e0|      00                                       |  .             |          reserved_3: false 0x1e2.3-0x1e2.4 (0.1)
0x1e0|      00                                       |  .             |          supports_path_from_id: false 0x1e2.4-0x1e2.5 (0.1)
0x1e0|      00                                       |  .             |          supports_mandatory_byte_range_locks: false 0x1e2.5-0x1e2.6 (0.1)
0x1e0|      00                                       |  .             |          supports_hard_links: false 0x1e2.6-0x1e2.7 (0.1)
0x1e0|      00                                       |  .             |          supports_2_tb_file_size: false 0x1e2.7-0x1e3 (0.1)
0x1e0|         00                                    |   .            |          reserved_4: raw bits 0x1e3-0x1e3.3 (0.3)
0x1e0|         00                                    |   .            |          has64_bit_object_ids: false 0x1e3.3-0x1e3.4 (0.1)
0x1e0|         00                                    |   .            |          supports_decmp_fs_compression: false 0x1e3.4-0x1e3.5 (0.1)
0x1e0|         00                                    |   .            |          supports_hidden_files: false 0x1e3.5-0x1e3.6 (0.1)
0x1e0|         00                                    |   .            |          supports_remote_events: false 0x1e3.6-0x1e3.7 (0.1)
0x1e0|         00                                    |   .            |          supports_volume_sizes: false 0x1e3.7-0x1e4 (0.1)
     |                                               |                |        enabled_property_flags{}: 0x1e4-0x1ec (8)
0x1e0|            ef                                 |    .           |          is_internal: true 0x1e4-0x1e4.1 (0.1)
0x1e0|            ef                                 |    .           |          is_removable: true 0x1e4.1-0x1e4.2 (0.1)
0x1e0|            ef                                 |    .           |          is_ejectable: true 0x1e4.2-0x1e4.3 (0.1)
0x1e0|            ef                                 |    .           |          is_quarantined: false 0x1e4.3-0x1e4.4 (0.1)
0x1e0|            ef                                 |    .           |          is_read_only: true 0x1e4.4-0x1e4.5 (0.1)
0x1e0|            ef                                 |    .           |          dont_browse: true 0x1e4.5-0x1e4.6 (0.1)
0x1e0|            ef                                 |    .           |          is_automount: true 0x1e4.6-0x1e4.7 (0.1)
0x1e0|            ef                                 |    .           |          is_local: true 0x1e4.7-0x1e5 (0.1)
0x1e0|               13                              |     .          |          is_dvd: false 0x1e5-0x1e5.1 (0.1)
0x1e0|               13                              |     .          |          is_cd: false 0x1e5.1-0x1e5.2 (0.1)
0x1e0|               13                              |     .          |          is_idisk: false 0x1e5.2-0x1e5.3 (0.1)
0x1e0|               13                              |     .          |          is_ipod: true 0x1e5.3-0x1e5.4 (0.1)
0x1e0|               13                              |     .          |          is_local_idisk_mirror: false 0x1e5.4-0x1e5.5 (0.1)
0x1e0|               13                              |     .          |          is_file_vault: false 0x1e5.5-0x1e5.6 (0.1)
0x1e0|               13                              |     .          |          is_disk_image: true 0x1e5.6-0x1e5.7 (0.1)
0x1e0|               13                              |     .          |          is_external: true 0x1e5.7-0x1e6 (0.1)
0x1e0|                  00                           |      .         |          reserved_0: raw bits 0x1e6-0x1e6.7 (0.7)
0x1e0|                  00                           |      .         |          is_device_file_system: false 0x1e6.7-0x1e7 (0.1)
0x1e0|                     00                        |       .        |          reserved_1: raw bits 0x1e7-0x1e8 (1)
0x1e0|                        01                     |        .       |          supports_read_dir_attr: false 0x1e8-0x1e8.1 (0.1)
0x1e0|                        01                     |        .       |          supports_copy_file: false 0x1e8.1-0x1e8.2 (0.1)
0x1e0|                        01                     |        .       |          supports_deny_modes: false 0x1e8.2-0x1e8.3 (0.1)
0x1e0|                        01                     |        .       |          supports_symbolic_links: false 0x1e8.3-0x1e8.4 (0.1)
0x1e0|                        01                     |        .       |          reserved_2: false 0x1e8.4-0x1e8.5 (0.1)
0x1e0|                        01                     |        .       |          supports_exchange: false 0x1e8.5-0x1e8.6 (0.1)
0x1e0|                        01                     |        .       |          supports_search_fs: false 0x1e8.6-0x1e8.7 (0.1)
0x1e0|                        01                     |        .       |          supports_persistent_ids: true 0x1e8.7-0x1e9 (0.1)
0x1e0|                           00                  |         .      |          supports_extended_security: false 0x1e9-0x1e9.1 (0.1)
0x1e0|                           00                  |         .      |          has_no_root_directory_times: false 0x1e9.1-0x1e9.2 (0.1)
0x1e0|                           00                  |         .      |          supports_flock: false 0x1e9.2-0x1e9.3 (0.1)
0x1e0|                           00                  |         .      |          supports_case_preserved_names: false 0x1e9.3-0x1e9.4 (0.1)
0x1e0|                           00                  |         .      |          supports_case_sensitive_names: false 0x1e9.4-0x1e9.5 (0.1)
0x1e0|                           00                  |         .      |          supports_fast_stat_fs: false 0x1e9.5-0x1e9.6 (0.1)
0x1e0|                           00                  |         .      |          supports_rename: false 0x1e9.6-0x1e9.7 (0.1)
0x1e0|                           00                  |         .      |          supports_journaling: false 0x1e9.7-0x1ea (0.1)
0x1e0|                              00               |          .     |          supports_zero_runs: false 0x1ea-0x1ea.1 (0.1)
0x1e0|                              00               |          .     |          supports_sparse_files: false 0x1ea.1-0x1ea.2 (0.1)
0x1e0|                              00               |          .     |          is_journaling: false 0x1ea.2-0x1ea.3 (0.1)
0x1e0|                              00               |          .     |          reserved_3: false 0x1ea.3-0x1ea.4 (0.1)
0x1e0|                              00               |          .     |          supports_path_from_id: false 0x1ea.4-0x1ea.5 (0.1)
0x1e0|                              00               |          .     |          supports_mandatory_byte_range_locks: false 0x1ea.5-0x1ea.6 (0.1)
0x1e0|                              00               |          .     |          supports_hard_links: false 0x1ea.6-0x1ea.7 (0.1)
0x1e0|                              00               |          .     |          supports_2_tb_file_size: false 0x1ea.7-0x1eb (0.1)
0x1e0|                                 00            |           .    |          reserved_4: raw bits 0x1eb-0x1eb.3 (0.3)
0x1e0|                                 00            |           .    |          has64_bit_object_ids: false 0x1eb.3-0x1eb.4 (0.1)
0x1e0|                                 00            |           .    |          supports_decmp_fs_compression: false 0x1eb.4-0x1eb.5 (0.1)
0x1e0|                                 00            |           .    |          supports_hidden_files: false 0x1eb.5-0x1eb.6 (0.1)
0x1e0|                                 00            |           .    |          supports_remote_events: false 0x1eb.6-0x1eb.7 (0.1)
0x1e0|                                 00            |           .    |          supports_volume_sizes: false 0x1eb.7-0x1ec (0.1)
0x1e0|                                    00 00 00 00|            ....|        reserved: raw bits 0x1ec-0x1f4 (8)
0x1f0|00 00 00 00                                    |....            |
0x290|            20 20 00 00                        |      ..        |      key: "volume_flags" (8224) (flag bitfield) 0x294-0x298 (4)
0x290|                        a4 01 00 00            |        ....    |      offset_to_record: 420 0x298-0x29c (4)
0x290|                                    00 00 00 00|            ....|      unused: 0 0x29c-0x2a0 (4)
     |                                               |                |    [11]{}: entry 0x200-0x2ac (172)
     |                                               |                |      record{}: 0x200-0x208 (8)
0x200|00 00 00 00                                    |....            |        length: 0 0x200-0x204 (4)
0x200|            01 05 00 00                        |    ....        |        type: "boolean_true" (1281) (True) 0x204-0x208 (4)
0x2a0|30 20 00 00                                    |0 ..            |      key: "volume_is_root" (8240) (True if the volume was the filesystem root) 0x2a0-0x2a4 (4)
0x2a0|            d0 01 00 00                        |    ....        |      offset_to_record: 464 0x2a4-0x2a8 (4)
0x2a0|                        00 00 00 00            |        ....    |      unused: 0 0x2a8-0x2ac (4)
     |                                               |                |    [12]{}: entry 0x148-0x2b8 (368)
     |                                               |                |      record{}: 0x148-0x158 (16)
0x140|                        08 00 00 00            |        ....    |        length: 8 0x148-0x14c (4)
0x140|                                    04 03 00 00|            ....|        type: "long" (772) ((signed 64-bit) 8-byte number) 0x14c-0x150 (4)
0x150|03 00 00 00 00 00 00 00                        |........        |        data: 3 0x150-0x158 (8)
0x2a0|                                    01 c0 00 00|            ....|      key: "containing_folder_index" (49153) (Integer index of containing folder in target path array) 0x2ac-0x2b0 (4)
0x2b0|18 01 00 00                                    |....            |      offset_to_record: 280 0x2b0-0x2b4 (4)
0x2b0|            00 00 00 00                        |    ....        |      unused: 0 0x2b4-0x2b8 (4)
     |                                               |                |    [13]{}: entry 0x50-0x2c4 (628)
     |                                               |                |      record{}: 0x50-0x68 (24)
0x050|0d 00 00 00                                    |....            |        length: 13 0x50-0x54 (4)
0x050|            01 01 00 00                        |    ....        |        type: "string" (257) (UTF-8 String) 0x54-0x58 (4)
0x050|                        64 61 76 69 64 6d 63 64|        davidmcd|        data: "davidmcdonald" 0x58-0x65 (13)
0x060|6f 6e 61 6c 64                                 |onald           |
0x060|               00 00 00                        |     ...        |        alignment_bytes: raw bits 0x65-0x68 (3)
0x2b0|                        11 c0 00 00            |        ....    |      key: "creator_username" (49169) (Name of user that created bookmark) 0x2b8-0x2bc (4)
0x2b0|                                    20 00 00 00|             ...|      offset_to_record: 32 0x2bc-0x2c0 (4)
0x2c0|00 00 00 00                                    |....            |      unused: 0 0x2c0-0x2c4 (4)
     |                                               |                |    [14]{}: entry 0x158-0x2d0 (376)
     |                                               |                |      record{}: 0x158-0x164 (12)
0x150|                        04 00 00 00            |        ....    |        length: 4 0x158-0x15c (4)
0x150|                                    03 03 00 00|            ....|        type: "int" (771) ((signed 32-bit) 4-byte number) 0x15c-0x160 (4)
0x160|f5 01 00 00                                    |....            |        data: 501 0x160-0x164 (4)
0x2c0|            12 c0 00 00                        |    ....        |      key: "creator_uid" (49170) (UID of user that created bookmark) 0x2c4-0x2c8 (4)
0x2c0|                        28 01 00 00            |        (...    |      offset_to_record: 296 0x2c8-0x2cc (4)
0x2c0|                                    00 00 00 00|            ....|      unused: 0 0x2cc-0x2d0 (4)
     |                                               |                |    [15]{}: entry 0x34-0x2dc (680)
     |                                               |                |      record{}: 0x34-0x40 (12)
0x030|            04 00 00 00                        |    ....        |        length: 4 0x34-0x38 (4)
0x030|                        03 03 00 00            |        ....    |        type: "int" (771) ((signed 32-bit) 4-byte number) 0x38-0x3c (4)
0x030|                                    00 00 00 20|            ... |        data: 536870912 0x3c-0x40 (4)
0x2d0|10 d0 00 00                                    |....            |      key: "creation_options" (53264) (Integer containing flags passed to CFURLCreateBookmarkData) 0x2d0-0x2d4 (4)
0x2d0|            04 00 00 00                        |    ....        |      offset_to_record: 4 0x2d4-0x2d8 (4)
0x2d0|                        00 00 00 00            |        ....    |      unused: 0 0x2d8-0x2dc (4)
     |                                               |                |    [16]{}: entry 0x80-0x2e8 (616)
     |                                               |                |      record{}: 0x80-0x90 (16)
0x080|06 00 00 00                                    |....            |        length: 6 0x80-0x84 (4)
0x080|            01 01 00 00                        |    ....        |        type: "string" (257) (UTF-8 String) 0x84-0x88 (4)
0x080|                        74 68 65 73 69 73      |        thesis  |        data: "thesis" 0x88-0x8e (6)
0x080|                                          00 00|              ..|        alignment_bytes: raw bits 0x8e-0x90 (2)
0x2d0|                                    17 f0 00 00|            ....|      key: "display_name" (61463) (String) 0x2dc-0x2e0 (4)
0x2e0|50 00 00 00                                    |P...            |      offset_to_record: 80 0x2e0-0x2e4 (4)
0x2e0|            00 00 00 00                        |    ....        |      unused: 0 0x2e4-0x2e8 (4)
     |                                               |                |    [17]{}: entry 0x200-0x2f4 (244)
     |                                               |                |      record{}: 0x200-0x208 (8)
0x200|00 00 00 00                                    |....            |        length: 0 0x200-0x204 (4)
0x200|            01 05 00 00                        |    ....        |        type: "boolean_true" (1281) (True) 0x204-0x208 (4)
0x2e0|                        0f 00 0f 00            |        ....    |      key: 983055 0x2e8-0x2ec (4)
0x2e0|                                    d0 01 00 00|            ....|      offset_to_record: 464 0x2ec-0x2f0 (4)
0x2f0|00 00 00 00|                                   |....|           |      unused: 0 0x2f0-0x2f4 (4)
     |                                               |                |  toc_headers[0:1]: 0x208-0x21c (20)
     |                                               |                |    [0]{}: toc_header 0x208-0x21c (20)
0x200|                        e4 00 00 00            |        ....    |      toc_size: 228 0x208-0x20c (4)
0x200|                                    fe ff ff ff|            ....|      magic: 4294967294 (valid) 0x20c-0x210 (4)
0x210|01 00 00 00                                    |....            |      identifier: 1 0x210-0x214 (4)
0x210|            00 00 00 00                        |    ....        |      next_toc_offset: 0 0x214-0x218 (4)
0x210|                        12 00 00 00            |        ....    |      num_entries_in_toc: 18 0x218-0x21c (4)
$ fq torepr sample4.book
{
  "983055": true,
  "containing_folder_index": 3,
  "creation_options": 536870912,
  "creator_uid": 501,
  "creator_username": "davidmcdonald",
  "display_name": "thesis",
  "target_cnid_path": [
    23307,
    564764,
    1193796,
    1381791,
    33157203
  ],
  "target_creation_date": 671035102.0590391,
  "target_flags": {
    "is_application": false,
    "is_directory": true,
    "is_package": false,
    "is_regular_file": false,
    "is_symbolic_link": false,
    "is_volume": false
  },
  "target_path": [
    "Users",
    "davidmcdonald",
    "go",
    "src",
    "thesis"
  ],
  "volume_creation_date": 599558400,
  "volume_flags": {
    "dont_browse": false,
    "is_automount": false,
    "is_disk_image": false,
    "is_ejectable": false,
    "is_external": false,
    "is_internal": true,
    "is_ipod": false,
    "is_local": true,
    "is_read_only": false,
    "is_removable": false,
    "supports_persistent_ids": true
  },
  "volume_is_root": true,
  "volume_name": "Macintosh HD",
  "volume_path": "/",
  "volume_size": 499963174912,
  "volume_url": "file:///",
  "volume_uuid": "8A829A03-9B24-4085-8051-18978712E4BE"
}
