$ fq dv sample3.book 
     |00 01 02 03 04 05 06 07 08 09 0a 0b 0c 0d 0e 0f|0123456789abcdef|.{}: sample3.book (apple_bookmark) 0x0-0x334 (820)
     |                                               |                |  header{}: 0x0-0x30 (48)
0x000|62 6f 6f 6b                                    |book            |    magic: "book" (valid) 0x0-0x4 (4)
0x000|            34 03 00 00                        |    4...        |    total_size: 820 0x4-0x8 (4)
0x000|                        00 00 04 10            |        ....    |    unknown: 268697600 0x8-0xc (4)
0x000|                                    30 00 00 00|            0...|    header_size: 48 (valid) 0xc-0x10 (4)
0x010|00 00 00 00 00 00 00 00 00 00 00 00 00 00 00 00|................|    reserved: raw bits 0x10-0x30 (32)
0x020|00 00 00 00 00 00 00 00 00 00 00 00 00 00 00 00|................|
0x030|18 02 00 00                                    |....            |  first_toc_offset: 536 0x30-0x34 (4)
     |                                               |                |  bookmark_entries[0:18]: 0x34-0x334 (768)
     |                                               |                |    [0]{}: entry 0x40-0x268 (552)
     |                                               |                |      record{}: 0x40-0xd8 (152)
     |                                               |                |        data[0:6]: 0x40-0xd8 (152)
     |                                               |                |          [0]{}: element 0x40-0xc4 (132)
     |                                               |                |            record{}: 0x40-0x50 (16)
0x040|05 00 00 00                                    |....            |              length: 5 0x40-0x44 (4)
0x040|            01 01 00 00                        |    ....        |              type: "string" (257) (UTF-8 String) 0x44-0x48 (4)
0x040|                        55 73 65 72 73         |        Users   |              data: "Users" 0x48-0x4d (5)
0x040|                                       00 00 00|             ...|              alignment_bytes: raw bits 0x4d-0x50 (3)
0x0c0|10 00 00 00                                    |....            |            offset: 16 0xc0-0xc4 (4)
     |                                               |                |          [1]{}: element 0x50-0xc8 (120)
     |                                               |                |            record{}: 0x50-0x68 (24)
0x050|0d 00 00 00                                    |....            |              length: 13 0x50-0x54 (4)
0x050|            01 01 00 00                        |    ....        |              type: "string" (257) (UTF-8 String) 0x54-0x58 (4)
0x050|                        64 61 76 69 64 6d 63 64|        davidmcd|              data: "davidmcdonald" 0x58-0x65 (13)
0x060|6f 6e 61 6c 64                                 |onald           |
0x060|               00 00 00                        |     ...        |              alignment_bytes: raw bits 0x65-0x68 (3)
0x0c0|            20 00 00 00                        |     ...        |            offset: 32 0xc4-0xc8 (4)
     |                                               |                |          [2]{}: element 0x68-0xcc (100)
     |                                               |                |            record{}: 0x68-0x7c (20)
0x060|                        09 00 00 00            |        ....    |              length: 9 0x68-0x6c (4)
0x060|                                    01 01 00 00|            ....|              type: "string" (257) (UTF-8 String) 0x6c-0x70 (4)
0x070|44 6f 63 75 6d 65 6e 74 73                     |Documents       |              data: "Documents" 0x70-0x79 (9)
0x070|                           00 00 00            |         ...    |              alignment_bytes: raw bits 0x79-0x7c (3)
0x0c0|                        38 00 00 00            |        8...    |            offset: 56 0xc8-0xcc (4)
     |                                               |                |          [3]{}: element 0x7c-0xd0 (84)
     |                                               |                |            record{}: 0x7c-0x8c (16)
0x070|                                    07 00 00 00|            ....|              length: 7 0x7c-0x80 (4)
0x080|01 01 00 00                                    |....            |              type: "string" (257) (UTF-8 String) 0x80-0x84 (4)
0x080|            41 72 64 75 69 6e 6f               |    Arduino     |              data: "Arduino" 0x84-0x8b (7)
0x080|                                 00            |           .    |              alignment_bytes: raw bits 0x8b-0x8c (1)
0x0c0|                                    4c 00 00 00|            L...|            offset: 76 0xcc-0xd0 (4)
     |                                               |                |          [4]{}: element 0x8c-0xd4 (72)
     |                                               |                |            record{}: 0x8c-0xa8 (28)
0x080|                                    12 00 00 00|            ....|              length: 18 0x8c-0x90 (4)
0x090|01 01 00 00                                    |....            |              type: "string" (257) (UTF-8 String) 0x90-0x94 (4)
0x090|            67 65 6e 65 72 61 74 65 64 5f 65 78|    generated_ex|              data: "generated_examples" 0x94-0xa6 (18)
0x0a0|61 6d 70 6c 65 73                              |amples          |
0x0a0|                  00 00                        |      ..        |              alignment_bytes: raw bits 0xa6-0xa8 (2)
0x0d0|5c 00 00 00                                    |\...            |            offset: 92 0xd0-0xd4 (4)
     |                                               |                |          [5]{}: element 0xa8-0xd8 (48)
     |                                               |                |            record{}: 0xa8-0xb8 (16)
0x0a0|                        05 00 00 00            |        ....    |              length: 5 0xa8-0xac (4)
0x0a0|                                    01 01 00 00|            ....|              type: "string" (257) (UTF-8 String) 0xac-0xb0 (4)
0x0b0|42 6c 69 6e 6b                                 |Blink           |              data: "Blink" 0xb0-0xb5 (5)
0x0b0|               00 00 00                        |     ...        |              alignment_bytes: raw bits 0xb5-0xb8 (3)
0x0d0|            78 00 00 00                        |    x...        |            offset: 120 0xd4-0xd8 (4)
0x0b0|                        18 00 00 00            |        ....    |        length: 24 0xb8-0xbc (4)
0x0b0|                                    01 06 00 00|            ....|        type: "array" (1537) (Array of 4-byte offsets to data items) 0xbc-0xc0 (4)
0x250|                                    04 10 00 00|            ....|      key: "target_path" (4100) (Array of individual path components) 0x25c-0x260 (4)
0x260|88 00 00 00                                    |....            |      offset_to_record: 136 0x260-0x264 (4)
0x260|            00 00 00 00                        |    ....        |      unused: 0 0x264-0x268 (4)
     |                                               |                |    [1]{}: entry 0xd8-0x274 (412)
     |                                               |                |      record{}: 0xd8-0x158 (128)
     |                                               |                |        data[0:6]: 0xd8-0x158 (128)
     |                                               |                |          [0]{}: element 0xd8-0x144 (108)
     |                                               |                |            record{}: 0xd8-0xe8 (16)
0x0d0|                        08 00 00 00            |        ....    |              length: 8 0xd8-0xdc (4)
0x0d0|                                    04 03 00 00|            ....|              type: "long" (772) ((signed 64-bit) 8-byte number) 0xdc-0xe0 (4)
0x0e0|0b 5b 00 00 00 00 00 00                        |.[......        |              data: 23307 0xe0-0xe8 (8)
0x140|a8 00 00 00                                    |....            |            offset: 168 0x140-0x144 (4)
     |                                               |                |          [1]{}: element 0xe8-0x148 (96)
     |                                               |                |            record{}: 0xe8-0xf8 (16)
0x0e0|                        08 00 00 00            |        ....    |              length: 8 0xe8-0xec (4)
0x0e0|                                    04 03 00 00|            ....|              type: "long" (772) ((signed 64-bit) 8-byte number) 0xec-0xf0 (4)
0x0f0|1c 9e 08 00 00 00 00 00                        |........        |              data: 564764 0xf0-0xf8 (8)
0x140|            b8 00 00 00                        |    ....        |            offset: 184 0x144-0x148 (4)
     |                                               |                |          [2]{}: element 0xf8-0x14c (84)
     |                                               |                |            record{}: 0xf8-0x108 (16)
0x0f0|                        08 00 00 00            |        ....    |              length: 8 0xf8-0xfc (4)
0x0f0|                                    04 03 00 00|            ....|              type: "long" (772) ((signed 64-bit) 8-byte number) 0xfc-0x100 (4)
0x100|52 e1 0d 00 00 00 00 00                        |R.......        |              data: 909650 0x100-0x108 (8)
0x140|                        c8 00 00 00            |        ....    |            offset: 200 0x148-0x14c (4)
     |                                               |                |          [3]{}: element 0x108-0x150 (72)
     |                                               |                |            record{}: 0x108-0x118 (16)
0x100|                        08 00 00 00            |        ....    |              length: 8 0x108-0x10c (4)
0x100|                                    04 03 00 00|            ....|              type: "long" (772) ((signed 64-bit) 8-byte number) 0x10c-0x110 (4)
0x110|b0 1f 0e 00 00 00 00 00                        |........        |              data: 925616 0x110-0x118 (8)
0x140|                                    d8 00 00 00|            ....|            offset: 216 0x14c-0x150 (4)
     |                                               |                |          [4]{}: element 0x118-0x154 (60)
     |                                               |                |            record{}: 0x118-0x128 (16)
0x110|                        08 00 00 00            |        ....    |              length: 8 0x118-0x11c (4)
0x110|                                    04 03 00 00|            ....|              type: "long" (772) ((signed 64-bit) 8-byte number) 0x11c-0x120 (4)
0x120|91 2b 2d 02 00 00 00 00                        |.+-.....        |              data: 36514705 0x120-0x128 (8)
0x150|e8 00 00 00                                    |....            |            offset: 232 0x150-0x154 (4)
     |                                               |                |          [5]{}: element 0x128-0x158 (48)
     |                                               |                |            record{}: 0x128-0x138 (16)
0x120|                        08 00 00 00            |        ....    |              length: 8 0x128-0x12c (4)
0x120|                                    04 03 00 00|            ....|              type: "long" (772) ((signed 64-bit) 8-byte number) 0x12c-0x130 (4)
0x130|92 2b 2d 02 00 00 00 00                        |.+-.....        |              data: 36514706 0x130-0x138 (8)
0x150|            f8 00 00 00                        |    ....        |            offset: 248 0x154-0x158 (4)
0x130|                        18 00 00 00            |        ....    |        length: 24 0x138-0x13c (4)
0x130|                                    01 06 00 00|            ....|        type: "array" (1537) (Array of 4-byte offsets to data items) 0x13c-0x140 (4)
0x260|                        05 10 00 00            |        ....    |      key: "target_cnid_path" (4101) (Array of CNIDs) 0x268-0x26c (4)
0x260|                                    08 01 00 00|            ....|      offset_to_record: 264 0x26c-0x270 (4)
0x270|00 00 00 00                                    |....            |      unused: 0 0x270-0x274 (4)
     |                                               |                |    [2]{}: entry 0x168-0x280 (280)
     |                                               |                |      record{}: 0x168-0x188 (32)
0x160|                        18 00 00 00            |        ....    |        length: 24 (valid) 0x168-0x16c (4)
0x160|                                    01 02 00 00|            ....|        raw_type: "data" (513) (valid) 0x16c-0x170 (4)
     |                                               |                |        type: "flag_data"
     |                                               |                |        property_flags{}: 0x170-0x178 (8)
0x170|02                                             |.               |          is_hidden: false 0x170-0x170.1 (0.1)
0x170|02                                             |.               |          is_user_immutable: false 0x170.1-0x170.2 (0.1)
0x170|02                                             |.               |          is_system_immutable: false 0x170.2-0x170.3 (0.1)
0x170|02                                             |.               |          is_package: false 0x170.3-0x170.4 (0.1)
0x170|02                                             |.               |          is_volume: false 0x170.4-0x170.5 (0.1)
0x170|02                                             |.               |          is_symbolic_link: false 0x170.5-0x170.6 (0.1)
0x170|02                                             |.               |          is_directory: true 0x170.6-0x170.7 (0.1)
0x170|02                                             |.               |          is_regular_file: false 0x170.7-0x171 (0.1)
0x170|   00                                          | .              |          is_alias_file: false 0x171-0x171.1 (0.1)
0x170|   00                                          | .              |          is_executable: false 0x171.1-0x171.2 (0.1)
0x170|   00                                          | .              |          is_writeable: false 0x171.2-0x171.3 (0.1)
0x170|   00                                          | .              |          is_readable: false 0x171.3-0x171.4 (0.1)
0x170|   00                                          | .              |          can_set_hidden_extension: false 0x171.4-0x171.5 (0.1)
0x170|   00                                          | .              |          is_compressed: false 0x171.5-0x171.6 (0.1)
0x170|   00                                          | .              |          is_application: false 0x171.6-0x171.7 (0.1)
0x170|   00                                          | .              |          has_hidden_extension: false 0x171.7-0x172 (0.1)
0x170|      00                                       |  .             |          reserved_bits_0: raw bits 0x172-0x172.7 (0.7)
0x170|      00                                       |  .             |          is_mount_trigger: false 0x172.7-0x173 (0.1)
0x170|         00 00 00 00 00                        |   .....        |          reserved: raw bits 0x173-0x178 (5)
     |                                               |                |        enabled_property_flags{}: 0x178-0x180 (8)
0x170|                        1f                     |        .       |          is_hidden: false 0x178-0x178.1 (0.1)
0x170|                        1f                     |        .       |          is_user_immutable: false 0x178.1-0x178.2 (0.1)
0x170|                        1f                     |        .       |          is_system_immutable: false 0x178.2-0x178.3 (0.1)
0x170|                        1f                     |        .       |          is_package: true 0x178.3-0x178.4 (0.1)
0x170|                        1f                     |        .       |          is_volume: true 0x178.4-0x178.5 (0.1)
0x170|                        1f                     |        .       |          is_symbolic_link: true 0x178.5-0x178.6 (0.1)
0x170|                        1f                     |        .       |          is_directory: true 0x178.6-0x178.7 (0.1)
0x170|                        1f                     |        .       |          is_regular_file: true 0x178.7-0x179 (0.1)
0x170|                           02                  |         .      |          is_alias_file: false 0x179-0x179.1 (0.1)
0x170|                           02                  |         .      |          is_executable: false 0x179.1-0x179.2 (0.1)
0x170|                           02                  |         .      |          is_writeable: false 0x179.2-0x179.3 (0.1)
0x170|                           02                  |         .      |          is_readable: false 0x179.3-0x179.4 (0.1)
0x170|                           02                  |         .      |          can_set_hidden_extension: false 0x179.4-0x179.5 (0.1)
0x170|                           02                  |         .      |          is_compressed: false 0x179.5-0x179.6 (0.1)
0x170|                           02                  |         .      |          is_application: true 0x179.6-0x179.7 (0.1)
0x170|                           02                  |         .      |          has_hidden_extension: false 0x179.7-0x17a (0.1)
0x170|                              00               |          .     |          reserved_bits_0: raw bits 0x17a-0x17a.7 (0.7)
0x170|                              00               |          .     |          is_mount_trigger: false 0x17a.7-0x17b (0.1)
0x170|                                 00 00 00 00 00|           .....|          reserved: raw bits 0x17b-0x180 (5)
0x180|1a 02 00 00 00 00 00 00                        |........        |        reserved: raw bits 0x180-0x188 (8)
0x270|            10 10 00 00                        |    ....        |      key: "target_flags" (4112) (flag bitfield) 0x274-0x278 (4)
0x270|                        38 01 00 00            |        8...    |      offset_to_record: 312 0x278-0x27c (4)
0x270|                                    00 00 00 00|            ....|      unused: 0 0x27c-0x280 (4)
     |                                               |                |    [3]{}: entry 0x158-0x28c (308)
     |                                               |                |      record{}: 0x158-0x168 (16)
0x150|                        08 00 00 00            |        ....    |        length: 8 0x158-0x15c (4)
0x150|                                    00 04 00 00|            ....|        type: "date" (1024) (Big-endian IEEE double precision seconds since 2001-01-01 00:00:00 UTC) 0x15c-0x160 (4)
0x160|41 c4 11 9d 61 74 66 30                        |A...atf0        |        data: 6.733974429093685e+08 (2022-05-04T22:50:42Z) 0x160-0x168 (8)
0x280|40 10 00 00                                    |@...            |      key: "target_creation_date" (4160) (Date) 0x280-0x284 (4)
0x280|            28 01 00 00                        |    (...        |      offset_to_record: 296 0x284-0x288 (4)
0x280|                        00 00 00 00            |        ....    |      unused: 0 0x288-0x28c (4)
     |                                               |                |    [4]{}: entry 0x234-0x298 (100)
     |                                               |                |      record{}: 0x234-0x240 (12)
0x230|            01 00 00 00                        |    ....        |        length: 1 0x234-0x238 (4)
0x230|                        01 01 00 00            |        ....    |        type: "string" (257) (UTF-8 String) 0x238-0x23c (4)
0x230|                                    2f         |            /   |        data: "/" 0x23c-0x23d (1)
0x230|                                       00 00 00|             ...|        alignment_bytes: raw bits 0x23d-0x240 (3)
0x280|                                    02 20 00 00|            . ..|      key: "volume_path" (8194) (Array of individual path components) 0x28c-0x290 (4)
0x290|04 02 00 00                                    |....            |      offset_to_record: 516 0x290-0x294 (4)
0x290|            00 00 00 00                        |    ....        |      unused: 0 0x294-0x298 (4)
     |                                               |                |    [5]{}: entry 0x1a4-0x2a4 (256)
     |                                               |                |      record{}: 0x1a4-0x1b4 (16)
0x1a0|            08 00 00 00                        |    ....        |        length: 8 0x1a4-0x1a8 (4)
0x1a0|                        01 09 00 00            |        ....    |        type: "url" (2305) (UTF-8 string) 0x1a8-0x1ac (4)
0x1a0|                                    66 69 6c 65|            file|        data: "file:///" 0x1ac-0x1b4 (8)
0x1b0|3a 2f 2f 2f                                    |:///            |
0x290|                        05 20 00 00            |        . ..    |      key: "volume_url" (8197) (URL of volume root) 0x298-0x29c (4)
0x290|                                    74 01 00 00|            t...|      offset_to_record: 372 0x29c-0x2a0 (4)
0x2a0|00 00 00 00                                    |....            |      unused: 0 0x2a0-0x2a4 (4)
     |                                               |                |    [6]{}: entry 0x1b4-0x2b0 (252)
     |                                               |                |      record{}: 0x1b4-0x1cc (24)
0x1b0|            0c 00 00 00                        |    ....        |        length: 12 0x1b4-0x1b8 (4)
0x1b0|                        01 01 00 00            |        ....    |        type: "string" (257) (UTF-8 String) 0x1b8-0x1bc (4)
0x1b0|                                    4d 61 63 69|            Maci|        data: "Macintosh HD" 0x1bc-0x1c8 (12)
0x1c0|6e 74 6f 73 68 20 48 44                        |ntosh HD        |
0x1c0|                        08 00 00 00            |        ....    |        alignment_bytes: raw bits 0x1c8-0x1cc (4)
0x2a0|            10 20 00 00                        |    . ..        |      key: "volume_name" (8208) (String) 0x2a4-0x2a8 (4)
0x2a0|                        84 01 00 00            |        ....    |      offset_to_record: 388 0x2a8-0x2ac (4)
0x2a0|                                    00 00 00 00|            ....|      unused: 0 0x2ac-0x2b0 (4)
     |                                               |                |    [7]{}: entry 0x1e8-0x2bc (212)
     |                                               |                |      record{}: 0x1e8-0x218 (48)
0x1e0|                        24 00 00 00            |        $...    |        length: 36 0x1e8-0x1ec (4)
0x1e0|                                    01 01 00 00|            ....|        type: "string" (257) (UTF-8 String) 0x1ec-0x1f0 (4)
0x1f0|38 41 38 32 39 41 30 33 2d 39 42 32 34 2d 34 30|8A829A03-9B24-40|        data: "8A829A03-9B24-4085-8051-18978712E4BE" 0x1f0-0x214 (36)
*    |until 0x213.7 (36)                             |                |
0x210|            18 00 00 00                        |    ....        |        alignment_bytes: raw bits 0x214-0x218 (4)
0x2b0|11 20 00 00                                    |. ..            |      key: "volume_uuid" (8209) (String UUID) 0x2b0-0x2b4 (4)
0x2b0|            b8 01 00 00                        |    ....        |      offset_to_record: 440 0x2b4-0x2b8 (4)
0x2b0|                        00 00 00 00            |        ....    |      unused: 0 0x2b8-0x2bc (4)
     |                                               |                |    [8]{}: entry 0x1c8-0x2c8 (256)
     |                                               |                |      record{}: 0x1c8-0x1d8 (16)
0x1c0|                        08 00 00 00            |        ....    |        length: 8 0x1c8-0x1cc (4)
0x1c0|                                    04 03 00 00|            ....|        type: "long" (772) ((signed 64-bit) 8-byte number) 0x1cc-0x1d0 (4)
0x1d0|00 a0 20 68 74 00 00 00                        |.. ht...        |        data: 499963174912 0x1d0-0x1d8 (8)
0x2b0|                                    12 20 00 00|            . ..|      key: "volume_size" (8210) (8-byte integer) 0x2bc-0x2c0 (4)
0x2c0|98 01 00 00                                    |....            |      offset_to_record: 408 0x2c0-0x2c4 (4)
0x2c0|            00 00 00 00                        |    ....        |      unused: 0 0x2c4-0x2c8 (4)
     |                                               |                |    [9]{}: entry 0x1d8-0x2d4 (252)
     |                                               |                |      record{}: 0x1d8-0x1e8 (16)
0x1d0|                        08 00 00 00            |        ....    |        length: 8 0x1d8-0x1dc (4)
0x1d0|                                    00 04 00 00|            ....|        type: "date" (1024) (Big-endian IEEE double precision seconds since 2001-01-01 00:00:00 UTC) 0x1dc-0x1e0 (4)
0x1e0|41 c1 de 44 80 00 00 00                        |A..D....        |        data: 5.995584e+08 (2020-01-01T08:00:00Z) 0x1e0-0x1e8 (8)
0x2c0|                        13 20 00 00            |        . ..    |      key: "volume_creation_date" (8211) (Date) 0x2c8-0x2cc (4)
0x2c0|                                    a8 01 00 00|            ....|      offset_to_record: 424 0x2cc-0x2d0 (4)
0x2d0|00 00 00 00                                    |....            |      unused: 0 0x2d0-0x2d4 (4)
     |                                               |                |    [10]{}: entry 0x214-0x2e0 (204)
     |                                               |                |      record{}: 0x214-0x234 (32)
0x210|            18 00 00 00                        |    ....        |        length: 24 (valid) 0x214-0x218 (4)
0x210|                        01 02 00 00            |        ....    |        raw_type: "data" (513) (valid) 0x218-0x21c (4)
     |                                               |                |        type: "flag_data"
     |                                               |                |        property_flags{}: 0x21c-0x224 (8)
0x210|                                    81         |            .   |          is_internal: true 0x21c-0x21c.1 (0.1)
0x210|                                    81         |            .   |          is_removable: false 0x21c.1-0x21c.2 (0.1)
0x210|                                    81         |            .   |          is_ejectable: false 0x21c.2-0x21c.3 (0.1)
0x210|                                    81         |            .   |          is_quarantined: false 0x21c.3-0x21c.4 (0.1)
0x210|                                    81         |            .   |          is_read_only: false 0x21c.4-0x21c.5 (0.1)
0x210|                                    81         |            .   |          dont_browse: false 0x21c.5-0x21c.6 (0.1)
0x210|                                    81         |            .   |          is_automount: false 0x21c.6-0x21c.7 (0.1)
0x210|                                    81         |            .   |          is_local: true 0x21c.7-0x21d (0.1)
0x210|                                       00      |             .  |          is_dvd: false 0x21d-0x21d.1 (0.1)
0x210|                                       00      |             .  |          is_cd: false 0x21d.1-0x21d.2 (0.1)
0x210|                                       00      |             .  |          is_idisk: false 0x21d.2-0x21d.3 (0.1)
0x210|                                       00      |             .  |          is_ipod: false 0x21d.3-0x21d.4 (0.1)
0x210|                                       00      |             .  |          is_local_idisk_mirror: false 0x21d.4-0x21d.5 (0.1)
0x210|                                       00      |             .  |          is_file_vault: false 0x21d.5-0x21d.6 (0.1)
0x210|                                       00      |             .  |          is_disk_image: false 0x21d.6-0x21d.7 (0.1)
0x210|                                       00      |             .  |          is_external: false 0x21d.7-0x21e (0.1)
0x210|                                          00   |              . |          reserved_0: raw bits 0x21e-0x21e.7 (0.7)
0x210|                                          00   |              . |          is_device_file_system: false 0x21e.7-0x21f (0.1)
0x210|                                             00|               .|          reserved_1: raw bits 0x21f-0x220 (1)
0x220|01                                             |.               |          supports_read_dir_attr: false 0x220-0x220.1 (0.1)
0x220|01                                             |.               |          supports_copy_file: false 0x220.1-0x220.2 (0.1)
0x220|01                                             |.               |          supports_deny_modes: false 0x220.2-0x220.3 (0.1)
0x220|01                                             |.               |          supports_symbolic_links: false 0x220.3-0x220.4 (0.1)
0x220|01                                             |.               |          reserved_2: false 0x220.4-0x220.5 (0.1)
0x220|01                                             |.               |          supports_exchange: false 0x220.5-0x220.6 (0.1)
0x220|01                                             |.               |          supports_search_fs: false 0x220.6-0x220.7 (0.1)
0x220|01                                             |.               |          supports_persistent_ids: true 0x220.7-0x221 (0.1)
0x220|   00                                          | .              |          supports_extended_security: false 0x221-0x221.1 (0.1)
0x220|   00                                          | .              |          has_no_root_directory_times: false 0x221.1-0x221.2 (0.1)
0x220|   00                                          | .              |          supports_flock: false 0x221.2-0x221.3 (0.1)
0x220|   00                                          | .              |          supports_case_preserved_names: false 0x221.3-0x221.4 (0.1)
0x220|   00                                          | .              |          supports_case_sensitive_names: false 0x221.4-0x221.5 (0.1)
0x220|   00                                          | .              |          supports_fast_stat_fs: false 0x221.5-0x221.6 (0.1)
0x220|   00                                          | .              |          supports_rename: false 0x221.6-0x221.7 (0.1)
0x220|   00                                          | .              |          supports_journaling: false 0x221.7-0x222 (0.1)
0x220|      00                                       |  .             |          supports_zero_runs: false 0x222-0x222.1 (0.1)
0x220|      00                                       |  .             |          supports_sparse_files: false 0x222.1-0x222.2 (0.1)
0x220|      00                                       |  .             |          is_journaling: false 0x222.2-0x222.3 (0.1)
0x220|      00                                       |  .             |          reserved_3: false 0x222.3-0x222.4 (0.1)
0x220|      00                                       |  .             |          supports_path_from_id: false 0x222.4-0x222.5 (0.1)
0x220|      00                                       |  .             |          supports_mandatory_byte_range_locks: false 0x222.5-0x222.6 (0.1)
0x220|      00                                       |  .             |          supports_hard_links: false 0x222.6-0x222.7 (0.1)
0x220|      00                                       |  .             |          supports_2_tb_file_size: false 0x222.7-0x223 (0.1)
0x220|         00                                    |   .            |          reserved_4: raw bits 0x223-0x223.3 (0.3)
0x220|         00                                    |   .            |          has64_bit_object_ids: false 0x223.3-0x223.4 (0.1)
0x220|         00                                    |   .            |          supports_decmp_fs_compression: false 0x223.4-0x223.5 (0.1)
0x220|         00                                    |   .            |          supports_hidden_files: false 0x223.5-0x223.6 (0.1)
0x220|         00                                    |   .            |          supports_remote_events: false 0x223.6-0x223.7 (0.1)
0x220|         00                                    |   .            |          supports_volume_sizes: false 0x223.7-0x224 (0.1)
     |                                               |                |        enabled_property_flags{}: 0x224-0x22c (8)
0x220|            ef                                 |    .           |          is_internal: true 0x224-0x224.1 (0.1)
0x220|            ef                                 |    .           |          is_removable: true 0x224.1-0x224.2 (0.1)
0x220|            ef                                 |    .           |          is_ejectable: true 0x224.2-0x224.3 (0.1)
0x220|            ef                                 |    .           |          is_quarantined: false 0x224.3-0x224.4 (0.1)
0x220|            ef                                 |    .           |          is_read_only: true 0x224.4-0x224.5 (0.1)
0x220|            ef                                 |    .           |          dont_browse: true 0x224.5-0x224.6 (0.1)
0x220|            ef                                 |    .           |          is_automount: true 0x224.6-0x224.7 (0.1)
0x220|            ef                                 |    .           |          is_local: true 0x224.7-0x225 (0.1)
0x220|               13                              |     .          |          is_dvd: false 0x225-0x225.1 (0.1)
0x220|               13                              |     .          |          is_cd: false 0x225.1-0x225.2 (0.1)
0x220|               13                              |     .          |          is_idisk: false 0x225.2-0x225.3 (0.1)
0x220|               13                              |     .          |          is_ipod: true 0x225.3-0x225.4 (0.1)
0x220|               13                              |     .          |          is_local_idisk_mirror: false 0x225.4-0x225.5 (0.1)
0x220|               13                              |     .          |          is_file_vault: false 0x225.5-0x225.6 (0.1)
0x220|               13                              |     .          |          is_disk_image: true 0x225.6-0x225.7 (0.1)
0x220|               13                              |     .          |          is_external: true 0x225.7-0x226 (0.1)
0x220|                  00                           |      .         |          reserved_0: raw bits 0x226-0x226.7 (0.7)
0x220|                  00                           |      .         |          is_device_file_system: false 0x226.7-0x227 (0.1)
0x220|                     00                        |       .        |          reserved_1: raw bits 0x227-0x228 (1)
0x220|                        01                     |        .       |          supports_read_dir_attr: false 0x228-0x228.1 (0.1)
0x220|                        01                     |        .       |          supports_copy_file: false 0x228.1-0x228.2 (0.1)
0x220|                        01                     |        .       |          supports_deny_modes: false 0x228.2-0x228.3 (0.1)
0x220|                        01                     |        .       |          supports_symbolic_links: false 0x228.3-0x228.4 (0.1)
0x220|                        01                     |        .       |          reserved_2: false 0x228.4-0x228.5 (0.1)
0x220|                        01                     |        .       |          supports_exchange: false 0x228.5-0x228.6 (0.1)
0x220|                        01                     |        .       |          supports_search_fs: false 0x228.6-0x228.7 (0.1)
0x220|                        01                     |        .       |          supports_persistent_ids: true 0x228.7-0x229 (0.1)
0x220|                           00                  |         .      |          supports_extended_security: false 0x229-0x229.1 (0.1)
0x220|                           00                  |         .      |          has_no_root_directory_times: false 0x229.1-0x229.2 (0.1)
0x220|                           00                  |         .      |          supports_flock: false 0x229.2-0x229.3 (0.1)
0x220|                           00                  |         .      |          supports_case_preserved_names: false 0x229.3-0x229.4 (0.1)
0x220|                           00                  |         .      |          supports_case_sensitive_names: false 0x229.4-0x229.5 (0.1)
0x220|                           00                  |         .      |          supports_fast_stat_fs: false 0x229.5-0x229.6 (0.1)
0x220|                           00                  |         .      |          supports_rename: false 0x229.6-0x229.7 (0.1)
0x220|                           00                  |         .      |          supports_journaling: false 0x229.7-0x22a (0.1)
0x220|                              00               |          .     |          supports_zero_runs: false 0x22a-0x22a.1 (0.1)
0x220|                              00               |          .     |          supports_sparse_files: false 0x22a.1-0x22a.2 (0.1)
0x220|                              00               |          .     |          is_journaling: false 0x22a.2-0x22a.3 (0.1)
0x220|                              00               |          .     |          reserved_3: false 0x22a.3-0x22a.4 (0.1)
0x220|                              00               |          .     |          supports_path_from_id: false 0x22a.4-0x22a.5 (0.1)
0x220|                              00               |          .     |          supports_mandatory_byte_range_locks: false 0x22a.5-0x22a.6 (0.1)
0x220|                              00               |          .     |          supports_hard_links: false 0x22a.6-0x22a.7 (0.1)
0x220|                              00               |          .     |          supports_2_tb_file_size: false 0x22a.7-0x22b (0.1)
0x220|                                 00            |           .    |          reserved_4: raw bits 0x22b-0x22b.3 (0.3)
0x220|                                 00            |           .    |          has64_bit_object_ids: false 0x22b.3-0x22b.4 (0.1)
0x220|                                 00            |           .    |          supports_decmp_fs_compression: false 0x22b.4-0x22b.5 (0.1)
0x220|                                 00            |           .    |          supports_hidden_files: false 0x22b.5-0x22b.6 (0.1)
0x220|                                 00            |           .    |          supports_remote_events: false 0x22b.6-0x22b.7 (0.1)
0x220|                                 00            |           .    |          supports_volume_sizes: false 0x22b.7-0x22c (0.1)
0x220|                                    00 00 00 00|            ....|        reserved: raw bits 0x22c-0x234 (8)
0x230|00 00 00 00                                    |....            |
0x2d0|            20 20 00 00                        |      ..        |      key: "volume_flags" (8224) (flag bitfield) 0x2d4-0x2d8 (4)
0x2d0|                        e4 01 00 00            |        ....    |      offset_to_record: 484 0x2d8-0x2dc (4)
0x2d0|                                    00 00 00 00|            ....|      unused: 0 0x2dc-0x2e0 (4)
     |                                               |                |    [11]{}: entry 0x240-0x2ec (172)
     |                                               |                |      record{}: 0x240-0x248 (8)
0x240|00 00 00 00                                    |....            |        length: 0 0x240-0x244 (4)
0x240|            01 05 00 00                        |    ....        |        type: "boolean_true" (1281) (True) 0x244-0x248 (4)
0x2e0|30 20 00 00                                    |0 ..            |      key: "volume_is_root" (8240) (True if the volume was the filesystem root) 0x2e0-0x2e4 (4)
0x2e0|            10 02 00 00                        |    ....        |      offset_to_record: 528 0x2e4-0x2e8 (4)
0x2e0|                        00 00 00 00            |        ....    |      unused: 0 0x2e8-0x2ec (4)
     |                                               |                |    [12]{}: entry 0x188-0x2f8 (368)
     |                                               |                |      record{}: 0x188-0x198 (16)
0x180|                        08 00 00 00            |        ....    |        length: 8 0x188-0x18c (4)
0x180|                                    04 03 00 00|            ....|        type: "long" (772) ((signed 64-bit) 8-byte number) 0x18c-0x190 (4)
0x190|04 00 00 00 00 00 00 00                        |........        |        data: 4 0x190-0x198 (8)
0x2e0|                                    01 c0 00 00|            ....|      key: "containing_folder_index" (49153) (Integer index of containing folder in target path array) 0x2ec-0x2f0 (4)
0x2f0|58 01 00 00                                    |X...            |      offset_to_record: 344 0x2f0-0x2f4 (4)
0x2f0|            00 00 00 00                        |    ....        |      unused: 0 0x2f4-0x2f8 (4)
     |                                               |                |    [13]{}: entry 0x50-0x304 (692)
     |                                               |                |      record{}: 0x50-0x68 (24)
0x050|0d 00 00 00                                    |....            |        length: 13 0x50-0x54 (4)
0x050|            01 01 00 00                        |    ....        |        type: "string" (257) (UTF-8 String) 0x54-0x58 (4)
0x050|                        64 61 76 69 64 6d 63 64|        davidmcd|        data: "davidmcdonald" 0x58-0x65 (13)
0x060|6f 6e 61 6c 64                                 |onald           |
0x060|               00 00 00                        |     ...        |        alignment_bytes: raw bits 0x65-0x68 (3)
0x2f0|                        11 c0 00 00            |        ....    |      key: "creator_username" (49169) (Name of user that created bookmark) 0x2f8-0x2fc (4)
0x2f0|                                    20 00 00 00|             ...|      offset_to_record: 32 0x2fc-0x300 (4)
0x300|00 00 00 00                                    |....            |      unused: 0 0x300-0x304 (4)
     |                                               |                |    [14]{}: entry 0x198-0x310 (376)
     |                                               |                |      record{}: 0x198-0x1a4 (12)
0x190|                        04 00 00 00            |        ....    |        length: 4 0x198-0x19c (4)
0x190|                                    03 03 00 00|            ....|        type: "int" (771) ((signed 32-bit) 4-byte number) 0x19c-0x1a0 (4)
0x1a0|f5 01 00 00                                    |....            |        data: 501 0x1a0-0x1a4 (4)
0x300|            12 c0 00 00                        |    ....        |      key: "creator_uid" (49170) (UID of user that created bookmark) 0x304-0x308 (4)
0x300|                        68 01 00 00            |        h...    |      offset_to_record: 360 0x308-0x30c (4)
0x300|                                    00 00 00 00|            ....|      unused: 0 0x30c-0x310 (4)
     |                                               |                |    [15]{}: entry 0x34-0x31c (744)
     |                                               |                |      record{}: 0x34-0x40 (12)
0x030|            04 00 00 00                        |    ....        |        length: 4 0x34-0x38 (4)
0x030|                        03 03 00 00            |        ....    |        type: "int" (771) ((signed 32-bit) 4-byte number) 0x38-0x3c (4)
0x030|                                    00 00 00 20|            ... |        data: 536870912 0x3c-0x40 (4)
0x310|10 d0 00 00                                    |....            |      key: "creation_options" (53264) (Integer containing flags passed to CFURLCreateBookmarkData) 0x310-0x314 (4)
0x310|            04 00 00 00                        |    ....        |      offset_to_record: 4 0x314-0x318 (4)
0x310|                        00 00 00 00            |        ....    |      unused: 0 0x318-0x31c (4)
     |                                               |                |    [16]{}: entry 0xa8-0x328 (640)
     |                                               |                |      record{}: 0xa8-0xb8 (16)
0x0a0|                        05 00 00 00            |        ....    |        length: 5 0xa8-0xac (4)
0x0a0|                                    01 01 00 00|            ....|        type: "string" (257) (UTF-8 String) 0xac-0xb0 (4)
0x0b0|42 6c 69 6e 6b                                 |Blink           |        data: "Blink" 0xb0-0xb5 (5)
0x0b0|               00 00 00                        |     ...        |        alignment_bytes: raw bits 0xb5-0xb8 (3)
0x310|                                    17 f0 00 00|            ....|      key: "display_name" (61463) (String) 0x31c-0x320 (4)
0x320|78 00 00 00                                    |x...            |      offset_to_record: 120 0x320-0x324 (4)
0x320|            00 00 00 00                        |    ....        |      unused: 0 0x324-0x328 (4)
     |                                               |                |    [17]{}: entry 0x240-0x334 (244)
     |                                               |                |      record{}: 0x240-0x248 (8)
0x240|00 00 00 00                                    |....            |        length: 0 0x240-0x244 (4)
0x240|            01 05 00 00                        |    ....        |        type: "boolean_true" (1281) (True) 0x244-0x248 (4)
0x320|                        0f 00 0f 00            |        ....    |      key: 983055 0x328-0x32c (4)
0x320|                                    10 02 00 00|            ....|      offset_to_record: 528 0x32c-0x330 (4)
0x330|00 00 00 00|                                   |....|           |      unused: 0 0x330-0x334 (4)
     |                                               |                |  toc_headers[0:1]: 0x248-0x25c (20)
     |                                               |                |    [0]{}: toc_header 0x248-0x25c (20)
0x240|                        e4 00 00 00            |        ....    |      toc_size: 228 0x248-0x24c (4)
0x240|                                    fe ff ff ff|            ....|      magic: 4294967294 (valid) 0x24c-0x250 (4)
0x250|01 00 00 00                                    |....            |      identifier: 1 0x250-0x254 (4)
0x250|            00 00 00 00                        |    ....        |      next_toc_offset: 0 0x254-0x258 (4)
0x250|                        12 00 00 00            |        ....    |      num_entries_in_toc: 18 0x258-0x25c (4)
$ fq torepr sample3.book
{
  "983055": true,
  "containing_folder_index": 4,
  "creation_options": 536870912,
  "creator_uid": 501,
  "creator_username": "davidmcdonald",
  "display_name": "Blink",
  "target_cnid_path": [
    23307,
    564764,
    909650,
    925616,
    36514705,
    36514706
  ],
  "target_creation_date": 673397442.9093685,
  "target_flags": {
    "is_application": false,
    "is_directory": true,
    "is_package": false,
    "is_regular_file": false,
    "is_symbolic_link": false,
    "is_volume": false
  },
  "target_path": [
    "Users",
    "davidmcdonald",
    "Documents",
    "Arduino",
    "generated_examples",
    "Blink"
  ],
  "volume_creation_date": 599558400,
  "volume_flags": {
    "dont_browse": false,
    "is_automount": false,
    "is_disk_image": false,
    "is_ejectable": false,
    "is_external": false,
    "is_internal": true,
    "is_ipod": false,
    "is_local": true,
    "is_read_only": false,
    "is_removable": false,
    "supports_persistent_ids": true
  },
  "volume_is_root": true,
  "volume_name": "Macintosh HD",
  "volume_path": "/",
  "volume_size": 499963174912,
  "volume_url": "file:///",
  "volume_uuid": "8A829A03-9B24-4085-8051-18978712E4BE"
}
