$ fq dv sample1.book
     |00 01 02 03 04 05 06 07 08 09 0a 0b 0c 0d 0e 0f|0123456789abcdef|.{}: sample1.book (apple_bookmark) 0x0-0x22f.7 (560)
     |                                               |                |  header{}: 0x0-0x2f.7 (48)
0x000|62 6f 6f 6b                                    |book            |    magic: "book" (valid) 0x0-0x3.7 (4)
0x000|            30 02 00 00                        |    0...        |    total_size: 560 0x4-0x7.7 (4)
0x000|                        00 00 04 10            |        ....    |    unknown: 268697600 0x8-0xb.7 (4)
0x000|                                    30 00 00 00|            0...|    header_size: 48 (valid) 0xc-0xf.7 (4)
0x010|00 00 00 00 00 00 00 00 00 00 00 00 00 00 00 00|................|    reserved: raw bits 0x10-0x2f.7 (32)
0x020|00 00 00 00 00 00 00 00 00 00 00 00 00 00 00 00|................|
0x030|50 01 00 00                                    |P...            |  first_toc_offset: 336 0x30-0x33.7 (4)
     |                                               |                |  bookmark_entries[0:13]: 0x34-0x22f.7 (508)
     |                                               |                |    [0]{}: entry 0x40-0x19f.7 (352)
     |                                               |                |      record{}: 0x40-0x7b.7 (60)
     |                                               |                |        data[0:2]: 0x40-0x7b.7 (60)
     |                                               |                |          [0]{}: element 0x40-0x77.7 (56)
     |                                               |                |            record{}: 0x40-0x57.7 (24)
0x040|0c 00 00 00                                    |....            |              length: 12 0x40-0x43.7 (4)
0x040|            01 01 00 00                        |    ....        |              type: "string" (257) (UTF-8 String) 0x44-0x47.7 (4)
0x040|                        41 70 70 6c 69 63 61 74|        Applicat|              data: "Applications" 0x48-0x53.7 (12)
0x050|69 6f 6e 73                                    |ions            |
0x050|            0d 00 00 00                        |    ....        |              alignment_bytes: raw bits 0x54-0x57.7 (4)
0x070|            10 00 00 00                        |    ....        |            offset: 16 0x74-0x77.7 (4)
     |                                               |                |          [1]{}: element 0x54-0x7b.7 (40)
     |                                               |                |            record{}: 0x54-0x6b.7 (24)
0x050|            0d 00 00 00                        |    ....        |              length: 13 0x54-0x57.7 (4)
0x050|                        01 01 00 00            |        ....    |              type: "string" (257) (UTF-8 String) 0x58-0x5b.7 (4)
0x050|                                    42 69 74 77|            Bitw|              data: "Bitwarden.app" 0x5c-0x68.7 (13)
0x060|61 72 64 65 6e 2e 61 70 70                     |arden.app       |
0x060|                           00 00 00            |         ...    |              alignment_bytes: raw bits 0x69-0x6b.7 (3)
0x070|                        24 00 00 00            |        $...    |            offset: 36 0x78-0x7b.7 (4)
0x060|                                    08 00 00 00|            ....|        length: 8 0x6c-0x6f.7 (4)
0x070|01 06 00 00                                    |....            |        type: "array" (1537) (Array of 4-byte offsets to data items) 0x70-0x73.7 (4)
0x190|            04 10 00 00                        |    ....        |      key: "target_path" (4100) (Array of individual path components) 0x194-0x197.7 (4)
0x190|                        3c 00 00 00            |        <...    |      offset_to_record: 60 0x198-0x19b.7 (4)
0x190|                                    00 00 00 00|            ....|      unused: 0 0x19c-0x19f.7 (4)
     |                                               |                |    [1]{}: entry 0x7c-0x1ab.7 (304)
     |                                               |                |      record{}: 0x7c-0xab.7 (48)
     |                                               |                |        data[0:2]: 0x7c-0xab.7 (48)
     |                                               |                |          [0]{}: element 0x7c-0xa7.7 (44)
     |                                               |                |            record{}: 0x7c-0x8b.7 (16)
0x070|                                    08 00 00 00|            ....|              length: 8 0x7c-0x7f.7 (4)
0x080|04 03 00 00                                    |....            |              type: "long" (772) ((signed 64-bit) 8-byte number) 0x80-0x83.7 (4)
0x080|            67 f5 50 03 00 00 00 00            |    g.P.....    |              data: 55637351 0x84-0x8b.7 (8)
0x0a0|            4c 00 00 00                        |    L...        |            offset: 76 0xa4-0xa7.7 (4)
     |                                               |                |          [1]{}: element 0x8c-0xab.7 (32)
     |                                               |                |            record{}: 0x8c-0x9b.7 (16)
0x080|                                    08 00 00 00|            ....|              length: 8 0x8c-0x8f.7 (4)
0x090|04 03 00 00                                    |....            |              type: "long" (772) ((signed 64-bit) 8-byte number) 0x90-0x93.7 (4)
0x090|            fb e9 3d 03 00 00 00 00            |    ..=.....    |              data: 54389243 0x94-0x9b.7 (8)
0x0a0|                        5c 00 00 00            |        \...    |            offset: 92 0xa8-0xab.7 (4)
0x090|                                    08 00 00 00|            ....|        length: 8 0x9c-0x9f.7 (4)
0x0a0|01 06 00 00                                    |....            |        type: "array" (1537) (Array of 4-byte offsets to data items) 0xa0-0xa3.7 (4)
0x1a0|05 10 00 00                                    |....            |      key: "target_cnid_path" (4101) (Array of CNIDs) 0x1a0-0x1a3.7 (4)
0x1a0|            6c 00 00 00                        |    l...        |      offset_to_record: 108 0x1a4-0x1a7.7 (4)
0x1a0|                        00 00 00 00            |        ....    |      unused: 0 0x1a8-0x1ab.7 (4)
     |                                               |                |    [2]{}: entry 0xbc-0x1b7.7 (252)
     |                                               |                |      record{}: 0xbc-0xdb.7 (32)
0x0b0|                                    18 00 00 00|            ....|        length: 24 (valid) 0xbc-0xbf.7 (4)
0x0c0|01 02 00 00                                    |....            |        raw_type: "data" (513) (valid) 0xc0-0xc3.7 (4)
     |                                               |                |        type: "flag_data" 0xc4-NA (0)
     |                                               |                |        property_flags{}: 0xc4-0xcb.7 (8)
0x0c0|            02                                 |    .           |          is_hidden: false 0xc4-0xc4 (0.1)
0x0c0|            02                                 |    .           |          is_user_immutable: false 0xc4.1-0xc4.1 (0.1)
0x0c0|            02                                 |    .           |          is_system_immutable: false 0xc4.2-0xc4.2 (0.1)
0x0c0|            02                                 |    .           |          is_package: false 0xc4.3-0xc4.3 (0.1)
0x0c0|            02                                 |    .           |          is_volume: false 0xc4.4-0xc4.4 (0.1)
0x0c0|            02                                 |    .           |          is_symbolic_link: false 0xc4.5-0xc4.5 (0.1)
0x0c0|            02                                 |    .           |          is_directory: true 0xc4.6-0xc4.6 (0.1)
0x0c0|            02                                 |    .           |          is_regular_file: false 0xc4.7-0xc4.7 (0.1)
0x0c0|               00                              |     .          |          is_alias_file: false 0xc5-0xc5 (0.1)
0x0c0|               00                              |     .          |          is_executable: false 0xc5.1-0xc5.1 (0.1)
0x0c0|               00                              |     .          |          is_writeable: false 0xc5.2-0xc5.2 (0.1)
0x0c0|               00                              |     .          |          is_readable: false 0xc5.3-0xc5.3 (0.1)
0x0c0|               00                              |     .          |          can_set_hidden_extension: false 0xc5.4-0xc5.4 (0.1)
0x0c0|               00                              |     .          |          is_compressed: false 0xc5.5-0xc5.5 (0.1)
0x0c0|               00                              |     .          |          is_application: false 0xc5.6-0xc5.6 (0.1)
0x0c0|               00                              |     .          |          has_hidden_extension: false 0xc5.7-0xc5.7 (0.1)
0x0c0|                  00                           |      .         |          reserved_bits_0: raw bits 0xc6-0xc6.6 (0.7)
0x0c0|                  00                           |      .         |          is_mount_trigger: false 0xc6.7-0xc6.7 (0.1)
0x0c0|                     00 00 00 00 00            |       .....    |          reserved: raw bits 0xc7-0xcb.7 (5)
     |                                               |                |        enabled_property_flags{}: 0xcc-0xd3.7 (8)
0x0c0|                                    0f         |            .   |          is_hidden: false 0xcc-0xcc (0.1)
0x0c0|                                    0f         |            .   |          is_user_immutable: false 0xcc.1-0xcc.1 (0.1)
0x0c0|                                    0f         |            .   |          is_system_immutable: false 0xcc.2-0xcc.2 (0.1)
0x0c0|                                    0f         |            .   |          is_package: false 0xcc.3-0xcc.3 (0.1)
0x0c0|                                    0f         |            .   |          is_volume: true 0xcc.4-0xcc.4 (0.1)
0x0c0|                                    0f         |            .   |          is_symbolic_link: true 0xcc.5-0xcc.5 (0.1)
0x0c0|                                    0f         |            .   |          is_directory: true 0xcc.6-0xcc.6 (0.1)
0x0c0|                                    0f         |            .   |          is_regular_file: true 0xcc.7-0xcc.7 (0.1)
0x0c0|                                       00      |             .  |          is_alias_file: false 0xcd-0xcd (0.1)
0x0c0|                                       00      |             .  |          is_executable: false 0xcd.1-0xcd.1 (0.1)
0x0c0|                                       00      |             .  |          is_writeable: false 0xcd.2-0xcd.2 (0.1)
0x0c0|                                       00      |             .  |          is_readable: false 0xcd.3-0xcd.3 (0.1)
0x0c0|                                       00      |             .  |          can_set_hidden_extension: false 0xcd.4-0xcd.4 (0.1)
0x0c0|                                       00      |             .  |          is_compressed: false 0xcd.5-0xcd.5 (0.1)
0x0c0|                                       00      |             .  |          is_application: false 0xcd.6-0xcd.6 (0.1)
0x0c0|                                       00      |             .  |          has_hidden_extension: false 0xcd.7-0xcd.7 (0.1)
0x0c0|                                          00   |              . |          reserved_bits_0: raw bits 0xce-0xce.6 (0.7)
0x0c0|                                          00   |              . |          is_mount_trigger: false 0xce.7-0xce.7 (0.1)
0x0c0|                                             00|               .|          reserved: raw bits 0xcf-0xd3.7 (5)
0x0d0|00 00 00 00                                    |....            |
0x0d0|            00 00 00 00 00 00 00 00            |    ........    |        reserved: raw bits 0xd4-0xdb.7 (8)
0x1a0|                                    10 10 00 00|            ....|      key: "target_flags" (4112) (flag bitfield) 0x1ac-0x1af.7 (4)
0x1b0|8c 00 00 00                                    |....            |      offset_to_record: 140 0x1b0-0x1b3.7 (4)
0x1b0|            00 00 00 00                        |    ....        |      unused: 0 0x1b4-0x1b7.7 (4)
     |                                               |                |    [3]{}: entry 0xac-0x1c3.7 (280)
     |                                               |                |      record{}: 0xac-0xbb.7 (16)
0x0a0|                                    08 00 00 00|            ....|        length: 8 0xac-0xaf.7 (4)
0x0b0|00 04 00 00                                    |....            |        type: "date" (1024) (Big-endian IEEE double precision seconds since 2001-01-01 00:00:00 UTC) 0xb0-0xb3.7 (4)
0x0b0|            41 c4 81 02 d0 00 00 00            |    A.......    |        data: 6.87998368e+08 (2022-10-20T22:39:28Z) 0xb4-0xbb.7 (8)
0x1b0|                        40 10 00 00            |        @...    |      key: "target_creation_date" (4160) (Date) 0x1b8-0x1bb.7 (4)
0x1b0|                                    7c 00 00 00|            |...|      offset_to_record: 124 0x1bc-0x1bf.7 (4)
0x1c0|00 00 00 00                                    |....            |      unused: 0 0x1c0-0x1c3.7 (4)
     |                                               |                |    [4]{}: entry 0x16c-0x1cf.7 (100)
     |                                               |                |      record{}: 0x16c-0x177.7 (12)
0x160|                                    01 00 00 00|            ....|        length: 1 0x16c-0x16f.7 (4)
0x170|01 01 00 00                                    |....            |        type: "string" (257) (UTF-8 String) 0x170-0x173.7 (4)
0x170|            2f                                 |    /           |        data: "/" 0x174-0x174.7 (1)
0x170|               00 00 00                        |     ...        |        alignment_bytes: raw bits 0x175-0x177.7 (3)
0x1c0|            02 20 00 00                        |    . ..        |      key: "volume_path" (8194) (Array of individual path components) 0x1c4-0x1c7.7 (4)
0x1c0|                        3c 01 00 00            |        <...    |      offset_to_record: 316 0x1c8-0x1cb.7 (4)
0x1c0|                                    00 00 00 00|            ....|      unused: 0 0x1cc-0x1cf.7 (4)
     |                                               |                |    [5]{}: entry 0xdc-0x1db.7 (256)
     |                                               |                |      record{}: 0xdc-0xeb.7 (16)
0x0d0|                                    08 00 00 00|            ....|        length: 8 0xdc-0xdf.7 (4)
0x0e0|01 09 00 00                                    |....            |        type: "url" (2305) (UTF-8 string) 0xe0-0xe3.7 (4)
0x0e0|            66 69 6c 65 3a 2f 2f 2f            |    file:///    |        data: "file:///" 0xe4-0xeb.7 (8)
0x1d0|05 20 00 00                                    |. ..            |      key: "volume_url" (8197) (URL of volume root) 0x1d0-0x1d3.7 (4)
0x1d0|            ac 00 00 00                        |    ....        |      offset_to_record: 172 0x1d4-0x1d7.7 (4)
0x1d0|                        00 00 00 00            |        ....    |      unused: 0 0x1d8-0x1db.7 (4)
     |                                               |                |    [6]{}: entry 0xec-0x1e7.7 (252)
     |                                               |                |      record{}: 0xec-0x103.7 (24)
0x0e0|                                    0c 00 00 00|            ....|        length: 12 0xec-0xef.7 (4)
0x0f0|01 01 00 00                                    |....            |        type: "string" (257) (UTF-8 String) 0xf0-0xf3.7 (4)
0x0f0|            4d 61 63 69 6e 74 6f 73 68 20 48 44|    Macintosh HD|        data: "Macintosh HD" 0xf4-0xff.7 (12)
0x100|08 00 00 00                                    |....            |        alignment_bytes: raw bits 0x100-0x103.7 (4)
0x1d0|                                    10 20 00 00|            . ..|      key: "volume_name" (8208) (String) 0x1dc-0x1df.7 (4)
0x1e0|bc 00 00 00                                    |....            |      offset_to_record: 188 0x1e0-0x1e3.7 (4)
0x1e0|            00 00 00 00                        |    ....        |      unused: 0 0x1e4-0x1e7.7 (4)
     |                                               |                |    [7]{}: entry 0x120-0x1f3.7 (212)
     |                                               |                |      record{}: 0x120-0x14f.7 (48)
0x120|24 00 00 00                                    |$...            |        length: 36 0x120-0x123.7 (4)
0x120|            01 01 00 00                        |    ....        |        type: "string" (257) (UTF-8 String) 0x124-0x127.7 (4)
0x120|                        41 41 41 41 41 41 41 41|        AAAAAAAA|        data: "AAAAAAAA-AAAA-AAAA-AAAA-AAAAAAAAAAAA" 0x128-0x14b.7 (36)
0x130|2d 41 41 41 41 2d 41 41 41 41 2d 41 41 41 41 2d|-AAAA-AAAA-AAAA-|
0x140|41 41 41 41 41 41 41 41 41 41 41 41            |AAAAAAAAAAAA    |
0x140|                                    18 00 00 00|            ....|        alignment_bytes: raw bits 0x14c-0x14f.7 (4)
0x1e0|                        11 20 00 00            |        . ..    |      key: "volume_uuid" (8209) (String UUID) 0x1e8-0x1eb.7 (4)
0x1e0|                                    f0 00 00 00|            ....|      offset_to_record: 240 0x1ec-0x1ef.7 (4)
0x1f0|00 00 00 00                                    |....            |      unused: 0 0x1f0-0x1f3.7 (4)
     |                                               |                |    [8]{}: entry 0x100-0x1ff.7 (256)
     |                                               |                |      record{}: 0x100-0x10f.7 (16)
0x100|08 00 00 00                                    |....            |        length: 8 0x100-0x103.7 (4)
0x100|            04 03 00 00                        |    ....        |        type: "long" (772) ((signed 64-bit) 8-byte number) 0x104-0x107.7 (4)
0x100|                        00 a0 20 68 74 00 00 00|        .. ht...|        data: 499963174912 0x108-0x10f.7 (8)
0x1f0|            12 20 00 00                        |    . ..        |      key: "volume_size" (8210) (8-byte integer) 0x1f4-0x1f7.7 (4)
0x1f0|                        d0 00 00 00            |        ....    |      offset_to_record: 208 0x1f8-0x1fb.7 (4)
0x1f0|                                    00 00 00 00|            ....|      unused: 0 0x1fc-0x1ff.7 (4)
     |                                               |                |    [9]{}: entry 0x110-0x20b.7 (252)
     |                                               |                |      record{}: 0x110-0x11f.7 (16)
0x110|08 00 00 00                                    |....            |        length: 8 0x110-0x113.7 (4)
0x110|            00 04 00 00                        |    ....        |        type: "date" (1024) (Big-endian IEEE double precision seconds since 2001-01-01 00:00:00 UTC) 0x114-0x117.7 (4)
0x110|                        41 c1 de 44 80 00 00 00|        A..D....|        data: 5.995584e+08 (2020-01-01T08:00:00Z) 0x118-0x11f.7 (8)
0x200|13 20 00 00                                    |. ..            |      key: "volume_creation_date" (8211) (Date) 0x200-0x203.7 (4)
0x200|            e0 00 00 00                        |    ....        |      offset_to_record: 224 0x204-0x207.7 (4)
0x200|                        00 00 00 00            |        ....    |      unused: 0 0x208-0x20b.7 (4)
     |                                               |                |    [10]{}: entry 0x14c-0x217.7 (204)
     |                                               |                |      record{}: 0x14c-0x16b.7 (32)
0x140|                                    18 00 00 00|            ....|        length: 24 (valid) 0x14c-0x14f.7 (4)
0x150|01 02 00 00                                    |....            |        raw_type: "data" (513) (valid) 0x150-0x153.7 (4)
     |                                               |                |        type: "flag_data" 0x154-NA (0)
     |                                               |                |        property_flags{}: 0x154-0x15b.7 (8)
0x150|            81                                 |    .           |          is_internal: true 0x154-0x154 (0.1)
0x150|            81                                 |    .           |          is_removable: false 0x154.1-0x154.1 (0.1)
0x150|            81                                 |    .           |          is_ejectable: false 0x154.2-0x154.2 (0.1)
0x150|            81                                 |    .           |          is_quarantined: false 0x154.3-0x154.3 (0.1)
0x150|            81                                 |    .           |          is_read_only: false 0x154.4-0x154.4 (0.1)
0x150|            81                                 |    .           |          dont_browse: false 0x154.5-0x154.5 (0.1)
0x150|            81                                 |    .           |          is_automount: false 0x154.6-0x154.6 (0.1)
0x150|            81                                 |    .           |          is_local: true 0x154.7-0x154.7 (0.1)
0x150|               00                              |     .          |          is_dvd: false 0x155-0x155 (0.1)
0x150|               00                              |     .          |          is_cd: false 0x155.1-0x155.1 (0.1)
0x150|               00                              |     .          |          is_idisk: false 0x155.2-0x155.2 (0.1)
0x150|               00                              |     .          |          is_ipod: false 0x155.3-0x155.3 (0.1)
0x150|               00                              |     .          |          is_local_idisk_mirror: false 0x155.4-0x155.4 (0.1)
0x150|               00                              |     .          |          is_file_vault: false 0x155.5-0x155.5 (0.1)
0x150|               00                              |     .          |          is_disk_image: false 0x155.6-0x155.6 (0.1)
0x150|               00                              |     .          |          is_external: false 0x155.7-0x155.7 (0.1)
0x150|                  00                           |      .         |          reserved_0: raw bits 0x156-0x156.6 (0.7)
0x150|                  00                           |      .         |          is_device_file_system: false 0x156.7-0x156.7 (0.1)
0x150|                     00                        |       .        |          reserved_1: raw bits 0x157-0x157.7 (1)
0x150|                        01                     |        .       |          supports_read_dir_attr: false 0x158-0x158 (0.1)
0x150|                        01                     |        .       |          supports_copy_file: false 0x158.1-0x158.1 (0.1)
0x150|                        01                     |        .       |          supports_deny_modes: false 0x158.2-0x158.2 (0.1)
0x150|                        01                     |        .       |          supports_symbolic_links: false 0x158.3-0x158.3 (0.1)
0x150|                        01                     |        .       |          reserved_2: false 0x158.4-0x158.4 (0.1)
0x150|                        01                     |        .       |          supports_exchange: false 0x158.5-0x158.5 (0.1)
0x150|                        01                     |        .       |          supports_search_fs: false 0x158.6-0x158.6 (0.1)
0x150|                        01                     |        .       |          supports_persistent_ids: true 0x158.7-0x158.7 (0.1)
0x150|                           00                  |         .      |          supports_extended_security: false 0x159-0x159 (0.1)
0x150|                           00                  |         .      |          has_no_root_directory_times: false 0x159.1-0x159.1 (0.1)
0x150|                           00                  |         .      |          supports_flock: false 0x159.2-0x159.2 (0.1)
0x150|                           00                  |         .      |          supports_case_preserved_names: false 0x159.3-0x159.3 (0.1)
0x150|                           00                  |         .      |          supports_case_sensitive_names: false 0x159.4-0x159.4 (0.1)
0x150|                           00                  |         .      |          supports_fast_stat_fs: false 0x159.5-0x159.5 (0.1)
0x150|                           00                  |         .      |          supports_rename: false 0x159.6-0x159.6 (0.1)
0x150|                           00                  |         .      |          supports_journaling: false 0x159.7-0x159.7 (0.1)
0x150|                              00               |          .     |          supports_zero_runs: false 0x15a-0x15a (0.1)
0x150|                              00               |          .     |          supports_sparse_files: false 0x15a.1-0x15a.1 (0.1)
0x150|                              00               |          .     |          is_journaling: false 0x15a.2-0x15a.2 (0.1)
0x150|                              00               |          .     |          reserved_3: false 0x15a.3-0x15a.3 (0.1)
0x150|                              00               |          .     |          supports_path_from_id: false 0x15a.4-0x15a.4 (0.1)
0x150|                              00               |          .     |          supports_mandatory_byte_range_locks: false 0x15a.5-0x15a.5 (0.1)
0x150|                              00               |          .     |          supports_hard_links: false 0x15a.6-0x15a.6 (0.1)
0x150|                              00               |          .     |          supports_2_tb_file_size: false 0x15a.7-0x15a.7 (0.1)
0x150|                                 00            |           .    |          reserved_4: raw bits 0x15b-0x15b.2 (0.3)
0x150|                                 00            |           .    |          has64_bit_object_ids: false 0x15b.3-0x15b.3 (0.1)
0x150|                                 00            |           .    |          supports_decmp_fs_compression: false 0x15b.4-0x15b.4 (0.1)
0x150|                                 00            |           .    |          supports_hidden_files: false 0x15b.5-0x15b.5 (0.1)
0x150|                                 00            |           .    |          supports_remote_events: false 0x15b.6-0x15b.6 (0.1)
0x150|                                 00            |           .    |          supports_volume_sizes: false 0x15b.7-0x15b.7 (0.1)
     |                                               |                |        enabled_property_flags{}: 0x15c-0x163.7 (8)
0x150|                                    ef         |            .   |          is_internal: true 0x15c-0x15c (0.1)
0x150|                                    ef         |            .   |          is_removable: true 0x15c.1-0x15c.1 (0.1)
0x150|                                    ef         |            .   |          is_ejectable: true 0x15c.2-0x15c.2 (0.1)
0x150|                                    ef         |            .   |          is_quarantined: false 0x15c.3-0x15c.3 (0.1)
0x150|                                    ef         |            .   |          is_read_only: true 0x15c.4-0x15c.4 (0.1)
0x150|                                    ef         |            .   |          dont_browse: true 0x15c.5-0x15c.5 (0.1)
0x150|                                    ef         |            .   |          is_automount: true 0x15c.6-0x15c.6 (0.1)
0x150|                                    ef         |            .   |          is_local: true 0x15c.7-0x15c.7 (0.1)
0x150|                                       13      |             .  |          is_dvd: false 0x15d-0x15d (0.1)
0x150|                                       13      |             .  |          is_cd: false 0x15d.1-0x15d.1 (0.1)
0x150|                                       13      |             .  |          is_idisk: false 0x15d.2-0x15d.2 (0.1)
0x150|                                       13      |             .  |          is_ipod: true 0x15d.3-0x15d.3 (0.1)
0x150|                                       13      |             .  |          is_local_idisk_mirror: false 0x15d.4-0x15d.4 (0.1)
0x150|                                       13      |             .  |          is_file_vault: false 0x15d.5-0x15d.5 (0.1)
0x150|                                       13      |             .  |          is_disk_image: true 0x15d.6-0x15d.6 (0.1)
0x150|                                       13      |             .  |          is_external: true 0x15d.7-0x15d.7 (0.1)
0x150|                                          00   |              . |          reserved_0: raw bits 0x15e-0x15e.6 (0.7)
0x150|                                          00   |              . |          is_device_file_system: false 0x15e.7-0x15e.7 (0.1)
0x150|                                             00|               .|          reserved_1: raw bits 0x15f-0x15f.7 (1)
0x160|01                                             |.               |          supports_read_dir_attr: false 0x160-0x160 (0.1)
0x160|01                                             |.               |          supports_copy_file: false 0x160.1-0x160.1 (0.1)
0x160|01                                             |.               |          supports_deny_modes: false 0x160.2-0x160.2 (0.1)
0x160|01                                             |.               |          supports_symbolic_links: false 0x160.3-0x160.3 (0.1)
0x160|01                                             |.               |          reserved_2: false 0x160.4-0x160.4 (0.1)
0x160|01                                             |.               |          supports_exchange: false 0x160.5-0x160.5 (0.1)
0x160|01                                             |.               |          supports_search_fs: false 0x160.6-0x160.6 (0.1)
0x160|01                                             |.               |          supports_persistent_ids: true 0x160.7-0x160.7 (0.1)
0x160|   00                                          | .              |          supports_extended_security: false 0x161-0x161 (0.1)
0x160|   00                                          | .              |          has_no_root_directory_times: false 0x161.1-0x161.1 (0.1)
0x160|   00                                          | .              |          supports_flock: false 0x161.2-0x161.2 (0.1)
0x160|   00                                          | .              |          supports_case_preserved_names: false 0x161.3-0x161.3 (0.1)
0x160|   00                                          | .              |          supports_case_sensitive_names: false 0x161.4-0x161.4 (0.1)
0x160|   00                                          | .              |          supports_fast_stat_fs: false 0x161.5-0x161.5 (0.1)
0x160|   00                                          | .              |          supports_rename: false 0x161.6-0x161.6 (0.1)
0x160|   00                                          | .              |          supports_journaling: false 0x161.7-0x161.7 (0.1)
0x160|      00                                       |  .             |          supports_zero_runs: false 0x162-0x162 (0.1)
0x160|      00                                       |  .             |          supports_sparse_files: false 0x162.1-0x162.1 (0.1)
0x160|      00                                       |  .             |          is_journaling: false 0x162.2-0x162.2 (0.1)
0x160|      00                                       |  .             |          reserved_3: false 0x162.3-0x162.3 (0.1)
0x160|      00                                       |  .             |          supports_path_from_id: false 0x162.4-0x162.4 (0.1)
0x160|      00                                       |  .             |          supports_mandatory_byte_range_locks: false 0x162.5-0x162.5 (0.1)
0x160|      00                                       |  .             |          supports_hard_links: false 0x162.6-0x162.6 (0.1)
0x160|      00                                       |  .             |          supports_2_tb_file_size: false 0x162.7-0x162.7 (0.1)
0x160|         00                                    |   .            |          reserved_4: raw bits 0x163-0x163.2 (0.3)
0x160|         00                                    |   .            |          has64_bit_object_ids: false 0x163.3-0x163.3 (0.1)
0x160|         00                                    |   .            |          supports_decmp_fs_compression: false 0x163.4-0x163.4 (0.1)
0x160|         00                                    |   .            |          supports_hidden_files: false 0x163.5-0x163.5 (0.1)
0x160|         00                                    |   .            |          supports_remote_events: false 0x163.6-0x163.6 (0.1)
0x160|         00                                    |   .            |          supports_volume_sizes: false 0x163.7-0x163.7 (0.1)
0x160|            00 00 00 00 00 00 00 00            |    ........    |        reserved: raw bits 0x164-0x16b.7 (8)
0x200|                                    20 20 00 00|              ..|      key: "volume_flags" (8224) (flag bitfield) 0x20c-0x20f.7 (4)
0x210|1c 01 00 00                                    |....            |      offset_to_record: 284 0x210-0x213.7 (4)
0x210|            00 00 00 00                        |    ....        |      unused: 0 0x214-0x217.7 (4)
     |                                               |                |    [11]{}: entry 0x178-0x223.7 (172)
     |                                               |                |      record{}: 0x178-0x17f.7 (8)
0x170|                        00 00 00 00            |        ....    |        length: 0 0x178-0x17b.7 (4)
0x170|                                    01 05 00 00|            ....|        type: "boolean_true" (1281) (True) 0x17c-0x17f.7 (4)
0x210|                        30 20 00 00            |        0 ..    |      key: "volume_is_root" (8240) (True if the volume was the filesystem root) 0x218-0x21b.7 (4)
0x210|                                    48 01 00 00|            H...|      offset_to_record: 328 0x21c-0x21f.7 (4)
0x220|00 00 00 00                                    |....            |      unused: 0 0x220-0x223.7 (4)
     |                                               |                |    [12]{}: entry 0x34-0x22f.7 (508)
     |                                               |                |      record{}: 0x34-0x3f.7 (12)
0x030|            04 00 00 00                        |    ....        |        length: 4 0x34-0x37.7 (4)
0x030|                        03 03 00 00            |        ....    |        type: "int" (771) ((signed 32-bit) 4-byte number) 0x38-0x3b.7 (4)
0x030|                                    00 00 00 20|            ... |        data: 536870912 0x3c-0x3f.7 (4)
0x220|            10 d0 00 00                        |    ....        |      key: "creation_options" (53264) (Integer containing flags passed to CFURLCreateBookmarkData) 0x224-0x227.7 (4)
0x220|                        04 00 00 00            |        ....    |      offset_to_record: 4 0x228-0x22b.7 (4)
0x220|                                    00 00 00 00|            ....|      unused: 0 0x22c-0x22f.7 (4)
     |                                               |                |  toc_headers[0:1]: 0x180-0x193.7 (20)
     |                                               |                |    [0]{}: toc_header 0x180-0x193.7 (20)
0x180|a8 00 00 00                                    |....            |      toc_size: 168 0x180-0x183.7 (4)
0x180|            fe ff ff ff                        |    ....        |      magic: 4294967294 (valid) 0x184-0x187.7 (4)
0x180|                        01 00 00 00            |        ....    |      identifier: 1 0x188-0x18b.7 (4)
0x180|                                    00 00 00 00|            ....|      next_toc_offset: 0 0x18c-0x18f.7 (4)
0x190|0d 00 00 00                                    |....            |      num_entries_in_toc: 13 0x190-0x193.7 (4)
$ fq torepr sample1.book
{
  "creation_options": 536870912,
  "target_cnid_path": [
    55637351,
    54389243
  ],
  "target_creation_date": 687998368,
  "target_flags": {
    "is_directory": true,
    "is_regular_file": false,
    "is_symbolic_link": false,
    "is_volume": false
  },
  "target_path": [
    "Applications",
    "Bitwarden.app"
  ],
  "volume_creation_date": 599558400,
  "volume_flags": {
    "dont_browse": false,
    "is_automount": false,
    "is_disk_image": false,
    "is_ejectable": false,
    "is_external": false,
    "is_internal": true,
    "is_ipod": false,
    "is_local": true,
    "is_read_only": false,
    "is_removable": false,
    "supports_persistent_ids": true
  },
  "volume_is_root": true,
  "volume_name": "Macintosh HD",
  "volume_path": "/",
  "volume_size": 499963174912,
  "volume_url": "file:///",
  "volume_uuid": "AAAAAAAA-AAAA-AAAA-AAAA-AAAAAAAAAAAA"
}
