$ fq dv sample2.book 
     |00 01 02 03 04 05 06 07 08 09 0a 0b 0c 0d 0e 0f|0123456789abcdef|.{}: sample2.book (apple_bookmark) 0x0-0x2ac (684)
     |                                               |                |  header{}: 0x0-0x30 (48)
0x000|62 6f 6f 6b                                    |book            |    magic: "book" (valid) 0x0-0x4 (4)
0x000|            ac 02 00 00                        |    ....        |    total_size: 684 0x4-0x8 (4)
0x000|                        00 00 04 10            |        ....    |    unknown: 268697600 0x8-0xc (4)
0x000|                                    30 00 00 00|            0...|    header_size: 48 (valid) 0xc-0x10 (4)
0x010|00 00 00 00 00 00 00 00 00 00 00 00 00 00 00 00|................|    reserved: raw bits 0x10-0x30 (32)
0x020|00 00 00 00 00 00 00 00 00 00 00 00 00 00 00 00|................|
0x030|90 01 00 00                                    |....            |  first_toc_offset: 400 0x30-0x34 (4)
     |                                               |                |  bookmark_entries[0:18]: 0x34-0x2ac (632)
     |                                               |                |    [0]{}: entry 0x40-0x1e0 (416)
     |                                               |                |      record{}: 0x40-0x8c (76)
     |                                               |                |        data[0:3]: 0x40-0x8c (76)
     |                                               |                |          [0]{}: element 0x40-0x84 (68)
     |                                               |                |            record{}: 0x40-0x50 (16)
0x040|05 00 00 00                                    |....            |              length: 5 0x40-0x44 (4)
0x040|            01 01 00 00                        |    ....        |              type: "string" (257) (UTF-8 String) 0x44-0x48 (4)
0x040|                        55 73 65 72 73         |        Users   |              data: "Users" 0x48-0x4d (5)
0x040|                                       00 00 00|             ...|              alignment_bytes: raw bits 0x4d-0x50 (3)
0x080|10 00 00 00                                    |....            |            offset: 16 0x80-0x84 (4)
     |                                               |                |          [1]{}: element 0x50-0x88 (56)
     |                                               |                |            record{}: 0x50-0x68 (24)
0x050|0d 00 00 00                                    |....            |              length: 13 0x50-0x54 (4)
0x050|            01 01 00 00                        |    ....        |              type: "string" (257) (UTF-8 String) 0x54-0x58 (4)
0x050|                        64 61 76 69 64 6d 63 64|        davidmcd|              data: "davidmcdonald" 0x58-0x65 (13)
0x060|6f 6e 61 6c 64                                 |onald           |
0x060|               00 00 00                        |     ...        |              alignment_bytes: raw bits 0x65-0x68 (3)
0x080|            20 00 00 00                        |     ...        |            offset: 32 0x84-0x88 (4)
     |                                               |                |          [2]{}: element 0x68-0x8c (36)
     |                                               |                |            record{}: 0x68-0x78 (16)
0x060|                        07 00 00 00            |        ....    |              length: 7 0x68-0x6c (4)
0x060|                                    01 01 00 00|            ....|              type: "string" (257) (UTF-8 String) 0x6c-0x70 (4)
0x070|68 78 73 74 6f 72 65                           |hxstore         |              data: "hxstore" 0x70-0x77 (7)
0x070|                     00                        |       .        |              alignment_bytes: raw bits 0x77-0x78 (1)
0x080|                        38 00 00 00            |        8...    |            offset: 56 0x88-0x8c (4)
0x070|                        0c 00 00 00            |        ....    |        length: 12 0x78-0x7c (4)
0x070|                                    01 06 00 00|            ....|        type: "array" (1537) (Array of 4-byte offsets to data items) 0x7c-0x80 (4)
0x1d0|            04 10 00 00                        |    ....        |      key: "target_path" (4100) (Array of individual path components) 0x1d4-0x1d8 (4)
0x1d0|                        48 00 00 00            |        H...    |      offset_to_record: 72 0x1d8-0x1dc (4)
0x1d0|                                    00 00 00 00|            ....|      unused: 0 0x1dc-0x1e0 (4)
     |                                               |                |    [1]{}: entry 0x8c-0x1ec (352)
     |                                               |                |      record{}: 0x8c-0xd0 (68)
     |                                               |                |        data[0:3]: 0x8c-0xd0 (68)
     |                                               |                |          [0]{}: element 0x8c-0xc8 (60)
     |                                               |                |            record{}: 0x8c-0x9c (16)
0x080|                                    08 00 00 00|            ....|              length: 8 0x8c-0x90 (4)
0x090|04 03 00 00                                    |....            |              type: "long" (772) ((signed 64-bit) 8-byte number) 0x90-0x94 (4)
0x090|            0b 5b 00 00 00 00 00 00            |    .[......    |              data: 23307 0x94-0x9c (8)
0x0c0|            5c 00 00 00                        |    \...        |            offset: 92 0xc4-0xc8 (4)
     |                                               |                |          [1]{}: element 0x9c-0xcc (48)
     |                                               |                |            record{}: 0x9c-0xac (16)
0x090|                                    08 00 00 00|            ....|              length: 8 0x9c-0xa0 (4)
0x0a0|04 03 00 00                                    |....            |              type: "long" (772) ((signed 64-bit) 8-byte number) 0xa0-0xa4 (4)
0x0a0|            1c 9e 08 00 00 00 00 00            |    ........    |              data: 564764 0xa4-0xac (8)
0x0c0|                        6c 00 00 00            |        l...    |            offset: 108 0xc8-0xcc (4)
     |                                               |                |          [2]{}: element 0xac-0xd0 (36)
     |                                               |                |            record{}: 0xac-0xbc (16)
0x0a0|                                    08 00 00 00|            ....|              length: 8 0xac-0xb0 (4)
0x0b0|04 03 00 00                                    |....            |              type: "long" (772) ((signed 64-bit) 8-byte number) 0xb0-0xb4 (4)
0x0b0|            c7 c5 44 03 00 00 00 00            |    ..D.....    |              data: 54838727 0xb4-0xbc (8)
0x0c0|                                    7c 00 00 00|            |...|            offset: 124 0xcc-0xd0 (4)
0x0b0|                                    0c 00 00 00|            ....|        length: 12 0xbc-0xc0 (4)
0x0c0|01 06 00 00                                    |....            |        type: "array" (1537) (Array of 4-byte offsets to data items) 0xc0-0xc4 (4)
0x1e0|05 10 00 00                                    |....            |      key: "target_cnid_path" (4101) (Array of CNIDs) 0x1e0-0x1e4 (4)
0x1e0|            8c 00 00 00                        |    ....        |      offset_to_record: 140 0x1e4-0x1e8 (4)
0x1e0|                        00 00 00 00            |        ....    |      unused: 0 0x1e8-0x1ec (4)
     |                                               |                |    [2]{}: entry 0xe0-0x1f8 (280)
     |                                               |                |      record{}: 0xe0-0x100 (32)
0x0e0|18 00 00 00                                    |....            |        length: 24 (valid) 0xe0-0xe4 (4)
0x0e0|            01 02 00 00                        |    ....        |        raw_type: "data" (513) (valid) 0xe4-0xe8 (4)
     |                                               |                |        type: "flag_data"
     |                                               |                |        property_flags{}: 0xe8-0xf0 (8)
0x0e0|                        02                     |        .       |          is_hidden: false 0xe8-0xe8.1 (0.1)
0x0e0|                        02                     |        .       |          is_user_immutable: false 0xe8.1-0xe8.2 (0.1)
0x0e0|                        02                     |        .       |          is_system_immutable: false 0xe8.2-0xe8.3 (0.1)
0x0e0|                        02                     |        .       |          is_package: false 0xe8.3-0xe8.4 (0.1)
0x0e0|                        02                     |        .       |          is_volume: false 0xe8.4-0xe8.5 (0.1)
0x0e0|                        02                     |        .       |          is_symbolic_link: false 0xe8.5-0xe8.6 (0.1)
0x0e0|                        02                     |        .       |          is_directory: true 0xe8.6-0xe8.7 (0.1)
0x0e0|                        02                     |        .       |          is_regular_file: false 0xe8.7-0xe9 (0.1)
0x0e0|                           00                  |         .      |          is_alias_file: false 0xe9-0xe9.1 (0.1)
0x0e0|                           00                  |         .      |          is_executable: false 0xe9.1-0xe9.2 (0.1)
0x0e0|                           00                  |         .      |          is_writeable: false 0xe9.2-0xe9.3 (0.1)
0x0e0|                           00                  |         .      |          is_readable: false 0xe9.3-0xe9.4 (0.1)
0x0e0|                           00                  |         .      |          can_set_hidden_extension: false 0xe9.4-0xe9.5 (0.1)
0x0e0|                           00                  |         .      |          is_compressed: false 0xe9.5-0xe9.6 (0.1)
0x0e0|                           00                  |         .      |          is_application: false 0xe9.6-0xe9.7 (0.1)
0x0e0|                           00                  |         .      |          has_hidden_extension: false 0xe9.7-0xea (0.1)
0x0e0|                              00               |          .     |          reserved_bits_0: raw bits 0xea-0xea.7 (0.7)
0x0e0|                              00               |          .     |          is_mount_trigger: false 0xea.7-0xeb (0.1)
0x0e0|                                 00 00 00 00 00|           .....|          reserved: raw bits 0xeb-0xf0 (5)
     |                                               |                |        enabled_property_flags{}: 0xf0-0xf8 (8)
0x0f0|1f                                             |.               |          is_hidden: false 0xf0-0xf0.1 (0.1)
0x0f0|1f                                             |.               |          is_user_immutable: false 0xf0.1-0xf0.2 (0.1)
0x0f0|1f                                             |.               |          is_system_immutable: false 0xf0.2-0xf0.3 (0.1)
0x0f0|1f                                             |.               |          is_package: true 0xf0.3-0xf0.4 (0.1)
0x0f0|1f                                             |.               |          is_volume: true 0xf0.4-0xf0.5 (0.1)
0x0f0|1f                                             |.               |          is_symbolic_link: true 0xf0.5-0xf0.6 (0.1)
0x0f0|1f                                             |.               |          is_directory: true 0xf0.6-0xf0.7 (0.1)
0x0f0|1f                                             |.               |          is_regular_file: true 0xf0.7-0xf1 (0.1)
0x0f0|   02                                          | .              |          is_alias_file: false 0xf1-0xf1.1 (0.1)
0x0f0|   02                                          | .              |          is_executable: false 0xf1.1-0xf1.2 (0.1)
0x0f0|   02                                          | .              |          is_writeable: false 0xf1.2-0xf1.3 (0.1)
0x0f0|   02                                          | .              |          is_readable: false 0xf1.3-0xf1.4 (0.1)
0x0f0|   02                                          | .              |          can_set_hidden_extension: false 0xf1.4-0xf1.5 (0.1)
0x0f0|   02                                          | .              |          is_compressed: false 0xf1.5-0xf1.6 (0.1)
0x0f0|   02                                          | .              |          is_application: true 0xf1.6-0xf1.7 (0.1)
0x0f0|   02                                          | .              |          has_hidden_extension: false 0xf1.7-0xf2 (0.1)
0x0f0|      00                                       |  .             |          reserved_bits_0: raw bits 0xf2-0xf2.7 (0.7)
0x0f0|      00                                       |  .             |          is_mount_trigger: false 0xf2.7-0xf3 (0.1)
0x0f0|         00 00 00 00 00                        |   .....        |          reserved: raw bits 0xf3-0xf8 (5)
0x0f0|                        1a 02 00 00 00 00 00 00|        ........|        reserved: raw bits 0xf8-0x100 (8)
0x1e0|                                    10 10 00 00|            ....|      key: "target_flags" (4112) (flag bitfield) 0x1ec-0x1f0 (4)
0x1f0|b0 00 00 00                                    |....            |      offset_to_record: 176 0x1f0-0x1f4 (4)
0x1f0|            00 00 00 00                        |    ....        |      unused: 0 0x1f4-0x1f8 (4)
     |                                               |                |    [3]{}: entry 0xd0-0x204 (308)
     |                                               |                |      record{}: 0xd0-0xe0 (16)
0x0d0|08 00 00 00                                    |....            |        length: 8 0xd0-0xd4 (4)
0x0d0|            00 04 00 00                        |    ....        |        type: "date" (1024) (Big-endian IEEE double precision seconds since 2001-01-01 00:00:00 UTC) 0xd4-0xd8 (4)
0x0d0|                        41 c4 8a 17 83 4d f0 44|        A....M.D|        data: 6.891886146088948e+08 (2022-11-03T17:16:54Z) 0xd8-0xe0 (8)
0x1f0|                        40 10 00 00            |        @...    |      key: "target_creation_date" (4160) (Date) 0x1f8-0x1fc (4)
0x1f0|                                    a0 00 00 00|            ....|      offset_to_record: 160 0x1fc-0x200 (4)
0x200|00 00 00 00                                    |....            |      unused: 0 0x200-0x204 (4)
     |                                               |                |    [4]{}: entry 0x1ac-0x210 (100)
     |                                               |                |      record{}: 0x1ac-0x1b8 (12)
0x1a0|                                    01 00 00 00|            ....|        length: 1 0x1ac-0x1b0 (4)
0x1b0|01 01 00 00                                    |....            |        type: "string" (257) (UTF-8 String) 0x1b0-0x1b4 (4)
0x1b0|            2f                                 |    /           |        data: "/" 0x1b4-0x1b5 (1)
0x1b0|               00 00 00                        |     ...        |        alignment_bytes: raw bits 0x1b5-0x1b8 (3)
0x200|            02 20 00 00                        |    . ..        |      key: "volume_path" (8194) (Array of individual path components) 0x204-0x208 (4)
0x200|                        7c 01 00 00            |        |...    |      offset_to_record: 380 0x208-0x20c (4)
0x200|                                    00 00 00 00|            ....|      unused: 0 0x20c-0x210 (4)
     |                                               |                |    [5]{}: entry 0x11c-0x21c (256)
     |                                               |                |      record{}: 0x11c-0x12c (16)
0x110|                                    08 00 00 00|            ....|        length: 8 0x11c-0x120 (4)
0x120|01 09 00 00                                    |....            |        type: "url" (2305) (UTF-8 string) 0x120-0x124 (4)
0x120|            66 69 6c 65 3a 2f 2f 2f            |    file:///    |        data: "file:///" 0x124-0x12c (8)
0x210|05 20 00 00                                    |. ..            |      key: "volume_url" (8197) (URL of volume root) 0x210-0x214 (4)
0x210|            ec 00 00 00                        |    ....        |      offset_to_record: 236 0x214-0x218 (4)
0x210|                        00 00 00 00            |        ....    |      unused: 0 0x218-0x21c (4)
     |                                               |                |    [6]{}: entry 0x12c-0x228 (252)
     |                                               |                |      record{}: 0x12c-0x144 (24)
0x120|                                    0c 00 00 00|            ....|        length: 12 0x12c-0x130 (4)
0x130|01 01 00 00                                    |....            |        type: "string" (257) (UTF-8 String) 0x130-0x134 (4)
0x130|            4d 61 63 69 6e 74 6f 73 68 20 48 44|    Macintosh HD|        data: "Macintosh HD" 0x134-0x140 (12)
0x140|08 00 00 00                                    |....            |        alignment_bytes: raw bits 0x140-0x144 (4)
0x210|                                    10 20 00 00|            . ..|      key: "volume_name" (8208) (String) 0x21c-0x220 (4)
0x220|fc 00 00 00                                    |....            |      offset_to_record: 252 0x220-0x224 (4)
0x220|            00 00 00 00                        |    ....        |      unused: 0 0x224-0x228 (4)
     |                                               |                |    [7]{}: entry 0x160-0x234 (212)
     |                                               |                |      record{}: 0x160-0x190 (48)
0x160|24 00 00 00                                    |$...            |        length: 36 0x160-0x164 (4)
0x160|            01 01 00 00                        |    ....        |        type: "string" (257) (UTF-8 String) 0x164-0x168 (4)
0x160|                        38 41 38 32 39 41 30 33|        8A829A03|        data: "8A829A03-9B24-4085-8051-18978712E4BE" 0x168-0x18c (36)
0x170|2d 39 42 32 34 2d 34 30 38 35 2d 38 30 35 31 2d|-9B24-4085-8051-|
0x180|31 38 39 37 38 37 31 32 45 34 42 45            |18978712E4BE    |
0x180|                                    18 00 00 00|            ....|        alignment_bytes: raw bits 0x18c-0x190 (4)
0x220|                        11 20 00 00            |        . ..    |      key: "volume_uuid" (8209) (String UUID) 0x228-0x22c (4)
0x220|                                    30 01 00 00|            0...|      offset_to_record: 304 0x22c-0x230 (4)
0x230|00 00 00 00                                    |....            |      unused: 0 0x230-0x234 (4)
     |                                               |                |    [8]{}: entry 0x140-0x240 (256)
     |                                               |                |      record{}: 0x140-0x150 (16)
0x140|08 00 00 00                                    |....            |        length: 8 0x140-0x144 (4)
0x140|            04 03 00 00                        |    ....        |        type: "long" (772) ((signed 64-bit) 8-byte number) 0x144-0x148 (4)
0x140|                        00 a0 20 68 74 00 00 00|        .. ht...|        data: 499963174912 0x148-0x150 (8)
0x230|            12 20 00 00                        |    . ..        |      key: "volume_size" (8210) (8-byte integer) 0x234-0x238 (4)
0x230|                        10 01 00 00            |        ....    |      offset_to_record: 272 0x238-0x23c (4)
0x230|                                    00 00 00 00|            ....|      unused: 0 0x23c-0x240 (4)
     |                                               |                |    [9]{}: entry 0x150-0x24c (252)
     |                                               |                |      record{}: 0x150-0x160 (16)
0x150|08 00 00 00                                    |....            |        length: 8 0x150-0x154 (4)
0x150|            00 04 00 00                        |    ....        |        type: "date" (1024) (Big-endian IEEE double precision seconds since 2001-01-01 00:00:00 UTC) 0x154-0x158 (4)
0x150|                        41 c1 de 44 80 00 00 00|        A..D....|        data: 5.995584e+08 (2020-01-01T08:00:00Z) 0x158-0x160 (8)
0x240|13 20 00 00                                    |. ..            |      key: "volume_creation_date" (8211) (Date) 0x240-0x244 (4)
0x240|            20 01 00 00                        |     ...        |      offset_to_record: 288 0x244-0x248 (4)
0x240|                        00 00 00 00            |        ....    |      unused: 0 0x248-0x24c (4)
     |                                               |                |    [10]{}: entry 0x18c-0x258 (204)
     |                                               |                |      record{}: 0x18c-0x1ac (32)
0x180|                                    18 00 00 00|            ....|        length: 24 (valid) 0x18c-0x190 (4)
0x190|01 02 00 00                                    |....            |        raw_type: "data" (513) (valid) 0x190-0x194 (4)
     |                                               |                |        type: "flag_data"
     |                                               |                |        property_flags{}: 0x194-0x19c (8)
0x190|            81                                 |    .           |          is_internal: true 0x194-0x194.1 (0.1)
0x190|            81                                 |    .           |          is_removable: false 0x194.1-0x194.2 (0.1)
0x190|            81                                 |    .           |          is_ejectable: false 0x194.2-0x194.3 (0.1)
0x190|            81                                 |    .           |          is_quarantined: false 0x194.3-0x194.4 (0.1)
0x190|            81                                 |    .           |          is_read_only: false 0x194.4-0x194.5 (0.1)
0x190|            81                                 |    .           |          dont_browse: false 0x194.5-0x194.6 (0.1)
0x190|            81                                 |    .           |          is_automount: false 0x194.6-0x194.7 (0.1)
0x190|            81                                 |    .           |          is_local: true 0x194.7-0x195 (0.1)
0x190|               00                              |     .          |          is_dvd: false 0x195-0x195.1 (0.1)
0x190|               00                              |     .          |          is_cd: false 0x195.1-0x195.2 (0.1)
0x190|               00                              |     .          |          is_idisk: false 0x195.2-0x195.3 (0.1)
0x190|               00                              |     .          |          is_ipod: false 0x195.3-0x195.4 (0.1)
0x190|               00                              |     .          |          is_local_idisk_mirror: false 0x195.4-0x195.5 (0.1)
0x190|               00                              |     .          |          is_file_vault: false 0x195.5-0x195.6 (0.1)
0x190|               00                              |     .          |          is_disk_image: false 0x195.6-0x195.7 (0.1)
0x190|               00                              |     .          |          is_external: false 0x195.7-0x196 (0.1)
0x190|                  00                           |      .         |          reserved_0: raw bits 0x196-0x196.7 (0.7)
0x190|                  00                           |      .         |          is_device_file_system: false 0x196.7-0x197 (0.1)
0x190|                     00                        |       .        |          reserved_1: raw bits 0x197-0x198 (1)
0x190|                        01                     |        .       |          supports_read_dir_attr: false 0x198-0x198.1 (0.1)
0x190|                        01                     |        .       |          supports_copy_file: false 0x198.1-0x198.2 (0.1)
0x190|                        01                     |        .       |          supports_deny_modes: false 0x198.2-0x198.3 (0.1)
0x190|                        01                     |        .       |          supports_symbolic_links: false 0x198.3-0x198.4 (0.1)
0x190|                        01                     |        .       |          reserved_2: false 0x198.4-0x198.5 (0.1)
0x190|                        01                     |        .       |          supports_exchange: false 0x198.5-0x198.6 (0.1)
0x190|                        01                     |        .       |          supports_search_fs: false 0x198.6-0x198.7 (0.1)
0x190|                        01                     |        .       |          supports_persistent_ids: true 0x198.7-0x199 (0.1)
0x190|                           00                  |         .      |          supports_extended_security: false 0x199-0x199.1 (0.1)
0x190|                           00                  |         .      |          has_no_root_directory_times: false 0x199.1-0x199.2 (0.1)
0x190|                           00                  |         .      |          supports_flock: false 0x199.2-0x199.3 (0.1)
0x190|                           00                  |         .      |          supports_case_preserved_names: false 0x199.3-0x199.4 (0.1)
0x190|                           00                  |         .      |          supports_case_sensitive_names: false 0x199.4-0x199.5 (0.1)
0x190|                           00                  |         .      |          supports_fast_stat_fs: false 0x199.5-0x199.6 (0.1)
0x190|                           00                  |         .      |          supports_rename: false 0x199.6-0x199.7 (0.1)
0x190|                           00                  |         .      |          supports_journaling: false 0x199.7-0x19a (0.1)
0x190|                              00               |          .     |          supports_zero_runs: false 0x19a-0x19a.1 (0.1)
0x190|                              00               |          .     |          supports_sparse_files: false 0x19a.1-0x19a.2 (0.1)
0x190|                              00               |          .     |          is_journaling: false 0x19a.2-0x19a.3 (0.1)
0x190|                              00               |          .     |          reserved_3: false 0x19a.3-0x19a.4 (0.1)
0x190|                              00               |          .     |          supports_path_from_id: false 0x19a.4-0x19a.5 (0.1)
0x190|                              00               |          .     |          supports_mandatory_byte_range_locks: false 0x19a.5-0x19a.6 (0.1)
0x190|                              00               |          .     |          supports_hard_links: false 0x19a.6-0x19a.7 (0.1)
0x190|                              00               |          .     |          supports_2_tb_file_size: false 0x19a.7-0x19b (0.1)
0x190|                                 00            |           .    |          reserved_4: raw bits 0x19b-0x19b.3 (0.3)
0x190|                                 00            |           .    |          has64_bit_object_ids: false 0x19b.3-0x19b.4 (0.1)
0x190|                                 00            |           .    |          supports_decmp_fs_compression: false 0x19b.4-0x19b.5 (0.1)
0x190|                                 00            |           .    |          supports_hidden_files: false 0x19b.5-0x19b.6 (0.1)
0x190|                                 00            |           .    |          supports_remote_events: false 0x19b.6-0x19b.7 (0.1)
0x190|                                 00            |           .    |          supports_volume_sizes: false 0x19b.7-0x19c (0.1)
     |                                               |                |        enabled_property_flags{}: 0x19c-0x1a4 (8)
0x190|                                    ef         |            .   |          is_internal: true 0x19c-0x19c.1 (0.1)
0x190|                                    ef         |            .   |          is_removable: true 0x19c.1-0x19c.2 (0.1)
0x190|                                    ef         |            .   |          is_ejectable: true 0x19c.2-0x19c.3 (0.1)
0x190|                                    ef         |            .   |          is_quarantined: false 0x19c.3-0x19c.4 (0.1)
0x190|                                    ef         |            .   |          is_read_only: true 0x19c.4-0x19c.5 (0.1)
0x190|                                    ef         |            .   |          dont_browse: true 0x19c.5-0x19c.6 (0.1)
0x190|                                    ef         |            .   |          is_automount: true 0x19c.6-0x19c.7 (0.1)
0x190|                                    ef         |            .   |          is_local: true 0x19c.7-0x19d (0.1)
0x190|                                       13      |             .  |          is_dvd: false 0x19d-0x19d.1 (0.1)
0x190|                                       13      |             .  |          is_cd: false 0x19d.1-0x19d.2 (0.1)
0x190|                                       13      |             .  |          is_idisk: false 0x19d.2-0x19d.3 (0.1)
0x190|                                       13      |             .  |          is_ipod: true 0x19d.3-0x19d.4 (0.1)
0x190|                                       13      |             .  |          is_local_idisk_mirror: false 0x19d.4-0x19d.5 (0.1)
0x190|                                       13      |             .  |          is_file_vault: false 0x19d.5-0x19d.6 (0.1)
0x190|                                       13      |             .  |          is_disk_image: true 0x19d.6-0x19d.7 (0.1)
0x190|                                       13      |             .  |          is_external: true 0x19d.7-0x19e (0.1)
0x190|                                          00   |              . |          reserved_0: raw bits 0x19e-0x19e.7 (0.7)
0x190|                                          00   |              . |          is_device_file_system: false 0x19e.7-0x19f (0.1)
0x190|                                             00|               .|          reserved_1: raw bits 0x19f-0x1a0 (1)
0x1a0|01                                             |.               |          supports_read_dir_attr: false 0x1a0-0x1a0.1 (0.1)
0x1a0|01                                             |.               |          supports_copy_file: false 0x1a0.1-0x1a0.2 (0.1)
0x1a0|01                                             |.               |          supports_deny_modes: false 0x1a0.2-0x1a0.3 (0.1)
0x1a0|01                                             |.               |          supports_symbolic_links: false 0x1a0.3-0x1a0.4 (0.1)
0x1a0|01                                             |.               |          reserved_2: false 0x1a0.4-0x1a0.5 (0.1)
0x1a0|01                                             |.               |          supports_exchange: false 0x1a0.5-0x1a0.6 (0.1)
0x1a0|01                                             |.               |          supports_search_fs: false 0x1a0.6-0x1a0.7 (0.1)
0x1a0|01                                             |.               |          supports_persistent_ids: true 0x1a0.7-0x1a1 (0.1)
0x1a0|   00                                          | .              |          supports_extended_security: false 0x1a1-0x1a1.1 (0.1)
0x1a0|   00                                          | .              |          has_no_root_directory_times: false 0x1a1.1-0x1a1.2 (0.1)
0x1a0|   00                                          | .              |          supports_flock: false 0x1a1.2-0x1a1.3 (0.1)
0x1a0|   00                                          | .              |          supports_case_preserved_names: false 0x1a1.3-0x1a1.4 (0.1)
0x1a0|   00                                          | .              |          supports_case_sensitive_names: false 0x1a1.4-0x1a1.5 (0.1)
0x1a0|   00                                          | .              |          supports_fast_stat_fs: false 0x1a1.5-0x1a1.6 (0.1)
0x1a0|   00                                          | .              |          supports_rename: false 0x1a1.6-0x1a1.7 (0.1)
0x1a0|   00                                          | .              |          supports_journaling: false 0x1a1.7-0x1a2 (0.1)
0x1a0|      00                                       |  .             |          supports_zero_runs: false 0x1a2-0x1a2.1 (0.1)
0x1a0|      00                                       |  .             |          supports_sparse_files: false 0x1a2.1-0x1a2.2 (0.1)
0x1a0|      00                                       |  .             |          is_journaling: false 0x1a2.2-0x1a2.3 (0.1)
0x1a0|      00                                       |  .             |          reserved_3: false 0x1a2.3-0x1a2.4 (0.1)
0x1a0|      00                                       |  .             |          supports_path_from_id: false 0x1a2.4-0x1a2.5 (0.1)
0x1a0|      00                                       |  .             |          supports_mandatory_byte_range_locks: false 0x1a2.5-0x1a2.6 (0.1)
0x1a0|      00                                       |  .             |          supports_hard_links: false 0x1a2.6-0x1a2.7 (0.1)
0x1a0|      00                                       |  .             |          supports_2_tb_file_size: false 0x1a2.7-0x1a3 (0.1)
0x1a0|         00                                    |   .            |          reserved_4: raw bits 0x1a3-0x1a3.3 (0.3)
0x1a0|         00                                    |   .            |          has64_bit_object_ids: false 0x1a3.3-0x1a3.4 (0.1)
0x1a0|         00                                    |   .            |          supports_decmp_fs_compression: false 0x1a3.4-0x1a3.5 (0.1)
0x1a0|         00                                    |   .            |          supports_hidden_files: false 0x1a3.5-0x1a3.6 (0.1)
0x1a0|         00                                    |   .            |          supports_remote_events: false 0x1a3.6-0x1a3.7 (0.1)
0x1a0|         00                                    |   .            |          supports_volume_sizes: false 0x1a3.7-0x1a4 (0.1)
0x1a0|            00 00 00 00 00 00 00 00            |    ........    |        reserved: raw bits 0x1a4-0x1ac (8)
0x240|                                    20 20 00 00|              ..|      key: "volume_flags" (8224) (flag bitfield) 0x24c-0x250 (4)
0x250|5c 01 00 00                                    |\...            |      offset_to_record: 348 0x250-0x254 (4)
0x250|            00 00 00 00                        |    ....        |      unused: 0 0x254-0x258 (4)
     |                                               |                |    [11]{}: entry 0x1b8-0x264 (172)
     |                                               |                |      record{}: 0x1b8-0x1c0 (8)
0x1b0|                        00 00 00 00            |        ....    |        length: 0 0x1b8-0x1bc (4)
0x1b0|                                    01 05 00 00|            ....|        type: "boolean_true" (1281) (True) 0x1bc-0x1c0 (4)
0x250|                        30 20 00 00            |        0 ..    |      key: "volume_is_root" (8240) (True if the volume was the filesystem root) 0x258-0x25c (4)
0x250|                                    88 01 00 00|            ....|      offset_to_record: 392 0x25c-0x260 (4)
0x260|00 00 00 00                                    |....            |      unused: 0 0x260-0x264 (4)
     |                                               |                |    [12]{}: entry 0x100-0x270 (368)
     |                                               |                |      record{}: 0x100-0x110 (16)
0x100|08 00 00 00                                    |....            |        length: 8 0x100-0x104 (4)
0x100|            04 03 00 00                        |    ....        |        type: "long" (772) ((signed 64-bit) 8-byte number) 0x104-0x108 (4)
0x100|                        01 00 00 00 00 00 00 00|        ........|        data: 1 0x108-0x110 (8)
0x260|            01 c0 00 00                        |    ....        |      key: "containing_folder_index" (49153) (Integer index of containing folder in target path array) 0x264-0x268 (4)
0x260|                        d0 00 00 00            |        ....    |      offset_to_record: 208 0x268-0x26c (4)
0x260|                                    00 00 00 00|            ....|      unused: 0 0x26c-0x270 (4)
     |                                               |                |    [13]{}: entry 0x50-0x27c (556)
     |                                               |                |      record{}: 0x50-0x68 (24)
0x050|0d 00 00 00                                    |....            |        length: 13 0x50-0x54 (4)
0x050|            01 01 00 00                        |    ....        |        type: "string" (257) (UTF-8 String) 0x54-0x58 (4)
0x050|                        64 61 76 69 64 6d 63 64|        davidmcd|        data: "davidmcdonald" 0x58-0x65 (13)
0x060|6f 6e 61 6c 64                                 |onald           |
0x060|               00 00 00                        |     ...        |        alignment_bytes: raw bits 0x65-0x68 (3)
0x270|11 c0 00 00                                    |....            |      key: "creator_username" (49169) (Name of user that created bookmark) 0x270-0x274 (4)
0x270|            20 00 00 00                        |     ...        |      offset_to_record: 32 0x274-0x278 (4)
0x270|                        00 00 00 00            |        ....    |      unused: 0 0x278-0x27c (4)
     |                                               |                |    [14]{}: entry 0x110-0x288 (376)
     |                                               |                |      record{}: 0x110-0x11c (12)
0x110|04 00 00 00                                    |....            |        length: 4 0x110-0x114 (4)
0x110|            03 03 00 00                        |    ....        |        type: "int" (771) ((signed 32-bit) 4-byte number) 0x114-0x118 (4)
0x110|                        f5 01 00 00            |        ....    |        data: 501 0x118-0x11c (4)
0x270|                                    12 c0 00 00|            ....|      key: "creator_uid" (49170) (UID of user that created bookmark) 0x27c-0x280 (4)
0x280|e0 00 00 00                                    |....            |      offset_to_record: 224 0x280-0x284 (4)
0x280|            00 00 00 00                        |    ....        |      unused: 0 0x284-0x288 (4)
     |                                               |                |    [15]{}: entry 0x34-0x294 (608)
     |                                               |                |      record{}: 0x34-0x40 (12)
0x030|            04 00 00 00                        |    ....        |        length: 4 0x34-0x38 (4)
0x030|                        03 03 00 00            |        ....    |        type: "int" (771) ((signed 32-bit) 4-byte number) 0x38-0x3c (4)
0x030|                                    00 00 00 20|            ... |        data: 536870912 0x3c-0x40 (4)
0x280|                        10 d0 00 00            |        ....    |      key: "creation_options" (53264) (Integer containing flags passed to CFURLCreateBookmarkData) 0x288-0x28c (4)
0x280|                                    04 00 00 00|            ....|      offset_to_record: 4 0x28c-0x290 (4)
0x290|00 00 00 00                                    |....            |      unused: 0 0x290-0x294 (4)
     |                                               |                |    [16]{}: entry 0x68-0x2a0 (568)
     |                                               |                |      record{}: 0x68-0x78 (16)
0x060|                        07 00 00 00            |        ....    |        length: 7 0x68-0x6c (4)
0x060|                                    01 01 00 00|            ....|        type: "string" (257) (UTF-8 String) 0x6c-0x70 (4)
0x070|68 78 73 74 6f 72 65                           |hxstore         |        data: "hxstore" 0x70-0x77 (7)
0x070|                     00                        |       .        |        alignment_bytes: raw bits 0x77-0x78 (1)
0x290|            17 f0 00 00                        |    ....        |      key: "display_name" (61463) (String) 0x294-0x298 (4)
0x290|                        38 00 00 00            |        8...    |      offset_to_record: 56 0x298-0x29c (4)
0x290|                                    00 00 00 00|            ....|      unused: 0 0x29c-0x2a0 (4)
     |                                               |                |    [17]{}: entry 0x1b8-0x2ac (244)
     |                                               |                |      record{}: 0x1b8-0x1c0 (8)
0x1b0|                        00 00 00 00            |        ....    |        length: 0 0x1b8-0x1bc (4)
0x1b0|                                    01 05 00 00|            ....|        type: "boolean_true" (1281) (True) 0x1bc-0x1c0 (4)
0x2a0|0f 00 0f 00                                    |....            |      key: 983055 0x2a0-0x2a4 (4)
0x2a0|            88 01 00 00                        |    ....        |      offset_to_record: 392 0x2a4-0x2a8 (4)
0x2a0|                        00 00 00 00|           |        ....|   |      unused: 0 0x2a8-0x2ac (4)
     |                                               |                |  toc_headers[0:1]: 0x1c0-0x1d4 (20)
     |                                               |                |    [0]{}: toc_header 0x1c0-0x1d4 (20)
0x1c0|e4 00 00 00                                    |....            |      toc_size: 228 0x1c0-0x1c4 (4)
0x1c0|            fe ff ff ff                        |    ....        |      magic: 4294967294 (valid) 0x1c4-0x1c8 (4)
0x1c0|                        01 00 00 00            |        ....    |      identifier: 1 0x1c8-0x1cc (4)
0x1c0|                                    00 00 00 00|            ....|      next_toc_offset: 0 0x1cc-0x1d0 (4)
0x1d0|12 00 00 00                                    |....            |      num_entries_in_toc: 18 0x1d0-0x1d4 (4)
$ fq torepr sample2.book
{
  "983055": true,
  "containing_folder_index": 1,
  "creation_options": 536870912,
  "creator_uid": 501,
  "creator_username": "davidmcdonald",
  "display_name": "hxstore",
  "target_cnid_path": [
    23307,
    564764,
    54838727
  ],
  "target_creation_date": 689188614.6088948,
  "target_flags": {
    "is_application": false,
    "is_directory": true,
    "is_package": false,
    "is_regular_file": false,
    "is_symbolic_link": false,
    "is_volume": false
  },
  "target_path": [
    "Users",
    "davidmcdonald",
    "hxstore"
  ],
  "volume_creation_date": 599558400,
  "volume_flags": {
    "dont_browse": false,
    "is_automount": false,
    "is_disk_image": false,
    "is_ejectable": false,
    "is_external": false,
    "is_internal": true,
    "is_ipod": false,
    "is_local": true,
    "is_read_only": false,
    "is_removable": false,
    "supports_persistent_ids": true
  },
  "volume_is_root": true,
  "volume_name": "Macintosh HD",
  "volume_path": "/",
  "volume_size": 499963174912,
  "volume_url": "file:///",
  "volume_uuid": "8A829A03-9B24-4085-8051-18978712E4BE"
}
