$ fq -d pg_heap -o flavour=pgpro12 ".[0].tuples[0,-1] | dv" 16406
      |00 01 02 03 04 05 06 07 08 09 0a 0b 0c 0d 0e 0f|0123456789abcdef|.[0].tuples[0]{}: tuple 0x1fd0-0x2000 (48)
      |                                               |                |  header{}: 0x1fd0-0x1fe8 (24)
      |                                               |                |    t_choice{}: 0x1fd0-0x1fdc (12)
      |                                               |                |      t_heap{}: 0x1fd0-0x1fdc (12)
0x1fd0|f3 01 00 00                                    |....            |        t_xmin: 499 0x1fd0-0x1fd4 (4)
0x1fd0|            00 00 00 00                        |    ....        |        t_xmax: 0 0x1fd4-0x1fd8 (4)
      |                                               |                |        t_field3{}: 0x1fd8-0x1fdc (4)
0x1fd0|                        03 00 00 00            |        ....    |          t_cid: 3 0x1fd8-0x1fdc (4)
0x1fd0|                        03 00 00 00            |        ....    |          t_xvac: 3 0x1fd8-0x1fdc (4)
      |                                               |                |      t_datum{}: 0x1fd0-0x1fdc (12)
0x1fd0|f3 01 00 00                                    |....            |        datum_len_: 499 0x1fd0-0x1fd4 (4)
0x1fd0|            00 00 00 00                        |    ....        |        datum_typmod: 0 0x1fd4-0x1fd8 (4)
0x1fd0|                        03 00 00 00            |        ....    |        datum_typeid: 3 0x1fd8-0x1fdc (4)
      |                                               |                |    t_ctid{}: 0x1fdc-0x1fe2 (6)
0x1fd0|                                    00 00 00 00|            ....|      ip_blkid: 0 0x1fdc-0x1fe0 (4)
0x1fe0|01 00                                          |..              |      ip_posid: 1 0x1fe0-0x1fe2 (2)
0x1fe0|      06 00                                    |  ..            |    t_infomask2: 6 0x1fe2-0x1fe4 (2)
      |                                               |                |    infomask2{}: 0x1fe4-0x1fe4 (0)
      |                                               |                |      heap_keys_updated: false
      |                                               |                |      heap_hot_updated: false
      |                                               |                |      heap_only_tuple: false
0x1fe0|            01 09                              |    ..          |    t_infomask: 2305 0x1fe4-0x1fe6 (2)
      |                                               |                |    infomask{}: 0x1fe6-0x1fe6 (0)
      |                                               |                |      heap_hasnull: true
      |                                               |                |      heap_hasvarwidth: false
      |                                               |                |      heap_hasexternal: false
      |                                               |                |      heap_hasoid_old: false
      |                                               |                |      heap_xmax_keyshr_lock: false
      |                                               |                |      heap_combocid: false
      |                                               |                |      heap_xmax_excl_lock: false
      |                                               |                |      heap_xmax_lock_only: false
      |                                               |                |      heap_xmax_shr_lock: false
      |                                               |                |      heap_lock_mask: false
      |                                               |                |      heap_xmin_committed: true
      |                                               |                |      heap_xmin_invalid: false
      |                                               |                |      heap_xmin_frozen: true
      |                                               |                |      heap_xmax_committed: false
      |                                               |                |      heap_xmax_invalid: true
      |                                               |                |      heap_xmax_is_multi: false
      |                                               |                |      heap_updated: false
      |                                               |                |      heap_moved_off: false
      |                                               |                |      heap_moved_in: false
      |                                               |                |      heap_moved: false
0x1fe0|                  18                           |      .         |    t_hoff: 24 0x1fe6-0x1fe7 (1)
0x1fe0|                     1f                        |       .        |    padding0: 31 0x1fe7-0x1fe8 (1)
0x1fe0|                        61 00 00 00 08 00 00 00|        a.......|  data: "61000000080000003aaa080009040000d1b3823d1f8a0200" (raw bits) 0x1fe8-0x2000 (24)
0x1ff0|3a aa 08 00 09 04 00 00 d1 b3 82 3d 1f 8a 02 00|:..........=....|
     |00 01 02 03 04 05 06 07 08 09 0a 0b 0c 0d 0e 0f|0123456789abcdef|.[0].tuples[156]{}: tuple 0x290-0x2c0 (48)
     |                                               |                |  header{}: 0x290-0x2a8 (24)
     |                                               |                |    t_choice{}: 0x290-0x29c (12)
     |                                               |                |      t_heap{}: 0x290-0x29c (12)
0x290|8f 02 00 00                                    |....            |        t_xmin: 655 0x290-0x294 (4)
0x290|            00 00 00 00                        |    ....        |        t_xmax: 0 0x294-0x298 (4)
     |                                               |                |        t_field3{}: 0x298-0x29c (4)
0x290|                        03 00 00 00            |        ....    |          t_cid: 3 0x298-0x29c (4)
0x290|                        03 00 00 00            |        ....    |          t_xvac: 3 0x298-0x29c (4)
     |                                               |                |      t_datum{}: 0x290-0x29c (12)
0x290|8f 02 00 00                                    |....            |        datum_len_: 655 0x290-0x294 (4)
0x290|            00 00 00 00                        |    ....        |        datum_typmod: 0 0x294-0x298 (4)
0x290|                        03 00 00 00            |        ....    |        datum_typeid: 3 0x298-0x29c (4)
     |                                               |                |    t_ctid{}: 0x29c-0x2a2 (6)
0x290|                                    00 00 00 00|            ....|      ip_blkid: 0 0x29c-0x2a0 (4)
0x2a0|9d 00                                          |..              |      ip_posid: 157 0x2a0-0x2a2 (2)
0x2a0|      06 00                                    |  ..            |    t_infomask2: 6 0x2a2-0x2a4 (2)
     |                                               |                |    infomask2{}: 0x2a4-0x2a4 (0)
     |                                               |                |      heap_keys_updated: false
     |                                               |                |      heap_hot_updated: false
     |                                               |                |      heap_only_tuple: false
0x2a0|            01 09                              |    ..          |    t_infomask: 2305 0x2a4-0x2a6 (2)
     |                                               |                |    infomask{}: 0x2a6-0x2a6 (0)
     |                                               |                |      heap_hasnull: true
     |                                               |                |      heap_hasvarwidth: false
     |                                               |                |      heap_hasexternal: false
     |                                               |                |      heap_hasoid_old: false
     |                                               |                |      heap_xmax_keyshr_lock: false
     |                                               |                |      heap_combocid: false
     |                                               |                |      heap_xmax_excl_lock: false
     |                                               |                |      heap_xmax_lock_only: false
     |                                               |                |      heap_xmax_shr_lock: false
     |                                               |                |      heap_lock_mask: false
     |                                               |                |      heap_xmin_committed: true
     |                                               |                |      heap_xmin_invalid: false
     |                                               |                |      heap_xmin_frozen: true
     |                                               |                |      heap_xmax_committed: false
     |                                               |                |      heap_xmax_invalid: true
     |                                               |                |      heap_xmax_is_multi: false
     |                                               |                |      heap_updated: false
     |                                               |                |      heap_moved_off: false
     |                                               |                |      heap_moved_in: false
     |                                               |                |      heap_moved: false
0x2a0|                  18                           |      .         |    t_hoff: 24 0x2a6-0x2a7 (1)
0x2a0|                     1f                        |       .        |    padding0: 31 0x2a7-0x2a8 (1)
0x2a0|                        26 00 00 00 01 00 00 00|        &.......|  data: "2600000001000000c5900800c5f6ffffe658893d1f8a0200" (raw bits) 0x2a8-0x2c0 (24)
0x2b0|c5 90 08 00 c5 f6 ff ff e6 58 89 3d 1f 8a 02 00|.........X.=....|
