$ fq -d pg_heap -o flavour=pgproee10 ".[0].tuples[0,-1] | dv" 16403
      |00 01 02 03 04 05 06 07 08 09 0a 0b 0c 0d 0e 0f|0123456789abcdef|.[0].tuples[0]{}: tuple 0x1fb8-0x1fe7.7 (48)
      |                                               |                |  header{}: 0x1fb8-0x1fcf.7 (24)
      |                                               |                |    t_choice{}: 0x1fb8-0x1fc3.7 (12)
      |                                               |                |      t_heap{}: 0x1fb8-0x1fc3.7 (12)
0x1fb0|                        03 00 00 00            |        ....    |        t_xmin: 3 0x1fb8-0x1fbb.7 (4)
0x1fb0|                                    00 00 00 00|            ....|        t_xmax: 0 0x1fbc-0x1fbf.7 (4)
      |                                               |                |        t_field3{}: 0x1fc0-0x1fc3.7 (4)
0x1fc0|03 00 00 00                                    |....            |          t_cid: 3 0x1fc0-0x1fc3.7 (4)
0x1fc0|03 00 00 00                                    |....            |          t_xvac: 3 0x1fc0-0x1fc3.7 (4)
      |                                               |                |      t_datum{}: 0x1fb8-0x1fc3.7 (12)
0x1fb0|                        03 00 00 00            |        ....    |        datum_len_: 3 0x1fb8-0x1fbb.7 (4)
0x1fb0|                                    00 00 00 00|            ....|        datum_typmod: 0 0x1fbc-0x1fbf.7 (4)
0x1fc0|03 00 00 00                                    |....            |        datum_typeid: 3 0x1fc0-0x1fc3.7 (4)
      |                                               |                |    t_ctid{}: 0x1fc4-0x1fc9.7 (6)
0x1fc0|            00 00 00 00                        |    ....        |      ip_blkid: 0 0x1fc4-0x1fc7.7 (4)
0x1fc0|                        01 00                  |        ..      |      ip_posid: 1 0x1fc8-0x1fc9.7 (2)
0x1fc0|                              06 00            |          ..    |    t_infomask2: 6 0x1fca-0x1fcb.7 (2)
      |                                               |                |    infomask2{}: 0x1fcc-NA (0)
      |                                               |                |      heap_keys_updated: false 0x1fcc-NA (0)
      |                                               |                |      heap_hot_updated: false 0x1fcc-NA (0)
      |                                               |                |      heap_only_tuple: false 0x1fcc-NA (0)
0x1fc0|                                    01 09      |            ..  |    t_infomask: 2305 0x1fcc-0x1fcd.7 (2)
      |                                               |                |    infomask{}: 0x1fce-NA (0)
      |                                               |                |      heap_hasnull: true 0x1fce-NA (0)
      |                                               |                |      heap_hasvarwidth: false 0x1fce-NA (0)
      |                                               |                |      heap_hasexternal: false 0x1fce-NA (0)
      |                                               |                |      heap_hasoid_old: false 0x1fce-NA (0)
      |                                               |                |      heap_xmax_keyshr_lock: false 0x1fce-NA (0)
      |                                               |                |      heap_combocid: false 0x1fce-NA (0)
      |                                               |                |      heap_xmax_excl_lock: false 0x1fce-NA (0)
      |                                               |                |      heap_xmax_lock_only: false 0x1fce-NA (0)
      |                                               |                |      heap_xmax_shr_lock: false 0x1fce-NA (0)
      |                                               |                |      heap_lock_mask: false 0x1fce-NA (0)
      |                                               |                |      heap_xmin_committed: true 0x1fce-NA (0)
      |                                               |                |      heap_xmin_invalid: false 0x1fce-NA (0)
      |                                               |                |      heap_xmin_frozen: true 0x1fce-NA (0)
      |                                               |                |      heap_xmax_committed: false 0x1fce-NA (0)
      |                                               |                |      heap_xmax_invalid: true 0x1fce-NA (0)
      |                                               |                |      heap_xmax_is_multi: false 0x1fce-NA (0)
      |                                               |                |      heap_updated: false 0x1fce-NA (0)
      |                                               |                |      heap_moved_off: false 0x1fce-NA (0)
      |                                               |                |      heap_moved_in: false 0x1fce-NA (0)
      |                                               |                |      heap_moved: false 0x1fce-NA (0)
0x1fc0|                                          18   |              . |    t_hoff: 24 0x1fce-0x1fce.7 (1)
0x1fc0|                                             1f|               .|    padding0: 31 0x1fcf-0x1fcf.7 (1)
0x1fd0|09 00 00 00 01 00 00 00 43 ff 00 00 f7 0e 00 00|........C.......|  data: "090000000100000043ff0000f70e000043c144237a88020..." (raw bits) 0x1fd0-0x1fe7.7 (24)
0x1fe0|43 c1 44 23 7a 88 02 00                        |C.D#z...        |
     |00 01 02 03 04 05 06 07 08 09 0a 0b 0c 0d 0e 0f|0123456789abcdef|.[0].tuples[155]{}: tuple 0x2a8-0x2d7.7 (48)
     |                                               |                |  header{}: 0x2a8-0x2bf.7 (24)
     |                                               |                |    t_choice{}: 0x2a8-0x2b3.7 (12)
     |                                               |                |      t_heap{}: 0x2a8-0x2b3.7 (12)
0x2a0|                        9e 00 00 00            |        ....    |        t_xmin: 158 0x2a8-0x2ab.7 (4)
0x2a0|                                    00 00 00 00|            ....|        t_xmax: 0 0x2ac-0x2af.7 (4)
     |                                               |                |        t_field3{}: 0x2b0-0x2b3.7 (4)
0x2b0|03 00 00 00                                    |....            |          t_cid: 3 0x2b0-0x2b3.7 (4)
0x2b0|03 00 00 00                                    |....            |          t_xvac: 3 0x2b0-0x2b3.7 (4)
     |                                               |                |      t_datum{}: 0x2a8-0x2b3.7 (12)
0x2a0|                        9e 00 00 00            |        ....    |        datum_len_: 158 0x2a8-0x2ab.7 (4)
0x2a0|                                    00 00 00 00|            ....|        datum_typmod: 0 0x2ac-0x2af.7 (4)
0x2b0|03 00 00 00                                    |....            |        datum_typeid: 3 0x2b0-0x2b3.7 (4)
     |                                               |                |    t_ctid{}: 0x2b4-0x2b9.7 (6)
0x2b0|            00 00 00 00                        |    ....        |      ip_blkid: 0 0x2b4-0x2b7.7 (4)
0x2b0|                        9c 00                  |        ..      |      ip_posid: 156 0x2b8-0x2b9.7 (2)
0x2b0|                              06 00            |          ..    |    t_infomask2: 6 0x2ba-0x2bb.7 (2)
     |                                               |                |    infomask2{}: 0x2bc-NA (0)
     |                                               |                |      heap_keys_updated: false 0x2bc-NA (0)
     |                                               |                |      heap_hot_updated: false 0x2bc-NA (0)
     |                                               |                |      heap_only_tuple: false 0x2bc-NA (0)
0x2b0|                                    01 09      |            ..  |    t_infomask: 2305 0x2bc-0x2bd.7 (2)
     |                                               |                |    infomask{}: 0x2be-NA (0)
     |                                               |                |      heap_hasnull: true 0x2be-NA (0)
     |                                               |                |      heap_hasvarwidth: false 0x2be-NA (0)
     |                                               |                |      heap_hasexternal: false 0x2be-NA (0)
     |                                               |                |      heap_hasoid_old: false 0x2be-NA (0)
     |                                               |                |      heap_xmax_keyshr_lock: false 0x2be-NA (0)
     |                                               |                |      heap_combocid: false 0x2be-NA (0)
     |                                               |                |      heap_xmax_excl_lock: false 0x2be-NA (0)
     |                                               |                |      heap_xmax_lock_only: false 0x2be-NA (0)
     |                                               |                |      heap_xmax_shr_lock: false 0x2be-NA (0)
     |                                               |                |      heap_lock_mask: false 0x2be-NA (0)
     |                                               |                |      heap_xmin_committed: true 0x2be-NA (0)
     |                                               |                |      heap_xmin_invalid: false 0x2be-NA (0)
     |                                               |                |      heap_xmin_frozen: true 0x2be-NA (0)
     |                                               |                |      heap_xmax_committed: false 0x2be-NA (0)
     |                                               |                |      heap_xmax_invalid: true 0x2be-NA (0)
     |                                               |                |      heap_xmax_is_multi: false 0x2be-NA (0)
     |                                               |                |      heap_updated: false 0x2be-NA (0)
     |                                               |                |      heap_moved_off: false 0x2be-NA (0)
     |                                               |                |      heap_moved_in: false 0x2be-NA (0)
     |                                               |                |      heap_moved: false 0x2be-NA (0)
0x2b0|                                          18   |              . |    t_hoff: 24 0x2be-0x2be.7 (1)
0x2b0|                                             1f|               .|    padding0: 31 0x2bf-0x2bf.7 (1)
0x2c0|09 00 00 00 01 00 00 00 17 13 00 00 50 ed ff ff|............P...|  data: "09000000010000001713000050edffffe8934c237a88020..." (raw bits) 0x2c0-0x2d7.7 (24)
0x2d0|e8 93 4c 23 7a 88 02 00                        |..L#z...        |
