$ fq -d pg_control -o flavour=pgproee10 dv pg_control
      |00 01 02 03 04 05 06 07 08 09 0a 0b 0c 0d 0e 0f|0123456789abcdef|.{}: pg_control (pg_control) 0x0-0x2000 (8192)
0x0000|5d f9 43 10 53 e5 ec 62                        |].C.S..b        |  system_identifier: 7128324455138589021 0x0-0x8 (8)
0x0000|                        ea 03 45 50            |        ..EP    |  pg_control_version: "Postgres Pro Enterprise 1002" (1346700266) 0x8-0xc (4)
0x0000|                                    ec d6 05 0c|            ....|  catalog_version_no: 201709292 0xc-0x10 (4)
0x0010|06 00 00 00                                    |....            |  state: "DB_IN_PRODUCTION" (6) 0x10-0x14 (4)
0x0010|            00 00 00 00                        |    ....        |  hole0: 0 0x14-0x18 (4)
0x0010|                        27 e8 ec 62 00 00 00 00|        '..b....|  time: "Fri, 05 Aug 2022 09:51:35 UTC" (1659693095) 0x18-0x20 (8)
0x0020|58 27 fc 02 00 00 00 00                        |X'......        |  check_point: "0/2FC2758" (50079576) 0x20-0x28 (8)
0x0020|                        68 26 fc 02 00 00 00 00|        h&......|  prev_check_point: "0/2FC2668" (50079336) 0x28-0x30 (8)
      |                                               |                |  check_point_copy{}: 0x30-0xa8 (120)
0x0030|08 27 fc 02 00 00 00 00                        |.'......        |    redo: "0/2FC2708" (50079496) 0x30-0x38 (8)
0x0030|                        01 00 00 00            |        ....    |    this_time_line_id: 1 0x38-0x3c (4)
0x0030|                                    01 00 00 00|            ....|    prev_time_line_id: 1 0x3c-0x40 (4)
0x0040|01                                             |.               |    full_page_writes: 1 0x40-0x41 (1)
0x0040|   00 00 00 00 00 00 00                        | .......        |    hole1: 0 0x41-0x48 (7)
0x0040|                        56 34 0c 54 02 00 00 00|        V4.T....|    next_xid: 10000020566 0x48-0x50 (8)
0x0050|00 60 00 00                                    |.`..            |    next_oid: 24576 0x50-0x54 (4)
0x0050|            00 00 00 00                        |    ....        |    hole2: 0 0x54-0x58 (4)
0x0050|                        00 f2 05 2a 01 00 00 00|        ...*....|    next_multi: 5000000000 0x58-0x60 (8)
0x0060|00 00 00 00 00 00 00 00                        |........        |    next_multi_offset: 0 0x60-0x68 (8)
0x0060|                        23 e6 0b 54 02 00 00 00|        #..T....|    oldest_xid: 10000000547 0x68-0x70 (8)
0x0070|01 00 00 00                                    |....            |    oldest_xid_db: 1 0x70-0x74 (4)
0x0070|            00 00 00 00                        |    ....        |    hole3: 0 0x74-0x78 (4)
0x0070|                        00 f2 05 2a 01 00 00 00|        ...*....|    oldest_multi: 5000000000 0x78-0x80 (8)
0x0080|01 00 00 00                                    |....            |    oldest_multi_db: 1 0x80-0x84 (4)
0x0080|            00 00 00 00                        |    ....        |    hole4: 0 0x84-0x88 (4)
0x0080|                        27 e8 ec 62 00 00 00 00|        '..b....|    time: "Fri, 05 Aug 2022 09:51:35 UTC" (1659693095) 0x88-0x90 (8)
0x0090|00 00 00 00 00 00 00 00                        |........        |    oldest_commit_ts_xid: 0 0x90-0x98 (8)
0x0090|                        00 00 00 00 00 00 00 00|        ........|    newest_commit_ts_xid: 0 0x98-0xa0 (8)
0x00a0|56 34 0c 54 02 00 00 00                        |V4.T....        |    oldest_active_xid: 10000020566 0xa0-0xa8 (8)
0x00a0|                        01 00 00 00 00 00 00 00|        ........|  unlogged_lsn: "0/1" (1) 0xa8-0xb0 (8)
0x00b0|00 00 00 00 00 00 00 00                        |........        |  min_recovery_point: "0/0" (0) 0xb0-0xb8 (8)
0x00b0|                        00 00 00 00            |        ....    |  min_recovery_point_tli: 0 0xb8-0xbc (4)
0x00b0|                                    00 00 00 00|            ....|  hole5: 0 0xbc-0xc0 (4)
0x00c0|00 00 00 00 00 00 00 00                        |........        |  backup_start_point: "0/0" (0) 0xc0-0xc8 (8)
0x00c0|                        00 00 00 00 00 00 00 00|        ........|  backup_end_point: "0/0" (0) 0xc8-0xd0 (8)
0x00d0|00                                             |.               |  backup_end_required: 0 0xd0-0xd1 (1)
0x00d0|   00 00 00                                    | ...            |  hole6: 0 0xd1-0xd4 (3)
0x00d0|            01 00 00 00                        |    ....        |  wal_level: "WAL_LEVEL_REPLICA" (1) 0xd4-0xd8 (4)
0x00d0|                        00                     |        .       |  wal_log_hints: 0 0xd8-0xd9 (1)
0x00d0|                           00 00 00            |         ...    |  hole7: 0 0xd9-0xdc (3)
0x00d0|                                    5d 00 00 00|            ]...|  max_connections: 93 0xdc-0xe0 (4)
0x00e0|08 00 00 00                                    |....            |  max_worker_processes: 8 0xe0-0xe4 (4)
0x00e0|            00 00 00 00                        |    ....        |  max_prepared_xacts: 0 0xe4-0xe8 (4)
0x00e0|                        40 00 00 00            |        @...    |  max_locks_per_xact: 64 0xe8-0xec (4)
0x00e0|                                    00         |            .   |  track_commit_timestamp: 0 0xec-0xed (1)
0x00e0|                                       00 00 00|             ...|  hole8: 0 0xed-0xf0 (3)
0x00f0|08 00 00 00                                    |....            |  max_align: 8 0xf0-0xf4 (4)
0x00f0|            00 00 00 00                        |    ....        |  hole9: 0 0xf4-0xf8 (4)
0x00f0|                        00 00 00 00 87 d6 32 41|        ......2A|  float_format: 1.234567e+06 0xf8-0x100 (8)
0x0100|00 20 00 00                                    |. ..            |  blcksz: 8192 0x100-0x104 (4)
0x0100|            00 00 02 00                        |    ....        |  relseg_size: 131072 0x104-0x108 (4)
0x0100|                        00 20 00 00            |        . ..    |  xlog_blcksz: 8192 0x108-0x10c (4)
0x0100|                                    00 00 00 01|            ....|  xlog_seg_size: 16777216 0x10c-0x110 (4)
0x0110|40 00 00 00                                    |@...            |  name_data_len: 64 0x110-0x114 (4)
0x0110|            20 00 00 00                        |     ...        |  index_max_keys: 32 0x114-0x118 (4)
0x0110|                        cc 07 00 00            |        ....    |  toast_max_chunk_size: 1996 0x118-0x11c (4)
0x0110|                                    00 08 00 00|            ....|  loblksize: 2048 0x11c-0x120 (4)
0x0120|01                                             |.               |  float4_by_val: 1 0x120-0x121 (1)
0x0120|   01                                          | .              |  float8_by_val: 1 0x121-0x122 (1)
0x0120|      00 00                                    |  ..            |  hole10: 0 0x122-0x124 (2)
0x0120|            01 00 00 00                        |    ....        |  data_checksum_version: 1 0x124-0x128 (4)
0x0120|                        39 2f 4a cd c5 9d 4d 3b|        9/J...M;|  mock_authentication_nonce: "392f4acdc59d4d3b2c9968b782191526dbfa9ba84acd37dc4f6f86e96acaf145" (raw bits) 0x128-0x148 (32)
0x0130|2c 99 68 b7 82 19 15 26 db fa 9b a8 4a cd 37 dc|,.h....&....J.7.|
0x0140|4f 6f 86 e9 6a ca f1 45                        |Oo..j..E        |
0x0140|                        3c 03 00 00            |        <...    |  icu_version: "60.3.0.0" (828) 0x148-0x14c (4)
0x0140|                                    00 00 ff ff|            ....|  pg_old_version: 4294901760 0x14c-0x150 (4)
0x0150|f6 54 89 ec                                    |.T..            |  crc: 3968423158 0x150-0x154 (4)
0x0150|            00 00 00 00                        |    ....        |  hole11: 0 0x154-0x158 (4)
0x0150|                        00 00 00 00 00 00 00 00|        ........|  unused: raw bits 0x158-0x2000 (7848)
0x0160|00 00 00 00 00 00 00 00 00 00 00 00 00 00 00 00|................|
*     |until 0x1fff.7 (end) (7848)                    |                |
