$ fq -d pg_control dv pg_control
      |00 01 02 03 04 05 06 07 08 09 0a 0b 0c 0d 0e 0f|0123456789abcdef|.{}: pg_control (pg_control) 0x0-0x1fff.7 (8192)
0x0000|5d f9 43 10 53 e5 ec 62                        |].C.S..b        |  system_identifier: 7128324455138589021 0x0-0x7.7 (8)
0x0000|                        ea 03 45 50            |        ..EP    |  pg_control_version: "Postgres Pro Enterprise 1002" (1346700266) 0x8-0xb.7 (4)
0x0000|                                    ec d6 05 0c|            ....|  catalog_version_no: 201709292 0xc-0xf.7 (4)
0x0010|06 00 00 00                                    |....            |  state: "DB_IN_PRODUCTION" (6) 0x10-0x13.7 (4)
0x0010|            00 00 00 00                        |    ....        |  hole0: 0 0x14-0x17.7 (4)
0x0010|                        27 e8 ec 62 00 00 00 00|        '..b....|  time: "Fri, 05 Aug 2022 09:51:35 UTC" (1659693095) 0x18-0x1f.7 (8)
0x0020|58 27 fc 02 00 00 00 00                        |X'......        |  check_point: "0/2FC2758" (50079576) 0x20-0x27.7 (8)
0x0020|                        68 26 fc 02 00 00 00 00|        h&......|  prev_check_point: "0/2FC2668" (50079336) 0x28-0x2f.7 (8)
      |                                               |                |  check_point_copy{}: 0x30-0xa7.7 (120)
0x0030|08 27 fc 02 00 00 00 00                        |.'......        |    redo: "0/2FC2708" (50079496) 0x30-0x37.7 (8)
0x0030|                        01 00 00 00            |        ....    |    this_time_line_id: 1 0x38-0x3b.7 (4)
0x0030|                                    01 00 00 00|            ....|    prev_time_line_id: 1 0x3c-0x3f.7 (4)
0x0040|01                                             |.               |    full_page_writes: 1 0x40-0x40.7 (1)
0x0040|   00 00 00 00 00 00 00                        | .......        |    hole1: 0 0x41-0x47.7 (7)
0x0040|                        56 34 0c 54 02 00 00 00|        V4.T....|    next_xid: 10000020566 0x48-0x4f.7 (8)
0x0050|00 60 00 00                                    |.`..            |    next_oid: 24576 0x50-0x53.7 (4)
0x0050|            00 00 00 00                        |    ....        |    hole2: 0 0x54-0x57.7 (4)
0x0050|                        00 f2 05 2a 01 00 00 00|        ...*....|    next_multi: 5000000000 0x58-0x5f.7 (8)
0x0060|00 00 00 00 00 00 00 00                        |........        |    next_multi_offset: 0 0x60-0x67.7 (8)
0x0060|                        23 e6 0b 54 02 00 00 00|        #..T....|    oldest_xid: 10000000547 0x68-0x6f.7 (8)
0x0070|01 00 00 00                                    |....            |    oldest_xid_db: 1 0x70-0x73.7 (4)
0x0070|            00 00 00 00                        |    ....        |    hole3: 0 0x74-0x77.7 (4)
0x0070|                        00 f2 05 2a 01 00 00 00|        ...*....|    oldest_multi: 5000000000 0x78-0x7f.7 (8)
0x0080|01 00 00 00                                    |....            |    oldest_multi_db: 1 0x80-0x83.7 (4)
0x0080|            00 00 00 00                        |    ....        |    hole4: 0 0x84-0x87.7 (4)
0x0080|                        27 e8 ec 62 00 00 00 00|        '..b....|    time: "Fri, 05 Aug 2022 09:51:35 UTC" (1659693095) 0x88-0x8f.7 (8)
0x0090|00 00 00 00 00 00 00 00                        |........        |    oldest_commit_ts_xid: 0 0x90-0x97.7 (8)
0x0090|                        00 00 00 00 00 00 00 00|        ........|    newest_commit_ts_xid: 0 0x98-0x9f.7 (8)
0x00a0|56 34 0c 54 02 00 00 00                        |V4.T....        |    oldest_active_xid: 10000020566 0xa0-0xa7.7 (8)
0x00a0|                        01 00 00 00 00 00 00 00|        ........|  unlogged_lsn: "0/1" (1) 0xa8-0xaf.7 (8)
0x00b0|00 00 00 00 00 00 00 00                        |........        |  min_recovery_point: "0/0" (0) 0xb0-0xb7.7 (8)
0x00b0|                        00 00 00 00            |        ....    |  min_recovery_point_tli: 0 0xb8-0xbb.7 (4)
0x00b0|                                    00 00 00 00|            ....|  hole5: 0 0xbc-0xbf.7 (4)
0x00c0|00 00 00 00 00 00 00 00                        |........        |  backup_start_point: "0/0" (0) 0xc0-0xc7.7 (8)
0x00c0|                        00 00 00 00 00 00 00 00|        ........|  backup_end_point: "0/0" (0) 0xc8-0xcf.7 (8)
0x00d0|00                                             |.               |  backup_end_required: 0 0xd0-0xd0.7 (1)
0x00d0|   00 00 00                                    | ...            |  hole6: 0 0xd1-0xd3.7 (3)
0x00d0|            01 00 00 00                        |    ....        |  wal_level: "WAL_LEVEL_REPLICA" (1) 0xd4-0xd7.7 (4)
0x00d0|                        00                     |        .       |  wal_log_hints: 0 0xd8-0xd8.7 (1)
0x00d0|                           00 00 00            |         ...    |  hole7: 0 0xd9-0xdb.7 (3)
0x00d0|                                    5d 00 00 00|            ]...|  max_connections: 93 0xdc-0xdf.7 (4)
0x00e0|08 00 00 00                                    |....            |  max_worker_processes: 8 0xe0-0xe3.7 (4)
0x00e0|            00 00 00 00                        |    ....        |  max_prepared_xacts: 0 0xe4-0xe7.7 (4)
0x00e0|                        40 00 00 00            |        @...    |  max_locks_per_xact: 64 0xe8-0xeb.7 (4)
0x00e0|                                    00         |            .   |  track_commit_timestamp: 0 0xec-0xec.7 (1)
0x00e0|                                       00 00 00|             ...|  hole8: 0 0xed-0xef.7 (3)
0x00f0|08 00 00 00                                    |....            |  max_align: 8 0xf0-0xf3.7 (4)
0x00f0|            00 00 00 00                        |    ....        |  hole9: 0 0xf4-0xf7.7 (4)
0x00f0|                        00 00 00 00 87 d6 32 41|        ......2A|  float_format: 1.234567e+06 0xf8-0xff.7 (8)
0x0100|00 20 00 00                                    |. ..            |  blcksz: 8192 0x100-0x103.7 (4)
0x0100|            00 00 02 00                        |    ....        |  relseg_size: 131072 0x104-0x107.7 (4)
0x0100|                        00 20 00 00            |        . ..    |  xlog_blcksz: 8192 0x108-0x10b.7 (4)
0x0100|                                    00 00 00 01|            ....|  xlog_seg_size: 16777216 0x10c-0x10f.7 (4)
0x0110|40 00 00 00                                    |@...            |  name_data_len: 64 0x110-0x113.7 (4)
0x0110|            20 00 00 00                        |     ...        |  index_max_keys: 32 0x114-0x117.7 (4)
0x0110|                        cc 07 00 00            |        ....    |  toast_max_chunk_size: 1996 0x118-0x11b.7 (4)
0x0110|                                    00 08 00 00|            ....|  loblksize: 2048 0x11c-0x11f.7 (4)
0x0120|01                                             |.               |  float4_by_val: 1 0x120-0x120.7 (1)
0x0120|   01                                          | .              |  float8_by_val: 1 0x121-0x121.7 (1)
0x0120|      00 00                                    |  ..            |  hole10: 0 0x122-0x123.7 (2)
0x0120|            01 00 00 00                        |    ....        |  data_checksum_version: 1 0x124-0x127.7 (4)
0x0120|                        39 2f 4a cd c5 9d 4d 3b|        9/J...M;|  mock_authentication_nonce: "392f4acdc59d4d3b2c9968b782191526dbfa9ba84acd37d..." (raw bits) 0x128-0x147.7 (32)
0x0130|2c 99 68 b7 82 19 15 26 db fa 9b a8 4a cd 37 dc|,.h....&....J.7.|
0x0140|4f 6f 86 e9 6a ca f1 45                        |Oo..j..E        |
0x0140|                        3c 03 00 00            |        <...    |  icu_version: "60.3.0.0" (828) 0x148-0x14b.7 (4)
0x0140|                                    00 00 ff ff|            ....|  pg_old_version: 4294901760 0x14c-0x14f.7 (4)
0x0150|f6 54 89 ec                                    |.T..            |  crc: 3968423158 0x150-0x153.7 (4)
0x0150|            00 00 00 00                        |    ....        |  hole11: 0 0x154-0x157.7 (4)
0x0150|                        00 00 00 00 00 00 00 00|        ........|  unused: raw bits 0x158-0x1fff.7 (7848)
0x0160|00 00 00 00 00 00 00 00 00 00 00 00 00 00 00 00|................|
*     |until 0x1fff.7 (end) (7848)                    |                |
