$ fq -d pg_heap -o flavour=pgpro14 ".[0].pd_linp[0,-1] | dv" 16396
    |00 01 02 03 04 05 06 07 08 09 0a 0b 0c 0d 0e 0f|0123456789abcdef|.[0].pd_linp[0]{}: item_id 0x18-0x1b.7 (4)
0x10|                        80 9f f2 00            |        ....    |  item_id_data: 15900544 0x18-0x1b.7 (4)
    |                                               |                |  lp_off: 8064 0x1c-NA (0)
    |                                               |                |  lp_flags: "LP_NORMAL" (1) 0x1c-NA (0)
    |                                               |                |  lp_len: 121 0x1c-NA (0)
     |00 01 02 03 04 05 06 07 08 09 0a 0b 0c 0d 0e 0f|0123456789abcdef|.[0].pd_linp[71]{}: item_id 0x134-0x137.7 (4)
0x130|            80 81 f2 00                        |    ....        |  item_id_data: 15892864 0x134-0x137.7 (4)
     |                                               |                |  lp_off: 384 0x138-NA (0)
     |                                               |                |  lp_flags: "LP_NORMAL" (1) 0x138-NA (0)
     |                                               |                |  lp_len: 121 0x138-NA (0)
