$ fq -d pg_btree ".[1].tuples[0,1,2,3,4,5,6,7,8,9] | dv" 16404
      |00 01 02 03 04 05 06 07 08 09 0a 0b 0c 0d 0e 0f|0123456789abcdef|.[1].tuples[0]{}: tuple 0x2900-0x2910 (16)
      |                                               |                |  index_tuple_data{}: 0x2900-0x2910 (16)
      |                                               |                |    t_tid{}: 0x2900-0x2906 (6)
0x2900|00 00 06 00                                    |....            |      ip_blkid: 393216 0x2900-0x2904 (4)
0x2900|            01 00                              |    ..          |      ip_posid: 1 0x2904-0x2906 (2)
0x2900|                  10 20                        |      .         |    t_info: 8208 0x2906-0x2908 (2)
      |                                               |                |    flags{}: 0x2908-0x2908 (0)
      |                                               |                |      has_nulls: false
      |                                               |                |      has_var_widths: false
      |                                               |                |    size: 16
0x2900|                        6f 01 00 00 00 00 00 00|        o.......|    data: raw bits 0x2908-0x2910 (8)
      |00 01 02 03 04 05 06 07 08 09 0a 0b 0c 0d 0e 0f|0123456789abcdef|.[1].tuples[1]{}: tuple 0x3fe0-0x3ff0 (16)
      |                                               |                |  index_tuple_data{}: 0x3fe0-0x3ff0 (16)
      |                                               |                |    t_tid{}: 0x3fe0-0x3fe6 (6)
0x3fe0|00 00 00 00                                    |....            |      ip_blkid: 0 0x3fe0-0x3fe4 (4)
0x3fe0|            01 00                              |    ..          |      ip_posid: 1 0x3fe4-0x3fe6 (2)
0x3fe0|                  10 00                        |      ..        |    t_info: 16 0x3fe6-0x3fe8 (2)
      |                                               |                |    flags{}: 0x3fe8-0x3fe8 (0)
      |                                               |                |      has_nulls: false
      |                                               |                |      has_var_widths: false
      |                                               |                |    size: 16
0x3fe0|                        01 00 00 00 00 00 00 00|        ........|    data: raw bits 0x3fe8-0x3ff0 (8)
      |00 01 02 03 04 05 06 07 08 09 0a 0b 0c 0d 0e 0f|0123456789abcdef|.[1].tuples[2]{}: tuple 0x3fd0-0x3fe0 (16)
      |                                               |                |  index_tuple_data{}: 0x3fd0-0x3fe0 (16)
      |                                               |                |    t_tid{}: 0x3fd0-0x3fd6 (6)
0x3fd0|00 00 00 00                                    |....            |      ip_blkid: 0 0x3fd0-0x3fd4 (4)
0x3fd0|            02 00                              |    ..          |      ip_posid: 2 0x3fd4-0x3fd6 (2)
0x3fd0|                  10 00                        |      ..        |    t_info: 16 0x3fd6-0x3fd8 (2)
      |                                               |                |    flags{}: 0x3fd8-0x3fd8 (0)
      |                                               |                |      has_nulls: false
      |                                               |                |      has_var_widths: false
      |                                               |                |    size: 16
0x3fd0|                        02 00 00 00 00 00 00 00|        ........|    data: raw bits 0x3fd8-0x3fe0 (8)
      |00 01 02 03 04 05 06 07 08 09 0a 0b 0c 0d 0e 0f|0123456789abcdef|.[1].tuples[3]{}: tuple 0x3fc0-0x3fd0 (16)
      |                                               |                |  index_tuple_data{}: 0x3fc0-0x3fd0 (16)
      |                                               |                |    t_tid{}: 0x3fc0-0x3fc6 (6)
0x3fc0|00 00 00 00                                    |....            |      ip_blkid: 0 0x3fc0-0x3fc4 (4)
0x3fc0|            03 00                              |    ..          |      ip_posid: 3 0x3fc4-0x3fc6 (2)
0x3fc0|                  10 00                        |      ..        |    t_info: 16 0x3fc6-0x3fc8 (2)
      |                                               |                |    flags{}: 0x3fc8-0x3fc8 (0)
      |                                               |                |      has_nulls: false
      |                                               |                |      has_var_widths: false
      |                                               |                |    size: 16
0x3fc0|                        03 00 00 00 00 00 00 00|        ........|    data: raw bits 0x3fc8-0x3fd0 (8)
      |00 01 02 03 04 05 06 07 08 09 0a 0b 0c 0d 0e 0f|0123456789abcdef|.[1].tuples[4]{}: tuple 0x3fb0-0x3fc0 (16)
      |                                               |                |  index_tuple_data{}: 0x3fb0-0x3fc0 (16)
      |                                               |                |    t_tid{}: 0x3fb0-0x3fb6 (6)
0x3fb0|00 00 00 00                                    |....            |      ip_blkid: 0 0x3fb0-0x3fb4 (4)
0x3fb0|            04 00                              |    ..          |      ip_posid: 4 0x3fb4-0x3fb6 (2)
0x3fb0|                  10 00                        |      ..        |    t_info: 16 0x3fb6-0x3fb8 (2)
      |                                               |                |    flags{}: 0x3fb8-0x3fb8 (0)
      |                                               |                |      has_nulls: false
      |                                               |                |      has_var_widths: false
      |                                               |                |    size: 16
0x3fb0|                        04 00 00 00 00 00 00 00|        ........|    data: raw bits 0x3fb8-0x3fc0 (8)
      |00 01 02 03 04 05 06 07 08 09 0a 0b 0c 0d 0e 0f|0123456789abcdef|.[1].tuples[5]{}: tuple 0x3fa0-0x3fb0 (16)
      |                                               |                |  index_tuple_data{}: 0x3fa0-0x3fb0 (16)
      |                                               |                |    t_tid{}: 0x3fa0-0x3fa6 (6)
0x3fa0|00 00 00 00                                    |....            |      ip_blkid: 0 0x3fa0-0x3fa4 (4)
0x3fa0|            05 00                              |    ..          |      ip_posid: 5 0x3fa4-0x3fa6 (2)
0x3fa0|                  10 00                        |      ..        |    t_info: 16 0x3fa6-0x3fa8 (2)
      |                                               |                |    flags{}: 0x3fa8-0x3fa8 (0)
      |                                               |                |      has_nulls: false
      |                                               |                |      has_var_widths: false
      |                                               |                |    size: 16
0x3fa0|                        05 00 00 00 00 00 00 00|        ........|    data: raw bits 0x3fa8-0x3fb0 (8)
      |00 01 02 03 04 05 06 07 08 09 0a 0b 0c 0d 0e 0f|0123456789abcdef|.[1].tuples[6]{}: tuple 0x3f90-0x3fa0 (16)
      |                                               |                |  index_tuple_data{}: 0x3f90-0x3fa0 (16)
      |                                               |                |    t_tid{}: 0x3f90-0x3f96 (6)
0x3f90|00 00 00 00                                    |....            |      ip_blkid: 0 0x3f90-0x3f94 (4)
0x3f90|            06 00                              |    ..          |      ip_posid: 6 0x3f94-0x3f96 (2)
0x3f90|                  10 00                        |      ..        |    t_info: 16 0x3f96-0x3f98 (2)
      |                                               |                |    flags{}: 0x3f98-0x3f98 (0)
      |                                               |                |      has_nulls: false
      |                                               |                |      has_var_widths: false
      |                                               |                |    size: 16
0x3f90|                        06 00 00 00 00 00 00 00|        ........|    data: raw bits 0x3f98-0x3fa0 (8)
      |00 01 02 03 04 05 06 07 08 09 0a 0b 0c 0d 0e 0f|0123456789abcdef|.[1].tuples[7]{}: tuple 0x3f80-0x3f90 (16)
      |                                               |                |  index_tuple_data{}: 0x3f80-0x3f90 (16)
      |                                               |                |    t_tid{}: 0x3f80-0x3f86 (6)
0x3f80|00 00 00 00                                    |....            |      ip_blkid: 0 0x3f80-0x3f84 (4)
0x3f80|            07 00                              |    ..          |      ip_posid: 7 0x3f84-0x3f86 (2)
0x3f80|                  10 00                        |      ..        |    t_info: 16 0x3f86-0x3f88 (2)
      |                                               |                |    flags{}: 0x3f88-0x3f88 (0)
      |                                               |                |      has_nulls: false
      |                                               |                |      has_var_widths: false
      |                                               |                |    size: 16
0x3f80|                        07 00 00 00 00 00 00 00|        ........|    data: raw bits 0x3f88-0x3f90 (8)
      |00 01 02 03 04 05 06 07 08 09 0a 0b 0c 0d 0e 0f|0123456789abcdef|.[1].tuples[8]{}: tuple 0x3f70-0x3f80 (16)
      |                                               |                |  index_tuple_data{}: 0x3f70-0x3f80 (16)
      |                                               |                |    t_tid{}: 0x3f70-0x3f76 (6)
0x3f70|00 00 00 00                                    |....            |      ip_blkid: 0 0x3f70-0x3f74 (4)
0x3f70|            08 00                              |    ..          |      ip_posid: 8 0x3f74-0x3f76 (2)
0x3f70|                  10 00                        |      ..        |    t_info: 16 0x3f76-0x3f78 (2)
      |                                               |                |    flags{}: 0x3f78-0x3f78 (0)
      |                                               |                |      has_nulls: false
      |                                               |                |      has_var_widths: false
      |                                               |                |    size: 16
0x3f70|                        08 00 00 00 00 00 00 00|        ........|    data: raw bits 0x3f78-0x3f80 (8)
      |00 01 02 03 04 05 06 07 08 09 0a 0b 0c 0d 0e 0f|0123456789abcdef|.[1].tuples[9]{}: tuple 0x3f60-0x3f70 (16)
      |                                               |                |  index_tuple_data{}: 0x3f60-0x3f70 (16)
      |                                               |                |    t_tid{}: 0x3f60-0x3f66 (6)
0x3f60|00 00 00 00                                    |....            |      ip_blkid: 0 0x3f60-0x3f64 (4)
0x3f60|            09 00                              |    ..          |      ip_posid: 9 0x3f64-0x3f66 (2)
0x3f60|                  10 00                        |      ..        |    t_info: 16 0x3f66-0x3f68 (2)
      |                                               |                |    flags{}: 0x3f68-0x3f68 (0)
      |                                               |                |      has_nulls: false
      |                                               |                |      has_var_widths: false
      |                                               |                |    size: 16
0x3f60|                        09 00 00 00 00 00 00 00|        ........|    data: raw bits 0x3f68-0x3f70 (8)
