# gm convert -size 4x4 'xc:#000' 4x4.jpg
$ fq -d jpeg dv 4x4.jpg
    |00 01 02 03 04 05 06 07 08 09 0a 0b 0c 0d 0e 0f|0123456789abcdef|.{}: 4x4.jpg (jpeg) 0x0-0xa0 (160)
    |                                               |                |  segments[0:9]: 0x0-0xa0 (160)
    |                                               |                |    [0]{}: marker 0x0-0x2 (2)
0x00|ff                                             |.               |      prefix: raw bits (valid) 0x0-0x1 (1)
0x00|   d8                                          | .              |      code: "soi" (216) (Start of image) 0x1-0x2 (1)
    |                                               |                |    [1]{}: marker 0x2-0x14 (18)
0x00|      ff                                       |  .             |      prefix: raw bits (valid) 0x2-0x3 (1)
0x00|         e0                                    |   .            |      code: "app0" (224) (Reserved for application segments) 0x3-0x4 (1)
0x00|            00 10                              |    ..          |      length: 16 0x4-0x6 (2)
0x00|                  4a 46 49 46 00               |      JFIF.     |      identifier: "JFIF\x00" 0x6-0xb (5)
    |                                               |                |      version{}: 0xb-0xd (2)
0x00|                                 01            |           .    |        major: 1 0xb-0xc (1)
0x00|                                    01         |            .   |        minor: 1 0xc-0xd (1)
0x00|                                       01      |             .  |      density_units: 1 0xd-0xe (1)
0x00|                                          00 48|              .H|      xdensity: 72 0xe-0x10 (2)
0x10|00 48                                          |.H              |      ydensity: 72 0x10-0x12 (2)
0x10|      00                                       |  .             |      xthumbnail: 0 0x12-0x13 (1)
0x10|         00                                    |   .            |      ythumbnail: 0 0x13-0x14 (1)
    |                                               |                |      data: raw bits 0x14-0x14 (0)
    |                                               |                |    [2]{}: marker 0x14-0x59 (69)
0x10|            ff                                 |    .           |      prefix: raw bits (valid) 0x14-0x15 (1)
0x10|               db                              |     .          |      code: "dqt" (219) (Define quantization table(s)) 0x15-0x16 (1)
0x10|                  00 43                        |      .C        |      lq: 67 0x16-0x18 (2)
    |                                               |                |      qs[0:1]: 0x18-0x59 (65)
    |                                               |                |        [0]{}: q 0x18-0x59 (65)
0x10|                        00                     |        .       |          pq: 0 0x18-0x18.4 (0.4)
0x10|                        00                     |        .       |          tq: 0 0x18.4-0x19 (0.4)
    |                                               |                |          q[0:64]: 0x19-0x59 (64)
0x10|                           08                  |         .      |            [0]: 8 q 0x19-0x1a (1)
0x10|                              06               |          .     |            [1]: 6 q 0x1a-0x1b (1)
0x10|                                 06            |           .    |            [2]: 6 q 0x1b-0x1c (1)
0x10|                                    07         |            .   |            [3]: 7 q 0x1c-0x1d (1)
0x10|                                       06      |             .  |            [4]: 6 q 0x1d-0x1e (1)
0x10|                                          05   |              . |            [5]: 5 q 0x1e-0x1f (1)
0x10|                                             08|               .|            [6]: 8 q 0x1f-0x20 (1)
0x20|07                                             |.               |            [7]: 7 q 0x20-0x21 (1)
0x20|   07                                          | .              |            [8]: 7 q 0x21-0x22 (1)
0x20|      07                                       |  .             |            [9]: 7 q 0x22-0x23 (1)
0x20|         09                                    |   .            |            [10]: 9 q 0x23-0x24 (1)
0x20|            09                                 |    .           |            [11]: 9 q 0x24-0x25 (1)
0x20|               08                              |     .          |            [12]: 8 q 0x25-0x26 (1)
0x20|                  0a                           |      .         |            [13]: 10 q 0x26-0x27 (1)
0x20|                     0c                        |       .        |            [14]: 12 q 0x27-0x28 (1)
0x20|                        14                     |        .       |            [15]: 20 q 0x28-0x29 (1)
0x20|                           0d                  |         .      |            [16]: 13 q 0x29-0x2a (1)
0x20|                              0c               |          .     |            [17]: 12 q 0x2a-0x2b (1)
0x20|                                 0b            |           .    |            [18]: 11 q 0x2b-0x2c (1)
0x20|                                    0b         |            .   |            [19]: 11 q 0x2c-0x2d (1)
0x20|                                       0c      |             .  |            [20]: 12 q 0x2d-0x2e (1)
0x20|                                          19   |              . |            [21]: 25 q 0x2e-0x2f (1)
0x20|                                             12|               .|            [22]: 18 q 0x2f-0x30 (1)
0x30|13                                             |.               |            [23]: 19 q 0x30-0x31 (1)
0x30|   0f                                          | .              |            [24]: 15 q 0x31-0x32 (1)
0x30|      14                                       |  .             |            [25]: 20 q 0x32-0x33 (1)
0x30|         1d                                    |   .            |            [26]: 29 q 0x33-0x34 (1)
0x30|            1a                                 |    .           |            [27]: 26 q 0x34-0x35 (1)
0x30|               1f                              |     .          |            [28]: 31 q 0x35-0x36 (1)
0x30|                  1e                           |      .         |            [29]: 30 q 0x36-0x37 (1)
0x30|                     1d                        |       .        |            [30]: 29 q 0x37-0x38 (1)
0x30|                        1a                     |        .       |            [31]: 26 q 0x38-0x39 (1)
0x30|                           1c                  |         .      |            [32]: 28 q 0x39-0x3a (1)
0x30|                              1c               |          .     |            [33]: 28 q 0x3a-0x3b (1)
0x30|                                 20            |                |            [34]: 32 q 0x3b-0x3c (1)
0x30|                                    24         |            $   |            [35]: 36 q 0x3c-0x3d (1)
0x30|                                       2e      |             .  |            [36]: 46 q 0x3d-0x3e (1)
0x30|                                          27   |              ' |            [37]: 39 q 0x3e-0x3f (1)
0x30|                                             20|                |            [38]: 32 q 0x3f-0x40 (1)
0x40|22                                             |"               |            [39]: 34 q 0x40-0x41 (1)
0x40|   2c                                          | ,              |            [40]: 44 q 0x41-0x42 (1)
0x40|      23                                       |  #             |            [41]: 35 q 0x42-0x43 (1)
0x40|         1c                                    |   .            |            [42]: 28 q 0x43-0x44 (1)
0x40|            1c                                 |    .           |            [43]: 28 q 0x44-0x45 (1)
0x40|               28                              |     (          |            [44]: 40 q 0x45-0x46 (1)
0x40|                  37                           |      7         |            [45]: 55 q 0x46-0x47 (1)
0x40|                     29                        |       )        |            [46]: 41 q 0x47-0x48 (1)
0x40|                        2c                     |        ,       |            [47]: 44 q 0x48-0x49 (1)
0x40|                           30                  |         0      |            [48]: 48 q 0x49-0x4a (1)
0x40|                              31               |          1     |            [49]: 49 q 0x4a-0x4b (1)
0x40|                                 34            |           4    |            [50]: 52 q 0x4b-0x4c (1)
0x40|                                    34         |            4   |            [51]: 52 q 0x4c-0x4d (1)
0x40|                                       34      |             4  |            [52]: 52 q 0x4d-0x4e (1)
0x40|                                          1f   |              . |            [53]: 31 q 0x4e-0x4f (1)
0x40|                                             27|               '|            [54]: 39 q 0x4f-0x50 (1)
0x50|39                                             |9               |            [55]: 57 q 0x50-0x51 (1)
0x50|   3d                                          | =              |            [56]: 61 q 0x51-0x52 (1)
0x50|      38                                       |  8             |            [57]: 56 q 0x52-0x53 (1)
0x50|         32                                    |   2            |            [58]: 50 q 0x53-0x54 (1)
0x50|            3c                                 |    <           |            [59]: 60 q 0x54-0x55 (1)
0x50|               2e                              |     .          |            [60]: 46 q 0x55-0x56 (1)
0x50|                  33                           |      3         |            [61]: 51 q 0x56-0x57 (1)
0x50|                     34                        |       4        |            [62]: 52 q 0x57-0x58 (1)
0x50|                        32                     |        2       |            [63]: 50 q 0x58-0x59 (1)
    |                                               |                |    [3]{}: marker 0x59-0x66 (13)
0x50|                           ff                  |         .      |      prefix: raw bits (valid) 0x59-0x5a (1)
0x50|                              c0               |          .     |      code: "sof0" (192) (Baseline DCT) 0x5a-0x5b (1)
0x50|                                 00 0b         |           ..   |      lf: 11 0x5b-0x5d (2)
0x50|                                       08      |             .  |      p: 8 0x5d-0x5e (1)
0x50|                                          00 04|              ..|      y: 4 0x5e-0x60 (2)
0x60|00 04                                          |..              |      x: 4 0x60-0x62 (2)
0x60|      01                                       |  .             |      nf: 1 0x62-0x63 (1)
    |                                               |                |      frame_components[0:1]: 0x63-0x66 (3)
    |                                               |                |        [0]{}: frame_component 0x63-0x66 (3)
0x60|         01                                    |   .            |          c: 1 0x63-0x64 (1)
0x60|            11                                 |    .           |          h: 1 0x64-0x64.4 (0.4)
0x60|            11                                 |    .           |          v: 1 0x64.4-0x65 (0.4)
0x60|               00                              |     .          |          tq: 0 0x65-0x66 (1)
    |                                               |                |    [4]{}: marker 0x66-0x7c (22)
0x60|                  ff                           |      .         |      prefix: raw bits (valid) 0x66-0x67 (1)
0x60|                     c4                        |       .        |      code: "dht" (196) (Define Huffman table(s)) 0x67-0x68 (1)
0x60|                        00 14                  |        ..      |      length: 20 0x68-0x6a (2)
0x60|                              00 01 00 00 00 00|          ......|      data: raw bits 0x6a-0x7c (18)
0x70|00 00 00 00 00 00 00 00 00 00 00 08            |............    |
    |                                               |                |    [5]{}: marker 0x7c-0x92 (22)
0x70|                                    ff         |            .   |      prefix: raw bits (valid) 0x7c-0x7d (1)
0x70|                                       c4      |             .  |      code: "dht" (196) (Define Huffman table(s)) 0x7d-0x7e (1)
0x70|                                          00 14|              ..|      length: 20 0x7e-0x80 (2)
0x80|10 01 00 00 00 00 00 00 00 00 00 00 00 00 00 00|................|      data: raw bits 0x80-0x92 (18)
0x90|00 00                                          |..              |
    |                                               |                |    [6]{}: marker 0x92-0x9c (10)
0x90|      ff                                       |  .             |      prefix: raw bits (valid) 0x92-0x93 (1)
0x90|         da                                    |   .            |      code: "sos" (218) (Start of scan) 0x93-0x94 (1)
0x90|            00 08                              |    ..          |      ls: 8 0x94-0x96 (2)
0x90|                  01                           |      .         |      ns: 1 0x96-0x97 (1)
    |                                               |                |      scan_components[0:1]: 0x97-0x99 (2)
    |                                               |                |        [0]{}: scan_component 0x97-0x99 (2)
0x90|                     01                        |       .        |          cs: 1 0x97-0x98 (1)
0x90|                        00                     |        .       |          td: 0 0x98-0x98.4 (0.4)
0x90|                        00                     |        .       |          ta: 0 0x98.4-0x99 (0.4)
0x90|                           00                  |         .      |      ss: 0 0x99-0x9a (1)
0x90|                              3f               |          ?     |      se: 63 0x9a-0x9b (1)
0x90|                                 00            |           .    |      ah: 0 0x9b-0x9b.4 (0.4)
0x90|                                 00            |           .    |      al: 0 0x9b.4-0x9c (0.4)
0x90|                                    3f bf      |            ?.  |    [7]: raw bits entropy_coded_data 0x9c-0x9e (2)
    |                                               |                |    [8]{}: marker 0x9e-0xa0 (2)
0x90|                                          ff   |              . |      prefix: raw bits (valid) 0x9e-0x9f (1)
0x90|                                             d9|               .|      code: "eoi" (217) (End of image true) 0x9f-0xa0 (1)
