# jp2c with 3 components
# gm convert -size 4x4 'gradient:#ff00ff-#00ff00' -colors 254 jp2c_3c.jp2
$ fq dv jp2c_3c.jp2
     |00 01 02 03 04 05 06 07 08 09 0a 0b 0c 0d 0e 0f|0123456789abcdef|.{}: jp2c_3c.jp2 (mp4) 0x0-0x18a (394)
     |                                               |                |  boxes[0:4]: 0x0-0x18a (394)
     |                                               |                |    [0]{}: box 0x0-0xc (12)
0x000|00 00 00 0c                                    |....            |      size: 12 0x0-0x4 (4)
0x000|            6a 50 20 20                        |    jP          |      type: "jP" (JPEG 2000 Signature) 0x4-0x8 (4)
0x000|                        0d 0a 87 0a            |        ....    |      signature: raw bits (valid) 0x8-0xc (4)
     |                                               |                |    [1]{}: box 0xc-0x20 (20)
0x000|                                    00 00 00 14|            ....|      size: 20 0xc-0x10 (4)
0x010|66 74 79 70                                    |ftyp            |      type: "ftyp" (File type and compatibility) 0x10-0x14 (4)
0x010|            6a 70 32 20                        |    jp2         |      major_brand: "jp2" 0x14-0x18 (4)
0x010|                        00 00 00 00            |        ....    |      minor_version: 0 0x18-0x1c (4)
     |                                               |                |      brands[0:1]: 0x1c-0x20 (4)
0x010|                                    6a 70 32 20|            jp2 |        [0]: "jp2" brand 0x1c-0x20 (4)
     |                                               |                |    [2]{}: box 0x20-0x4d (45)
0x020|00 00 00 2d                                    |...-            |      size: 45 0x20-0x24 (4)
0x020|            6a 70 32 68                        |    jp2h        |      type: "jp2h" (Header) 0x24-0x28 (4)
     |                                               |                |      boxes[0:2]: 0x28-0x4d (37)
     |                                               |                |        [0]{}: box 0x28-0x3e (22)
0x020|                        00 00 00 16            |        ....    |          size: 22 0x28-0x2c (4)
0x020|                                    69 68 64 72|            ihdr|          type: "ihdr" (Image Header) 0x2c-0x30 (4)
0x030|00 00 00 04                                    |....            |          width: 4 0x30-0x34 (4)
0x030|            00 00 00 04                        |    ....        |          height: 4 0x34-0x38 (4)
0x030|                        00 03                  |        ..      |          nc: 3 0x38-0x3a (2)
0x030|                              0f               |          .     |          bpc: 16 0x3a-0x3b (1)
0x030|                                 07            |           .    |          c: "jpeg_2000" (7) 0x3b-0x3c (1)
0x030|                                    00         |            .   |          unk_c: 0 0x3c-0x3d (1)
0x030|                                       00      |             .  |          ipr: 0 0x3d-0x3e (1)
     |                                               |                |        [1]{}: box 0x3e-0x4d (15)
0x030|                                          00 00|              ..|          size: 15 0x3e-0x42 (4)
0x040|00 0f                                          |..              |
0x040|      63 6f 6c 72                              |  colr          |          type: "colr" (Specifies the colourspace of the image) 0x42-0x46 (4)
0x040|                  01 00 00 00                  |      ....      |          parameter_type: "\x01\x00\x00\x00" 0x46-0x4a (4)
0x040|                              00 00 10         |          ...   |          data: raw bits 0x4a-0x4d (3)
     |                                               |                |    [3]{}: box 0x4d-0x18a (317)
0x040|                                       00 00 00|             ...|      size: 0 (Rest of file) 0x4d-0x51 (4)
0x050|00                                             |.               |
0x050|   6a 70 32 63                                 | jp2c           |      type: "jp2c" (JPEG 2000 contiguous codestream) 0x51-0x55 (4)
     |00 01 02 03 04 05 06 07 08 09 0a 0b 0c 0d 0e 0f|0123456789abcdef|      segments[0:13]: (jp2c) 0x55-0x18a (309)
     |                                               |                |        [0]{}: segment 0x55-0x57 (2)
0x050|               ff 4f                           |     .O         |          marker: "soc" (0xff4f) (Start of codestream) 0x55-0x57 (2)
     |                                               |                |        [1]{}: segment 0x57-0x88 (49)
0x050|                     ff 51                     |       .Q       |          marker: "siz" (0xff51) (Image and tile size) 0x57-0x59 (2)
0x050|                           00 2f               |         ./     |          l_siz: 47 0x59-0x5b (2)
0x050|                                 00 00         |           ..   |          r_siz: 0 0x5b-0x5d (2)
0x050|                                       00 00 00|             ...|          x_siz: 4 0x5d-0x61 (4)
0x060|04                                             |.               |
0x060|   00 00 00 04                                 | ....           |          y_siz: 4 0x61-0x65 (4)
0x060|               00 00 00 00                     |     ....       |          xo_siz: 0 0x65-0x69 (4)
0x060|                           00 00 00 00         |         ....   |          yo_siz: 0 0x69-0x6d (4)
0x060|                                       00 00 00|             ...|          xt_siz: 4 0x6d-0x71 (4)
0x070|04                                             |.               |
0x070|   00 00 00 04                                 | ....           |          yt_siz: 4 0x71-0x75 (4)
0x070|               00 00 00 00                     |     ....       |          xto_siz: 0 0x75-0x79 (4)
0x070|                           00 00 00 00         |         ....   |          yto_siz: 0 0x79-0x7d (4)
0x070|                                       00 03   |             .. |          c_siz: 3 0x7d-0x7f (2)
     |                                               |                |          components[0:3]: 0x7f-0x88 (9)
     |                                               |                |            [0]{}: component 0x7f-0x82 (3)
0x070|                                             0f|               .|              s_sizi: 15 0x7f-0x80 (1)
0x080|01                                             |.               |              xr_sizi: 1 0x80-0x81 (1)
0x080|   01                                          | .              |              yr_sizi: 1 0x81-0x82 (1)
     |                                               |                |            [1]{}: component 0x82-0x85 (3)
0x080|      0f                                       |  .             |              s_sizi: 15 0x82-0x83 (1)
0x080|         01                                    |   .            |              xr_sizi: 1 0x83-0x84 (1)
0x080|            01                                 |    .           |              yr_sizi: 1 0x84-0x85 (1)
     |                                               |                |            [2]{}: component 0x85-0x88 (3)
0x080|               0f                              |     .          |              s_sizi: 15 0x85-0x86 (1)
0x080|                  01                           |      .         |              xr_sizi: 1 0x86-0x87 (1)
0x080|                     01                        |       .        |              yr_sizi: 1 0x87-0x88 (1)
     |                                               |                |        [2]{}: segment 0x88-0xac (36)
0x080|                        ff 64                  |        .d      |          marker: "com" (0xff64) (Comment) 0x88-0x8a (2)
0x080|                              00 22            |          ."    |          length: 34 0x8a-0x8c (2)
0x080|                                    00 01      |            ..  |          r_cme: 1 0x8c-0x8e (2)
0x080|                                          43 72|              Cr|          data: "Creator: JasPer Version 2.0.33" 0x8e-0xac (30)
0x090|65 61 74 6f 72 3a 20 4a 61 73 50 65 72 20 56 65|eator: JasPer Ve|
0x0a0|72 73 69 6f 6e 20 32 2e 30 2e 33 33            |rsion 2.0.33    |
     |                                               |                |        [3]{}: segment 0xac-0xba (14)
0x0a0|                                    ff 52      |            .R  |          marker: "cod" (0xff52) (Coding style default) 0xac-0xae (2)
0x0a0|                                          00 0c|              ..|          length: 12 0xae-0xb0 (2)
0x0b0|00 00 00 01 01 05 04 04 00 01                  |..........      |          data: raw bits 0xb0-0xba (10)
     |                                               |                |        [4]{}: segment 0xba-0xcf (21)
0x0b0|                              ff 5c            |          .\    |          marker: "qcd" (0xff5c) (Quantization default) 0xba-0xbc (2)
0x0b0|                                    00 13      |            ..  |          length: 19 0xbc-0xbe (2)
0x0b0|                                          40 80|              @.|          data: raw bits 0xbe-0xcf (17)
0x0c0|88 88 90 88 88 90 88 88 90 88 88 90 88 88 90   |............... |
     |                                               |                |        [5]{}: segment 0xcf-0xe5 (22)
0x0c0|                                             ff|               .|          marker: "qcc" (0xff5d) (Quantization component) 0xcf-0xd1 (2)
0x0d0|5d                                             |]               |
0x0d0|   00 14                                       | ..             |          length: 20 0xd1-0xd3 (2)
0x0d0|         01 40 80 88 88 90 88 88 90 88 88 90 88|   .@...........|          data: raw bits 0xd3-0xe5 (18)
0x0e0|88 90 88 88 90                                 |.....           |
     |                                               |                |        [6]{}: segment 0xe5-0xfb (22)
0x0e0|               ff 5d                           |     .]         |          marker: "qcc" (0xff5d) (Quantization component) 0xe5-0xe7 (2)
0x0e0|                     00 14                     |       ..       |          length: 20 0xe7-0xe9 (2)
0x0e0|                           02 40 80 88 88 90 88|         .@.....|          data: raw bits 0xe9-0xfb (18)
0x0f0|88 90 88 88 90 88 88 90 88 88 90               |...........     |
     |                                               |                |        [7]{}: segment 0xfb-0x107 (12)
0x0f0|                                 ff 90         |           ..   |          marker: "sot" (0xff90) (Start of tile) 0xfb-0xfd (2)
0x0f0|                                       00 0a   |             .. |          l_sot: 10 0xfd-0xff (2)
0x0f0|                                             00|               .|          i_sot: 0 0xff-0x101 (2)
0x100|00                                             |.               |
0x100|   00 00 00 8d                                 | ....           |          p_sot: 141 0x101-0x105 (4)
0x100|               00                              |     .          |          tp_sot: 0 0x105-0x106 (1)
0x100|                  01                           |      .         |          tn_sot: 1 0x106-0x107 (1)
     |                                               |                |        [8]{}: segment 0x107-0x11d (22)
0x100|                     ff 5d                     |       .]       |          marker: "qcc" (0xff5d) (Quantization component) 0x107-0x109 (2)
0x100|                           00 14               |         ..     |          length: 20 0x109-0x10b (2)
0x100|                                 00 40 80 00 00|           .@...|          data: raw bits 0x10b-0x11d (18)
0x110|00 00 00 00 00 00 00 88 88 90 88 88 90         |.............   |
     |                                               |                |        [9]{}: segment 0x11d-0x133 (22)
0x110|                                       ff 5d   |             .] |          marker: "qcc" (0xff5d) (Quantization component) 0x11d-0x11f (2)
0x110|                                             00|               .|          length: 20 0x11f-0x121 (2)
0x120|14                                             |.               |
0x120|   01 40 80 00 00 00 00 00 00 00 00 00 88 88 90| .@.............|          data: raw bits 0x121-0x133 (18)
0x130|88 88 90                                       |...             |
     |                                               |                |        [10]{}: segment 0x133-0x149 (22)
0x130|         ff 5d                                 |   .]           |          marker: "qcc" (0xff5d) (Quantization component) 0x133-0x135 (2)
0x130|               00 14                           |     ..         |          length: 20 0x135-0x137 (2)
0x130|                     02 40 80 00 00 00 00 00 00|       .@.......|          data: raw bits 0x137-0x149 (18)
0x140|00 00 00 88 88 90 88 88 90                     |.........       |
     |                                               |                |        [11]{}: segment 0x149-0x188 (63)
0x140|                           ff 93               |         ..     |          marker: "sod" (0xff93) (Start of data) 0x149-0x14b (2)
0x140|                                 c0 00 21 07 cf|           ..!..|          data: raw bits 0x14b-0x188 (61)
0x150|fc 30 08 05 3f cf fc 30 08 05 3f 80 80 80 80 80|.0..?..0..?.....|
*    |until 0x187.7 (61)                             |                |
     |                                               |                |        [12]{}: segment 0x188-0x18a (2)
0x180|                        ff d9|                 |        ..|     |          marker: "eoc" (0xffd9) (End of codestream) 0x188-0x18a (2)
