# gm convert "xc:#000000" test.jp2
$ fq dv test.jp2
    |00 01 02 03 04 05 06 07 08 09 0a 0b 0c 0d 0e 0f|0123456789abcdef|.{}: test.jp2 (mp4) 0x0-0xf9 (249)
    |                                               |                |  boxes[0:4]: 0x0-0xf9 (249)
    |                                               |                |    [0]{}: box 0x0-0xc (12)
0x00|00 00 00 0c                                    |....            |      size: 12 0x0-0x4 (4)
0x00|            6a 50 20 20                        |    jP          |      type: "jP" (JPEG 2000 Signature) 0x4-0x8 (4)
0x00|                        0d 0a 87 0a            |        ....    |      signature: raw bits (valid) 0x8-0xc (4)
    |                                               |                |    [1]{}: box 0xc-0x20 (20)
0x00|                                    00 00 00 14|            ....|      size: 20 0xc-0x10 (4)
0x10|66 74 79 70                                    |ftyp            |      type: "ftyp" (File type and compatibility) 0x10-0x14 (4)
0x10|            6a 70 32 20                        |    jp2         |      major_brand: "jp2" 0x14-0x18 (4)
0x10|                        00 00 00 00            |        ....    |      minor_version: 0 0x18-0x1c (4)
    |                                               |                |      brands[0:1]: 0x1c-0x20 (4)
0x10|                                    6a 70 32 20|            jp2 |        [0]: "jp2" brand 0x1c-0x20 (4)
    |                                               |                |    [2]{}: box 0x20-0x4d (45)
0x20|00 00 00 2d                                    |...-            |      size: 45 0x20-0x24 (4)
0x20|            6a 70 32 68                        |    jp2h        |      type: "jp2h" (Header) 0x24-0x28 (4)
    |                                               |                |      boxes[0:2]: 0x28-0x4d (37)
    |                                               |                |        [0]{}: box 0x28-0x3e (22)
0x20|                        00 00 00 16            |        ....    |          size: 22 0x28-0x2c (4)
0x20|                                    69 68 64 72|            ihdr|          type: "ihdr" (Image Header) 0x2c-0x30 (4)
0x30|00 00 00 01                                    |....            |          width: 1 0x30-0x34 (4)
0x30|            00 00 00 01                        |    ....        |          height: 1 0x34-0x38 (4)
0x30|                        00 01                  |        ..      |          nc: 1 0x38-0x3a (2)
0x30|                              0f               |          .     |          bpc: 16 0x3a-0x3b (1)
0x30|                                 07            |           .    |          c: "jpeg_2000" (7) 0x3b-0x3c (1)
0x30|                                    00         |            .   |          unk_c: 0 0x3c-0x3d (1)
0x30|                                       00      |             .  |          ipr: 0 0x3d-0x3e (1)
    |                                               |                |        [1]{}: box 0x3e-0x4d (15)
0x30|                                          00 00|              ..|          size: 15 0x3e-0x42 (4)
0x40|00 0f                                          |..              |
0x40|      63 6f 6c 72                              |  colr          |          type: "colr" (Specifies the colourspace of the image) 0x42-0x46 (4)
0x40|                  01 00 00 00                  |      ....      |          parameter_type: "\x01\x00\x00\x00" 0x46-0x4a (4)
0x40|                              00 00 11         |          ...   |          data: raw bits 0x4a-0x4d (3)
    |                                               |                |    [3]{}: box 0x4d-0xf9 (172)
0x40|                                       00 00 00|             ...|      size: 0 (Rest of file) 0x4d-0x51 (4)
0x50|00                                             |.               |
0x50|   6a 70 32 63                                 | jp2c           |      type: "jp2c" (JPEG 2000 contiguous codestream) 0x51-0x55 (4)
    |00 01 02 03 04 05 06 07 08 09 0a 0b 0c 0d 0e 0f|0123456789abcdef|      segments[0:9]: (jp2c) 0x55-0xf9 (164)
    |                                               |                |        [0]{}: segment 0x55-0x57 (2)
0x50|               ff 4f                           |     .O         |          marker: "soc" (0xff4f) (Start of codestream) 0x55-0x57 (2)
    |                                               |                |        [1]{}: segment 0x57-0x82 (43)
0x50|                     ff 51                     |       .Q       |          marker: "siz" (0xff51) (Image and tile size) 0x57-0x59 (2)
0x50|                           00 29               |         .)     |          l_siz: 41 0x59-0x5b (2)
0x50|                                 00 00         |           ..   |          r_siz: 0 0x5b-0x5d (2)
0x50|                                       00 00 00|             ...|          x_siz: 1 0x5d-0x61 (4)
0x60|01                                             |.               |
0x60|   00 00 00 01                                 | ....           |          y_siz: 1 0x61-0x65 (4)
0x60|               00 00 00 00                     |     ....       |          xo_siz: 0 0x65-0x69 (4)
0x60|                           00 00 00 00         |         ....   |          yo_siz: 0 0x69-0x6d (4)
0x60|                                       00 00 00|             ...|          xt_siz: 1 0x6d-0x71 (4)
0x70|01                                             |.               |
0x70|   00 00 00 01                                 | ....           |          yt_siz: 1 0x71-0x75 (4)
0x70|               00 00 00 00                     |     ....       |          xto_siz: 0 0x75-0x79 (4)
0x70|                           00 00 00 00         |         ....   |          yto_siz: 0 0x79-0x7d (4)
0x70|                                       00 01   |             .. |          c_siz: 1 0x7d-0x7f (2)
    |                                               |                |          components[0:1]: 0x7f-0x82 (3)
    |                                               |                |            [0]{}: component 0x7f-0x82 (3)
0x70|                                             0f|               .|              s_sizi: 15 0x7f-0x80 (1)
0x80|01                                             |.               |              xr_sizi: 1 0x80-0x81 (1)
0x80|   01                                          | .              |              yr_sizi: 1 0x81-0x82 (1)
    |                                               |                |        [2]{}: segment 0x82-0xa6 (36)
0x80|      ff 64                                    |  .d            |          marker: "com" (0xff64) (Comment) 0x82-0x84 (2)
0x80|            00 22                              |    ."          |          length: 34 0x84-0x86 (2)
0x80|                  00 01                        |      ..        |          r_cme: 1 0x86-0x88 (2)
0x80|                        43 72 65 61 74 6f 72 3a|        Creator:|          data: "Creator: JasPer Version 2.0.33" 0x88-0xa6 (30)
0x90|20 4a 61 73 50 65 72 20 56 65 72 73 69 6f 6e 20| JasPer Version |
0xa0|32 2e 30 2e 33 33                              |2.0.33          |
    |                                               |                |        [3]{}: segment 0xa6-0xb4 (14)
0xa0|                  ff 52                        |      .R        |          marker: "cod" (0xff52) (Coding style default) 0xa6-0xa8 (2)
0xa0|                        00 0c                  |        ..      |          length: 12 0xa8-0xaa (2)
0xa0|                              00 00 00 01 00 05|          ......|          data: raw bits 0xaa-0xb4 (10)
0xb0|04 04 00 01                                    |....            |
    |                                               |                |        [4]{}: segment 0xb4-0xc9 (21)
0xb0|            ff 5c                              |    .\          |          marker: "qcd" (0xff5c) (Quantization default) 0xb4-0xb6 (2)
0xb0|                  00 13                        |      ..        |          length: 19 0xb6-0xb8 (2)
0xb0|                        40 80 88 88 90 88 88 90|        @.......|          data: raw bits 0xb8-0xc9 (17)
0xc0|88 88 90 88 88 90 88 88 90                     |.........       |
    |                                               |                |        [5]{}: segment 0xc9-0xd5 (12)
0xc0|                           ff 90               |         ..     |          marker: "sot" (0xff90) (Start of tile) 0xc9-0xcb (2)
0xc0|                                 00 0a         |           ..   |          l_sot: 10 0xcb-0xcd (2)
0xc0|                                       00 00   |             .. |          i_sot: 0 0xcd-0xcf (2)
0xc0|                                             00|               .|          p_sot: 46 0xcf-0xd3 (4)
0xd0|00 00 2e                                       |...             |
0xd0|         00                                    |   .            |          tp_sot: 0 0xd3-0xd4 (1)
0xd0|            01                                 |    .           |          tn_sot: 1 0xd4-0xd5 (1)
    |                                               |                |        [6]{}: segment 0xd5-0xeb (22)
0xd0|               ff 5d                           |     .]         |          marker: "qcc" (0xff5d) (Quantization component) 0xd5-0xd7 (2)
0xd0|                     00 14                     |       ..       |          length: 20 0xd7-0xd9 (2)
0xd0|                           00 40 80 00 00 00 00|         .@.....|          data: raw bits 0xd9-0xeb (18)
0xe0|00 00 00 00 00 00 00 00 00 00 00               |...........     |
    |                                               |                |        [7]{}: segment 0xeb-0xf7 (12)
0xe0|                                 ff 93         |           ..   |          marker: "sod" (0xff93) (Start of data) 0xeb-0xed (2)
0xe0|                                       df f8 90|             ...|          data: raw bits 0xed-0xf7 (10)
0xf0|08 07 80 80 80 80 80                           |.......         |
    |                                               |                |        [8]{}: segment 0xf7-0xf9 (2)
0xf0|                     ff d9|                    |       ..|      |          marker: "eoc" (0xffd9) (End of codestream) 0xf7-0xf9 (2)
