# ffmpeg -y -v trace -f lavfi -i testsrc -c:v librav1e -t 50ms av1.mp4
$ fq -d mp4 dv av1.mp4
      |00 01 02 03 04 05 06 07 08 09 0a 0b 0c 0d 0e 0f|0123456789abcdef|.{}: av1.mp4 (mp4) 0x0-0x14b2 (5298)
      |                                               |                |  boxes[0:4]: 0x0-0x14b2 (5298)
      |                                               |                |    [0]{}: box 0x0-0x1c (28)
0x0000|00 00 00 1c                                    |....            |      size: 28 0x0-0x4 (4)
0x0000|            66 74 79 70                        |    ftyp        |      type: "ftyp" (File type and compatibility) 0x4-0x8 (4)
0x0000|                        69 73 6f 6d            |        isom    |      major_brand: "isom" 0x8-0xc (4)
0x0000|                                    00 00 02 00|            ....|      minor_version: 512 0xc-0x10 (4)
      |                                               |                |      brands[0:3]: 0x10-0x1c (12)
0x0010|69 73 6f 6d                                    |isom            |        [0]: "isom" brand (All files based on the ISO Base Media File Format) 0x10-0x14 (4)
0x0010|            69 73 6f 32                        |    iso2        |        [1]: "iso2" brand (All files based on the 2004 edition of the ISO file format) 0x14-0x18 (4)
0x0010|                        6d 70 34 31            |        mp41    |        [2]: "mp41" brand (MP4 version 1) 0x18-0x1c (4)
      |                                               |                |    [1]{}: box 0x1c-0x24 (8)
0x0010|                                    00 00 00 08|            ....|      size: 8 0x1c-0x20 (4)
0x0020|66 72 65 65                                    |free            |      type: "free" (Free space) 0x20-0x24 (4)
      |                                               |                |      data: raw bits 0x24-0x24 (0)
      |                                               |                |    [2]{}: box 0x24-0x11c0 (4508)
0x0020|            00 00 11 9c                        |    ....        |      size: 4508 0x24-0x28 (4)
0x0020|                        6d 64 61 74            |        mdat    |      type: "mdat" (Media data container) 0x28-0x2c (4)
0x0020|                                    0a 0d 20 00|            .. .|      data: raw bits 0x2c-0x11c0 (4500)
0x0030|00 fa 1e 7f de 21 0a d0 20 20 25 1a 10 10 02 27|.....!..  %....'|
*     |until 0x11bf.7 (4500)                          |                |
      |                                               |                |    [3]{}: box 0x11c0-0x14b2 (754)
0x11c0|00 00 02 f2                                    |....            |      size: 754 0x11c0-0x11c4 (4)
0x11c0|            6d 6f 6f 76                        |    moov        |      type: "moov" (Container for all the meta-data) 0x11c4-0x11c8 (4)
      |                                               |                |      boxes[0:3]: 0x11c8-0x14b2 (746)
      |                                               |                |        [0]{}: box 0x11c8-0x1234 (108)
0x11c0|                        00 00 00 6c            |        ...l    |          size: 108 0x11c8-0x11cc (4)
0x11c0|                                    6d 76 68 64|            mvhd|          type: "mvhd" (Movie header, overall declarations) 0x11cc-0x11d0 (4)
0x11d0|00                                             |.               |          version: 0 0x11d0-0x11d1 (1)
0x11d0|   00 00 00                                    | ...            |          flags: 0 0x11d1-0x11d4 (3)
0x11d0|            00 00 00 00                        |    ....        |          creation_time: 0 (1904-01-01T00:00:00Z) 0x11d4-0x11d8 (4)
0x11d0|                        00 00 00 00            |        ....    |          modification_time: 0 (1904-01-01T00:00:00Z) 0x11d8-0x11dc (4)
0x11d0|                                    00 00 03 e8|            ....|          time_scale: 1000 0x11dc-0x11e0 (4)
0x11e0|00 00 00 28                                    |...(            |          duration: 40 0x11e0-0x11e4 (4)
0x11e0|            00 01 00 00                        |    ....        |          preferred_rate: 1 0x11e4-0x11e8 (4)
0x11e0|                        01 00                  |        ..      |          preferred_volume: 1 0x11e8-0x11ea (2)
0x11e0|                              00 00 00 00 00 00|          ......|          reserved: "\x00\x00\x00\x00\x00\x00\x00\x00\x00\x00" 0x11ea-0x11f4 (10)
0x11f0|00 00 00 00                                    |....            |
      |                                               |                |          matrix_structure{}: 0x11f4-0x1218 (36)
0x11f0|            00 01 00 00                        |    ....        |            a: 1 0x11f4-0x11f8 (4)
0x11f0|                        00 00 00 00            |        ....    |            b: 0 0x11f8-0x11fc (4)
0x11f0|                                    00 00 00 00|            ....|            u: 0 0x11fc-0x1200 (4)
0x1200|00 00 00 00                                    |....            |            c: 0 0x1200-0x1204 (4)
0x1200|            00 01 00 00                        |    ....        |            d: 1 0x1204-0x1208 (4)
0x1200|                        00 00 00 00            |        ....    |            v: 0 0x1208-0x120c (4)
0x1200|                                    00 00 00 00|            ....|            x: 0 0x120c-0x1210 (4)
0x1210|00 00 00 00                                    |....            |            y: 0 0x1210-0x1214 (4)
0x1210|            40 00 00 00                        |    @...        |            w: 1 0x1214-0x1218 (4)
0x1210|                        00 00 00 00            |        ....    |          preview_time: 0 0x1218-0x121c (4)
0x1210|                                    00 00 00 00|            ....|          preview_duration: 0 0x121c-0x1220 (4)
0x1220|00 00 00 00                                    |....            |          poster_time: 0 0x1220-0x1224 (4)
0x1220|            00 00 00 00                        |    ....        |          selection_time: 0 0x1224-0x1228 (4)
0x1220|                        00 00 00 00            |        ....    |          selection_duration: 0 0x1228-0x122c (4)
0x1220|                                    00 00 00 00|            ....|          current_time: 0 0x122c-0x1230 (4)
0x1230|00 00 00 02                                    |....            |          next_track_id: 2 0x1230-0x1234 (4)
      |                                               |                |        [1]{}: box 0x1234-0x1450 (540)
0x1230|            00 00 02 1c                        |    ....        |          size: 540 0x1234-0x1238 (4)
0x1230|                        74 72 61 6b            |        trak    |          type: "trak" (Container for an individual track or stream) 0x1238-0x123c (4)
      |                                               |                |          boxes[0:3]: 0x123c-0x1450 (532)
      |                                               |                |            [0]{}: box 0x123c-0x1298 (92)
0x1230|                                    00 00 00 5c|            ...\|              size: 92 0x123c-0x1240 (4)
0x1240|74 6b 68 64                                    |tkhd            |              type: "tkhd" (Track header, overall information about the track) 0x1240-0x1244 (4)
0x1240|            00                                 |    .           |              version: 0 0x1244-0x1245 (1)
      |                                               |                |              flags{}: 0x1245-0x1248 (3)
0x1240|               00 00 03                        |     ...        |                unused: 0 0x1245-0x1247.4 (2.4)
0x1240|                     03                        |       .        |                size_is_aspect_ratio: false 0x1247.4-0x1247.5 (0.1)
0x1240|                     03                        |       .        |                in_preview: false 0x1247.5-0x1247.6 (0.1)
0x1240|                     03                        |       .        |                in_movie: true 0x1247.6-0x1247.7 (0.1)
0x1240|                     03                        |       .        |                enabled: true 0x1247.7-0x1248 (0.1)
0x1240|                        00 00 00 00            |        ....    |              creation_time: 0 (1904-01-01T00:00:00Z) 0x1248-0x124c (4)
0x1240|                                    00 00 00 00|            ....|              modification_time: 0 (1904-01-01T00:00:00Z) 0x124c-0x1250 (4)
0x1250|00 00 00 01                                    |....            |              track_id: 1 0x1250-0x1254 (4)
0x1250|            00 00 00 00                        |    ....        |              reserved1: 0 0x1254-0x1258 (4)
0x1250|                        00 00 00 28            |        ...(    |              duration: 40 0x1258-0x125c (4)
0x1250|                                    00 00 00 00|            ....|              reserved2: raw bits 0x125c-0x1264 (8)
0x1260|00 00 00 00                                    |....            |
0x1260|            00 00                              |    ..          |              layer: 0 0x1264-0x1266 (2)
0x1260|                  00 00                        |      ..        |              alternate_group: 0 0x1266-0x1268 (2)
0x1260|                        00 00                  |        ..      |              volume: 0 0x1268-0x126a (2)
0x1260|                              00 00            |          ..    |              reserved3: 0 0x126a-0x126c (2)
      |                                               |                |              matrix_structure{}: 0x126c-0x1290 (36)
0x1260|                                    00 01 00 00|            ....|                a: 1 0x126c-0x1270 (4)
0x1270|00 00 00 00                                    |....            |                b: 0 0x1270-0x1274 (4)
0x1270|            00 00 00 00                        |    ....        |                u: 0 0x1274-0x1278 (4)
0x1270|                        00 00 00 00            |        ....    |                c: 0 0x1278-0x127c (4)
0x1270|                                    00 01 00 00|            ....|                d: 1 0x127c-0x1280 (4)
0x1280|00 00 00 00                                    |....            |                v: 0 0x1280-0x1284 (4)
0x1280|            00 00 00 00                        |    ....        |                x: 0 0x1284-0x1288 (4)
0x1280|                        00 00 00 00            |        ....    |                y: 0 0x1288-0x128c (4)
0x1280|                                    40 00 00 00|            @...|                w: 1 0x128c-0x1290 (4)
0x1290|01 40 00 00                                    |.@..            |              track_width: 320 0x1290-0x1294 (4)
0x1290|            00 f0 00 00                        |    ....        |              track_height: 240 0x1294-0x1298 (4)
      |                                               |                |            [1]{}: box 0x1298-0x12bc (36)
0x1290|                        00 00 00 24            |        ...$    |              size: 36 0x1298-0x129c (4)
0x1290|                                    65 64 74 73|            edts|              type: "edts" (Edit list container) 0x129c-0x12a0 (4)
      |                                               |                |              boxes[0:1]: 0x12a0-0x12bc (28)
      |                                               |                |                [0]{}: box 0x12a0-0x12bc (28)
0x12a0|00 00 00 1c                                    |....            |                  size: 28 0x12a0-0x12a4 (4)
0x12a0|            65 6c 73 74                        |    elst        |                  type: "elst" (An edit list) 0x12a4-0x12a8 (4)
0x12a0|                        00                     |        .       |                  version: 0 0x12a8-0x12a9 (1)
0x12a0|                           00 00 00            |         ...    |                  flags: 0 0x12a9-0x12ac (3)
0x12a0|                                    00 00 00 01|            ....|                  entry_count: 1 0x12ac-0x12b0 (4)
      |                                               |                |                  entries[0:1]: 0x12b0-0x12bc (12)
      |                                               |                |                    [0]{}: entry 0x12b0-0x12bc (12)
0x12b0|00 00 00 28                                    |...(            |                      segment_duration: 40 0x12b0-0x12b4 (4)
0x12b0|            00 00 00 00                        |    ....        |                      media_time: 0 0x12b4-0x12b8 (4)
0x12b0|                        00 01 00 00            |        ....    |                      media_rate: 1 0x12b8-0x12bc (4)
      |                                               |                |            [2]{}: box 0x12bc-0x1450 (404)
0x12b0|                                    00 00 01 94|            ....|              size: 404 0x12bc-0x12c0 (4)
0x12c0|6d 64 69 61                                    |mdia            |              type: "mdia" (Container for the media information in a track) 0x12c0-0x12c4 (4)
      |                                               |                |              boxes[0:3]: 0x12c4-0x1450 (396)
      |                                               |                |                [0]{}: box 0x12c4-0x12e4 (32)
0x12c0|            00 00 00 20                        |    ...         |                  size: 32 0x12c4-0x12c8 (4)
0x12c0|                        6d 64 68 64            |        mdhd    |                  type: "mdhd" (Media header, overall information about the media) 0x12c8-0x12cc (4)
0x12c0|                                    00         |            .   |                  version: 0 0x12cc-0x12cd (1)
0x12c0|                                       00 00 00|             ...|                  flags: 0 0x12cd-0x12d0 (3)
0x12d0|00 00 00 00                                    |....            |                  creation_time: 0 (1904-01-01T00:00:00Z) 0x12d0-0x12d4 (4)
0x12d0|            00 00 00 00                        |    ....        |                  modification_time: 0 (1904-01-01T00:00:00Z) 0x12d4-0x12d8 (4)
0x12d0|                        00 00 32 00            |        ..2.    |                  time_scale: 12800 0x12d8-0x12dc (4)
0x12d0|                                    00 00 02 00|            ....|                  duration: 512 0x12dc-0x12e0 (4)
0x12e0|55 c4                                          |U.              |                  language: "und" 0x12e0-0x12e2 (2)
0x12e0|      00 00                                    |  ..            |                  quality: 0 0x12e2-0x12e4 (2)
      |                                               |                |                [1]{}: box 0x12e4-0x1311 (45)
0x12e0|            00 00 00 2d                        |    ...-        |                  size: 45 0x12e4-0x12e8 (4)
0x12e0|                        68 64 6c 72            |        hdlr    |                  type: "hdlr" (Handler, declares the media (handler) type) 0x12e8-0x12ec (4)
0x12e0|                                    00         |            .   |                  version: 0 0x12ec-0x12ed (1)
0x12e0|                                       00 00 00|             ...|                  flags: 0 0x12ed-0x12f0 (3)
0x12f0|00 00 00 00                                    |....            |                  component_type: "" 0x12f0-0x12f4 (4)
0x12f0|            76 69 64 65                        |    vide        |                  component_subtype: "vide" (Video Track) 0x12f4-0x12f8 (4)
0x12f0|                        00 00 00 00            |        ....    |                  component_manufacturer: "" 0x12f8-0x12fc (4)
0x12f0|                                    00 00 00 00|            ....|                  component_flags: 0 0x12fc-0x1300 (4)
0x1300|00 00 00 00                                    |....            |                  component_flags_mask: 0 0x1300-0x1304 (4)
0x1300|            56 69 64 65 6f 48 61 6e 64 6c 65 72|    VideoHandler|                  component_name: "VideoHandler" 0x1304-0x1311 (13)
0x1310|00                                             |.               |
      |                                               |                |                [2]{}: box 0x1311-0x1450 (319)
0x1310|   00 00 01 3f                                 | ...?           |                  size: 319 0x1311-0x1315 (4)
0x1310|               6d 69 6e 66                     |     minf       |                  type: "minf" (Media information container) 0x1315-0x1319 (4)
      |                                               |                |                  boxes[0:3]: 0x1319-0x1450 (311)
      |                                               |                |                    [0]{}: box 0x1319-0x132d (20)
0x1310|                           00 00 00 14         |         ....   |                      size: 20 0x1319-0x131d (4)
0x1310|                                       76 6d 68|             vmh|                      type: "vmhd" (Video media header, overall information (video track only)) 0x131d-0x1321 (4)
0x1320|64                                             |d               |
0x1320|   00                                          | .              |                      version: 0 0x1321-0x1322 (1)
0x1320|      00 00 01                                 |  ...           |                      flags: 1 0x1322-0x1325 (3)
0x1320|               00 00                           |     ..         |                      graphicsmode: 0 0x1325-0x1327 (2)
      |                                               |                |                      opcolor[0:3]: 0x1327-0x132d (6)
0x1320|                     00 00                     |       ..       |                        [0]: 0 value 0x1327-0x1329 (2)
0x1320|                           00 00               |         ..     |                        [1]: 0 value 0x1329-0x132b (2)
0x1320|                                 00 00         |           ..   |                        [2]: 0 value 0x132b-0x132d (2)
      |                                               |                |                    [1]{}: box 0x132d-0x1351 (36)
0x1320|                                       00 00 00|             ...|                      size: 36 0x132d-0x1331 (4)
0x1330|24                                             |$               |
0x1330|   64 69 6e 66                                 | dinf           |                      type: "dinf" (Data information box, container) 0x1331-0x1335 (4)
      |                                               |                |                      boxes[0:1]: 0x1335-0x1351 (28)
      |                                               |                |                        [0]{}: box 0x1335-0x1351 (28)
0x1330|               00 00 00 1c                     |     ....       |                          size: 28 0x1335-0x1339 (4)
0x1330|                           64 72 65 66         |         dref   |                          type: "dref" (Data reference box, declares source(s) of media data in track) 0x1339-0x133d (4)
0x1330|                                       00      |             .  |                          version: 0 0x133d-0x133e (1)
0x1330|                                          00 00|              ..|                          flags: 0 0x133e-0x1341 (3)
0x1340|00                                             |.               |
0x1340|   00 00 00 01                                 | ....           |                          entry_count: 1 0x1341-0x1345 (4)
      |                                               |                |                          boxes[0:1]: 0x1345-0x1351 (12)
      |                                               |                |                            [0]{}: box 0x1345-0x1351 (12)
0x1340|               00 00 00 0c                     |     ....       |                              size: 12 0x1345-0x1349 (4)
0x1340|                           75 72 6c 20         |         url    |                              type: "url" 0x1349-0x134d (4)
0x1340|                                       00      |             .  |                              version: 0 0x134d-0x134e (1)
0x1340|                                          00 00|              ..|                              flags: 1 0x134e-0x1351 (3)
0x1350|01                                             |.               |
      |                                               |                |                              data: "" 0x1351-0x1351 (0)
      |                                               |                |                    [2]{}: box 0x1351-0x1450 (255)
0x1350|   00 00 00 ff                                 | ....           |                      size: 255 0x1351-0x1355 (4)
0x1350|               73 74 62 6c                     |     stbl       |                      type: "stbl" (Sample table box, container for the time/space map) 0x1355-0x1359 (4)
      |                                               |                |                      boxes[0:5]: 0x1359-0x1450 (247)
      |                                               |                |                        [0]{}: box 0x1359-0x13f4 (155)
0x1350|                           00 00 00 9b         |         ....   |                          size: 155 0x1359-0x135d (4)
0x1350|                                       73 74 73|             sts|                          type: "stsd" (Sample descriptions (codec types, initialization etc.)) 0x135d-0x1361 (4)
0x1360|64                                             |d               |
0x1360|   00                                          | .              |                          version: 0 0x1361-0x1362 (1)
0x1360|      00 00 00                                 |  ...           |                          flags: 0 0x1362-0x1365 (3)
0x1360|               00 00 00 01                     |     ....       |                          entry_count: 1 0x1365-0x1369 (4)
      |                                               |                |                          boxes[0:1]: 0x1369-0x13f4 (139)
      |                                               |                |                            [0]{}: box 0x1369-0x13f4 (139)
0x1360|                           00 00 00 8b         |         ....   |                              size: 139 0x1369-0x136d (4)
0x1360|                                       61 76 30|             av0|                              type: "av01" (AV1 video) 0x136d-0x1371 (4)
0x1370|31                                             |1               |
0x1370|   00 00 00 00 00 00                           | ......         |                              reserved: raw bits 0x1371-0x1377 (6)
0x1370|                     00 01                     |       ..       |                              data_reference_index: 1 0x1377-0x1379 (2)
0x1370|                           00 00               |         ..     |                              version: 0 0x1379-0x137b (2)
0x1370|                                 00 00         |           ..   |                              revision_level: 0 0x137b-0x137d (2)
0x1370|                                       00 00 00|             ...|                              max_packet_size: 0 0x137d-0x1381 (4)
0x1380|00                                             |.               |
0x1380|   00 00 00 00                                 | ....           |                              temporal_quality: 0 0x1381-0x1385 (4)
0x1380|               00 00 00 00                     |     ....       |                              spatial_quality: 0 0x1385-0x1389 (4)
0x1380|                           01 40               |         .@     |                              width: 320 0x1389-0x138b (2)
0x1380|                                 00 f0         |           ..   |                              height: 240 0x138b-0x138d (2)
0x1380|                                       00 48 00|             .H.|                              horizontal_resolution: 72 0x138d-0x1391 (4)
0x1390|00                                             |.               |
0x1390|   00 48 00 00                                 | .H..           |                              vertical_resolution: 72 0x1391-0x1395 (4)
0x1390|               00 00 00 00                     |     ....       |                              data_size: 0 0x1395-0x1399 (4)
0x1390|                           00 01               |         ..     |                              frame_count: 1 0x1399-0x139b (2)
0x1390|                                 00 00 00 00 00|           .....|                              compressor_name: "" 0x139b-0x13bb (32)
0x13a0|00 00 00 00 00 00 00 00 00 00 00 00 00 00 00 00|................|
0x13b0|00 00 00 00 00 00 00 00 00 00 00               |...........     |
0x13b0|                                 00 18         |           ..   |                              depth: 24 0x13bb-0x13bd (2)
0x13b0|                                       ff ff   |             .. |                              color_table_id: -1 0x13bd-0x13bf (2)
      |                                               |                |                              boxes[0:3]: 0x13bf-0x13f4 (53)
      |                                               |                |                                [0]{}: box 0x13bf-0x13da (27)
0x13b0|                                             00|               .|                                  size: 27 0x13bf-0x13c3 (4)
0x13c0|00 00 1b                                       |...             |
0x13c0|         61 76 31 43                           |   av1C         |                                  type: "av1C" 0x13c3-0x13c7 (4)
      |00 01 02 03 04 05 06 07 08 09 0a 0b 0c 0d 0e 0f|0123456789abcdef|                                  descriptor{}: (av1_ccr) 0x13c7-0x13da (19)
0x13c0|                     81                        |       .        |                                    marker: 1 0x13c7-0x13c7.1 (0.1)
0x13c0|                     81                        |       .        |                                    version: 1 0x13c7.1-0x13c8 (0.7)
0x13c0|                        3f                     |        ?       |                                    seq_profile: 1 0x13c8-0x13c8.3 (0.3)
0x13c0|                        3f                     |        ?       |                                    seq_level_idx_0: 31 0x13c8.3-0x13c9 (0.5)
0x13c0|                           00                  |         .      |                                    seq_tier_0: 0 0x13c9-0x13c9.1 (0.1)
0x13c0|                           00                  |         .      |                                    high_bitdepth: 0 0x13c9.1-0x13c9.2 (0.1)
0x13c0|                           00                  |         .      |                                    twelve_bit: 0 0x13c9.2-0x13c9.3 (0.1)
0x13c0|                           00                  |         .      |                                    monochrome: 0 0x13c9.3-0x13c9.4 (0.1)
0x13c0|                           00                  |         .      |                                    chroma_subsampling_x: 0 0x13c9.4-0x13c9.5 (0.1)
0x13c0|                           00                  |         .      |                                    chroma_subsampling_y: 0 0x13c9.5-0x13c9.6 (0.1)
0x13c0|                           00                  |         .      |                                    chroma_sample_position: 0 0x13c9.6-0x13ca (0.2)
0x13c0|                              00               |          .     |                                    reserved = 0: 0 0x13ca-0x13ca.3 (0.3)
0x13c0|                              00               |          .     |                                    initial_presentation_delay_present: false 0x13ca.3-0x13ca.4 (0.1)
0x13c0|                              00               |          .     |                                    reserved: 0 0x13ca.4-0x13cb (0.4)
      |                                               |                |                                    config_obus[0:1]: 0x13cb-0x13da (15)
      |00 01 02 03 04 05 06 07 08 09 0a 0b 0c 0d 0e 0f|0123456789abcdef|                                      [0]{}: config_obu (av1_obu) 0x13cb-0x13da (15)
      |                                               |                |                                        header{}: 0x13cb-0x13cc (1)
0x13c0|                                 0a            |           .    |                                          forbidden_bit: 0 0x13cb-0x13cb.1 (0.1)
0x13c0|                                 0a            |           .    |                                          type: "sequence_header" (1) 0x13cb.1-0x13cb.5 (0.4)
0x13c0|                                 0a            |           .    |                                          extension_flag: false 0x13cb.5-0x13cb.6 (0.1)
0x13c0|                                 0a            |           .    |                                          has_size_field: true 0x13cb.6-0x13cb.7 (0.1)
0x13c0|                                 0a            |           .    |                                          reserved_1bit: 0 0x13cb.7-0x13cc (0.1)
0x13c0|                                    0d         |            .   |                                        size: 13 0x13cc-0x13cd (1)
0x13c0|                                       20      |                |                                        seq_profile: "high" (1) 0x13cd-0x13cd.3 (0.3)
0x13c0|                                       20      |                |                                        still_picture: 0 0x13cd.3-0x13cd.4 (0.1)
0x13c0|                                       20      |                |                                        reduced_still_picture_header: 0 0x13cd.4-0x13cd.5 (0.1)
0x13c0|                                       20      |                |                                        timing_info_present_flag: 0 0x13cd.5-0x13cd.6 (0.1)
0x13c0|                                       20      |                |                                        initial_display_delay_present_flag: 0 0x13cd.6-0x13cd.7 (0.1)
0x13c0|                                       20 00   |              . |                                        operating_points_cnt_minus_1: 0 0x13cd.7-0x13ce.4 (0.5)
      |                                               |                |                                        operating_points[0:1]: 0x13ce.4-0x13d0.6 (2.2)
      |                                               |                |                                          [0]{}: operating_point 0x13ce.4-0x13d0.6 (2.2)
0x13c0|                                          00 00|              ..|                                            operating_point_idc: 0 0x13ce.4-0x13d0 (1.4)
0x13d0|fa                                             |.               |                                            seq_level_idx: 31 0x13d0-0x13d0.5 (0.5)
0x13d0|fa                                             |.               |                                            seq_tier: 0 0x13d0.5-0x13d0.6 (0.1)
0x13d0|fa 1e                                          |..              |                                        frame_width_bits_minus_1: 8 0x13d0.6-0x13d1.2 (0.4)
0x13d0|   1e                                          | .              |                                        frame_height_bits_minus_1: 7 0x13d1.2-0x13d1.6 (0.4)
0x13d0|   1e 7f                                       | ..             |                                        max_frame_width_minus_1: 319 0x13d1.6-0x13d2.7 (1.1)
0x13d0|      7f de                                    |  ..            |                                        max_frame_height_minus_1: 239 0x13d2.7-0x13d3.7 (1)
      |                                               |                |                                        frame_width: 320
      |                                               |                |                                        frame_height: 240
0x13d0|         de                                    |   .            |                                        frame_id_numbers_present_flag: 0 0x13d3.7-0x13d4 (0.1)
0x13d0|            21                                 |    !           |                                        use_128x128_superblock: 0 0x13d4-0x13d4.1 (0.1)
0x13d0|            21                                 |    !           |                                        enable_filter_intra: 0 0x13d4.1-0x13d4.2 (0.1)
0x13d0|            21                                 |    !           |                                        enable_intra_edge_filter: 1 0x13d4.2-0x13d4.3 (0.1)
0x13d0|            21                                 |    !           |                                        enable_interintra_compound: 0 0x13d4.3-0x13d4.4 (0.1)
0x13d0|            21                                 |    !           |                                        enable_masked_compound: 0 0x13d4.4-0x13d4.5 (0.1)
0x13d0|            21                                 |    !           |                                        enable_warped_motion: 0 0x13d4.5-0x13d4.6 (0.1)
0x13d0|            21                                 |    !           |                                        enable_dual_filter: 0 0x13d4.6-0x13d4.7 (0.1)
0x13d0|            21                                 |    !           |                                        enable_order_hint: 1 0x13d4.7-0x13d5 (0.1)
0x13d0|               0a                              |     .          |                                        enable_jnt_comp: 0 0x13d5-0x13d5.1 (0.1)
0x13d0|               0a                              |     .          |                                        enable_ref_frame_mvs: 0 0x13d5.1-0x13d5.2 (0.1)
0x13d0|               0a                              |     .          |                                        seq_choose_screen_content_tools: 0 0x13d5.2-0x13d5.3 (0.1)
0x13d0|               0a                              |     .          |                                        seq_force_screen_content_tools: 0 0x13d5.3-0x13d5.4 (0.1)
0x13d0|               0a                              |     .          |                                        order_hint_bits_minus_1: 5 0x13d5.4-0x13d5.7 (0.3)
0x13d0|               0a                              |     .          |                                        enable_superres: 0 0x13d5.7-0x13d6 (0.1)
0x13d0|                  d0                           |      .         |                                        enable_cdef: 1 0x13d6-0x13d6.1 (0.1)
0x13d0|                  d0                           |      .         |                                        enable_restoration: 1 0x13d6.1-0x13d6.2 (0.1)
      |                                               |                |                                        color_config{}: 0x13d6.2-0x13d9.6 (3.4)
0x13d0|                  d0                           |      .         |                                          high_bitdepth: 0 0x13d6.2-0x13d6.3 (0.1)
      |                                               |                |                                          bit_depth: 8
      |                                               |                |                                          mono_chrome: 0
0x13d0|                  d0                           |      .         |                                          color_description_present_flag: 1 0x13d6.3-0x13d6.4 (0.1)
0x13d0|                  d0 20                        |      .         |                                          color_primaries: "unspecified" (2) 0x13d6.4-0x13d7.4 (1)
0x13d0|                     20 20                     |                |                                          transfer_characteristics: "unspecified" (2) 0x13d7.4-0x13d8.4 (1)
0x13d0|                        20 25                  |         %      |                                          matrix_coefficients: "unspecified" (2) 0x13d8.4-0x13d9.4 (1)
0x13d0|                           25                  |         %      |                                          color_range: 0 0x13d9.4-0x13d9.5 (0.1)
      |                                               |                |                                          subsampling_x: 0
      |                                               |                |                                          subsampling_y: 0
0x13d0|                           25                  |         %      |                                          separate_uv_delta_q: 1 0x13d9.5-0x13d9.6 (0.1)
0x13d0|                           25                  |         %      |                                        film_grain_params_present: 0 0x13d9.6-0x13d9.7 (0.1)
0x13d0|                           25                  |         %      |                                        data: raw bits 0x13d9.7-0x13da (0.1)
      |                                               |                |                                [1]{}: box 0x13da-0x13e4 (10)
0x13d0|                              00 00 00 0a      |          ....  |                                  size: 10 0x13da-0x13de (4)
0x13d0|                                          66 69|              fi|                                  type: "fiel" (Video field order) 0x13de-0x13e2 (4)
0x13e0|65 6c                                          |el              |
0x13e0|      01 00                                    |  ..            |                                  data: raw bits 0x13e2-0x13e4 (2)
      |                                               |                |                                [2]{}: box 0x13e4-0x13f4 (16)
0x13e0|            00 00 00 10                        |    ....        |                                  size: 16 0x13e4-0x13e8 (4)
0x13e0|                        70 61 73 70            |        pasp    |                                  type: "pasp" (Pixel aspect ratio) 0x13e8-0x13ec (4)
0x13e0|                                    00 00 00 01|            ....|                                  h_spacing: 1 0x13ec-0x13f0 (4)
0x13f0|00 00 00 01                                    |....            |                                  v_spacing: 1 0x13f0-0x13f4 (4)
      |                                               |                |                        [1]{}: box 0x13f4-0x140c (24)
0x13f0|            00 00 00 18                        |    ....        |                          size: 24 0x13f4-0x13f8 (4)
0x13f0|                        73 74 74 73            |        stts    |                          type: "stts" (Sample time-to-sample) 0x13f8-0x13fc (4)
0x13f0|                                    00         |            .   |                          version: 0 0x13fc-0x13fd (1)
0x13f0|                                       00 00 00|             ...|                          flags: 0 0x13fd-0x1400 (3)
0x1400|00 00 00 01                                    |....            |                          entry_count: 1 0x1400-0x1404 (4)
      |                                               |                |                          entries[0:1]: 0x1404-0x140c (8)
      |                                               |                |                            [0]{}: entry 0x1404-0x140c (8)
0x1400|            00 00 00 01                        |    ....        |                              count: 1 0x1404-0x1408 (4)
0x1400|                        00 00 02 00            |        ....    |                              delta: 512 0x1408-0x140c (4)
      |                                               |                |                        [2]{}: box 0x140c-0x1428 (28)
0x1400|                                    00 00 00 1c|            ....|                          size: 28 0x140c-0x1410 (4)
0x1410|73 74 73 63                                    |stsc            |                          type: "stsc" (Sample-to-chunk, partial data-offset information) 0x1410-0x1414 (4)
0x1410|            00                                 |    .           |                          version: 0 0x1414-0x1415 (1)
0x1410|               00 00 00                        |     ...        |                          flags: 0 0x1415-0x1418 (3)
0x1410|                        00 00 00 01            |        ....    |                          entry_count: 1 0x1418-0x141c (4)
      |                                               |                |                          entries[0:1]: 0x141c-0x1428 (12)
      |                                               |                |                            [0]{}: entry 0x141c-0x1428 (12)
0x1410|                                    00 00 00 01|            ....|                              first_chunk: 1 0x141c-0x1420 (4)
0x1420|00 00 00 01                                    |....            |                              samples_per_chunk: 1 0x1420-0x1424 (4)
0x1420|            00 00 00 01                        |    ....        |                              sample_description_id: 1 0x1424-0x1428 (4)
      |                                               |                |                        [3]{}: box 0x1428-0x143c (20)
0x1420|                        00 00 00 14            |        ....    |                          size: 20 0x1428-0x142c (4)
0x1420|                                    73 74 73 7a|            stsz|                          type: "stsz" (Sample sizes (framing)) 0x142c-0x1430 (4)
0x1430|00                                             |.               |                          version: 0 0x1430-0x1431 (1)
0x1430|   00 00 00                                    | ...            |                          flags: 0 0x1431-0x1434 (3)
0x1430|            00 00 11 94                        |    ....        |                          sample_size: 4500 0x1434-0x1438 (4)
0x1430|                        00 00 00 01            |        ....    |                          entry_count: 1 0x1438-0x143c (4)
      |                                               |                |                        [4]{}: box 0x143c-0x1450 (20)
0x1430|                                    00 00 00 14|            ....|                          size: 20 0x143c-0x1440 (4)
0x1440|73 74 63 6f                                    |stco            |                          type: "stco" (Chunk offset, partial data-offset information) 0x1440-0x1444 (4)
0x1440|            00                                 |    .           |                          version: 0 0x1444-0x1445 (1)
0x1440|               00 00 00                        |     ...        |                          flags: 0 0x1445-0x1448 (3)
0x1440|                        00 00 00 01            |        ....    |                          entry_count: 1 0x1448-0x144c (4)
      |                                               |                |                          entries[0:1]: 0x144c-0x1450 (4)
0x1440|                                    00 00 00 2c|            ...,|                            [0]: 44 chunk_offset 0x144c-0x1450 (4)
      |                                               |                |        [2]{}: box 0x1450-0x14b2 (98)
0x1450|00 00 00 62                                    |...b            |          size: 98 0x1450-0x1454 (4)
0x1450|            75 64 74 61                        |    udta        |          type: "udta" (User-data) 0x1454-0x1458 (4)
      |                                               |                |          boxes[0:1]: 0x1458-0x14b2 (90)
      |                                               |                |            [0]{}: box 0x1458-0x14b2 (90)
0x1450|                        00 00 00 5a            |        ...Z    |              size: 90 0x1458-0x145c (4)
0x1450|                                    6d 65 74 61|            meta|              type: "meta" (Metadata container) 0x145c-0x1460 (4)
0x1460|00 00 00 00                                    |....            |              maybe_flags: 0 0x1460-0x1464 (4)
      |                                               |                |              boxes[0:2]: 0x1464-0x14b2 (78)
      |                                               |                |                [0]{}: box 0x1464-0x1485 (33)
0x1460|            00 00 00 21                        |    ...!        |                  size: 33 0x1464-0x1468 (4)
0x1460|                        68 64 6c 72            |        hdlr    |                  type: "hdlr" (Handler, declares the media (handler) type) 0x1468-0x146c (4)
0x1460|                                    00         |            .   |                  version: 0 0x146c-0x146d (1)
0x1460|                                       00 00 00|             ...|                  flags: 0 0x146d-0x1470 (3)
0x1470|00 00 00 00                                    |....            |                  component_type: "" 0x1470-0x1474 (4)
0x1470|            6d 64 69 72                        |    mdir        |                  component_subtype: "mdir" (Metadata) 0x1474-0x1478 (4)
0x1470|                        61 70 70 6c            |        appl    |                  component_manufacturer: "appl" 0x1478-0x147c (4)
0x1470|                                    00 00 00 00|            ....|                  component_flags: 0 0x147c-0x1480 (4)
0x1480|00 00 00 00                                    |....            |                  component_flags_mask: 0 0x1480-0x1484 (4)
0x1480|            00                                 |    .           |                  component_name: "" 0x1484-0x1485 (1)
      |                                               |                |                [1]{}: box 0x1485-0x14b2 (45)
0x1480|               00 00 00 2d                     |     ...-       |                  size: 45 0x1485-0x1489 (4)
0x1480|                           69 6c 73 74         |         ilst   |                  type: "ilst" 0x1489-0x148d (4)
      |                                               |                |                  boxes[0:1]: 0x148d-0x14b2 (37)
      |                                               |                |                    [0]{}: box 0x148d-0x14b2 (37)
0x1480|                                       00 00 00|             ...|                      size: 37 0x148d-0x1491 (4)
0x1490|25                                             |%               |
0x1490|   a9 74 6f 6f                                 | .too           |                      type: "©too" (Encoder) 0x1491-0x1495 (4)
      |                                               |                |                      boxes[0:1]: 0x1495-0x14b2 (29)
      |                                               |                |                        [0]{}: box 0x1495-0x14b2 (29)
0x1490|               00 00 00 1d                     |     ....       |                          size: 29 0x1495-0x1499 (4)
0x1490|                           64 61 74 61         |         data   |                          type: "data" 0x1499-0x149d (4)
0x1490|                                       00      |             .  |                          version: 0 0x149d-0x149e (1)
0x1490|                                          00 00|              ..|                          flags: 1 0x149e-0x14a1 (3)
0x14a0|01                                             |.               |
0x14a0|   00 00 00 00                                 | ....           |                          reserved: 0 0x14a1-0x14a5 (4)
0x14a0|               4c 61 76 66 35 38 2e 34 35 2e 31|     Lavf58.45.1|                          data: "Lavf58.45.100" 0x14a5-0x14b2 (13)
0x14b0|30 30|                                         |00|             |
      |                                               |                |  tracks[0:1]: 0x2c-0x11c0 (4500)
      |                                               |                |    [0]{}: track 0x2c-0x11c0 (4500)
      |                                               |                |      samples[0:1]: 0x2c-0x11c0 (4500)
      |00 01 02 03 04 05 06 07 08 09 0a 0b 0c 0d 0e 0f|0123456789abcdef|        [0][0:3]: sample (av1_frame) 0x2c-0x11c0 (4500)
      |00 01 02 03 04 05 06 07 08 09 0a 0b 0c 0d 0e 0f|0123456789abcdef|          [0]{}: obu (av1_obu) 0x2c-0x3b (15)
      |                                               |                |            header{}: 0x2c-0x2d (1)
0x0020|                                    0a         |            .   |              forbidden_bit: 0 0x2c-0x2c.1 (0.1)
0x0020|                                    0a         |            .   |              type: "sequence_header" (1) 0x2c.1-0x2c.5 (0.4)
0x0020|                                    0a         |            .   |              extension_flag: false 0x2c.5-0x2c.6 (0.1)
0x0020|                                    0a         |            .   |              has_size_field: true 0x2c.6-0x2c.7 (0.1)
0x0020|                                    0a         |            .   |              reserved_1bit: 0 0x2c.7-0x2d (0.1)
0x0020|                                       0d      |             .  |            size: 13 0x2d-0x2e (1)
0x0020|                                          20   |                |            seq_profile: "high" (1) 0x2e-0x2e.3 (0.3)
0x0020|                                          20   |                |            still_picture: 0 0x2e.3-0x2e.4 (0.1)
0x0020|                                          20   |                |            reduced_still_picture_header: 0 0x2e.4-0x2e.5 (0.1)
0x0020|                                          20   |                |            timing_info_present_flag: 0 0x2e.5-0x2e.6 (0.1)
0x0020|                                          20   |                |            initial_display_delay_present_flag: 0 0x2e.6-0x2e.7 (0.1)
0x0020|                                          20 00|               .|            operating_points_cnt_minus_1: 0 0x2e.7-0x2f.4 (0.5)
      |                                               |                |            operating_points[0:1]: 0x2f.4-0x31.6 (2.2)
      |                                               |                |              [0]{}: operating_point 0x2f.4-0x31.6 (2.2)
0x0020|                                             00|               .|                operating_point_idc: 0 0x2f.4-0x31 (1.4)
0x0030|00                                             |.               |
0x0030|   fa                                          | .              |                seq_level_idx: 31 0x31-0x31.5 (0.5)
0x0030|   fa                                          | .              |                seq_tier: 0 0x31.5-0x31.6 (0.1)
0x0030|   fa 1e                                       | ..             |            frame_width_bits_minus_1: 8 0x31.6-0x32.2 (0.4)
0x0030|      1e                                       |  .             |            frame_height_bits_minus_1: 7 0x32.2-0x32.6 (0.4)
0x0030|      1e 7f                                    |  ..            |            max_frame_width_minus_1: 319 0x32.6-0x33.7 (1.1)
0x0030|         7f de                                 |   ..           |            max_frame_height_minus_1: 239 0x33.7-0x34.7 (1)
      |                                               |                |            frame_width: 320
      |                                               |                |            frame_height: 240
0x0030|            de                                 |    .           |            frame_id_numbers_present_flag: 0 0x34.7-0x35 (0.1)
0x0030|               21                              |     !          |            use_128x128_superblock: 0 0x35-0x35.1 (0.1)
0x0030|               21                              |     !          |            enable_filter_intra: 0 0x35.1-0x35.2 (0.1)
0x0030|               21                              |     !          |            enable_intra_edge_filter: 1 0x35.2-0x35.3 (0.1)
0x0030|               21                              |     !          |            enable_interintra_compound: 0 0x35.3-0x35.4 (0.1)
0x0030|               21                              |     !          |            enable_masked_compound: 0 0x35.4-0x35.5 (0.1)
0x0030|               21                              |     !          |            enable_warped_motion: 0 0x35.5-0x35.6 (0.1)
0x0030|               21                              |     !          |            enable_dual_filter: 0 0x35.6-0x35.7 (0.1)
0x0030|               21                              |     !          |            enable_order_hint: 1 0x35.7-0x36 (0.1)
0x0030|                  0a                           |      .         |            enable_jnt_comp: 0 0x36-0x36.1 (0.1)
0x0030|                  0a                           |      .         |            enable_ref_frame_mvs: 0 0x36.1-0x36.2 (0.1)
0x0030|                  0a                           |      .         |            seq_choose_screen_content_tools: 0 0x36.2-0x36.3 (0.1)
0x0030|                  0a                           |      .         |            seq_force_screen_content_tools: 0 0x36.3-0x36.4 (0.1)
0x0030|                  0a                           |      .         |            order_hint_bits_minus_1: 5 0x36.4-0x36.7 (0.3)
0x0030|                  0a                           |      .         |            enable_superres: 0 0x36.7-0x37 (0.1)
0x0030|                     d0                        |       .        |            enable_cdef: 1 0x37-0x37.1 (0.1)
0x0030|                     d0                        |       .        |            enable_restoration: 1 0x37.1-0x37.2 (0.1)
      |                                               |                |            color_config{}: 0x37.2-0x3a.6 (3.4)
0x0030|                     d0                        |       .        |              high_bitdepth: 0 0x37.2-0x37.3 (0.1)
      |                                               |                |              bit_depth: 8
      |                                               |                |              mono_chrome: 0
0x0030|                     d0                        |       .        |              color_description_present_flag: 1 0x37.3-0x37.4 (0.1)
0x0030|                     d0 20                     |       .        |              color_primaries: "unspecified" (2) 0x37.4-0x38.4 (1)
0x0030|                        20 20                  |                |              transfer_characteristics: "unspecified" (2) 0x38.4-0x39.4 (1)
0x0030|                           20 25               |          %     |              matrix_coefficients: "unspecified" (2) 0x39.4-0x3a.4 (1)
0x0030|                              25               |          %     |              color_range: 0 0x3a.4-0x3a.5 (0.1)
      |                                               |                |              subsampling_x: 0
      |                                               |                |              subsampling_y: 0
0x0030|                              25               |          %     |              separate_uv_delta_q: 1 0x3a.5-0x3a.6 (0.1)
0x0030|                              25               |          %     |            film_grain_params_present: 0 0x3a.6-0x3a.7 (0.1)
0x0030|                              25               |          %     |            data: raw bits 0x3a.7-0x3b (0.1)
      |00 01 02 03 04 05 06 07 08 09 0a 0b 0c 0d 0e 0f|0123456789abcdef|          [1]{}: obu (av1_obu) 0x3b-0x4d (18)
      |                                               |                |            header{}: 0x3b-0x3c (1)
0x0030|                                 1a            |           .    |              forbidden_bit: 0 0x3b-0x3b.1 (0.1)
0x0030|                                 1a            |           .    |              type: "frame_header" (3) 0x3b.1-0x3b.5 (0.4)
0x0030|                                 1a            |           .    |              extension_flag: false 0x3b.5-0x3b.6 (0.1)
0x0030|                                 1a            |           .    |              has_size_field: true 0x3b.6-0x3b.7 (0.1)
0x0030|                                 1a            |           .    |              reserved_1bit: 0 0x3b.7-0x3c (0.1)
0x0030|                                    10         |            .   |            size: 16 0x3c-0x3d (1)
0x0030|                                       10 02 27|             ..'|            data: raw bits 0x3d-0x4d (16)
0x0040|c8 e9 e6 64 3f c1 f8 a4 98 20 82 2a 60         |...d?.... .*`   |
      |00 01 02 03 04 05 06 07 08 09 0a 0b 0c 0d 0e 0f|0123456789abcdef|          [2]{}: obu (av1_obu) 0x4d-0x11c0 (4467)
      |                                               |                |            header{}: 0x4d-0x4e (1)
0x0040|                                       22      |             "  |              forbidden_bit: 0 0x4d-0x4d.1 (0.1)
0x0040|                                       22      |             "  |              type: "tile_group" (4) 0x4d.1-0x4d.5 (0.4)
0x0040|                                       22      |             "  |              extension_flag: false 0x4d.5-0x4d.6 (0.1)
0x0040|                                       22      |             "  |              has_size_field: true 0x4d.6-0x4d.7 (0.1)
0x0040|                                       22      |             "  |              reserved_1bit: 0 0x4d.7-0x4e (0.1)
0x0040|                                          f0 22|              ."|            size: 4464 0x4e-0x50 (2)
0x0050|f6 0a 4f ae f3 fe ec e7 30 4f 3f 13 9c 75 c9 6a|..O.....0O?..u.j|            data: raw bits 0x50-0x11c0 (4464)
*     |until 0x11bf.7 (4464)                          |                |
      |                                               |                |      id: 1
      |                                               |                |      data_format: "av01" (AV1 video)
