# ffmpeg -f lavfi -i testsrc -c:v h264 -f mp4 -t 100ms avc.mp4
$ fq -d mp4 dv avc.mp4
      |00 01 02 03 04 05 06 07 08 09 0a 0b 0c 0d 0e 0f|0123456789abcdef|.{}: avc.mp4 (mp4) 0x0-0x10e0 (4320)
      |                                               |                |  boxes[0:4]: 0x0-0x10e0 (4320)
      |                                               |                |    [0]{}: box 0x0-0x20 (32)
0x0000|00 00 00 20                                    |...             |      size: 32 0x0-0x4 (4)
0x0000|            66 74 79 70                        |    ftyp        |      type: "ftyp" (File type and compatibility) 0x4-0x8 (4)
0x0000|                        69 73 6f 6d            |        isom    |      major_brand: "isom" 0x8-0xc (4)
0x0000|                                    00 00 02 00|            ....|      minor_version: 512 0xc-0x10 (4)
      |                                               |                |      brands[0:4]: 0x10-0x20 (16)
0x0010|69 73 6f 6d                                    |isom            |        [0]: "isom" brand (All files based on the ISO Base Media File Format) 0x10-0x14 (4)
0x0010|            69 73 6f 32                        |    iso2        |        [1]: "iso2" brand (All files based on the 2004 edition of the ISO file format) 0x14-0x18 (4)
0x0010|                        61 76 63 31            |        avc1    |        [2]: "avc1" brand (Advanced Video Coding extensions) 0x18-0x1c (4)
0x0010|                                    6d 70 34 31|            mp41|        [3]: "mp41" brand (MP4 version 1) 0x1c-0x20 (4)
      |                                               |                |    [1]{}: box 0x20-0x28 (8)
0x0020|00 00 00 08                                    |....            |      size: 8 0x20-0x24 (4)
0x0020|            66 72 65 65                        |    free        |      type: "free" (Free space) 0x24-0x28 (4)
      |                                               |                |      data: raw bits 0x28-0x28 (0)
      |                                               |                |    [2]{}: box 0x28-0xd81 (3417)
0x0020|                        00 00 0d 59            |        ...Y    |      size: 3417 0x28-0x2c (4)
0x0020|                                    6d 64 61 74|            mdat|      type: "mdat" (Media data container) 0x2c-0x30 (4)
0x0030|00 00 02 ad 06 05 ff ff a9 dc 45 e9 bd e6 d9 48|..........E....H|      data: raw bits 0x30-0xd81 (3409)
*     |until 0xd80.7 (3409)                           |                |
      |                                               |                |    [3]{}: box 0xd81-0x10e0 (863)
0x0d80|   00 00 03 5f                                 | ..._           |      size: 863 0xd81-0xd85 (4)
0x0d80|               6d 6f 6f 76                     |     moov       |      type: "moov" (Container for all the meta-data) 0xd85-0xd89 (4)
      |                                               |                |      boxes[0:3]: 0xd89-0x10e0 (855)
      |                                               |                |        [0]{}: box 0xd89-0xdf5 (108)
0x0d80|                           00 00 00 6c         |         ...l   |          size: 108 0xd89-0xd8d (4)
0x0d80|                                       6d 76 68|             mvh|          type: "mvhd" (Movie header, overall declarations) 0xd8d-0xd91 (4)
0x0d90|64                                             |d               |
0x0d90|   00                                          | .              |          version: 0 0xd91-0xd92 (1)
0x0d90|      00 00 00                                 |  ...           |          flags: 0 0xd92-0xd95 (3)
0x0d90|               00 00 00 00                     |     ....       |          creation_time: 0 (1904-01-01T00:00:00Z) 0xd95-0xd99 (4)
0x0d90|                           00 00 00 00         |         ....   |          modification_time: 0 (1904-01-01T00:00:00Z) 0xd99-0xd9d (4)
0x0d90|                                       00 00 03|             ...|          time_scale: 1000 0xd9d-0xda1 (4)
0x0da0|e8                                             |.               |
0x0da0|   00 00 00 78                                 | ...x           |          duration: 120 0xda1-0xda5 (4)
0x0da0|               00 01 00 00                     |     ....       |          preferred_rate: 1 0xda5-0xda9 (4)
0x0da0|                           01 00               |         ..     |          preferred_volume: 1 0xda9-0xdab (2)
0x0da0|                                 00 00 00 00 00|           .....|          reserved: "\x00\x00\x00\x00\x00\x00\x00\x00\x00\x00" 0xdab-0xdb5 (10)
0x0db0|00 00 00 00 00                                 |.....           |
      |                                               |                |          matrix_structure{}: 0xdb5-0xdd9 (36)
0x0db0|               00 01 00 00                     |     ....       |            a: 1 0xdb5-0xdb9 (4)
0x0db0|                           00 00 00 00         |         ....   |            b: 0 0xdb9-0xdbd (4)
0x0db0|                                       00 00 00|             ...|            u: 0 0xdbd-0xdc1 (4)
0x0dc0|00                                             |.               |
0x0dc0|   00 00 00 00                                 | ....           |            c: 0 0xdc1-0xdc5 (4)
0x0dc0|               00 01 00 00                     |     ....       |            d: 1 0xdc5-0xdc9 (4)
0x0dc0|                           00 00 00 00         |         ....   |            v: 0 0xdc9-0xdcd (4)
0x0dc0|                                       00 00 00|             ...|            x: 0 0xdcd-0xdd1 (4)
0x0dd0|00                                             |.               |
0x0dd0|   00 00 00 00                                 | ....           |            y: 0 0xdd1-0xdd5 (4)
0x0dd0|               40 00 00 00                     |     @...       |            w: 1 0xdd5-0xdd9 (4)
0x0dd0|                           00 00 00 00         |         ....   |          preview_time: 0 0xdd9-0xddd (4)
0x0dd0|                                       00 00 00|             ...|          preview_duration: 0 0xddd-0xde1 (4)
0x0de0|00                                             |.               |
0x0de0|   00 00 00 00                                 | ....           |          poster_time: 0 0xde1-0xde5 (4)
0x0de0|               00 00 00 00                     |     ....       |          selection_time: 0 0xde5-0xde9 (4)
0x0de0|                           00 00 00 00         |         ....   |          selection_duration: 0 0xde9-0xded (4)
0x0de0|                                       00 00 00|             ...|          current_time: 0 0xded-0xdf1 (4)
0x0df0|00                                             |.               |
0x0df0|   00 00 00 02                                 | ....           |          next_track_id: 2 0xdf1-0xdf5 (4)
      |                                               |                |        [1]{}: box 0xdf5-0x107e (649)
0x0df0|               00 00 02 89                     |     ....       |          size: 649 0xdf5-0xdf9 (4)
0x0df0|                           74 72 61 6b         |         trak   |          type: "trak" (Container for an individual track or stream) 0xdf9-0xdfd (4)
      |                                               |                |          boxes[0:3]: 0xdfd-0x107e (641)
      |                                               |                |            [0]{}: box 0xdfd-0xe59 (92)
0x0df0|                                       00 00 00|             ...|              size: 92 0xdfd-0xe01 (4)
0x0e00|5c                                             |\               |
0x0e00|   74 6b 68 64                                 | tkhd           |              type: "tkhd" (Track header, overall information about the track) 0xe01-0xe05 (4)
0x0e00|               00                              |     .          |              version: 0 0xe05-0xe06 (1)
      |                                               |                |              flags{}: 0xe06-0xe09 (3)
0x0e00|                  00 00 03                     |      ...       |                unused: 0 0xe06-0xe08.4 (2.4)
0x0e00|                        03                     |        .       |                size_is_aspect_ratio: false 0xe08.4-0xe08.5 (0.1)
0x0e00|                        03                     |        .       |                in_preview: false 0xe08.5-0xe08.6 (0.1)
0x0e00|                        03                     |        .       |                in_movie: true 0xe08.6-0xe08.7 (0.1)
0x0e00|                        03                     |        .       |                enabled: true 0xe08.7-0xe09 (0.1)
0x0e00|                           00 00 00 00         |         ....   |              creation_time: 0 (1904-01-01T00:00:00Z) 0xe09-0xe0d (4)
0x0e00|                                       00 00 00|             ...|              modification_time: 0 (1904-01-01T00:00:00Z) 0xe0d-0xe11 (4)
0x0e10|00                                             |.               |
0x0e10|   00 00 00 01                                 | ....           |              track_id: 1 0xe11-0xe15 (4)
0x0e10|               00 00 00 00                     |     ....       |              reserved1: 0 0xe15-0xe19 (4)
0x0e10|                           00 00 00 78         |         ...x   |              duration: 120 0xe19-0xe1d (4)
0x0e10|                                       00 00 00|             ...|              reserved2: raw bits 0xe1d-0xe25 (8)
0x0e20|00 00 00 00 00                                 |.....           |
0x0e20|               00 00                           |     ..         |              layer: 0 0xe25-0xe27 (2)
0x0e20|                     00 00                     |       ..       |              alternate_group: 0 0xe27-0xe29 (2)
0x0e20|                           00 00               |         ..     |              volume: 0 0xe29-0xe2b (2)
0x0e20|                                 00 00         |           ..   |              reserved3: 0 0xe2b-0xe2d (2)
      |                                               |                |              matrix_structure{}: 0xe2d-0xe51 (36)
0x0e20|                                       00 01 00|             ...|                a: 1 0xe2d-0xe31 (4)
0x0e30|00                                             |.               |
0x0e30|   00 00 00 00                                 | ....           |                b: 0 0xe31-0xe35 (4)
0x0e30|               00 00 00 00                     |     ....       |                u: 0 0xe35-0xe39 (4)
0x0e30|                           00 00 00 00         |         ....   |                c: 0 0xe39-0xe3d (4)
0x0e30|                                       00 01 00|             ...|                d: 1 0xe3d-0xe41 (4)
0x0e40|00                                             |.               |
0x0e40|   00 00 00 00                                 | ....           |                v: 0 0xe41-0xe45 (4)
0x0e40|               00 00 00 00                     |     ....       |                x: 0 0xe45-0xe49 (4)
0x0e40|                           00 00 00 00         |         ....   |                y: 0 0xe49-0xe4d (4)
0x0e40|                                       40 00 00|             @..|                w: 1 0xe4d-0xe51 (4)
0x0e50|00                                             |.               |
0x0e50|   01 40 00 00                                 | .@..           |              track_width: 320 0xe51-0xe55 (4)
0x0e50|               00 f0 00 00                     |     ....       |              track_height: 240 0xe55-0xe59 (4)
      |                                               |                |            [1]{}: box 0xe59-0xe7d (36)
0x0e50|                           00 00 00 24         |         ...$   |              size: 36 0xe59-0xe5d (4)
0x0e50|                                       65 64 74|             edt|              type: "edts" (Edit list container) 0xe5d-0xe61 (4)
0x0e60|73                                             |s               |
      |                                               |                |              boxes[0:1]: 0xe61-0xe7d (28)
      |                                               |                |                [0]{}: box 0xe61-0xe7d (28)
0x0e60|   00 00 00 1c                                 | ....           |                  size: 28 0xe61-0xe65 (4)
0x0e60|               65 6c 73 74                     |     elst       |                  type: "elst" (An edit list) 0xe65-0xe69 (4)
0x0e60|                           00                  |         .      |                  version: 0 0xe69-0xe6a (1)
0x0e60|                              00 00 00         |          ...   |                  flags: 0 0xe6a-0xe6d (3)
0x0e60|                                       00 00 00|             ...|                  entry_count: 1 0xe6d-0xe71 (4)
0x0e70|01                                             |.               |
      |                                               |                |                  entries[0:1]: 0xe71-0xe7d (12)
      |                                               |                |                    [0]{}: entry 0xe71-0xe7d (12)
0x0e70|   00 00 00 78                                 | ...x           |                      segment_duration: 120 0xe71-0xe75 (4)
0x0e70|               00 00 04 00                     |     ....       |                      media_time: 1024 0xe75-0xe79 (4)
0x0e70|                           00 01 00 00         |         ....   |                      media_rate: 1 0xe79-0xe7d (4)
      |                                               |                |            [2]{}: box 0xe7d-0x107e (513)
0x0e70|                                       00 00 02|             ...|              size: 513 0xe7d-0xe81 (4)
0x0e80|01                                             |.               |
0x0e80|   6d 64 69 61                                 | mdia           |              type: "mdia" (Container for the media information in a track) 0xe81-0xe85 (4)
      |                                               |                |              boxes[0:3]: 0xe85-0x107e (505)
      |                                               |                |                [0]{}: box 0xe85-0xea5 (32)
0x0e80|               00 00 00 20                     |     ...        |                  size: 32 0xe85-0xe89 (4)
0x0e80|                           6d 64 68 64         |         mdhd   |                  type: "mdhd" (Media header, overall information about the media) 0xe89-0xe8d (4)
0x0e80|                                       00      |             .  |                  version: 0 0xe8d-0xe8e (1)
0x0e80|                                          00 00|              ..|                  flags: 0 0xe8e-0xe91 (3)
0x0e90|00                                             |.               |
0x0e90|   00 00 00 00                                 | ....           |                  creation_time: 0 (1904-01-01T00:00:00Z) 0xe91-0xe95 (4)
0x0e90|               00 00 00 00                     |     ....       |                  modification_time: 0 (1904-01-01T00:00:00Z) 0xe95-0xe99 (4)
0x0e90|                           00 00 32 00         |         ..2.   |                  time_scale: 12800 0xe99-0xe9d (4)
0x0e90|                                       00 00 06|             ...|                  duration: 1536 0xe9d-0xea1 (4)
0x0ea0|00                                             |.               |
0x0ea0|   55 c4                                       | U.             |                  language: "und" 0xea1-0xea3 (2)
0x0ea0|         00 00                                 |   ..           |                  quality: 0 0xea3-0xea5 (2)
      |                                               |                |                [1]{}: box 0xea5-0xed2 (45)
0x0ea0|               00 00 00 2d                     |     ...-       |                  size: 45 0xea5-0xea9 (4)
0x0ea0|                           68 64 6c 72         |         hdlr   |                  type: "hdlr" (Handler, declares the media (handler) type) 0xea9-0xead (4)
0x0ea0|                                       00      |             .  |                  version: 0 0xead-0xeae (1)
0x0ea0|                                          00 00|              ..|                  flags: 0 0xeae-0xeb1 (3)
0x0eb0|00                                             |.               |
0x0eb0|   00 00 00 00                                 | ....           |                  component_type: "" 0xeb1-0xeb5 (4)
0x0eb0|               76 69 64 65                     |     vide       |                  component_subtype: "vide" (Video Track) 0xeb5-0xeb9 (4)
0x0eb0|                           00 00 00 00         |         ....   |                  component_manufacturer: "" 0xeb9-0xebd (4)
0x0eb0|                                       00 00 00|             ...|                  component_flags: 0 0xebd-0xec1 (4)
0x0ec0|00                                             |.               |
0x0ec0|   00 00 00 00                                 | ....           |                  component_flags_mask: 0 0xec1-0xec5 (4)
0x0ec0|               56 69 64 65 6f 48 61 6e 64 6c 65|     VideoHandle|                  component_name: "VideoHandler" 0xec5-0xed2 (13)
0x0ed0|72 00                                          |r.              |
      |                                               |                |                [2]{}: box 0xed2-0x107e (428)
0x0ed0|      00 00 01 ac                              |  ....          |                  size: 428 0xed2-0xed6 (4)
0x0ed0|                  6d 69 6e 66                  |      minf      |                  type: "minf" (Media information container) 0xed6-0xeda (4)
      |                                               |                |                  boxes[0:3]: 0xeda-0x107e (420)
      |                                               |                |                    [0]{}: box 0xeda-0xeee (20)
0x0ed0|                              00 00 00 14      |          ....  |                      size: 20 0xeda-0xede (4)
0x0ed0|                                          76 6d|              vm|                      type: "vmhd" (Video media header, overall information (video track only)) 0xede-0xee2 (4)
0x0ee0|68 64                                          |hd              |
0x0ee0|      00                                       |  .             |                      version: 0 0xee2-0xee3 (1)
0x0ee0|         00 00 01                              |   ...          |                      flags: 1 0xee3-0xee6 (3)
0x0ee0|                  00 00                        |      ..        |                      graphicsmode: 0 0xee6-0xee8 (2)
      |                                               |                |                      opcolor[0:3]: 0xee8-0xeee (6)
0x0ee0|                        00 00                  |        ..      |                        [0]: 0 value 0xee8-0xeea (2)
0x0ee0|                              00 00            |          ..    |                        [1]: 0 value 0xeea-0xeec (2)
0x0ee0|                                    00 00      |            ..  |                        [2]: 0 value 0xeec-0xeee (2)
      |                                               |                |                    [1]{}: box 0xeee-0xf12 (36)
0x0ee0|                                          00 00|              ..|                      size: 36 0xeee-0xef2 (4)
0x0ef0|00 24                                          |.$              |
0x0ef0|      64 69 6e 66                              |  dinf          |                      type: "dinf" (Data information box, container) 0xef2-0xef6 (4)
      |                                               |                |                      boxes[0:1]: 0xef6-0xf12 (28)
      |                                               |                |                        [0]{}: box 0xef6-0xf12 (28)
0x0ef0|                  00 00 00 1c                  |      ....      |                          size: 28 0xef6-0xefa (4)
0x0ef0|                              64 72 65 66      |          dref  |                          type: "dref" (Data reference box, declares source(s) of media data in track) 0xefa-0xefe (4)
0x0ef0|                                          00   |              . |                          version: 0 0xefe-0xeff (1)
0x0ef0|                                             00|               .|                          flags: 0 0xeff-0xf02 (3)
0x0f00|00 00                                          |..              |
0x0f00|      00 00 00 01                              |  ....          |                          entry_count: 1 0xf02-0xf06 (4)
      |                                               |                |                          boxes[0:1]: 0xf06-0xf12 (12)
      |                                               |                |                            [0]{}: box 0xf06-0xf12 (12)
0x0f00|                  00 00 00 0c                  |      ....      |                              size: 12 0xf06-0xf0a (4)
0x0f00|                              75 72 6c 20      |          url   |                              type: "url" 0xf0a-0xf0e (4)
0x0f00|                                          00   |              . |                              version: 0 0xf0e-0xf0f (1)
0x0f00|                                             00|               .|                              flags: 1 0xf0f-0xf12 (3)
0x0f10|00 01                                          |..              |
      |                                               |                |                              data: "" 0xf12-0xf12 (0)
      |                                               |                |                    [2]{}: box 0xf12-0x107e (364)
0x0f10|      00 00 01 6c                              |  ...l          |                      size: 364 0xf12-0xf16 (4)
0x0f10|                  73 74 62 6c                  |      stbl      |                      type: "stbl" (Sample table box, container for the time/space map) 0xf16-0xf1a (4)
      |                                               |                |                      boxes[0:7]: 0xf1a-0x107e (356)
      |                                               |                |                        [0]{}: box 0xf1a-0xfda (192)
0x0f10|                              00 00 00 c0      |          ....  |                          size: 192 0xf1a-0xf1e (4)
0x0f10|                                          73 74|              st|                          type: "stsd" (Sample descriptions (codec types, initialization etc.)) 0xf1e-0xf22 (4)
0x0f20|73 64                                          |sd              |
0x0f20|      00                                       |  .             |                          version: 0 0xf22-0xf23 (1)
0x0f20|         00 00 00                              |   ...          |                          flags: 0 0xf23-0xf26 (3)
0x0f20|                  00 00 00 01                  |      ....      |                          entry_count: 1 0xf26-0xf2a (4)
      |                                               |                |                          boxes[0:1]: 0xf2a-0xfda (176)
      |                                               |                |                            [0]{}: box 0xf2a-0xfda (176)
0x0f20|                              00 00 00 b0      |          ....  |                              size: 176 0xf2a-0xf2e (4)
0x0f20|                                          61 76|              av|                              type: "avc1" (Advanced Video Coding) 0xf2e-0xf32 (4)
0x0f30|63 31                                          |c1              |
0x0f30|      00 00 00 00 00 00                        |  ......        |                              reserved: raw bits 0xf32-0xf38 (6)
0x0f30|                        00 01                  |        ..      |                              data_reference_index: 1 0xf38-0xf3a (2)
0x0f30|                              00 00            |          ..    |                              version: 0 0xf3a-0xf3c (2)
0x0f30|                                    00 00      |            ..  |                              revision_level: 0 0xf3c-0xf3e (2)
0x0f30|                                          00 00|              ..|                              max_packet_size: 0 0xf3e-0xf42 (4)
0x0f40|00 00                                          |..              |
0x0f40|      00 00 00 00                              |  ....          |                              temporal_quality: 0 0xf42-0xf46 (4)
0x0f40|                  00 00 00 00                  |      ....      |                              spatial_quality: 0 0xf46-0xf4a (4)
0x0f40|                              01 40            |          .@    |                              width: 320 0xf4a-0xf4c (2)
0x0f40|                                    00 f0      |            ..  |                              height: 240 0xf4c-0xf4e (2)
0x0f40|                                          00 48|              .H|                              horizontal_resolution: 72 0xf4e-0xf52 (4)
0x0f50|00 00                                          |..              |
0x0f50|      00 48 00 00                              |  .H..          |                              vertical_resolution: 72 0xf52-0xf56 (4)
0x0f50|                  00 00 00 00                  |      ....      |                              data_size: 0 0xf56-0xf5a (4)
0x0f50|                              00 01            |          ..    |                              frame_count: 1 0xf5a-0xf5c (2)
0x0f50|                                    00 00 00 00|            ....|                              compressor_name: "" 0xf5c-0xf7c (32)
0x0f60|00 00 00 00 00 00 00 00 00 00 00 00 00 00 00 00|................|
0x0f70|00 00 00 00 00 00 00 00 00 00 00 00            |............    |
0x0f70|                                    00 18      |            ..  |                              depth: 24 0xf7c-0xf7e (2)
0x0f70|                                          ff ff|              ..|                              color_table_id: -1 0xf7e-0xf80 (2)
      |                                               |                |                              boxes[0:3]: 0xf80-0xfda (90)
      |                                               |                |                                [0]{}: box 0xf80-0xfb6 (54)
0x0f80|00 00 00 36                                    |...6            |                                  size: 54 0xf80-0xf84 (4)
0x0f80|            61 76 63 43                        |    avcC        |                                  type: "avcC" 0xf84-0xf88 (4)
      |00 01 02 03 04 05 06 07 08 09 0a 0b 0c 0d 0e 0f|0123456789abcdef|                                  descriptor{}: (avc_dcr) 0xf88-0xfb6 (46)
0x0f80|                        01                     |        .       |                                    configuration_version: 1 0xf88-0xf89 (1)
0x0f80|                           f4                  |         .      |                                    profile_indication: "high_444_predictive_profile" (244) 0xf89-0xf8a (1)
0x0f80|                              00               |          .     |                                    profile_compatibility: 0 0xf8a-0xf8b (1)
0x0f80|                                 0d            |           .    |                                    level_indication: "1.3" (13) 0xf8b-0xf8c (1)
0x0f80|                                    ff         |            .   |                                    reserved0: 63 0xf8c-0xf8c.6 (0.6)
0x0f80|                                    ff         |            .   |                                    length_size: 4 0xf8c.6-0xf8d (0.2)
0x0f80|                                       e1      |             .  |                                    reserved1: 7 0xf8d-0xf8d.3 (0.3)
0x0f80|                                       e1      |             .  |                                    num_of_sequence_parameter_sets: 1 0xf8d.3-0xf8e (0.5)
      |                                               |                |                                    sequence_parameter_sets[0:1]: 0xf8e-0xfa9 (27)
      |                                               |                |                                      [0]{}: set 0xf8e-0xfa9 (27)
0x0f80|                                          00 19|              ..|                                        length: 25 0xf8e-0xf90 (2)
      |00 01 02 03 04 05 06 07 08 09 0a 0b 0c 0d 0e 0f|0123456789abcdef|                                        nal{}: (avc_nalu) 0xf90-0xfa9 (25)
      |00 01 02 03 04 05 06 07 08 09 0a 0b 0c 0d 0e 0f|0123456789abcdef|                                          rbsp{}: 0x0-0x16 (22)
  0x00|f4                                             |.               |                                            profile_idc: "high_444_predictive_profile" (244) 0x0-0x1 (1)
  0x00|   00                                          | .              |                                            constraint_set0_flag: false 0x1-0x1.1 (0.1)
  0x00|   00                                          | .              |                                            constraint_set1_flag: false 0x1.1-0x1.2 (0.1)
  0x00|   00                                          | .              |                                            constraint_set2_flag: false 0x1.2-0x1.3 (0.1)
  0x00|   00                                          | .              |                                            constraint_set3_flag: false 0x1.3-0x1.4 (0.1)
  0x00|   00                                          | .              |                                            constraint_set4_flag: false 0x1.4-0x1.5 (0.1)
  0x00|   00                                          | .              |                                            constraint_set5_flag: false 0x1.5-0x1.6 (0.1)
  0x00|   00                                          | .              |                                            reserved_zero_2bits: 0 0x1.6-0x2 (0.2)
  0x00|      0d                                       |  .             |                                            level_idc: "1.3" (13) 0x2-0x3 (1)
  0x00|         91                                    |   .            |                                            seq_parameter_set_id: 0 0x3-0x3.1 (0.1)
  0x00|         91                                    |   .            |                                            chroma_format_idc: "4:4:4" (3) 0x3.1-0x3.6 (0.5)
  0x00|         91                                    |   .            |                                            separate_colour_plane_flag: false 0x3.6-0x3.7 (0.1)
  0x00|         91                                    |   .            |                                            bit_depth_luma: 8 0x3.7-0x4 (0.1)
  0x00|            9b                                 |    .           |                                            bit_depth_chroma: 8 0x4-0x4.1 (0.1)
  0x00|            9b                                 |    .           |                                            qpprime_y_zero_transform_bypass_flag: false 0x4.1-0x4.2 (0.1)
  0x00|            9b                                 |    .           |                                            seq_scaling_matrix_present_flag: false 0x4.2-0x4.3 (0.1)
  0x00|            9b                                 |    .           |                                            log2_max_frame_num: 4 0x4.3-0x4.4 (0.1)
  0x00|            9b                                 |    .           |                                            pic_order_cnt_type: 0 0x4.4-0x4.5 (0.1)
  0x00|            9b                                 |    .           |                                            log2_max_pic_order_cnt_lsb: 6 0x4.5-0x5 (0.3)
  0x00|               28                              |     (          |                                            max_num_ref_frames: 4 0x5-0x5.5 (0.5)
  0x00|               28                              |     (          |                                            gaps_in_frame_num_value_allowed_flag: false 0x5.5-0x5.6 (0.1)
  0x00|               28 28                           |     ((         |                                            pic_width_in_mbs: 20 0x5.6-0x6.7 (1.1)
  0x00|                  28 3f                        |      (?        |                                            pic_height_in_map_units: 15 0x6.7-0x7.6 (0.7)
  0x00|                     3f                        |       ?        |                                            frame_mbs_only_flag: true 0x7.6-0x7.7 (0.1)
  0x00|                     3f                        |       ?        |                                            direct_8x8_inference_flag: true 0x7.7-0x8 (0.1)
  0x00|                        60                     |        `       |                                            frame_cropping_flag: false 0x8-0x8.1 (0.1)
  0x00|                        60                     |        `       |                                            vui_parameters_present_flag: true 0x8.1-0x8.2 (0.1)
      |                                               |                |                                            vui_parameters{}: 0x8.2-0x15.5 (13.3)
  0x00|                        60                     |        `       |                                              aspect_ratio_info_present_flag: true 0x8.2-0x8.3 (0.1)
  0x00|                        60 22                  |        `"      |                                              aspect_ratio_idc: "1:1" (1) 0x8.3-0x9.3 (1)
  0x00|                           22                  |         "      |                                              overscan_info_present_flag: false 0x9.3-0x9.4 (0.1)
  0x00|                           22                  |         "      |                                              video_signal_type_present_flag: false 0x9.4-0x9.5 (0.1)
  0x00|                           22                  |         "      |                                              chroma_loc_info_present_flag: false 0x9.5-0x9.6 (0.1)
  0x00|                           22                  |         "      |                                              timing_info_present_flag: true 0x9.6-0x9.7 (0.1)
  0x00|                           22 00 00 00 02      |         "....  |                                              num_units_in_tick: 1 0x9.7-0xd.7 (4)
  0x00|                                       02 00 00|             ...|                                              time_scale: 50 0xd.7-0x11.7 (4)
  0x01|00 64                                          |.d              |
  0x01|   64                                          | d              |                                              fixed_frame_rate_flag: false 0x11.7-0x12 (0.1)
  0x01|      1e                                       |  .             |                                              nal_hrd_parameters_present_flag: false 0x12-0x12.1 (0.1)
  0x01|      1e                                       |  .             |                                              vcl_hrd_parameters_present_flag: false 0x12.1-0x12.2 (0.1)
  0x01|      1e                                       |  .             |                                              pic_struct_present_flag: false 0x12.2-0x12.3 (0.1)
  0x01|      1e                                       |  .             |                                              bitstream_restriction_flag: true 0x12.3-0x12.4 (0.1)
  0x01|      1e                                       |  .             |                                              motion_vectors_over_pic_boundaries_flag: true 0x12.4-0x12.5 (0.1)
  0x01|      1e                                       |  .             |                                              max_bytes_per_pic_denom: 0 0x12.5-0x12.6 (0.1)
  0x01|      1e                                       |  .             |                                              max_bits_per_mb_denom: 0 0x12.6-0x12.7 (0.1)
  0x01|      1e 28                                    |  .(            |                                              log2_max_mv_length_horizontal: 9 0x12.7-0x13.6 (0.7)
  0x01|         28 53                                 |   (S           |                                              log2_max_mv_length_vertical: 9 0x13.6-0x14.5 (0.7)
  0x01|            53                                 |    S           |                                              max_num_reorder_frames: 2 0x14.5-0x15 (0.3)
  0x01|               2c|                             |     ,|         |                                              max_dec_frame_buffering: 4 0x15-0x15.5 (0.5)
  0x01|               2c|                             |     ,|         |                                            trailing_bits: raw bits 0x15.5-0x16 (0.3)
0x0f90|67                                             |g               |                                          forbidden_zero_bit: false 0xf90-0xf90.1 (0.1)
0x0f90|67                                             |g               |                                          nal_ref_idc: 3 0xf90.1-0xf90.3 (0.2)
0x0f90|67                                             |g               |                                          nal_unit_type: "sps" (7) (Sequence parameter set) 0xf90.3-0xf91 (0.5)
0x0f90|   f4 00 0d 91 9b 28 28 3f 60 22 00 00 03 00 02| .....((?`".....|                                          gap0: raw bits 0xf91-0xfa9 (24)
0x0fa0|00 00 03 00 64 1e 28 53 2c                     |....d.(S,       |
0x0fa0|                           01                  |         .      |                                    num_of_picture_parameter_sets: 1 0xfa9-0xfaa (1)
      |                                               |                |                                    picture_parameter_sets[0:1]: 0xfaa-0xfb2 (8)
      |                                               |                |                                      [0]{}: set 0xfaa-0xfb2 (8)
0x0fa0|                              00 06            |          ..    |                                        length: 6 0xfaa-0xfac (2)
      |00 01 02 03 04 05 06 07 08 09 0a 0b 0c 0d 0e 0f|0123456789abcdef|                                        nal{}: (avc_nalu) 0xfac-0xfb2 (6)
0x0fa0|                                    68         |            h   |                                          forbidden_zero_bit: false 0xfac-0xfac.1 (0.1)
0x0fa0|                                    68         |            h   |                                          nal_ref_idc: 3 0xfac.1-0xfac.3 (0.2)
0x0fa0|                                    68         |            h   |                                          nal_unit_type: "pps" (8) (Picture parameter set) 0xfac.3-0xfad (0.5)
      |                                               |                |                                          rbsp{}: 0xfad-0xfb2 (5)
0x0fa0|                                       eb      |             .  |                                            pic_parameter_set_id: 0 0xfad-0xfad.1 (0.1)
0x0fa0|                                       eb      |             .  |                                            seq_parameter_set_id: 0 0xfad.1-0xfad.2 (0.1)
0x0fa0|                                       eb      |             .  |                                            entropy_coding_mode_flag: true 0xfad.2-0xfad.3 (0.1)
0x0fa0|                                       eb      |             .  |                                            bottom_field_pic_order_in_frame_present_flag: false 0xfad.3-0xfad.4 (0.1)
0x0fa0|                                       eb      |             .  |                                            num_slice_groups: 1 0xfad.4-0xfad.5 (0.1)
0x0fa0|                                       eb      |             .  |                                            num_ref_idx_l0_default_active: 3 0xfad.5-0xfae (0.3)
0x0fa0|                                          e3   |              . |                                            num_ref_idx_l1_default_active: 1 0xfae-0xfae.1 (0.1)
0x0fa0|                                          e3   |              . |                                            weighted_pred_flag: true 0xfae.1-0xfae.2 (0.1)
0x0fa0|                                          e3   |              . |                                            weighted_bipred_idc: 2 0xfae.2-0xfae.4 (0.2)
0x0fa0|                                          e3 c4|              ..|                                            pic_init_qp: 23 0xfae.4-0xfaf.1 (0.5)
0x0fa0|                                             c4|               .|                                            pic_init_qs: 26 0xfaf.1-0xfaf.2 (0.1)
0x0fa0|                                             c4|               .|                                            chroma_qp_index_offset: 4 0xfaf.2-0xfb0.1 (0.7)
0x0fb0|48                                             |H               |
0x0fb0|48                                             |H               |                                            deblocking_filter_control_present_flag: true 0xfb0.1-0xfb0.2 (0.1)
0x0fb0|48                                             |H               |                                            constrained_intra_pred_flag: false 0xfb0.2-0xfb0.3 (0.1)
0x0fb0|48                                             |H               |                                            redundant_pic_cnt_present_flag: false 0xfb0.3-0xfb0.4 (0.1)
0x0fb0|48                                             |H               |                                            transform_8x8_mode_flag: true 0xfb0.4-0xfb0.5 (0.1)
0x0fb0|48                                             |H               |                                            pic_scaling_matrix_present_flag: false 0xfb0.5-0xfb0.6 (0.1)
0x0fb0|48 44                                          |HD              |                                            second_chroma_qp_index_offset: 4 0xfb0.6-0xfb1.5 (0.7)
0x0fb0|   44                                          | D              |                                            trailing_bits: raw bits 0xfb1.5-0xfb2 (0.3)
0x0fb0|      ff f8 f8 00                              |  ....          |                                    data: raw bits 0xfb2-0xfb6 (4)
      |                                               |                |                                [1]{}: box 0xfb6-0xfc6 (16)
0x0fb0|                  00 00 00 10                  |      ....      |                                  size: 16 0xfb6-0xfba (4)
0x0fb0|                              70 61 73 70      |          pasp  |                                  type: "pasp" (Pixel aspect ratio) 0xfba-0xfbe (4)
0x0fb0|                                          00 00|              ..|                                  h_spacing: 1 0xfbe-0xfc2 (4)
0x0fc0|00 01                                          |..              |
0x0fc0|      00 00 00 01                              |  ....          |                                  v_spacing: 1 0xfc2-0xfc6 (4)
      |                                               |                |                                [2]{}: box 0xfc6-0xfda (20)
0x0fc0|                  00 00 00 14                  |      ....      |                                  size: 20 0xfc6-0xfca (4)
0x0fc0|                              62 74 72 74      |          btrt  |                                  type: "btrt" (Bitrate) 0xfca-0xfce (4)
0x0fc0|                                          00 00|              ..|                                  decoding_buffer_size: 0 0xfce-0xfd2 (4)
0x0fd0|00 00                                          |..              |
0x0fd0|      00 03 77 c2                              |  ..w.          |                                  max_bitrate: 227266 0xfd2-0xfd6 (4)
0x0fd0|                  00 03 77 c2                  |      ..w.      |                                  avg_bitrate: 227266 0xfd6-0xfda (4)
      |                                               |                |                        [1]{}: box 0xfda-0xff2 (24)
0x0fd0|                              00 00 00 18      |          ....  |                          size: 24 0xfda-0xfde (4)
0x0fd0|                                          73 74|              st|                          type: "stts" (Sample time-to-sample) 0xfde-0xfe2 (4)
0x0fe0|74 73                                          |ts              |
0x0fe0|      00                                       |  .             |                          version: 0 0xfe2-0xfe3 (1)
0x0fe0|         00 00 00                              |   ...          |                          flags: 0 0xfe3-0xfe6 (3)
0x0fe0|                  00 00 00 01                  |      ....      |                          entry_count: 1 0xfe6-0xfea (4)
      |                                               |                |                          entries[0:1]: 0xfea-0xff2 (8)
      |                                               |                |                            [0]{}: entry 0xfea-0xff2 (8)
0x0fe0|                              00 00 00 03      |          ....  |                              count: 3 0xfea-0xfee (4)
0x0fe0|                                          00 00|              ..|                              delta: 512 0xfee-0xff2 (4)
0x0ff0|02 00                                          |..              |
      |                                               |                |                        [2]{}: box 0xff2-0x1006 (20)
0x0ff0|      00 00 00 14                              |  ....          |                          size: 20 0xff2-0xff6 (4)
0x0ff0|                  73 74 73 73                  |      stss      |                          type: "stss" (Sync sample table (random access points)) 0xff6-0xffa (4)
0x0ff0|                              00               |          .     |                          version: 0 0xffa-0xffb (1)
0x0ff0|                                 00 00 00      |           ...  |                          flags: 0 0xffb-0xffe (3)
0x0ff0|                                          00 00|              ..|                          entry_count: 1 0xffe-0x1002 (4)
0x1000|00 01                                          |..              |
      |                                               |                |                          entries[0:1]: 0x1002-0x1006 (4)
0x1000|      00 00 00 01                              |  ....          |                            [0]: 1 sample_number 0x1002-0x1006 (4)
      |                                               |                |                        [3]{}: box 0x1006-0x102e (40)
0x1000|                  00 00 00 28                  |      ...(      |                          size: 40 0x1006-0x100a (4)
0x1000|                              63 74 74 73      |          ctts  |                          type: "ctts" (Composition time to sample) 0x100a-0x100e (4)
0x1000|                                          00   |              . |                          version: 0 0x100e-0x100f (1)
0x1000|                                             00|               .|                          flags: 0 0x100f-0x1012 (3)
0x1010|00 00                                          |..              |
0x1010|      00 00 00 03                              |  ....          |                          entry_count: 3 0x1012-0x1016 (4)
      |                                               |                |                          entries[0:3]: 0x1016-0x102e (24)
      |                                               |                |                            [0]{}: entry 0x1016-0x101e (8)
0x1010|                  00 00 00 01                  |      ....      |                              sample_count: 1 0x1016-0x101a (4)
0x1010|                              00 00 04 00      |          ....  |                              sample_offset: 1024 0x101a-0x101e (4)
      |                                               |                |                            [1]{}: entry 0x101e-0x1026 (8)
0x1010|                                          00 00|              ..|                              sample_count: 1 0x101e-0x1022 (4)
0x1020|00 01                                          |..              |
0x1020|      00 00 06 00                              |  ....          |                              sample_offset: 1536 0x1022-0x1026 (4)
      |                                               |                |                            [2]{}: entry 0x1026-0x102e (8)
0x1020|                  00 00 00 01                  |      ....      |                              sample_count: 1 0x1026-0x102a (4)
0x1020|                              00 00 02 00      |          ....  |                              sample_offset: 512 0x102a-0x102e (4)
      |                                               |                |                        [4]{}: box 0x102e-0x104a (28)
0x1020|                                          00 00|              ..|                          size: 28 0x102e-0x1032 (4)
0x1030|00 1c                                          |..              |
0x1030|      73 74 73 63                              |  stsc          |                          type: "stsc" (Sample-to-chunk, partial data-offset information) 0x1032-0x1036 (4)
0x1030|                  00                           |      .         |                          version: 0 0x1036-0x1037 (1)
0x1030|                     00 00 00                  |       ...      |                          flags: 0 0x1037-0x103a (3)
0x1030|                              00 00 00 01      |          ....  |                          entry_count: 1 0x103a-0x103e (4)
      |                                               |                |                          entries[0:1]: 0x103e-0x104a (12)
      |                                               |                |                            [0]{}: entry 0x103e-0x104a (12)
0x1030|                                          00 00|              ..|                              first_chunk: 1 0x103e-0x1042 (4)
0x1040|00 01                                          |..              |
0x1040|      00 00 00 03                              |  ....          |                              samples_per_chunk: 3 0x1042-0x1046 (4)
0x1040|                  00 00 00 01                  |      ....      |                              sample_description_id: 1 0x1046-0x104a (4)
      |                                               |                |                        [5]{}: box 0x104a-0x106a (32)
0x1040|                              00 00 00 20      |          ...   |                          size: 32 0x104a-0x104e (4)
0x1040|                                          73 74|              st|                          type: "stsz" (Sample sizes (framing)) 0x104e-0x1052 (4)
0x1050|73 7a                                          |sz              |
0x1050|      00                                       |  .             |                          version: 0 0x1052-0x1053 (1)
0x1050|         00 00 00                              |   ...          |                          flags: 0 0x1053-0x1056 (3)
0x1050|                  00 00 00 00                  |      ....      |                          sample_size: 0 0x1056-0x105a (4)
0x1050|                              00 00 00 03      |          ....  |                          entry_count: 3 0x105a-0x105e (4)
      |                                               |                |                          entries[0:3]: 0x105e-0x106a (12)
0x1050|                                          00 00|              ..|                            [0]: 3020 size 0x105e-0x1062 (4)
0x1060|0b cc                                          |..              |
0x1060|      00 00 01 4d                              |  ...M          |                            [1]: 333 size 0x1062-0x1066 (4)
0x1060|                  00 00 00 38                  |      ...8      |                            [2]: 56 size 0x1066-0x106a (4)
      |                                               |                |                        [6]{}: box 0x106a-0x107e (20)
0x1060|                              00 00 00 14      |          ....  |                          size: 20 0x106a-0x106e (4)
0x1060|                                          73 74|              st|                          type: "stco" (Chunk offset, partial data-offset information) 0x106e-0x1072 (4)
0x1070|63 6f                                          |co              |
0x1070|      00                                       |  .             |                          version: 0 0x1072-0x1073 (1)
0x1070|         00 00 00                              |   ...          |                          flags: 0 0x1073-0x1076 (3)
0x1070|                  00 00 00 01                  |      ....      |                          entry_count: 1 0x1076-0x107a (4)
      |                                               |                |                          entries[0:1]: 0x107a-0x107e (4)
0x1070|                              00 00 00 30      |          ...0  |                            [0]: 48 chunk_offset 0x107a-0x107e (4)
      |                                               |                |        [2]{}: box 0x107e-0x10e0 (98)
0x1070|                                          00 00|              ..|          size: 98 0x107e-0x1082 (4)
0x1080|00 62                                          |.b              |
0x1080|      75 64 74 61                              |  udta          |          type: "udta" (User-data) 0x1082-0x1086 (4)
      |                                               |                |          boxes[0:1]: 0x1086-0x10e0 (90)
      |                                               |                |            [0]{}: box 0x1086-0x10e0 (90)
0x1080|                  00 00 00 5a                  |      ...Z      |              size: 90 0x1086-0x108a (4)
0x1080|                              6d 65 74 61      |          meta  |              type: "meta" (Metadata container) 0x108a-0x108e (4)
0x1080|                                          00 00|              ..|              maybe_flags: 0 0x108e-0x1092 (4)
0x1090|00 00                                          |..              |
      |                                               |                |              boxes[0:2]: 0x1092-0x10e0 (78)
      |                                               |                |                [0]{}: box 0x1092-0x10b3 (33)
0x1090|      00 00 00 21                              |  ...!          |                  size: 33 0x1092-0x1096 (4)
0x1090|                  68 64 6c 72                  |      hdlr      |                  type: "hdlr" (Handler, declares the media (handler) type) 0x1096-0x109a (4)
0x1090|                              00               |          .     |                  version: 0 0x109a-0x109b (1)
0x1090|                                 00 00 00      |           ...  |                  flags: 0 0x109b-0x109e (3)
0x1090|                                          00 00|              ..|                  component_type: "" 0x109e-0x10a2 (4)
0x10a0|00 00                                          |..              |
0x10a0|      6d 64 69 72                              |  mdir          |                  component_subtype: "mdir" (Metadata) 0x10a2-0x10a6 (4)
0x10a0|                  61 70 70 6c                  |      appl      |                  component_manufacturer: "appl" 0x10a6-0x10aa (4)
0x10a0|                              00 00 00 00      |          ....  |                  component_flags: 0 0x10aa-0x10ae (4)
0x10a0|                                          00 00|              ..|                  component_flags_mask: 0 0x10ae-0x10b2 (4)
0x10b0|00 00                                          |..              |
0x10b0|      00                                       |  .             |                  component_name: "" 0x10b2-0x10b3 (1)
      |                                               |                |                [1]{}: box 0x10b3-0x10e0 (45)
0x10b0|         00 00 00 2d                           |   ...-         |                  size: 45 0x10b3-0x10b7 (4)
0x10b0|                     69 6c 73 74               |       ilst     |                  type: "ilst" 0x10b7-0x10bb (4)
      |                                               |                |                  boxes[0:1]: 0x10bb-0x10e0 (37)
      |                                               |                |                    [0]{}: box 0x10bb-0x10e0 (37)
0x10b0|                                 00 00 00 25   |           ...% |                      size: 37 0x10bb-0x10bf (4)
0x10b0|                                             a9|               .|                      type: "©too" (Encoder) 0x10bf-0x10c3 (4)
0x10c0|74 6f 6f                                       |too             |
      |                                               |                |                      boxes[0:1]: 0x10c3-0x10e0 (29)
      |                                               |                |                        [0]{}: box 0x10c3-0x10e0 (29)
0x10c0|         00 00 00 1d                           |   ....         |                          size: 29 0x10c3-0x10c7 (4)
0x10c0|                     64 61 74 61               |       data     |                          type: "data" 0x10c7-0x10cb (4)
0x10c0|                                 00            |           .    |                          version: 0 0x10cb-0x10cc (1)
0x10c0|                                    00 00 01   |            ... |                          flags: 1 0x10cc-0x10cf (3)
0x10c0|                                             00|               .|                          reserved: 0 0x10cf-0x10d3 (4)
0x10d0|00 00 00                                       |...             |
0x10d0|         4c 61 76 66 35 38 2e 37 36 2e 31 30 30|   Lavf58.76.100|                          data: "Lavf58.76.100" 0x10d3-0x10e0 (13)
      |                                               |                |  tracks[0:1]: 0x30-0xd81 (3409)
      |                                               |                |    [0]{}: track 0x30-0xd81 (3409)
      |                                               |                |      samples[0:3]: 0x30-0xd81 (3409)
      |00 01 02 03 04 05 06 07 08 09 0a 0b 0c 0d 0e 0f|0123456789abcdef|        [0][0:2]: sample (avc_au) 0x30-0xbfc (3020)
      |                                               |                |          [0]{}: nalu 0x30-0x2e1 (689)
0x0030|00 00 02 ad                                    |....            |            length: 685 0x30-0x34 (4)
      |00 01 02 03 04 05 06 07 08 09 0a 0b 0c 0d 0e 0f|0123456789abcdef|            nalu{}: (avc_nalu) 0x34-0x2e1 (685)
0x0030|            06                                 |    .           |              forbidden_zero_bit: false 0x34-0x34.1 (0.1)
0x0030|            06                                 |    .           |              nal_ref_idc: 0 0x34.1-0x34.3 (0.2)
0x0030|            06                                 |    .           |              nal_unit_type: "sei" (6) (Supplemental enhancement information) 0x34.3-0x35 (0.5)
      |                                               |                |              rbsp{}: 0x35-0x2e1 (684)
0x0030|               05                              |     .          |                payload_type: "user_data_unregistered" (5) 0x35-0x36 (1)
0x0030|                  ff ff a9                     |      ...       |                payload_size: 679 0x36-0x39 (3)
0x0030|                           dc 45 e9 bd e6 d9 48|         .E....H|                uuid: "x264" (raw bits) 0x39-0x49 (16)
0x0040|b7 96 2c d8 20 d9 23 ee ef                     |..,. .#..       |
0x0040|                           78 32 36 34 20 2d 20|         x264 - |                data: raw bits 0x49-0x2e0 (663)
0x0050|63 6f 72 65 20 31 36 33 20 72 33 30 36 30 20 35|core 163 r3060 5|
*     |until 0x2df.7 (663)                            |                |
0x02e0|80                                             |.               |                trailing_bits: raw bits 0x2e0-0x2e1 (1)
      |                                               |                |          [1]{}: nalu 0x2e1-0xbfc (2331)
0x02e0|   00 00 09 17                                 | ....           |            length: 2327 0x2e1-0x2e5 (4)
      |00 01 02 03 04 05 06 07 08 09 0a 0b 0c 0d 0e 0f|0123456789abcdef|            nalu{}: (avc_nalu) 0x2e5-0xbfc (2327)
0x02e0|               65                              |     e          |              forbidden_zero_bit: false 0x2e5-0x2e5.1 (0.1)
0x02e0|               65                              |     e          |              nal_ref_idc: 3 0x2e5.1-0x2e5.3 (0.2)
0x02e0|               65                              |     e          |              nal_unit_type: "idr_slice" (5) (Coded slice of an IDR picture) 0x2e5.3-0x2e6 (0.5)
      |                                               |                |              rbsp{}: 0x2e6-0x2e7.1 (1.1)
0x02e0|                  88                           |      .         |                first_mb_in_slice: 0 0x2e6-0x2e6.1 (0.1)
0x02e0|                  88                           |      .         |                slice_type: "i" (7) 0x2e6.1-0x2e7 (0.7)
0x02e0|                     84                        |       .        |                pic_parameter_set_id: 0 0x2e7-0x2e7.1 (0.1)
0x02e0|                     84 00 33 ff fe f6 86 f8 14|       ..3......|              gap0: raw bits 0x2e7.1-0xbfc (2324.7)
0x02f0|d8 53 23 af ff f2 50 06 7f 30 02 17 55 d4 5a 6f|.S#...P..0..U.Zo|
*     |until 0xbfb.7 (2325)                           |                |
      |00 01 02 03 04 05 06 07 08 09 0a 0b 0c 0d 0e 0f|0123456789abcdef|        [1][0:1]: sample (avc_au) 0xbfc-0xd49 (333)
      |                                               |                |          [0]{}: nalu 0xbfc-0xd49 (333)
0x0bf0|                                    00 00 01 49|            ...I|            length: 329 0xbfc-0xc00 (4)
      |00 01 02 03 04 05 06 07 08 09 0a 0b 0c 0d 0e 0f|0123456789abcdef|            nalu{}: (avc_nalu) 0xc00-0xd49 (329)
0x0c00|41                                             |A               |              forbidden_zero_bit: false 0xc00-0xc00.1 (0.1)
0x0c00|41                                             |A               |              nal_ref_idc: 2 0xc00.1-0xc00.3 (0.2)
0x0c00|41                                             |A               |              nal_unit_type: "slice" (1) (Coded slice of a non-IDR picture) 0xc00.3-0xc01 (0.5)
      |                                               |                |              rbsp{}: 0xc01-0xc01.7 (0.7)
0x0c00|   9a                                          | .              |                first_mb_in_slice: 0 0xc01-0xc01.1 (0.1)
0x0c00|   9a                                          | .              |                slice_type: "p" (5) 0xc01.1-0xc01.6 (0.5)
0x0c00|   9a                                          | .              |                pic_parameter_set_id: 0 0xc01.6-0xc01.7 (0.1)
0x0c00|   9a 22 6c 42 bf fe 38 85 de c2 03 1a de 79 0a| ."lB..8......y.|              gap0: raw bits 0xc01.7-0xd49 (327.1)
0x0c10|56 fd b3 4b b4 0f 24 7f e9 d3 b6 f2 5e 6f dd b7|V..K..$.....^o..|
*     |until 0xd48.7 (328)                            |                |
      |00 01 02 03 04 05 06 07 08 09 0a 0b 0c 0d 0e 0f|0123456789abcdef|        [2][0:1]: sample (avc_au) 0xd49-0xd81 (56)
      |                                               |                |          [0]{}: nalu 0xd49-0xd81 (56)
0x0d40|                           00 00 00 34         |         ...4   |            length: 52 0xd49-0xd4d (4)
      |00 01 02 03 04 05 06 07 08 09 0a 0b 0c 0d 0e 0f|0123456789abcdef|            nalu{}: (avc_nalu) 0xd4d-0xd81 (52)
0x0d40|                                       01      |             .  |              forbidden_zero_bit: false 0xd4d-0xd4d.1 (0.1)
0x0d40|                                       01      |             .  |              nal_ref_idc: 0 0xd4d.1-0xd4d.3 (0.2)
0x0d40|                                       01      |             .  |              nal_unit_type: "slice" (1) (Coded slice of a non-IDR picture) 0xd4d.3-0xd4e (0.5)
      |                                               |                |              rbsp{}: 0xd4e-0xd4e.7 (0.7)
0x0d40|                                          9e   |              . |                first_mb_in_slice: 0 0xd4e-0xd4e.1 (0.1)
0x0d40|                                          9e   |              . |                slice_type: "b" (6) 0xd4e.1-0xd4e.6 (0.5)
0x0d40|                                          9e   |              . |                pic_parameter_set_id: 0 0xd4e.6-0xd4e.7 (0.1)
0x0d40|                                          9e 41|              .A|              gap0: raw bits 0xd4e.7-0xd81 (50.1)
0x0d50|79 0a ff 01 f9 2d 04 d3 29 fe 4d 76 42 26 f6 cd|y....-..).MvB&..|
*     |until 0xd80.7 (51)                             |                |
      |                                               |                |      id: 1
      |                                               |                |      data_format: "avc1" (Advanced Video Coding)
