$ fq -n '"000000106674797069736f6d0000020000000013636f6c726e636c7800010001000100" | fromhex | mp4 | dv'
    |00 01 02 03 04 05 06 07 08 09 0a 0b 0c 0d 0e 0f|0123456789abcdef|.{}: (mp4) 0x0-0x23 (35)
    |                                               |                |  boxes[0:2]: 0x0-0x23 (35)
    |                                               |                |    [0]{}: box 0x0-0x10 (16)
0x00|00 00 00 10                                    |....            |      size: 16 0x0-0x4 (4)
0x00|            66 74 79 70                        |    ftyp        |      type: "ftyp" (File type and compatibility) 0x4-0x8 (4)
0x00|                        69 73 6f 6d            |        isom    |      major_brand: "isom" 0x8-0xc (4)
0x00|                                    00 00 02 00|            ....|      minor_version: 512 0xc-0x10 (4)
    |                                               |                |      brands[0:0]: 0x10-0x10 (0)
    |                                               |                |    [1]{}: box 0x10-0x23 (19)
0x10|00 00 00 13                                    |....            |      size: 19 0x10-0x14 (4)
0x10|            63 6f 6c 72                        |    colr        |      type: "colr" (Specifies the colourspace of the image) 0x14-0x18 (4)
0x10|                        6e 63 6c 78            |        nclx    |      parameter_type: "nclx" 0x18-0x1c (4)
0x10|                                    00 01      |            ..  |      primaries_index: "bt709" (1) (ITU-R BT1361 / IEC 61966-2-4 / SMPTE RP 177 Annex B) 0x1c-0x1e (2)
0x10|                                          00 01|              ..|      transfer_function_index: "bt709" (1) (ITU-R BT1361) 0x1e-0x20 (2)
0x20|00 01                                          |..              |      matrix_index: "bt709" (1) (ITU-R BT1361 / IEC 61966-2-4 xvYCC709 / derived in SMPTE RP 177 Annex B) 0x20-0x22 (2)
0x20|      00|                                      |  .|            |      color_range: 0 0x22-0x23 (1)
