# ffmpeg -f lavfi -i sine -f lavfi -i testsrc -g 1 -c:a aac -c:v h264 -f mp4 -t 100ms dash_in.mp4
# packager 'in=dash_in.mp4,stream=audio,init_segment=dash_audio_init.mp4,segment_template=dash_audio_$Number$.m4s' --fragment_duration=0.05 --crypto_period_duration=1 --enable_raw_key_encryption --keys=label=AUDIO:key_id=112233445566778899aabbccddeeff00:key=332233445566778899aabbccddeeff00 --iv=442233445566778899aabbccddeeff00 --clear_lead 0
# packager 'in=dash_in.mp4,stream=video,init_segment=dash_video_init.mp4,segment_template=dash_video_$Number$.m4s'
$ fq -d mp4 dv dash_audio_init.mp4
     |00 01 02 03 04 05 06 07 08 09 0a 0b 0c 0d 0e 0f|0123456789abcdef|.{}: dash_audio_init.mp4 (mp4) 0x0-0x385.7 (902)
     |                                               |                |  boxes[0:2]: 0x0-0x385.7 (902)
     |                                               |                |    [0]{}: box 0x0-0x1f.7 (32)
0x000|00 00 00 20                                    |...             |      size: 32 0x0-0x3.7 (4)
0x000|            66 74 79 70                        |    ftyp        |      type: "ftyp" (File type and compatibility) 0x4-0x7.7 (4)
0x000|                        69 73 6f 6d            |        isom    |      major_brand: "isom" 0x8-0xb.7 (4)
0x000|                                    00 00 00 00|            ....|      minor_version: 0 0xc-0xf.7 (4)
     |                                               |                |      brands[0:4]: 0x10-0x1f.7 (16)
0x010|69 73 6f 38                                    |iso8            |        [0]: "iso8" brand (MP4 Base Media v8) 0x10-0x13.7 (4)
0x010|            6d 70 34 31                        |    mp41        |        [1]: "mp41" brand (MP4 version 1) 0x14-0x17.7 (4)
0x010|                        64 61 73 68            |        dash    |        [2]: "dash" brand (ISO base media file format file specifically designed for DASH including movie fragments and Segment Index) 0x18-0x1b.7 (4)
0x010|                                    63 6d 66 63|            cmfc|        [3]: "cmfc" brand (CMAF Track Format) 0x1c-0x1f.7 (4)
     |                                               |                |    [1]{}: box 0x20-0x385.7 (870)
0x020|00 00 03 66                                    |...f            |      size: 870 0x20-0x23.7 (4)
0x020|            6d 6f 6f 76                        |    moov        |      type: "moov" (Container for all the meta-data) 0x24-0x27.7 (4)
     |                                               |                |      boxes[0:4]: 0x28-0x385.7 (862)
     |                                               |                |        [0]{}: box 0x28-0x93.7 (108)
0x020|                        00 00 00 6c            |        ...l    |          size: 108 0x28-0x2b.7 (4)
0x020|                                    6d 76 68 64|            mvhd|          type: "mvhd" (Movie header, overall declarations) 0x2c-0x2f.7 (4)
0x030|00                                             |.               |          version: 0 0x30-0x30.7 (1)
0x030|   00 00 00                                    | ...            |          flags: 0 0x31-0x33.7 (3)
0x030|            e0 b8 2a 76                        |    ..*v        |          creation_time: 3770165878 (2023-06-21T04:17:58Z) 0x34-0x37.7 (4)
0x030|                        e0 b8 2a 76            |        ..*v    |          modification_time: 3770165878 (2023-06-21T04:17:58Z) 0x38-0x3b.7 (4)
0x030|                                    00 00 ac 44|            ...D|          time_scale: 44100 0x3c-0x3f.7 (4)
0x040|00 00 00 00                                    |....            |          duration: 0 0x40-0x43.7 (4)
0x040|            00 01 00 00                        |    ....        |          preferred_rate: 1 0x44-0x47.7 (4)
0x040|                        01 00                  |        ..      |          preferred_volume: 1 0x48-0x49.7 (2)
0x040|                              00 00 00 00 00 00|          ......|          reserved: "\x00\x00\x00\x00\x00\x00\x00\x00\x00\x00" 0x4a-0x53.7 (10)
0x050|00 00 00 00                                    |....            |
     |                                               |                |          matrix_structure{}: 0x54-0x77.7 (36)
0x050|            00 01 00 00                        |    ....        |            a: 1 0x54-0x57.7 (4)
0x050|                        00 00 00 00            |        ....    |            b: 0 0x58-0x5b.7 (4)
0x050|                                    00 00 00 00|            ....|            u: 0 0x5c-0x5f.7 (4)
0x060|00 00 00 00                                    |....            |            c: 0 0x60-0x63.7 (4)
0x060|            00 01 00 00                        |    ....        |            d: 1 0x64-0x67.7 (4)
0x060|                        00 00 00 00            |        ....    |            v: 0 0x68-0x6b.7 (4)
0x060|                                    00 00 00 00|            ....|            x: 0 0x6c-0x6f.7 (4)
0x070|00 00 00 00                                    |....            |            y: 0 0x70-0x73.7 (4)
0x070|            40 00 00 00                        |    @...        |            w: 1 0x74-0x77.7 (4)
0x070|                        00 00 00 00            |        ....    |          preview_time: 0 0x78-0x7b.7 (4)
0x070|                                    00 00 00 00|            ....|          preview_duration: 0 0x7c-0x7f.7 (4)
0x080|00 00 00 00                                    |....            |          poster_time: 0 0x80-0x83.7 (4)
0x080|            00 00 00 00                        |    ....        |          selection_time: 0 0x84-0x87.7 (4)
0x080|                        00 00 00 00            |        ....    |          selection_duration: 0 0x88-0x8b.7 (4)
0x080|                                    00 00 00 00|            ....|          current_time: 0 0x8c-0x8f.7 (4)
0x090|00 00 00 02                                    |....            |          next_track_id: 2 0x90-0x93.7 (4)
     |                                               |                |        [1]{}: box 0x94-0x120.7 (141)
0x090|            00 00 00 8d                        |    ....        |          size: 141 0x94-0x97.7 (4)
0x090|                        6d 65 74 61            |        meta    |          type: "meta" (Metadata container) 0x98-0x9b.7 (4)
0x090|                                    00 00 00 00|            ....|          maybe_flags: 0 0x9c-0x9f.7 (4)
     |                                               |                |          boxes[0:2]: 0xa0-0x120.7 (129)
     |                                               |                |            [0]{}: box 0xa0-0xbf.7 (32)
0x0a0|00 00 00 20                                    |...             |              size: 32 0xa0-0xa3.7 (4)
0x0a0|            68 64 6c 72                        |    hdlr        |              type: "hdlr" (Handler, declares the media (handler) type) 0xa4-0xa7.7 (4)
0x0a0|                        00                     |        .       |              version: 0 0xa8-0xa8.7 (1)
0x0a0|                           00 00 00            |         ...    |              flags: 0 0xa9-0xab.7 (3)
0x0a0|                                    00 00 00 00|            ....|              component_type: "" 0xac-0xaf.7 (4)
0x0b0|49 44 33 32                                    |ID32            |              component_subtype: "ID32" 0xb0-0xb3.7 (4)
0x0b0|            00 00 00 00                        |    ....        |              component_manufacturer: "" 0xb4-0xb7.7 (4)
0x0b0|                        00 00 00 00            |        ....    |              component_flags: 0 0xb8-0xbb.7 (4)
0x0b0|                                    00 00 00 00|            ....|              component_flags_mask: 0 0xbc-0xbf.7 (4)
     |                                               |                |              component_name: "" 0xc0-NA (0)
     |                                               |                |            [1]{}: box 0xc0-0x120.7 (97)
0x0c0|00 00 00 61                                    |...a            |              size: 97 0xc0-0xc3.7 (4)
0x0c0|            49 44 33 32                        |    ID32        |              type: "ID32" (ID3 version 2 container) 0xc4-0xc7.7 (4)
0x0c0|                        00                     |        .       |              version: 0 0xc8-0xc8.7 (1)
0x0c0|                           00 00 00            |         ...    |              flags: 0 0xc9-0xcb.7 (3)
0x0c0|                                    15         |            .   |              pad: 0 0xcc-0xcc (0.1)
0x0c0|                                    15 c7      |            ..  |              language: "eng" 0xcc.1-0xcd.7 (1.7)
     |00 01 02 03 04 05 06 07 08 09 0a 0b 0c 0d 0e 0f|0123456789abcdef|              data{}: (id3v2) 0xce-0x120.7 (83)
     |                                               |                |                header{}: 0xce-0xd7.7 (10)
0x0c0|                                          49 44|              ID|                  magic: "ID3" (valid) 0xce-0xd0.7 (3)
0x0d0|33                                             |3               |
0x0d0|   04                                          | .              |                  version: 4 (valid) 0xd1-0xd1.7 (1)
0x0d0|      00                                       |  .             |                  revision: 0 0xd2-0xd2.7 (1)
     |                                               |                |                  flags{}: 0xd3-0xd3.7 (1)
0x0d0|         00                                    |   .            |                    unsynchronisation: false 0xd3-0xd3 (0.1)
0x0d0|         00                                    |   .            |                    extended_header: false 0xd3.1-0xd3.1 (0.1)
0x0d0|         00                                    |   .            |                    experimental_indicator: false 0xd3.2-0xd3.2 (0.1)
0x0d0|         00                                    |   .            |                    unused: 0 0xd3.3-0xd3.7 (0.5)
0x0d0|            00 00 00 49                        |    ...I        |                  size: 73 0xd4-0xd7.7 (4)
     |                                               |                |                frames[0:1]: 0xd8-0x120.7 (73)
     |                                               |                |                  [0]{}: frame 0xd8-0x120.7 (73)
0x0d0|                        50 52 49 56            |        PRIV    |                    id: "PRIV" (Private frame) 0xd8-0xdb.7 (4)
0x0d0|                                    00 00 00 3f|            ...?|                    size: 63 0xdc-0xdf.7 (4)
     |                                               |                |                    flags{}: 0xe0-0xe1.7 (2)
0x0e0|00                                             |.               |                      unused0: 0 0xe0-0xe0 (0.1)
0x0e0|00                                             |.               |                      tag_alter_preservation: false 0xe0.1-0xe0.1 (0.1)
0x0e0|00                                             |.               |                      file_alter_preservation: false 0xe0.2-0xe0.2 (0.1)
0x0e0|00                                             |.               |                      read_only: false 0xe0.3-0xe0.3 (0.1)
0x0e0|00 00                                          |..              |                      unused1: 0 0xe0.4-0xe1 (0.5)
0x0e0|   00                                          | .              |                      grouping_identity: false 0xe1.1-0xe1.1 (0.1)
0x0e0|   00                                          | .              |                      unused2: 0 0xe1.2-0xe1.3 (0.2)
0x0e0|   00                                          | .              |                      compression: false 0xe1.4-0xe1.4 (0.1)
0x0e0|   00                                          | .              |                      encryption: false 0xe1.5-0xe1.5 (0.1)
0x0e0|   00                                          | .              |                      unsync: false 0xe1.6-0xe1.6 (0.1)
0x0e0|   00                                          | .              |                      data_length_indicator: false 0xe1.7-0xe1.7 (0.1)
0x0e0|      68 74 74 70 73 3a 2f 2f 67 69 74 68 75 62|  https://github|                    owner: "https://github.com/google/shaka-packager" 0xe2-0x10a.7 (41)
0x0f0|2e 63 6f 6d 2f 67 6f 6f 67 6c 65 2f 73 68 61 6b|.com/google/shak|
0x100|61 2d 70 61 63 6b 61 67 65 72 00               |a-packager.     |
0x100|                                 76 32 2e 34 2e|           v2.4.|                    data: raw bits 0x10b-0x120.7 (22)
0x110|33 2d 64 64 39 38 37 30 30 2d 72 65 6c 65 61 73|3-dd98700-releas|
0x120|65                                             |e               |
     |                                               |                |        [2]{}: box 0x121-0x34d.7 (557)
0x120|   00 00 02 2d                                 | ...-           |          size: 557 0x121-0x124.7 (4)
0x120|               74 72 61 6b                     |     trak       |          type: "trak" (Container for an individual track or stream) 0x125-0x128.7 (4)
     |                                               |                |          boxes[0:3]: 0x129-0x34d.7 (549)
     |                                               |                |            [0]{}: box 0x129-0x184.7 (92)
0x120|                           00 00 00 5c         |         ...\   |              size: 92 0x129-0x12c.7 (4)
0x120|                                       74 6b 68|             tkh|              type: "tkhd" (Track header, overall information about the track) 0x12d-0x130.7 (4)
0x130|64                                             |d               |
0x130|   00                                          | .              |              version: 0 0x131-0x131.7 (1)
     |                                               |                |              flags{}: 0x132-0x134.7 (3)
0x130|      00 00 07                                 |  ...           |                unused: 0 0x132-0x134.3 (2.4)
0x130|            07                                 |    .           |                size_is_aspect_ratio: false 0x134.4-0x134.4 (0.1)
0x130|            07                                 |    .           |                in_preview: true 0x134.5-0x134.5 (0.1)
0x130|            07                                 |    .           |                in_movie: true 0x134.6-0x134.6 (0.1)
0x130|            07                                 |    .           |                enabled: true 0x134.7-0x134.7 (0.1)
0x130|               e0 b8 2a 76                     |     ..*v       |              creation_time: 3770165878 (2023-06-21T04:17:58Z) 0x135-0x138.7 (4)
0x130|                           e0 b8 2a 76         |         ..*v   |              modification_time: 3770165878 (2023-06-21T04:17:58Z) 0x139-0x13c.7 (4)
0x130|                                       00 00 00|             ...|              track_id: 1 0x13d-0x140.7 (4)
0x140|01                                             |.               |
0x140|   00 00 00 00                                 | ....           |              reserved1: 0 0x141-0x144.7 (4)
0x140|               00 00 00 00                     |     ....       |              duration: 0 0x145-0x148.7 (4)
0x140|                           00 00 00 00 00 00 00|         .......|              reserved2: raw bits 0x149-0x150.7 (8)
0x150|00                                             |.               |
0x150|   00 00                                       | ..             |              layer: 0 0x151-0x152.7 (2)
0x150|         00 00                                 |   ..           |              alternate_group: 0 0x153-0x154.7 (2)
0x150|               01 00                           |     ..         |              volume: 1 0x155-0x156.7 (2)
0x150|                     00 00                     |       ..       |              reserved3: 0 0x157-0x158.7 (2)
     |                                               |                |              matrix_structure{}: 0x159-0x17c.7 (36)
0x150|                           00 01 00 00         |         ....   |                a: 1 0x159-0x15c.7 (4)
0x150|                                       00 00 00|             ...|                b: 0 0x15d-0x160.7 (4)
0x160|00                                             |.               |
0x160|   00 00 00 00                                 | ....           |                u: 0 0x161-0x164.7 (4)
0x160|               00 00 00 00                     |     ....       |                c: 0 0x165-0x168.7 (4)
0x160|                           00 01 00 00         |         ....   |                d: 1 0x169-0x16c.7 (4)
0x160|                                       00 00 00|             ...|                v: 0 0x16d-0x170.7 (4)
0x170|00                                             |.               |
0x170|   00 00 00 00                                 | ....           |                x: 0 0x171-0x174.7 (4)
0x170|               00 00 00 00                     |     ....       |                y: 0 0x175-0x178.7 (4)
0x170|                           40 00 00 00         |         @...   |                w: 1 0x179-0x17c.7 (4)
0x170|                                       00 00 00|             ...|              track_width: 0 0x17d-0x180.7 (4)
0x180|00                                             |.               |
0x180|   00 00 00 00                                 | ....           |              track_height: 0 0x181-0x184.7 (4)
     |                                               |                |            [1]{}: box 0x185-0x329.7 (421)
0x180|               00 00 01 a5                     |     ....       |              size: 421 0x185-0x188.7 (4)
0x180|                           6d 64 69 61         |         mdia   |              type: "mdia" (Container for the media information in a track) 0x189-0x18c.7 (4)
     |                                               |                |              boxes[0:3]: 0x18d-0x329.7 (413)
     |                                               |                |                [0]{}: box 0x18d-0x1ac.7 (32)
0x180|                                       00 00 00|             ...|                  size: 32 0x18d-0x190.7 (4)
0x190|20                                             |                |
0x190|   6d 64 68 64                                 | mdhd           |                  type: "mdhd" (Media header, overall information about the media) 0x191-0x194.7 (4)
0x190|               00                              |     .          |                  version: 0 0x195-0x195.7 (1)
0x190|                  00 00 00                     |      ...       |                  flags: 0 0x196-0x198.7 (3)
0x190|                           e0 b8 2a 76         |         ..*v   |                  creation_time: 3770165878 (2023-06-21T04:17:58Z) 0x199-0x19c.7 (4)
0x190|                                       e0 b8 2a|             ..*|                  modification_time: 3770165878 (2023-06-21T04:17:58Z) 0x19d-0x1a0.7 (4)
0x1a0|76                                             |v               |
0x1a0|   00 00 ac 44                                 | ...D           |                  time_scale: 44100 0x1a1-0x1a4.7 (4)
0x1a0|               00 00 00 00                     |     ....       |                  duration: 0 0x1a5-0x1a8.7 (4)
0x1a0|                           55 c4               |         U.     |                  language: "und" 0x1a9-0x1aa.7 (2)
0x1a0|                                 00 00         |           ..   |                  quality: 0 0x1ab-0x1ac.7 (2)
     |                                               |                |                [1]{}: box 0x1ad-0x1d9.7 (45)
0x1a0|                                       00 00 00|             ...|                  size: 45 0x1ad-0x1b0.7 (4)
0x1b0|2d                                             |-               |
0x1b0|   68 64 6c 72                                 | hdlr           |                  type: "hdlr" (Handler, declares the media (handler) type) 0x1b1-0x1b4.7 (4)
0x1b0|               00                              |     .          |                  version: 0 0x1b5-0x1b5.7 (1)
0x1b0|                  00 00 00                     |      ...       |                  flags: 0 0x1b6-0x1b8.7 (3)
0x1b0|                           00 00 00 00         |         ....   |                  component_type: "" 0x1b9-0x1bc.7 (4)
0x1b0|                                       73 6f 75|             sou|                  component_subtype: "soun" (Audio Track) 0x1bd-0x1c0.7 (4)
0x1c0|6e                                             |n               |
0x1c0|   00 00 00 00                                 | ....           |                  component_manufacturer: "" 0x1c1-0x1c4.7 (4)
0x1c0|               00 00 00 00                     |     ....       |                  component_flags: 0 0x1c5-0x1c8.7 (4)
0x1c0|                           00 00 00 00         |         ....   |                  component_flags_mask: 0 0x1c9-0x1cc.7 (4)
0x1c0|                                       53 6f 75|             Sou|                  component_name: "SoundHandler" 0x1cd-0x1d9.7 (13)
0x1d0|6e 64 48 61 6e 64 6c 65 72 00                  |ndHandler.      |
     |                                               |                |                [2]{}: box 0x1da-0x329.7 (336)
0x1d0|                              00 00 01 50      |          ...P  |                  size: 336 0x1da-0x1dd.7 (4)
0x1d0|                                          6d 69|              mi|                  type: "minf" (Media information container) 0x1de-0x1e1.7 (4)
0x1e0|6e 66                                          |nf              |
     |                                               |                |                  boxes[0:3]: 0x1e2-0x329.7 (328)
     |                                               |                |                    [0]{}: box 0x1e2-0x205.7 (36)
0x1e0|      00 00 00 24                              |  ...$          |                      size: 36 0x1e2-0x1e5.7 (4)
0x1e0|                  64 69 6e 66                  |      dinf      |                      type: "dinf" (Data information box, container) 0x1e6-0x1e9.7 (4)
     |                                               |                |                      boxes[0:1]: 0x1ea-0x205.7 (28)
     |                                               |                |                        [0]{}: box 0x1ea-0x205.7 (28)
0x1e0|                              00 00 00 1c      |          ....  |                          size: 28 0x1ea-0x1ed.7 (4)
0x1e0|                                          64 72|              dr|                          type: "dref" (Data reference box, declares source(s) of media data in track) 0x1ee-0x1f1.7 (4)
0x1f0|65 66                                          |ef              |
0x1f0|      00                                       |  .             |                          version: 0 0x1f2-0x1f2.7 (1)
0x1f0|         00 00 00                              |   ...          |                          flags: 0 0x1f3-0x1f5.7 (3)
0x1f0|                  00 00 00 01                  |      ....      |                          entry_count: 1 0x1f6-0x1f9.7 (4)
     |                                               |                |                          boxes[0:1]: 0x1fa-0x205.7 (12)
     |                                               |                |                            [0]{}: box 0x1fa-0x205.7 (12)
0x1f0|                              00 00 00 0c      |          ....  |                              size: 12 0x1fa-0x1fd.7 (4)
0x1f0|                                          75 72|              ur|                              type: "url " 0x1fe-0x201.7 (4)
0x200|6c 20                                          |l               |
0x200|      00                                       |  .             |                              version: 0 0x202-0x202.7 (1)
0x200|         00 00 01                              |   ...          |                              flags: 1 0x203-0x205.7 (3)
     |                                               |                |                              data: raw bits 0x206-NA (0)
     |                                               |                |                    [1]{}: box 0x206-0x319.7 (276)
0x200|                  00 00 01 14                  |      ....      |                      size: 276 0x206-0x209.7 (4)
0x200|                              73 74 62 6c      |          stbl  |                      type: "stbl" (Sample table box, container for the time/space map) 0x20a-0x20d.7 (4)
     |                                               |                |                      boxes[0:6]: 0x20e-0x319.7 (268)
     |                                               |                |                        [0]{}: box 0x20e-0x2bb.7 (174)
0x200|                                          00 00|              ..|                          size: 174 0x20e-0x211.7 (4)
0x210|00 ae                                          |..              |
0x210|      73 74 73 64                              |  stsd          |                          type: "stsd" (Sample descriptions (codec types, initialization etc.)) 0x212-0x215.7 (4)
0x210|                  00                           |      .         |                          version: 0 0x216-0x216.7 (1)
0x210|                     00 00 00                  |       ...      |                          flags: 0 0x217-0x219.7 (3)
0x210|                              00 00 00 01      |          ....  |                          entry_count: 1 0x21a-0x21d.7 (4)
     |                                               |                |                          boxes[0:1]: 0x21e-0x2bb.7 (158)
     |                                               |                |                            [0]{}: box 0x21e-0x2bb.7 (158)
0x210|                                          00 00|              ..|                              size: 158 0x21e-0x221.7 (4)
0x220|00 9e                                          |..              |
0x220|      65 6e 63 61                              |  enca          |                              type: "enca" (Encrypted/Protected audio) 0x222-0x225.7 (4)
0x220|                  00 00 00 00 00 00            |      ......    |                              reserved: raw bits 0x226-0x22b.7 (6)
0x220|                                    00 01      |            ..  |                              data_reference_index: 1 0x22c-0x22d.7 (2)
0x220|                                          00 00|              ..|                              version: 0 0x22e-0x22f.7 (2)
0x230|00 00                                          |..              |                              revision_level: 0 0x230-0x231.7 (2)
0x230|      00 00 00 00                              |  ....          |                              max_packet_size: 0 0x232-0x235.7 (4)
0x230|                  00 01                        |      ..        |                              num_audio_channels: 1 0x236-0x237.7 (2)
0x230|                        00 10                  |        ..      |                              sample_size: 16 0x238-0x239.7 (2)
0x230|                              00 00            |          ..    |                              compression_id: 0 0x23a-0x23b.7 (2)
0x230|                                    00 00      |            ..  |                              packet_size: 0 0x23c-0x23d.7 (2)
0x230|                                          ac 44|              .D|                              sample_rate: 44100 0x23e-0x241.7 (4)
0x240|00 00                                          |..              |
     |                                               |                |                              boxes[0:2]: 0x242-0x2bb.7 (122)
     |                                               |                |                                [0]{}: box 0x242-0x26b.7 (42)
0x240|      00 00 00 2a                              |  ...*          |                                  size: 42 0x242-0x245.7 (4)
0x240|                  65 73 64 73                  |      esds      |                                  type: "esds" (Elementary stream descriptor) 0x246-0x249.7 (4)
0x240|                              00 00 00 00      |          ....  |                                  version: 0 0x24a-0x24d.7 (4)
     |00 01 02 03 04 05 06 07 08 09 0a 0b 0c 0d 0e 0f|0123456789abcdef|                                  descriptor{}: (mpeg_es) 0x24e-0x26b.7 (30)
0x240|                                          03   |              . |                                    tag_id: "ES_DescrTag" (3) 0x24e-0x24e.7 (1)
0x240|                                             1c|               .|                                    length: 28 0x24f-0x24f.7 (1)
0x250|00 01                                          |..              |                                    es_id: 1 0x250-0x251.7 (2)
0x250|      00                                       |  .             |                                    stream_dependency_flag: false 0x252-0x252 (0.1)
0x250|      00                                       |  .             |                                    url_flag: false 0x252.1-0x252.1 (0.1)
0x250|      00                                       |  .             |                                    ocr_stream_flag: false 0x252.2-0x252.2 (0.1)
0x250|      00                                       |  .             |                                    stream_priority: 0 0x252.3-0x252.7 (0.5)
     |                                               |                |                                    dec_config_descr{}: 0x253-0x268.7 (22)
0x250|         04                                    |   .            |                                      tag_id: "DecoderConfigDescrTag" (4) 0x253-0x253.7 (1)
0x250|            14                                 |    .           |                                      length: 20 0x254-0x254.7 (1)
0x250|               40                              |     @          |                                      object_type_indication: "MPEGObjectTypeAAC" (64) 0x255-0x255.7 (1)
0x250|                  15                           |      .         |                                      stream_type: "AudioStream" (5) 0x256-0x256.5 (0.6)
0x250|                  15                           |      .         |                                      upstream: false 0x256.6-0x256.6 (0.1)
0x250|                  15                           |      .         |                                      specific_info_flag: true 0x256.7-0x256.7 (0.1)
0x250|                     00 00 00                  |       ...      |                                      buffer_size_db: 0 0x257-0x259.7 (3)
0x250|                              00 01 2a 80      |          ..*.  |                                      max_bit_rate: 76416 0x25a-0x25d.7 (4)
0x250|                                          00 01|              ..|                                      avg_bit_rate: 76416 0x25e-0x261.7 (4)
0x260|2a 80                                          |*.              |
     |                                               |                |                                      decoder_specific_info{}: 0x262-0x268.7 (7)
0x260|      05                                       |  .             |                                        tag_id: "DecSpecificInfoTag" (5) 0x262-0x262.7 (1)
0x260|         05                                    |   .            |                                        length: 5 0x263-0x263.7 (1)
     |00 01 02 03 04 05 06 07 08 09 0a 0b 0c 0d 0e 0f|0123456789abcdef|                                        audio_specific_config{}: (mpeg_asc) 0x264-0x268.7 (5)
0x260|            12                                 |    .           |                                          object_type: "aac_lc" (2) (AAC Low Complexity) 0x264-0x264.4 (0.5)
0x260|            12 08                              |    ..          |                                          sampling_frequency: 44100 (4) 0x264.5-0x265 (0.4)
0x260|               08                              |     .          |                                          channel_configuration: 1 (front-center) 0x265.1-0x265.4 (0.4)
0x260|               08 56 e5 00                     |     .V..       |                                          var_aot_or_byte_align: raw bits 0x265.5-0x268.7 (3.3)
     |                                               |                |                                    sl_config_descr{}: 0x269-0x26b.7 (3)
0x260|                           06                  |         .      |                                      tag_id: "SLConfigDescrTag" (6) 0x269-0x269.7 (1)
0x260|                              01               |          .     |                                      length: 1 0x26a-0x26a.7 (1)
0x260|                                 02            |           .    |                                      data: raw bits 0x26b-0x26b.7 (1)
     |                                               |                |                                [1]{}: box 0x26c-0x2bb.7 (80)
0x260|                                    00 00 00 50|            ...P|                                  size: 80 0x26c-0x26f.7 (4)
0x270|73 69 6e 66                                    |sinf            |                                  type: "sinf" (Protection scheme information box) 0x270-0x273.7 (4)
     |                                               |                |                                  boxes[0:3]: 0x274-0x2bb.7 (72)
     |                                               |                |                                    [0]{}: box 0x274-0x27f.7 (12)
0x270|            00 00 00 0c                        |    ....        |                                      size: 12 0x274-0x277.7 (4)
0x270|                        66 72 6d 61            |        frma    |                                      type: "frma" (Original format box) 0x278-0x27b.7 (4)
0x270|                                    6d 70 34 61|            mp4a|                                      format: "mp4a" 0x27c-0x27f.7 (4)
     |                                               |                |                                    [1]{}: box 0x280-0x293.7 (20)
0x280|00 00 00 14                                    |....            |                                      size: 20 0x280-0x283.7 (4)
0x280|            73 63 68 6d                        |    schm        |                                      type: "schm" (Scheme type box) 0x284-0x287.7 (4)
0x280|                        00                     |        .       |                                      version: 0 0x288-0x288.7 (1)
0x280|                           00 00 00            |         ...    |                                      flags: 0 0x289-0x28b.7 (3)
0x280|                                    63 65 6e 63|            cenc|                                      encryption_type: "cenc" 0x28c-0x28f.7 (4)
0x290|00 01                                          |..              |                                      encryption_version: 1 0x290-0x291.7 (2)
0x290|      00 00                                    |  ..            |                                      uri: "\x00\x00" 0x292-0x293.7 (2)
     |                                               |                |                                    [2]{}: box 0x294-0x2bb.7 (40)
0x290|            00 00 00 28                        |    ...(        |                                      size: 40 0x294-0x297.7 (4)
0x290|                        73 63 68 69            |        schi    |                                      type: "schi" (Scheme information box) 0x298-0x29b.7 (4)
     |                                               |                |                                      boxes[0:1]: 0x29c-0x2bb.7 (32)
     |                                               |                |                                        [0]{}: box 0x29c-0x2bb.7 (32)
0x290|                                    00 00 00 20|            ... |                                          size: 32 0x29c-0x29f.7 (4)
0x2a0|74 65 6e 63                                    |tenc            |                                          type: "tenc" (Track Encryption) 0x2a0-0x2a3.7 (4)
0x2a0|            00                                 |    .           |                                          version: 0 0x2a4-0x2a4.7 (1)
0x2a0|               00 00 00                        |     ...        |                                          flags: 0 0x2a5-0x2a7.7 (3)
0x2a0|                        00                     |        .       |                                          reserved0: 0 0x2a8-0x2a8.7 (1)
0x2a0|                           00                  |         .      |                                          reserved1: 0 0x2a9-0x2a9.7 (1)
0x2a0|                              01               |          .     |                                          default_is_encrypted: 1 0x2aa-0x2aa.7 (1)
0x2a0|                                 08            |           .    |                                          default_iv_size: 8 0x2ab-0x2ab.7 (1)
0x2a0|                                    00 00 00 00|            ....|                                          default_kid: raw bits 0x2ac-0x2bb.7 (16)
0x2b0|00 00 00 00 00 00 00 00 00 00 00 00            |............    |
     |                                               |                |                        [1]{}: box 0x2bc-0x2cb.7 (16)
0x2b0|                                    00 00 00 10|            ....|                          size: 16 0x2bc-0x2bf.7 (4)
0x2c0|73 74 74 73                                    |stts            |                          type: "stts" (Sample time-to-sample) 0x2c0-0x2c3.7 (4)
0x2c0|            00                                 |    .           |                          version: 0 0x2c4-0x2c4.7 (1)
0x2c0|               00 00 00                        |     ...        |                          flags: 0 0x2c5-0x2c7.7 (3)
0x2c0|                        00 00 00 00            |        ....    |                          entry_count: 0 0x2c8-0x2cb.7 (4)
     |                                               |                |                          entries[0:0]: 0x2cc-NA (0)
     |                                               |                |                        [2]{}: box 0x2cc-0x2db.7 (16)
0x2c0|                                    00 00 00 10|            ....|                          size: 16 0x2cc-0x2cf.7 (4)
0x2d0|73 74 73 63                                    |stsc            |                          type: "stsc" (Sample-to-chunk, partial data-offset information) 0x2d0-0x2d3.7 (4)
0x2d0|            00                                 |    .           |                          version: 0 0x2d4-0x2d4.7 (1)
0x2d0|               00 00 00                        |     ...        |                          flags: 0 0x2d5-0x2d7.7 (3)
0x2d0|                        00 00 00 00            |        ....    |                          entry_count: 0 0x2d8-0x2db.7 (4)
     |                                               |                |                          entries[0:0]: 0x2dc-NA (0)
     |                                               |                |                        [3]{}: box 0x2dc-0x2ef.7 (20)
0x2d0|                                    00 00 00 14|            ....|                          size: 20 0x2dc-0x2df.7 (4)
0x2e0|73 74 73 7a                                    |stsz            |                          type: "stsz" (Sample sizes (framing)) 0x2e0-0x2e3.7 (4)
0x2e0|            00                                 |    .           |                          version: 0 0x2e4-0x2e4.7 (1)
0x2e0|               00 00 00                        |     ...        |                          flags: 0 0x2e5-0x2e7.7 (3)
0x2e0|                        00 00 00 00            |        ....    |                          sample_size: 0 0x2e8-0x2eb.7 (4)
0x2e0|                                    00 00 00 00|            ....|                          entry_count: 0 0x2ec-0x2ef.7 (4)
     |                                               |                |                          entries[0:0]: 0x2f0-NA (0)
     |                                               |                |                        [4]{}: box 0x2f0-0x2ff.7 (16)
0x2f0|00 00 00 10                                    |....            |                          size: 16 0x2f0-0x2f3.7 (4)
0x2f0|            73 74 63 6f                        |    stco        |                          type: "stco" (Chunk offset, partial data-offset information) 0x2f4-0x2f7.7 (4)
0x2f0|                        00                     |        .       |                          version: 0 0x2f8-0x2f8.7 (1)
0x2f0|                           00 00 00            |         ...    |                          flags: 0 0x2f9-0x2fb.7 (3)
0x2f0|                                    00 00 00 00|            ....|                          entry_count: 0 0x2fc-0x2ff.7 (4)
     |                                               |                |                          entries[0:0]: 0x300-NA (0)
     |                                               |                |                        [5]{}: box 0x300-0x319.7 (26)
0x300|00 00 00 1a                                    |....            |                          size: 26 0x300-0x303.7 (4)
0x300|            73 67 70 64                        |    sgpd        |                          type: "sgpd" (Sample group definition box) 0x304-0x307.7 (4)
0x300|                        01                     |        .       |                          version: 1 0x308-0x308.7 (1)
0x300|                           00 00 00            |         ...    |                          flags: 0 0x309-0x30b.7 (3)
0x300|                                    72 6f 6c 6c|            roll|                          grouping_type: "roll" 0x30c-0x30f.7 (4)
0x310|00 00 00 02                                    |....            |                          default_length: 2 0x310-0x313.7 (4)
0x310|            00 00 00 01                        |    ....        |                          entry_count: 1 0x314-0x317.7 (4)
     |                                               |                |                          entries[0:1]: 0x318-0x319.7 (2)
     |                                               |                |                            [0]{}: entry 0x318-0x319.7 (2)
0x310|                        ff ff                  |        ..      |                              roll_distance: 65535 0x318-0x319.7 (2)
     |                                               |                |                    [2]{}: box 0x31a-0x329.7 (16)
0x310|                              00 00 00 10      |          ....  |                      size: 16 0x31a-0x31d.7 (4)
0x310|                                          73 6d|              sm|                      type: "smhd" (Sound media header, overall information (sound track only)) 0x31e-0x321.7 (4)
0x320|68 64                                          |hd              |
0x320|      00                                       |  .             |                      version: 0 0x322-0x322.7 (1)
0x320|         00 00 00                              |   ...          |                      flags: 0 0x323-0x325.7 (3)
0x320|                  00 00                        |      ..        |                      balance: 0 0x326-0x327.7 (2)
0x320|                        00 00                  |        ..      |                      reserved: 0 0x328-0x329.7 (2)
     |                                               |                |            [2]{}: box 0x32a-0x34d.7 (36)
0x320|                              00 00 00 24      |          ...$  |              size: 36 0x32a-0x32d.7 (4)
0x320|                                          65 64|              ed|              type: "edts" (Edit list container) 0x32e-0x331.7 (4)
0x330|74 73                                          |ts              |
     |                                               |                |              boxes[0:1]: 0x332-0x34d.7 (28)
     |                                               |                |                [0]{}: box 0x332-0x34d.7 (28)
0x330|      00 00 00 1c                              |  ....          |                  size: 28 0x332-0x335.7 (4)
0x330|                  65 6c 73 74                  |      elst      |                  type: "elst" (An edit list) 0x336-0x339.7 (4)
0x330|                              00               |          .     |                  version: 0 0x33a-0x33a.7 (1)
0x330|                                 00 00 00      |           ...  |                  flags: 0 0x33b-0x33d.7 (3)
0x330|                                          00 00|              ..|                  entry_count: 1 0x33e-0x341.7 (4)
0x340|00 01                                          |..              |
     |                                               |                |                  entries[0:1]: 0x342-0x34d.7 (12)
     |                                               |                |                    [0]{}: entry 0x342-0x34d.7 (12)
0x340|      00 00 00 00                              |  ....          |                      segment_duration: 0 0x342-0x345.7 (4)
0x340|                  00 00 04 00                  |      ....      |                      media_time: 1024 0x346-0x349.7 (4)
0x340|                              00 01 00 00      |          ....  |                      media_rate: 1 0x34a-0x34d.7 (4)
     |                                               |                |        [3]{}: box 0x34e-0x385.7 (56)
0x340|                                          00 00|              ..|          size: 56 0x34e-0x351.7 (4)
0x350|00 38                                          |.8              |
0x350|      6d 76 65 78                              |  mvex          |          type: "mvex" (Movie extends box) 0x352-0x355.7 (4)
     |                                               |                |          boxes[0:2]: 0x356-0x385.7 (48)
     |                                               |                |            [0]{}: box 0x356-0x365.7 (16)
0x350|                  00 00 00 10                  |      ....      |              size: 16 0x356-0x359.7 (4)
0x350|                              6d 65 68 64      |          mehd  |              type: "mehd" (Movie extends header box) 0x35a-0x35d.7 (4)
0x350|                                          00   |              . |              version: 0 0x35e-0x35e.7 (1)
0x350|                                             00|               .|              flags: 0 0x35f-0x361.7 (3)
0x360|00 00                                          |..              |
0x360|      00 00 15 3a                              |  ...:          |              fragment_duration: 5434 0x362-0x365.7 (4)
     |                                               |                |            [1]{}: box 0x366-0x385.7 (32)
0x360|                  00 00 00 20                  |      ...       |              size: 32 0x366-0x369.7 (4)
0x360|                              74 72 65 78      |          trex  |              type: "trex" (Track extends defaults) 0x36a-0x36d.7 (4)
0x360|                                          00   |              . |              version: 0 0x36e-0x36e.7 (1)
0x360|                                             00|               .|              flags: 0 0x36f-0x371.7 (3)
0x370|00 00                                          |..              |
0x370|      00 00 00 01                              |  ....          |              track_id: 1 0x372-0x375.7 (4)
0x370|                  00 00 00 01                  |      ....      |              default_sample_description_index: 1 0x376-0x379.7 (4)
0x370|                              00 00 04 00      |          ....  |              default_sample_duration: 1024 0x37a-0x37d.7 (4)
0x370|                                          00 00|              ..|              default_sample_size: 0 0x37e-0x381.7 (4)
0x380|00 00                                          |..              |
     |                                               |                |              default_sample_flags{}: 0x382-0x385.7 (4)
0x380|      00                                       |  .             |                reserved0: 0 0x382-0x382.3 (0.4)
0x380|      00                                       |  .             |                is_leading: 0 0x382.4-0x382.5 (0.2)
0x380|      00                                       |  .             |                sample_depends_on: "unknown" (0) 0x382.6-0x382.7 (0.2)
0x380|         00                                    |   .            |                sample_is_depended_on: "unknown" (0) 0x383-0x383.1 (0.2)
0x380|         00                                    |   .            |                sample_has_redundancy: "unknown" (0) 0x383.2-0x383.3 (0.2)
0x380|         00                                    |   .            |                sample_padding_value: 0 0x383.4-0x383.6 (0.3)
0x380|         00                                    |   .            |                sample_is_non_sync_sample: 0 0x383.7-0x383.7 (0.1)
0x380|            00 00|                             |    ..|         |                sample_degradation_priority: 0 0x384-0x385.7 (2)
     |                                               |                |  tracks[0:1]: 0x386-NA (0)
     |                                               |                |    [0]{}: track 0x386-NA (0)
     |                                               |                |      id: 1 0x386-NA (0)
     |                                               |                |      data_format: "mp4a" (MPEG-4 Audio) 0x386-NA (0)
     |                                               |                |      samples[0:0]: 0x386-NA (0)
$ fq -d mp4 dv dash_audio_1.m4s
     |00 01 02 03 04 05 06 07 08 09 0a 0b 0c 0d 0e 0f|0123456789abcdef|.{}: dash_audio_1.m4s (mp4) 0x0-0x913.7 (2324)
     |                                               |                |  boxes[0:8]: 0x0-0x913.7 (2324)
     |                                               |                |    [0]{}: box 0x0-0x1f.7 (32)
0x000|00 00 00 20                                    |...             |      size: 32 0x0-0x3.7 (4)
0x000|            73 74 79 70                        |    styp        |      type: "styp" (Segment Type Box) 0x4-0x7.7 (4)
0x000|                        69 73 6f 6d            |        isom    |      major_brand: "isom" 0x8-0xb.7 (4)
0x000|                                    00 00 00 00|            ....|      minor_version: 0 0xc-0xf.7 (4)
     |                                               |                |      brands[0:4]: 0x10-0x1f.7 (16)
0x010|69 73 6f 38                                    |iso8            |        [0]: "iso8" brand (MP4 Base Media v8) 0x10-0x13.7 (4)
0x010|            6d 70 34 31                        |    mp41        |        [1]: "mp41" brand (MP4 version 1) 0x14-0x17.7 (4)
0x010|                        64 61 73 68            |        dash    |        [2]: "dash" brand (ISO base media file format file specifically designed for DASH including movie fragments and Segment Index) 0x18-0x1b.7 (4)
0x010|                                    63 6d 66 73|            cmfs|        [3]: "cmfs" brand (CMAF Segment Format) 0x1c-0x1f.7 (4)
     |                                               |                |    [1]{}: box 0x20-0x63.7 (68)
0x020|00 00 00 44                                    |...D            |      size: 68 0x20-0x23.7 (4)
0x020|            73 69 64 78                        |    sidx        |      type: "sidx" (Segment Index Box) 0x24-0x27.7 (4)
0x020|                        00                     |        .       |      version: 0 0x28-0x28.7 (1)
0x020|                           00 00 00            |         ...    |      flags: 0 0x29-0x2b.7 (3)
0x020|                                    00 00 00 01|            ....|      reference_id: 1 0x2c-0x2f.7 (4)
0x030|00 00 ac 44                                    |...D            |      timescale: 44100 0x30-0x33.7 (4)
0x030|            00 00 00 00                        |    ....        |      pts: 0 0x34-0x37.7 (4)
0x030|                        00 00 00 00            |        ....    |      offset: 0 0x38-0x3b.7 (4)
0x030|                                    00 00      |            ..  |      reserved: 0 0x3c-0x3d.7 (2)
0x030|                                          00 03|              ..|      entry_count: 3 0x3e-0x3f.7 (2)
     |                                               |                |      entries[0:3]: 0x40-0x63.7 (36)
     |                                               |                |        [0]{}: entry 0x40-0x4b.7 (12)
0x040|00                                             |.               |          reference_type: 0 0x40-0x40 (0.1)
0x040|00 00 04 08                                    |....            |          size: 1032 0x40.1-0x43.7 (3.7)
0x040|            00 00 08 00                        |    ....        |          duration: 2048 0x44-0x47.7 (4)
0x040|                        90                     |        .       |          starts_with_sap: 1 0x48-0x48 (0.1)
0x040|                        90                     |        .       |          sap_type: 1 0x48.1-0x48.3 (0.3)
0x040|                        90 00 00 00            |        ....    |          sap_delta_time: 0 0x48.4-0x4b.7 (3.4)
     |                                               |                |        [1]{}: entry 0x4c-0x57.7 (12)
0x040|                                    00         |            .   |          reference_type: 0 0x4c-0x4c (0.1)
0x040|                                    00 00 03 5a|            ...Z|          size: 858 0x4c.1-0x4f.7 (3.7)
0x050|00 00 08 00                                    |....            |          duration: 2048 0x50-0x53.7 (4)
0x050|            90                                 |    .           |          starts_with_sap: 1 0x54-0x54 (0.1)
0x050|            90                                 |    .           |          sap_type: 1 0x54.1-0x54.3 (0.3)
0x050|            90 00 00 00                        |    ....        |          sap_delta_time: 0 0x54.4-0x57.7 (3.4)
     |                                               |                |        [2]{}: entry 0x58-0x63.7 (12)
0x050|                        00                     |        .       |          reference_type: 0 0x58-0x58 (0.1)
0x050|                        00 00 01 4e            |        ...N    |          size: 334 0x58.1-0x5b.7 (3.7)
0x050|                                    00 00 01 3a|            ...:|          duration: 314 0x5c-0x5f.7 (4)
0x060|90                                             |.               |          starts_with_sap: 1 0x60-0x60 (0.1)
0x060|90                                             |.               |          sap_type: 1 0x60.1-0x60.3 (0.3)
0x060|90 00 00 00                                    |....            |          sap_delta_time: 0 0x60.4-0x63.7 (3.4)
     |                                               |                |    [2]{}: box 0x64-0x1cc.7 (361)
0x060|            00 00 01 69                        |    ...i        |      size: 361 0x64-0x67.7 (4)
0x060|                        6d 6f 6f 66            |        moof    |      type: "moof" (Movie fragment) 0x68-0x6b.7 (4)
     |                                               |                |      boxes[0:3]: 0x6c-0x1cc.7 (353)
     |                                               |                |        [0]{}: box 0x6c-0x7b.7 (16)
0x060|                                    00 00 00 10|            ....|          size: 16 0x6c-0x6f.7 (4)
0x070|6d 66 68 64                                    |mfhd            |          type: "mfhd" (Movie fragment header) 0x70-0x73.7 (4)
0x070|            00                                 |    .           |          version: 0 0x74-0x74.7 (1)
0x070|               00 00 00                        |     ...        |          flags: 0 0x75-0x77.7 (3)
0x070|                        00 00 00 01            |        ....    |          sequence_number: 1 0x78-0x7b.7 (4)
     |                                               |                |        [1]{}: box 0x7c-0x168.7 (237)
0x070|                                    00 00 01 1d|            ....|          size: 285 0x7c-0x7f.7 (4)
0x080|74 72 61 66                                    |traf            |          type: "traf" (Track fragment) 0x80-0x83.7 (4)
     |                                               |                |          boxes[0:9]: 0x84-0x168.7 (229)
     |                                               |                |            [0]{}: box 0x84-0x9f.7 (28)
0x080|            00 00 00 1c                        |    ....        |              size: 28 0x84-0x87.7 (4)
0x080|                        74 66 68 64            |        tfhd    |              type: "tfhd" (Track fragment header) 0x88-0x8b.7 (4)
0x080|                                    00         |            .   |              version: 0 0x8c-0x8c.7 (1)
     |                                               |                |              flags{}: 0x8d-0x8f.7 (3)
0x080|                                       02      |             .  |                unused0: 1 0x8d-0x8d.6 (0.7)
0x080|                                       02      |             .  |                duration_is_empty: false 0x8d.7-0x8d.7 (0.1)
0x080|                                          00 2a|              .*|                unused1: 0 0x8e-0x8f.1 (1.2)
0x080|                                             2a|               *|                default_sample_flags_present: true 0x8f.2-0x8f.2 (0.1)
0x080|                                             2a|               *|                default_sample_size_present: false 0x8f.3-0x8f.3 (0.1)
0x080|                                             2a|               *|                default_sample_duration_present: true 0x8f.4-0x8f.4 (0.1)
0x080|                                             2a|               *|                unused2: 0 0x8f.5-0x8f.5 (0.1)
0x080|                                             2a|               *|                sample_description_index_present: true 0x8f.6-0x8f.6 (0.1)
0x080|                                             2a|               *|                base_data_offset_present: false 0x8f.7-0x8f.7 (0.1)
0x090|00 00 00 01                                    |....            |              track_id: 1 0x90-0x93.7 (4)
0x090|            00 00 00 01                        |    ....        |              sample_description_index: 1 0x94-0x97.7 (4)
0x090|                        00 00 04 00            |        ....    |              default_sample_duration: 1024 0x98-0x9b.7 (4)
     |                                               |                |              default_sample_flags{}: 0x9c-0x9f.7 (4)
0x090|                                    00         |            .   |                reserved0: 0 0x9c-0x9c.3 (0.4)
0x090|                                    00         |            .   |                is_leading: 0 0x9c.4-0x9c.5 (0.2)
0x090|                                    00         |            .   |                sample_depends_on: "unknown" (0) 0x9c.6-0x9c.7 (0.2)
0x090|                                       00      |             .  |                sample_is_depended_on: "unknown" (0) 0x9d-0x9d.1 (0.2)
0x090|                                       00      |             .  |                sample_has_redundancy: "unknown" (0) 0x9d.2-0x9d.3 (0.2)
0x090|                                       00      |             .  |                sample_padding_value: 0 0x9d.4-0x9d.6 (0.3)
0x090|                                       00      |             .  |                sample_is_non_sync_sample: 0 0x9d.7-0x9d.7 (0.1)
0x090|                                          00 00|              ..|                sample_degradation_priority: 0 0x9e-0x9f.7 (2)
     |                                               |                |            [1]{}: box 0xa0-0xaf.7 (16)
0x0a0|00 00 00 10                                    |....            |              size: 16 0xa0-0xa3.7 (4)
0x0a0|            74 66 64 74                        |    tfdt        |              type: "tfdt" (Track fragment decode time) 0xa4-0xa7.7 (4)
0x0a0|                        00                     |        .       |              version: 0 0xa8-0xa8.7 (1)
0x0a0|                           00 00 00            |         ...    |              flags: 0 0xa9-0xab.7 (3)
0x0a0|                                    00 00 00 00|            ....|              start_time: 0 0xac-0xaf.7 (4)
     |                                               |                |            [2]{}: box 0xb0-0xcf.7 (32)
0x0b0|00 00 00 20                                    |...             |              size: 32 0xb0-0xb3.7 (4)
0x0b0|            74 72 75 6e                        |    trun        |              type: "trun" (Track fragment run) 0xb4-0xb7.7 (4)
0x0b0|                        00                     |        .       |              version: 0 0xb8-0xb8.7 (1)
     |                                               |                |              flags{}: 0xb9-0xbb.7 (3)
0x0b0|                           00 02               |         ..     |                unused0: 0 0xb9-0xba.3 (1.4)
0x0b0|                              02               |          .     |                sample_composition_time_offsets_present: false 0xba.4-0xba.4 (0.1)
0x0b0|                              02               |          .     |                sample_flags_present: false 0xba.5-0xba.5 (0.1)
0x0b0|                              02               |          .     |                sample_size_present: true 0xba.6-0xba.6 (0.1)
0x0b0|                              02               |          .     |                sample_duration_present: false 0xba.7-0xba.7 (0.1)
0x0b0|                                 01            |           .    |                unused1: 0 0xbb-0xbb.4 (0.5)
0x0b0|                                 01            |           .    |                first_sample_flags_present: false 0xbb.5-0xbb.5 (0.1)
0x0b0|                                 01            |           .    |                unused2: 0 0xbb.6-0xbb.6 (0.1)
0x0b0|                                 01            |           .    |                data_offset_present: true 0xbb.7-0xbb.7 (0.1)
0x0b0|                                    00 00 00 03|            ....|              sample_count: 3 0xbc-0xbf.7 (4)
0x0c0|00 00 01 71                                    |...q            |              data_offset: 369 0xc0-0xc3.7 (4)
     |                                               |                |              samples[0:3]: 0xc4-0xcf.7 (12)
     |                                               |                |                [0]{}: sample 0xc4-0xc7.7 (4)
0x0c0|            00 00 01 00                        |    ....        |                  sample_size: 256 0xc4-0xc7.7 (4)
     |                                               |                |                [1]{}: sample 0xc8-0xcb.7 (4)
0x0c0|                        00 00 01 02            |        ....    |                  sample_size: 258 0xc8-0xcb.7 (4)
     |                                               |                |                [2]{}: sample 0xcc-0xcf.7 (4)
0x0c0|                                    00 00 00 95|            ....|                  sample_size: 149 0xcc-0xcf.7 (4)
     |                                               |                |            [3]{}: box 0xd0-0xeb.7 (28)
0x0d0|00 00 00 1c                                    |....            |              size: 28 0xd0-0xd3.7 (4)
0x0d0|            73 62 67 70                        |    sbgp        |              type: "sbgp" (Sample to Group box) 0xd4-0xd7.7 (4)
0x0d0|                        00                     |        .       |              version: 0 0xd8-0xd8.7 (1)
0x0d0|                           00 00 00            |         ...    |              flags: 0 0xd9-0xdb.7 (3)
0x0d0|                                    72 6f 6c 6c|            roll|              grouping_type: "roll" 0xdc-0xdf.7 (4)
0x0e0|00 00 00 01                                    |....            |              entry_count: 1 0xe0-0xe3.7 (4)
     |                                               |                |              entries[0:1]: 0xe4-0xeb.7 (8)
     |                                               |                |                [0]{}: entry 0xe4-0xeb.7 (8)
0x0e0|            00 00 00 03                        |    ....        |                  sample_count: 3 0xe4-0xe7.7 (4)
0x0e0|                        00 00 00 01            |        ....    |                  group_description_index: 1 0xe8-0xeb.7 (4)
     |                                               |                |            [4]{}: box 0xec-0x107.7 (28)
0x0e0|                                    00 00 00 1c|            ....|              size: 28 0xec-0xef.7 (4)
0x0f0|73 62 67 70                                    |sbgp            |              type: "sbgp" (Sample to Group box) 0xf0-0xf3.7 (4)
0x0f0|            00                                 |    .           |              version: 0 0xf4-0xf4.7 (1)
0x0f0|               00 00 00                        |     ...        |              flags: 0 0xf5-0xf7.7 (3)
0x0f0|                        73 65 69 67            |        seig    |              grouping_type: "seig" 0xf8-0xfb.7 (4)
0x0f0|                                    00 00 00 01|            ....|              entry_count: 1 0xfc-0xff.7 (4)
     |                                               |                |              entries[0:1]: 0x100-0x107.7 (8)
     |                                               |                |                [0]{}: entry 0x100-0x107.7 (8)
0x100|00 00 00 03                                    |....            |                  sample_count: 3 0x100-0x103.7 (4)
0x100|            00 01 00 01                        |    ....        |                  group_description_index: 65537 0x104-0x107.7 (4)
     |                                               |                |            [5]{}: box 0x108-0x133.7 (44)
0x100|                        00 00 00 2c            |        ...,    |              size: 44 0x108-0x10b.7 (4)
0x100|                                    73 67 70 64|            sgpd|              type: "sgpd" (Sample group definition box) 0x10c-0x10f.7 (4)
0x110|01                                             |.               |              version: 1 0x110-0x110.7 (1)
0x110|   00 00 00                                    | ...            |              flags: 0 0x111-0x113.7 (3)
0x110|            73 65 69 67                        |    seig        |              grouping_type: "seig" 0x114-0x117.7 (4)
0x110|                        00 00 00 14            |        ....    |              default_length: 20 0x118-0x11b.7 (4)
0x110|                                    00 00 00 01|            ....|              entry_count: 1 0x11c-0x11f.7 (4)
     |                                               |                |              entries[0:1]: 0x120-0x133.7 (20)
     |                                               |                |                [0]{}: entry 0x120-0x133.7 (20)
0x120|00                                             |.               |                  reserved: 0 0x120-0x120.7 (1)
0x120|   00                                          | .              |                  crypto_bytes: 0 0x121-0x121.3 (0.4)
0x120|   00                                          | .              |                  skip_bytes: 0 0x121.4-0x121.7 (0.4)
0x120|      01                                       |  .             |                  is_encrypted: 1 0x122-0x122.7 (1)
0x120|         10                                    |   .            |                  per_sample_iv_size: 16 0x123-0x123.7 (1)
0x120|            11 22 33 44 55 66 77 88 99 aa bb cc|    ."3DUfw.....|                  kid: raw bits 0x124-0x133.7 (16)
0x130|dd ee ff 00                                    |....            |
     |                                               |                |            [6]{}: box 0x134-0x144.7 (17)
0x130|            00 00 00 11                        |    ....        |              size: 17 0x134-0x137.7 (4)
0x130|                        73 61 69 7a            |        saiz    |              type: "saiz" (Sample auxiliary information sizes) 0x138-0x13b.7 (4)
0x130|                                    00         |            .   |              version: 0 0x13c-0x13c.7 (1)
0x130|                                       00 00 00|             ...|              flags: 0 0x13d-0x13f.7 (3)
0x140|10                                             |.               |              default_sample_info_size: 16 0x140-0x140.7 (1)
0x140|   00 00 00 03                                 | ....           |              sample_count: 3 0x141-0x144.7 (4)
     |                                               |                |            [7]{}: box 0x145-0x158.7 (20)
0x140|               00 00 00 14                     |     ....       |              size: 20 0x145-0x148.7 (4)
0x140|                           73 61 69 6f         |         saio   |              type: "saio" (Sample auxiliary information offsets) 0x149-0x14c.7 (4)
0x140|                                       00      |             .  |              version: 0 0x14d-0x14d.7 (1)
0x140|                                          00 00|              ..|              flags: 0 0x14e-0x150.7 (3)
0x150|00                                             |.               |
0x150|   00 00 00 01                                 | ....           |              entry_count: 1 0x151-0x154.7 (4)
     |                                               |                |              entries[0:1]: 0x155-0x158.7 (4)
0x150|               00 00 01 05                     |     ....       |                [0]: 261 offset 0x155-0x158.7 (4)
     |                                               |                |            [8]{}: box 0x159-0x168.7 (16)
0x150|                           00 00 00 40         |         ...@   |              size: 64 0x159-0x15c.7 (4)
0x150|                                       73 65 6e|             sen|              type: "senc" (Sample specific encryption data) 0x15d-0x160.7 (4)
0x160|63                                             |c               |
0x160|   00                                          | .              |              version: 0 0x161-0x161.7 (1)
0x160|      00 00 00                                 |  ...           |              flags: 0 0x162-0x164.7 (3)
0x160|               00 00 00 03                     |     ....       |              sample_count: 3 0x165-0x168.7 (4)
     |                                               |                |              samples[0:3]: 0x169-NA (0)
     |                                               |                |                [0]{}: entry 0x169-NA (0)
     |                                               |                |                [1]{}: entry 0x169-NA (0)
     |                                               |                |                [2]{}: entry 0x169-NA (0)
     |                                               |                |        [2]{}: box 0x199-0x1cc.7 (52)
0x190|                           00 00 00 34         |         ...4   |          size: 52 0x199-0x19c.7 (4)
0x190|                                       70 73 73|             pss|          type: "pssh" (Protection system specific header) 0x19d-0x1a0.7 (4)
0x1a0|68                                             |h               |
0x1a0|   01                                          | .              |          version: 1 0x1a1-0x1a1.7 (1)
0x1a0|      00 00 00                                 |  ...           |          flags: 0 0x1a2-0x1a4.7 (3)
0x1a0|               10 77 ef ec c0 b2 4d 02 ac e3 3c|     .w....M...<|          system_id: "common" (raw bits) 0x1a5-0x1b4.7 (16)
0x1b0|1e 52 e2 fb 4b                                 |.R..K           |
0x1b0|               00 00 00 01                     |     ....       |          kid_count: 1 0x1b5-0x1b8.7 (4)
     |                                               |                |          kids[0:1]: 0x1b9-0x1c8.7 (16)
0x1b0|                           11 22 33 44 55 66 77|         ."3DUfw|            [0]: raw bits kid 0x1b9-0x1c8.7 (16)
0x1c0|88 99 aa bb cc dd ee ff 00                     |.........       |
0x1c0|                           00 00 00 00         |         ....   |          data_size: 0 0x1c9-0x1cc.7 (4)
     |                                               |                |          data: raw bits 0x1cd-NA (0)
     |                                               |                |    [3]{}: box 0x1cd-0x46b.7 (671)
0x1c0|                                       00 00 02|             ...|      size: 671 0x1cd-0x1d0.7 (4)
0x1d0|9f                                             |.               |
0x1d0|   6d 64 61 74                                 | mdat           |      type: "mdat" (Media data container) 0x1d1-0x1d4.7 (4)
0x1d0|               72 7f 32 eb 78 a2 6b 03 a3 78 38|     r.2.x.k..x8|      data: raw bits 0x1d5-0x46b.7 (663)
0x1e0|8b 37 0c c7 18 66 5b 08 bc 5f 60 fe 70 56 80 ec|.7...f[.._`.pV..|
*    |until 0x46b.7 (663)                            |                |
     |                                               |                |    [4]{}: box 0x46c-0x5c0.7 (341)
0x460|                                    00 00 01 55|            ...U|      size: 341 0x46c-0x46f.7 (4)
0x470|6d 6f 6f 66                                    |moof            |      type: "moof" (Movie fragment) 0x470-0x473.7 (4)
     |                                               |                |      boxes[0:3]: 0x474-0x5c0.7 (333)
     |                                               |                |        [0]{}: box 0x474-0x483.7 (16)
0x470|            00 00 00 10                        |    ....        |          size: 16 0x474-0x477.7 (4)
0x470|                        6d 66 68 64            |        mfhd    |          type: "mfhd" (Movie fragment header) 0x478-0x47b.7 (4)
0x470|                                    00         |            .   |          version: 0 0x47c-0x47c.7 (1)
0x470|                                       00 00 00|             ...|          flags: 0 0x47d-0x47f.7 (3)
0x480|00 00 00 02                                    |....            |          sequence_number: 2 0x480-0x483.7 (4)
     |                                               |                |        [1]{}: box 0x484-0x56c.7 (233)
0x480|            00 00 01 09                        |    ....        |          size: 265 0x484-0x487.7 (4)
0x480|                        74 72 61 66            |        traf    |          type: "traf" (Track fragment) 0x488-0x48b.7 (4)
     |                                               |                |          boxes[0:9]: 0x48c-0x56c.7 (225)
     |                                               |                |            [0]{}: box 0x48c-0x4a7.7 (28)
0x480|                                    00 00 00 1c|            ....|              size: 28 0x48c-0x48f.7 (4)
0x490|74 66 68 64                                    |tfhd            |              type: "tfhd" (Track fragment header) 0x490-0x493.7 (4)
0x490|            00                                 |    .           |              version: 0 0x494-0x494.7 (1)
     |                                               |                |              flags{}: 0x495-0x497.7 (3)
0x490|               02                              |     .          |                unused0: 1 0x495-0x495.6 (0.7)
0x490|               02                              |     .          |                duration_is_empty: false 0x495.7-0x495.7 (0.1)
0x490|                  00 2a                        |      .*        |                unused1: 0 0x496-0x497.1 (1.2)
0x490|                     2a                        |       *        |                default_sample_flags_present: true 0x497.2-0x497.2 (0.1)
0x490|                     2a                        |       *        |                default_sample_size_present: false 0x497.3-0x497.3 (0.1)
0x490|                     2a                        |       *        |                default_sample_duration_present: true 0x497.4-0x497.4 (0.1)
0x490|                     2a                        |       *        |                unused2: 0 0x497.5-0x497.5 (0.1)
0x490|                     2a                        |       *        |                sample_description_index_present: true 0x497.6-0x497.6 (0.1)
0x490|                     2a                        |       *        |                base_data_offset_present: false 0x497.7-0x497.7 (0.1)
0x490|                        00 00 00 01            |        ....    |              track_id: 1 0x498-0x49b.7 (4)
0x490|                                    00 00 00 01|            ....|              sample_description_index: 1 0x49c-0x49f.7 (4)
0x4a0|00 00 04 00                                    |....            |              default_sample_duration: 1024 0x4a0-0x4a3.7 (4)
     |                                               |                |              default_sample_flags{}: 0x4a4-0x4a7.7 (4)
0x4a0|            00                                 |    .           |                reserved0: 0 0x4a4-0x4a4.3 (0.4)
0x4a0|            00                                 |    .           |                is_leading: 0 0x4a4.4-0x4a4.5 (0.2)
0x4a0|            00                                 |    .           |                sample_depends_on: "unknown" (0) 0x4a4.6-0x4a4.7 (0.2)
0x4a0|               00                              |     .          |                sample_is_depended_on: "unknown" (0) 0x4a5-0x4a5.1 (0.2)
0x4a0|               00                              |     .          |                sample_has_redundancy: "unknown" (0) 0x4a5.2-0x4a5.3 (0.2)
0x4a0|               00                              |     .          |                sample_padding_value: 0 0x4a5.4-0x4a5.6 (0.3)
0x4a0|               00                              |     .          |                sample_is_non_sync_sample: 0 0x4a5.7-0x4a5.7 (0.1)
0x4a0|                  00 00                        |      ..        |                sample_degradation_priority: 0 0x4a6-0x4a7.7 (2)
     |                                               |                |            [1]{}: box 0x4a8-0x4b7.7 (16)
0x4a0|                        00 00 00 10            |        ....    |              size: 16 0x4a8-0x4ab.7 (4)
0x4a0|                                    74 66 64 74|            tfdt|              type: "tfdt" (Track fragment decode time) 0x4ac-0x4af.7 (4)
0x4b0|00                                             |.               |              version: 0 0x4b0-0x4b0.7 (1)
0x4b0|   00 00 00                                    | ...            |              flags: 0 0x4b1-0x4b3.7 (3)
0x4b0|            00 00 0c 00                        |    ....        |              start_time: 3072 0x4b4-0x4b7.7 (4)
     |                                               |                |            [2]{}: box 0x4b8-0x4d3.7 (28)
0x4b0|                        00 00 00 1c            |        ....    |              size: 28 0x4b8-0x4bb.7 (4)
0x4b0|                                    74 72 75 6e|            trun|              type: "trun" (Track fragment run) 0x4bc-0x4bf.7 (4)
0x4c0|00                                             |.               |              version: 0 0x4c0-0x4c0.7 (1)
     |                                               |                |              flags{}: 0x4c1-0x4c3.7 (3)
0x4c0|   00 02                                       | ..             |                unused0: 0 0x4c1-0x4c2.3 (1.4)
0x4c0|      02                                       |  .             |                sample_composition_time_offsets_present: false 0x4c2.4-0x4c2.4 (0.1)
0x4c0|      02                                       |  .             |                sample_flags_present: false 0x4c2.5-0x4c2.5 (0.1)
0x4c0|      02                                       |  .             |                sample_size_present: true 0x4c2.6-0x4c2.6 (0.1)
0x4c0|      02                                       |  .             |                sample_duration_present: false 0x4c2.7-0x4c2.7 (0.1)
0x4c0|         01                                    |   .            |                unused1: 0 0x4c3-0x4c3.4 (0.5)
0x4c0|         01                                    |   .            |                first_sample_flags_present: false 0x4c3.5-0x4c3.5 (0.1)
0x4c0|         01                                    |   .            |                unused2: 0 0x4c3.6-0x4c3.6 (0.1)
0x4c0|         01                                    |   .            |                data_offset_present: true 0x4c3.7-0x4c3.7 (0.1)
0x4c0|            00 00 00 02                        |    ....        |              sample_count: 2 0x4c4-0x4c7.7 (4)
0x4c0|                        00 00 01 5d            |        ...]    |              data_offset: 349 0x4c8-0x4cb.7 (4)
     |                                               |                |              samples[0:2]: 0x4cc-0x4d3.7 (8)
     |                                               |                |                [0]{}: sample 0x4cc-0x4cf.7 (4)
0x4c0|                                    00 00 00 de|            ....|                  sample_size: 222 0x4cc-0x4cf.7 (4)
     |                                               |                |                [1]{}: sample 0x4d0-0x4d3.7 (4)
0x4d0|00 00 01 1f                                    |....            |                  sample_size: 287 0x4d0-0x4d3.7 (4)
     |                                               |                |            [3]{}: box 0x4d4-0x4ef.7 (28)
0x4d0|            00 00 00 1c                        |    ....        |              size: 28 0x4d4-0x4d7.7 (4)
0x4d0|                        73 62 67 70            |        sbgp    |              type: "sbgp" (Sample to Group box) 0x4d8-0x4db.7 (4)
0x4d0|                                    00         |            .   |              version: 0 0x4dc-0x4dc.7 (1)
0x4d0|                                       00 00 00|             ...|              flags: 0 0x4dd-0x4df.7 (3)
0x4e0|72 6f 6c 6c                                    |roll            |              grouping_type: "roll" 0x4e0-0x4e3.7 (4)
0x4e0|            00 00 00 01                        |    ....        |              entry_count: 1 0x4e4-0x4e7.7 (4)
     |                                               |                |              entries[0:1]: 0x4e8-0x4ef.7 (8)
     |                                               |                |                [0]{}: entry 0x4e8-0x4ef.7 (8)
0x4e0|                        00 00 00 02            |        ....    |                  sample_count: 2 0x4e8-0x4eb.7 (4)
0x4e0|                                    00 00 00 01|            ....|                  group_description_index: 1 0x4ec-0x4ef.7 (4)
     |                                               |                |            [4]{}: box 0x4f0-0x50b.7 (28)
0x4f0|00 00 00 1c                                    |....            |              size: 28 0x4f0-0x4f3.7 (4)
0x4f0|            73 62 67 70                        |    sbgp        |              type: "sbgp" (Sample to Group box) 0x4f4-0x4f7.7 (4)
0x4f0|                        00                     |        .       |              version: 0 0x4f8-0x4f8.7 (1)
0x4f0|                           00 00 00            |         ...    |              flags: 0 0x4f9-0x4fb.7 (3)
0x4f0|                                    73 65 69 67|            seig|              grouping_type: "seig" 0x4fc-0x4ff.7 (4)
0x500|00 00 00 01                                    |....            |              entry_count: 1 0x500-0x503.7 (4)
     |                                               |                |              entries[0:1]: 0x504-0x50b.7 (8)
     |                                               |                |                [0]{}: entry 0x504-0x50b.7 (8)
0x500|            00 00 00 02                        |    ....        |                  sample_count: 2 0x504-0x507.7 (4)
0x500|                        00 01 00 01            |        ....    |                  group_description_index: 65537 0x508-0x50b.7 (4)
     |                                               |                |            [5]{}: box 0x50c-0x537.7 (44)
0x500|                                    00 00 00 2c|            ...,|              size: 44 0x50c-0x50f.7 (4)
0x510|73 67 70 64                                    |sgpd            |              type: "sgpd" (Sample group definition box) 0x510-0x513.7 (4)
0x510|            01                                 |    .           |              version: 1 0x514-0x514.7 (1)
0x510|               00 00 00                        |     ...        |              flags: 0 0x515-0x517.7 (3)
0x510|                        73 65 69 67            |        seig    |              grouping_type: "seig" 0x518-0x51b.7 (4)
0x510|                                    00 00 00 14|            ....|              default_length: 20 0x51c-0x51f.7 (4)
0x520|00 00 00 01                                    |....            |              entry_count: 1 0x520-0x523.7 (4)
     |                                               |                |              entries[0:1]: 0x524-0x537.7 (20)
     |                                               |                |                [0]{}: entry 0x524-0x537.7 (20)
0x520|            00                                 |    .           |                  reserved: 0 0x524-0x524.7 (1)
0x520|               00                              |     .          |                  crypto_bytes: 0 0x525-0x525.3 (0.4)
0x520|               00                              |     .          |                  skip_bytes: 0 0x525.4-0x525.7 (0.4)
0x520|                  01                           |      .         |                  is_encrypted: 1 0x526-0x526.7 (1)
0x520|                     10                        |       .        |                  per_sample_iv_size: 16 0x527-0x527.7 (1)
0x520|                        11 22 33 44 55 66 77 88|        ."3DUfw.|                  kid: raw bits 0x528-0x537.7 (16)
0x530|99 aa bb cc dd ee ff 00                        |........        |
     |                                               |                |            [6]{}: box 0x538-0x548.7 (17)
0x530|                        00 00 00 11            |        ....    |              size: 17 0x538-0x53b.7 (4)
0x530|                                    73 61 69 7a|            saiz|              type: "saiz" (Sample auxiliary information sizes) 0x53c-0x53f.7 (4)
0x540|00                                             |.               |              version: 0 0x540-0x540.7 (1)
0x540|   00 00 00                                    | ...            |              flags: 0 0x541-0x543.7 (3)
0x540|            10                                 |    .           |              default_sample_info_size: 16 0x544-0x544.7 (1)
0x540|               00 00 00 02                     |     ....       |              sample_count: 2 0x545-0x548.7 (4)
     |                                               |                |            [7]{}: box 0x549-0x55c.7 (20)
0x540|                           00 00 00 14         |         ....   |              size: 20 0x549-0x54c.7 (4)
0x540|                                       73 61 69|             sai|              type: "saio" (Sample auxiliary information offsets) 0x54d-0x550.7 (4)
0x550|6f                                             |o               |
0x550|   00                                          | .              |              version: 0 0x551-0x551.7 (1)
0x550|      00 00 00                                 |  ...           |              flags: 0 0x552-0x554.7 (3)
0x550|               00 00 00 01                     |     ....       |              entry_count: 1 0x555-0x558.7 (4)
     |                                               |                |              entries[0:1]: 0x559-0x55c.7 (4)
0x550|                           00 00 01 01         |         ....   |                [0]: 257 offset 0x559-0x55c.7 (4)
     |                                               |                |            [8]{}: box 0x55d-0x56c.7 (16)
0x550|                                       00 00 00|             ...|              size: 48 0x55d-0x560.7 (4)
0x560|30                                             |0               |
0x560|   73 65 6e 63                                 | senc           |              type: "senc" (Sample specific encryption data) 0x561-0x564.7 (4)
0x560|               00                              |     .          |              version: 0 0x565-0x565.7 (1)
0x560|                  00 00 00                     |      ...       |              flags: 0 0x566-0x568.7 (3)
0x560|                           00 00 00 02         |         ....   |              sample_count: 2 0x569-0x56c.7 (4)
     |                                               |                |              samples[0:2]: 0x56d-NA (0)
     |                                               |                |                [0]{}: entry 0x56d-NA (0)
     |                                               |                |                [1]{}: entry 0x56d-NA (0)
     |                                               |                |        [2]{}: box 0x58d-0x5c0.7 (52)
0x580|                                       00 00 00|             ...|          size: 52 0x58d-0x590.7 (4)
0x590|34                                             |4               |
0x590|   70 73 73 68                                 | pssh           |          type: "pssh" (Protection system specific header) 0x591-0x594.7 (4)
0x590|               01                              |     .          |          version: 1 0x595-0x595.7 (1)
0x590|                  00 00 00                     |      ...       |          flags: 0 0x596-0x598.7 (3)
0x590|                           10 77 ef ec c0 b2 4d|         .w....M|          system_id: "common" (raw bits) 0x599-0x5a8.7 (16)
0x5a0|02 ac e3 3c 1e 52 e2 fb 4b                     |...<.R..K       |
0x5a0|                           00 00 00 01         |         ....   |          kid_count: 1 0x5a9-0x5ac.7 (4)
     |                                               |                |          kids[0:1]: 0x5ad-0x5bc.7 (16)
0x5a0|                                       11 22 33|             ."3|            [0]: raw bits kid 0x5ad-0x5bc.7 (16)
0x5b0|44 55 66 77 88 99 aa bb cc dd ee ff 00         |DUfw.........   |
0x5b0|                                       00 00 00|             ...|          data_size: 0 0x5bd-0x5c0.7 (4)
0x5c0|00                                             |.               |
     |                                               |                |          data: raw bits 0x5c1-NA (0)
     |                                               |                |    [5]{}: box 0x5c1-0x7c5.7 (517)
0x5c0|   00 00 02 05                                 | ....           |      size: 517 0x5c1-0x5c4.7 (4)
0x5c0|               6d 64 61 74                     |     mdat       |      type: "mdat" (Media data container) 0x5c5-0x5c8.7 (4)
0x5c0|                           ca 75 87 1f fb 3d a6|         .u...=.|      data: raw bits 0x5c9-0x7c5.7 (509)
0x5d0|16 5a 74 6b 92 59 6a f4 0a b6 8c 2b b4 be 36 fe|.Ztk.Yj....+..6.|
*    |until 0x7c5.7 (509)                            |                |
     |                                               |                |    [6]{}: box 0x7c6-0x906.7 (321)
0x7c0|                  00 00 01 41                  |      ...A      |      size: 321 0x7c6-0x7c9.7 (4)
0x7c0|                              6d 6f 6f 66      |          moof  |      type: "moof" (Movie fragment) 0x7ca-0x7cd.7 (4)
     |                                               |                |      boxes[0:3]: 0x7ce-0x906.7 (313)
     |                                               |                |        [0]{}: box 0x7ce-0x7dd.7 (16)
0x7c0|                                          00 00|              ..|          size: 16 0x7ce-0x7d1.7 (4)
0x7d0|00 10                                          |..              |
0x7d0|      6d 66 68 64                              |  mfhd          |          type: "mfhd" (Movie fragment header) 0x7d2-0x7d5.7 (4)
0x7d0|                  00                           |      .         |          version: 0 0x7d6-0x7d6.7 (1)
0x7d0|                     00 00 00                  |       ...      |          flags: 0 0x7d7-0x7d9.7 (3)
0x7d0|                              00 00 00 03      |          ....  |          sequence_number: 3 0x7da-0x7dd.7 (4)
     |                                               |                |        [1]{}: box 0x7de-0x8c2.7 (229)
0x7d0|                                          00 00|              ..|          size: 245 0x7de-0x7e1.7 (4)
0x7e0|00 f5                                          |..              |
0x7e0|      74 72 61 66                              |  traf          |          type: "traf" (Track fragment) 0x7e2-0x7e5.7 (4)
     |                                               |                |          boxes[0:9]: 0x7e6-0x8c2.7 (221)
     |                                               |                |            [0]{}: box 0x7e6-0x805.7 (32)
0x7e0|                  00 00 00 20                  |      ...       |              size: 32 0x7e6-0x7e9.7 (4)
0x7e0|                              74 66 68 64      |          tfhd  |              type: "tfhd" (Track fragment header) 0x7ea-0x7ed.7 (4)
0x7e0|                                          00   |              . |              version: 0 0x7ee-0x7ee.7 (1)
     |                                               |                |              flags{}: 0x7ef-0x7f1.7 (3)
0x7e0|                                             02|               .|                unused0: 1 0x7ef-0x7ef.6 (0.7)
0x7e0|                                             02|               .|                duration_is_empty: false 0x7ef.7-0x7ef.7 (0.1)
0x7f0|00 3a                                          |.:              |                unused1: 0 0x7f0-0x7f1.1 (1.2)
0x7f0|   3a                                          | :              |                default_sample_flags_present: true 0x7f1.2-0x7f1.2 (0.1)
0x7f0|   3a                                          | :              |                default_sample_size_present: true 0x7f1.3-0x7f1.3 (0.1)
0x7f0|   3a                                          | :              |                default_sample_duration_present: true 0x7f1.4-0x7f1.4 (0.1)
0x7f0|   3a                                          | :              |                unused2: 0 0x7f1.5-0x7f1.5 (0.1)
0x7f0|   3a                                          | :              |                sample_description_index_present: true 0x7f1.6-0x7f1.6 (0.1)
0x7f0|   3a                                          | :              |                base_data_offset_present: false 0x7f1.7-0x7f1.7 (0.1)
0x7f0|      00 00 00 01                              |  ....          |              track_id: 1 0x7f2-0x7f5.7 (4)
0x7f0|                  00 00 00 01                  |      ....      |              sample_description_index: 1 0x7f6-0x7f9.7 (4)
0x7f0|                              00 00 01 3a      |          ...:  |              default_sample_duration: 314 0x7fa-0x7fd.7 (4)
0x7f0|                                          00 00|              ..|              default_sample_size: 5 0x7fe-0x801.7 (4)
0x800|00 05                                          |..              |
     |                                               |                |              default_sample_flags{}: 0x802-0x805.7 (4)
0x800|      00                                       |  .             |                reserved0: 0 0x802-0x802.3 (0.4)
0x800|      00                                       |  .             |                is_leading: 0 0x802.4-0x802.5 (0.2)
0x800|      00                                       |  .             |                sample_depends_on: "unknown" (0) 0x802.6-0x802.7 (0.2)
0x800|         00                                    |   .            |                sample_is_depended_on: "unknown" (0) 0x803-0x803.1 (0.2)
0x800|         00                                    |   .            |                sample_has_redundancy: "unknown" (0) 0x803.2-0x803.3 (0.2)
0x800|         00                                    |   .            |                sample_padding_value: 0 0x803.4-0x803.6 (0.3)
0x800|         00                                    |   .            |                sample_is_non_sync_sample: 0 0x803.7-0x803.7 (0.1)
0x800|            00 00                              |    ..          |                sample_degradation_priority: 0 0x804-0x805.7 (2)
     |                                               |                |            [1]{}: box 0x806-0x815.7 (16)
0x800|                  00 00 00 10                  |      ....      |              size: 16 0x806-0x809.7 (4)
0x800|                              74 66 64 74      |          tfdt  |              type: "tfdt" (Track fragment decode time) 0x80a-0x80d.7 (4)
0x800|                                          00   |              . |              version: 0 0x80e-0x80e.7 (1)
0x800|                                             00|               .|              flags: 0 0x80f-0x811.7 (3)
0x810|00 00                                          |..              |
0x810|      00 00 14 00                              |  ....          |              start_time: 5120 0x812-0x815.7 (4)
     |                                               |                |            [2]{}: box 0x816-0x829.7 (20)
0x810|                  00 00 00 14                  |      ....      |              size: 20 0x816-0x819.7 (4)
0x810|                              74 72 75 6e      |          trun  |              type: "trun" (Track fragment run) 0x81a-0x81d.7 (4)
0x810|                                          00   |              . |              version: 0 0x81e-0x81e.7 (1)
     |                                               |                |              flags{}: 0x81f-0x821.7 (3)
0x810|                                             00|               .|                unused0: 0 0x81f-0x820.3 (1.4)
0x820|00                                             |.               |
0x820|00                                             |.               |                sample_composition_time_offsets_present: false 0x820.4-0x820.4 (0.1)
0x820|00                                             |.               |                sample_flags_present: false 0x820.5-0x820.5 (0.1)
0x820|00                                             |.               |                sample_size_present: false 0x820.6-0x820.6 (0.1)
0x820|00                                             |.               |                sample_duration_present: false 0x820.7-0x820.7 (0.1)
0x820|   01                                          | .              |                unused1: 0 0x821-0x821.4 (0.5)
0x820|   01                                          | .              |                first_sample_flags_present: false 0x821.5-0x821.5 (0.1)
0x820|   01                                          | .              |                unused2: 0 0x821.6-0x821.6 (0.1)
0x820|   01                                          | .              |                data_offset_present: true 0x821.7-0x821.7 (0.1)
0x820|      00 00 00 01                              |  ....          |              sample_count: 1 0x822-0x825.7 (4)
0x820|                  00 00 01 49                  |      ...I      |              data_offset: 329 0x826-0x829.7 (4)
     |                                               |                |              samples[0:1]: 0x82a-NA (0)
     |                                               |                |                [0]{}: sample 0x82a-NA (0)
     |                                               |                |            [3]{}: box 0x82a-0x845.7 (28)
0x820|                              00 00 00 1c      |          ....  |              size: 28 0x82a-0x82d.7 (4)
0x820|                                          73 62|              sb|              type: "sbgp" (Sample to Group box) 0x82e-0x831.7 (4)
0x830|67 70                                          |gp              |
0x830|      00                                       |  .             |              version: 0 0x832-0x832.7 (1)
0x830|         00 00 00                              |   ...          |              flags: 0 0x833-0x835.7 (3)
0x830|                  72 6f 6c 6c                  |      roll      |              grouping_type: "roll" 0x836-0x839.7 (4)
0x830|                              00 00 00 01      |          ....  |              entry_count: 1 0x83a-0x83d.7 (4)
     |                                               |                |              entries[0:1]: 0x83e-0x845.7 (8)
     |                                               |                |                [0]{}: entry 0x83e-0x845.7 (8)
0x830|                                          00 00|              ..|                  sample_count: 1 0x83e-0x841.7 (4)
0x840|00 01                                          |..              |
0x840|      00 00 00 01                              |  ....          |                  group_description_index: 1 0x842-0x845.7 (4)
     |                                               |                |            [4]{}: box 0x846-0x861.7 (28)
0x840|                  00 00 00 1c                  |      ....      |              size: 28 0x846-0x849.7 (4)
0x840|                              73 62 67 70      |          sbgp  |              type: "sbgp" (Sample to Group box) 0x84a-0x84d.7 (4)
0x840|                                          00   |              . |              version: 0 0x84e-0x84e.7 (1)
0x840|                                             00|               .|              flags: 0 0x84f-0x851.7 (3)
0x850|00 00                                          |..              |
0x850|      73 65 69 67                              |  seig          |              grouping_type: "seig" 0x852-0x855.7 (4)
0x850|                  00 00 00 01                  |      ....      |              entry_count: 1 0x856-0x859.7 (4)
     |                                               |                |              entries[0:1]: 0x85a-0x861.7 (8)
     |                                               |                |                [0]{}: entry 0x85a-0x861.7 (8)
0x850|                              00 00 00 01      |          ....  |                  sample_count: 1 0x85a-0x85d.7 (4)
0x850|                                          00 01|              ..|                  group_description_index: 65537 0x85e-0x861.7 (4)
0x860|00 01                                          |..              |
     |                                               |                |            [5]{}: box 0x862-0x88d.7 (44)
0x860|      00 00 00 2c                              |  ...,          |              size: 44 0x862-0x865.7 (4)
0x860|                  73 67 70 64                  |      sgpd      |              type: "sgpd" (Sample group definition box) 0x866-0x869.7 (4)
0x860|                              01               |          .     |              version: 1 0x86a-0x86a.7 (1)
0x860|                                 00 00 00      |           ...  |              flags: 0 0x86b-0x86d.7 (3)
0x860|                                          73 65|              se|              grouping_type: "seig" 0x86e-0x871.7 (4)
0x870|69 67                                          |ig              |
0x870|      00 00 00 14                              |  ....          |              default_length: 20 0x872-0x875.7 (4)
0x870|                  00 00 00 01                  |      ....      |              entry_count: 1 0x876-0x879.7 (4)
     |                                               |                |              entries[0:1]: 0x87a-0x88d.7 (20)
     |                                               |                |                [0]{}: entry 0x87a-0x88d.7 (20)
0x870|                              00               |          .     |                  reserved: 0 0x87a-0x87a.7 (1)
0x870|                                 00            |           .    |                  crypto_bytes: 0 0x87b-0x87b.3 (0.4)
0x870|                                 00            |           .    |                  skip_bytes: 0 0x87b.4-0x87b.7 (0.4)
0x870|                                    01         |            .   |                  is_encrypted: 1 0x87c-0x87c.7 (1)
0x870|                                       10      |             .  |                  per_sample_iv_size: 16 0x87d-0x87d.7 (1)
0x870|                                          11 22|              ."|                  kid: raw bits 0x87e-0x88d.7 (16)
0x880|33 44 55 66 77 88 99 aa bb cc dd ee ff 00      |3DUfw.........  |
     |                                               |                |            [6]{}: box 0x88e-0x89e.7 (17)
0x880|                                          00 00|              ..|              size: 17 0x88e-0x891.7 (4)
0x890|00 11                                          |..              |
0x890|      73 61 69 7a                              |  saiz          |              type: "saiz" (Sample auxiliary information sizes) 0x892-0x895.7 (4)
0x890|                  00                           |      .         |              version: 0 0x896-0x896.7 (1)
0x890|                     00 00 00                  |       ...      |              flags: 0 0x897-0x899.7 (3)
0x890|                              10               |          .     |              default_sample_info_size: 16 0x89a-0x89a.7 (1)
0x890|                                 00 00 00 01   |           .... |              sample_count: 1 0x89b-0x89e.7 (4)
     |                                               |                |            [7]{}: box 0x89f-0x8b2.7 (20)
0x890|                                             00|               .|              size: 20 0x89f-0x8a2.7 (4)
0x8a0|00 00 14                                       |...             |
0x8a0|         73 61 69 6f                           |   saio         |              type: "saio" (Sample auxiliary information offsets) 0x8a3-0x8a6.7 (4)
0x8a0|                     00                        |       .        |              version: 0 0x8a7-0x8a7.7 (1)
0x8a0|                        00 00 00               |        ...     |              flags: 0 0x8a8-0x8aa.7 (3)
0x8a0|                                 00 00 00 01   |           .... |              entry_count: 1 0x8ab-0x8ae.7 (4)
     |                                               |                |              entries[0:1]: 0x8af-0x8b2.7 (4)
0x8a0|                                             00|               .|                [0]: 253 offset 0x8af-0x8b2.7 (4)
0x8b0|00 00 fd                                       |...             |
     |                                               |                |            [8]{}: box 0x8b3-0x8c2.7 (16)
0x8b0|         00 00 00 20                           |   ...          |              size: 32 0x8b3-0x8b6.7 (4)
0x8b0|                     73 65 6e 63               |       senc     |              type: "senc" (Sample specific encryption data) 0x8b7-0x8ba.7 (4)
0x8b0|                                 00            |           .    |              version: 0 0x8bb-0x8bb.7 (1)
0x8b0|                                    00 00 00   |            ... |              flags: 0 0x8bc-0x8be.7 (3)
0x8b0|                                             00|               .|              sample_count: 1 0x8bf-0x8c2.7 (4)
0x8c0|00 00 01                                       |...             |
     |                                               |                |              samples[0:1]: 0x8c3-NA (0)
     |                                               |                |                [0]{}: entry 0x8c3-NA (0)
     |                                               |                |        [2]{}: box 0x8d3-0x906.7 (52)
0x8d0|         00 00 00 34                           |   ...4         |          size: 52 0x8d3-0x8d6.7 (4)
0x8d0|                     70 73 73 68               |       pssh     |          type: "pssh" (Protection system specific header) 0x8d7-0x8da.7 (4)
0x8d0|                                 01            |           .    |          version: 1 0x8db-0x8db.7 (1)
0x8d0|                                    00 00 00   |            ... |          flags: 0 0x8dc-0x8de.7 (3)
0x8d0|                                             10|               .|          system_id: "common" (raw bits) 0x8df-0x8ee.7 (16)
0x8e0|77 ef ec c0 b2 4d 02 ac e3 3c 1e 52 e2 fb 4b   |w....M...<.R..K |
0x8e0|                                             00|               .|          kid_count: 1 0x8ef-0x8f2.7 (4)
0x8f0|00 00 01                                       |...             |
     |                                               |                |          kids[0:1]: 0x8f3-0x902.7 (16)
0x8f0|         11 22 33 44 55 66 77 88 99 aa bb cc dd|   ."3DUfw......|            [0]: raw bits kid 0x8f3-0x902.7 (16)
0x900|ee ff 00                                       |...             |
0x900|         00 00 00 00                           |   ....         |          data_size: 0 0x903-0x906.7 (4)
     |                                               |                |          data: raw bits 0x907-NA (0)
     |                                               |                |    [7]{}: box 0x907-0x913.7 (13)
0x900|                     00 00 00 0d               |       ....     |      size: 13 0x907-0x90a.7 (4)
0x900|                                 6d 64 61 74   |           mdat |      type: "mdat" (Media data container) 0x90b-0x90e.7 (4)
0x900|                                             5f|               _|      data: raw bits 0x90f-0x913.7 (5)
0x910|f1 3e 6a 77|                                   |.>jw|           |
0x160|                           44 22 33 44 55 66 77|         D"3DUfw|  gap0: raw bits 0x169-0x198.7 (48)
0x170|88 99 aa bb cc dd ee ff 00 44 22 33 44 55 66 77|.........D"3DUfw|
*    |until 0x198.7 (48)                             |                |
     |                                               |                |  tracks[0:1]: 0x1d5-0x913.7 (1855)
     |                                               |                |    [0]{}: track 0x1d5-0x913.7 (1855)
     |                                               |                |      samples[0:6]: 0x1d5-0x913.7 (1855)
0x1d0|               72 7f 32 eb 78 a2 6b 03 a3 78 38|     r.2.x.k..x8|        [0]: raw bits sample 0x1d5-0x2d4.7 (256)
0x1e0|8b 37 0c c7 18 66 5b 08 bc 5f 60 fe 70 56 80 ec|.7...f[.._`.pV..|
*    |until 0x2d4.7 (256)                            |                |
0x2d0|               34 00 9f ff ff 73 30 d0 0f c5 68|     4....s0...h|        [1]: raw bits sample 0x2d5-0x3d6.7 (258)
0x2e0|42 21 c7 c4 40 4d 6a db 38 90 bb 8f 6e d6 e6 57|B!..@Mj.8...n..W|
*    |until 0x3d6.7 (258)                            |                |
0x3d0|                     9f 47 f3 63 1d 70 4c 9f 5e|       .G.c.pL.^|        [2]: raw bits sample 0x3d7-0x46b.7 (149)
0x3e0|5c 4b 46 3a 3e ea f3 2f 44 9c 24 85 04 14 e8 77|\KF:>../D.$....w|
*    |until 0x46b.7 (149)                            |                |
0x5c0|                           ca 75 87 1f fb 3d a6|         .u...=.|        [3]: raw bits sample 0x5c9-0x6a6.7 (222)
0x5d0|16 5a 74 6b 92 59 6a f4 0a b6 8c 2b b4 be 36 fe|.Ztk.Yj....+..6.|
*    |until 0x6a6.7 (222)                            |                |
0x6a0|                     c1 f5 ca 4d 86 c3 71 31 bd|       ...M..q1.|        [4]: raw bits sample 0x6a7-0x7c5.7 (287)
0x6b0|20 b5 0b 4f ee c1 c8 f3 62 fb 6b 7a 5a 6f f2 9d| ..O....b.kzZo..|
*    |until 0x7c5.7 (287)                            |                |
0x900|                                             5f|               _|        [5]: raw bits sample 0x90f-0x913.7 (5)
0x910|f1 3e 6a 77|                                   |.>jw|           |
     |                                               |                |      id: 1 0x914-NA (0)
     |                                               |                |      data_format: "unknown" 0x914-NA (0)
0x560|                                       44 22 33|             D"3|  gap1: raw bits 0x56d-0x58c.7 (32)
0x570|44 55 66 77 88 99 aa bb cc dd ee ff 2b 44 22 33|DUfw........+D"3|
0x580|44 55 66 77 88 99 aa bb cc dd ee ff 39         |DUfw........9   |
0x8c0|         44 22 33 44 55 66 77 88 99 aa bb cc dd|   D"3DUfw......|  gap2: raw bits 0x8c3-0x8d2.7 (16)
0x8d0|ee ff 4b                                       |..K             |
$ fq -d mp4 dv dash_video_1.m4s
      |00 01 02 03 04 05 06 07 08 09 0a 0b 0c 0d 0e 0f|0123456789abcdef|.{}: dash_video_1.m4s (mp4) 0x0-0x1fd0.7 (8145)
      |                                               |                |  boxes[0:4]: 0x0-0x1fd0.7 (8145)
      |                                               |                |    [0]{}: box 0x0-0x23.7 (36)
0x0000|00 00 00 24                                    |...$            |      size: 36 0x0-0x3.7 (4)
0x0000|            73 74 79 70                        |    styp        |      type: "styp" (Segment Type Box) 0x4-0x7.7 (4)
0x0000|                        69 73 6f 6d            |        isom    |      major_brand: "isom" 0x8-0xb.7 (4)
0x0000|                                    00 00 00 00|            ....|      minor_version: 0 0xc-0xf.7 (4)
      |                                               |                |      brands[0:5]: 0x10-0x23.7 (20)
0x0010|69 73 6f 38                                    |iso8            |        [0]: "iso8" brand (MP4 Base Media v8) 0x10-0x13.7 (4)
0x0010|            6d 70 34 31                        |    mp41        |        [1]: "mp41" brand (MP4 version 1) 0x14-0x17.7 (4)
0x0010|                        64 61 73 68            |        dash    |        [2]: "dash" brand (ISO base media file format file specifically designed for DASH including movie fragments and Segment Index) 0x18-0x1b.7 (4)
0x0010|                                    61 76 63 31|            avc1|        [3]: "avc1" brand (Advanced Video Coding extensions) 0x1c-0x1f.7 (4)
0x0020|63 6d 66 73                                    |cmfs            |        [4]: "cmfs" brand (CMAF Segment Format) 0x20-0x23.7 (4)
      |                                               |                |    [1]{}: box 0x24-0x4f.7 (44)
0x0020|            00 00 00 2c                        |    ...,        |      size: 44 0x24-0x27.7 (4)
0x0020|                        73 69 64 78            |        sidx    |      type: "sidx" (Segment Index Box) 0x28-0x2b.7 (4)
0x0020|                                    00         |            .   |      version: 0 0x2c-0x2c.7 (1)
0x0020|                                       00 00 00|             ...|      flags: 0 0x2d-0x2f.7 (3)
0x0030|00 00 00 01                                    |....            |      reference_id: 1 0x30-0x33.7 (4)
0x0030|            00 00 32 00                        |    ..2.        |      timescale: 12800 0x34-0x37.7 (4)
0x0030|                        00 00 00 00            |        ....    |      pts: 0 0x38-0x3b.7 (4)
0x0030|                                    00 00 00 00|            ....|      offset: 0 0x3c-0x3f.7 (4)
0x0040|00 00                                          |..              |      reserved: 0 0x40-0x41.7 (2)
0x0040|      00 01                                    |  ..            |      entry_count: 1 0x42-0x43.7 (2)
      |                                               |                |      entries[0:1]: 0x44-0x4f.7 (12)
      |                                               |                |        [0]{}: entry 0x44-0x4f.7 (12)
0x0040|            00                                 |    .           |          reference_type: 0 0x44-0x44 (0.1)
0x0040|            00 00 1f 81                        |    ....        |          size: 8065 0x44.1-0x47.7 (3.7)
0x0040|                        00 00 06 00            |        ....    |          duration: 1536 0x48-0x4b.7 (4)
0x0040|                                    90         |            .   |          starts_with_sap: 1 0x4c-0x4c (0.1)
0x0040|                                    90         |            .   |          sap_type: 1 0x4c.1-0x4c.3 (0.3)
0x0040|                                    90 00 00 00|            ....|          sap_delta_time: 0 0x4c.4-0x4f.7 (3.4)
      |                                               |                |    [2]{}: box 0x50-0xbb.7 (108)
0x0050|00 00 00 6c                                    |...l            |      size: 108 0x50-0x53.7 (4)
0x0050|            6d 6f 6f 66                        |    moof        |      type: "moof" (Movie fragment) 0x54-0x57.7 (4)
      |                                               |                |      boxes[0:2]: 0x58-0xbb.7 (100)
      |                                               |                |        [0]{}: box 0x58-0x67.7 (16)
0x0050|                        00 00 00 10            |        ....    |          size: 16 0x58-0x5b.7 (4)
0x0050|                                    6d 66 68 64|            mfhd|          type: "mfhd" (Movie fragment header) 0x5c-0x5f.7 (4)
0x0060|00                                             |.               |          version: 0 0x60-0x60.7 (1)
0x0060|   00 00 00                                    | ...            |          flags: 0 0x61-0x63.7 (3)
0x0060|            00 00 00 01                        |    ....        |          sequence_number: 1 0x64-0x67.7 (4)
      |                                               |                |        [1]{}: box 0x68-0xbb.7 (84)
0x0060|                        00 00 00 54            |        ...T    |          size: 84 0x68-0x6b.7 (4)
0x0060|                                    74 72 61 66|            traf|          type: "traf" (Track fragment) 0x6c-0x6f.7 (4)
      |                                               |                |          boxes[0:3]: 0x70-0xbb.7 (76)
      |                                               |                |            [0]{}: box 0x70-0x8b.7 (28)
0x0070|00 00 00 1c                                    |....            |              size: 28 0x70-0x73.7 (4)
0x0070|            74 66 68 64                        |    tfhd        |              type: "tfhd" (Track fragment header) 0x74-0x77.7 (4)
0x0070|                        00                     |        .       |              version: 0 0x78-0x78.7 (1)
      |                                               |                |              flags{}: 0x79-0x7b.7 (3)
0x0070|                           02                  |         .      |                unused0: 1 0x79-0x79.6 (0.7)
0x0070|                           02                  |         .      |                duration_is_empty: false 0x79.7-0x79.7 (0.1)
0x0070|                              00 2a            |          .*    |                unused1: 0 0x7a-0x7b.1 (1.2)
0x0070|                                 2a            |           *    |                default_sample_flags_present: true 0x7b.2-0x7b.2 (0.1)
0x0070|                                 2a            |           *    |                default_sample_size_present: false 0x7b.3-0x7b.3 (0.1)
0x0070|                                 2a            |           *    |                default_sample_duration_present: true 0x7b.4-0x7b.4 (0.1)
0x0070|                                 2a            |           *    |                unused2: 0 0x7b.5-0x7b.5 (0.1)
0x0070|                                 2a            |           *    |                sample_description_index_present: true 0x7b.6-0x7b.6 (0.1)
0x0070|                                 2a            |           *    |                base_data_offset_present: false 0x7b.7-0x7b.7 (0.1)
0x0070|                                    00 00 00 01|            ....|              track_id: 1 0x7c-0x7f.7 (4)
0x0080|00 00 00 01                                    |....            |              sample_description_index: 1 0x80-0x83.7 (4)
0x0080|            00 00 02 00                        |    ....        |              default_sample_duration: 512 0x84-0x87.7 (4)
      |                                               |                |              default_sample_flags{}: 0x88-0x8b.7 (4)
0x0080|                        00                     |        .       |                reserved0: 0 0x88-0x88.3 (0.4)
0x0080|                        00                     |        .       |                is_leading: 0 0x88.4-0x88.5 (0.2)
0x0080|                        00                     |        .       |                sample_depends_on: "unknown" (0) 0x88.6-0x88.7 (0.2)
0x0080|                           00                  |         .      |                sample_is_depended_on: "unknown" (0) 0x89-0x89.1 (0.2)
0x0080|                           00                  |         .      |                sample_has_redundancy: "unknown" (0) 0x89.2-0x89.3 (0.2)
0x0080|                           00                  |         .      |                sample_padding_value: 0 0x89.4-0x89.6 (0.3)
0x0080|                           00                  |         .      |                sample_is_non_sync_sample: 0 0x89.7-0x89.7 (0.1)
0x0080|                              00 00            |          ..    |                sample_degradation_priority: 0 0x8a-0x8b.7 (2)
      |                                               |                |            [1]{}: box 0x8c-0x9b.7 (16)
0x0080|                                    00 00 00 10|            ....|              size: 16 0x8c-0x8f.7 (4)
0x0090|74 66 64 74                                    |tfdt            |              type: "tfdt" (Track fragment decode time) 0x90-0x93.7 (4)
0x0090|            00                                 |    .           |              version: 0 0x94-0x94.7 (1)
0x0090|               00 00 00                        |     ...        |              flags: 0 0x95-0x97.7 (3)
0x0090|                        00 00 00 00            |        ....    |              start_time: 0 0x98-0x9b.7 (4)
      |                                               |                |            [2]{}: box 0x9c-0xbb.7 (32)
0x0090|                                    00 00 00 20|            ... |              size: 32 0x9c-0x9f.7 (4)
0x00a0|74 72 75 6e                                    |trun            |              type: "trun" (Track fragment run) 0xa0-0xa3.7 (4)
0x00a0|            00                                 |    .           |              version: 0 0xa4-0xa4.7 (1)
      |                                               |                |              flags{}: 0xa5-0xa7.7 (3)
0x00a0|               00 02                           |     ..         |                unused0: 0 0xa5-0xa6.3 (1.4)
0x00a0|                  02                           |      .         |                sample_composition_time_offsets_present: false 0xa6.4-0xa6.4 (0.1)
0x00a0|                  02                           |      .         |                sample_flags_present: false 0xa6.5-0xa6.5 (0.1)
0x00a0|                  02                           |      .         |                sample_size_present: true 0xa6.6-0xa6.6 (0.1)
0x00a0|                  02                           |      .         |                sample_duration_present: false 0xa6.7-0xa6.7 (0.1)
0x00a0|                     01                        |       .        |                unused1: 0 0xa7-0xa7.4 (0.5)
0x00a0|                     01                        |       .        |                first_sample_flags_present: false 0xa7.5-0xa7.5 (0.1)
0x00a0|                     01                        |       .        |                unused2: 0 0xa7.6-0xa7.6 (0.1)
0x00a0|                     01                        |       .        |                data_offset_present: true 0xa7.7-0xa7.7 (0.1)
0x00a0|                        00 00 00 03            |        ....    |              sample_count: 3 0xa8-0xab.7 (4)
0x00a0|                                    00 00 00 74|            ...t|              data_offset: 116 0xac-0xaf.7 (4)
      |                                               |                |              samples[0:3]: 0xb0-0xbb.7 (12)
      |                                               |                |                [0]{}: sample 0xb0-0xb3.7 (4)
0x00b0|00 00 0d 83                                    |....            |                  sample_size: 3459 0xb0-0xb3.7 (4)
      |                                               |                |                [1]{}: sample 0xb4-0xb7.7 (4)
0x00b0|            00 00 08 ca                        |    ....        |                  sample_size: 2250 0xb4-0xb7.7 (4)
      |                                               |                |                [2]{}: sample 0xb8-0xbb.7 (4)
0x00b0|                        00 00 08 c0            |        ....    |                  sample_size: 2240 0xb8-0xbb.7 (4)
      |                                               |                |    [3]{}: box 0xbc-0x1fd0.7 (7957)
0x00b0|                                    00 00 1f 15|            ....|      size: 7957 0xbc-0xbf.7 (4)
0x00c0|6d 64 61 74                                    |mdat            |      type: "mdat" (Media data container) 0xc0-0xc3.7 (4)
0x00c0|            00 00 02 5d 06 05 ff ff 59 dc 45 e9|    ...]....Y.E.|      data: raw bits 0xc4-0x1fd0.7 (7949)
0x00d0|bd e6 d9 48 b7 96 2c d8 20 d9 23 ee ef 78 32 36|...H..,. .#..x26|
*     |until 0x1fd0.7 (end) (7949)                    |                |
      |                                               |                |  tracks[0:1]: 0xc4-0x1fd0.7 (7949)
      |                                               |                |    [0]{}: track 0xc4-0x1fd0.7 (7949)
      |                                               |                |      samples[0:3]: 0xc4-0x1fd0.7 (7949)
0x00c0|            00 00 02 5d 06 05 ff ff 59 dc 45 e9|    ...]....Y.E.|        [0]: raw bits sample 0xc4-0xe46.7 (3459)
0x00d0|bd e6 d9 48 b7 96 2c d8 20 d9 23 ee ef 78 32 36|...H..,. .#..x26|
*     |until 0xe46.7 (3459)                           |                |
0x0e40|                     00 00 08 c6 65 88 82 03 3f|       ....e...?|        [1]: raw bits sample 0xe47-0x1710.7 (2250)
0x0e50|fe f6 86 f8 14 d8 53 23 af ff f2 50 06 7f 30 02|......S#...P..0.|
*     |until 0x1710.7 (2250)                          |                |
0x1710|   00 00 08 bc 65 88 84 0c ff fe f6 86 f8 14 d8| ....e..........|        [2]: raw bits sample 0x1711-0x1fd0.7 (2240)
0x1720|53 23 af ff f2 50 06 7f 30 02 17 55 d4 5a 6f db|S#...P..0..U.Zo.|
*     |until 0x1fd0.7 (end) (2240)                    |                |
      |                                               |                |      id: 1 0x1fd1-NA (0)
      |                                               |                |      data_format: "unknown" 0x1fd1-NA (0)
