# ffmpeg -f lavfi -i sine -ac 2 -c:a flac -strict experimental -f mp4 -t 50ms flac.mp4
$ fq -d mp4 dv flac.mp4
     |00 01 02 03 04 05 06 07 08 09 0a 0b 0c 0d 0e 0f|0123456789abcdef|.{}: flac.mp4 (mp4) 0x0-0x543 (1347)
     |                                               |                |  boxes[0:4]: 0x0-0x543 (1347)
     |                                               |                |    [0]{}: box 0x0-0x1c (28)
0x000|00 00 00 1c                                    |....            |      size: 28 0x0-0x4 (4)
0x000|            66 74 79 70                        |    ftyp        |      type: "ftyp" (File type and compatibility) 0x4-0x8 (4)
0x000|                        69 73 6f 6d            |        isom    |      major_brand: "isom" 0x8-0xc (4)
0x000|                                    00 00 02 00|            ....|      minor_version: 512 0xc-0x10 (4)
     |                                               |                |      brands[0:3]: 0x10-0x1c (12)
0x010|69 73 6f 6d                                    |isom            |        [0]: "isom" brand (All files based on the ISO Base Media File Format) 0x10-0x14 (4)
0x010|            69 73 6f 32                        |    iso2        |        [1]: "iso2" brand (All files based on the 2004 edition of the ISO file format) 0x14-0x18 (4)
0x010|                        6d 70 34 31            |        mp41    |        [2]: "mp41" brand (MP4 version 1) 0x18-0x1c (4)
     |                                               |                |    [1]{}: box 0x1c-0x24 (8)
0x010|                                    00 00 00 08|            ....|      size: 8 0x1c-0x20 (4)
0x020|66 72 65 65                                    |free            |      type: "free" (Free space) 0x20-0x24 (4)
     |                                               |                |      data: raw bits 0x24-0x24 (0)
     |                                               |                |    [2]{}: box 0x24-0x28a (614)
0x020|            00 00 02 66                        |    ...f        |      size: 614 0x24-0x28 (4)
0x020|                        6d 64 61 74            |        mdat    |      type: "mdat" (Media data container) 0x28-0x2c (4)
0x020|                                    ff f8 79 88|            ..y.|      data: raw bits 0x2c-0x28a (606)
0x030|00 08 9c 25 4a 00 00 00 b5 01 69 02 1d 02 ce 03|...%J.....i.....|
*    |until 0x289.7 (606)                            |                |
     |                                               |                |    [3]{}: box 0x28a-0x543 (697)
0x280|                              00 00 02 b9      |          ....  |      size: 697 0x28a-0x28e (4)
0x280|                                          6d 6f|              mo|      type: "moov" (Container for all the meta-data) 0x28e-0x292 (4)
0x290|6f 76                                          |ov              |
     |                                               |                |      boxes[0:3]: 0x292-0x543 (689)
     |                                               |                |        [0]{}: box 0x292-0x2fe (108)
0x290|      00 00 00 6c                              |  ...l          |          size: 108 0x292-0x296 (4)
0x290|                  6d 76 68 64                  |      mvhd      |          type: "mvhd" (Movie header, overall declarations) 0x296-0x29a (4)
0x290|                              00               |          .     |          version: 0 0x29a-0x29b (1)
0x290|                                 00 00 00      |           ...  |          flags: 0 0x29b-0x29e (3)
0x290|                                          00 00|              ..|          creation_time: 0 (1904-01-01T00:00:00Z) 0x29e-0x2a2 (4)
0x2a0|00 00                                          |..              |
0x2a0|      00 00 00 00                              |  ....          |          modification_time: 0 (1904-01-01T00:00:00Z) 0x2a2-0x2a6 (4)
0x2a0|                  00 00 03 e8                  |      ....      |          time_scale: 1000 0x2a6-0x2aa (4)
0x2a0|                              00 00 00 32      |          ...2  |          duration: 50 0x2aa-0x2ae (4)
0x2a0|                                          00 01|              ..|          preferred_rate: 1 0x2ae-0x2b2 (4)
0x2b0|00 00                                          |..              |
0x2b0|      01 00                                    |  ..            |          preferred_volume: 1 0x2b2-0x2b4 (2)
0x2b0|            00 00 00 00 00 00 00 00 00 00      |    ..........  |          reserved: "\x00\x00\x00\x00\x00\x00\x00\x00\x00\x00" 0x2b4-0x2be (10)
     |                                               |                |          matrix_structure{}: 0x2be-0x2e2 (36)
0x2b0|                                          00 01|              ..|            a: 1 0x2be-0x2c2 (4)
0x2c0|00 00                                          |..              |
0x2c0|      00 00 00 00                              |  ....          |            b: 0 0x2c2-0x2c6 (4)
0x2c0|                  00 00 00 00                  |      ....      |            u: 0 0x2c6-0x2ca (4)
0x2c0|                              00 00 00 00      |          ....  |            c: 0 0x2ca-0x2ce (4)
0x2c0|                                          00 01|              ..|            d: 1 0x2ce-0x2d2 (4)
0x2d0|00 00                                          |..              |
0x2d0|      00 00 00 00                              |  ....          |            v: 0 0x2d2-0x2d6 (4)
0x2d0|                  00 00 00 00                  |      ....      |            x: 0 0x2d6-0x2da (4)
0x2d0|                              00 00 00 00      |          ....  |            y: 0 0x2da-0x2de (4)
0x2d0|                                          40 00|              @.|            w: 1 0x2de-0x2e2 (4)
0x2e0|00 00                                          |..              |
0x2e0|      00 00 00 00                              |  ....          |          preview_time: 0 0x2e2-0x2e6 (4)
0x2e0|                  00 00 00 00                  |      ....      |          preview_duration: 0 0x2e6-0x2ea (4)
0x2e0|                              00 00 00 00      |          ....  |          poster_time: 0 0x2ea-0x2ee (4)
0x2e0|                                          00 00|              ..|          selection_time: 0 0x2ee-0x2f2 (4)
0x2f0|00 00                                          |..              |
0x2f0|      00 00 00 00                              |  ....          |          selection_duration: 0 0x2f2-0x2f6 (4)
0x2f0|                  00 00 00 00                  |      ....      |          current_time: 0 0x2f6-0x2fa (4)
0x2f0|                              00 00 00 02      |          ....  |          next_track_id: 2 0x2fa-0x2fe (4)
     |                                               |                |        [1]{}: box 0x2fe-0x4e1 (483)
0x2f0|                                          00 00|              ..|          size: 483 0x2fe-0x302 (4)
0x300|01 e3                                          |..              |
0x300|      74 72 61 6b                              |  trak          |          type: "trak" (Container for an individual track or stream) 0x302-0x306 (4)
     |                                               |                |          boxes[0:3]: 0x306-0x4e1 (475)
     |                                               |                |            [0]{}: box 0x306-0x362 (92)
0x300|                  00 00 00 5c                  |      ...\      |              size: 92 0x306-0x30a (4)
0x300|                              74 6b 68 64      |          tkhd  |              type: "tkhd" (Track header, overall information about the track) 0x30a-0x30e (4)
0x300|                                          00   |              . |              version: 0 0x30e-0x30f (1)
     |                                               |                |              flags{}: 0x30f-0x312 (3)
0x300|                                             00|               .|                unused: 0 0x30f-0x311.4 (2.4)
0x310|00 03                                          |..              |
0x310|   03                                          | .              |                size_is_aspect_ratio: false 0x311.4-0x311.5 (0.1)
0x310|   03                                          | .              |                in_preview: false 0x311.5-0x311.6 (0.1)
0x310|   03                                          | .              |                in_movie: true 0x311.6-0x311.7 (0.1)
0x310|   03                                          | .              |                enabled: true 0x311.7-0x312 (0.1)
0x310|      00 00 00 00                              |  ....          |              creation_time: 0 (1904-01-01T00:00:00Z) 0x312-0x316 (4)
0x310|                  00 00 00 00                  |      ....      |              modification_time: 0 (1904-01-01T00:00:00Z) 0x316-0x31a (4)
0x310|                              00 00 00 01      |          ....  |              track_id: 1 0x31a-0x31e (4)
0x310|                                          00 00|              ..|              reserved1: 0 0x31e-0x322 (4)
0x320|00 00                                          |..              |
0x320|      00 00 00 32                              |  ...2          |              duration: 50 0x322-0x326 (4)
0x320|                  00 00 00 00 00 00 00 00      |      ........  |              reserved2: raw bits 0x326-0x32e (8)
0x320|                                          00 00|              ..|              layer: 0 0x32e-0x330 (2)
0x330|00 01                                          |..              |              alternate_group: 1 0x330-0x332 (2)
0x330|      01 00                                    |  ..            |              volume: 1 0x332-0x334 (2)
0x330|            00 00                              |    ..          |              reserved3: 0 0x334-0x336 (2)
     |                                               |                |              matrix_structure{}: 0x336-0x35a (36)
0x330|                  00 01 00 00                  |      ....      |                a: 1 0x336-0x33a (4)
0x330|                              00 00 00 00      |          ....  |                b: 0 0x33a-0x33e (4)
0x330|                                          00 00|              ..|                u: 0 0x33e-0x342 (4)
0x340|00 00                                          |..              |
0x340|      00 00 00 00                              |  ....          |                c: 0 0x342-0x346 (4)
0x340|                  00 01 00 00                  |      ....      |                d: 1 0x346-0x34a (4)
0x340|                              00 00 00 00      |          ....  |                v: 0 0x34a-0x34e (4)
0x340|                                          00 00|              ..|                x: 0 0x34e-0x352 (4)
0x350|00 00                                          |..              |
0x350|      00 00 00 00                              |  ....          |                y: 0 0x352-0x356 (4)
0x350|                  40 00 00 00                  |      @...      |                w: 1 0x356-0x35a (4)
0x350|                              00 00 00 00      |          ....  |              track_width: 0 0x35a-0x35e (4)
0x350|                                          00 00|              ..|              track_height: 0 0x35e-0x362 (4)
0x360|00 00                                          |..              |
     |                                               |                |            [1]{}: box 0x362-0x386 (36)
0x360|      00 00 00 24                              |  ...$          |              size: 36 0x362-0x366 (4)
0x360|                  65 64 74 73                  |      edts      |              type: "edts" (Edit list container) 0x366-0x36a (4)
     |                                               |                |              boxes[0:1]: 0x36a-0x386 (28)
     |                                               |                |                [0]{}: box 0x36a-0x386 (28)
0x360|                              00 00 00 1c      |          ....  |                  size: 28 0x36a-0x36e (4)
0x360|                                          65 6c|              el|                  type: "elst" (An edit list) 0x36e-0x372 (4)
0x370|73 74                                          |st              |
0x370|      00                                       |  .             |                  version: 0 0x372-0x373 (1)
0x370|         00 00 00                              |   ...          |                  flags: 0 0x373-0x376 (3)
0x370|                  00 00 00 01                  |      ....      |                  entry_count: 1 0x376-0x37a (4)
     |                                               |                |                  entries[0:1]: 0x37a-0x386 (12)
     |                                               |                |                    [0]{}: entry 0x37a-0x386 (12)
0x370|                              00 00 00 32      |          ...2  |                      segment_duration: 50 0x37a-0x37e (4)
0x370|                                          00 00|              ..|                      media_time: 0 0x37e-0x382 (4)
0x380|00 00                                          |..              |
0x380|      00 01 00 00                              |  ....          |                      media_rate: 1 0x382-0x386 (4)
     |                                               |                |            [2]{}: box 0x386-0x4e1 (347)
0x380|                  00 00 01 5b                  |      ...[      |              size: 347 0x386-0x38a (4)
0x380|                              6d 64 69 61      |          mdia  |              type: "mdia" (Container for the media information in a track) 0x38a-0x38e (4)
     |                                               |                |              boxes[0:3]: 0x38e-0x4e1 (339)
     |                                               |                |                [0]{}: box 0x38e-0x3ae (32)
0x380|                                          00 00|              ..|                  size: 32 0x38e-0x392 (4)
0x390|00 20                                          |.               |
0x390|      6d 64 68 64                              |  mdhd          |                  type: "mdhd" (Media header, overall information about the media) 0x392-0x396 (4)
0x390|                  00                           |      .         |                  version: 0 0x396-0x397 (1)
0x390|                     00 00 00                  |       ...      |                  flags: 0 0x397-0x39a (3)
0x390|                              00 00 00 00      |          ....  |                  creation_time: 0 (1904-01-01T00:00:00Z) 0x39a-0x39e (4)
0x390|                                          00 00|              ..|                  modification_time: 0 (1904-01-01T00:00:00Z) 0x39e-0x3a2 (4)
0x3a0|00 00                                          |..              |
0x3a0|      00 00 ac 44                              |  ...D          |                  time_scale: 44100 0x3a2-0x3a6 (4)
0x3a0|                  00 00 08 9d                  |      ....      |                  duration: 2205 0x3a6-0x3aa (4)
0x3a0|                              55 c4            |          U.    |                  language: "und" 0x3aa-0x3ac (2)
0x3a0|                                    00 00      |            ..  |                  quality: 0 0x3ac-0x3ae (2)
     |                                               |                |                [1]{}: box 0x3ae-0x3db (45)
0x3a0|                                          00 00|              ..|                  size: 45 0x3ae-0x3b2 (4)
0x3b0|00 2d                                          |.-              |
0x3b0|      68 64 6c 72                              |  hdlr          |                  type: "hdlr" (Handler, declares the media (handler) type) 0x3b2-0x3b6 (4)
0x3b0|                  00                           |      .         |                  version: 0 0x3b6-0x3b7 (1)
0x3b0|                     00 00 00                  |       ...      |                  flags: 0 0x3b7-0x3ba (3)
0x3b0|                              00 00 00 00      |          ....  |                  component_type: "" 0x3ba-0x3be (4)
0x3b0|                                          73 6f|              so|                  component_subtype: "soun" (Audio Track) 0x3be-0x3c2 (4)
0x3c0|75 6e                                          |un              |
0x3c0|      00 00 00 00                              |  ....          |                  component_manufacturer: "" 0x3c2-0x3c6 (4)
0x3c0|                  00 00 00 00                  |      ....      |                  component_flags: 0 0x3c6-0x3ca (4)
0x3c0|                              00 00 00 00      |          ....  |                  component_flags_mask: 0 0x3ca-0x3ce (4)
0x3c0|                                          53 6f|              So|                  component_name: "SoundHandler" 0x3ce-0x3db (13)
0x3d0|75 6e 64 48 61 6e 64 6c 65 72 00               |undHandler.     |
     |                                               |                |                [2]{}: box 0x3db-0x4e1 (262)
0x3d0|                                 00 00 01 06   |           .... |                  size: 262 0x3db-0x3df (4)
0x3d0|                                             6d|               m|                  type: "minf" (Media information container) 0x3df-0x3e3 (4)
0x3e0|69 6e 66                                       |inf             |
     |                                               |                |                  boxes[0:3]: 0x3e3-0x4e1 (254)
     |                                               |                |                    [0]{}: box 0x3e3-0x3f3 (16)
0x3e0|         00 00 00 10                           |   ....         |                      size: 16 0x3e3-0x3e7 (4)
0x3e0|                     73 6d 68 64               |       smhd     |                      type: "smhd" (Sound media header, overall information (sound track only)) 0x3e7-0x3eb (4)
0x3e0|                                 00            |           .    |                      version: 0 0x3eb-0x3ec (1)
0x3e0|                                    00 00 00   |            ... |                      flags: 0 0x3ec-0x3ef (3)
0x3e0|                                             00|               .|                      balance: 0 0x3ef-0x3f1 (2)
0x3f0|00                                             |.               |
0x3f0|   00 00                                       | ..             |                      reserved: 0 0x3f1-0x3f3 (2)
     |                                               |                |                    [1]{}: box 0x3f3-0x417 (36)
0x3f0|         00 00 00 24                           |   ...$         |                      size: 36 0x3f3-0x3f7 (4)
0x3f0|                     64 69 6e 66               |       dinf     |                      type: "dinf" (Data information box, container) 0x3f7-0x3fb (4)
     |                                               |                |                      boxes[0:1]: 0x3fb-0x417 (28)
     |                                               |                |                        [0]{}: box 0x3fb-0x417 (28)
0x3f0|                                 00 00 00 1c   |           .... |                          size: 28 0x3fb-0x3ff (4)
0x3f0|                                             64|               d|                          type: "dref" (Data reference box, declares source(s) of media data in track) 0x3ff-0x403 (4)
0x400|72 65 66                                       |ref             |
0x400|         00                                    |   .            |                          version: 0 0x403-0x404 (1)
0x400|            00 00 00                           |    ...         |                          flags: 0 0x404-0x407 (3)
0x400|                     00 00 00 01               |       ....     |                          entry_count: 1 0x407-0x40b (4)
     |                                               |                |                          boxes[0:1]: 0x40b-0x417 (12)
     |                                               |                |                            [0]{}: box 0x40b-0x417 (12)
0x400|                                 00 00 00 0c   |           .... |                              size: 12 0x40b-0x40f (4)
0x400|                                             75|               u|                              type: "url" 0x40f-0x413 (4)
0x410|72 6c 20                                       |rl              |
0x410|         00                                    |   .            |                              version: 0 0x413-0x414 (1)
0x410|            00 00 01                           |    ...         |                              flags: 1 0x414-0x417 (3)
     |                                               |                |                              data: "" 0x417-0x417 (0)
     |                                               |                |                    [2]{}: box 0x417-0x4e1 (202)
0x410|                     00 00 00 ca               |       ....     |                      size: 202 0x417-0x41b (4)
0x410|                                 73 74 62 6c   |           stbl |                      type: "stbl" (Sample table box, container for the time/space map) 0x41b-0x41f (4)
     |                                               |                |                      boxes[0:5]: 0x41f-0x4e1 (194)
     |                                               |                |                        [0]{}: box 0x41f-0x485 (102)
0x410|                                             00|               .|                          size: 102 0x41f-0x423 (4)
0x420|00 00 66                                       |..f             |
0x420|         73 74 73 64                           |   stsd         |                          type: "stsd" (Sample descriptions (codec types, initialization etc.)) 0x423-0x427 (4)
0x420|                     00                        |       .        |                          version: 0 0x427-0x428 (1)
0x420|                        00 00 00               |        ...     |                          flags: 0 0x428-0x42b (3)
0x420|                                 00 00 00 01   |           .... |                          entry_count: 1 0x42b-0x42f (4)
     |                                               |                |                          boxes[0:1]: 0x42f-0x485 (86)
     |                                               |                |                            [0]{}: box 0x42f-0x485 (86)
0x420|                                             00|               .|                              size: 86 0x42f-0x433 (4)
0x430|00 00 56                                       |..V             |
0x430|         66 4c 61 43                           |   fLaC         |                              type: "fLaC" (Fres Lossless Audio Codec) 0x433-0x437 (4)
0x430|                     00 00 00 00 00 00         |       ......   |                              reserved: raw bits 0x437-0x43d (6)
0x430|                                       00 01   |             .. |                              data_reference_index: 1 0x43d-0x43f (2)
0x430|                                             00|               .|                              version: 0 0x43f-0x441 (2)
0x440|00                                             |.               |
0x440|   00 00                                       | ..             |                              revision_level: 0 0x441-0x443 (2)
0x440|         00 00 00 00                           |   ....         |                              max_packet_size: 0 0x443-0x447 (4)
0x440|                     00 02                     |       ..       |                              num_audio_channels: 2 0x447-0x449 (2)
0x440|                           00 10               |         ..     |                              sample_size: 16 0x449-0x44b (2)
0x440|                                 00 00         |           ..   |                              compression_id: 0 0x44b-0x44d (2)
0x440|                                       00 00   |             .. |                              packet_size: 0 0x44d-0x44f (2)
0x440|                                             ac|               .|                              sample_rate: 44100 0x44f-0x453 (4)
0x450|44 00 00                                       |D..             |
     |                                               |                |                              boxes[0:1]: 0x453-0x485 (50)
     |                                               |                |                                [0]{}: box 0x453-0x485 (50)
0x450|         00 00 00 32                           |   ...2         |                                  size: 50 0x453-0x457 (4)
0x450|                     64 66 4c 61               |       dfLa     |                                  type: "dfLa" 0x457-0x45b (4)
0x450|                                 00            |           .    |                                  version: 0 0x45b-0x45c (1)
0x450|                                    00 00 00   |            ... |                                  flags: 0 0x45c-0x45f (3)
     |00 01 02 03 04 05 06 07 08 09 0a 0b 0c 0d 0e 0f|0123456789abcdef|                                  descriptor[0:1]: (flac_metadatablocks) 0x45f-0x485 (38)
     |00 01 02 03 04 05 06 07 08 09 0a 0b 0c 0d 0e 0f|0123456789abcdef|                                    [0]{}: metadatablock (flac_metadatablock) 0x45f-0x485 (38)
0x450|                                             80|               .|                                      last_block: true 0x45f-0x45f.1 (0.1)
0x450|                                             80|               .|                                      type: "streaminfo" (0) 0x45f.1-0x460 (0.7)
0x460|00 00 22                                       |.."             |                                      length: 34 0x460-0x463 (3)
0x460|         12 00                                 |   ..           |                                      minimum_block_size: 4608 0x463-0x465 (2)
0x460|               12 00                           |     ..         |                                      maximum_block_size: 4608 0x465-0x467 (2)
0x460|                     00 02 5e                  |       ..^      |                                      minimum_frame_size: 606 0x467-0x46a (3)
0x460|                              00 02 5e         |          ..^   |                                      maximum_frame_size: 606 0x46a-0x46d (3)
0x460|                                       0a c4 42|             ..B|                                      sample_rate: 44100 0x46d-0x46f.4 (2.4)
0x460|                                             42|               B|                                      channels: 2 0x46f.4-0x46f.7 (0.3)
0x460|                                             42|               B|                                      bits_per_sample: 16 0x46f.7-0x470.4 (0.5)
0x470|f0                                             |.               |
0x470|f0 00 00 08 9d                                 |.....           |                                      total_samples_in_stream: 2205 0x470.4-0x475 (4.4)
0x470|               e9 16 ab 02 13 72 81 38 6a 28 17|     .....r.8j(.|                                      md5: "e916ab02137281386a28174fe11bffec" (raw bits) 0x475-0x485 (16)
0x480|4f e1 1b ff ec                                 |O....           |
     |                                               |                |                        [1]{}: box 0x485-0x49d (24)
0x480|               00 00 00 18                     |     ....       |                          size: 24 0x485-0x489 (4)
0x480|                           73 74 74 73         |         stts   |                          type: "stts" (Sample time-to-sample) 0x489-0x48d (4)
0x480|                                       00      |             .  |                          version: 0 0x48d-0x48e (1)
0x480|                                          00 00|              ..|                          flags: 0 0x48e-0x491 (3)
0x490|00                                             |.               |
0x490|   00 00 00 01                                 | ....           |                          entry_count: 1 0x491-0x495 (4)
     |                                               |                |                          entries[0:1]: 0x495-0x49d (8)
     |                                               |                |                            [0]{}: entry 0x495-0x49d (8)
0x490|               00 00 00 01                     |     ....       |                              count: 1 0x495-0x499 (4)
0x490|                           00 00 08 9d         |         ....   |                              delta: 2205 0x499-0x49d (4)
     |                                               |                |                        [2]{}: box 0x49d-0x4b9 (28)
0x490|                                       00 00 00|             ...|                          size: 28 0x49d-0x4a1 (4)
0x4a0|1c                                             |.               |
0x4a0|   73 74 73 63                                 | stsc           |                          type: "stsc" (Sample-to-chunk, partial data-offset information) 0x4a1-0x4a5 (4)
0x4a0|               00                              |     .          |                          version: 0 0x4a5-0x4a6 (1)
0x4a0|                  00 00 00                     |      ...       |                          flags: 0 0x4a6-0x4a9 (3)
0x4a0|                           00 00 00 01         |         ....   |                          entry_count: 1 0x4a9-0x4ad (4)
     |                                               |                |                          entries[0:1]: 0x4ad-0x4b9 (12)
     |                                               |                |                            [0]{}: entry 0x4ad-0x4b9 (12)
0x4a0|                                       00 00 00|             ...|                              first_chunk: 1 0x4ad-0x4b1 (4)
0x4b0|01                                             |.               |
0x4b0|   00 00 00 01                                 | ....           |                              samples_per_chunk: 1 0x4b1-0x4b5 (4)
0x4b0|               00 00 00 01                     |     ....       |                              sample_description_id: 1 0x4b5-0x4b9 (4)
     |                                               |                |                        [3]{}: box 0x4b9-0x4cd (20)
0x4b0|                           00 00 00 14         |         ....   |                          size: 20 0x4b9-0x4bd (4)
0x4b0|                                       73 74 73|             sts|                          type: "stsz" (Sample sizes (framing)) 0x4bd-0x4c1 (4)
0x4c0|7a                                             |z               |
0x4c0|   00                                          | .              |                          version: 0 0x4c1-0x4c2 (1)
0x4c0|      00 00 00                                 |  ...           |                          flags: 0 0x4c2-0x4c5 (3)
0x4c0|               00 00 02 5e                     |     ...^       |                          sample_size: 606 0x4c5-0x4c9 (4)
0x4c0|                           00 00 00 01         |         ....   |                          entry_count: 1 0x4c9-0x4cd (4)
     |                                               |                |                        [4]{}: box 0x4cd-0x4e1 (20)
0x4c0|                                       00 00 00|             ...|                          size: 20 0x4cd-0x4d1 (4)
0x4d0|14                                             |.               |
0x4d0|   73 74 63 6f                                 | stco           |                          type: "stco" (Chunk offset, partial data-offset information) 0x4d1-0x4d5 (4)
0x4d0|               00                              |     .          |                          version: 0 0x4d5-0x4d6 (1)
0x4d0|                  00 00 00                     |      ...       |                          flags: 0 0x4d6-0x4d9 (3)
0x4d0|                           00 00 00 01         |         ....   |                          entry_count: 1 0x4d9-0x4dd (4)
     |                                               |                |                          entries[0:1]: 0x4dd-0x4e1 (4)
0x4d0|                                       00 00 00|             ...|                            [0]: 44 chunk_offset 0x4dd-0x4e1 (4)
0x4e0|2c                                             |,               |
     |                                               |                |        [2]{}: box 0x4e1-0x543 (98)
0x4e0|   00 00 00 62                                 | ...b           |          size: 98 0x4e1-0x4e5 (4)
0x4e0|               75 64 74 61                     |     udta       |          type: "udta" (User-data) 0x4e5-0x4e9 (4)
     |                                               |                |          boxes[0:1]: 0x4e9-0x543 (90)
     |                                               |                |            [0]{}: box 0x4e9-0x543 (90)
0x4e0|                           00 00 00 5a         |         ...Z   |              size: 90 0x4e9-0x4ed (4)
0x4e0|                                       6d 65 74|             met|              type: "meta" (Metadata container) 0x4ed-0x4f1 (4)
0x4f0|61                                             |a               |
0x4f0|   00 00 00 00                                 | ....           |              maybe_flags: 0 0x4f1-0x4f5 (4)
     |                                               |                |              boxes[0:2]: 0x4f5-0x543 (78)
     |                                               |                |                [0]{}: box 0x4f5-0x516 (33)
0x4f0|               00 00 00 21                     |     ...!       |                  size: 33 0x4f5-0x4f9 (4)
0x4f0|                           68 64 6c 72         |         hdlr   |                  type: "hdlr" (Handler, declares the media (handler) type) 0x4f9-0x4fd (4)
0x4f0|                                       00      |             .  |                  version: 0 0x4fd-0x4fe (1)
0x4f0|                                          00 00|              ..|                  flags: 0 0x4fe-0x501 (3)
0x500|00                                             |.               |
0x500|   00 00 00 00                                 | ....           |                  component_type: "" 0x501-0x505 (4)
0x500|               6d 64 69 72                     |     mdir       |                  component_subtype: "mdir" (Metadata) 0x505-0x509 (4)
0x500|                           61 70 70 6c         |         appl   |                  component_manufacturer: "appl" 0x509-0x50d (4)
0x500|                                       00 00 00|             ...|                  component_flags: 0 0x50d-0x511 (4)
0x510|00                                             |.               |
0x510|   00 00 00 00                                 | ....           |                  component_flags_mask: 0 0x511-0x515 (4)
0x510|               00                              |     .          |                  component_name: "" 0x515-0x516 (1)
     |                                               |                |                [1]{}: box 0x516-0x543 (45)
0x510|                  00 00 00 2d                  |      ...-      |                  size: 45 0x516-0x51a (4)
0x510|                              69 6c 73 74      |          ilst  |                  type: "ilst" 0x51a-0x51e (4)
     |                                               |                |                  boxes[0:1]: 0x51e-0x543 (37)
     |                                               |                |                    [0]{}: box 0x51e-0x543 (37)
0x510|                                          00 00|              ..|                      size: 37 0x51e-0x522 (4)
0x520|00 25                                          |.%              |
0x520|      a9 74 6f 6f                              |  .too          |                      type: "©too" (Encoder) 0x522-0x526 (4)
     |                                               |                |                      boxes[0:1]: 0x526-0x543 (29)
     |                                               |                |                        [0]{}: box 0x526-0x543 (29)
0x520|                  00 00 00 1d                  |      ....      |                          size: 29 0x526-0x52a (4)
0x520|                              64 61 74 61      |          data  |                          type: "data" 0x52a-0x52e (4)
0x520|                                          00   |              . |                          version: 0 0x52e-0x52f (1)
0x520|                                             00|               .|                          flags: 1 0x52f-0x532 (3)
0x530|00 01                                          |..              |
0x530|      00 00 00 00                              |  ....          |                          reserved: 0 0x532-0x536 (4)
0x530|                  4c 61 76 66 35 38 2e 34 35 2e|      Lavf58.45.|                          data: "Lavf58.45.100" 0x536-0x543 (13)
0x540|31 30 30|                                      |100|            |
     |                                               |                |  tracks[0:1]: 0x2c-0x28a (606)
     |                                               |                |    [0]{}: track 0x2c-0x28a (606)
     |                                               |                |      samples[0:1]: 0x2c-0x28a (606)
     |00 01 02 03 04 05 06 07 08 09 0a 0b 0c 0d 0e 0f|0123456789abcdef|        [0]{}: sample (flac_frame) 0x2c-0x28a (606)
     |                                               |                |          header{}: 0x2c-0x34 (8)
0x020|                                    ff f8      |            ..  |            sync: 0b11111111111110 (valid) 0x2c-0x2d.6 (1.6)
0x020|                                       f8      |             .  |            reserved0: 0 (valid) 0x2d.6-0x2d.7 (0.1)
0x020|                                       f8      |             .  |            blocking_strategy: "fixed" (0) 0x2d.7-0x2e (0.1)
0x020|                                          79   |              y |            block_size: 0b111 (end of header (16 bit)) 0x2e-0x2e.4 (0.4)
0x020|                                          79   |              y |            sample_rate: 44100 (0b1001) 0x2e.4-0x2f (0.4)
0x020|                                             88|               .|            channel_assignment: 2 (8) (left/side stereo) 0x2f-0x2f.4 (0.4)
     |                                               |                |            side_channel_index: 1
0x020|                                             88|               .|            sample_size: 16 (0b100) 0x2f.4-0x2f.7 (0.3)
0x020|                                             88|               .|            reserved1: 0 (valid) 0x2f.7-0x30 (0.1)
     |                                               |                |            end_of_header{}: 0x30-0x33 (3)
0x030|00                                             |.               |              frame_number: 0 0x30-0x31 (1)
0x030|   08 9c                                       | ..             |              block_size: 2205 0x31-0x33 (2)
0x030|         25                                    |   %            |            crc: 0x25 (valid) 0x33-0x34 (1)
     |                                               |                |          subframes[0:2]: 0x34-0x287.2 (595.2)
     |                                               |                |            [0]{}: subframe 0x34-0x284.1 (592.1)
0x030|            4a                                 |    J           |              zero_bit: 0 (valid) 0x34-0x34.1 (0.1)
0x030|            4a                                 |    J           |              subframe_type: "lpc" (0b100101) 0x34.1-0x34.7 (0.6)
     |                                               |                |              lpc_order: 6
0x030|            4a                                 |    J           |              wasted_bits_flag: 0 0x34.7-0x35 (0.1)
     |                                               |                |              subframe_sample_size: 16
     |                                               |                |              warmup_samples[0:6]: 0x35-0x41 (12)
0x030|               00 00                           |     ..         |                [0]: 0 value 0x35-0x37 (2)
0x030|                     00 b5                     |       ..       |                [1]: 181 value 0x37-0x39 (2)
0x030|                           01 69               |         .i     |                [2]: 361 value 0x39-0x3b (2)
0x030|                                 02 1d         |           ..   |                [3]: 541 value 0x3b-0x3d (2)
0x030|                                       02 ce   |             .. |                [4]: 718 value 0x3d-0x3f (2)
0x030|                                             03|               .|                [5]: 892 value 0x3f-0x41 (2)
0x040|7c                                             ||               |
0x040|   e7                                          | .              |              precision: 15 0x41-0x41.4 (0.4)
0x040|   e7 32                                       | .2             |              shift: 14 0x41.4-0x42.1 (0.5)
     |                                               |                |              coefficients[0:6]: 0x42.1-0x4d.3 (11.2)
0x040|      32 c2                                    |  2.            |                [0]: 12994 value 0x42.1-0x44 (1.7)
0x040|            36 f8                              |    6.          |                [1]: 7036 value 0x44-0x45.7 (1.7)
0x040|               f8 2a 3b                        |     .*;        |                [2]: 2702 value 0x45.7-0x47.6 (1.7)
0x040|                     3b eb 3f                  |       ;.?      |                [3]: -665 value 0x47.6-0x49.5 (1.7)
0x040|                           3f 63 de            |         ?c.    |                [4]: -2499 value 0x49.5-0x4b.4 (1.7)
0x040|                                 de 52 20      |           .R   |                [5]: -3439 value 0x4b.4-0x4d.3 (1.7)
0x040|                                       20      |                |              residual_coding_method: 4 (0) (rice) 0x4d.3-0x4d.5 (0.2)
0x040|                                       20 01   |              . |              partition_order: 0 0x4d.5-0x4e.1 (0.4)
     |                                               |                |              rice_partitions: 1
     |                                               |                |              partitions[0:1]: 0x4e.1-0x284.1 (566)
     |                                               |                |                [0]{}: partition 0x4e.1-0x284.1 (566)
     |                                               |                |                  count: 2199
0x040|                                          01   |              . |                  rice_parameter: 0 0x4e.1-0x4e.5 (0.4)
0x040|                                          01 27|              .'|                  samples: raw bits 0x4e.5-0x284.1 (565.4)
0x050|33 32 79 32 64 e6 66 73 24 d3 38 7f 99 27 99 3c|32y2d.fs$.8..'.<|
*    |until 0x284 (566)                              |                |
     |                                               |                |            [1]{}: subframe 0x284.1-0x287.2 (3.1)
0x280|            80                                 |    .           |              zero_bit: 0 (valid) 0x284.1-0x284.2 (0.1)
0x280|            80                                 |    .           |              subframe_type: "constant" (0b0) 0x284.2-0x285 (0.6)
0x280|               00                              |     .          |              wasted_bits_flag: 0 0x285-0x285.1 (0.1)
     |                                               |                |              subframe_sample_size: 17
0x280|               00 00 00                        |     ...        |              value: 0 0x285.1-0x287.2 (2.1)
0x280|                     00                        |       .        |          byte_align: 0 (valid) 0x287.2-0x288 (0.6)
0x280|                        82 cb                  |        ..      |          footer_crc: "82cb" (raw bits) (valid) 0x288-0x28a (2)
     |                                               |                |      id: 1
     |                                               |                |      data_format: "fLaC" (Fres Lossless Audio Codec)
