# ffmpeg -f lavfi -i testsrc=size=16x16:r=1 -preset slower -r 1 -t 1s -pix_fmt yuv420p -f hevc heic.hvc
# MP4Box -add-image heic.hvc -ab heic -new heic.mp4
$ fq -d mp4 dv heic.mp4
      |00 01 02 03 04 05 06 07 08 09 0a 0b 0c 0d 0e 0f|0123456789abcdef|.{}: heic.mp4 (mp4) 0x0-0xb2d (2861)
      |                                               |                |  boxes[0:4]: 0x0-0xb2d (2861)
      |                                               |                |    [0]{}: box 0x0-0x18 (24)
0x0000|00 00 00 18                                    |....            |      size: 24 0x0-0x4 (4)
0x0000|            66 74 79 70                        |    ftyp        |      type: "ftyp" (File type and compatibility) 0x4-0x8 (4)
0x0000|                        6d 69 66 31            |        mif1    |      major_brand: "mif1" 0x8-0xc (4)
0x0000|                                    00 00 00 00|            ....|      minor_version: 0 0xc-0x10 (4)
      |                                               |                |      brands[0:2]: 0x10-0x18 (8)
0x0010|6d 69 66 31                                    |mif1            |        [0]: "mif1" brand (High Efficiency Image Format still image (.HEIF)) 0x10-0x14 (4)
0x0010|            68 65 69 63                        |    heic        |        [1]: "heic" brand (High Efficiency Image Format HEVC still image (.HEIC)) 0x14-0x18 (4)
      |                                               |                |    [1]{}: box 0x18-0x16c (340)
0x0010|                        00 00 01 54            |        ...T    |      size: 340 0x18-0x1c (4)
0x0010|                                    6d 65 74 61|            meta|      type: "meta" (Metadata container) 0x1c-0x20 (4)
0x0020|00 00 00 00                                    |....            |      maybe_flags: 0 0x20-0x24 (4)
      |                                               |                |      boxes[0:4]: 0x24-0x16c (328)
      |                                               |                |        [0]{}: box 0x24-0x56 (50)
0x0020|            00 00 00 32                        |    ...2        |          size: 50 0x24-0x28 (4)
0x0020|                        68 64 6c 72            |        hdlr    |          type: "hdlr" (Handler, declares the media (handler) type) 0x28-0x2c (4)
0x0020|                                    00         |            .   |          version: 0 0x2c-0x2d (1)
0x0020|                                       00 00 00|             ...|          flags: 0 0x2d-0x30 (3)
0x0030|00 00 00 00                                    |....            |          component_type: "" 0x30-0x34 (4)
0x0030|            70 69 63 74                        |    pict        |          component_subtype: "pict" (Picture) 0x34-0x38 (4)
0x0030|                        00 00 00 00            |        ....    |          component_manufacturer: "" 0x38-0x3c (4)
0x0030|                                    00 00 00 00|            ....|          component_flags: 0 0x3c-0x40 (4)
0x0040|00 00 00 00                                    |....            |          component_flags_mask: 0 0x40-0x44 (4)
0x0040|            47 50 41 43 20 70 69 63 74 20 48 61|    GPAC pict Ha|          component_name: "GPAC pict Handler" 0x44-0x56 (18)
0x0050|6e 64 6c 65 72 00                              |ndler.          |
      |                                               |                |        [1]{}: box 0x56-0x74 (30)
0x0050|                  00 00 00 1e                  |      ....      |          size: 30 0x56-0x5a (4)
0x0050|                              69 6c 6f 63      |          iloc  |          type: "iloc" (Item location) 0x5a-0x5e (4)
0x0050|                                          00   |              . |          version: 0 0x5e-0x5f (1)
0x0050|                                             00|               .|          flags: 0 0x5f-0x62 (3)
0x0060|00 00                                          |..              |
0x0060|      04                                       |  .             |          offset_size: 0 0x62-0x62.4 (0.4)
0x0060|      04                                       |  .             |          length_size: 4 0x62.4-0x63 (0.4)
0x0060|         40                                    |   @            |          base_offset_size: 4 0x63-0x63.4 (0.4)
0x0060|         40                                    |   @            |          reserved: 0 0x63.4-0x64 (0.4)
0x0060|            00 01                              |    ..          |          item_count: 1 0x64-0x66 (2)
      |                                               |                |          items[0:1]: 0x66-0x74 (14)
      |                                               |                |            [0]{}: item 0x66-0x74 (14)
0x0060|                  00 01                        |      ..        |              id: 1 0x66-0x68 (2)
0x0060|                        00 00                  |        ..      |              data_reference_index: 0 0x68-0x6a (2)
0x0060|                              00 00 01 74      |          ...t  |              base_offset: 372 0x6a-0x6e (4)
0x0060|                                          00 01|              ..|              extent_count: 1 0x6e-0x70 (2)
      |                                               |                |              extends[0:1]: 0x70-0x74 (4)
      |                                               |                |                [0]{}: extent 0x70-0x74 (4)
      |                                               |                |                  offset: 0 0x70-0x70 (0)
0x0070|00 00 09 7f                                    |....            |                  length: 2431 0x70-0x74 (4)
      |                                               |                |        [2]{}: box 0x74-0x9c (40)
0x0070|            00 00 00 28                        |    ...(        |          size: 40 0x74-0x78 (4)
0x0070|                        69 69 6e 66            |        iinf    |          type: "iinf" (Item information) 0x78-0x7c (4)
0x0070|                                    00         |            .   |          version: 0 0x7c-0x7d (1)
0x0070|                                       00 00 00|             ...|          flags: 0 0x7d-0x80 (3)
0x0080|00 01                                          |..              |          entry_count: 1 0x80-0x82 (2)
      |                                               |                |          boxes[0:1]: 0x82-0x9c (26)
      |                                               |                |            [0]{}: box 0x82-0x9c (26)
0x0080|      00 00 00 1a                              |  ....          |              size: 26 0x82-0x86 (4)
0x0080|                  69 6e 66 65                  |      infe      |              type: "infe" (Item information entry) 0x86-0x8a (4)
0x0080|                              02               |          .     |              version: 2 0x8a-0x8b (1)
0x0080|                                 00 00 00      |           ...  |              flags: 0 0x8b-0x8e (3)
0x0080|                                          00 01|              ..|              item_id: 1 0x8e-0x90 (2)
0x0090|00 00                                          |..              |              item_protection_index: 0 0x90-0x92 (2)
0x0090|      68 76 63 31                              |  hvc1          |              item_type: "hvc1" 0x92-0x96 (4)
0x0090|                  49 6d 61 67 65 00            |      Image.    |              item_name: "Image" 0x96-0x9c (6)
      |                                               |                |        [3]{}: box 0x9c-0x16c (208)
0x0090|                                    00 00 00 d0|            ....|          size: 208 0x9c-0xa0 (4)
0x00a0|69 70 72 70                                    |iprp            |          type: "iprp" (Item Properties Box) 0xa0-0xa4 (4)
      |                                               |                |          boxes[0:2]: 0xa4-0x16c (200)
      |                                               |                |            [0]{}: box 0xa4-0x155 (177)
0x00a0|            00 00 00 b1                        |    ....        |              size: 177 0xa4-0xa8 (4)
0x00a0|                        69 70 63 6f            |        ipco    |              type: "ipco" (ItemPropertyContainerBox) 0xa8-0xac (4)
      |                                               |                |              boxes[0:4]: 0xac-0x155 (169)
      |                                               |                |                [0]{}: box 0xac-0xc0 (20)
0x00a0|                                    00 00 00 14|            ....|                  size: 20 0xac-0xb0 (4)
0x00b0|69 73 70 65                                    |ispe            |                  type: "ispe" (Image spatial extents) 0xb0-0xb4 (4)
0x00b0|            00                                 |    .           |                  version: 0 0xb4-0xb5 (1)
0x00b0|               00 00 00                        |     ...        |                  flags: 0 0xb5-0xb8 (3)
0x00b0|                        00 00 00 10            |        ....    |                  image_width: 16 0xb8-0xbc (4)
0x00b0|                                    00 00 00 10|            ....|                  image_height: 16 0xbc-0xc0 (4)
      |                                               |                |                [1]{}: box 0xc0-0xd0 (16)
0x00c0|00 00 00 10                                    |....            |                  size: 16 0xc0-0xc4 (4)
0x00c0|            70 61 73 70                        |    pasp        |                  type: "pasp" (Pixel aspect ratio) 0xc4-0xc8 (4)
0x00c0|                        00 00 00 01            |        ....    |                  h_spacing: 1 0xc8-0xcc (4)
0x00c0|                                    00 00 00 01|            ....|                  v_spacing: 1 0xcc-0xd0 (4)
      |                                               |                |                [2]{}: box 0xd0-0x145 (117)
0x00d0|00 00 00 75                                    |...u            |                  size: 117 0xd0-0xd4 (4)
0x00d0|            68 76 63 43                        |    hvcC        |                  type: "hvcC" 0xd4-0xd8 (4)
      |00 01 02 03 04 05 06 07 08 09 0a 0b 0c 0d 0e 0f|0123456789abcdef|                  descriptor{}: (hevc_dcr) 0xd8-0x145 (109)
0x00d0|                        01                     |        .       |                    configuration_version: 1 0xd8-0xd9 (1)
0x00d0|                           01                  |         .      |                    general_profile_space: 0 0xd9-0xd9.2 (0.2)
0x00d0|                           01                  |         .      |                    general_tier_flag: 0 0xd9.2-0xd9.3 (0.1)
0x00d0|                           01                  |         .      |                    general_profile_idc: 1 0xd9.3-0xda (0.5)
0x00d0|                              60 00 00 00      |          `...  |                    general_profile_compatibility_flags: 1610612736 0xda-0xde (4)
0x00d0|                                          90 00|              ..|                    general_constraint_indicator_flags: 158329674399744 0xde-0xe4 (6)
0x00e0|00 00 00 00                                    |....            |
0x00e0|            1e                                 |    .           |                    general_level_idc: 30 0xe4-0xe5 (1)
0x00e0|               f0                              |     .          |                    reserved0: 15 0xe5-0xe5.4 (0.4)
0x00e0|               f0 00                           |     ..         |                    min_spatial_segmentation_idc: 0 0xe5.4-0xe7 (1.4)
0x00e0|                     fd                        |       .        |                    reserved1: 63 0xe7-0xe7.6 (0.6)
0x00e0|                     fd                        |       .        |                    parallelism_type: 1 0xe7.6-0xe8 (0.2)
0x00e0|                        fd                     |        .       |                    reserved2: 63 0xe8-0xe8.6 (0.6)
0x00e0|                        fd                     |        .       |                    chroma_format_idc: 1 0xe8.6-0xe9 (0.2)
0x00e0|                           f8                  |         .      |                    reserved3: 31 0xe9-0xe9.5 (0.5)
0x00e0|                           f8                  |         .      |                    bit_depth_luma: 8 0xe9.5-0xea (0.3)
0x00e0|                              f8               |          .     |                    reserved4: 31 0xea-0xea.5 (0.5)
0x00e0|                              f8               |          .     |                    bit_depth_chroma: 8 0xea.5-0xeb (0.3)
0x00e0|                                 00 00         |           ..   |                    avg_frame_rate: 0 0xeb-0xed (2)
0x00e0|                                       0f      |             .  |                    constant_frame_rate: 0 0xed-0xed.2 (0.2)
0x00e0|                                       0f      |             .  |                    num_temporal_layers: 1 0xed.2-0xed.5 (0.3)
0x00e0|                                       0f      |             .  |                    temporal_id_nested: 1 0xed.5-0xed.6 (0.1)
0x00e0|                                       0f      |             .  |                    length_size: 4 0xed.6-0xee (0.2)
0x00e0|                                          03   |              . |                    num_of_arrays: 3 0xee-0xef (1)
      |                                               |                |                    arrays[0:3]: 0xef-0x145 (86)
      |                                               |                |                      [0]{}: array 0xef-0x10d (30)
0x00e0|                                             a0|               .|                        array_completeness: 1 0xef-0xef.1 (0.1)
0x00e0|                                             a0|               .|                        reserved0: 0 0xef.1-0xef.2 (0.1)
0x00e0|                                             a0|               .|                        nal_unit_type: "VPS_NUT" (32) 0xef.2-0xf0 (0.6)
0x00f0|00 01                                          |..              |                        num_nalus: 1 0xf0-0xf2 (2)
      |                                               |                |                        nals[0:1]: 0xf2-0x10d (27)
      |                                               |                |                          [0]{}: nal 0xf2-0x10d (27)
0x00f0|      00 19                                    |  ..            |                            nal_unit_length: 25 0xf2-0xf4 (2)
      |00 01 02 03 04 05 06 07 08 09 0a 0b 0c 0d 0e 0f|0123456789abcdef|                            nal{}: (hevc_nalu) 0xf4-0x10d (25)
      |00 01 02 03 04 05 06 07 08 09 0a 0b 0c 0d 0e 0f|0123456789abcdef|                              vps{}: (hevc_vps) 0x0-0x14 (20)
  0x00|0c                                             |.               |                                vps_video_parameter_set_id: 0 0x0-0x0.4 (0.4)
  0x00|0c                                             |.               |                                vps_base_layer_internal_flag: true 0x0.4-0x0.5 (0.1)
  0x00|0c                                             |.               |                                vps_base_layer_available_flag: true 0x0.5-0x0.6 (0.1)
  0x00|0c 01                                          |..              |                                vps_max_layers_minus1: 0 0x0.6-0x1.4 (0.6)
  0x00|   01                                          | .              |                                vps_max_sub_layers_minus1: 0 0x1.4-0x1.7 (0.3)
  0x00|   01                                          | .              |                                vps_temporal_id_nesting_flag: true 0x1.7-0x2 (0.1)
  0x00|      ff ff                                    |  ..            |                                vps_reserved_0xffff_16bits: 65535 0x2-0x4 (2)
  0x00|            01                                 |    .           |                                general_profile_space: 0 0x4-0x4.2 (0.2)
  0x00|            01                                 |    .           |                                general_tier_flag: 0 0x4.2-0x4.3 (0.1)
  0x00|            01                                 |    .           |                                general_profile_idc: 1 0x4.3-0x5 (0.5)
      |                                               |                |                                general_profile_compatibility_flags[0:32]: 0x5-0x9 (4)
  0x00|               60                              |     `          |                                  [0]: false general_profile_compatibility_flag 0x5-0x5.1 (0.1)
  0x00|               60                              |     `          |                                  [1]: true general_profile_compatibility_flag 0x5.1-0x5.2 (0.1)
  0x00|               60                              |     `          |                                  [2]: true general_profile_compatibility_flag 0x5.2-0x5.3 (0.1)
  0x00|               60                              |     `          |                                  [3]: false general_profile_compatibility_flag 0x5.3-0x5.4 (0.1)
  0x00|               60                              |     `          |                                  [4]: false general_profile_compatibility_flag 0x5.4-0x5.5 (0.1)
  0x00|               60                              |     `          |                                  [5]: false general_profile_compatibility_flag 0x5.5-0x5.6 (0.1)
  0x00|               60                              |     `          |                                  [6]: false general_profile_compatibility_flag 0x5.6-0x5.7 (0.1)
  0x00|               60                              |     `          |                                  [7]: false general_profile_compatibility_flag 0x5.7-0x6 (0.1)
  0x00|                  00                           |      .         |                                  [8]: false general_profile_compatibility_flag 0x6-0x6.1 (0.1)
  0x00|                  00                           |      .         |                                  [9]: false general_profile_compatibility_flag 0x6.1-0x6.2 (0.1)
  0x00|                  00                           |      .         |                                  [10]: false general_profile_compatibility_flag 0x6.2-0x6.3 (0.1)
  0x00|                  00                           |      .         |                                  [11]: false general_profile_compatibility_flag 0x6.3-0x6.4 (0.1)
  0x00|                  00                           |      .         |                                  [12]: false general_profile_compatibility_flag 0x6.4-0x6.5 (0.1)
  0x00|                  00                           |      .         |                                  [13]: false general_profile_compatibility_flag 0x6.5-0x6.6 (0.1)
  0x00|                  00                           |      .         |                                  [14]: false general_profile_compatibility_flag 0x6.6-0x6.7 (0.1)
  0x00|                  00                           |      .         |                                  [15]: false general_profile_compatibility_flag 0x6.7-0x7 (0.1)
  0x00|                     00                        |       .        |                                  [16]: false general_profile_compatibility_flag 0x7-0x7.1 (0.1)
  0x00|                     00                        |       .        |                                  [17]: false general_profile_compatibility_flag 0x7.1-0x7.2 (0.1)
  0x00|                     00                        |       .        |                                  [18]: false general_profile_compatibility_flag 0x7.2-0x7.3 (0.1)
  0x00|                     00                        |       .        |                                  [19]: false general_profile_compatibility_flag 0x7.3-0x7.4 (0.1)
  0x00|                     00                        |       .        |                                  [20]: false general_profile_compatibility_flag 0x7.4-0x7.5 (0.1)
  0x00|                     00                        |       .        |                                  [21]: false general_profile_compatibility_flag 0x7.5-0x7.6 (0.1)
  0x00|                     00                        |       .        |                                  [22]: false general_profile_compatibility_flag 0x7.6-0x7.7 (0.1)
  0x00|                     00                        |       .        |                                  [23]: false general_profile_compatibility_flag 0x7.7-0x8 (0.1)
  0x00|                        00                     |        .       |                                  [24]: false general_profile_compatibility_flag 0x8-0x8.1 (0.1)
  0x00|                        00                     |        .       |                                  [25]: false general_profile_compatibility_flag 0x8.1-0x8.2 (0.1)
  0x00|                        00                     |        .       |                                  [26]: false general_profile_compatibility_flag 0x8.2-0x8.3 (0.1)
  0x00|                        00                     |        .       |                                  [27]: false general_profile_compatibility_flag 0x8.3-0x8.4 (0.1)
  0x00|                        00                     |        .       |                                  [28]: false general_profile_compatibility_flag 0x8.4-0x8.5 (0.1)
  0x00|                        00                     |        .       |                                  [29]: false general_profile_compatibility_flag 0x8.5-0x8.6 (0.1)
  0x00|                        00                     |        .       |                                  [30]: false general_profile_compatibility_flag 0x8.6-0x8.7 (0.1)
  0x00|                        00                     |        .       |                                  [31]: false general_profile_compatibility_flag 0x8.7-0x9 (0.1)
  0x00|                           90                  |         .      |                                general_progressive_source_flag: true 0x9-0x9.1 (0.1)
  0x00|                           90                  |         .      |                                general_interlaced_source_flag: false 0x9.1-0x9.2 (0.1)
  0x00|                           90                  |         .      |                                general_non_packed_constraint_flag: false 0x9.2-0x9.3 (0.1)
  0x00|                           90                  |         .      |                                general_frame_only_constraint_flag: true 0x9.3-0x9.4 (0.1)
  0x00|                           90 00 00 00 00 00   |         ...... |                                general_reserved_zero_43bits: 0 0x9.4-0xe.7 (5.3)
  0x00|                                          00   |              . |                                general_inbld_flag: false 0xe.7-0xf (0.1)
  0x00|                                             1e|               .|                                general_level_idc: 30 0xf-0x10 (1)
      |                                               |                |                                sub_layer_presents[0:0]: 0x10-0x10 (0)
      |                                               |                |                                sub_layers[0:0]: 0x10-0x10 (0)
  0x01|99                                             |.               |                                vps_sub_layer_ordering_info_present_flag: true 0x10-0x10.1 (0.1)
      |                                               |                |                                vps_sub_layer_ordering_infos[0:1]: 0x10.1-0x12 (1.7)
      |                                               |                |                                  [0]{}: sps_sub_layer_ordering_info 0x10.1-0x12 (1.7)
  0x01|99                                             |.               |                                    sps_max_dec_pic_buffering_minus1: 5 0x10.1-0x10.6 (0.5)
  0x01|99 8a                                          |..              |                                    sps_max_num_reorder_pics: 2 0x10.6-0x11.1 (0.3)
  0x01|   8a                                          | .              |                                    sps_max_latency_increase_plus1: 9 0x11.1-0x12 (0.7)
  0x01|      02                                       |  .             |                                vps_max_layer_id: 0 0x12-0x12.6 (0.6)
  0x01|      02                                       |  .             |                                vps_num_layer_sets_minus1: 0 0x12.6-0x12.7 (0.1)
      |                                               |                |                                layer_id_included_sets_flags[0:1]: 0x12.7-0x13 (0.1)
      |                                               |                |                                  [0][0:1]: layer_id_included_sets_flags 0x12.7-0x13 (0.1)
  0x01|      02                                       |  .             |                                    [0]: false layer_id_included_flag_sets_flag 0x12.7-0x13 (0.1)
  0x01|         40|                                   |   @|           |                                vps_timing_info_present_flag: false 0x13-0x13.1 (0.1)
  0x01|         40|                                   |   @|           |                                gap0: raw bits 0x13.1-0x14 (0.7)
0x00f0|            40                                 |    @           |                              forbidden_zero_bit: false 0xf4-0xf4.1 (0.1)
0x00f0|            40                                 |    @           |                              nal_unit_type: "VPS_NUT" (32) 0xf4.1-0xf4.7 (0.6)
0x00f0|            40 01                              |    @.          |                              nuh_layer_id: 0 0xf4.7-0xf5.5 (0.6)
0x00f0|               01                              |     .          |                              nuh_temporal_id_plus1: 1 0xf5.5-0xf6 (0.3)
0x00f0|                  0c 01 ff ff 01 60 00 00 03 00|      .....`....|                              data: raw bits 0xf6-0x10d (23)
0x0100|90 00 00 03 00 00 03 00 1e 99 8a 02 40         |............@   |
      |                                               |                |                      [1]{}: array 0x10d-0x13a (45)
0x0100|                                       a1      |             .  |                        array_completeness: 1 0x10d-0x10d.1 (0.1)
0x0100|                                       a1      |             .  |                        reserved0: 0 0x10d.1-0x10d.2 (0.1)
0x0100|                                       a1      |             .  |                        nal_unit_type: "SPS_NUT" (33) 0x10d.2-0x10e (0.6)
0x0100|                                          00 01|              ..|                        num_nalus: 1 0x10e-0x110 (2)
      |                                               |                |                        nals[0:1]: 0x110-0x13a (42)
      |                                               |                |                          [0]{}: nal 0x110-0x13a (42)
0x0110|00 28                                          |.(              |                            nal_unit_length: 40 0x110-0x112 (2)
      |00 01 02 03 04 05 06 07 08 09 0a 0b 0c 0d 0e 0f|0123456789abcdef|                            nal{}: (hevc_nalu) 0x112-0x13a (40)
      |00 01 02 03 04 05 06 07 08 09 0a 0b 0c 0d 0e 0f|0123456789abcdef|                              sps{}: (hevc_sps) 0x0-0x21 (33)
  0x00|01                                             |.               |                                sps_video_parameter_set_id: 0 0x0-0x0.4 (0.4)
  0x00|01                                             |.               |                                sps_max_sub_layers_minus1: 0 0x0.4-0x0.7 (0.3)
  0x00|01                                             |.               |                                sps_temporal_id_nesting_flag: true 0x0.7-0x1 (0.1)
  0x00|   01                                          | .              |                                general_profile_space: 0 0x1-0x1.2 (0.2)
  0x00|   01                                          | .              |                                general_tier_flag: 0 0x1.2-0x1.3 (0.1)
  0x00|   01                                          | .              |                                general_profile_idc: 1 0x1.3-0x2 (0.5)
      |                                               |                |                                general_profile_compatibility_flags[0:32]: 0x2-0x6 (4)
  0x00|      60                                       |  `             |                                  [0]: false general_profile_compatibility_flag 0x2-0x2.1 (0.1)
  0x00|      60                                       |  `             |                                  [1]: true general_profile_compatibility_flag 0x2.1-0x2.2 (0.1)
  0x00|      60                                       |  `             |                                  [2]: true general_profile_compatibility_flag 0x2.2-0x2.3 (0.1)
  0x00|      60                                       |  `             |                                  [3]: false general_profile_compatibility_flag 0x2.3-0x2.4 (0.1)
  0x00|      60                                       |  `             |                                  [4]: false general_profile_compatibility_flag 0x2.4-0x2.5 (0.1)
  0x00|      60                                       |  `             |                                  [5]: false general_profile_compatibility_flag 0x2.5-0x2.6 (0.1)
  0x00|      60                                       |  `             |                                  [6]: false general_profile_compatibility_flag 0x2.6-0x2.7 (0.1)
  0x00|      60                                       |  `             |                                  [7]: false general_profile_compatibility_flag 0x2.7-0x3 (0.1)
  0x00|         00                                    |   .            |                                  [8]: false general_profile_compatibility_flag 0x3-0x3.1 (0.1)
  0x00|         00                                    |   .            |                                  [9]: false general_profile_compatibility_flag 0x3.1-0x3.2 (0.1)
  0x00|         00                                    |   .            |                                  [10]: false general_profile_compatibility_flag 0x3.2-0x3.3 (0.1)
  0x00|         00                                    |   .            |                                  [11]: false general_profile_compatibility_flag 0x3.3-0x3.4 (0.1)
  0x00|         00                                    |   .            |                                  [12]: false general_profile_compatibility_flag 0x3.4-0x3.5 (0.1)
  0x00|         00                                    |   .            |                                  [13]: false general_profile_compatibility_flag 0x3.5-0x3.6 (0.1)
  0x00|         00                                    |   .            |                                  [14]: false general_profile_compatibility_flag 0x3.6-0x3.7 (0.1)
  0x00|         00                                    |   .            |                                  [15]: false general_profile_compatibility_flag 0x3.7-0x4 (0.1)
  0x00|            00                                 |    .           |                                  [16]: false general_profile_compatibility_flag 0x4-0x4.1 (0.1)
  0x00|            00                                 |    .           |                                  [17]: false general_profile_compatibility_flag 0x4.1-0x4.2 (0.1)
  0x00|            00                                 |    .           |                                  [18]: false general_profile_compatibility_flag 0x4.2-0x4.3 (0.1)
  0x00|            00                                 |    .           |                                  [19]: false general_profile_compatibility_flag 0x4.3-0x4.4 (0.1)
  0x00|            00                                 |    .           |                                  [20]: false general_profile_compatibility_flag 0x4.4-0x4.5 (0.1)
  0x00|            00                                 |    .           |                                  [21]: false general_profile_compatibility_flag 0x4.5-0x4.6 (0.1)
  0x00|            00                                 |    .           |                                  [22]: false general_profile_compatibility_flag 0x4.6-0x4.7 (0.1)
  0x00|            00                                 |    .           |                                  [23]: false general_profile_compatibility_flag 0x4.7-0x5 (0.1)
  0x00|               00                              |     .          |                                  [24]: false general_profile_compatibility_flag 0x5-0x5.1 (0.1)
  0x00|               00                              |     .          |                                  [25]: false general_profile_compatibility_flag 0x5.1-0x5.2 (0.1)
  0x00|               00                              |     .          |                                  [26]: false general_profile_compatibility_flag 0x5.2-0x5.3 (0.1)
  0x00|               00                              |     .          |                                  [27]: false general_profile_compatibility_flag 0x5.3-0x5.4 (0.1)
  0x00|               00                              |     .          |                                  [28]: false general_profile_compatibility_flag 0x5.4-0x5.5 (0.1)
  0x00|               00                              |     .          |                                  [29]: false general_profile_compatibility_flag 0x5.5-0x5.6 (0.1)
  0x00|               00                              |     .          |                                  [30]: false general_profile_compatibility_flag 0x5.6-0x5.7 (0.1)
  0x00|               00                              |     .          |                                  [31]: false general_profile_compatibility_flag 0x5.7-0x6 (0.1)
  0x00|                  90                           |      .         |                                general_progressive_source_flag: true 0x6-0x6.1 (0.1)
  0x00|                  90                           |      .         |                                general_interlaced_source_flag: false 0x6.1-0x6.2 (0.1)
  0x00|                  90                           |      .         |                                general_non_packed_constraint_flag: false 0x6.2-0x6.3 (0.1)
  0x00|                  90                           |      .         |                                general_frame_only_constraint_flag: true 0x6.3-0x6.4 (0.1)
  0x00|                  90 00 00 00 00 00            |      ......    |                                general_reserved_zero_43bits: 0 0x6.4-0xb.7 (5.3)
  0x00|                                 00            |           .    |                                general_inbld_flag: false 0xb.7-0xc (0.1)
  0x00|                                    1e         |            .   |                                general_level_idc: 30 0xc-0xd (1)
      |                                               |                |                                sub_layer_presents[0:0]: 0xd-0xd (0)
      |                                               |                |                                sub_layers[0:0]: 0xd-0xd (0)
  0x00|                                       a0      |             .  |                                sps_seq_parameter_set_id: 0 0xd-0xd.1 (0.1)
  0x00|                                       a0      |             .  |                                chroma_format_idc: "4:2:0" (1) 0xd.1-0xd.4 (0.3)
  0x00|                                       a0 88   |             .. |                                pic_width_in_luma_samples: 16 0xd.4-0xe.5 (1.1)
  0x00|                                          88 45|              .E|                                pic_height_in_luma_samples: 16 0xe.5-0xf.6 (1.1)
  0x00|                                             45|               E|                                conformance_window_flag: false 0xf.6-0xf.7 (0.1)
  0x00|                                             45|               E|                                bit_depth_luma_minus8: 0 0xf.7-0x10 (0.1)
  0x01|96                                             |.               |                                bit_depth_chroma_minus8: 0 0x10-0x10.1 (0.1)
  0x01|96                                             |.               |                                log2_max_pic_order_cnt_lsb_minus4: 4 0x10.1-0x10.6 (0.5)
  0x01|96                                             |.               |                                sps_sub_layer_ordering_info_present_flag: true 0x10.6-0x10.7 (0.1)
      |                                               |                |                                sps_sub_layer_ordering_infos[0:1]: 0x10.7-0x12.6 (1.7)
      |                                               |                |                                  [0]{}: sps_sub_layer_ordering_info 0x10.7-0x12.6 (1.7)
  0x01|96 66                                          |.f              |                                    sps_max_dec_pic_buffering_minus1: 5 0x10.7-0x11.4 (0.5)
  0x01|   66                                          | f              |                                    sps_max_num_reorder_pics: 2 0x11.4-0x11.7 (0.3)
  0x01|   66 2a                                       | f*             |                                    sps_max_latency_increase_plus1: 9 0x11.7-0x12.6 (0.7)
  0x01|      2a                                       |  *             |                                log2_min_luma_coding_block_size_minus3: 0 0x12.6-0x12.7 (0.1)
  0x01|      2a ad                                    |  *.            |                                log2_diff_max_min_luma_coding_block_size: 1 0x12.7-0x13.2 (0.3)
  0x01|         ad                                    |   .            |                                log2_min_luma_transform_block_size_minus2: 0 0x13.2-0x13.3 (0.1)
  0x01|         ad                                    |   .            |                                log2_diff_max_min_luma_transform_block_size: 2 0x13.3-0x13.6 (0.3)
  0x01|         ad b6                                 |   ..           |                                max_transform_hierarchy_depth_inter: 2 0x13.6-0x14.1 (0.3)
  0x01|            b6                                 |    .           |                                max_transform_hierarchy_depth_intra: 2 0x14.1-0x14.4 (0.3)
  0x01|            b6                                 |    .           |                                scaling_list_enabled_flag: false 0x14.4-0x14.5 (0.1)
  0x01|            b6                                 |    .           |                                amp_enabled_flag: true 0x14.5-0x14.6 (0.1)
  0x01|            b6                                 |    .           |                                sample_adaptive_offset_enabled_flag: true 0x14.6-0x14.7 (0.1)
  0x01|            b6                                 |    .           |                                pcm_enabled_flag: false 0x14.7-0x15 (0.1)
  0x01|               bc                              |     .          |                                num_short_term_ref_pic_sets: 0 0x15-0x15.1 (0.1)
  0x01|               bc                              |     .          |                                long_term_ref_pics_present_flag: false 0x15.1-0x15.2 (0.1)
  0x01|               bc                              |     .          |                                sps_temporal_mvp_enabled_flag: true 0x15.2-0x15.3 (0.1)
  0x01|               bc                              |     .          |                                strong_intra_smoothing_enabled_flag: true 0x15.3-0x15.4 (0.1)
  0x01|               bc                              |     .          |                                vui_parameters_present_flag: true 0x15.4-0x15.5 (0.1)
      |                                               |                |                                vui_parameters{}: 0x15.5-0x20.6 (11.1)
  0x01|               bc                              |     .          |                                  aspect_ratio_info_present_flag: true 0x15.5-0x15.6 (0.1)
  0x01|               bc 05                           |     ..         |                                  aspect_ratio_idc: "1:1" (1) 0x15.6-0x16.6 (1)
  0x01|                  05                           |      .         |                                  overscan_info_present_flag: false 0x16.6-0x16.7 (0.1)
  0x01|                  05                           |      .         |                                  video_signal_type_present_flag: true 0x16.7-0x17 (0.1)
  0x01|                     a0                        |       .        |                                  video_format: "unspecified" (5) 0x17-0x17.3 (0.3)
  0x01|                     a0                        |       .        |                                  video_full_range_flag: false 0x17.3-0x17.4 (0.1)
  0x01|                     a0                        |       .        |                                  colour_description_present_flag: false 0x17.4-0x17.5 (0.1)
  0x01|                     a0                        |       .        |                                  chroma_loc_info_present_flag: false 0x17.5-0x17.6 (0.1)
  0x01|                     a0                        |       .        |                                  neutral_chroma_indication_flag: false 0x17.6-0x17.7 (0.1)
  0x01|                     a0                        |       .        |                                  field_seq_flag: false 0x17.7-0x18 (0.1)
  0x01|                        20                     |                |                                  frame_field_info_present_flag: false 0x18-0x18.1 (0.1)
  0x01|                        20                     |                |                                  default_display_window_flag: false 0x18.1-0x18.2 (0.1)
  0x01|                        20                     |                |                                  vui_timing_info_present_flag: true 0x18.2-0x18.3 (0.1)
  0x01|                        20 00 00 00 20         |         ...    |                                  vui_num_units_in_tick: 1 0x18.3-0x1c.3 (4)
  0x01|                                    20 00 00 00|             ...|                                  vui_time_scale: 1 0x1c.3-0x20.3 (4)
  0x02|21|                                            |!|              |
  0x02|21|                                            |!|              |                                  vui_poc_proportional_to_timing_flag: false 0x20.3-0x20.4 (0.1)
  0x02|21|                                            |!|              |                                  vui_hrd_parameters_present_flag: false 0x20.4-0x20.5 (0.1)
  0x02|21|                                            |!|              |                                  bitstream_restriction_flag: false 0x20.5-0x20.6 (0.1)
  0x02|21|                                            |!|              |                                sps_extension_present_flag: false 0x20.6-0x20.7 (0.1)
  0x02|21|                                            |!|              |                                gap0: raw bits 0x20.7-0x21 (0.1)
0x0110|      42                                       |  B             |                              forbidden_zero_bit: false 0x112-0x112.1 (0.1)
0x0110|      42                                       |  B             |                              nal_unit_type: "SPS_NUT" (33) 0x112.1-0x112.7 (0.6)
0x0110|      42 01                                    |  B.            |                              nuh_layer_id: 0 0x112.7-0x113.5 (0.6)
0x0110|         01                                    |   .            |                              nuh_temporal_id_plus1: 1 0x113.5-0x114 (0.3)
0x0110|            01 01 60 00 00 03 00 90 00 00 03 00|    ..`.........|                              data: raw bits 0x114-0x13a (38)
0x0120|00 03 00 1e a0 88 45 96 66 2a ad b6 bc 05 a0 20|......E.f*..... |
0x0130|00 00 03 00 20 00 00 03 00 21                  |.... ....!      |
      |                                               |                |                      [2]{}: array 0x13a-0x145 (11)
0x0130|                              a2               |          .     |                        array_completeness: 1 0x13a-0x13a.1 (0.1)
0x0130|                              a2               |          .     |                        reserved0: 0 0x13a.1-0x13a.2 (0.1)
0x0130|                              a2               |          .     |                        nal_unit_type: "PPS_NUT" (34) 0x13a.2-0x13b (0.6)
0x0130|                                 00 01         |           ..   |                        num_nalus: 1 0x13b-0x13d (2)
      |                                               |                |                        nals[0:1]: 0x13d-0x145 (8)
      |                                               |                |                          [0]{}: nal 0x13d-0x145 (8)
0x0130|                                       00 06   |             .. |                            nal_unit_length: 6 0x13d-0x13f (2)
      |00 01 02 03 04 05 06 07 08 09 0a 0b 0c 0d 0e 0f|0123456789abcdef|                            nal{}: (hevc_nalu) 0x13f-0x145 (6)
      |00 01 02 03 04 05 06 07 08 09 0a 0b 0c 0d 0e 0f|0123456789abcdef|                              pps{}: (hevc_pps) 0x0-0x4 (4)
  0x00|c1                                             |.               |                                pps_pic_parameter_set_id: 0 0x0-0x0.1 (0.1)
  0x00|c1                                             |.               |                                pps_seq_parameter_set_id: 0 0x0.1-0x0.2 (0.1)
  0x00|c1                                             |.               |                                dependent_slice_segments_enabled_flag: false 0x0.2-0x0.3 (0.1)
  0x00|c1                                             |.               |                                output_flag_present_flag: false 0x0.3-0x0.4 (0.1)
  0x00|c1                                             |.               |                                num_extra_slice_header_bits: 0 0x0.4-0x0.7 (0.3)
  0x00|c1                                             |.               |                                sign_data_hiding_enabled_flag: true 0x0.7-0x1 (0.1)
  0x00|   73                                          | s              |                                cabac_init_present_flag: false 0x1-0x1.1 (0.1)
  0x00|   73                                          | s              |                                num_ref_idx_l0_default_active_minus1: 0 0x1.1-0x1.2 (0.1)
  0x00|   73                                          | s              |                                num_ref_idx_l1_default_active_minus1: 0 0x1.2-0x1.3 (0.1)
  0x00|   73                                          | s              |                                init_qp_minus26: 0 0x1.3-0x1.4 (0.1)
  0x00|   73                                          | s              |                                constrained_intra_pred_flag: false 0x1.4-0x1.5 (0.1)
  0x00|   73                                          | s              |                                transform_skip_enabled_flag: false 0x1.5-0x1.6 (0.1)
  0x00|   73                                          | s              |                                cu_qp_delta_enabled_flag: true 0x1.6-0x1.7 (0.1)
  0x00|   73                                          | s              |                                diff_cu_qp_delta_depth: 0 0x1.7-0x2 (0.1)
  0x00|      d8                                       |  .             |                                pps_cb_qp_offset: 0 0x2-0x2.1 (0.1)
  0x00|      d8                                       |  .             |                                pps_cr_qp_offset: 0 0x2.1-0x2.2 (0.1)
  0x00|      d8                                       |  .             |                                pps_slice_chroma_qp_offsets_present_flag: false 0x2.2-0x2.3 (0.1)
  0x00|      d8                                       |  .             |                                weighted_pred_flag: true 0x2.3-0x2.4 (0.1)
  0x00|      d8                                       |  .             |                                weighted_bipred_flag: true 0x2.4-0x2.5 (0.1)
  0x00|      d8                                       |  .             |                                transquant_bypass_enabled_flag: false 0x2.5-0x2.6 (0.1)
  0x00|      d8                                       |  .             |                                tiles_enabled_flag: false 0x2.6-0x2.7 (0.1)
  0x00|      d8                                       |  .             |                                entropy_coding_sync_enabled_flag: false 0x2.7-0x3 (0.1)
  0x00|         89|                                   |   .|           |                                pps_loop_filter_across_slices_enabled_flag: true 0x3-0x3.1 (0.1)
  0x00|         89|                                   |   .|           |                                deblocking_filter_control_present_flag: false 0x3.1-0x3.2 (0.1)
  0x00|         89|                                   |   .|           |                                pps_scaling_list_data_present_flag: false 0x3.2-0x3.3 (0.1)
  0x00|         89|                                   |   .|           |                                lists_modification_present_flag: false 0x3.3-0x3.4 (0.1)
  0x00|         89|                                   |   .|           |                                log2_parallel_merge_level_minus2: 0 0x3.4-0x3.5 (0.1)
  0x00|         89|                                   |   .|           |                                slice_segment_header_extension_present_flag: false 0x3.5-0x3.6 (0.1)
  0x00|         89|                                   |   .|           |                                pps_extension_present_flag: false 0x3.6-0x3.7 (0.1)
  0x00|         89|                                   |   .|           |                                gap0: raw bits 0x3.7-0x4 (0.1)
0x0130|                                             44|               D|                              forbidden_zero_bit: false 0x13f-0x13f.1 (0.1)
0x0130|                                             44|               D|                              nal_unit_type: "PPS_NUT" (34) 0x13f.1-0x13f.7 (0.6)
0x0130|                                             44|               D|                              nuh_layer_id: 0 0x13f.7-0x140.5 (0.6)
0x0140|01                                             |.               |
0x0140|01                                             |.               |                              nuh_temporal_id_plus1: 1 0x140.5-0x141 (0.3)
0x0140|   c1 73 d8 89                                 | .s..           |                              data: raw bits 0x141-0x145 (4)
      |                                               |                |                [3]{}: box 0x145-0x155 (16)
0x0140|               00 00 00 10                     |     ....       |                  size: 16 0x145-0x149 (4)
0x0140|                           70 69 78 69         |         pixi   |                  type: "pixi" (Pixel information) 0x149-0x14d (4)
0x0140|                                       00 00 00|             ...|                  data: raw bits 0x14d-0x155 (8)
0x0150|00 03 08 08 08                                 |.....           |
      |                                               |                |            [1]{}: box 0x155-0x16c (23)
0x0150|               00 00 00 17                     |     ....       |              size: 23 0x155-0x159 (4)
0x0150|                           69 70 6d 61         |         ipma   |              type: "ipma" (ItemPropertyAssociation) 0x159-0x15d (4)
0x0150|                                       00      |             .  |              version: 0 0x15d-0x15e (1)
0x0150|                                          00 00|              ..|              flags: 0 0x15e-0x161 (3)
0x0160|00                                             |.               |
0x0160|   00 00 00 01                                 | ....           |              entry_count: 1 0x161-0x165 (4)
      |                                               |                |              entries[0:1]: 0x165-0x16c (7)
      |                                               |                |                [0]{}: entry 0x165-0x16c (7)
0x0160|               00 01                           |     ..         |                  item_id: 1 0x165-0x167 (2)
0x0160|                     04                        |       .        |                  association_count: 4 0x167-0x168 (1)
      |                                               |                |                  associations[0:4]: 0x168-0x16c (4)
      |                                               |                |                    [0]{}: association 0x168-0x169 (1)
0x0160|                        01                     |        .       |                      essential: false 0x168-0x168.1 (0.1)
0x0160|                        01                     |        .       |                      item_id: 1 0x168.1-0x169 (0.7)
      |                                               |                |                    [1]{}: association 0x169-0x16a (1)
0x0160|                           02                  |         .      |                      essential: false 0x169-0x169.1 (0.1)
0x0160|                           02                  |         .      |                      item_id: 2 0x169.1-0x16a (0.7)
      |                                               |                |                    [2]{}: association 0x16a-0x16b (1)
0x0160|                              83               |          .     |                      essential: true 0x16a-0x16a.1 (0.1)
0x0160|                              83               |          .     |                      item_id: 3 0x16a.1-0x16b (0.7)
      |                                               |                |                    [3]{}: association 0x16b-0x16c (1)
0x0160|                                 84            |           .    |                      essential: true 0x16b-0x16b.1 (0.1)
0x0160|                                 84            |           .    |                      item_id: 4 0x16b.1-0x16c (0.7)
      |                                               |                |    [2]{}: box 0x16c-0xaf3 (2439)
0x0160|                                    00 00 09 87|            ....|      size: 2439 0x16c-0x170 (4)
0x0170|6d 64 61 74                                    |mdat            |      type: "mdat" (Media data container) 0x170-0x174 (4)
0x0170|            00 00 08 b9 4e 01 05 ff ff ff ff ff|    ....N.......|      data: raw bits 0x174-0xaf3 (2431)
0x0180|ff ff ff b4 2c a2 de 09 b5 17 47 db bb 55 a4 fe|....,.....G..U..|
*     |until 0xaf2.7 (2431)                           |                |
      |                                               |                |    [3]{}: box 0xaf3-0xb2d (58)
0x0af0|         00 00 00 3a                           |   ...:         |      size: 58 0xaf3-0xaf7 (4)
0x0af0|                     66 72 65 65               |       free     |      type: "free" (Free space) 0xaf7-0xafb (4)
0x0af0|                                 49 73 6f 4d 65|           IsoMe|      data: raw bits 0xafb-0xb2d (50)
0x0b00|64 69 61 20 46 69 6c 65 20 50 72 6f 64 75 63 65|dia File Produce|
*     |until 0xb2c.7 (end) (50)                       |                |
