# ffmpeg -f lavfi -i sine -t 1ms -ac 2 -c:a pcm_s24le -f mov in24.mp4
$ fq dv in24.mp4
     |00 01 02 03 04 05 06 07 08 09 0a 0b 0c 0d 0e 0f|0123456789abcdef|.{}: in24.mp4 (mp4) 0x0-0x3ec (1004)
     |                                               |                |  boxes[0:4]: 0x0-0x3ec (1004)
     |                                               |                |    [0]{}: box 0x0-0x14 (20)
0x000|00 00 00 14                                    |....            |      size: 20 0x0-0x4 (4)
0x000|            66 74 79 70                        |    ftyp        |      type: "ftyp" (File type and compatibility) 0x4-0x8 (4)
0x000|                        71 74 20 20            |        qt      |      major_brand: "qt" 0x8-0xc (4)
0x000|                                    00 00 02 00|            ....|      minor_version: 512 (0000.02) 0xc-0x10 (4)
     |                                               |                |      brands[0:1]: 0x10-0x14 (4)
0x010|71 74 20 20                                    |qt              |        [0]: "qt" brand 0x10-0x14 (4)
     |                                               |                |    [1]{}: box 0x14-0x1c (8)
0x010|            00 00 00 08                        |    ....        |      size: 8 0x14-0x18 (4)
0x010|                        77 69 64 65            |        wide    |      type: "wide" (Expansion space reservation) 0x18-0x1c (4)
     |                                               |                |      data: raw bits 0x1c-0x1c (0)
     |                                               |                |    [2]{}: box 0x1c-0x12c (272)
0x010|                                    00 00 01 10|            ....|      size: 272 0x1c-0x20 (4)
0x020|6d 64 61 74                                    |mdat            |      type: "mdat" (Media data container) 0x20-0x24 (4)
0x020|            00 00 00 00 00 00 04 b5 00 04 b5 00|    ............|      data: raw bits 0x24-0x12c (264)
0x030|54 69 01 54 69 01 ef 1c 02 ef 1c 02 6b ce 02 6b|Ti.Ti.......k..k|
*    |until 0x12b.7 (264)                            |                |
     |                                               |                |    [3]{}: box 0x12c-0x3ec (704)
0x120|                                    00 00 02 c0|            ....|      size: 704 0x12c-0x130 (4)
0x130|6d 6f 6f 76                                    |moov            |      type: "moov" (Container for all the meta-data) 0x130-0x134 (4)
     |                                               |                |      boxes[0:3]: 0x134-0x3ec (696)
     |                                               |                |        [0]{}: box 0x134-0x1a0 (108)
0x130|            00 00 00 6c                        |    ...l        |          size: 108 0x134-0x138 (4)
0x130|                        6d 76 68 64            |        mvhd    |          type: "mvhd" (Movie header, overall declarations) 0x138-0x13c (4)
0x130|                                    00         |            .   |          version: 0 0x13c-0x13d (1)
0x130|                                       00 00 00|             ...|          flags: 0 0x13d-0x140 (3)
0x140|00 00 00 00                                    |....            |          creation_time: 0 (1904-01-01T00:00:00Z) 0x140-0x144 (4)
0x140|            00 00 00 00                        |    ....        |          modification_time: 0 (1904-01-01T00:00:00Z) 0x144-0x148 (4)
0x140|                        00 00 03 e8            |        ....    |          time_scale: 1000 0x148-0x14c (4)
0x140|                                    00 00 00 01|            ....|          duration: 1 0x14c-0x150 (4)
0x150|00 01 00 00                                    |....            |          preferred_rate: 1 0x150-0x154 (4)
0x150|            01 00                              |    ..          |          preferred_volume: 1 0x154-0x156 (2)
0x150|                  00 00 00 00 00 00 00 00 00 00|      ..........|          reserved: "\x00\x00\x00\x00\x00\x00\x00\x00\x00\x00" 0x156-0x160 (10)
     |                                               |                |          matrix_structure{}: 0x160-0x184 (36)
0x160|00 01 00 00                                    |....            |            a: 1 0x160-0x164 (4)
0x160|            00 00 00 00                        |    ....        |            b: 0 0x164-0x168 (4)
0x160|                        00 00 00 00            |        ....    |            u: 0 0x168-0x16c (4)
0x160|                                    00 00 00 00|            ....|            c: 0 0x16c-0x170 (4)
0x170|00 01 00 00                                    |....            |            d: 1 0x170-0x174 (4)
0x170|            00 00 00 00                        |    ....        |            v: 0 0x174-0x178 (4)
0x170|                        00 00 00 00            |        ....    |            x: 0 0x178-0x17c (4)
0x170|                                    00 00 00 00|            ....|            y: 0 0x17c-0x180 (4)
0x180|40 00 00 00                                    |@...            |            w: 1 0x180-0x184 (4)
0x180|            00 00 00 00                        |    ....        |          preview_time: 0 0x184-0x188 (4)
0x180|                        00 00 00 00            |        ....    |          preview_duration: 0 0x188-0x18c (4)
0x180|                                    00 00 00 00|            ....|          poster_time: 0 0x18c-0x190 (4)
0x190|00 00 00 00                                    |....            |          selection_time: 0 0x190-0x194 (4)
0x190|            00 00 00 00                        |    ....        |          selection_duration: 0 0x194-0x198 (4)
0x190|                        00 00 00 00            |        ....    |          current_time: 0 0x198-0x19c (4)
0x190|                                    00 00 00 02|            ....|          next_track_id: 2 0x19c-0x1a0 (4)
     |                                               |                |        [1]{}: box 0x1a0-0x3cb (555)
0x1a0|00 00 02 2b                                    |...+            |          size: 555 0x1a0-0x1a4 (4)
0x1a0|            74 72 61 6b                        |    trak        |          type: "trak" (Container for an individual track or stream) 0x1a4-0x1a8 (4)
     |                                               |                |          boxes[0:3]: 0x1a8-0x3cb (547)
     |                                               |                |            [0]{}: box 0x1a8-0x204 (92)
0x1a0|                        00 00 00 5c            |        ...\    |              size: 92 0x1a8-0x1ac (4)
0x1a0|                                    74 6b 68 64|            tkhd|              type: "tkhd" (Track header, overall information about the track) 0x1ac-0x1b0 (4)
0x1b0|00                                             |.               |              version: 0 0x1b0-0x1b1 (1)
     |                                               |                |              flags{}: 0x1b1-0x1b4 (3)
0x1b0|   00 00 03                                    | ...            |                unused: 0 0x1b1-0x1b3.4 (2.4)
0x1b0|         03                                    |   .            |                size_is_aspect_ratio: false 0x1b3.4-0x1b3.5 (0.1)
0x1b0|         03                                    |   .            |                in_preview: false 0x1b3.5-0x1b3.6 (0.1)
0x1b0|         03                                    |   .            |                in_movie: true 0x1b3.6-0x1b3.7 (0.1)
0x1b0|         03                                    |   .            |                enabled: true 0x1b3.7-0x1b4 (0.1)
0x1b0|            00 00 00 00                        |    ....        |              creation_time: 0 (1904-01-01T00:00:00Z) 0x1b4-0x1b8 (4)
0x1b0|                        00 00 00 00            |        ....    |              modification_time: 0 (1904-01-01T00:00:00Z) 0x1b8-0x1bc (4)
0x1b0|                                    00 00 00 01|            ....|              track_id: 1 0x1bc-0x1c0 (4)
0x1c0|00 00 00 00                                    |....            |              reserved1: 0 0x1c0-0x1c4 (4)
0x1c0|            00 00 00 01                        |    ....        |              duration: 1 0x1c4-0x1c8 (4)
0x1c0|                        00 00 00 00 00 00 00 00|        ........|              reserved2: raw bits 0x1c8-0x1d0 (8)
0x1d0|00 00                                          |..              |              layer: 0 0x1d0-0x1d2 (2)
0x1d0|      00 01                                    |  ..            |              alternate_group: 1 0x1d2-0x1d4 (2)
0x1d0|            01 00                              |    ..          |              volume: 1 0x1d4-0x1d6 (2)
0x1d0|                  00 00                        |      ..        |              reserved3: 0 0x1d6-0x1d8 (2)
     |                                               |                |              matrix_structure{}: 0x1d8-0x1fc (36)
0x1d0|                        00 01 00 00            |        ....    |                a: 1 0x1d8-0x1dc (4)
0x1d0|                                    00 00 00 00|            ....|                b: 0 0x1dc-0x1e0 (4)
0x1e0|00 00 00 00                                    |....            |                u: 0 0x1e0-0x1e4 (4)
0x1e0|            00 00 00 00                        |    ....        |                c: 0 0x1e4-0x1e8 (4)
0x1e0|                        00 01 00 00            |        ....    |                d: 1 0x1e8-0x1ec (4)
0x1e0|                                    00 00 00 00|            ....|                v: 0 0x1ec-0x1f0 (4)
0x1f0|00 00 00 00                                    |....            |                x: 0 0x1f0-0x1f4 (4)
0x1f0|            00 00 00 00                        |    ....        |                y: 0 0x1f4-0x1f8 (4)
0x1f0|                        40 00 00 00            |        @...    |                w: 1 0x1f8-0x1fc (4)
0x1f0|                                    00 00 00 00|            ....|              track_width: 0 0x1fc-0x200 (4)
0x200|00 00 00 00                                    |....            |              track_height: 0 0x200-0x204 (4)
     |                                               |                |            [1]{}: box 0x204-0x228 (36)
0x200|            00 00 00 24                        |    ...$        |              size: 36 0x204-0x208 (4)
0x200|                        65 64 74 73            |        edts    |              type: "edts" (Edit list container) 0x208-0x20c (4)
     |                                               |                |              boxes[0:1]: 0x20c-0x228 (28)
     |                                               |                |                [0]{}: box 0x20c-0x228 (28)
0x200|                                    00 00 00 1c|            ....|                  size: 28 0x20c-0x210 (4)
0x210|65 6c 73 74                                    |elst            |                  type: "elst" (An edit list) 0x210-0x214 (4)
0x210|            00                                 |    .           |                  version: 0 0x214-0x215 (1)
0x210|               00 00 00                        |     ...        |                  flags: 0 0x215-0x218 (3)
0x210|                        00 00 00 01            |        ....    |                  entry_count: 1 0x218-0x21c (4)
     |                                               |                |                  entries[0:1]: 0x21c-0x228 (12)
     |                                               |                |                    [0]{}: entry 0x21c-0x228 (12)
0x210|                                    00 00 00 01|            ....|                      segment_duration: 1 0x21c-0x220 (4)
0x220|00 00 00 00                                    |....            |                      media_time: 0 0x220-0x224 (4)
0x220|            00 01 00 00                        |    ....        |                      media_rate: 1 0x224-0x228 (4)
     |                                               |                |            [2]{}: box 0x228-0x3cb (419)
0x220|                        00 00 01 a3            |        ....    |              size: 419 0x228-0x22c (4)
0x220|                                    6d 64 69 61|            mdia|              type: "mdia" (Container for the media information in a track) 0x22c-0x230 (4)
     |                                               |                |              boxes[0:3]: 0x230-0x3cb (411)
     |                                               |                |                [0]{}: box 0x230-0x250 (32)
0x230|00 00 00 20                                    |...             |                  size: 32 0x230-0x234 (4)
0x230|            6d 64 68 64                        |    mdhd        |                  type: "mdhd" (Media header, overall information about the media) 0x234-0x238 (4)
0x230|                        00                     |        .       |                  version: 0 0x238-0x239 (1)
0x230|                           00 00 00            |         ...    |                  flags: 0 0x239-0x23c (3)
0x230|                                    00 00 00 00|            ....|                  creation_time: 0 (1904-01-01T00:00:00Z) 0x23c-0x240 (4)
0x240|00 00 00 00                                    |....            |                  modification_time: 0 (1904-01-01T00:00:00Z) 0x240-0x244 (4)
0x240|            00 00 ac 44                        |    ...D        |                  time_scale: 44100 0x244-0x248 (4)
0x240|                        00 00 00 2c            |        ...,    |                  duration: 44 0x248-0x24c (4)
0x240|                                    7f ff      |            ..  |                  language: "\x7f\x7f\x7f" 0x24c-0x24e (2)
0x240|                                          00 00|              ..|                  quality: 0 0x24e-0x250 (2)
     |                                               |                |                [1]{}: box 0x250-0x27d (45)
0x250|00 00 00 2d                                    |...-            |                  size: 45 0x250-0x254 (4)
0x250|            68 64 6c 72                        |    hdlr        |                  type: "hdlr" (Handler, declares the media (handler) type) 0x254-0x258 (4)
0x250|                        00                     |        .       |                  version: 0 0x258-0x259 (1)
0x250|                           00 00 00            |         ...    |                  flags: 0 0x259-0x25c (3)
0x250|                                    6d 68 6c 72|            mhlr|                  component_type: "mhlr" 0x25c-0x260 (4)
0x260|73 6f 75 6e                                    |soun            |                  component_subtype: "soun" (Audio Track) 0x260-0x264 (4)
0x260|            00 00 00 00                        |    ....        |                  component_manufacturer: "" 0x264-0x268 (4)
0x260|                        00 00 00 00            |        ....    |                  component_flags: 0 0x268-0x26c (4)
0x260|                                    00 00 00 00|            ....|                  component_flags_mask: 0 0x26c-0x270 (4)
0x270|0c 53 6f 75 6e 64 48 61 6e 64 6c 65 72         |.SoundHandler   |                  component_name: "SoundHandler" 0x270-0x27d (13)
     |                                               |                |                [2]{}: box 0x27d-0x3cb (334)
0x270|                                       00 00 01|             ...|                  size: 334 0x27d-0x281 (4)
0x280|4e                                             |N               |
0x280|   6d 69 6e 66                                 | minf           |                  type: "minf" (Media information container) 0x281-0x285 (4)
     |                                               |                |                  boxes[0:4]: 0x285-0x3cb (326)
     |                                               |                |                    [0]{}: box 0x285-0x295 (16)
0x280|               00 00 00 10                     |     ....       |                      size: 16 0x285-0x289 (4)
0x280|                           73 6d 68 64         |         smhd   |                      type: "smhd" (Sound media header, overall information (sound track only)) 0x289-0x28d (4)
0x280|                                       00      |             .  |                      version: 0 0x28d-0x28e (1)
0x280|                                          00 00|              ..|                      flags: 0 0x28e-0x291 (3)
0x290|00                                             |.               |
0x290|   00 00                                       | ..             |                      balance: 0 0x291-0x293 (2)
0x290|         00 00                                 |   ..           |                      reserved: 0 0x293-0x295 (2)
     |                                               |                |                    [1]{}: box 0x295-0x2c1 (44)
0x290|               00 00 00 2c                     |     ...,       |                      size: 44 0x295-0x299 (4)
0x290|                           68 64 6c 72         |         hdlr   |                      type: "hdlr" (Handler, declares the media (handler) type) 0x299-0x29d (4)
0x290|                                       00      |             .  |                      version: 0 0x29d-0x29e (1)
0x290|                                          00 00|              ..|                      flags: 0 0x29e-0x2a1 (3)
0x2a0|00                                             |.               |
0x2a0|   64 68 6c 72                                 | dhlr           |                      component_type: "dhlr" 0x2a1-0x2a5 (4)
0x2a0|               75 72 6c 20                     |     url        |                      component_subtype: "url" (URL) 0x2a5-0x2a9 (4)
0x2a0|                           00 00 00 00         |         ....   |                      component_manufacturer: "" 0x2a9-0x2ad (4)
0x2a0|                                       00 00 00|             ...|                      component_flags: 0 0x2ad-0x2b1 (4)
0x2b0|00                                             |.               |
0x2b0|   00 00 00 00                                 | ....           |                      component_flags_mask: 0 0x2b1-0x2b5 (4)
0x2b0|               0b 44 61 74 61 48 61 6e 64 6c 65|     .DataHandle|                      component_name: "DataHandler" 0x2b5-0x2c1 (12)
0x2c0|72                                             |r               |
     |                                               |                |                    [2]{}: box 0x2c1-0x2e5 (36)
0x2c0|   00 00 00 24                                 | ...$           |                      size: 36 0x2c1-0x2c5 (4)
0x2c0|               64 69 6e 66                     |     dinf       |                      type: "dinf" (Data information box, container) 0x2c5-0x2c9 (4)
     |                                               |                |                      boxes[0:1]: 0x2c9-0x2e5 (28)
     |                                               |                |                        [0]{}: box 0x2c9-0x2e5 (28)
0x2c0|                           00 00 00 1c         |         ....   |                          size: 28 0x2c9-0x2cd (4)
0x2c0|                                       64 72 65|             dre|                          type: "dref" (Data reference box, declares source(s) of media data in track) 0x2cd-0x2d1 (4)
0x2d0|66                                             |f               |
0x2d0|   00                                          | .              |                          version: 0 0x2d1-0x2d2 (1)
0x2d0|      00 00 00                                 |  ...           |                          flags: 0 0x2d2-0x2d5 (3)
0x2d0|               00 00 00 01                     |     ....       |                          entry_count: 1 0x2d5-0x2d9 (4)
     |                                               |                |                          boxes[0:1]: 0x2d9-0x2e5 (12)
     |                                               |                |                            [0]{}: box 0x2d9-0x2e5 (12)
0x2d0|                           00 00 00 0c         |         ....   |                              size: 12 0x2d9-0x2dd (4)
0x2d0|                                       75 72 6c|             url|                              type: "url" 0x2dd-0x2e1 (4)
0x2e0|20                                             |                |
0x2e0|   00                                          | .              |                              version: 0 0x2e1-0x2e2 (1)
0x2e0|      00 00 01                                 |  ...           |                              flags: 1 0x2e2-0x2e5 (3)
     |                                               |                |                              data: "" 0x2e5-0x2e5 (0)
     |                                               |                |                    [3]{}: box 0x2e5-0x3cb (230)
0x2e0|               00 00 00 e6                     |     ....       |                      size: 230 0x2e5-0x2e9 (4)
0x2e0|                           73 74 62 6c         |         stbl   |                      type: "stbl" (Sample table box, container for the time/space map) 0x2e9-0x2ed (4)
     |                                               |                |                      boxes[0:5]: 0x2ed-0x3cb (222)
     |                                               |                |                        [0]{}: box 0x2ed-0x36f (130)
0x2e0|                                       00 00 00|             ...|                          size: 130 0x2ed-0x2f1 (4)
0x2f0|82                                             |.               |
0x2f0|   73 74 73 64                                 | stsd           |                          type: "stsd" (Sample descriptions (codec types, initialization etc.)) 0x2f1-0x2f5 (4)
0x2f0|               00                              |     .          |                          version: 0 0x2f5-0x2f6 (1)
0x2f0|                  00 00 00                     |      ...       |                          flags: 0 0x2f6-0x2f9 (3)
0x2f0|                           00 00 00 01         |         ....   |                          entry_count: 1 0x2f9-0x2fd (4)
     |                                               |                |                          boxes[0:1]: 0x2fd-0x36f (114)
     |                                               |                |                            [0]{}: box 0x2fd-0x36f (114)
0x2f0|                                       00 00 00|             ...|                              size: 114 0x2fd-0x301 (4)
0x300|72                                             |r               |
0x300|   69 6e 32 34                                 | in24           |                              type: "in24" 0x301-0x305 (4)
0x300|               00 00 00 00 00 00               |     ......     |                              reserved: raw bits 0x305-0x30b (6)
0x300|                                 00 01         |           ..   |                              data_reference_index: 1 0x30b-0x30d (2)
0x300|                                       00 01   |             .. |                              version: 1 0x30d-0x30f (2)
0x300|                                             00|               .|                              revision_level: 0 0x30f-0x311 (2)
0x310|00                                             |.               |
0x310|   00 00 00 00                                 | ....           |                              max_packet_size: 0 0x311-0x315 (4)
0x310|               00 02                           |     ..         |                              num_audio_channels: 2 0x315-0x317 (2)
0x310|                     00 10                     |       ..       |                              sample_size: 16 0x317-0x319 (2)
0x310|                           00 00               |         ..     |                              compression_id: 0 0x319-0x31b (2)
0x310|                                 00 00         |           ..   |                              packet_size: 0 0x31b-0x31d (2)
0x310|                                       ac 44 00|             .D.|                              sample_rate: 44100 0x31d-0x321 (4)
0x320|00                                             |.               |
0x320|   00 00 00 01                                 | ....           |                              samples_per_packet: 1 0x321-0x325 (4)
0x320|               00 00 00 03                     |     ....       |                              bytes_per_packet: 3 0x325-0x329 (4)
0x320|                           00 00 00 06         |         ....   |                              bytes_per_frame: 6 0x329-0x32d (4)
0x320|                                       00 00 00|             ...|                              bytes_per_sample: 2 0x32d-0x331 (4)
0x330|02                                             |.               |
     |                                               |                |                              boxes[0:2]: 0x331-0x36f (62)
     |                                               |                |                                [0]{}: box 0x331-0x357 (38)
0x330|   00 00 00 26                                 | ...&           |                                  size: 38 0x331-0x335 (4)
0x330|               77 61 76 65                     |     wave       |                                  type: "wave" 0x335-0x339 (4)
     |                                               |                |                                  boxes[0:3]: 0x339-0x357 (30)
     |                                               |                |                                    [0]{}: box 0x339-0x345 (12)
0x330|                           00 00 00 0c         |         ....   |                                      size: 12 0x339-0x33d (4)
0x330|                                       66 72 6d|             frm|                                      type: "frma" (Original format box) 0x33d-0x341 (4)
0x340|61                                             |a               |
0x340|   69 6e 32 34                                 | in24           |                                      format: "in24" 0x341-0x345 (4)
     |                                               |                |                                    [1]{}: box 0x345-0x34f (10)
0x340|               00 00 00 0a                     |     ....       |                                      size: 10 0x345-0x349 (4)
0x340|                           65 6e 64 61         |         enda   |                                      type: "enda" 0x349-0x34d (4)
0x340|                                       00 01   |             .. |                                      data: raw bits 0x34d-0x34f (2)
     |                                               |                |                                    [2]{}: box 0x34f-0x357 (8)
0x340|                                             00|               .|                                      size: 8 0x34f-0x353 (4)
0x350|00 00 08                                       |...             |
0x350|         00 00 00 00                           |   ....         |                                      type: "\x00\x00\x00\x00" (QuickTime terminator atom) 0x353-0x357 (4)
     |                                               |                |                                      data: raw bits 0x357-0x357 (0)
     |                                               |                |                                [1]{}: box 0x357-0x36f (24)
0x350|                     00 00 00 18               |       ....     |                                  size: 24 0x357-0x35b (4)
0x350|                                 63 68 61 6e   |           chan |                                  type: "chan" 0x35b-0x35f (4)
0x350|                                             00|               .|                                  data: raw bits 0x35f-0x36f (16)
0x360|00 00 00 00 65 00 02 00 00 00 00 00 00 00 00   |....e.......... |
     |                                               |                |                        [1]{}: box 0x36f-0x387 (24)
0x360|                                             00|               .|                          size: 24 0x36f-0x373 (4)
0x370|00 00 18                                       |...             |
0x370|         73 74 74 73                           |   stts         |                          type: "stts" (Sample time-to-sample) 0x373-0x377 (4)
0x370|                     00                        |       .        |                          version: 0 0x377-0x378 (1)
0x370|                        00 00 00               |        ...     |                          flags: 0 0x378-0x37b (3)
0x370|                                 00 00 00 01   |           .... |                          entry_count: 1 0x37b-0x37f (4)
     |                                               |                |                          entries[0:1]: 0x37f-0x387 (8)
     |                                               |                |                            [0]{}: entry 0x37f-0x387 (8)
0x370|                                             00|               .|                              count: 44 0x37f-0x383 (4)
0x380|00 00 2c                                       |..,             |
0x380|         00 00 00 01                           |   ....         |                              delta: 1 0x383-0x387 (4)
     |                                               |                |                        [2]{}: box 0x387-0x3a3 (28)
0x380|                     00 00 00 1c               |       ....     |                          size: 28 0x387-0x38b (4)
0x380|                                 73 74 73 63   |           stsc |                          type: "stsc" (Sample-to-chunk, partial data-offset information) 0x38b-0x38f (4)
0x380|                                             00|               .|                          version: 0 0x38f-0x390 (1)
0x390|00 00 00                                       |...             |                          flags: 0 0x390-0x393 (3)
0x390|         00 00 00 01                           |   ....         |                          entry_count: 1 0x393-0x397 (4)
     |                                               |                |                          entries[0:1]: 0x397-0x3a3 (12)
     |                                               |                |                            [0]{}: entry 0x397-0x3a3 (12)
0x390|                     00 00 00 01               |       ....     |                              first_chunk: 1 0x397-0x39b (4)
0x390|                                 00 00 00 2c   |           ..., |                              samples_per_chunk: 44 0x39b-0x39f (4)
0x390|                                             00|               .|                              sample_description_id: 1 0x39f-0x3a3 (4)
0x3a0|00 00 01                                       |...             |
     |                                               |                |                        [3]{}: box 0x3a3-0x3b7 (20)
0x3a0|         00 00 00 14                           |   ....         |                          size: 20 0x3a3-0x3a7 (4)
0x3a0|                     73 74 73 7a               |       stsz     |                          type: "stsz" (Sample sizes (framing)) 0x3a7-0x3ab (4)
0x3a0|                                 00            |           .    |                          version: 0 0x3ab-0x3ac (1)
0x3a0|                                    00 00 00   |            ... |                          flags: 0 0x3ac-0x3af (3)
0x3a0|                                             00|               .|                          sample_size: 6 0x3af-0x3b3 (4)
0x3b0|00 00 06                                       |...             |
0x3b0|         00 00 00 2c                           |   ...,         |                          entry_count: 44 0x3b3-0x3b7 (4)
     |                                               |                |                        [4]{}: box 0x3b7-0x3cb (20)
0x3b0|                     00 00 00 14               |       ....     |                          size: 20 0x3b7-0x3bb (4)
0x3b0|                                 73 74 63 6f   |           stco |                          type: "stco" (Chunk offset, partial data-offset information) 0x3bb-0x3bf (4)
0x3b0|                                             00|               .|                          version: 0 0x3bf-0x3c0 (1)
0x3c0|00 00 00                                       |...             |                          flags: 0 0x3c0-0x3c3 (3)
0x3c0|         00 00 00 01                           |   ....         |                          entry_count: 1 0x3c3-0x3c7 (4)
     |                                               |                |                          entries[0:1]: 0x3c7-0x3cb (4)
0x3c0|                     00 00 00 24               |       ...$     |                            [0]: 36 chunk_offset 0x3c7-0x3cb (4)
     |                                               |                |        [2]{}: box 0x3cb-0x3ec (33)
0x3c0|                                 00 00 00 21   |           ...! |          size: 33 0x3cb-0x3cf (4)
0x3c0|                                             75|               u|          type: "udta" (User-data) 0x3cf-0x3d3 (4)
0x3d0|64 74 61                                       |dta             |
     |                                               |                |          boxes[0:1]: 0x3d3-0x3ec (25)
     |                                               |                |            [0]{}: box 0x3d3-0x3ec (25)
0x3d0|         00 00 00 19                           |   ....         |              size: 25 0x3d3-0x3d7 (4)
0x3d0|                     a9 73 77 72               |       .swr     |              type: "©swr" (Encoder) 0x3d7-0x3db (4)
0x3d0|                                 00 0d         |           ..   |              length: 13 0x3db-0x3dd (2)
0x3d0|                                       55 c4   |             U. |              language: "und" 0x3dd-0x3df (2)
0x3d0|                                             4c|               L|              value: "Lavf58.76.100" 0x3df-0x3ec (13)
0x3e0|61 76 66 35 38 2e 37 36 2e 31 30 30|           |avf58.76.100|   |
     |                                               |                |  tracks[0:1]: 0x3ec-0x3ec (0)
     |                                               |                |    [0]{}: track 0x3ec-0x3ec (0)
     |                                               |                |      id: 1
     |                                               |                |      data_format: "in24"
