# ffmpeg -f lavfi -i sine=r=96000 -t 1ms -ac 2 -c:a pcm_s24le -f mov lpcm.mp4
$ fq dv lpcm.mp4
     |00 01 02 03 04 05 06 07 08 09 0a 0b 0c 0d 0e 0f|0123456789abcdef|.{}: lpcm.mp4 (mp4) 0x0-0x512 (1298)
     |                                               |                |  boxes[0:4]: 0x0-0x512 (1298)
     |                                               |                |    [0]{}: box 0x0-0x14 (20)
0x000|00 00 00 14                                    |....            |      size: 20 0x0-0x4 (4)
0x000|            66 74 79 70                        |    ftyp        |      type: "ftyp" (File type and compatibility) 0x4-0x8 (4)
0x000|                        71 74 20 20            |        qt      |      major_brand: "qt" 0x8-0xc (4)
0x000|                                    00 00 02 00|            ....|      minor_version: 512 (0000.02) 0xc-0x10 (4)
     |                                               |                |      brands[0:1]: 0x10-0x14 (4)
0x010|71 74 20 20                                    |qt              |        [0]: "qt" brand 0x10-0x14 (4)
     |                                               |                |    [1]{}: box 0x14-0x1c (8)
0x010|            00 00 00 08                        |    ....        |      size: 8 0x14-0x18 (4)
0x010|                        77 69 64 65            |        wide    |      type: "wide" (Expansion space reservation) 0x18-0x1c (4)
     |                                               |                |      data: raw bits 0x1c-0x1c (0)
     |                                               |                |    [2]{}: box 0x1c-0x264 (584)
0x010|                                    00 00 02 48|            ...H|      size: 584 0x1c-0x20 (4)
0x020|6d 64 61 74                                    |mdat            |      type: "mdat" (Media data container) 0x20-0x24 (4)
0x020|            00 00 00 00 00 00 70 53 00 70 53 00|    ......pS.pS.|      data: raw bits 0x24-0x264 (576)
0x030|2b a6 00 2b a6 00 9b f9 00 9b f9 00 57 4c 01 57|+..+........WL.W|
*    |until 0x263.7 (576)                            |                |
     |                                               |                |    [3]{}: box 0x264-0x512 (686)
0x260|            00 00 02 ae                        |    ....        |      size: 686 0x264-0x268 (4)
0x260|                        6d 6f 6f 76            |        moov    |      type: "moov" (Container for all the meta-data) 0x268-0x26c (4)
     |                                               |                |      boxes[0:3]: 0x26c-0x512 (678)
     |                                               |                |        [0]{}: box 0x26c-0x2d8 (108)
0x260|                                    00 00 00 6c|            ...l|          size: 108 0x26c-0x270 (4)
0x270|6d 76 68 64                                    |mvhd            |          type: "mvhd" (Movie header, overall declarations) 0x270-0x274 (4)
0x270|            00                                 |    .           |          version: 0 0x274-0x275 (1)
0x270|               00 00 00                        |     ...        |          flags: 0 0x275-0x278 (3)
0x270|                        00 00 00 00            |        ....    |          creation_time: 0 (1904-01-01T00:00:00Z) 0x278-0x27c (4)
0x270|                                    00 00 00 00|            ....|          modification_time: 0 (1904-01-01T00:00:00Z) 0x27c-0x280 (4)
0x280|00 00 03 e8                                    |....            |          time_scale: 1000 0x280-0x284 (4)
0x280|            00 00 00 01                        |    ....        |          duration: 1 0x284-0x288 (4)
0x280|                        00 01 00 00            |        ....    |          preferred_rate: 1 0x288-0x28c (4)
0x280|                                    01 00      |            ..  |          preferred_volume: 1 0x28c-0x28e (2)
0x280|                                          00 00|              ..|          reserved: "\x00\x00\x00\x00\x00\x00\x00\x00\x00\x00" 0x28e-0x298 (10)
0x290|00 00 00 00 00 00 00 00                        |........        |
     |                                               |                |          matrix_structure{}: 0x298-0x2bc (36)
0x290|                        00 01 00 00            |        ....    |            a: 1 0x298-0x29c (4)
0x290|                                    00 00 00 00|            ....|            b: 0 0x29c-0x2a0 (4)
0x2a0|00 00 00 00                                    |....            |            u: 0 0x2a0-0x2a4 (4)
0x2a0|            00 00 00 00                        |    ....        |            c: 0 0x2a4-0x2a8 (4)
0x2a0|                        00 01 00 00            |        ....    |            d: 1 0x2a8-0x2ac (4)
0x2a0|                                    00 00 00 00|            ....|            v: 0 0x2ac-0x2b0 (4)
0x2b0|00 00 00 00                                    |....            |            x: 0 0x2b0-0x2b4 (4)
0x2b0|            00 00 00 00                        |    ....        |            y: 0 0x2b4-0x2b8 (4)
0x2b0|                        40 00 00 00            |        @...    |            w: 1 0x2b8-0x2bc (4)
0x2b0|                                    00 00 00 00|            ....|          preview_time: 0 0x2bc-0x2c0 (4)
0x2c0|00 00 00 00                                    |....            |          preview_duration: 0 0x2c0-0x2c4 (4)
0x2c0|            00 00 00 00                        |    ....        |          poster_time: 0 0x2c4-0x2c8 (4)
0x2c0|                        00 00 00 00            |        ....    |          selection_time: 0 0x2c8-0x2cc (4)
0x2c0|                                    00 00 00 00|            ....|          selection_duration: 0 0x2cc-0x2d0 (4)
0x2d0|00 00 00 00                                    |....            |          current_time: 0 0x2d0-0x2d4 (4)
0x2d0|            00 00 00 02                        |    ....        |          next_track_id: 2 0x2d4-0x2d8 (4)
     |                                               |                |        [1]{}: box 0x2d8-0x4f1 (537)
0x2d0|                        00 00 02 19            |        ....    |          size: 537 0x2d8-0x2dc (4)
0x2d0|                                    74 72 61 6b|            trak|          type: "trak" (Container for an individual track or stream) 0x2dc-0x2e0 (4)
     |                                               |                |          boxes[0:3]: 0x2e0-0x4f1 (529)
     |                                               |                |            [0]{}: box 0x2e0-0x33c (92)
0x2e0|00 00 00 5c                                    |...\            |              size: 92 0x2e0-0x2e4 (4)
0x2e0|            74 6b 68 64                        |    tkhd        |              type: "tkhd" (Track header, overall information about the track) 0x2e4-0x2e8 (4)
0x2e0|                        00                     |        .       |              version: 0 0x2e8-0x2e9 (1)
     |                                               |                |              flags{}: 0x2e9-0x2ec (3)
0x2e0|                           00 00 03            |         ...    |                unused: 0 0x2e9-0x2eb.4 (2.4)
0x2e0|                                 03            |           .    |                size_is_aspect_ratio: false 0x2eb.4-0x2eb.5 (0.1)
0x2e0|                                 03            |           .    |                in_preview: false 0x2eb.5-0x2eb.6 (0.1)
0x2e0|                                 03            |           .    |                in_movie: true 0x2eb.6-0x2eb.7 (0.1)
0x2e0|                                 03            |           .    |                enabled: true 0x2eb.7-0x2ec (0.1)
0x2e0|                                    00 00 00 00|            ....|              creation_time: 0 (1904-01-01T00:00:00Z) 0x2ec-0x2f0 (4)
0x2f0|00 00 00 00                                    |....            |              modification_time: 0 (1904-01-01T00:00:00Z) 0x2f0-0x2f4 (4)
0x2f0|            00 00 00 01                        |    ....        |              track_id: 1 0x2f4-0x2f8 (4)
0x2f0|                        00 00 00 00            |        ....    |              reserved1: 0 0x2f8-0x2fc (4)
0x2f0|                                    00 00 00 01|            ....|              duration: 1 0x2fc-0x300 (4)
0x300|00 00 00 00 00 00 00 00                        |........        |              reserved2: raw bits 0x300-0x308 (8)
0x300|                        00 00                  |        ..      |              layer: 0 0x308-0x30a (2)
0x300|                              00 01            |          ..    |              alternate_group: 1 0x30a-0x30c (2)
0x300|                                    01 00      |            ..  |              volume: 1 0x30c-0x30e (2)
0x300|                                          00 00|              ..|              reserved3: 0 0x30e-0x310 (2)
     |                                               |                |              matrix_structure{}: 0x310-0x334 (36)
0x310|00 01 00 00                                    |....            |                a: 1 0x310-0x314 (4)
0x310|            00 00 00 00                        |    ....        |                b: 0 0x314-0x318 (4)
0x310|                        00 00 00 00            |        ....    |                u: 0 0x318-0x31c (4)
0x310|                                    00 00 00 00|            ....|                c: 0 0x31c-0x320 (4)
0x320|00 01 00 00                                    |....            |                d: 1 0x320-0x324 (4)
0x320|            00 00 00 00                        |    ....        |                v: 0 0x324-0x328 (4)
0x320|                        00 00 00 00            |        ....    |                x: 0 0x328-0x32c (4)
0x320|                                    00 00 00 00|            ....|                y: 0 0x32c-0x330 (4)
0x330|40 00 00 00                                    |@...            |                w: 1 0x330-0x334 (4)
0x330|            00 00 00 00                        |    ....        |              track_width: 0 0x334-0x338 (4)
0x330|                        00 00 00 00            |        ....    |              track_height: 0 0x338-0x33c (4)
     |                                               |                |            [1]{}: box 0x33c-0x360 (36)
0x330|                                    00 00 00 24|            ...$|              size: 36 0x33c-0x340 (4)
0x340|65 64 74 73                                    |edts            |              type: "edts" (Edit list container) 0x340-0x344 (4)
     |                                               |                |              boxes[0:1]: 0x344-0x360 (28)
     |                                               |                |                [0]{}: box 0x344-0x360 (28)
0x340|            00 00 00 1c                        |    ....        |                  size: 28 0x344-0x348 (4)
0x340|                        65 6c 73 74            |        elst    |                  type: "elst" (An edit list) 0x348-0x34c (4)
0x340|                                    00         |            .   |                  version: 0 0x34c-0x34d (1)
0x340|                                       00 00 00|             ...|                  flags: 0 0x34d-0x350 (3)
0x350|00 00 00 01                                    |....            |                  entry_count: 1 0x350-0x354 (4)
     |                                               |                |                  entries[0:1]: 0x354-0x360 (12)
     |                                               |                |                    [0]{}: entry 0x354-0x360 (12)
0x350|            00 00 00 01                        |    ....        |                      segment_duration: 1 0x354-0x358 (4)
0x350|                        00 00 00 00            |        ....    |                      media_time: 0 0x358-0x35c (4)
0x350|                                    00 01 00 00|            ....|                      media_rate: 1 0x35c-0x360 (4)
     |                                               |                |            [2]{}: box 0x360-0x4f1 (401)
0x360|00 00 01 91                                    |....            |              size: 401 0x360-0x364 (4)
0x360|            6d 64 69 61                        |    mdia        |              type: "mdia" (Container for the media information in a track) 0x364-0x368 (4)
     |                                               |                |              boxes[0:3]: 0x368-0x4f1 (393)
     |                                               |                |                [0]{}: box 0x368-0x388 (32)
0x360|                        00 00 00 20            |        ...     |                  size: 32 0x368-0x36c (4)
0x360|                                    6d 64 68 64|            mdhd|                  type: "mdhd" (Media header, overall information about the media) 0x36c-0x370 (4)
0x370|00                                             |.               |                  version: 0 0x370-0x371 (1)
0x370|   00 00 00                                    | ...            |                  flags: 0 0x371-0x374 (3)
0x370|            00 00 00 00                        |    ....        |                  creation_time: 0 (1904-01-01T00:00:00Z) 0x374-0x378 (4)
0x370|                        00 00 00 00            |        ....    |                  modification_time: 0 (1904-01-01T00:00:00Z) 0x378-0x37c (4)
0x370|                                    00 01 77 00|            ..w.|                  time_scale: 96000 0x37c-0x380 (4)
0x380|00 00 00 60                                    |...`            |                  duration: 96 0x380-0x384 (4)
0x380|            7f ff                              |    ..          |                  language: "\x7f\x7f\x7f" 0x384-0x386 (2)
0x380|                  00 00                        |      ..        |                  quality: 0 0x386-0x388 (2)
     |                                               |                |                [1]{}: box 0x388-0x3b5 (45)
0x380|                        00 00 00 2d            |        ...-    |                  size: 45 0x388-0x38c (4)
0x380|                                    68 64 6c 72|            hdlr|                  type: "hdlr" (Handler, declares the media (handler) type) 0x38c-0x390 (4)
0x390|00                                             |.               |                  version: 0 0x390-0x391 (1)
0x390|   00 00 00                                    | ...            |                  flags: 0 0x391-0x394 (3)
0x390|            6d 68 6c 72                        |    mhlr        |                  component_type: "mhlr" 0x394-0x398 (4)
0x390|                        73 6f 75 6e            |        soun    |                  component_subtype: "soun" (Audio Track) 0x398-0x39c (4)
0x390|                                    00 00 00 00|            ....|                  component_manufacturer: "" 0x39c-0x3a0 (4)
0x3a0|00 00 00 00                                    |....            |                  component_flags: 0 0x3a0-0x3a4 (4)
0x3a0|            00 00 00 00                        |    ....        |                  component_flags_mask: 0 0x3a4-0x3a8 (4)
0x3a0|                        0c 53 6f 75 6e 64 48 61|        .SoundHa|                  component_name: "SoundHandler" 0x3a8-0x3b5 (13)
0x3b0|6e 64 6c 65 72                                 |ndler           |
     |                                               |                |                [2]{}: box 0x3b5-0x4f1 (316)
0x3b0|               00 00 01 3c                     |     ...<       |                  size: 316 0x3b5-0x3b9 (4)
0x3b0|                           6d 69 6e 66         |         minf   |                  type: "minf" (Media information container) 0x3b9-0x3bd (4)
     |                                               |                |                  boxes[0:4]: 0x3bd-0x4f1 (308)
     |                                               |                |                    [0]{}: box 0x3bd-0x3cd (16)
0x3b0|                                       00 00 00|             ...|                      size: 16 0x3bd-0x3c1 (4)
0x3c0|10                                             |.               |
0x3c0|   73 6d 68 64                                 | smhd           |                      type: "smhd" (Sound media header, overall information (sound track only)) 0x3c1-0x3c5 (4)
0x3c0|               00                              |     .          |                      version: 0 0x3c5-0x3c6 (1)
0x3c0|                  00 00 00                     |      ...       |                      flags: 0 0x3c6-0x3c9 (3)
0x3c0|                           00 00               |         ..     |                      balance: 0 0x3c9-0x3cb (2)
0x3c0|                                 00 00         |           ..   |                      reserved: 0 0x3cb-0x3cd (2)
     |                                               |                |                    [1]{}: box 0x3cd-0x3f9 (44)
0x3c0|                                       00 00 00|             ...|                      size: 44 0x3cd-0x3d1 (4)
0x3d0|2c                                             |,               |
0x3d0|   68 64 6c 72                                 | hdlr           |                      type: "hdlr" (Handler, declares the media (handler) type) 0x3d1-0x3d5 (4)
0x3d0|               00                              |     .          |                      version: 0 0x3d5-0x3d6 (1)
0x3d0|                  00 00 00                     |      ...       |                      flags: 0 0x3d6-0x3d9 (3)
0x3d0|                           64 68 6c 72         |         dhlr   |                      component_type: "dhlr" 0x3d9-0x3dd (4)
0x3d0|                                       75 72 6c|             url|                      component_subtype: "url" (URL) 0x3dd-0x3e1 (4)
0x3e0|20                                             |                |
0x3e0|   00 00 00 00                                 | ....           |                      component_manufacturer: "" 0x3e1-0x3e5 (4)
0x3e0|               00 00 00 00                     |     ....       |                      component_flags: 0 0x3e5-0x3e9 (4)
0x3e0|                           00 00 00 00         |         ....   |                      component_flags_mask: 0 0x3e9-0x3ed (4)
0x3e0|                                       0b 44 61|             .Da|                      component_name: "DataHandler" 0x3ed-0x3f9 (12)
0x3f0|74 61 48 61 6e 64 6c 65 72                     |taHandler       |
     |                                               |                |                    [2]{}: box 0x3f9-0x41d (36)
0x3f0|                           00 00 00 24         |         ...$   |                      size: 36 0x3f9-0x3fd (4)
0x3f0|                                       64 69 6e|             din|                      type: "dinf" (Data information box, container) 0x3fd-0x401 (4)
0x400|66                                             |f               |
     |                                               |                |                      boxes[0:1]: 0x401-0x41d (28)
     |                                               |                |                        [0]{}: box 0x401-0x41d (28)
0x400|   00 00 00 1c                                 | ....           |                          size: 28 0x401-0x405 (4)
0x400|               64 72 65 66                     |     dref       |                          type: "dref" (Data reference box, declares source(s) of media data in track) 0x405-0x409 (4)
0x400|                           00                  |         .      |                          version: 0 0x409-0x40a (1)
0x400|                              00 00 00         |          ...   |                          flags: 0 0x40a-0x40d (3)
0x400|                                       00 00 00|             ...|                          entry_count: 1 0x40d-0x411 (4)
0x410|01                                             |.               |
     |                                               |                |                          boxes[0:1]: 0x411-0x41d (12)
     |                                               |                |                            [0]{}: box 0x411-0x41d (12)
0x410|   00 00 00 0c                                 | ....           |                              size: 12 0x411-0x415 (4)
0x410|               75 72 6c 20                     |     url        |                              type: "url" 0x415-0x419 (4)
0x410|                           00                  |         .      |                              version: 0 0x419-0x41a (1)
0x410|                              00 00 01         |          ...   |                              flags: 1 0x41a-0x41d (3)
     |                                               |                |                              data: "" 0x41d-0x41d (0)
     |                                               |                |                    [3]{}: box 0x41d-0x4f1 (212)
0x410|                                       00 00 00|             ...|                      size: 212 0x41d-0x421 (4)
0x420|d4                                             |.               |
0x420|   73 74 62 6c                                 | stbl           |                      type: "stbl" (Sample table box, container for the time/space map) 0x421-0x425 (4)
     |                                               |                |                      boxes[0:5]: 0x425-0x4f1 (204)
     |                                               |                |                        [0]{}: box 0x425-0x495 (112)
0x420|               00 00 00 70                     |     ...p       |                          size: 112 0x425-0x429 (4)
0x420|                           73 74 73 64         |         stsd   |                          type: "stsd" (Sample descriptions (codec types, initialization etc.)) 0x429-0x42d (4)
0x420|                                       00      |             .  |                          version: 0 0x42d-0x42e (1)
0x420|                                          00 00|              ..|                          flags: 0 0x42e-0x431 (3)
0x430|00                                             |.               |
0x430|   00 00 00 01                                 | ....           |                          entry_count: 1 0x431-0x435 (4)
     |                                               |                |                          boxes[0:1]: 0x435-0x495 (96)
     |                                               |                |                            [0]{}: box 0x435-0x495 (96)
0x430|               00 00 00 60                     |     ...`       |                              size: 96 0x435-0x439 (4)
0x430|                           6c 70 63 6d         |         lpcm   |                              type: "lpcm" 0x439-0x43d (4)
0x430|                                       00 00 00|             ...|                              reserved: raw bits 0x43d-0x443 (6)
0x440|00 00 00                                       |...             |
0x440|         00 01                                 |   ..           |                              data_reference_index: 1 0x443-0x445 (2)
0x440|               00 02                           |     ..         |                              version: 2 0x445-0x447 (2)
0x440|                     00 00                     |       ..       |                              revision_level: 0 0x447-0x449 (2)
0x440|                           00 00 00 00         |         ....   |                              max_packet_size: 0 0x449-0x44d (4)
0x440|                                       00 03   |             .. |                              always_3: 3 0x44d-0x44f (2)
0x440|                                             00|               .|                              always_16: 16 0x44f-0x451 (2)
0x450|10                                             |.               |
0x450|   ff fe                                       | ..             |                              always_minus_2: 65534 0x451-0x453 (2)
0x450|         00 00                                 |   ..           |                              always_0: 0 0x453-0x455 (2)
0x450|               00 01 00 00                     |     ....       |                              always_65536: 65536 0x455-0x459 (4)
0x450|                           00 00 00 48         |         ...H   |                              size_of_struct_only: 72 0x459-0x45d (4)
0x450|                                       40 f7 70|             @.p|                              audio_sample_rate: 96000 0x45d-0x465 (8)
0x460|00 00 00 00 00                                 |.....           |
0x460|               00 00 00 02                     |     ....       |                              num_audio_channels: 2 0x465-0x469 (4)
0x460|                           7f 00 00 00         |         ....   |                              always_7f000000: 2130706432 0x469-0x46d (4)
0x460|                                       00 00 00|             ...|                              const_bits_per_channel: 24 0x46d-0x471 (4)
0x470|18                                             |.               |
0x470|   00 00 00 0c                                 | ....           |                              format_specific_flags: 12 0x471-0x475 (4)
0x470|               00 00 00 06                     |     ....       |                              const_bytes_per_audio_packet: 6 0x475-0x479 (4)
0x470|                           00 00 00 01         |         ....   |                              const_lpcm_frames_per_audio_packet: 1 0x479-0x47d (4)
     |                                               |                |                              boxes[0:1]: 0x47d-0x495 (24)
     |                                               |                |                                [0]{}: box 0x47d-0x495 (24)
0x470|                                       00 00 00|             ...|                                  size: 24 0x47d-0x481 (4)
0x480|18                                             |.               |
0x480|   63 68 61 6e                                 | chan           |                                  type: "chan" 0x481-0x485 (4)
0x480|               00 00 00 00 00 65 00 02 00 00 00|     .....e.....|                                  data: raw bits 0x485-0x495 (16)
0x490|00 00 00 00 00                                 |.....           |
     |                                               |                |                        [1]{}: box 0x495-0x4ad (24)
0x490|               00 00 00 18                     |     ....       |                          size: 24 0x495-0x499 (4)
0x490|                           73 74 74 73         |         stts   |                          type: "stts" (Sample time-to-sample) 0x499-0x49d (4)
0x490|                                       00      |             .  |                          version: 0 0x49d-0x49e (1)
0x490|                                          00 00|              ..|                          flags: 0 0x49e-0x4a1 (3)
0x4a0|00                                             |.               |
0x4a0|   00 00 00 01                                 | ....           |                          entry_count: 1 0x4a1-0x4a5 (4)
     |                                               |                |                          entries[0:1]: 0x4a5-0x4ad (8)
     |                                               |                |                            [0]{}: entry 0x4a5-0x4ad (8)
0x4a0|               00 00 00 60                     |     ...`       |                              count: 96 0x4a5-0x4a9 (4)
0x4a0|                           00 00 00 01         |         ....   |                              delta: 1 0x4a9-0x4ad (4)
     |                                               |                |                        [2]{}: box 0x4ad-0x4c9 (28)
0x4a0|                                       00 00 00|             ...|                          size: 28 0x4ad-0x4b1 (4)
0x4b0|1c                                             |.               |
0x4b0|   73 74 73 63                                 | stsc           |                          type: "stsc" (Sample-to-chunk, partial data-offset information) 0x4b1-0x4b5 (4)
0x4b0|               00                              |     .          |                          version: 0 0x4b5-0x4b6 (1)
0x4b0|                  00 00 00                     |      ...       |                          flags: 0 0x4b6-0x4b9 (3)
0x4b0|                           00 00 00 01         |         ....   |                          entry_count: 1 0x4b9-0x4bd (4)
     |                                               |                |                          entries[0:1]: 0x4bd-0x4c9 (12)
     |                                               |                |                            [0]{}: entry 0x4bd-0x4c9 (12)
0x4b0|                                       00 00 00|             ...|                              first_chunk: 1 0x4bd-0x4c1 (4)
0x4c0|01                                             |.               |
0x4c0|   00 00 00 60                                 | ...`           |                              samples_per_chunk: 96 0x4c1-0x4c5 (4)
0x4c0|               00 00 00 01                     |     ....       |                              sample_description_id: 1 0x4c5-0x4c9 (4)
     |                                               |                |                        [3]{}: box 0x4c9-0x4dd (20)
0x4c0|                           00 00 00 14         |         ....   |                          size: 20 0x4c9-0x4cd (4)
0x4c0|                                       73 74 73|             sts|                          type: "stsz" (Sample sizes (framing)) 0x4cd-0x4d1 (4)
0x4d0|7a                                             |z               |
0x4d0|   00                                          | .              |                          version: 0 0x4d1-0x4d2 (1)
0x4d0|      00 00 00                                 |  ...           |                          flags: 0 0x4d2-0x4d5 (3)
0x4d0|               00 00 00 06                     |     ....       |                          sample_size: 6 0x4d5-0x4d9 (4)
0x4d0|                           00 00 00 60         |         ...`   |                          entry_count: 96 0x4d9-0x4dd (4)
     |                                               |                |                        [4]{}: box 0x4dd-0x4f1 (20)
0x4d0|                                       00 00 00|             ...|                          size: 20 0x4dd-0x4e1 (4)
0x4e0|14                                             |.               |
0x4e0|   73 74 63 6f                                 | stco           |                          type: "stco" (Chunk offset, partial data-offset information) 0x4e1-0x4e5 (4)
0x4e0|               00                              |     .          |                          version: 0 0x4e5-0x4e6 (1)
0x4e0|                  00 00 00                     |      ...       |                          flags: 0 0x4e6-0x4e9 (3)
0x4e0|                           00 00 00 01         |         ....   |                          entry_count: 1 0x4e9-0x4ed (4)
     |                                               |                |                          entries[0:1]: 0x4ed-0x4f1 (4)
0x4e0|                                       00 00 00|             ...|                            [0]: 36 chunk_offset 0x4ed-0x4f1 (4)
0x4f0|24                                             |$               |
     |                                               |                |        [2]{}: box 0x4f1-0x512 (33)
0x4f0|   00 00 00 21                                 | ...!           |          size: 33 0x4f1-0x4f5 (4)
0x4f0|               75 64 74 61                     |     udta       |          type: "udta" (User-data) 0x4f5-0x4f9 (4)
     |                                               |                |          boxes[0:1]: 0x4f9-0x512 (25)
     |                                               |                |            [0]{}: box 0x4f9-0x512 (25)
0x4f0|                           00 00 00 19         |         ....   |              size: 25 0x4f9-0x4fd (4)
0x4f0|                                       a9 73 77|             .sw|              type: "©swr" (Encoder) 0x4fd-0x501 (4)
0x500|72                                             |r               |
0x500|   00 0d                                       | ..             |              length: 13 0x501-0x503 (2)
0x500|         55 c4                                 |   U.           |              language: "und" 0x503-0x505 (2)
0x500|               4c 61 76 66 35 38 2e 37 36 2e 31|     Lavf58.76.1|              value: "Lavf58.76.100" 0x505-0x512 (13)
0x510|30 30|                                         |00|             |
     |                                               |                |  tracks[0:1]: 0x512-0x512 (0)
     |                                               |                |    [0]{}: track 0x512-0x512 (0)
     |                                               |                |      id: 1
     |                                               |                |      data_format: "lpcm"
