# ffmpeg -y -f lavfi -i sine -movflags use_metadata_tags -metadata title=test -t 10ms mdta_tags.mp4
$ fq 'grep_by(.type=="meta") | dv' mdta_tags.mp4
     |00 01 02 03 04 05 06 07 08 09 0a 0b 0c 0d 0e 0f|0123456789abcdef|.boxes[3].boxes[2].boxes[0]{}: box 0x4c9-0x56b (162)
0x4c0|                           00 00 00 a2         |         ....   |  size: 162 0x4c9-0x4cd (4)
0x4c0|                                       6d 65 74|             met|  type: "meta" (Metadata container) 0x4cd-0x4d1 (4)
0x4d0|61                                             |a               |
0x4d0|   00 00 00 00                                 | ....           |  maybe_flags: 0 0x4d1-0x4d5 (4)
     |                                               |                |  boxes[0:3]: 0x4d5-0x56b (150)
     |                                               |                |    [0]{}: box 0x4d5-0x4f6 (33)
0x4d0|               00 00 00 21                     |     ...!       |      size: 33 0x4d5-0x4d9 (4)
0x4d0|                           68 64 6c 72         |         hdlr   |      type: "hdlr" (Handler, declares the media (handler) type) 0x4d9-0x4dd (4)
0x4d0|                                       00      |             .  |      version: 0 0x4dd-0x4de (1)
0x4d0|                                          00 00|              ..|      flags: 0 0x4de-0x4e1 (3)
0x4e0|00                                             |.               |
0x4e0|   00 00 00 00                                 | ....           |      component_type: "" 0x4e1-0x4e5 (4)
0x4e0|               6d 64 74 61                     |     mdta       |      component_subtype: "mdta" (Metadata Tags) 0x4e5-0x4e9 (4)
0x4e0|                           00 00 00 00         |         ....   |      component_manufacturer: "" 0x4e9-0x4ed (4)
0x4e0|                                       00 00 00|             ...|      component_flags: 0 0x4ed-0x4f1 (4)
0x4f0|00                                             |.               |
0x4f0|   00 00 00 00                                 | ....           |      component_flags_mask: 0 0x4f1-0x4f5 (4)
0x4f0|               00                              |     .          |      component_name: "" 0x4f5-0x4f6 (1)
     |                                               |                |    [1]{}: box 0x4f6-0x522 (44)
0x4f0|                  00 00 00 2c                  |      ...,      |      size: 44 0x4f6-0x4fa (4)
0x4f0|                              6b 65 79 73      |          keys  |      type: "keys" 0x4fa-0x4fe (4)
0x4f0|                                          00   |              . |      version: 0 0x4fe-0x4ff (1)
0x4f0|                                             00|               .|      flags: 0 0x4ff-0x502 (3)
0x500|00 00                                          |..              |
0x500|      00 00 00 02                              |  ....          |      entry_count: 2 0x502-0x506 (4)
     |                                               |                |      entries[0:2]: 0x506-0x522 (28)
     |                                               |                |        [0]{}: entry 0x506-0x513 (13)
0x500|                  00 00 00 0d                  |      ....      |          key_size: 13 0x506-0x50a (4)
0x500|                              6d 64 74 61      |          mdta  |          key_namespace: "mdta" 0x50a-0x50e (4)
0x500|                                          74 69|              ti|          key_name: "title" 0x50e-0x513 (5)
0x510|74 6c 65                                       |tle             |
     |                                               |                |        [1]{}: entry 0x513-0x522 (15)
0x510|         00 00 00 0f                           |   ....         |          key_size: 15 0x513-0x517 (4)
0x510|                     6d 64 74 61               |       mdta     |          key_namespace: "mdta" 0x517-0x51b (4)
0x510|                                 65 6e 63 6f 64|           encod|          key_name: "encoder" 0x51b-0x522 (7)
0x520|65 72                                          |er              |
     |                                               |                |    [2]{}: box 0x522-0x56b (73)
0x520|      00 00 00 49                              |  ...I          |      size: 73 0x522-0x526 (4)
0x520|                  69 6c 73 74                  |      ilst      |      type: "ilst" 0x526-0x52a (4)
     |                                               |                |      boxes[0:2]: 0x52a-0x56b (65)
     |                                               |                |        [0]{}: box 0x52a-0x546 (28)
0x520|                              00 00 00 1c      |          ....  |          size: 28 0x52a-0x52e (4)
0x520|                                          00 00|              ..|          type: "mdta.title" ("\x00\x00\x00\x01") 0x52e-0x532 (4)
0x530|00 01                                          |..              |
     |                                               |                |          boxes[0:1]: 0x532-0x546 (20)
     |                                               |                |            [0]{}: box 0x532-0x546 (20)
0x530|      00 00 00 14                              |  ....          |              size: 20 0x532-0x536 (4)
0x530|                  64 61 74 61                  |      data      |              type: "data" 0x536-0x53a (4)
0x530|                              00               |          .     |              version: 0 0x53a-0x53b (1)
0x530|                                 00 00 01      |           ...  |              flags: 1 0x53b-0x53e (3)
0x530|                                          00 00|              ..|              reserved: 0 0x53e-0x542 (4)
0x540|00 00                                          |..              |
0x540|      74 65 73 74                              |  test          |              data: "test" 0x542-0x546 (4)
     |                                               |                |        [1]{}: box 0x546-0x56b (37)
0x540|                  00 00 00 25                  |      ...%      |          size: 37 0x546-0x54a (4)
0x540|                              00 00 00 02      |          ....  |          type: "mdta.encoder" ("\x00\x00\x00\x02") 0x54a-0x54e (4)
     |                                               |                |          boxes[0:1]: 0x54e-0x56b (29)
     |                                               |                |            [0]{}: box 0x54e-0x56b (29)
0x540|                                          00 00|              ..|              size: 29 0x54e-0x552 (4)
0x550|00 1d                                          |..              |
0x550|      64 61 74 61                              |  data          |              type: "data" 0x552-0x556 (4)
0x550|                  00                           |      .         |              version: 0 0x556-0x557 (1)
0x550|                     00 00 01                  |       ...      |              flags: 1 0x557-0x55a (3)
0x550|                              00 00 00 00      |          ....  |              reserved: 0 0x55a-0x55e (4)
0x550|                                          4c 61|              La|              data: "Lavf59.27.100" 0x55e-0x56b (13)
0x560|76 66 35 39 2e 32 37 2e 31 30 30|              |vf59.27.100|    |
