$ fq -d mp4 -o force=true dv mp4-elst-version1
    |00 01 02 03 04 05 06 07 08 09 0a 0b 0c 0d 0e 0f|0123456789abcdef|.{}: mp4-elst-version1 (mp4) 0x0-0x23.7 (36)
    |                                               |                |  boxes[0:1]: 0x0-0x23.7 (36)
    |                                               |                |    [0]{}: box 0x0-0x23.7 (36)
0x00|00 00 00 24                                    |...$            |      size: 36 0x0-0x3.7 (4)
0x00|            65 6c 73 74                        |    elst        |      type: "elst" (An edit list) 0x4-0x7.7 (4)
0x00|                        01                     |        .       |      version: 1 0x8-0x8.7 (1)
0x00|                           00 00 00            |         ...    |      flags: 0 0x9-0xb.7 (3)
0x00|                                    00 00 00 01|            ....|      entry_count: 1 0xc-0xf.7 (4)
    |                                               |                |      entries[0:1]: 0x10-0x23.7 (20)
    |                                               |                |        [0]{}: entry 0x10-0x23.7 (20)
0x10|00 00 00 00 00 00 00 00                        |........        |          segment_duration: 0 0x10-0x17.7 (8)
0x10|                        00 00 00 00 00 00 04 20|        ....... |          media_time: 1056 0x18-0x1f.7 (8)
0x20|00 01 00 00|                                   |....|           |          media_rate: 1 0x20-0x23.7 (4)
