# ffmpeg -f lavfi -i sine -strict experimental -c:a opus -t 50ms opus.mp4
$ fq -d mp4 dv opus.mp4
     |00 01 02 03 04 05 06 07 08 09 0a 0b 0c 0d 0e 0f|0123456789abcdef|.{}: opus.mp4 (mp4) 0x0-0x439 (1081)
     |                                               |                |  boxes[0:4]: 0x0-0x439 (1081)
     |                                               |                |    [0]{}: box 0x0-0x1c (28)
0x000|00 00 00 1c                                    |....            |      size: 28 0x0-0x4 (4)
0x000|            66 74 79 70                        |    ftyp        |      type: "ftyp" (File type and compatibility) 0x4-0x8 (4)
0x000|                        69 73 6f 6d            |        isom    |      major_brand: "isom" 0x8-0xc (4)
0x000|                                    00 00 02 00|            ....|      minor_version: 512 0xc-0x10 (4)
     |                                               |                |      brands[0:3]: 0x10-0x1c (12)
0x010|69 73 6f 6d                                    |isom            |        [0]: "isom" brand (All files based on the ISO Base Media File Format) 0x10-0x14 (4)
0x010|            69 73 6f 32                        |    iso2        |        [1]: "iso2" brand (All files based on the 2004 edition of the ISO file format) 0x14-0x18 (4)
0x010|                        6d 70 34 31            |        mp41    |        [2]: "mp41" brand (MP4 version 1) 0x18-0x1c (4)
     |                                               |                |    [1]{}: box 0x1c-0x24 (8)
0x010|                                    00 00 00 08|            ....|      size: 8 0x1c-0x20 (4)
0x020|66 72 65 65                                    |free            |      type: "free" (Free space) 0x20-0x24 (4)
     |                                               |                |      data: raw bits 0x24-0x24 (0)
     |                                               |                |    [2]{}: box 0x24-0x197 (371)
0x020|            00 00 01 73                        |    ...s        |      size: 371 0x24-0x28 (4)
0x020|                        6d 64 61 74            |        mdat    |      type: "mdat" (Media data container) 0x28-0x2c (4)
0x020|                                    f8 22 28 75|            ."(u|      data: raw bits 0x2c-0x197 (363)
0x030|68 a8 dd 59 43 1b ff 52 f3 16 f1 48 28 77 86 10|h..YC..R...H(w..|
*    |until 0x196.7 (363)                            |                |
     |                                               |                |    [3]{}: box 0x197-0x439 (674)
0x190|                     00 00 02 a2               |       ....     |      size: 674 0x197-0x19b (4)
0x190|                                 6d 6f 6f 76   |           moov |      type: "moov" (Container for all the meta-data) 0x19b-0x19f (4)
     |                                               |                |      boxes[0:3]: 0x19f-0x439 (666)
     |                                               |                |        [0]{}: box 0x19f-0x20b (108)
0x190|                                             00|               .|          size: 108 0x19f-0x1a3 (4)
0x1a0|00 00 6c                                       |..l             |
0x1a0|         6d 76 68 64                           |   mvhd         |          type: "mvhd" (Movie header, overall declarations) 0x1a3-0x1a7 (4)
0x1a0|                     00                        |       .        |          version: 0 0x1a7-0x1a8 (1)
0x1a0|                        00 00 00               |        ...     |          flags: 0 0x1a8-0x1ab (3)
0x1a0|                                 00 00 00 00   |           .... |          creation_time: 0 (1904-01-01T00:00:00Z) 0x1ab-0x1af (4)
0x1a0|                                             00|               .|          modification_time: 0 (1904-01-01T00:00:00Z) 0x1af-0x1b3 (4)
0x1b0|00 00 00                                       |...             |
0x1b0|         00 00 03 e8                           |   ....         |          time_scale: 1000 0x1b3-0x1b7 (4)
0x1b0|                     00 00 00 35               |       ...5     |          duration: 53 0x1b7-0x1bb (4)
0x1b0|                                 00 01 00 00   |           .... |          preferred_rate: 1 0x1bb-0x1bf (4)
0x1b0|                                             01|               .|          preferred_volume: 1 0x1bf-0x1c1 (2)
0x1c0|00                                             |.               |
0x1c0|   00 00 00 00 00 00 00 00 00 00               | ..........     |          reserved: "\x00\x00\x00\x00\x00\x00\x00\x00\x00\x00" 0x1c1-0x1cb (10)
     |                                               |                |          matrix_structure{}: 0x1cb-0x1ef (36)
0x1c0|                                 00 01 00 00   |           .... |            a: 1 0x1cb-0x1cf (4)
0x1c0|                                             00|               .|            b: 0 0x1cf-0x1d3 (4)
0x1d0|00 00 00                                       |...             |
0x1d0|         00 00 00 00                           |   ....         |            u: 0 0x1d3-0x1d7 (4)
0x1d0|                     00 00 00 00               |       ....     |            c: 0 0x1d7-0x1db (4)
0x1d0|                                 00 01 00 00   |           .... |            d: 1 0x1db-0x1df (4)
0x1d0|                                             00|               .|            v: 0 0x1df-0x1e3 (4)
0x1e0|00 00 00                                       |...             |
0x1e0|         00 00 00 00                           |   ....         |            x: 0 0x1e3-0x1e7 (4)
0x1e0|                     00 00 00 00               |       ....     |            y: 0 0x1e7-0x1eb (4)
0x1e0|                                 40 00 00 00   |           @... |            w: 1 0x1eb-0x1ef (4)
0x1e0|                                             00|               .|          preview_time: 0 0x1ef-0x1f3 (4)
0x1f0|00 00 00                                       |...             |
0x1f0|         00 00 00 00                           |   ....         |          preview_duration: 0 0x1f3-0x1f7 (4)
0x1f0|                     00 00 00 00               |       ....     |          poster_time: 0 0x1f7-0x1fb (4)
0x1f0|                                 00 00 00 00   |           .... |          selection_time: 0 0x1fb-0x1ff (4)
0x1f0|                                             00|               .|          selection_duration: 0 0x1ff-0x203 (4)
0x200|00 00 00                                       |...             |
0x200|         00 00 00 00                           |   ....         |          current_time: 0 0x203-0x207 (4)
0x200|                     00 00 00 02               |       ....     |          next_track_id: 2 0x207-0x20b (4)
     |                                               |                |        [1]{}: box 0x20b-0x3d7 (460)
0x200|                                 00 00 01 cc   |           .... |          size: 460 0x20b-0x20f (4)
0x200|                                             74|               t|          type: "trak" (Container for an individual track or stream) 0x20f-0x213 (4)
0x210|72 61 6b                                       |rak             |
     |                                               |                |          boxes[0:3]: 0x213-0x3d7 (452)
     |                                               |                |            [0]{}: box 0x213-0x26f (92)
0x210|         00 00 00 5c                           |   ...\         |              size: 92 0x213-0x217 (4)
0x210|                     74 6b 68 64               |       tkhd     |              type: "tkhd" (Track header, overall information about the track) 0x217-0x21b (4)
0x210|                                 00            |           .    |              version: 0 0x21b-0x21c (1)
     |                                               |                |              flags{}: 0x21c-0x21f (3)
0x210|                                    00 00 03   |            ... |                unused: 0 0x21c-0x21e.4 (2.4)
0x210|                                          03   |              . |                size_is_aspect_ratio: false 0x21e.4-0x21e.5 (0.1)
0x210|                                          03   |              . |                in_preview: false 0x21e.5-0x21e.6 (0.1)
0x210|                                          03   |              . |                in_movie: true 0x21e.6-0x21e.7 (0.1)
0x210|                                          03   |              . |                enabled: true 0x21e.7-0x21f (0.1)
0x210|                                             00|               .|              creation_time: 0 (1904-01-01T00:00:00Z) 0x21f-0x223 (4)
0x220|00 00 00                                       |...             |
0x220|         00 00 00 00                           |   ....         |              modification_time: 0 (1904-01-01T00:00:00Z) 0x223-0x227 (4)
0x220|                     00 00 00 01               |       ....     |              track_id: 1 0x227-0x22b (4)
0x220|                                 00 00 00 00   |           .... |              reserved1: 0 0x22b-0x22f (4)
0x220|                                             00|               .|              duration: 53 0x22f-0x233 (4)
0x230|00 00 35                                       |..5             |
0x230|         00 00 00 00 00 00 00 00               |   ........     |              reserved2: raw bits 0x233-0x23b (8)
0x230|                                 00 00         |           ..   |              layer: 0 0x23b-0x23d (2)
0x230|                                       00 01   |             .. |              alternate_group: 1 0x23d-0x23f (2)
0x230|                                             01|               .|              volume: 1 0x23f-0x241 (2)
0x240|00                                             |.               |
0x240|   00 00                                       | ..             |              reserved3: 0 0x241-0x243 (2)
     |                                               |                |              matrix_structure{}: 0x243-0x267 (36)
0x240|         00 01 00 00                           |   ....         |                a: 1 0x243-0x247 (4)
0x240|                     00 00 00 00               |       ....     |                b: 0 0x247-0x24b (4)
0x240|                                 00 00 00 00   |           .... |                u: 0 0x24b-0x24f (4)
0x240|                                             00|               .|                c: 0 0x24f-0x253 (4)
0x250|00 00 00                                       |...             |
0x250|         00 01 00 00                           |   ....         |                d: 1 0x253-0x257 (4)
0x250|                     00 00 00 00               |       ....     |                v: 0 0x257-0x25b (4)
0x250|                                 00 00 00 00   |           .... |                x: 0 0x25b-0x25f (4)
0x250|                                             00|               .|                y: 0 0x25f-0x263 (4)
0x260|00 00 00                                       |...             |
0x260|         40 00 00 00                           |   @...         |                w: 1 0x263-0x267 (4)
0x260|                     00 00 00 00               |       ....     |              track_width: 0 0x267-0x26b (4)
0x260|                                 00 00 00 00   |           .... |              track_height: 0 0x26b-0x26f (4)
     |                                               |                |            [1]{}: box 0x26f-0x293 (36)
0x260|                                             00|               .|              size: 36 0x26f-0x273 (4)
0x270|00 00 24                                       |..$             |
0x270|         65 64 74 73                           |   edts         |              type: "edts" (Edit list container) 0x273-0x277 (4)
     |                                               |                |              boxes[0:1]: 0x277-0x293 (28)
     |                                               |                |                [0]{}: box 0x277-0x293 (28)
0x270|                     00 00 00 1c               |       ....     |                  size: 28 0x277-0x27b (4)
0x270|                                 65 6c 73 74   |           elst |                  type: "elst" (An edit list) 0x27b-0x27f (4)
0x270|                                             00|               .|                  version: 0 0x27f-0x280 (1)
0x280|00 00 00                                       |...             |                  flags: 0 0x280-0x283 (3)
0x280|         00 00 00 01                           |   ....         |                  entry_count: 1 0x283-0x287 (4)
     |                                               |                |                  entries[0:1]: 0x287-0x293 (12)
     |                                               |                |                    [0]{}: entry 0x287-0x293 (12)
0x280|                     00 00 00 32               |       ...2     |                      segment_duration: 50 0x287-0x28b (4)
0x280|                                 00 00 00 78   |           ...x |                      media_time: 120 0x28b-0x28f (4)
0x280|                                             00|               .|                      media_rate: 1 0x28f-0x293 (4)
0x290|01 00 00                                       |...             |
     |                                               |                |            [2]{}: box 0x293-0x3d7 (324)
0x290|         00 00 01 44                           |   ...D         |              size: 324 0x293-0x297 (4)
0x290|                     6d 64 69 61               |       mdia     |              type: "mdia" (Container for the media information in a track) 0x297-0x29b (4)
     |                                               |                |              boxes[0:3]: 0x29b-0x3d7 (316)
     |                                               |                |                [0]{}: box 0x29b-0x2bb (32)
0x290|                                 00 00 00 20   |           ...  |                  size: 32 0x29b-0x29f (4)
0x290|                                             6d|               m|                  type: "mdhd" (Media header, overall information about the media) 0x29f-0x2a3 (4)
0x2a0|64 68 64                                       |dhd             |
0x2a0|         00                                    |   .            |                  version: 0 0x2a3-0x2a4 (1)
0x2a0|            00 00 00                           |    ...         |                  flags: 0 0x2a4-0x2a7 (3)
0x2a0|                     00 00 00 00               |       ....     |                  creation_time: 0 (1904-01-01T00:00:00Z) 0x2a7-0x2ab (4)
0x2a0|                                 00 00 00 00   |           .... |                  modification_time: 0 (1904-01-01T00:00:00Z) 0x2ab-0x2af (4)
0x2a0|                                             00|               .|                  time_scale: 48000 0x2af-0x2b3 (4)
0x2b0|00 bb 80                                       |...             |
0x2b0|         00 00 09 d8                           |   ....         |                  duration: 2520 0x2b3-0x2b7 (4)
0x2b0|                     55 c4                     |       U.       |                  language: "und" 0x2b7-0x2b9 (2)
0x2b0|                           00 00               |         ..     |                  quality: 0 0x2b9-0x2bb (2)
     |                                               |                |                [1]{}: box 0x2bb-0x2e8 (45)
0x2b0|                                 00 00 00 2d   |           ...- |                  size: 45 0x2bb-0x2bf (4)
0x2b0|                                             68|               h|                  type: "hdlr" (Handler, declares the media (handler) type) 0x2bf-0x2c3 (4)
0x2c0|64 6c 72                                       |dlr             |
0x2c0|         00                                    |   .            |                  version: 0 0x2c3-0x2c4 (1)
0x2c0|            00 00 00                           |    ...         |                  flags: 0 0x2c4-0x2c7 (3)
0x2c0|                     00 00 00 00               |       ....     |                  component_type: "" 0x2c7-0x2cb (4)
0x2c0|                                 73 6f 75 6e   |           soun |                  component_subtype: "soun" (Audio Track) 0x2cb-0x2cf (4)
0x2c0|                                             00|               .|                  component_manufacturer: "" 0x2cf-0x2d3 (4)
0x2d0|00 00 00                                       |...             |
0x2d0|         00 00 00 00                           |   ....         |                  component_flags: 0 0x2d3-0x2d7 (4)
0x2d0|                     00 00 00 00               |       ....     |                  component_flags_mask: 0 0x2d7-0x2db (4)
0x2d0|                                 53 6f 75 6e 64|           Sound|                  component_name: "SoundHandler" 0x2db-0x2e8 (13)
0x2e0|48 61 6e 64 6c 65 72 00                        |Handler.        |
     |                                               |                |                [2]{}: box 0x2e8-0x3d7 (239)
0x2e0|                        00 00 00 ef            |        ....    |                  size: 239 0x2e8-0x2ec (4)
0x2e0|                                    6d 69 6e 66|            minf|                  type: "minf" (Media information container) 0x2ec-0x2f0 (4)
     |                                               |                |                  boxes[0:3]: 0x2f0-0x3d7 (231)
     |                                               |                |                    [0]{}: box 0x2f0-0x300 (16)
0x2f0|00 00 00 10                                    |....            |                      size: 16 0x2f0-0x2f4 (4)
0x2f0|            73 6d 68 64                        |    smhd        |                      type: "smhd" (Sound media header, overall information (sound track only)) 0x2f4-0x2f8 (4)
0x2f0|                        00                     |        .       |                      version: 0 0x2f8-0x2f9 (1)
0x2f0|                           00 00 00            |         ...    |                      flags: 0 0x2f9-0x2fc (3)
0x2f0|                                    00 00      |            ..  |                      balance: 0 0x2fc-0x2fe (2)
0x2f0|                                          00 00|              ..|                      reserved: 0 0x2fe-0x300 (2)
     |                                               |                |                    [1]{}: box 0x300-0x324 (36)
0x300|00 00 00 24                                    |...$            |                      size: 36 0x300-0x304 (4)
0x300|            64 69 6e 66                        |    dinf        |                      type: "dinf" (Data information box, container) 0x304-0x308 (4)
     |                                               |                |                      boxes[0:1]: 0x308-0x324 (28)
     |                                               |                |                        [0]{}: box 0x308-0x324 (28)
0x300|                        00 00 00 1c            |        ....    |                          size: 28 0x308-0x30c (4)
0x300|                                    64 72 65 66|            dref|                          type: "dref" (Data reference box, declares source(s) of media data in track) 0x30c-0x310 (4)
0x310|00                                             |.               |                          version: 0 0x310-0x311 (1)
0x310|   00 00 00                                    | ...            |                          flags: 0 0x311-0x314 (3)
0x310|            00 00 00 01                        |    ....        |                          entry_count: 1 0x314-0x318 (4)
     |                                               |                |                          boxes[0:1]: 0x318-0x324 (12)
     |                                               |                |                            [0]{}: box 0x318-0x324 (12)
0x310|                        00 00 00 0c            |        ....    |                              size: 12 0x318-0x31c (4)
0x310|                                    75 72 6c 20|            url |                              type: "url" 0x31c-0x320 (4)
0x320|00                                             |.               |                              version: 0 0x320-0x321 (1)
0x320|   00 00 01                                    | ...            |                              flags: 1 0x321-0x324 (3)
     |                                               |                |                              data: "" 0x324-0x324 (0)
     |                                               |                |                    [2]{}: box 0x324-0x3d7 (179)
0x320|            00 00 00 b3                        |    ....        |                      size: 179 0x324-0x328 (4)
0x320|                        73 74 62 6c            |        stbl    |                      type: "stbl" (Sample table box, container for the time/space map) 0x328-0x32c (4)
     |                                               |                |                      boxes[0:5]: 0x32c-0x3d7 (171)
     |                                               |                |                        [0]{}: box 0x32c-0x373 (71)
0x320|                                    00 00 00 47|            ...G|                          size: 71 0x32c-0x330 (4)
0x330|73 74 73 64                                    |stsd            |                          type: "stsd" (Sample descriptions (codec types, initialization etc.)) 0x330-0x334 (4)
0x330|            00                                 |    .           |                          version: 0 0x334-0x335 (1)
0x330|               00 00 00                        |     ...        |                          flags: 0 0x335-0x338 (3)
0x330|                        00 00 00 01            |        ....    |                          entry_count: 1 0x338-0x33c (4)
     |                                               |                |                          boxes[0:1]: 0x33c-0x373 (55)
     |                                               |                |                            [0]{}: box 0x33c-0x373 (55)
0x330|                                    00 00 00 37|            ...7|                              size: 55 0x33c-0x340 (4)
0x340|4f 70 75 73                                    |Opus            |                              type: "Opus" (Opus audio coding) 0x340-0x344 (4)
0x340|            00 00 00 00 00 00                  |    ......      |                              reserved: raw bits 0x344-0x34a (6)
0x340|                              00 01            |          ..    |                              data_reference_index: 1 0x34a-0x34c (2)
0x340|                                    00 00      |            ..  |                              version: 0 0x34c-0x34e (2)
0x340|                                          00 00|              ..|                              revision_level: 0 0x34e-0x350 (2)
0x350|00 00 00 00                                    |....            |                              max_packet_size: 0 0x350-0x354 (4)
0x350|            00 01                              |    ..          |                              num_audio_channels: 1 0x354-0x356 (2)
0x350|                  00 10                        |      ..        |                              sample_size: 16 0x356-0x358 (2)
0x350|                        00 00                  |        ..      |                              compression_id: 0 0x358-0x35a (2)
0x350|                              00 00            |          ..    |                              packet_size: 0 0x35a-0x35c (2)
0x350|                                    bb 80 00 00|            ....|                              sample_rate: 48000 0x35c-0x360 (4)
     |                                               |                |                              boxes[0:1]: 0x360-0x373 (19)
     |                                               |                |                                [0]{}: box 0x360-0x373 (19)
0x360|00 00 00 13                                    |....            |                                  size: 19 0x360-0x364 (4)
0x360|            64 4f 70 73                        |    dOps        |                                  type: "dOps" 0x364-0x368 (4)
     |00 01 02 03 04 05 06 07 08 09 0a 0b 0c 0d 0e 0f|0123456789abcdef|                                  descriptor{}: (opus_packet) 0x368-0x373 (11)
     |                                               |                |                                    type: "audio"
     |                                               |                |                                    toc{}: 0x368-0x373 (11)
     |                                               |                |                                      config{}: 0x368-0x368.5 (0.5)
0x360|                        00                     |        .       |                                        config: 0 0x368-0x368.5 (0.5)
     |                                               |                |                                        mode: "silk_only"
     |                                               |                |                                        bandwidth: "nb"
     |                                               |                |                                        frame_size: 10
0x360|                        00                     |        .       |                                      stereo: false 0x368.5-0x368.6 (0.1)
     |                                               |                |                                      frames_per_packet{}: 0x368.6-0x369 (0.2)
0x360|                        00                     |        .       |                                        config: 0 0x368.6-0x369 (0.2)
     |                                               |                |                                        frames: 1
     |                                               |                |                                        mode: "1 frame"
0x360|                           01 00 78 00 00 bb 80|         ..x....|                                      data: raw bits 0x369-0x373 (10)
0x370|00 00 00                                       |...             |
     |                                               |                |                        [1]{}: box 0x373-0x393 (32)
0x370|         00 00 00 20                           |   ...          |                          size: 32 0x373-0x377 (4)
0x370|                     73 74 74 73               |       stts     |                          type: "stts" (Sample time-to-sample) 0x377-0x37b (4)
0x370|                                 00            |           .    |                          version: 0 0x37b-0x37c (1)
0x370|                                    00 00 00   |            ... |                          flags: 0 0x37c-0x37f (3)
0x370|                                             00|               .|                          entry_count: 2 0x37f-0x383 (4)
0x380|00 00 02                                       |...             |
     |                                               |                |                          entries[0:2]: 0x383-0x393 (16)
     |                                               |                |                            [0]{}: entry 0x383-0x38b (8)
0x380|         00 00 00 02                           |   ....         |                              count: 2 0x383-0x387 (4)
0x380|                     00 00 03 c0               |       ....     |                              delta: 960 0x387-0x38b (4)
     |                                               |                |                            [1]{}: entry 0x38b-0x393 (8)
0x380|                                 00 00 00 01   |           .... |                              count: 1 0x38b-0x38f (4)
0x380|                                             00|               .|                              delta: 600 0x38f-0x393 (4)
0x390|00 02 58                                       |..X             |
     |                                               |                |                        [2]{}: box 0x393-0x3af (28)
0x390|         00 00 00 1c                           |   ....         |                          size: 28 0x393-0x397 (4)
0x390|                     73 74 73 63               |       stsc     |                          type: "stsc" (Sample-to-chunk, partial data-offset information) 0x397-0x39b (4)
0x390|                                 00            |           .    |                          version: 0 0x39b-0x39c (1)
0x390|                                    00 00 00   |            ... |                          flags: 0 0x39c-0x39f (3)
0x390|                                             00|               .|                          entry_count: 1 0x39f-0x3a3 (4)
0x3a0|00 00 01                                       |...             |
     |                                               |                |                          entries[0:1]: 0x3a3-0x3af (12)
     |                                               |                |                            [0]{}: entry 0x3a3-0x3af (12)
0x3a0|         00 00 00 01                           |   ....         |                              first_chunk: 1 0x3a3-0x3a7 (4)
0x3a0|                     00 00 00 03               |       ....     |                              samples_per_chunk: 3 0x3a7-0x3ab (4)
0x3a0|                                 00 00 00 01   |           .... |                              sample_description_id: 1 0x3ab-0x3af (4)
     |                                               |                |                        [3]{}: box 0x3af-0x3c3 (20)
0x3a0|                                             00|               .|                          size: 20 0x3af-0x3b3 (4)
0x3b0|00 00 14                                       |...             |
0x3b0|         73 74 73 7a                           |   stsz         |                          type: "stsz" (Sample sizes (framing)) 0x3b3-0x3b7 (4)
0x3b0|                     00                        |       .        |                          version: 0 0x3b7-0x3b8 (1)
0x3b0|                        00 00 00               |        ...     |                          flags: 0 0x3b8-0x3bb (3)
0x3b0|                                 00 00 00 79   |           ...y |                          sample_size: 121 0x3bb-0x3bf (4)
0x3b0|                                             00|               .|                          entry_count: 3 0x3bf-0x3c3 (4)
0x3c0|00 00 03                                       |...             |
     |                                               |                |                        [4]{}: box 0x3c3-0x3d7 (20)
0x3c0|         00 00 00 14                           |   ....         |                          size: 20 0x3c3-0x3c7 (4)
0x3c0|                     73 74 63 6f               |       stco     |                          type: "stco" (Chunk offset, partial data-offset information) 0x3c7-0x3cb (4)
0x3c0|                                 00            |           .    |                          version: 0 0x3cb-0x3cc (1)
0x3c0|                                    00 00 00   |            ... |                          flags: 0 0x3cc-0x3cf (3)
0x3c0|                                             00|               .|                          entry_count: 1 0x3cf-0x3d3 (4)
0x3d0|00 00 01                                       |...             |
     |                                               |                |                          entries[0:1]: 0x3d3-0x3d7 (4)
0x3d0|         00 00 00 2c                           |   ...,         |                            [0]: 44 chunk_offset 0x3d3-0x3d7 (4)
     |                                               |                |        [2]{}: box 0x3d7-0x439 (98)
0x3d0|                     00 00 00 62               |       ...b     |          size: 98 0x3d7-0x3db (4)
0x3d0|                                 75 64 74 61   |           udta |          type: "udta" (User-data) 0x3db-0x3df (4)
     |                                               |                |          boxes[0:1]: 0x3df-0x439 (90)
     |                                               |                |            [0]{}: box 0x3df-0x439 (90)
0x3d0|                                             00|               .|              size: 90 0x3df-0x3e3 (4)
0x3e0|00 00 5a                                       |..Z             |
0x3e0|         6d 65 74 61                           |   meta         |              type: "meta" (Metadata container) 0x3e3-0x3e7 (4)
0x3e0|                     00 00 00 00               |       ....     |              maybe_flags: 0 0x3e7-0x3eb (4)
     |                                               |                |              boxes[0:2]: 0x3eb-0x439 (78)
     |                                               |                |                [0]{}: box 0x3eb-0x40c (33)
0x3e0|                                 00 00 00 21   |           ...! |                  size: 33 0x3eb-0x3ef (4)
0x3e0|                                             68|               h|                  type: "hdlr" (Handler, declares the media (handler) type) 0x3ef-0x3f3 (4)
0x3f0|64 6c 72                                       |dlr             |
0x3f0|         00                                    |   .            |                  version: 0 0x3f3-0x3f4 (1)
0x3f0|            00 00 00                           |    ...         |                  flags: 0 0x3f4-0x3f7 (3)
0x3f0|                     00 00 00 00               |       ....     |                  component_type: "" 0x3f7-0x3fb (4)
0x3f0|                                 6d 64 69 72   |           mdir |                  component_subtype: "mdir" (Metadata) 0x3fb-0x3ff (4)
0x3f0|                                             61|               a|                  component_manufacturer: "appl" 0x3ff-0x403 (4)
0x400|70 70 6c                                       |ppl             |
0x400|         00 00 00 00                           |   ....         |                  component_flags: 0 0x403-0x407 (4)
0x400|                     00 00 00 00               |       ....     |                  component_flags_mask: 0 0x407-0x40b (4)
0x400|                                 00            |           .    |                  component_name: "" 0x40b-0x40c (1)
     |                                               |                |                [1]{}: box 0x40c-0x439 (45)
0x400|                                    00 00 00 2d|            ...-|                  size: 45 0x40c-0x410 (4)
0x410|69 6c 73 74                                    |ilst            |                  type: "ilst" 0x410-0x414 (4)
     |                                               |                |                  boxes[0:1]: 0x414-0x439 (37)
     |                                               |                |                    [0]{}: box 0x414-0x439 (37)
0x410|            00 00 00 25                        |    ...%        |                      size: 37 0x414-0x418 (4)
0x410|                        a9 74 6f 6f            |        .too    |                      type: "©too" (Encoder) 0x418-0x41c (4)
     |                                               |                |                      boxes[0:1]: 0x41c-0x439 (29)
     |                                               |                |                        [0]{}: box 0x41c-0x439 (29)
0x410|                                    00 00 00 1d|            ....|                          size: 29 0x41c-0x420 (4)
0x420|64 61 74 61                                    |data            |                          type: "data" 0x420-0x424 (4)
0x420|            00                                 |    .           |                          version: 0 0x424-0x425 (1)
0x420|               00 00 01                        |     ...        |                          flags: 1 0x425-0x428 (3)
0x420|                        00 00 00 00            |        ....    |                          reserved: 0 0x428-0x42c (4)
0x420|                                    4c 61 76 66|            Lavf|                          data: "Lavf58.45.100" 0x42c-0x439 (13)
0x430|35 38 2e 34 35 2e 31 30 30|                    |58.45.100|      |
     |                                               |                |  tracks[0:1]: 0x2c-0x197 (363)
     |                                               |                |    [0]{}: track 0x2c-0x197 (363)
     |                                               |                |      samples[0:3]: 0x2c-0x197 (363)
     |00 01 02 03 04 05 06 07 08 09 0a 0b 0c 0d 0e 0f|0123456789abcdef|        [0]{}: sample (opus_packet) 0x2c-0xa5 (121)
     |                                               |                |          type: "audio"
     |                                               |                |          toc{}: 0x2c-0xa5 (121)
     |                                               |                |            config{}: 0x2c-0x2c.5 (0.5)
0x020|                                    f8         |            .   |              config: 31 0x2c-0x2c.5 (0.5)
     |                                               |                |              mode: "celt_only"
     |                                               |                |              bandwidth: "fb"
     |                                               |                |              frame_size: 20
0x020|                                    f8         |            .   |            stereo: false 0x2c.5-0x2c.6 (0.1)
     |                                               |                |            frames_per_packet{}: 0x2c.6-0x2d (0.2)
0x020|                                    f8         |            .   |              config: 0 0x2c.6-0x2d (0.2)
     |                                               |                |              frames: 1
     |                                               |                |              mode: "1 frame"
0x020|                                       22 28 75|             "(u|            data: raw bits 0x2d-0xa5 (120)
0x030|68 a8 dd 59 43 1b ff 52 f3 16 f1 48 28 77 86 10|h..YC..R...H(w..|
*    |until 0xa4.7 (120)                             |                |
     |00 01 02 03 04 05 06 07 08 09 0a 0b 0c 0d 0e 0f|0123456789abcdef|        [1]{}: sample (opus_packet) 0xa5-0x11e (121)
     |                                               |                |          type: "audio"
     |                                               |                |          toc{}: 0xa5-0x11e (121)
     |                                               |                |            config{}: 0xa5-0xa5.5 (0.5)
0x0a0|               f8                              |     .          |              config: 31 0xa5-0xa5.5 (0.5)
     |                                               |                |              mode: "celt_only"
     |                                               |                |              bandwidth: "fb"
     |                                               |                |              frame_size: 20
0x0a0|               f8                              |     .          |            stereo: false 0xa5.5-0xa5.6 (0.1)
     |                                               |                |            frames_per_packet{}: 0xa5.6-0xa6 (0.2)
0x0a0|               f8                              |     .          |              config: 0 0xa5.6-0xa6 (0.2)
     |                                               |                |              frames: 1
     |                                               |                |              mode: "1 frame"
0x0a0|                  72 47 b1 0e a7 fd 3d f8 50 12|      rG....=.P.|            data: raw bits 0xa6-0x11e (120)
0x0b0|6b 43 42 1f 6c 7a 79 fd 55 31 51 77 1e 83 00 6c|kCB.lzy.U1Qw...l|
*    |until 0x11d.7 (120)                            |                |
     |00 01 02 03 04 05 06 07 08 09 0a 0b 0c 0d 0e 0f|0123456789abcdef|        [2]{}: sample (opus_packet) 0x11e-0x197 (121)
     |                                               |                |          type: "audio"
     |                                               |                |          toc{}: 0x11e-0x197 (121)
     |                                               |                |            config{}: 0x11e-0x11e.5 (0.5)
0x110|                                          f8   |              . |              config: 31 0x11e-0x11e.5 (0.5)
     |                                               |                |              mode: "celt_only"
     |                                               |                |              bandwidth: "fb"
     |                                               |                |              frame_size: 20
0x110|                                          f8   |              . |            stereo: false 0x11e.5-0x11e.6 (0.1)
     |                                               |                |            frames_per_packet{}: 0x11e.6-0x11f (0.2)
0x110|                                          f8   |              . |              config: 0 0x11e.6-0x11f (0.2)
     |                                               |                |              frames: 1
     |                                               |                |              mode: "1 frame"
0x110|                                             18|               .|            data: raw bits 0x11f-0x197 (120)
0x120|02 cc 49 57 27 d4 a3 83 e9 53 33 fe 45 62 33 33|..IW'....S3.Eb33|
*    |until 0x196.7 (120)                            |                |
     |                                               |                |      id: 1
     |                                               |                |      data_format: "Opus" (Opus audio coding)
