$ fq -o force=true '"000000147064696e00000000003087ca00000000" | fromhex | mp4 | dv'
    |00 01 02 03 04 05 06 07 08 09 0a 0b 0c 0d 0e 0f|0123456789abcdef|.{}: (mp4) 0x0-0x13.7 (20)
    |                                               |                |  boxes[0:1]: 0x0-0x13.7 (20)
    |                                               |                |    [0]{}: box 0x0-0x13.7 (20)
0x00|00 00 00 14                                    |....            |      size: 20 0x0-0x3.7 (4)
0x00|            70 64 69 6e                        |    pdin        |      type: "pdin" (Progressive download information) 0x4-0x7.7 (4)
0x00|                        00                     |        .       |      version: 0 0x8-0x8.7 (1)
0x00|                           00 00 00            |         ...    |      flags: 0 0x9-0xb.7 (3)
    |                                               |                |      entries[0:1]: 0xc-0x13.7 (8)
    |                                               |                |        [0]{}: entry 0xc-0x13.7 (8)
0x00|                                    00 30 87 ca|            .0..|          rate: 3180490 0xc-0xf.7 (4)
0x10|00 00 00 00|                                   |....|           |          initial_delay: 0 0x10-0x13.7 (4)
