# ffmpeg -f lavfi -i testsrc=size=2x2 -c:v png -t 10ms png.mp4
$ fq dv png.mp4
     |00 01 02 03 04 05 06 07 08 09 0a 0b 0c 0d 0e 0f|0123456789abcdef|.{}: png.mp4 (mp4) 0x0-0x3a0 (928)
     |                                               |                |  boxes[0:4]: 0x0-0x3a0 (928)
     |                                               |                |    [0]{}: box 0x0-0x1c (28)
0x000|00 00 00 1c                                    |....            |      size: 28 0x0-0x4 (4)
0x000|            66 74 79 70                        |    ftyp        |      type: "ftyp" (File type and compatibility) 0x4-0x8 (4)
0x000|                        69 73 6f 6d            |        isom    |      major_brand: "isom" 0x8-0xc (4)
0x000|                                    00 00 02 00|            ....|      minor_version: 512 0xc-0x10 (4)
     |                                               |                |      brands[0:3]: 0x10-0x1c (12)
0x010|69 73 6f 6d                                    |isom            |        [0]: "isom" brand (All files based on the ISO Base Media File Format) 0x10-0x14 (4)
0x010|            69 73 6f 32                        |    iso2        |        [1]: "iso2" brand (All files based on the 2004 edition of the ISO file format) 0x14-0x18 (4)
0x010|                        6d 70 34 31            |        mp41    |        [2]: "mp41" brand (MP4 version 1) 0x18-0x1c (4)
     |                                               |                |    [1]{}: box 0x1c-0x24 (8)
0x010|                                    00 00 00 08|            ....|      size: 8 0x1c-0x20 (4)
0x020|66 72 65 65                                    |free            |      type: "free" (Free space) 0x20-0x24 (4)
     |                                               |                |      data: raw bits 0x24-0x24 (0)
     |                                               |                |    [2]{}: box 0x24-0x89 (101)
0x020|            00 00 00 65                        |    ...e        |      size: 101 0x24-0x28 (4)
0x020|                        6d 64 61 74            |        mdat    |      type: "mdat" (Media data container) 0x28-0x2c (4)
0x020|                                    89 50 4e 47|            .PNG|      data: raw bits 0x2c-0x89 (93)
0x030|0d 0a 1a 0a 00 00 00 0d 49 48 44 52 00 00 00 02|........IHDR....|
*    |until 0x88.7 (93)                              |                |
     |                                               |                |    [3]{}: box 0x89-0x3a0 (791)
0x080|                           00 00 03 17         |         ....   |      size: 791 0x89-0x8d (4)
0x080|                                       6d 6f 6f|             moo|      type: "moov" (Container for all the meta-data) 0x8d-0x91 (4)
0x090|76                                             |v               |
     |                                               |                |      boxes[0:3]: 0x91-0x3a0 (783)
     |                                               |                |        [0]{}: box 0x91-0xfd (108)
0x090|   00 00 00 6c                                 | ...l           |          size: 108 0x91-0x95 (4)
0x090|               6d 76 68 64                     |     mvhd       |          type: "mvhd" (Movie header, overall declarations) 0x95-0x99 (4)
0x090|                           00                  |         .      |          version: 0 0x99-0x9a (1)
0x090|                              00 00 00         |          ...   |          flags: 0 0x9a-0x9d (3)
0x090|                                       00 00 00|             ...|          creation_time: 0 (1904-01-01T00:00:00Z) 0x9d-0xa1 (4)
0x0a0|00                                             |.               |
0x0a0|   00 00 00 00                                 | ....           |          modification_time: 0 (1904-01-01T00:00:00Z) 0xa1-0xa5 (4)
0x0a0|               00 00 03 e8                     |     ....       |          time_scale: 1000 0xa5-0xa9 (4)
0x0a0|                           00 00 00 28         |         ...(   |          duration: 40 0xa9-0xad (4)
0x0a0|                                       00 01 00|             ...|          preferred_rate: 1 0xad-0xb1 (4)
0x0b0|00                                             |.               |
0x0b0|   01 00                                       | ..             |          preferred_volume: 1 0xb1-0xb3 (2)
0x0b0|         00 00 00 00 00 00 00 00 00 00         |   ..........   |          reserved: "\x00\x00\x00\x00\x00\x00\x00\x00\x00\x00" 0xb3-0xbd (10)
     |                                               |                |          matrix_structure{}: 0xbd-0xe1 (36)
0x0b0|                                       00 01 00|             ...|            a: 1 0xbd-0xc1 (4)
0x0c0|00                                             |.               |
0x0c0|   00 00 00 00                                 | ....           |            b: 0 0xc1-0xc5 (4)
0x0c0|               00 00 00 00                     |     ....       |            u: 0 0xc5-0xc9 (4)
0x0c0|                           00 00 00 00         |         ....   |            c: 0 0xc9-0xcd (4)
0x0c0|                                       00 01 00|             ...|            d: 1 0xcd-0xd1 (4)
0x0d0|00                                             |.               |
0x0d0|   00 00 00 00                                 | ....           |            v: 0 0xd1-0xd5 (4)
0x0d0|               00 00 00 00                     |     ....       |            x: 0 0xd5-0xd9 (4)
0x0d0|                           00 00 00 00         |         ....   |            y: 0 0xd9-0xdd (4)
0x0d0|                                       40 00 00|             @..|            w: 1 0xdd-0xe1 (4)
0x0e0|00                                             |.               |
0x0e0|   00 00 00 00                                 | ....           |          preview_time: 0 0xe1-0xe5 (4)
0x0e0|               00 00 00 00                     |     ....       |          preview_duration: 0 0xe5-0xe9 (4)
0x0e0|                           00 00 00 00         |         ....   |          poster_time: 0 0xe9-0xed (4)
0x0e0|                                       00 00 00|             ...|          selection_time: 0 0xed-0xf1 (4)
0x0f0|00                                             |.               |
0x0f0|   00 00 00 00                                 | ....           |          selection_duration: 0 0xf1-0xf5 (4)
0x0f0|               00 00 00 00                     |     ....       |          current_time: 0 0xf5-0xf9 (4)
0x0f0|                           00 00 00 02         |         ....   |          next_track_id: 2 0xf9-0xfd (4)
     |                                               |                |        [1]{}: box 0xfd-0x33e (577)
0x0f0|                                       00 00 02|             ...|          size: 577 0xfd-0x101 (4)
0x100|41                                             |A               |
0x100|   74 72 61 6b                                 | trak           |          type: "trak" (Container for an individual track or stream) 0x101-0x105 (4)
     |                                               |                |          boxes[0:3]: 0x105-0x33e (569)
     |                                               |                |            [0]{}: box 0x105-0x161 (92)
0x100|               00 00 00 5c                     |     ...\       |              size: 92 0x105-0x109 (4)
0x100|                           74 6b 68 64         |         tkhd   |              type: "tkhd" (Track header, overall information about the track) 0x109-0x10d (4)
0x100|                                       00      |             .  |              version: 0 0x10d-0x10e (1)
     |                                               |                |              flags{}: 0x10e-0x111 (3)
0x100|                                          00 00|              ..|                unused: 0 0x10e-0x110.4 (2.4)
0x110|03                                             |.               |
0x110|03                                             |.               |                size_is_aspect_ratio: false 0x110.4-0x110.5 (0.1)
0x110|03                                             |.               |                in_preview: false 0x110.5-0x110.6 (0.1)
0x110|03                                             |.               |                in_movie: true 0x110.6-0x110.7 (0.1)
0x110|03                                             |.               |                enabled: true 0x110.7-0x111 (0.1)
0x110|   00 00 00 00                                 | ....           |              creation_time: 0 (1904-01-01T00:00:00Z) 0x111-0x115 (4)
0x110|               00 00 00 00                     |     ....       |              modification_time: 0 (1904-01-01T00:00:00Z) 0x115-0x119 (4)
0x110|                           00 00 00 01         |         ....   |              track_id: 1 0x119-0x11d (4)
0x110|                                       00 00 00|             ...|              reserved1: 0 0x11d-0x121 (4)
0x120|00                                             |.               |
0x120|   00 00 00 28                                 | ...(           |              duration: 40 0x121-0x125 (4)
0x120|               00 00 00 00 00 00 00 00         |     ........   |              reserved2: raw bits 0x125-0x12d (8)
0x120|                                       00 00   |             .. |              layer: 0 0x12d-0x12f (2)
0x120|                                             00|               .|              alternate_group: 0 0x12f-0x131 (2)
0x130|00                                             |.               |
0x130|   00 00                                       | ..             |              volume: 0 0x131-0x133 (2)
0x130|         00 00                                 |   ..           |              reserved3: 0 0x133-0x135 (2)
     |                                               |                |              matrix_structure{}: 0x135-0x159 (36)
0x130|               00 01 00 00                     |     ....       |                a: 1 0x135-0x139 (4)
0x130|                           00 00 00 00         |         ....   |                b: 0 0x139-0x13d (4)
0x130|                                       00 00 00|             ...|                u: 0 0x13d-0x141 (4)
0x140|00                                             |.               |
0x140|   00 00 00 00                                 | ....           |                c: 0 0x141-0x145 (4)
0x140|               00 01 00 00                     |     ....       |                d: 1 0x145-0x149 (4)
0x140|                           00 00 00 00         |         ....   |                v: 0 0x149-0x14d (4)
0x140|                                       00 00 00|             ...|                x: 0 0x14d-0x151 (4)
0x150|00                                             |.               |
0x150|   00 00 00 00                                 | ....           |                y: 0 0x151-0x155 (4)
0x150|               40 00 00 00                     |     @...       |                w: 1 0x155-0x159 (4)
0x150|                           00 02 00 00         |         ....   |              track_width: 2 0x159-0x15d (4)
0x150|                                       00 02 00|             ...|              track_height: 2 0x15d-0x161 (4)
0x160|00                                             |.               |
     |                                               |                |            [1]{}: box 0x161-0x185 (36)
0x160|   00 00 00 24                                 | ...$           |              size: 36 0x161-0x165 (4)
0x160|               65 64 74 73                     |     edts       |              type: "edts" (Edit list container) 0x165-0x169 (4)
     |                                               |                |              boxes[0:1]: 0x169-0x185 (28)
     |                                               |                |                [0]{}: box 0x169-0x185 (28)
0x160|                           00 00 00 1c         |         ....   |                  size: 28 0x169-0x16d (4)
0x160|                                       65 6c 73|             els|                  type: "elst" (An edit list) 0x16d-0x171 (4)
0x170|74                                             |t               |
0x170|   00                                          | .              |                  version: 0 0x171-0x172 (1)
0x170|      00 00 00                                 |  ...           |                  flags: 0 0x172-0x175 (3)
0x170|               00 00 00 01                     |     ....       |                  entry_count: 1 0x175-0x179 (4)
     |                                               |                |                  entries[0:1]: 0x179-0x185 (12)
     |                                               |                |                    [0]{}: entry 0x179-0x185 (12)
0x170|                           00 00 00 28         |         ...(   |                      segment_duration: 40 0x179-0x17d (4)
0x170|                                       00 00 00|             ...|                      media_time: 0 0x17d-0x181 (4)
0x180|00                                             |.               |
0x180|   00 01 00 00                                 | ....           |                      media_rate: 1 0x181-0x185 (4)
     |                                               |                |            [2]{}: box 0x185-0x33e (441)
0x180|               00 00 01 b9                     |     ....       |              size: 441 0x185-0x189 (4)
0x180|                           6d 64 69 61         |         mdia   |              type: "mdia" (Container for the media information in a track) 0x189-0x18d (4)
     |                                               |                |              boxes[0:3]: 0x18d-0x33e (433)
     |                                               |                |                [0]{}: box 0x18d-0x1ad (32)
0x180|                                       00 00 00|             ...|                  size: 32 0x18d-0x191 (4)
0x190|20                                             |                |
0x190|   6d 64 68 64                                 | mdhd           |                  type: "mdhd" (Media header, overall information about the media) 0x191-0x195 (4)
0x190|               00                              |     .          |                  version: 0 0x195-0x196 (1)
0x190|                  00 00 00                     |      ...       |                  flags: 0 0x196-0x199 (3)
0x190|                           00 00 00 00         |         ....   |                  creation_time: 0 (1904-01-01T00:00:00Z) 0x199-0x19d (4)
0x190|                                       00 00 00|             ...|                  modification_time: 0 (1904-01-01T00:00:00Z) 0x19d-0x1a1 (4)
0x1a0|00                                             |.               |
0x1a0|   00 00 32 00                                 | ..2.           |                  time_scale: 12800 0x1a1-0x1a5 (4)
0x1a0|               00 00 02 00                     |     ....       |                  duration: 512 0x1a5-0x1a9 (4)
0x1a0|                           55 c4               |         U.     |                  language: "und" 0x1a9-0x1ab (2)
0x1a0|                                 00 00         |           ..   |                  quality: 0 0x1ab-0x1ad (2)
     |                                               |                |                [1]{}: box 0x1ad-0x1da (45)
0x1a0|                                       00 00 00|             ...|                  size: 45 0x1ad-0x1b1 (4)
0x1b0|2d                                             |-               |
0x1b0|   68 64 6c 72                                 | hdlr           |                  type: "hdlr" (Handler, declares the media (handler) type) 0x1b1-0x1b5 (4)
0x1b0|               00                              |     .          |                  version: 0 0x1b5-0x1b6 (1)
0x1b0|                  00 00 00                     |      ...       |                  flags: 0 0x1b6-0x1b9 (3)
0x1b0|                           00 00 00 00         |         ....   |                  component_type: "" 0x1b9-0x1bd (4)
0x1b0|                                       76 69 64|             vid|                  component_subtype: "vide" (Video Track) 0x1bd-0x1c1 (4)
0x1c0|65                                             |e               |
0x1c0|   00 00 00 00                                 | ....           |                  component_manufacturer: "" 0x1c1-0x1c5 (4)
0x1c0|               00 00 00 00                     |     ....       |                  component_flags: 0 0x1c5-0x1c9 (4)
0x1c0|                           00 00 00 00         |         ....   |                  component_flags_mask: 0 0x1c9-0x1cd (4)
0x1c0|                                       56 69 64|             Vid|                  component_name: "VideoHandler" 0x1cd-0x1da (13)
0x1d0|65 6f 48 61 6e 64 6c 65 72 00                  |eoHandler.      |
     |                                               |                |                [2]{}: box 0x1da-0x33e (356)
0x1d0|                              00 00 01 64      |          ...d  |                  size: 356 0x1da-0x1de (4)
0x1d0|                                          6d 69|              mi|                  type: "minf" (Media information container) 0x1de-0x1e2 (4)
0x1e0|6e 66                                          |nf              |
     |                                               |                |                  boxes[0:3]: 0x1e2-0x33e (348)
     |                                               |                |                    [0]{}: box 0x1e2-0x1f6 (20)
0x1e0|      00 00 00 14                              |  ....          |                      size: 20 0x1e2-0x1e6 (4)
0x1e0|                  76 6d 68 64                  |      vmhd      |                      type: "vmhd" (Video media header, overall information (video track only)) 0x1e6-0x1ea (4)
0x1e0|                              00               |          .     |                      version: 0 0x1ea-0x1eb (1)
0x1e0|                                 00 00 01      |           ...  |                      flags: 1 0x1eb-0x1ee (3)
0x1e0|                                          00 00|              ..|                      graphicsmode: 0 0x1ee-0x1f0 (2)
     |                                               |                |                      opcolor[0:3]: 0x1f0-0x1f6 (6)
0x1f0|00 00                                          |..              |                        [0]: 0 value 0x1f0-0x1f2 (2)
0x1f0|      00 00                                    |  ..            |                        [1]: 0 value 0x1f2-0x1f4 (2)
0x1f0|            00 00                              |    ..          |                        [2]: 0 value 0x1f4-0x1f6 (2)
     |                                               |                |                    [1]{}: box 0x1f6-0x21a (36)
0x1f0|                  00 00 00 24                  |      ...$      |                      size: 36 0x1f6-0x1fa (4)
0x1f0|                              64 69 6e 66      |          dinf  |                      type: "dinf" (Data information box, container) 0x1fa-0x1fe (4)
     |                                               |                |                      boxes[0:1]: 0x1fe-0x21a (28)
     |                                               |                |                        [0]{}: box 0x1fe-0x21a (28)
0x1f0|                                          00 00|              ..|                          size: 28 0x1fe-0x202 (4)
0x200|00 1c                                          |..              |
0x200|      64 72 65 66                              |  dref          |                          type: "dref" (Data reference box, declares source(s) of media data in track) 0x202-0x206 (4)
0x200|                  00                           |      .         |                          version: 0 0x206-0x207 (1)
0x200|                     00 00 00                  |       ...      |                          flags: 0 0x207-0x20a (3)
0x200|                              00 00 00 01      |          ....  |                          entry_count: 1 0x20a-0x20e (4)
     |                                               |                |                          boxes[0:1]: 0x20e-0x21a (12)
     |                                               |                |                            [0]{}: box 0x20e-0x21a (12)
0x200|                                          00 00|              ..|                              size: 12 0x20e-0x212 (4)
0x210|00 0c                                          |..              |
0x210|      75 72 6c 20                              |  url           |                              type: "url" 0x212-0x216 (4)
0x210|                  00                           |      .         |                              version: 0 0x216-0x217 (1)
0x210|                     00 00 01                  |       ...      |                              flags: 1 0x217-0x21a (3)
     |                                               |                |                              data: "" 0x21a-0x21a (0)
     |                                               |                |                    [2]{}: box 0x21a-0x33e (292)
0x210|                              00 00 01 24      |          ...$  |                      size: 292 0x21a-0x21e (4)
0x210|                                          73 74|              st|                      type: "stbl" (Sample table box, container for the time/space map) 0x21e-0x222 (4)
0x220|62 6c                                          |bl              |
     |                                               |                |                      boxes[0:5]: 0x222-0x33e (284)
     |                                               |                |                        [0]{}: box 0x222-0x2e2 (192)
0x220|      00 00 00 c0                              |  ....          |                          size: 192 0x222-0x226 (4)
0x220|                  73 74 73 64                  |      stsd      |                          type: "stsd" (Sample descriptions (codec types, initialization etc.)) 0x226-0x22a (4)
0x220|                              00               |          .     |                          version: 0 0x22a-0x22b (1)
0x220|                                 00 00 00      |           ...  |                          flags: 0 0x22b-0x22e (3)
0x220|                                          00 00|              ..|                          entry_count: 1 0x22e-0x232 (4)
0x230|00 01                                          |..              |
     |                                               |                |                          boxes[0:1]: 0x232-0x2e2 (176)
     |                                               |                |                            [0]{}: box 0x232-0x2e2 (176)
0x230|      00 00 00 b0                              |  ....          |                              size: 176 0x232-0x236 (4)
0x230|                  6d 70 34 76                  |      mp4v      |                              type: "mp4v" (MPEG-4 Visual) 0x236-0x23a (4)
0x230|                              00 00 00 00 00 00|          ......|                              reserved: raw bits 0x23a-0x240 (6)
0x240|00 01                                          |..              |                              data_reference_index: 1 0x240-0x242 (2)
0x240|      00 00                                    |  ..            |                              version: 0 0x242-0x244 (2)
0x240|            00 00                              |    ..          |                              revision_level: 0 0x244-0x246 (2)
0x240|                  00 00 00 00                  |      ....      |                              max_packet_size: 0 0x246-0x24a (4)
0x240|                              00 00 00 00      |          ....  |                              temporal_quality: 0 0x24a-0x24e (4)
0x240|                                          00 00|              ..|                              spatial_quality: 0 0x24e-0x252 (4)
0x250|00 00                                          |..              |
0x250|      00 02                                    |  ..            |                              width: 2 0x252-0x254 (2)
0x250|            00 02                              |    ..          |                              height: 2 0x254-0x256 (2)
0x250|                  00 48 00 00                  |      .H..      |                              horizontal_resolution: 72 0x256-0x25a (4)
0x250|                              00 48 00 00      |          .H..  |                              vertical_resolution: 72 0x25a-0x25e (4)
0x250|                                          00 00|              ..|                              data_size: 0 0x25e-0x262 (4)
0x260|00 00                                          |..              |
0x260|      00 01                                    |  ..            |                              frame_count: 1 0x262-0x264 (2)
0x260|            11 4c 61 76 63 35 39 2e 33 37 2e 31|    .Lavc59.37.1|                              compressor_name: "Lavc59.37.100 png" 0x264-0x284 (32)
0x270|30 30 20 70 6e 67 00 00 00 00 00 00 00 00 00 00|00 png..........|
0x280|00 00 00 00                                    |....            |
0x280|            00 18                              |    ..          |                              depth: 24 0x284-0x286 (2)
0x280|                  ff ff                        |      ..        |                              color_table_id: -1 0x286-0x288 (2)
     |                                               |                |                              boxes[0:4]: 0x288-0x2e2 (90)
     |                                               |                |                                [0]{}: box 0x288-0x2b4 (44)
0x280|                        00 00 00 2c            |        ...,    |                                  size: 44 0x288-0x28c (4)
0x280|                                    65 73 64 73|            esds|                                  type: "esds" (Elementary stream descriptor) 0x28c-0x290 (4)
0x290|00 00 00 00                                    |....            |                                  version: 0 0x290-0x294 (4)
     |00 01 02 03 04 05 06 07 08 09 0a 0b 0c 0d 0e 0f|0123456789abcdef|                                  descriptor{}: (mpeg_es) 0x294-0x2b4 (32)
0x290|            03                                 |    .           |                                    tag_id: "ES_DescrTag" (3) 0x294-0x295 (1)
0x290|               80 80 80 1b                     |     ....       |                                    length: 27 0x295-0x299 (4)
0x290|                           00 01               |         ..     |                                    es_id: 1 0x299-0x29b (2)
0x290|                                 00            |           .    |                                    stream_dependency_flag: false 0x29b-0x29b.1 (0.1)
0x290|                                 00            |           .    |                                    url_flag: false 0x29b.1-0x29b.2 (0.1)
0x290|                                 00            |           .    |                                    ocr_stream_flag: false 0x29b.2-0x29b.3 (0.1)
0x290|                                 00            |           .    |                                    stream_priority: 0 0x29b.3-0x29c (0.5)
     |                                               |                |                                    dec_config_descr{}: 0x29c-0x2ae (18)
0x290|                                    04         |            .   |                                      tag_id: "DecoderConfigDescrTag" (4) 0x29c-0x29d (1)
0x290|                                       80 80 80|             ...|                                      length: 13 0x29d-0x2a1 (4)
0x2a0|0d                                             |.               |
0x2a0|   6d                                          | m              |                                      object_type_indication: "MPEGObjectTypePNG" (109) 0x2a1-0x2a2 (1)
0x2a0|      11                                       |  .             |                                      stream_type: "VisualStream" (4) 0x2a2-0x2a2.6 (0.6)
0x2a0|      11                                       |  .             |                                      upstream: false 0x2a2.6-0x2a2.7 (0.1)
0x2a0|      11                                       |  .             |                                      specific_info_flag: true 0x2a2.7-0x2a3 (0.1)
0x2a0|         00 00 00                              |   ...          |                                      buffer_size_db: 0 0x2a3-0x2a6 (3)
0x2a0|                  00 03 0d 40                  |      ...@      |                                      max_bit_rate: 200000 0x2a6-0x2aa (4)
0x2a0|                              00 00 48 a8      |          ..H.  |                                      avg_bit_rate: 18600 0x2aa-0x2ae (4)
     |                                               |                |                                    sl_config_descr{}: 0x2ae-0x2b4 (6)
0x2a0|                                          06   |              . |                                      tag_id: "SLConfigDescrTag" (6) 0x2ae-0x2af (1)
0x2a0|                                             80|               .|                                      length: 1 0x2af-0x2b3 (4)
0x2b0|80 80 01                                       |...             |
0x2b0|         02                                    |   .            |                                      data: raw bits 0x2b3-0x2b4 (1)
     |                                               |                |                                [1]{}: box 0x2b4-0x2be (10)
0x2b0|            00 00 00 0a                        |    ....        |                                  size: 10 0x2b4-0x2b8 (4)
0x2b0|                        66 69 65 6c            |        fiel    |                                  type: "fiel" (Video field order) 0x2b8-0x2bc (4)
0x2b0|                                    01 00      |            ..  |                                  data: raw bits 0x2bc-0x2be (2)
     |                                               |                |                                [2]{}: box 0x2be-0x2ce (16)
0x2b0|                                          00 00|              ..|                                  size: 16 0x2be-0x2c2 (4)
0x2c0|00 10                                          |..              |
0x2c0|      70 61 73 70                              |  pasp          |                                  type: "pasp" (Pixel aspect ratio) 0x2c2-0x2c6 (4)
0x2c0|                  00 00 00 01                  |      ....      |                                  h_spacing: 1 0x2c6-0x2ca (4)
0x2c0|                              00 00 00 01      |          ....  |                                  v_spacing: 1 0x2ca-0x2ce (4)
     |                                               |                |                                [3]{}: box 0x2ce-0x2e2 (20)
0x2c0|                                          00 00|              ..|                                  size: 20 0x2ce-0x2d2 (4)
0x2d0|00 14                                          |..              |
0x2d0|      62 74 72 74                              |  btrt          |                                  type: "btrt" (Bitrate) 0x2d2-0x2d6 (4)
0x2d0|                  00 00 00 00                  |      ....      |                                  decoding_buffer_size: 0 0x2d6-0x2da (4)
0x2d0|                              00 03 0d 40      |          ...@  |                                  max_bitrate: 200000 0x2da-0x2de (4)
0x2d0|                                          00 00|              ..|                                  avg_bitrate: 18600 0x2de-0x2e2 (4)
0x2e0|48 a8                                          |H.              |
     |                                               |                |                        [1]{}: box 0x2e2-0x2fa (24)
0x2e0|      00 00 00 18                              |  ....          |                          size: 24 0x2e2-0x2e6 (4)
0x2e0|                  73 74 74 73                  |      stts      |                          type: "stts" (Sample time-to-sample) 0x2e6-0x2ea (4)
0x2e0|                              00               |          .     |                          version: 0 0x2ea-0x2eb (1)
0x2e0|                                 00 00 00      |           ...  |                          flags: 0 0x2eb-0x2ee (3)
0x2e0|                                          00 00|              ..|                          entry_count: 1 0x2ee-0x2f2 (4)
0x2f0|00 01                                          |..              |
     |                                               |                |                          entries[0:1]: 0x2f2-0x2fa (8)
     |                                               |                |                            [0]{}: entry 0x2f2-0x2fa (8)
0x2f0|      00 00 00 01                              |  ....          |                              count: 1 0x2f2-0x2f6 (4)
0x2f0|                  00 00 02 00                  |      ....      |                              delta: 512 0x2f6-0x2fa (4)
     |                                               |                |                        [2]{}: box 0x2fa-0x316 (28)
0x2f0|                              00 00 00 1c      |          ....  |                          size: 28 0x2fa-0x2fe (4)
0x2f0|                                          73 74|              st|                          type: "stsc" (Sample-to-chunk, partial data-offset information) 0x2fe-0x302 (4)
0x300|73 63                                          |sc              |
0x300|      00                                       |  .             |                          version: 0 0x302-0x303 (1)
0x300|         00 00 00                              |   ...          |                          flags: 0 0x303-0x306 (3)
0x300|                  00 00 00 01                  |      ....      |                          entry_count: 1 0x306-0x30a (4)
     |                                               |                |                          entries[0:1]: 0x30a-0x316 (12)
     |                                               |                |                            [0]{}: entry 0x30a-0x316 (12)
0x300|                              00 00 00 01      |          ....  |                              first_chunk: 1 0x30a-0x30e (4)
0x300|                                          00 00|              ..|                              samples_per_chunk: 1 0x30e-0x312 (4)
0x310|00 01                                          |..              |
0x310|      00 00 00 01                              |  ....          |                              sample_description_id: 1 0x312-0x316 (4)
     |                                               |                |                        [3]{}: box 0x316-0x32a (20)
0x310|                  00 00 00 14                  |      ....      |                          size: 20 0x316-0x31a (4)
0x310|                              73 74 73 7a      |          stsz  |                          type: "stsz" (Sample sizes (framing)) 0x31a-0x31e (4)
0x310|                                          00   |              . |                          version: 0 0x31e-0x31f (1)
0x310|                                             00|               .|                          flags: 0 0x31f-0x322 (3)
0x320|00 00                                          |..              |
0x320|      00 00 00 5d                              |  ...]          |                          sample_size: 93 0x322-0x326 (4)
0x320|                  00 00 00 01                  |      ....      |                          entry_count: 1 0x326-0x32a (4)
     |                                               |                |                        [4]{}: box 0x32a-0x33e (20)
0x320|                              00 00 00 14      |          ....  |                          size: 20 0x32a-0x32e (4)
0x320|                                          73 74|              st|                          type: "stco" (Chunk offset, partial data-offset information) 0x32e-0x332 (4)
0x330|63 6f                                          |co              |
0x330|      00                                       |  .             |                          version: 0 0x332-0x333 (1)
0x330|         00 00 00                              |   ...          |                          flags: 0 0x333-0x336 (3)
0x330|                  00 00 00 01                  |      ....      |                          entry_count: 1 0x336-0x33a (4)
     |                                               |                |                          entries[0:1]: 0x33a-0x33e (4)
0x330|                              00 00 00 2c      |          ...,  |                            [0]: 44 chunk_offset 0x33a-0x33e (4)
     |                                               |                |        [2]{}: box 0x33e-0x3a0 (98)
0x330|                                          00 00|              ..|          size: 98 0x33e-0x342 (4)
0x340|00 62                                          |.b              |
0x340|      75 64 74 61                              |  udta          |          type: "udta" (User-data) 0x342-0x346 (4)
     |                                               |                |          boxes[0:1]: 0x346-0x3a0 (90)
     |                                               |                |            [0]{}: box 0x346-0x3a0 (90)
0x340|                  00 00 00 5a                  |      ...Z      |              size: 90 0x346-0x34a (4)
0x340|                              6d 65 74 61      |          meta  |              type: "meta" (Metadata container) 0x34a-0x34e (4)
0x340|                                          00 00|              ..|              maybe_flags: 0 0x34e-0x352 (4)
0x350|00 00                                          |..              |
     |                                               |                |              boxes[0:2]: 0x352-0x3a0 (78)
     |                                               |                |                [0]{}: box 0x352-0x373 (33)
0x350|      00 00 00 21                              |  ...!          |                  size: 33 0x352-0x356 (4)
0x350|                  68 64 6c 72                  |      hdlr      |                  type: "hdlr" (Handler, declares the media (handler) type) 0x356-0x35a (4)
0x350|                              00               |          .     |                  version: 0 0x35a-0x35b (1)
0x350|                                 00 00 00      |           ...  |                  flags: 0 0x35b-0x35e (3)
0x350|                                          00 00|              ..|                  component_type: "" 0x35e-0x362 (4)
0x360|00 00                                          |..              |
0x360|      6d 64 69 72                              |  mdir          |                  component_subtype: "mdir" (Metadata) 0x362-0x366 (4)
0x360|                  61 70 70 6c                  |      appl      |                  component_manufacturer: "appl" 0x366-0x36a (4)
0x360|                              00 00 00 00      |          ....  |                  component_flags: 0 0x36a-0x36e (4)
0x360|                                          00 00|              ..|                  component_flags_mask: 0 0x36e-0x372 (4)
0x370|00 00                                          |..              |
0x370|      00                                       |  .             |                  component_name: "" 0x372-0x373 (1)
     |                                               |                |                [1]{}: box 0x373-0x3a0 (45)
0x370|         00 00 00 2d                           |   ...-         |                  size: 45 0x373-0x377 (4)
0x370|                     69 6c 73 74               |       ilst     |                  type: "ilst" 0x377-0x37b (4)
     |                                               |                |                  boxes[0:1]: 0x37b-0x3a0 (37)
     |                                               |                |                    [0]{}: box 0x37b-0x3a0 (37)
0x370|                                 00 00 00 25   |           ...% |                      size: 37 0x37b-0x37f (4)
0x370|                                             a9|               .|                      type: "©too" (Encoder) 0x37f-0x383 (4)
0x380|74 6f 6f                                       |too             |
     |                                               |                |                      boxes[0:1]: 0x383-0x3a0 (29)
     |                                               |                |                        [0]{}: box 0x383-0x3a0 (29)
0x380|         00 00 00 1d                           |   ....         |                          size: 29 0x383-0x387 (4)
0x380|                     64 61 74 61               |       data     |                          type: "data" 0x387-0x38b (4)
0x380|                                 00            |           .    |                          version: 0 0x38b-0x38c (1)
0x380|                                    00 00 01   |            ... |                          flags: 1 0x38c-0x38f (3)
0x380|                                             00|               .|                          reserved: 0 0x38f-0x393 (4)
0x390|00 00 00                                       |...             |
0x390|         4c 61 76 66 35 39 2e 32 37 2e 31 30 30|   Lavf59.27.100|                          data: "Lavf59.27.100" 0x393-0x3a0 (13)
     |                                               |                |  tracks[0:1]: 0x2c-0x89 (93)
     |                                               |                |    [0]{}: track 0x2c-0x89 (93)
     |                                               |                |      samples[0:1]: 0x2c-0x89 (93)
     |00 01 02 03 04 05 06 07 08 09 0a 0b 0c 0d 0e 0f|0123456789abcdef|        [0]{}: sample (png) 0x2c-0x89 (93)
0x020|                                    89 50 4e 47|            .PNG|          signature: raw bits (valid) 0x2c-0x34 (8)
0x030|0d 0a 1a 0a                                    |....            |
     |                                               |                |          chunks[0:4]: 0x34-0x89 (85)
     |                                               |                |            [0]{}: chunk 0x34-0x4d (25)
0x030|            00 00 00 0d                        |    ....        |              length: 13 0x34-0x38 (4)
0x030|                        49 48 44 52            |        IHDR    |              type: "IHDR" 0x38-0x3c (4)
0x030|                        49                     |        I       |              ancillary: false 0x38.2-0x38.3 (0.1)
0x030|                           48                  |         H      |              private: false 0x39.2-0x39.3 (0.1)
0x030|                              44               |          D     |              reserved: false 0x3a.2-0x3a.3 (0.1)
0x030|                                 52            |           R    |              safe_to_copy: false 0x3b.2-0x3b.3 (0.1)
0x030|                                    00 00 00 02|            ....|              width: 2 0x3c-0x40 (4)
0x040|00 00 00 02                                    |....            |              height: 2 0x40-0x44 (4)
0x040|            08                                 |    .           |              bit_depth: 8 0x44-0x45 (1)
0x040|               02                              |     .          |              color_type: "rgb" (2) 0x45-0x46 (1)
0x040|                  00                           |      .         |              compression_method: "deflate" (0) 0x46-0x47 (1)
0x040|                     00                        |       .        |              filter_method: "adaptive_filtering" (0) 0x47-0x48 (1)
0x040|                        00                     |        .       |              interlace_method: "none" (0) 0x48-0x49 (1)
0x040|                           fd d4 9a 73         |         ...s   |              crc: 0xfdd49a73 (valid) 0x49-0x4d (4)
     |                                               |                |            [1]{}: chunk 0x4d-0x62 (21)
0x040|                                       00 00 00|             ...|              length: 9 0x4d-0x51 (4)
0x050|09                                             |.               |
0x050|   70 48 59 73                                 | pHYs           |              type: "pHYs" 0x51-0x55 (4)
0x050|   70                                          | p              |              ancillary: true 0x51.2-0x51.3 (0.1)
0x050|      48                                       |  H             |              private: false 0x52.2-0x52.3 (0.1)
0x050|         59                                    |   Y            |              reserved: false 0x53.2-0x53.3 (0.1)
0x050|            73                                 |    s           |              safe_to_copy: true 0x54.2-0x54.3 (0.1)
0x050|               00 00 00 01                     |     ....       |              x_pixels_per_unit: 1 0x55-0x59 (4)
0x050|                           00 00 00 01         |         ....   |              y_pixels_per_unit: 1 0x59-0x5d (4)
0x050|                                       00      |             .  |              unit: 0 0x5d-0x5e (1)
0x050|                                          4f 25|              O%|              crc: 0x4f25c4d6 (valid) 0x5e-0x62 (4)
0x060|c4 d6                                          |..              |
     |                                               |                |            [2]{}: chunk 0x62-0x7d (27)
0x060|      00 00 00 0f                              |  ....          |              length: 15 0x62-0x66 (4)
0x060|                  49 44 41 54                  |      IDAT      |              type: "IDAT" 0x66-0x6a (4)
0x060|                  49                           |      I         |              ancillary: false 0x66.2-0x66.3 (0.1)
0x060|                     44                        |       D        |              private: false 0x67.2-0x67.3 (0.1)
0x060|                        41                     |        A       |              reserved: false 0x68.2-0x68.3 (0.1)
0x060|                           54                  |         T      |              safe_to_copy: false 0x69.2-0x69.3 (0.1)
0x060|                              78 9c 63 60 60 60|          x.c```|              data: raw bits 0x6a-0x79 (15)
0x070|f8 0f c3 ff 01 12 fb 03 fd                     |.........       |
0x070|                           59 a8 83 f3         |         Y...   |              crc: 0x59a883f3 (valid) 0x79-0x7d (4)
     |                                               |                |            [3]{}: chunk 0x7d-0x89 (12)
0x070|                                       00 00 00|             ...|              length: 0 0x7d-0x81 (4)
0x080|00                                             |.               |
0x080|   49 45 4e 44                                 | IEND           |              type: "IEND" 0x81-0x85 (4)
0x080|   49                                          | I              |              ancillary: false 0x81.2-0x81.3 (0.1)
0x080|      45                                       |  E             |              private: false 0x82.2-0x82.3 (0.1)
0x080|         4e                                    |   N            |              reserved: false 0x83.2-0x83.3 (0.1)
0x080|            44                                 |    D           |              safe_to_copy: false 0x84.2-0x84.3 (0.1)
0x080|               ae 42 60 82                     |     .B`.       |              crc: 0xae426082 (valid) 0x85-0x89 (4)
     |                                               |                |      id: 1
     |                                               |                |      data_format: "mp4v" (MPEG-4 Visual)
