# inspired by https://github.com/corkami/pocs/blob/master/mini/mp4.mp4
# ffmpeg -f lavfi -i testsrc=size=2x2 -c:v png -t 10ms png.mp4
# mp4edit --remove 'moov[0]/trak[0]/mdia[0]/hdlr[0]' png.mp4 png_no_hdlr.mp4
$ fq dv png_no_hdlr.mp4
     |00 01 02 03 04 05 06 07 08 09 0a 0b 0c 0d 0e 0f|0123456789abcdef|.{}: png_no_hdlr.mp4 (mp4) 0x0-0x373 (883)
     |                                               |                |  boxes[0:4]: 0x0-0x373 (883)
     |                                               |                |    [0]{}: box 0x0-0x1c (28)
0x000|00 00 00 1c                                    |....            |      size: 28 0x0-0x4 (4)
0x000|            66 74 79 70                        |    ftyp        |      type: "ftyp" (File type and compatibility) 0x4-0x8 (4)
0x000|                        69 73 6f 6d            |        isom    |      major_brand: "isom" 0x8-0xc (4)
0x000|                                    00 00 02 00|            ....|      minor_version: 512 0xc-0x10 (4)
     |                                               |                |      brands[0:3]: 0x10-0x1c (12)
0x010|69 73 6f 6d                                    |isom            |        [0]: "isom" brand (All files based on the ISO Base Media File Format) 0x10-0x14 (4)
0x010|            69 73 6f 32                        |    iso2        |        [1]: "iso2" brand (All files based on the 2004 edition of the ISO file format) 0x14-0x18 (4)
0x010|                        6d 70 34 31            |        mp41    |        [2]: "mp41" brand (MP4 version 1) 0x18-0x1c (4)
     |                                               |                |    [1]{}: box 0x1c-0x24 (8)
0x010|                                    00 00 00 08|            ....|      size: 8 0x1c-0x20 (4)
0x020|66 72 65 65                                    |free            |      type: "free" (Free space) 0x20-0x24 (4)
     |                                               |                |      data: raw bits 0x24-0x24 (0)
     |                                               |                |    [2]{}: box 0x24-0x30e (746)
0x020|            00 00 02 ea                        |    ....        |      size: 746 0x24-0x28 (4)
0x020|                        6d 6f 6f 76            |        moov    |      type: "moov" (Container for all the meta-data) 0x28-0x2c (4)
     |                                               |                |      boxes[0:3]: 0x2c-0x30e (738)
     |                                               |                |        [0]{}: box 0x2c-0x98 (108)
0x020|                                    00 00 00 6c|            ...l|          size: 108 0x2c-0x30 (4)
0x030|6d 76 68 64                                    |mvhd            |          type: "mvhd" (Movie header, overall declarations) 0x30-0x34 (4)
0x030|            00                                 |    .           |          version: 0 0x34-0x35 (1)
0x030|               00 00 00                        |     ...        |          flags: 0 0x35-0x38 (3)
0x030|                        00 00 00 00            |        ....    |          creation_time: 0 (1904-01-01T00:00:00Z) 0x38-0x3c (4)
0x030|                                    00 00 00 00|            ....|          modification_time: 0 (1904-01-01T00:00:00Z) 0x3c-0x40 (4)
0x040|00 00 03 e8                                    |....            |          time_scale: 1000 0x40-0x44 (4)
0x040|            00 00 00 28                        |    ...(        |          duration: 40 0x44-0x48 (4)
0x040|                        00 01 00 00            |        ....    |          preferred_rate: 1 0x48-0x4c (4)
0x040|                                    01 00      |            ..  |          preferred_volume: 1 0x4c-0x4e (2)
0x040|                                          00 00|              ..|          reserved: "\x00\x00\x00\x00\x00\x00\x00\x00\x00\x00" 0x4e-0x58 (10)
0x050|00 00 00 00 00 00 00 00                        |........        |
     |                                               |                |          matrix_structure{}: 0x58-0x7c (36)
0x050|                        00 01 00 00            |        ....    |            a: 1 0x58-0x5c (4)
0x050|                                    00 00 00 00|            ....|            b: 0 0x5c-0x60 (4)
0x060|00 00 00 00                                    |....            |            u: 0 0x60-0x64 (4)
0x060|            00 00 00 00                        |    ....        |            c: 0 0x64-0x68 (4)
0x060|                        00 01 00 00            |        ....    |            d: 1 0x68-0x6c (4)
0x060|                                    00 00 00 00|            ....|            v: 0 0x6c-0x70 (4)
0x070|00 00 00 00                                    |....            |            x: 0 0x70-0x74 (4)
0x070|            00 00 00 00                        |    ....        |            y: 0 0x74-0x78 (4)
0x070|                        40 00 00 00            |        @...    |            w: 1 0x78-0x7c (4)
0x070|                                    00 00 00 00|            ....|          preview_time: 0 0x7c-0x80 (4)
0x080|00 00 00 00                                    |....            |          preview_duration: 0 0x80-0x84 (4)
0x080|            00 00 00 00                        |    ....        |          poster_time: 0 0x84-0x88 (4)
0x080|                        00 00 00 00            |        ....    |          selection_time: 0 0x88-0x8c (4)
0x080|                                    00 00 00 00|            ....|          selection_duration: 0 0x8c-0x90 (4)
0x090|00 00 00 00                                    |....            |          current_time: 0 0x90-0x94 (4)
0x090|            00 00 00 02                        |    ....        |          next_track_id: 2 0x94-0x98 (4)
     |                                               |                |        [1]{}: box 0x98-0x2ac (532)
0x090|                        00 00 02 14            |        ....    |          size: 532 0x98-0x9c (4)
0x090|                                    74 72 61 6b|            trak|          type: "trak" (Container for an individual track or stream) 0x9c-0xa0 (4)
     |                                               |                |          boxes[0:3]: 0xa0-0x2ac (524)
     |                                               |                |            [0]{}: box 0xa0-0xfc (92)
0x0a0|00 00 00 5c                                    |...\            |              size: 92 0xa0-0xa4 (4)
0x0a0|            74 6b 68 64                        |    tkhd        |              type: "tkhd" (Track header, overall information about the track) 0xa4-0xa8 (4)
0x0a0|                        00                     |        .       |              version: 0 0xa8-0xa9 (1)
     |                                               |                |              flags{}: 0xa9-0xac (3)
0x0a0|                           00 00 03            |         ...    |                unused: 0 0xa9-0xab.4 (2.4)
0x0a0|                                 03            |           .    |                size_is_aspect_ratio: false 0xab.4-0xab.5 (0.1)
0x0a0|                                 03            |           .    |                in_preview: false 0xab.5-0xab.6 (0.1)
0x0a0|                                 03            |           .    |                in_movie: true 0xab.6-0xab.7 (0.1)
0x0a0|                                 03            |           .    |                enabled: true 0xab.7-0xac (0.1)
0x0a0|                                    00 00 00 00|            ....|              creation_time: 0 (1904-01-01T00:00:00Z) 0xac-0xb0 (4)
0x0b0|00 00 00 00                                    |....            |              modification_time: 0 (1904-01-01T00:00:00Z) 0xb0-0xb4 (4)
0x0b0|            00 00 00 01                        |    ....        |              track_id: 1 0xb4-0xb8 (4)
0x0b0|                        00 00 00 00            |        ....    |              reserved1: 0 0xb8-0xbc (4)
0x0b0|                                    00 00 00 28|            ...(|              duration: 40 0xbc-0xc0 (4)
0x0c0|00 00 00 00 00 00 00 00                        |........        |              reserved2: raw bits 0xc0-0xc8 (8)
0x0c0|                        00 00                  |        ..      |              layer: 0 0xc8-0xca (2)
0x0c0|                              00 00            |          ..    |              alternate_group: 0 0xca-0xcc (2)
0x0c0|                                    00 00      |            ..  |              volume: 0 0xcc-0xce (2)
0x0c0|                                          00 00|              ..|              reserved3: 0 0xce-0xd0 (2)
     |                                               |                |              matrix_structure{}: 0xd0-0xf4 (36)
0x0d0|00 01 00 00                                    |....            |                a: 1 0xd0-0xd4 (4)
0x0d0|            00 00 00 00                        |    ....        |                b: 0 0xd4-0xd8 (4)
0x0d0|                        00 00 00 00            |        ....    |                u: 0 0xd8-0xdc (4)
0x0d0|                                    00 00 00 00|            ....|                c: 0 0xdc-0xe0 (4)
0x0e0|00 01 00 00                                    |....            |                d: 1 0xe0-0xe4 (4)
0x0e0|            00 00 00 00                        |    ....        |                v: 0 0xe4-0xe8 (4)
0x0e0|                        00 00 00 00            |        ....    |                x: 0 0xe8-0xec (4)
0x0e0|                                    00 00 00 00|            ....|                y: 0 0xec-0xf0 (4)
0x0f0|40 00 00 00                                    |@...            |                w: 1 0xf0-0xf4 (4)
0x0f0|            00 02 00 00                        |    ....        |              track_width: 2 0xf4-0xf8 (4)
0x0f0|                        00 02 00 00            |        ....    |              track_height: 2 0xf8-0xfc (4)
     |                                               |                |            [1]{}: box 0xfc-0x120 (36)
0x0f0|                                    00 00 00 24|            ...$|              size: 36 0xfc-0x100 (4)
0x100|65 64 74 73                                    |edts            |              type: "edts" (Edit list container) 0x100-0x104 (4)
     |                                               |                |              boxes[0:1]: 0x104-0x120 (28)
     |                                               |                |                [0]{}: box 0x104-0x120 (28)
0x100|            00 00 00 1c                        |    ....        |                  size: 28 0x104-0x108 (4)
0x100|                        65 6c 73 74            |        elst    |                  type: "elst" (An edit list) 0x108-0x10c (4)
0x100|                                    00         |            .   |                  version: 0 0x10c-0x10d (1)
0x100|                                       00 00 00|             ...|                  flags: 0 0x10d-0x110 (3)
0x110|00 00 00 01                                    |....            |                  entry_count: 1 0x110-0x114 (4)
     |                                               |                |                  entries[0:1]: 0x114-0x120 (12)
     |                                               |                |                    [0]{}: entry 0x114-0x120 (12)
0x110|            00 00 00 28                        |    ...(        |                      segment_duration: 40 0x114-0x118 (4)
0x110|                        00 00 00 00            |        ....    |                      media_time: 0 0x118-0x11c (4)
0x110|                                    00 01 00 00|            ....|                      media_rate: 1 0x11c-0x120 (4)
     |                                               |                |            [2]{}: box 0x120-0x2ac (396)
0x120|00 00 01 8c                                    |....            |              size: 396 0x120-0x124 (4)
0x120|            6d 64 69 61                        |    mdia        |              type: "mdia" (Container for the media information in a track) 0x124-0x128 (4)
     |                                               |                |              boxes[0:2]: 0x128-0x2ac (388)
     |                                               |                |                [0]{}: box 0x128-0x148 (32)
0x120|                        00 00 00 20            |        ...     |                  size: 32 0x128-0x12c (4)
0x120|                                    6d 64 68 64|            mdhd|                  type: "mdhd" (Media header, overall information about the media) 0x12c-0x130 (4)
0x130|00                                             |.               |                  version: 0 0x130-0x131 (1)
0x130|   00 00 00                                    | ...            |                  flags: 0 0x131-0x134 (3)
0x130|            00 00 00 00                        |    ....        |                  creation_time: 0 (1904-01-01T00:00:00Z) 0x134-0x138 (4)
0x130|                        00 00 00 00            |        ....    |                  modification_time: 0 (1904-01-01T00:00:00Z) 0x138-0x13c (4)
0x130|                                    00 00 32 00|            ..2.|                  time_scale: 12800 0x13c-0x140 (4)
0x140|00 00 02 00                                    |....            |                  duration: 512 0x140-0x144 (4)
0x140|            55 c4                              |    U.          |                  language: "und" 0x144-0x146 (2)
0x140|                  00 00                        |      ..        |                  quality: 0 0x146-0x148 (2)
     |                                               |                |                [1]{}: box 0x148-0x2ac (356)
0x140|                        00 00 01 64            |        ...d    |                  size: 356 0x148-0x14c (4)
0x140|                                    6d 69 6e 66|            minf|                  type: "minf" (Media information container) 0x14c-0x150 (4)
     |                                               |                |                  boxes[0:3]: 0x150-0x2ac (348)
     |                                               |                |                    [0]{}: box 0x150-0x164 (20)
0x150|00 00 00 14                                    |....            |                      size: 20 0x150-0x154 (4)
0x150|            76 6d 68 64                        |    vmhd        |                      type: "vmhd" (Video media header, overall information (video track only)) 0x154-0x158 (4)
0x150|                        00                     |        .       |                      version: 0 0x158-0x159 (1)
0x150|                           00 00 01            |         ...    |                      flags: 1 0x159-0x15c (3)
0x150|                                    00 00      |            ..  |                      graphicsmode: 0 0x15c-0x15e (2)
     |                                               |                |                      opcolor[0:3]: 0x15e-0x164 (6)
0x150|                                          00 00|              ..|                        [0]: 0 value 0x15e-0x160 (2)
0x160|00 00                                          |..              |                        [1]: 0 value 0x160-0x162 (2)
0x160|      00 00                                    |  ..            |                        [2]: 0 value 0x162-0x164 (2)
     |                                               |                |                    [1]{}: box 0x164-0x188 (36)
0x160|            00 00 00 24                        |    ...$        |                      size: 36 0x164-0x168 (4)
0x160|                        64 69 6e 66            |        dinf    |                      type: "dinf" (Data information box, container) 0x168-0x16c (4)
     |                                               |                |                      boxes[0:1]: 0x16c-0x188 (28)
     |                                               |                |                        [0]{}: box 0x16c-0x188 (28)
0x160|                                    00 00 00 1c|            ....|                          size: 28 0x16c-0x170 (4)
0x170|64 72 65 66                                    |dref            |                          type: "dref" (Data reference box, declares source(s) of media data in track) 0x170-0x174 (4)
0x170|            00                                 |    .           |                          version: 0 0x174-0x175 (1)
0x170|               00 00 00                        |     ...        |                          flags: 0 0x175-0x178 (3)
0x170|                        00 00 00 01            |        ....    |                          entry_count: 1 0x178-0x17c (4)
     |                                               |                |                          boxes[0:1]: 0x17c-0x188 (12)
     |                                               |                |                            [0]{}: box 0x17c-0x188 (12)
0x170|                                    00 00 00 0c|            ....|                              size: 12 0x17c-0x180 (4)
0x180|75 72 6c 20                                    |url             |                              type: "url" 0x180-0x184 (4)
0x180|            00                                 |    .           |                              version: 0 0x184-0x185 (1)
0x180|               00 00 01                        |     ...        |                              flags: 1 0x185-0x188 (3)
     |                                               |                |                              data: "" 0x188-0x188 (0)
     |                                               |                |                    [2]{}: box 0x188-0x2ac (292)
0x180|                        00 00 01 24            |        ...$    |                      size: 292 0x188-0x18c (4)
0x180|                                    73 74 62 6c|            stbl|                      type: "stbl" (Sample table box, container for the time/space map) 0x18c-0x190 (4)
     |                                               |                |                      boxes[0:5]: 0x190-0x2ac (284)
     |                                               |                |                        [0]{}: box 0x190-0x250 (192)
0x190|00 00 00 c0                                    |....            |                          size: 192 0x190-0x194 (4)
0x190|            73 74 73 64                        |    stsd        |                          type: "stsd" (Sample descriptions (codec types, initialization etc.)) 0x194-0x198 (4)
0x190|                        00                     |        .       |                          version: 0 0x198-0x199 (1)
0x190|                           00 00 00            |         ...    |                          flags: 0 0x199-0x19c (3)
0x190|                                    00 00 00 01|            ....|                          entry_count: 1 0x19c-0x1a0 (4)
     |                                               |                |                          boxes[0:1]: 0x1a0-0x250 (176)
     |                                               |                |                            [0]{}: box 0x1a0-0x250 (176)
0x1a0|00 00 00 b0                                    |....            |                              size: 176 0x1a0-0x1a4 (4)
0x1a0|            6d 70 34 76                        |    mp4v        |                              type: "mp4v" (MPEG-4 Visual) 0x1a4-0x1a8 (4)
0x1a0|                        00 00 00 00 00 00      |        ......  |                              reserved: raw bits 0x1a8-0x1ae (6)
0x1a0|                                          00 01|              ..|                              data_reference_index: 1 0x1ae-0x1b0 (2)
0x1b0|00 00                                          |..              |                              version: 0 0x1b0-0x1b2 (2)
0x1b0|      00 00                                    |  ..            |                              revision_level: 0 0x1b2-0x1b4 (2)
0x1b0|            00 00 00 00                        |    ....        |                              max_packet_size: 0 0x1b4-0x1b8 (4)
0x1b0|                        00 00 00 00            |        ....    |                              temporal_quality: 0 0x1b8-0x1bc (4)
0x1b0|                                    00 00 00 00|            ....|                              spatial_quality: 0 0x1bc-0x1c0 (4)
0x1c0|00 02                                          |..              |                              width: 2 0x1c0-0x1c2 (2)
0x1c0|      00 02                                    |  ..            |                              height: 2 0x1c2-0x1c4 (2)
0x1c0|            00 48 00 00                        |    .H..        |                              horizontal_resolution: 72 0x1c4-0x1c8 (4)
0x1c0|                        00 48 00 00            |        .H..    |                              vertical_resolution: 72 0x1c8-0x1cc (4)
0x1c0|                                    00 00 00 00|            ....|                              data_size: 0 0x1cc-0x1d0 (4)
0x1d0|00 01                                          |..              |                              frame_count: 1 0x1d0-0x1d2 (2)
0x1d0|      11 4c 61 76 63 35 39 2e 33 37 2e 31 30 30|  .Lavc59.37.100|                              compressor_name: "Lavc59.37.100 png" 0x1d2-0x1f2 (32)
0x1e0|20 70 6e 67 00 00 00 00 00 00 00 00 00 00 00 00| png............|
0x1f0|00 00                                          |..              |
0x1f0|      00 18                                    |  ..            |                              depth: 24 0x1f2-0x1f4 (2)
0x1f0|            ff ff                              |    ..          |                              color_table_id: -1 0x1f4-0x1f6 (2)
     |                                               |                |                              boxes[0:4]: 0x1f6-0x250 (90)
     |                                               |                |                                [0]{}: box 0x1f6-0x222 (44)
0x1f0|                  00 00 00 2c                  |      ...,      |                                  size: 44 0x1f6-0x1fa (4)
0x1f0|                              65 73 64 73      |          esds  |                                  type: "esds" (Elementary stream descriptor) 0x1fa-0x1fe (4)
0x1f0|                                          00 00|              ..|                                  version: 0 0x1fe-0x202 (4)
0x200|00 00                                          |..              |
     |00 01 02 03 04 05 06 07 08 09 0a 0b 0c 0d 0e 0f|0123456789abcdef|                                  descriptor{}: (mpeg_es) 0x202-0x222 (32)
0x200|      03                                       |  .             |                                    tag_id: "ES_DescrTag" (3) 0x202-0x203 (1)
0x200|         80 80 80 1b                           |   ....         |                                    length: 27 0x203-0x207 (4)
0x200|                     00 01                     |       ..       |                                    es_id: 1 0x207-0x209 (2)
0x200|                           00                  |         .      |                                    stream_dependency_flag: false 0x209-0x209.1 (0.1)
0x200|                           00                  |         .      |                                    url_flag: false 0x209.1-0x209.2 (0.1)
0x200|                           00                  |         .      |                                    ocr_stream_flag: false 0x209.2-0x209.3 (0.1)
0x200|                           00                  |         .      |                                    stream_priority: 0 0x209.3-0x20a (0.5)
     |                                               |                |                                    dec_config_descr{}: 0x20a-0x21c (18)
0x200|                              04               |          .     |                                      tag_id: "DecoderConfigDescrTag" (4) 0x20a-0x20b (1)
0x200|                                 80 80 80 0d   |           .... |                                      length: 13 0x20b-0x20f (4)
0x200|                                             6d|               m|                                      object_type_indication: "MPEGObjectTypePNG" (109) 0x20f-0x210 (1)
0x210|11                                             |.               |                                      stream_type: "VisualStream" (4) 0x210-0x210.6 (0.6)
0x210|11                                             |.               |                                      upstream: false 0x210.6-0x210.7 (0.1)
0x210|11                                             |.               |                                      specific_info_flag: true 0x210.7-0x211 (0.1)
0x210|   00 00 00                                    | ...            |                                      buffer_size_db: 0 0x211-0x214 (3)
0x210|            00 03 0d 40                        |    ...@        |                                      max_bit_rate: 200000 0x214-0x218 (4)
0x210|                        00 00 48 a8            |        ..H.    |                                      avg_bit_rate: 18600 0x218-0x21c (4)
     |                                               |                |                                    sl_config_descr{}: 0x21c-0x222 (6)
0x210|                                    06         |            .   |                                      tag_id: "SLConfigDescrTag" (6) 0x21c-0x21d (1)
0x210|                                       80 80 80|             ...|                                      length: 1 0x21d-0x221 (4)
0x220|01                                             |.               |
0x220|   02                                          | .              |                                      data: raw bits 0x221-0x222 (1)
     |                                               |                |                                [1]{}: box 0x222-0x22c (10)
0x220|      00 00 00 0a                              |  ....          |                                  size: 10 0x222-0x226 (4)
0x220|                  66 69 65 6c                  |      fiel      |                                  type: "fiel" (Video field order) 0x226-0x22a (4)
0x220|                              01 00            |          ..    |                                  data: raw bits 0x22a-0x22c (2)
     |                                               |                |                                [2]{}: box 0x22c-0x23c (16)
0x220|                                    00 00 00 10|            ....|                                  size: 16 0x22c-0x230 (4)
0x230|70 61 73 70                                    |pasp            |                                  type: "pasp" (Pixel aspect ratio) 0x230-0x234 (4)
0x230|            00 00 00 01                        |    ....        |                                  h_spacing: 1 0x234-0x238 (4)
0x230|                        00 00 00 01            |        ....    |                                  v_spacing: 1 0x238-0x23c (4)
     |                                               |                |                                [3]{}: box 0x23c-0x250 (20)
0x230|                                    00 00 00 14|            ....|                                  size: 20 0x23c-0x240 (4)
0x240|62 74 72 74                                    |btrt            |                                  type: "btrt" (Bitrate) 0x240-0x244 (4)
0x240|            00 00 00 00                        |    ....        |                                  decoding_buffer_size: 0 0x244-0x248 (4)
0x240|                        00 03 0d 40            |        ...@    |                                  max_bitrate: 200000 0x248-0x24c (4)
0x240|                                    00 00 48 a8|            ..H.|                                  avg_bitrate: 18600 0x24c-0x250 (4)
     |                                               |                |                        [1]{}: box 0x250-0x268 (24)
0x250|00 00 00 18                                    |....            |                          size: 24 0x250-0x254 (4)
0x250|            73 74 74 73                        |    stts        |                          type: "stts" (Sample time-to-sample) 0x254-0x258 (4)
0x250|                        00                     |        .       |                          version: 0 0x258-0x259 (1)
0x250|                           00 00 00            |         ...    |                          flags: 0 0x259-0x25c (3)
0x250|                                    00 00 00 01|            ....|                          entry_count: 1 0x25c-0x260 (4)
     |                                               |                |                          entries[0:1]: 0x260-0x268 (8)
     |                                               |                |                            [0]{}: entry 0x260-0x268 (8)
0x260|00 00 00 01                                    |....            |                              count: 1 0x260-0x264 (4)
0x260|            00 00 02 00                        |    ....        |                              delta: 512 0x264-0x268 (4)
     |                                               |                |                        [2]{}: box 0x268-0x284 (28)
0x260|                        00 00 00 1c            |        ....    |                          size: 28 0x268-0x26c (4)
0x260|                                    73 74 73 63|            stsc|                          type: "stsc" (Sample-to-chunk, partial data-offset information) 0x26c-0x270 (4)
0x270|00                                             |.               |                          version: 0 0x270-0x271 (1)
0x270|   00 00 00                                    | ...            |                          flags: 0 0x271-0x274 (3)
0x270|            00 00 00 01                        |    ....        |                          entry_count: 1 0x274-0x278 (4)
     |                                               |                |                          entries[0:1]: 0x278-0x284 (12)
     |                                               |                |                            [0]{}: entry 0x278-0x284 (12)
0x270|                        00 00 00 01            |        ....    |                              first_chunk: 1 0x278-0x27c (4)
0x270|                                    00 00 00 01|            ....|                              samples_per_chunk: 1 0x27c-0x280 (4)
0x280|00 00 00 01                                    |....            |                              sample_description_id: 1 0x280-0x284 (4)
     |                                               |                |                        [3]{}: box 0x284-0x298 (20)
0x280|            00 00 00 14                        |    ....        |                          size: 20 0x284-0x288 (4)
0x280|                        73 74 73 7a            |        stsz    |                          type: "stsz" (Sample sizes (framing)) 0x288-0x28c (4)
0x280|                                    00         |            .   |                          version: 0 0x28c-0x28d (1)
0x280|                                       00 00 00|             ...|                          flags: 0 0x28d-0x290 (3)
0x290|00 00 00 5d                                    |...]            |                          sample_size: 93 0x290-0x294 (4)
0x290|            00 00 00 01                        |    ....        |                          entry_count: 1 0x294-0x298 (4)
     |                                               |                |                        [4]{}: box 0x298-0x2ac (20)
0x290|                        00 00 00 14            |        ....    |                          size: 20 0x298-0x29c (4)
0x290|                                    73 74 63 6f|            stco|                          type: "stco" (Chunk offset, partial data-offset information) 0x29c-0x2a0 (4)
0x2a0|00                                             |.               |                          version: 0 0x2a0-0x2a1 (1)
0x2a0|   00 00 00                                    | ...            |                          flags: 0 0x2a1-0x2a4 (3)
0x2a0|            00 00 00 01                        |    ....        |                          entry_count: 1 0x2a4-0x2a8 (4)
     |                                               |                |                          entries[0:1]: 0x2a8-0x2ac (4)
0x2a0|                        00 00 03 16            |        ....    |                            [0]: 790 chunk_offset 0x2a8-0x2ac (4)
     |                                               |                |        [2]{}: box 0x2ac-0x30e (98)
0x2a0|                                    00 00 00 62|            ...b|          size: 98 0x2ac-0x2b0 (4)
0x2b0|75 64 74 61                                    |udta            |          type: "udta" (User-data) 0x2b0-0x2b4 (4)
     |                                               |                |          boxes[0:1]: 0x2b4-0x30e (90)
     |                                               |                |            [0]{}: box 0x2b4-0x30e (90)
0x2b0|            00 00 00 5a                        |    ...Z        |              size: 90 0x2b4-0x2b8 (4)
0x2b0|                        6d 65 74 61            |        meta    |              type: "meta" (Metadata container) 0x2b8-0x2bc (4)
0x2b0|                                    00 00 00 00|            ....|              maybe_flags: 0 0x2bc-0x2c0 (4)
     |                                               |                |              boxes[0:2]: 0x2c0-0x30e (78)
     |                                               |                |                [0]{}: box 0x2c0-0x2e1 (33)
0x2c0|00 00 00 21                                    |...!            |                  size: 33 0x2c0-0x2c4 (4)
0x2c0|            68 64 6c 72                        |    hdlr        |                  type: "hdlr" (Handler, declares the media (handler) type) 0x2c4-0x2c8 (4)
0x2c0|                        00                     |        .       |                  version: 0 0x2c8-0x2c9 (1)
0x2c0|                           00 00 00            |         ...    |                  flags: 0 0x2c9-0x2cc (3)
0x2c0|                                    00 00 00 00|            ....|                  component_type: "" 0x2cc-0x2d0 (4)
0x2d0|6d 64 69 72                                    |mdir            |                  component_subtype: "mdir" (Metadata) 0x2d0-0x2d4 (4)
0x2d0|            61 70 70 6c                        |    appl        |                  component_manufacturer: "appl" 0x2d4-0x2d8 (4)
0x2d0|                        00 00 00 00            |        ....    |                  component_flags: 0 0x2d8-0x2dc (4)
0x2d0|                                    00 00 00 00|            ....|                  component_flags_mask: 0 0x2dc-0x2e0 (4)
0x2e0|00                                             |.               |                  component_name: "" 0x2e0-0x2e1 (1)
     |                                               |                |                [1]{}: box 0x2e1-0x30e (45)
0x2e0|   00 00 00 2d                                 | ...-           |                  size: 45 0x2e1-0x2e5 (4)
0x2e0|               69 6c 73 74                     |     ilst       |                  type: "ilst" 0x2e5-0x2e9 (4)
     |                                               |                |                  boxes[0:1]: 0x2e9-0x30e (37)
     |                                               |                |                    [0]{}: box 0x2e9-0x30e (37)
0x2e0|                           00 00 00 25         |         ...%   |                      size: 37 0x2e9-0x2ed (4)
0x2e0|                                       a9 74 6f|             .to|                      type: "©too" (Encoder) 0x2ed-0x2f1 (4)
0x2f0|6f                                             |o               |
     |                                               |                |                      boxes[0:1]: 0x2f1-0x30e (29)
     |                                               |                |                        [0]{}: box 0x2f1-0x30e (29)
0x2f0|   00 00 00 1d                                 | ....           |                          size: 29 0x2f1-0x2f5 (4)
0x2f0|               64 61 74 61                     |     data       |                          type: "data" 0x2f5-0x2f9 (4)
0x2f0|                           00                  |         .      |                          version: 0 0x2f9-0x2fa (1)
0x2f0|                              00 00 01         |          ...   |                          flags: 1 0x2fa-0x2fd (3)
0x2f0|                                       00 00 00|             ...|                          reserved: 0 0x2fd-0x301 (4)
0x300|00                                             |.               |
0x300|   4c 61 76 66 35 39 2e 32 37 2e 31 30 30      | Lavf59.27.100  |                          data: "Lavf59.27.100" 0x301-0x30e (13)
     |                                               |                |    [3]{}: box 0x30e-0x373 (101)
0x300|                                          00 00|              ..|      size: 101 0x30e-0x312 (4)
0x310|00 65                                          |.e              |
0x310|      6d 64 61 74                              |  mdat          |      type: "mdat" (Media data container) 0x312-0x316 (4)
0x310|                  89 50 4e 47 0d 0a 1a 0a 00 00|      .PNG......|      data: raw bits 0x316-0x373 (93)
0x320|00 0d 49 48 44 52 00 00 00 02 00 00 00 02 08 02|..IHDR..........|
*    |until 0x372.7 (end) (93)                       |                |
     |                                               |                |  tracks[0:1]: 0x316-0x373 (93)
     |                                               |                |    [0]{}: track 0x316-0x373 (93)
     |                                               |                |      samples[0:1]: 0x316-0x373 (93)
     |00 01 02 03 04 05 06 07 08 09 0a 0b 0c 0d 0e 0f|0123456789abcdef|        [0]{}: sample (png) 0x316-0x373 (93)
0x310|                  89 50 4e 47 0d 0a 1a 0a      |      .PNG....  |          signature: raw bits (valid) 0x316-0x31e (8)
     |                                               |                |          chunks[0:4]: 0x31e-0x373 (85)
     |                                               |                |            [0]{}: chunk 0x31e-0x337 (25)
0x310|                                          00 00|              ..|              length: 13 0x31e-0x322 (4)
0x320|00 0d                                          |..              |
0x320|      49 48 44 52                              |  IHDR          |              type: "IHDR" 0x322-0x326 (4)
0x320|      49                                       |  I             |              ancillary: false 0x322.2-0x322.3 (0.1)
0x320|         48                                    |   H            |              private: false 0x323.2-0x323.3 (0.1)
0x320|            44                                 |    D           |              reserved: false 0x324.2-0x324.3 (0.1)
0x320|               52                              |     R          |              safe_to_copy: false 0x325.2-0x325.3 (0.1)
0x320|                  00 00 00 02                  |      ....      |              width: 2 0x326-0x32a (4)
0x320|                              00 00 00 02      |          ....  |              height: 2 0x32a-0x32e (4)
0x320|                                          08   |              . |              bit_depth: 8 0x32e-0x32f (1)
0x320|                                             02|               .|              color_type: "rgb" (2) 0x32f-0x330 (1)
0x330|00                                             |.               |              compression_method: "deflate" (0) 0x330-0x331 (1)
0x330|   00                                          | .              |              filter_method: "adaptive_filtering" (0) 0x331-0x332 (1)
0x330|      00                                       |  .             |              interlace_method: "none" (0) 0x332-0x333 (1)
0x330|         fd d4 9a 73                           |   ...s         |              crc: 0xfdd49a73 (valid) 0x333-0x337 (4)
     |                                               |                |            [1]{}: chunk 0x337-0x34c (21)
0x330|                     00 00 00 09               |       ....     |              length: 9 0x337-0x33b (4)
0x330|                                 70 48 59 73   |           pHYs |              type: "pHYs" 0x33b-0x33f (4)
0x330|                                 70            |           p    |              ancillary: true 0x33b.2-0x33b.3 (0.1)
0x330|                                    48         |            H   |              private: false 0x33c.2-0x33c.3 (0.1)
0x330|                                       59      |             Y  |              reserved: false 0x33d.2-0x33d.3 (0.1)
0x330|                                          73   |              s |              safe_to_copy: true 0x33e.2-0x33e.3 (0.1)
0x330|                                             00|               .|              x_pixels_per_unit: 1 0x33f-0x343 (4)
0x340|00 00 01                                       |...             |
0x340|         00 00 00 01                           |   ....         |              y_pixels_per_unit: 1 0x343-0x347 (4)
0x340|                     00                        |       .        |              unit: 0 0x347-0x348 (1)
0x340|                        4f 25 c4 d6            |        O%..    |              crc: 0x4f25c4d6 (valid) 0x348-0x34c (4)
     |                                               |                |            [2]{}: chunk 0x34c-0x367 (27)
0x340|                                    00 00 00 0f|            ....|              length: 15 0x34c-0x350 (4)
0x350|49 44 41 54                                    |IDAT            |              type: "IDAT" 0x350-0x354 (4)
0x350|49                                             |I               |              ancillary: false 0x350.2-0x350.3 (0.1)
0x350|   44                                          | D              |              private: false 0x351.2-0x351.3 (0.1)
0x350|      41                                       |  A             |              reserved: false 0x352.2-0x352.3 (0.1)
0x350|         54                                    |   T            |              safe_to_copy: false 0x353.2-0x353.3 (0.1)
0x350|            78 9c 63 60 60 60 f8 0f c3 ff 01 12|    x.c```......|              data: raw bits 0x354-0x363 (15)
0x360|fb 03 fd                                       |...             |
0x360|         59 a8 83 f3                           |   Y...         |              crc: 0x59a883f3 (valid) 0x363-0x367 (4)
     |                                               |                |            [3]{}: chunk 0x367-0x373 (12)
0x360|                     00 00 00 00               |       ....     |              length: 0 0x367-0x36b (4)
0x360|                                 49 45 4e 44   |           IEND |              type: "IEND" 0x36b-0x36f (4)
0x360|                                 49            |           I    |              ancillary: false 0x36b.2-0x36b.3 (0.1)
0x360|                                    45         |            E   |              private: false 0x36c.2-0x36c.3 (0.1)
0x360|                                       4e      |             N  |              reserved: false 0x36d.2-0x36d.3 (0.1)
0x360|                                          44   |              D |              safe_to_copy: false 0x36e.2-0x36e.3 (0.1)
0x360|                                             ae|               .|              crc: 0xae426082 (valid) 0x36f-0x373 (4)
0x370|42 60 82|                                      |B`.|            |
     |                                               |                |      id: 1
     |                                               |                |      data_format: "mp4v" (MPEG-4 Visual)
