# mp4box -add mp3.mp4:stz2 -new stz2.mp4
$ fq -d mp4 'dv' stz2.mp4
     |00 01 02 03 04 05 06 07 08 09 0a 0b 0c 0d 0e 0f|0123456789abcdef|.{}: stz2.mp4 (mp4) 0x0-0x530 (1328)
     |                                               |                |  boxes[0:4]: 0x0-0x530 (1328)
     |                                               |                |    [0]{}: box 0x0-0x14 (20)
0x000|00 00 00 14                                    |....            |      size: 20 0x0-0x4 (4)
0x000|            66 74 79 70                        |    ftyp        |      type: "ftyp" (File type and compatibility) 0x4-0x8 (4)
0x000|                        69 73 6f 6d            |        isom    |      major_brand: "isom" 0x8-0xc (4)
0x000|                                    00 00 00 01|            ....|      minor_version: 1 0xc-0x10 (4)
     |                                               |                |      brands[0:1]: 0x10-0x14 (4)
0x010|69 73 6f 6d                                    |isom            |        [0]: "isom" brand (All files based on the ISO Base Media File Format) 0x10-0x14 (4)
     |                                               |                |    [1]{}: box 0x14-0x27c (616)
0x010|            00 00 02 68                        |    ...h        |      size: 616 0x14-0x18 (4)
0x010|                        6d 6f 6f 76            |        moov    |      type: "moov" (Container for all the meta-data) 0x18-0x1c (4)
     |                                               |                |      boxes[0:3]: 0x1c-0x27c (608)
     |                                               |                |        [0]{}: box 0x1c-0x88 (108)
0x010|                                    00 00 00 6c|            ...l|          size: 108 0x1c-0x20 (4)
0x020|6d 76 68 64                                    |mvhd            |          type: "mvhd" (Movie header, overall declarations) 0x20-0x24 (4)
0x020|            00                                 |    .           |          version: 0 0x24-0x25 (1)
0x020|               00 00 00                        |     ...        |          flags: 0 0x25-0x28 (3)
0x020|                        de 26 b1 49            |        .&.I    |          creation_time: 3727077705 (2022-02-07T11:21:45Z) 0x28-0x2c (4)
0x020|                                    de 26 b1 49|            .&.I|          modification_time: 3727077705 (2022-02-07T11:21:45Z) 0x2c-0x30 (4)
0x030|00 00 03 e8                                    |....            |          time_scale: 1000 0x30-0x34 (4)
0x030|            00 00 00 32                        |    ...2        |          duration: 50 0x34-0x38 (4)
0x030|                        00 01 00 00            |        ....    |          preferred_rate: 1 0x38-0x3c (4)
0x030|                                    01 00      |            ..  |          preferred_volume: 1 0x3c-0x3e (2)
0x030|                                          00 00|              ..|          reserved: "\x00\x00\x00\x00\x00\x00\x00\x00\x00\x00" 0x3e-0x48 (10)
0x040|00 00 00 00 00 00 00 00                        |........        |
     |                                               |                |          matrix_structure{}: 0x48-0x6c (36)
0x040|                        00 01 00 00            |        ....    |            a: 1 0x48-0x4c (4)
0x040|                                    00 00 00 00|            ....|            b: 0 0x4c-0x50 (4)
0x050|00 00 00 00                                    |....            |            u: 0 0x50-0x54 (4)
0x050|            00 00 00 00                        |    ....        |            c: 0 0x54-0x58 (4)
0x050|                        00 01 00 00            |        ....    |            d: 1 0x58-0x5c (4)
0x050|                                    00 00 00 00|            ....|            v: 0 0x5c-0x60 (4)
0x060|00 00 00 00                                    |....            |            x: 0 0x60-0x64 (4)
0x060|            00 00 00 00                        |    ....        |            y: 0 0x64-0x68 (4)
0x060|                        40 00 00 00            |        @...    |            w: 1 0x68-0x6c (4)
0x060|                                    00 00 00 00|            ....|          preview_time: 0 0x6c-0x70 (4)
0x070|00 00 00 00                                    |....            |          preview_duration: 0 0x70-0x74 (4)
0x070|            00 00 00 00                        |    ....        |          poster_time: 0 0x74-0x78 (4)
0x070|                        00 00 00 00            |        ....    |          selection_time: 0 0x78-0x7c (4)
0x070|                                    00 00 00 00|            ....|          selection_duration: 0 0x7c-0x80 (4)
0x080|00 00 00 00                                    |....            |          current_time: 0 0x80-0x84 (4)
0x080|            00 00 00 02                        |    ....        |          next_track_id: 2 0x84-0x88 (4)
     |                                               |                |        [1]{}: box 0x88-0x9d (21)
0x080|                        00 00 00 15            |        ....    |          size: 21 0x88-0x8c (4)
0x080|                                    69 6f 64 73|            iods|          type: "iods" (Object Descriptor container box) 0x8c-0x90 (4)
0x090|00 00 00 00                                    |....            |          version: 0 0x90-0x94 (4)
     |00 01 02 03 04 05 06 07 08 09 0a 0b 0c 0d 0e 0f|0123456789abcdef|          descriptor{}: (mpeg_es) 0x94-0x9d (9)
0x090|            10                                 |    .           |            tag_id: "MP4_IOD_Tag" (16) 0x94-0x95 (1)
0x090|               07                              |     .          |            length: 7 0x95-0x96 (1)
0x090|                  00 4f                        |      .O        |            od_id: 79 0x96-0x98 (2)
0x090|                        ff                     |        .       |            od_profile_level: 255 0x98-0x99 (1)
0x090|                           ff                  |         .      |            scene_profile_level: 255 0x99-0x9a (1)
0x090|                              fe               |          .     |            audio_profile_level: 254 0x9a-0x9b (1)
0x090|                                 ff            |           .    |            video_profile_level: 255 0x9b-0x9c (1)
0x090|                                    ff         |            .   |            graphics_profile_level: 255 0x9c-0x9d (1)
     |                                               |                |            descriptors[0:0]: 0x9d-0x9d (0)
     |                                               |                |        [2]{}: box 0x9d-0x27c (479)
0x090|                                       00 00 01|             ...|          size: 479 0x9d-0xa1 (4)
0x0a0|df                                             |.               |
0x0a0|   74 72 61 6b                                 | trak           |          type: "trak" (Container for an individual track or stream) 0xa1-0xa5 (4)
     |                                               |                |          boxes[0:3]: 0xa5-0x27c (471)
     |                                               |                |            [0]{}: box 0xa5-0x101 (92)
0x0a0|               00 00 00 5c                     |     ...\       |              size: 92 0xa5-0xa9 (4)
0x0a0|                           74 6b 68 64         |         tkhd   |              type: "tkhd" (Track header, overall information about the track) 0xa9-0xad (4)
0x0a0|                                       00      |             .  |              version: 0 0xad-0xae (1)
     |                                               |                |              flags{}: 0xae-0xb1 (3)
0x0a0|                                          00 00|              ..|                unused: 0 0xae-0xb0.4 (2.4)
0x0b0|03                                             |.               |
0x0b0|03                                             |.               |                size_is_aspect_ratio: false 0xb0.4-0xb0.5 (0.1)
0x0b0|03                                             |.               |                in_preview: false 0xb0.5-0xb0.6 (0.1)
0x0b0|03                                             |.               |                in_movie: true 0xb0.6-0xb0.7 (0.1)
0x0b0|03                                             |.               |                enabled: true 0xb0.7-0xb1 (0.1)
0x0b0|   00 00 00 00                                 | ....           |              creation_time: 0 (1904-01-01T00:00:00Z) 0xb1-0xb5 (4)
0x0b0|               de 26 b1 49                     |     .&.I       |              modification_time: 3727077705 (2022-02-07T11:21:45Z) 0xb5-0xb9 (4)
0x0b0|                           00 00 00 01         |         ....   |              track_id: 1 0xb9-0xbd (4)
0x0b0|                                       00 00 00|             ...|              reserved1: 0 0xbd-0xc1 (4)
0x0c0|00                                             |.               |
0x0c0|   00 00 00 32                                 | ...2           |              duration: 50 0xc1-0xc5 (4)
0x0c0|               00 00 00 00 00 00 00 00         |     ........   |              reserved2: raw bits 0xc5-0xcd (8)
0x0c0|                                       00 00   |             .. |              layer: 0 0xcd-0xcf (2)
0x0c0|                                             00|               .|              alternate_group: 1 0xcf-0xd1 (2)
0x0d0|01                                             |.               |
0x0d0|   01 00                                       | ..             |              volume: 1 0xd1-0xd3 (2)
0x0d0|         00 00                                 |   ..           |              reserved3: 0 0xd3-0xd5 (2)
     |                                               |                |              matrix_structure{}: 0xd5-0xf9 (36)
0x0d0|               00 01 00 00                     |     ....       |                a: 1 0xd5-0xd9 (4)
0x0d0|                           00 00 00 00         |         ....   |                b: 0 0xd9-0xdd (4)
0x0d0|                                       00 00 00|             ...|                u: 0 0xdd-0xe1 (4)
0x0e0|00                                             |.               |
0x0e0|   00 00 00 00                                 | ....           |                c: 0 0xe1-0xe5 (4)
0x0e0|               00 01 00 00                     |     ....       |                d: 1 0xe5-0xe9 (4)
0x0e0|                           00 00 00 00         |         ....   |                v: 0 0xe9-0xed (4)
0x0e0|                                       00 00 00|             ...|                x: 0 0xed-0xf1 (4)
0x0f0|00                                             |.               |
0x0f0|   00 00 00 00                                 | ....           |                y: 0 0xf1-0xf5 (4)
0x0f0|               40 00 00 00                     |     @...       |                w: 1 0xf5-0xf9 (4)
0x0f0|                           00 00 00 00         |         ....   |              track_width: 0 0xf9-0xfd (4)
0x0f0|                                       00 00 00|             ...|              track_height: 0 0xfd-0x101 (4)
0x100|00                                             |.               |
     |                                               |                |            [1]{}: box 0x101-0x125 (36)
0x100|   00 00 00 24                                 | ...$           |              size: 36 0x101-0x105 (4)
0x100|               65 64 74 73                     |     edts       |              type: "edts" (Edit list container) 0x105-0x109 (4)
     |                                               |                |              boxes[0:1]: 0x109-0x125 (28)
     |                                               |                |                [0]{}: box 0x109-0x125 (28)
0x100|                           00 00 00 1c         |         ....   |                  size: 28 0x109-0x10d (4)
0x100|                                       65 6c 73|             els|                  type: "elst" (An edit list) 0x10d-0x111 (4)
0x110|74                                             |t               |
0x110|   00                                          | .              |                  version: 0 0x111-0x112 (1)
0x110|      00 00 00                                 |  ...           |                  flags: 0 0x112-0x115 (3)
0x110|               00 00 00 01                     |     ....       |                  entry_count: 1 0x115-0x119 (4)
     |                                               |                |                  entries[0:1]: 0x119-0x125 (12)
     |                                               |                |                    [0]{}: entry 0x119-0x125 (12)
0x110|                           00 00 00 32         |         ...2   |                      segment_duration: 50 0x119-0x11d (4)
0x110|                                       00 00 04|             ...|                      media_time: 1105 0x11d-0x121 (4)
0x120|51                                             |Q               |
0x120|   00 01 00 00                                 | ....           |                      media_rate: 1 0x121-0x125 (4)
     |                                               |                |            [2]{}: box 0x125-0x27c (343)
0x120|               00 00 01 57                     |     ...W       |              size: 343 0x125-0x129 (4)
0x120|                           6d 64 69 61         |         mdia   |              type: "mdia" (Container for the media information in a track) 0x129-0x12d (4)
     |                                               |                |              boxes[0:3]: 0x12d-0x27c (335)
     |                                               |                |                [0]{}: box 0x12d-0x14d (32)
0x120|                                       00 00 00|             ...|                  size: 32 0x12d-0x131 (4)
0x130|20                                             |                |
0x130|   6d 64 68 64                                 | mdhd           |                  type: "mdhd" (Media header, overall information about the media) 0x131-0x135 (4)
0x130|               00                              |     .          |                  version: 0 0x135-0x136 (1)
0x130|                  00 00 00                     |      ...       |                  flags: 0 0x136-0x139 (3)
0x130|                           00 00 00 00         |         ....   |                  creation_time: 0 (1904-01-01T00:00:00Z) 0x139-0x13d (4)
0x130|                                       de 26 b1|             .&.|                  modification_time: 3727077705 (2022-02-07T11:21:45Z) 0x13d-0x141 (4)
0x140|49                                             |I               |
0x140|   00 00 ac 44                                 | ...D           |                  time_scale: 44100 0x141-0x145 (4)
0x140|               00 00 0c ee                     |     ....       |                  duration: 3310 0x145-0x149 (4)
0x140|                           55 c4               |         U.     |                  language: "und" 0x149-0x14b (2)
0x140|                                 00 00         |           ..   |                  quality: 0 0x14b-0x14d (2)
     |                                               |                |                [1]{}: box 0x14d-0x17a (45)
0x140|                                       00 00 00|             ...|                  size: 45 0x14d-0x151 (4)
0x150|2d                                             |-               |
0x150|   68 64 6c 72                                 | hdlr           |                  type: "hdlr" (Handler, declares the media (handler) type) 0x151-0x155 (4)
0x150|               00                              |     .          |                  version: 0 0x155-0x156 (1)
0x150|                  00 00 00                     |      ...       |                  flags: 0 0x156-0x159 (3)
0x150|                           00 00 00 00         |         ....   |                  component_type: "" 0x159-0x15d (4)
0x150|                                       73 6f 75|             sou|                  component_subtype: "soun" (Audio Track) 0x15d-0x161 (4)
0x160|6e                                             |n               |
0x160|   00 00 00 00                                 | ....           |                  component_manufacturer: "" 0x161-0x165 (4)
0x160|               00 00 00 00                     |     ....       |                  component_flags: 0 0x165-0x169 (4)
0x160|                           00 00 00 00         |         ....   |                  component_flags_mask: 0 0x169-0x16d (4)
0x160|                                       53 6f 75|             Sou|                  component_name: "SoundHandler" 0x16d-0x17a (13)
0x170|6e 64 48 61 6e 64 6c 65 72 00                  |ndHandler.      |
     |                                               |                |                [2]{}: box 0x17a-0x27c (258)
0x170|                              00 00 01 02      |          ....  |                  size: 258 0x17a-0x17e (4)
0x170|                                          6d 69|              mi|                  type: "minf" (Media information container) 0x17e-0x182 (4)
0x180|6e 66                                          |nf              |
     |                                               |                |                  boxes[0:3]: 0x182-0x27c (250)
     |                                               |                |                    [0]{}: box 0x182-0x192 (16)
0x180|      00 00 00 10                              |  ....          |                      size: 16 0x182-0x186 (4)
0x180|                  73 6d 68 64                  |      smhd      |                      type: "smhd" (Sound media header, overall information (sound track only)) 0x186-0x18a (4)
0x180|                              00               |          .     |                      version: 0 0x18a-0x18b (1)
0x180|                                 00 00 00      |           ...  |                      flags: 0 0x18b-0x18e (3)
0x180|                                          00 00|              ..|                      balance: 0 0x18e-0x190 (2)
0x190|00 00                                          |..              |                      reserved: 0 0x190-0x192 (2)
     |                                               |                |                    [1]{}: box 0x192-0x1b6 (36)
0x190|      00 00 00 24                              |  ...$          |                      size: 36 0x192-0x196 (4)
0x190|                  64 69 6e 66                  |      dinf      |                      type: "dinf" (Data information box, container) 0x196-0x19a (4)
     |                                               |                |                      boxes[0:1]: 0x19a-0x1b6 (28)
     |                                               |                |                        [0]{}: box 0x19a-0x1b6 (28)
0x190|                              00 00 00 1c      |          ....  |                          size: 28 0x19a-0x19e (4)
0x190|                                          64 72|              dr|                          type: "dref" (Data reference box, declares source(s) of media data in track) 0x19e-0x1a2 (4)
0x1a0|65 66                                          |ef              |
0x1a0|      00                                       |  .             |                          version: 0 0x1a2-0x1a3 (1)
0x1a0|         00 00 00                              |   ...          |                          flags: 0 0x1a3-0x1a6 (3)
0x1a0|                  00 00 00 01                  |      ....      |                          entry_count: 1 0x1a6-0x1aa (4)
     |                                               |                |                          boxes[0:1]: 0x1aa-0x1b6 (12)
     |                                               |                |                            [0]{}: box 0x1aa-0x1b6 (12)
0x1a0|                              00 00 00 0c      |          ....  |                              size: 12 0x1aa-0x1ae (4)
0x1a0|                                          75 72|              ur|                              type: "url" 0x1ae-0x1b2 (4)
0x1b0|6c 20                                          |l               |
0x1b0|      00                                       |  .             |                              version: 0 0x1b2-0x1b3 (1)
0x1b0|         00 00 01                              |   ...          |                              flags: 1 0x1b3-0x1b6 (3)
     |                                               |                |                              data: "" 0x1b6-0x1b6 (0)
     |                                               |                |                    [2]{}: box 0x1b6-0x27c (198)
0x1b0|                  00 00 00 c6                  |      ....      |                      size: 198 0x1b6-0x1ba (4)
0x1b0|                              73 74 62 6c      |          stbl  |                      type: "stbl" (Sample table box, container for the time/space map) 0x1ba-0x1be (4)
     |                                               |                |                      boxes[0:5]: 0x1be-0x27c (190)
     |                                               |                |                        [0]{}: box 0x1be-0x215 (87)
0x1b0|                                          00 00|              ..|                          size: 87 0x1be-0x1c2 (4)
0x1c0|00 57                                          |.W              |
0x1c0|      73 74 73 64                              |  stsd          |                          type: "stsd" (Sample descriptions (codec types, initialization etc.)) 0x1c2-0x1c6 (4)
0x1c0|                  00                           |      .         |                          version: 0 0x1c6-0x1c7 (1)
0x1c0|                     00 00 00                  |       ...      |                          flags: 0 0x1c7-0x1ca (3)
0x1c0|                              00 00 00 01      |          ....  |                          entry_count: 1 0x1ca-0x1ce (4)
     |                                               |                |                          boxes[0:1]: 0x1ce-0x215 (71)
     |                                               |                |                            [0]{}: box 0x1ce-0x215 (71)
0x1c0|                                          00 00|              ..|                              size: 71 0x1ce-0x1d2 (4)
0x1d0|00 47                                          |.G              |
0x1d0|      6d 70 34 61                              |  mp4a          |                              type: "mp4a" (MPEG-4 Audio) 0x1d2-0x1d6 (4)
0x1d0|                  00 00 00 00 00 00            |      ......    |                              reserved: raw bits 0x1d6-0x1dc (6)
0x1d0|                                    00 01      |            ..  |                              data_reference_index: 1 0x1dc-0x1de (2)
0x1d0|                                          00 00|              ..|                              version: 0 0x1de-0x1e0 (2)
0x1e0|00 00                                          |..              |                              revision_level: 0 0x1e0-0x1e2 (2)
0x1e0|      00 00 00 00                              |  ....          |                              max_packet_size: 0 0x1e2-0x1e6 (4)
0x1e0|                  00 02                        |      ..        |                              num_audio_channels: 2 0x1e6-0x1e8 (2)
0x1e0|                        00 10                  |        ..      |                              sample_size: 16 0x1e8-0x1ea (2)
0x1e0|                              00 00            |          ..    |                              compression_id: 0 0x1ea-0x1ec (2)
0x1e0|                                    00 00      |            ..  |                              packet_size: 0 0x1ec-0x1ee (2)
0x1e0|                                          ac 44|              .D|                              sample_rate: 44100 0x1ee-0x1f2 (4)
0x1f0|00 00                                          |..              |
     |                                               |                |                              boxes[0:1]: 0x1f2-0x215 (35)
     |                                               |                |                                [0]{}: box 0x1f2-0x215 (35)
0x1f0|      00 00 00 23                              |  ...#          |                                  size: 35 0x1f2-0x1f6 (4)
0x1f0|                  65 73 64 73                  |      esds      |                                  type: "esds" (Elementary stream descriptor) 0x1f6-0x1fa (4)
0x1f0|                              00 00 00 00      |          ....  |                                  version: 0 0x1fa-0x1fe (4)
     |00 01 02 03 04 05 06 07 08 09 0a 0b 0c 0d 0e 0f|0123456789abcdef|                                  descriptor{}: (mpeg_es) 0x1fe-0x215 (23)
0x1f0|                                          03   |              . |                                    tag_id: "ES_DescrTag" (3) 0x1fe-0x1ff (1)
0x1f0|                                             15|               .|                                    length: 21 0x1ff-0x200 (1)
0x200|00 00                                          |..              |                                    es_id: 0 0x200-0x202 (2)
0x200|      00                                       |  .             |                                    stream_dependency_flag: false 0x202-0x202.1 (0.1)
0x200|      00                                       |  .             |                                    url_flag: false 0x202.1-0x202.2 (0.1)
0x200|      00                                       |  .             |                                    ocr_stream_flag: false 0x202.2-0x202.3 (0.1)
0x200|      00                                       |  .             |                                    stream_priority: 0 0x202.3-0x203 (0.5)
     |                                               |                |                                    dec_config_descr{}: 0x203-0x212 (15)
0x200|         04                                    |   .            |                                      tag_id: "DecoderConfigDescrTag" (4) 0x203-0x204 (1)
0x200|            0d                                 |    .           |                                      length: 13 0x204-0x205 (1)
0x200|               6b                              |     k          |                                      object_type_indication: "MPEGObjectTypeMP3" (107) 0x205-0x206 (1)
0x200|                  15                           |      .         |                                      stream_type: "AudioStream" (5) 0x206-0x206.6 (0.6)
0x200|                  15                           |      .         |                                      upstream: false 0x206.6-0x206.7 (0.1)
0x200|                  15                           |      .         |                                      specific_info_flag: true 0x206.7-0x207 (0.1)
0x200|                     00 00 d1                  |       ...      |                                      buffer_size_db: 209 0x207-0x20a (3)
0x200|                              00 01 04 a0      |          ....  |                                      max_bit_rate: 66720 0x20a-0x20e (4)
0x200|                                          00 01|              ..|                                      avg_bit_rate: 66720 0x20e-0x212 (4)
0x210|04 a0                                          |..              |
     |                                               |                |                                    sl_config_descr{}: 0x212-0x215 (3)
0x210|      06                                       |  .             |                                      tag_id: "SLConfigDescrTag" (6) 0x212-0x213 (1)
0x210|         01                                    |   .            |                                      length: 1 0x213-0x214 (1)
0x210|            02                                 |    .           |                                      data: raw bits 0x214-0x215 (1)
     |                                               |                |                        [1]{}: box 0x215-0x235 (32)
0x210|               00 00 00 20                     |     ...        |                          size: 32 0x215-0x219 (4)
0x210|                           73 74 74 73         |         stts   |                          type: "stts" (Sample time-to-sample) 0x219-0x21d (4)
0x210|                                       00      |             .  |                          version: 0 0x21d-0x21e (1)
0x210|                                          00 00|              ..|                          flags: 0 0x21e-0x221 (3)
0x220|00                                             |.               |
0x220|   00 00 00 02                                 | ....           |                          entry_count: 2 0x221-0x225 (4)
     |                                               |                |                          entries[0:2]: 0x225-0x235 (16)
     |                                               |                |                            [0]{}: entry 0x225-0x22d (8)
0x220|               00 00 00 02                     |     ....       |                              count: 2 0x225-0x229 (4)
0x220|                           00 00 04 80         |         ....   |                              delta: 1152 0x229-0x22d (4)
     |                                               |                |                            [1]{}: entry 0x22d-0x235 (8)
0x220|                                       00 00 00|             ...|                              count: 1 0x22d-0x231 (4)
0x230|01                                             |.               |
0x230|   00 00 03 ee                                 | ....           |                              delta: 1006 0x231-0x235 (4)
     |                                               |                |                        [2]{}: box 0x235-0x251 (28)
0x230|               00 00 00 1c                     |     ....       |                          size: 28 0x235-0x239 (4)
0x230|                           73 74 73 63         |         stsc   |                          type: "stsc" (Sample-to-chunk, partial data-offset information) 0x239-0x23d (4)
0x230|                                       00      |             .  |                          version: 0 0x23d-0x23e (1)
0x230|                                          00 00|              ..|                          flags: 0 0x23e-0x241 (3)
0x240|00                                             |.               |
0x240|   00 00 00 01                                 | ....           |                          entry_count: 1 0x241-0x245 (4)
     |                                               |                |                          entries[0:1]: 0x245-0x251 (12)
     |                                               |                |                            [0]{}: entry 0x245-0x251 (12)
0x240|               00 00 00 01                     |     ....       |                              first_chunk: 1 0x245-0x249 (4)
0x240|                           00 00 00 03         |         ....   |                              samples_per_chunk: 3 0x249-0x24d (4)
0x240|                                       00 00 00|             ...|                              sample_description_id: 1 0x24d-0x251 (4)
0x250|01                                             |.               |
     |                                               |                |                        [3]{}: box 0x251-0x268 (23)
0x250|   00 00 00 17                                 | ....           |                          size: 23 0x251-0x255 (4)
0x250|               73 74 7a 32                     |     stz2       |                          type: "stz2" (Compact sample sizes (framing)) 0x255-0x259 (4)
0x250|                           00                  |         .      |                          version: 0 0x259-0x25a (1)
0x250|                              00 00 00         |          ...   |                          flags: 0 0x25a-0x25d (3)
0x250|                                       00 00 00|             ...|                          field_size: 8 0x25d-0x261 (4)
0x260|08                                             |.               |
0x260|   00 00 00 03                                 | ....           |                          entry_count: 3 0x261-0x265 (4)
     |                                               |                |                          entries[0:3]: 0x265-0x268 (3)
0x260|               d0                              |     .          |                            [0]: 208 size 0x265-0x266 (1)
0x260|                  d1                           |      .         |                            [1]: 209 size 0x266-0x267 (1)
0x260|                     d1                        |       .        |                            [2]: 209 size 0x267-0x268 (1)
     |                                               |                |                        [4]{}: box 0x268-0x27c (20)
0x260|                        00 00 00 14            |        ....    |                          size: 20 0x268-0x26c (4)
0x260|                                    73 74 63 6f|            stco|                          type: "stco" (Chunk offset, partial data-offset information) 0x26c-0x270 (4)
0x270|00                                             |.               |                          version: 0 0x270-0x271 (1)
0x270|   00 00 00                                    | ...            |                          flags: 0 0x271-0x274 (3)
0x270|            00 00 00 01                        |    ....        |                          entry_count: 1 0x274-0x278 (4)
     |                                               |                |                          entries[0:1]: 0x278-0x27c (4)
0x270|                        00 00 02 84            |        ....    |                            [0]: 644 chunk_offset 0x278-0x27c (4)
     |                                               |                |    [2]{}: box 0x27c-0x4f6 (634)
0x270|                                    00 00 02 7a|            ...z|      size: 634 0x27c-0x280 (4)
0x280|6d 64 61 74                                    |mdat            |      type: "mdat" (Media data container) 0x280-0x284 (4)
0x280|            ff fb 50 c4 00 00 0a 2c 43 2e 55 94|    ..P....,C.U.|      data: raw bits 0x284-0x4f6 (626)
0x290|80 01 81 15 66 23 3a d0 00 07 aa c3 8e 33 85 d3|....f#:......3..|
*    |until 0x4f5.7 (626)                            |                |
     |                                               |                |    [3]{}: box 0x4f6-0x530 (58)
0x4f0|                  00 00 00 3a                  |      ...:      |      size: 58 0x4f6-0x4fa (4)
0x4f0|                              66 72 65 65      |          free  |      type: "free" (Free space) 0x4fa-0x4fe (4)
0x4f0|                                          49 73|              Is|      data: raw bits 0x4fe-0x530 (50)
0x500|6f 4d 65 64 69 61 20 46 69 6c 65 20 50 72 6f 64|oMedia File Prod|
*    |until 0x52f.7 (end) (50)                       |                |
     |                                               |                |  tracks[0:1]: 0x284-0x4f6 (626)
     |                                               |                |    [0]{}: track 0x284-0x4f6 (626)
     |                                               |                |      samples[0:3]: 0x284-0x4f6 (626)
     |00 01 02 03 04 05 06 07 08 09 0a 0b 0c 0d 0e 0f|0123456789abcdef|        [0]{}: sample (mp3_frame) 0x284-0x354 (208)
     |                                               |                |          header{}: 0x284-0x288 (4)
0x280|            ff fb                              |    ..          |            sync: 0b11111111111 (valid) 0x284-0x285.3 (1.3)
0x280|               fb                              |     .          |            mpeg_version: "1" (3) (MPEG Version 1) 0x285.3-0x285.5 (0.2)
0x280|               fb                              |     .          |            layer: 3 (1) (MPEG Layer 3) 0x285.5-0x285.7 (0.2)
     |                                               |                |            sample_count: 1152
0x280|               fb                              |     .          |            protection_absent: true (No CRC) 0x285.7-0x286 (0.1)
0x280|                  50                           |      P         |            bitrate: 64000 (5) 0x286-0x286.4 (0.4)
0x280|                  50                           |      P         |            sample_rate: 44100 (0) 0x286.4-0x286.6 (0.2)
0x280|                  50                           |      P         |            padding: "not_padded" (0b0) 0x286.6-0x286.7 (0.1)
0x280|                  50                           |      P         |            private: 0 0x286.7-0x287 (0.1)
0x280|                     c4                        |       .        |            channels: "mono" (0b11) 0x287-0x287.2 (0.2)
0x280|                     c4                        |       .        |            channel_mode: "none" (0b0) 0x287.2-0x287.4 (0.2)
0x280|                     c4                        |       .        |            copyright: 0 0x287.4-0x287.5 (0.1)
0x280|                     c4                        |       .        |            original: 1 0x287.5-0x287.6 (0.1)
0x280|                     c4                        |       .        |            emphasis: "none" (0b0) 0x287.6-0x288 (0.2)
     |                                               |                |          side_info{}: 0x288-0x299 (17)
0x280|                        00 00                  |        ..      |            main_data_begin: 0 0x288-0x289.1 (1.1)
0x280|                           00                  |         .      |            share: 0 0x289.1-0x289.6 (0.5)
0x280|                           00 0a               |         ..     |            scfsi0: 0 0x289.6-0x28a.2 (0.4)
     |                                               |                |            granules[0:2]: 0x28a.2-0x299 (14.6)
     |                                               |                |              [0][0:1]: granule 0x28a.2-0x291.5 (7.3)
     |                                               |                |                [0]{}: channel 0x28a.2-0x291.5 (7.3)
0x280|                              0a 2c            |          .,    |                  part2_3_length: 651 0x28a.2-0x28b.6 (1.4)
0x280|                                 2c 43         |           ,C   |                  big_values: 33 0x28b.6-0x28c.7 (1.1)
0x280|                                    43 2e      |            C.  |                  global_gain: 151 0x28c.7-0x28d.7 (1)
0x280|                                       2e 55   |             .U |                  scalefac_compress: 2 0x28d.7-0x28e.3 (0.4)
0x280|                                          55   |              U |                  blocksplit_flag: 1 0x28e.3-0x28e.4 (0.1)
0x280|                                          55   |              U |                  block_type: "start block" (1) 0x28e.4-0x28e.6 (0.2)
0x280|                                          55   |              U |                  switch_point: 0 0x28e.6-0x28e.7 (0.1)
0x280|                                          55 94|              U.|                  table_select0: 25 0x28e.7-0x28f.4 (0.5)
0x280|                                             94|               .|                  table_select1: 9 0x28f.4-0x290.1 (0.5)
0x290|80                                             |.               |
0x290|80                                             |.               |                  subblock_gain0: 0 0x290.1-0x290.4 (0.3)
0x290|80                                             |.               |                  subblock_gain1: 0 0x290.4-0x290.7 (0.3)
0x290|80 01                                          |..              |                  subblock_gain2: 0 0x290.7-0x291.2 (0.3)
0x290|   01                                          | .              |                  preflag: 0 0x291.2-0x291.3 (0.1)
0x290|   01                                          | .              |                  scalefac_scale: 0 0x291.3-0x291.4 (0.1)
0x290|   01                                          | .              |                  count1table_select: 0 0x291.4-0x291.5 (0.1)
     |                                               |                |              [1][0:1]: granule 0x291.5-0x299 (7.3)
     |                                               |                |                [0]{}: channel 0x291.5-0x299 (7.3)
0x290|   01 81 15                                    | ...            |                  part2_3_length: 770 0x291.5-0x293.1 (1.4)
0x290|         15 66                                 |   .f           |                  big_values: 85 0x293.1-0x294.2 (1.1)
0x290|            66 23                              |    f#          |                  global_gain: 152 0x294.2-0x295.2 (1)
0x290|               23                              |     #          |                  scalefac_compress: 8 0x295.2-0x295.6 (0.4)
0x290|               23                              |     #          |                  blocksplit_flag: 1 0x295.6-0x295.7 (0.1)
0x290|               23 3a                           |     #:         |                  block_type: "3 short windows" (2) 0x295.7-0x296.1 (0.2)
0x290|                  3a                           |      :         |                  switch_point: 0 0x296.1-0x296.2 (0.1)
0x290|                  3a                           |      :         |                  table_select0: 29 0x296.2-0x296.7 (0.5)
0x290|                  3a d0                        |      :.        |                  table_select1: 13 0x296.7-0x297.4 (0.5)
0x290|                     d0                        |       .        |                  subblock_gain0: 0 0x297.4-0x297.7 (0.3)
0x290|                     d0 00                     |       ..       |                  subblock_gain1: 0 0x297.7-0x298.2 (0.3)
0x290|                        00                     |        .       |                  subblock_gain2: 0 0x298.2-0x298.5 (0.3)
0x290|                        00                     |        .       |                  preflag: 0 0x298.5-0x298.6 (0.1)
0x290|                        00                     |        .       |                  scalefac_scale: 0 0x298.6-0x298.7 (0.1)
0x290|                        00                     |        .       |                  count1table_select: 0 0x298.7-0x299 (0.1)
0x290|                           07 aa c3 8e 33 85 d3|         ....3..|          audio_data: raw bits 0x299-0x354 (187)
0x2a0|64 f1 a1 c1 08 1c 58 1f 5e 1f 18 1c 46 04 1e 89|d.....X.^...F...|
*    |until 0x353.7 (187)                            |                |
     |                                               |                |          crc_calculated: "2e0a" (raw bits)
     |00 01 02 03 04 05 06 07 08 09 0a 0b 0c 0d 0e 0f|0123456789abcdef|        [1]{}: sample (mp3_frame) 0x354-0x425 (209)
     |                                               |                |          header{}: 0x354-0x358 (4)
0x350|            ff fb                              |    ..          |            sync: 0b11111111111 (valid) 0x354-0x355.3 (1.3)
0x350|               fb                              |     .          |            mpeg_version: "1" (3) (MPEG Version 1) 0x355.3-0x355.5 (0.2)
0x350|               fb                              |     .          |            layer: 3 (1) (MPEG Layer 3) 0x355.5-0x355.7 (0.2)
     |                                               |                |            sample_count: 1152
0x350|               fb                              |     .          |            protection_absent: true (No CRC) 0x355.7-0x356 (0.1)
0x350|                  52                           |      R         |            bitrate: 64000 (5) 0x356-0x356.4 (0.4)
0x350|                  52                           |      R         |            sample_rate: 44100 (0) 0x356.4-0x356.6 (0.2)
0x350|                  52                           |      R         |            padding: "padded" (0b1) 0x356.6-0x356.7 (0.1)
0x350|                  52                           |      R         |            private: 0 0x356.7-0x357 (0.1)
0x350|                     c4                        |       .        |            channels: "mono" (0b11) 0x357-0x357.2 (0.2)
0x350|                     c4                        |       .        |            channel_mode: "none" (0b0) 0x357.2-0x357.4 (0.2)
0x350|                     c4                        |       .        |            copyright: 0 0x357.4-0x357.5 (0.1)
0x350|                     c4                        |       .        |            original: 1 0x357.5-0x357.6 (0.1)
0x350|                     c4                        |       .        |            emphasis: "none" (0b0) 0x357.6-0x358 (0.2)
     |                                               |                |          side_info{}: 0x358-0x369 (17)
0x350|                        04 82                  |        ..      |            main_data_begin: 9 0x358-0x359.1 (1.1)
0x350|                           82                  |         .      |            share: 0 0x359.1-0x359.6 (0.5)
0x350|                           82 0a               |         ..     |            scfsi0: 8 0x359.6-0x35a.2 (0.4)
     |                                               |                |            granules[0:2]: 0x35a.2-0x369 (14.6)
     |                                               |                |              [0][0:1]: granule 0x35a.2-0x361.5 (7.3)
     |                                               |                |                [0]{}: channel 0x35a.2-0x361.5 (7.3)
0x350|                              0a 60            |          .`    |                  part2_3_length: 664 0x35a.2-0x35b.6 (1.4)
0x350|                                 60 21         |           `!   |                  big_values: 16 0x35b.6-0x35c.7 (1.1)
0x350|                                    21 10      |            !.  |                  global_gain: 136 0x35c.7-0x35d.7 (1)
0x350|                                       10 bd   |             .. |                  scalefac_compress: 5 0x35d.7-0x35e.3 (0.4)
0x350|                                          bd   |              . |                  blocksplit_flag: 1 0x35e.3-0x35e.4 (0.1)
0x350|                                          bd   |              . |                  block_type: "end" (3) 0x35e.4-0x35e.6 (0.2)
0x350|                                          bd   |              . |                  switch_point: 0 0x35e.6-0x35e.7 (0.1)
0x350|                                          bd f1|              ..|                  table_select0: 31 0x35e.7-0x35f.4 (0.5)
0x350|                                             f1|               .|                  table_select1: 2 0x35f.4-0x360.1 (0.5)
0x360|00                                             |.               |
0x360|00                                             |.               |                  subblock_gain0: 0 0x360.1-0x360.4 (0.3)
0x360|00                                             |.               |                  subblock_gain1: 0 0x360.4-0x360.7 (0.3)
0x360|00 01                                          |..              |                  subblock_gain2: 0 0x360.7-0x361.2 (0.3)
0x360|   01                                          | .              |                  preflag: 0 0x361.2-0x361.3 (0.1)
0x360|   01                                          | .              |                  scalefac_scale: 0 0x361.3-0x361.4 (0.1)
0x360|   01                                          | .              |                  count1table_select: 0 0x361.4-0x361.5 (0.1)
     |                                               |                |              [1][0:1]: granule 0x361.5-0x369 (7.3)
     |                                               |                |                [0]{}: channel 0x361.5-0x369 (7.3)
0x360|   01 59 04                                    | .Y.            |                  part2_3_length: 690 0x361.5-0x363.1 (1.4)
0x360|         04 a1                                 |   ..           |                  big_values: 18 0x363.1-0x364.2 (1.1)
0x360|            a1 e2                              |    ..          |                  global_gain: 135 0x364.2-0x365.2 (1)
0x360|               e2                              |     .          |                  scalefac_compress: 8 0x365.2-0x365.6 (0.4)
0x360|               e2                              |     .          |                  blocksplit_flag: 1 0x365.6-0x365.7 (0.1)
0x360|               e2 be                           |     ..         |                  block_type: "start block" (1) 0x365.7-0x366.1 (0.2)
0x360|                  be                           |      .         |                  switch_point: 0 0x366.1-0x366.2 (0.1)
0x360|                  be                           |      .         |                  table_select0: 31 0x366.2-0x366.7 (0.5)
0x360|                  be 20                        |      .         |                  table_select1: 2 0x366.7-0x367.4 (0.5)
0x360|                     20                        |                |                  subblock_gain0: 0 0x367.4-0x367.7 (0.3)
0x360|                     20 00                     |        .       |                  subblock_gain1: 0 0x367.7-0x368.2 (0.3)
0x360|                        00                     |        .       |                  subblock_gain2: 0 0x368.2-0x368.5 (0.3)
0x360|                        00                     |        .       |                  preflag: 0 0x368.5-0x368.6 (0.1)
0x360|                        00                     |        .       |                  scalefac_scale: 0 0x368.6-0x368.7 (0.1)
0x360|                        00                     |        .       |                  count1table_select: 0 0x368.7-0x369 (0.1)
0x360|                           01 d9 81 38 05 c9 80|         ...8...|          audio_data: raw bits 0x369-0x425 (188)
0x370|20 04 f1 80 8e 07 01 96 d2 b0 19 91 ec 2a 39 85| ............*9.|
*    |until 0x424.7 (188)                            |                |
     |                                               |                |          crc_calculated: "9950" (raw bits)
     |00 01 02 03 04 05 06 07 08 09 0a 0b 0c 0d 0e 0f|0123456789abcdef|        [2]{}: sample (mp3_frame) 0x425-0x4f6 (209)
     |                                               |                |          header{}: 0x425-0x429 (4)
0x420|               ff fb                           |     ..         |            sync: 0b11111111111 (valid) 0x425-0x426.3 (1.3)
0x420|                  fb                           |      .         |            mpeg_version: "1" (3) (MPEG Version 1) 0x426.3-0x426.5 (0.2)
0x420|                  fb                           |      .         |            layer: 3 (1) (MPEG Layer 3) 0x426.5-0x426.7 (0.2)
     |                                               |                |            sample_count: 1152
0x420|                  fb                           |      .         |            protection_absent: true (No CRC) 0x426.7-0x427 (0.1)
0x420|                     52                        |       R        |            bitrate: 64000 (5) 0x427-0x427.4 (0.4)
0x420|                     52                        |       R        |            sample_rate: 44100 (0) 0x427.4-0x427.6 (0.2)
0x420|                     52                        |       R        |            padding: "padded" (0b1) 0x427.6-0x427.7 (0.1)
0x420|                     52                        |       R        |            private: 0 0x427.7-0x428 (0.1)
0x420|                        c4                     |        .       |            channels: "mono" (0b11) 0x428-0x428.2 (0.2)
0x420|                        c4                     |        .       |            channel_mode: "none" (0b0) 0x428.2-0x428.4 (0.2)
0x420|                        c4                     |        .       |            copyright: 0 0x428.4-0x428.5 (0.1)
0x420|                        c4                     |        .       |            original: 1 0x428.5-0x428.6 (0.1)
0x420|                        c4                     |        .       |            emphasis: "none" (0b0) 0x428.6-0x429 (0.2)
     |                                               |                |          side_info{}: 0x429-0x43a (17)
0x420|                           0d 80               |         ..     |            main_data_begin: 27 0x429-0x42a.1 (1.1)
0x420|                              80               |          .     |            share: 0 0x42a.1-0x42a.6 (0.5)
0x420|                              80 0d            |          ..    |            scfsi0: 0 0x42a.6-0x42b.2 (0.4)
     |                                               |                |            granules[0:2]: 0x42b.2-0x43a (14.6)
     |                                               |                |              [0][0:1]: granule 0x42b.2-0x432.5 (7.3)
     |                                               |                |                [0]{}: channel 0x42b.2-0x432.5 (7.3)
0x420|                                 0d e4         |           ..   |                  part2_3_length: 889 0x42b.2-0x42c.6 (1.4)
0x420|                                    e4 c9      |            ..  |                  big_values: 100 0x42c.6-0x42d.7 (1.1)
0x420|                                       c9 7b   |             .{ |                  global_gain: 189 0x42d.7-0x42e.7 (1)
0x420|                                          7b f9|              {.|                  scalefac_compress: 15 0x42e.7-0x42f.3 (0.4)
0x420|                                             f9|               .|                  blocksplit_flag: 1 0x42f.3-0x42f.4 (0.1)
0x420|                                             f9|               .|                  block_type: "3 short windows" (2) 0x42f.4-0x42f.6 (0.2)
0x420|                                             f9|               .|                  switch_point: 0 0x42f.6-0x42f.7 (0.1)
0x420|                                             f9|               .|                  table_select0: 24 0x42f.7-0x430.4 (0.5)
0x430|89                                             |.               |
0x430|89 84                                          |..              |                  table_select1: 19 0x430.4-0x431.1 (0.5)
0x430|   84                                          | .              |                  subblock_gain0: 0 0x431.1-0x431.4 (0.3)
0x430|   84                                          | .              |                  subblock_gain1: 2 0x431.4-0x431.7 (0.3)
0x430|   84 91                                       | ..             |                  subblock_gain2: 2 0x431.7-0x432.2 (0.3)
0x430|      91                                       |  .             |                  preflag: 0 0x432.2-0x432.3 (0.1)
0x430|      91                                       |  .             |                  scalefac_scale: 1 0x432.3-0x432.4 (0.1)
0x430|      91                                       |  .             |                  count1table_select: 0 0x432.4-0x432.5 (0.1)
     |                                               |                |              [1][0:1]: granule 0x432.5-0x43a (7.3)
     |                                               |                |                [0]{}: channel 0x432.5-0x43a (7.3)
0x430|      91 30 8d                                 |  .0.           |                  part2_3_length: 609 0x432.5-0x434.1 (1.4)
0x430|            8d a3                              |    ..          |                  big_values: 54 0x434.1-0x435.2 (1.1)
0x430|               a3 03                           |     ..         |                  global_gain: 140 0x435.2-0x436.2 (1)
0x430|                  03                           |      .         |                  scalefac_compress: 0 0x436.2-0x436.6 (0.4)
0x430|                  03                           |      .         |                  blocksplit_flag: 1 0x436.6-0x436.7 (0.1)
0x430|                  03 b2                        |      ..        |                  block_type: "end" (3) 0x436.7-0x437.1 (0.2)
0x430|                     b2                        |       .        |                  switch_point: 0 0x437.1-0x437.2 (0.1)
0x430|                     b2                        |       .        |                  table_select0: 25 0x437.2-0x437.7 (0.5)
0x430|                     b2 f0                     |       ..       |                  table_select1: 15 0x437.7-0x438.4 (0.5)
0x430|                        f0                     |        .       |                  subblock_gain0: 0 0x438.4-0x438.7 (0.3)
0x430|                        f0 00                  |        ..      |                  subblock_gain1: 0 0x438.7-0x439.2 (0.3)
0x430|                           00                  |         .      |                  subblock_gain2: 0 0x439.2-0x439.5 (0.3)
0x430|                           00                  |         .      |                  preflag: 0 0x439.5-0x439.6 (0.1)
0x430|                           00                  |         .      |                  scalefac_scale: 0 0x439.6-0x439.7 (0.1)
0x430|                           00                  |         .      |                  count1table_select: 0 0x439.7-0x43a (0.1)
0x430|                              53 ca 1e 59 fd 29|          S..Y.)|          audio_data: raw bits 0x43a-0x4f6 (188)
0x440|ba 0b 84 d4 8a f8 8d cb a0 77 10 07 47 8b 8c 7b|.........w..G..{|
*    |until 0x4f5.7 (188)                            |                |
     |                                               |                |          crc_calculated: "c36b" (raw bits)
     |                                               |                |      id: 1
     |                                               |                |      data_format: "mp4a" (MPEG-4 Audio)
