# ffmpeg -f lavfi -i sine -ac 2 -strict experimental -c:a vorbis -t 50ms vorbis.mp4
$ fq -d mp4 dv vorbis.mp4
      |00 01 02 03 04 05 06 07 08 09 0a 0b 0c 0d 0e 0f|0123456789abcdef|.{}: vorbis.mp4 (mp4) 0x0-0x1189 (4489)
      |                                               |                |  boxes[0:4]: 0x0-0x1189 (4489)
      |                                               |                |    [0]{}: box 0x0-0x1c (28)
0x0000|00 00 00 1c                                    |....            |      size: 28 0x0-0x4 (4)
0x0000|            66 74 79 70                        |    ftyp        |      type: "ftyp" (File type and compatibility) 0x4-0x8 (4)
0x0000|                        69 73 6f 6d            |        isom    |      major_brand: "isom" 0x8-0xc (4)
0x0000|                                    00 00 02 00|            ....|      minor_version: 512 0xc-0x10 (4)
      |                                               |                |      brands[0:3]: 0x10-0x1c (12)
0x0010|69 73 6f 6d                                    |isom            |        [0]: "isom" brand (All files based on the ISO Base Media File Format) 0x10-0x14 (4)
0x0010|            69 73 6f 32                        |    iso2        |        [1]: "iso2" brand (All files based on the 2004 edition of the ISO file format) 0x14-0x18 (4)
0x0010|                        6d 70 34 31            |        mp41    |        [2]: "mp41" brand (MP4 version 1) 0x18-0x1c (4)
      |                                               |                |    [1]{}: box 0x1c-0x24 (8)
0x0010|                                    00 00 00 08|            ....|      size: 8 0x1c-0x20 (4)
0x0020|66 72 65 65                                    |free            |      type: "free" (Free space) 0x20-0x24 (4)
      |                                               |                |      data: raw bits 0x24-0x24 (0)
      |                                               |                |    [2]{}: box 0x24-0x1dd (441)
0x0020|            00 00 01 b9                        |    ....        |      size: 441 0x24-0x28 (4)
0x0020|                        6d 64 61 74            |        mdat    |      type: "mdat" (Media data container) 0x28-0x2c (4)
0x0020|                                    be b7 f2 81|            ....|      data: raw bits 0x2c-0x1dd (433)
0x0030|46 74 15 42 0b 52 08 17 32 8e 43 08 65 84 84 f6|Ft.B.R..2.C.e...|
*     |until 0x1dc.7 (433)                            |                |
      |                                               |                |    [3]{}: box 0x1dd-0x1189 (4012)
0x01d0|                                       00 00 0f|             ...|      size: 4012 0x1dd-0x1e1 (4)
0x01e0|ac                                             |.               |
0x01e0|   6d 6f 6f 76                                 | moov           |      type: "moov" (Container for all the meta-data) 0x1e1-0x1e5 (4)
      |                                               |                |      boxes[0:3]: 0x1e5-0x1189 (4004)
      |                                               |                |        [0]{}: box 0x1e5-0x251 (108)
0x01e0|               00 00 00 6c                     |     ...l       |          size: 108 0x1e5-0x1e9 (4)
0x01e0|                           6d 76 68 64         |         mvhd   |          type: "mvhd" (Movie header, overall declarations) 0x1e9-0x1ed (4)
0x01e0|                                       00      |             .  |          version: 0 0x1ed-0x1ee (1)
0x01e0|                                          00 00|              ..|          flags: 0 0x1ee-0x1f1 (3)
0x01f0|00                                             |.               |
0x01f0|   00 00 00 00                                 | ....           |          creation_time: 0 (1904-01-01T00:00:00Z) 0x1f1-0x1f5 (4)
0x01f0|               00 00 00 00                     |     ....       |          modification_time: 0 (1904-01-01T00:00:00Z) 0x1f5-0x1f9 (4)
0x01f0|                           00 00 03 e8         |         ....   |          time_scale: 1000 0x1f9-0x1fd (4)
0x01f0|                                       00 00 00|             ...|          duration: 51 0x1fd-0x201 (4)
0x0200|33                                             |3               |
0x0200|   00 01 00 00                                 | ....           |          preferred_rate: 1 0x201-0x205 (4)
0x0200|               01 00                           |     ..         |          preferred_volume: 1 0x205-0x207 (2)
0x0200|                     00 00 00 00 00 00 00 00 00|       .........|          reserved: "\x00\x00\x00\x00\x00\x00\x00\x00\x00\x00" 0x207-0x211 (10)
0x0210|00                                             |.               |
      |                                               |                |          matrix_structure{}: 0x211-0x235 (36)
0x0210|   00 01 00 00                                 | ....           |            a: 1 0x211-0x215 (4)
0x0210|               00 00 00 00                     |     ....       |            b: 0 0x215-0x219 (4)
0x0210|                           00 00 00 00         |         ....   |            u: 0 0x219-0x21d (4)
0x0210|                                       00 00 00|             ...|            c: 0 0x21d-0x221 (4)
0x0220|00                                             |.               |
0x0220|   00 01 00 00                                 | ....           |            d: 1 0x221-0x225 (4)
0x0220|               00 00 00 00                     |     ....       |            v: 0 0x225-0x229 (4)
0x0220|                           00 00 00 00         |         ....   |            x: 0 0x229-0x22d (4)
0x0220|                                       00 00 00|             ...|            y: 0 0x22d-0x231 (4)
0x0230|00                                             |.               |
0x0230|   40 00 00 00                                 | @...           |            w: 1 0x231-0x235 (4)
0x0230|               00 00 00 00                     |     ....       |          preview_time: 0 0x235-0x239 (4)
0x0230|                           00 00 00 00         |         ....   |          preview_duration: 0 0x239-0x23d (4)
0x0230|                                       00 00 00|             ...|          poster_time: 0 0x23d-0x241 (4)
0x0240|00                                             |.               |
0x0240|   00 00 00 00                                 | ....           |          selection_time: 0 0x241-0x245 (4)
0x0240|               00 00 00 00                     |     ....       |          selection_duration: 0 0x245-0x249 (4)
0x0240|                           00 00 00 00         |         ....   |          current_time: 0 0x249-0x24d (4)
0x0240|                                       00 00 00|             ...|          next_track_id: 2 0x24d-0x251 (4)
0x0250|02                                             |.               |
      |                                               |                |        [1]{}: box 0x251-0x1127 (3798)
0x0250|   00 00 0e d6                                 | ....           |          size: 3798 0x251-0x255 (4)
0x0250|               74 72 61 6b                     |     trak       |          type: "trak" (Container for an individual track or stream) 0x255-0x259 (4)
      |                                               |                |          boxes[0:3]: 0x259-0x1127 (3790)
      |                                               |                |            [0]{}: box 0x259-0x2b5 (92)
0x0250|                           00 00 00 5c         |         ...\   |              size: 92 0x259-0x25d (4)
0x0250|                                       74 6b 68|             tkh|              type: "tkhd" (Track header, overall information about the track) 0x25d-0x261 (4)
0x0260|64                                             |d               |
0x0260|   00                                          | .              |              version: 0 0x261-0x262 (1)
      |                                               |                |              flags{}: 0x262-0x265 (3)
0x0260|      00 00 03                                 |  ...           |                unused: 0 0x262-0x264.4 (2.4)
0x0260|            03                                 |    .           |                size_is_aspect_ratio: false 0x264.4-0x264.5 (0.1)
0x0260|            03                                 |    .           |                in_preview: false 0x264.5-0x264.6 (0.1)
0x0260|            03                                 |    .           |                in_movie: true 0x264.6-0x264.7 (0.1)
0x0260|            03                                 |    .           |                enabled: true 0x264.7-0x265 (0.1)
0x0260|               00 00 00 00                     |     ....       |              creation_time: 0 (1904-01-01T00:00:00Z) 0x265-0x269 (4)
0x0260|                           00 00 00 00         |         ....   |              modification_time: 0 (1904-01-01T00:00:00Z) 0x269-0x26d (4)
0x0260|                                       00 00 00|             ...|              track_id: 1 0x26d-0x271 (4)
0x0270|01                                             |.               |
0x0270|   00 00 00 00                                 | ....           |              reserved1: 0 0x271-0x275 (4)
0x0270|               00 00 00 33                     |     ...3       |              duration: 51 0x275-0x279 (4)
0x0270|                           00 00 00 00 00 00 00|         .......|              reserved2: raw bits 0x279-0x281 (8)
0x0280|00                                             |.               |
0x0280|   00 00                                       | ..             |              layer: 0 0x281-0x283 (2)
0x0280|         00 01                                 |   ..           |              alternate_group: 1 0x283-0x285 (2)
0x0280|               01 00                           |     ..         |              volume: 1 0x285-0x287 (2)
0x0280|                     00 00                     |       ..       |              reserved3: 0 0x287-0x289 (2)
      |                                               |                |              matrix_structure{}: 0x289-0x2ad (36)
0x0280|                           00 01 00 00         |         ....   |                a: 1 0x289-0x28d (4)
0x0280|                                       00 00 00|             ...|                b: 0 0x28d-0x291 (4)
0x0290|00                                             |.               |
0x0290|   00 00 00 00                                 | ....           |                u: 0 0x291-0x295 (4)
0x0290|               00 00 00 00                     |     ....       |                c: 0 0x295-0x299 (4)
0x0290|                           00 01 00 00         |         ....   |                d: 1 0x299-0x29d (4)
0x0290|                                       00 00 00|             ...|                v: 0 0x29d-0x2a1 (4)
0x02a0|00                                             |.               |
0x02a0|   00 00 00 00                                 | ....           |                x: 0 0x2a1-0x2a5 (4)
0x02a0|               00 00 00 00                     |     ....       |                y: 0 0x2a5-0x2a9 (4)
0x02a0|                           40 00 00 00         |         @...   |                w: 1 0x2a9-0x2ad (4)
0x02a0|                                       00 00 00|             ...|              track_width: 0 0x2ad-0x2b1 (4)
0x02b0|00                                             |.               |
0x02b0|   00 00 00 00                                 | ....           |              track_height: 0 0x2b1-0x2b5 (4)
      |                                               |                |            [1]{}: box 0x2b5-0x2d9 (36)
0x02b0|               00 00 00 24                     |     ...$       |              size: 36 0x2b5-0x2b9 (4)
0x02b0|                           65 64 74 73         |         edts   |              type: "edts" (Edit list container) 0x2b9-0x2bd (4)
      |                                               |                |              boxes[0:1]: 0x2bd-0x2d9 (28)
      |                                               |                |                [0]{}: box 0x2bd-0x2d9 (28)
0x02b0|                                       00 00 00|             ...|                  size: 28 0x2bd-0x2c1 (4)
0x02c0|1c                                             |.               |
0x02c0|   65 6c 73 74                                 | elst           |                  type: "elst" (An edit list) 0x2c1-0x2c5 (4)
0x02c0|               00                              |     .          |                  version: 0 0x2c5-0x2c6 (1)
0x02c0|                  00 00 00                     |      ...       |                  flags: 0 0x2c6-0x2c9 (3)
0x02c0|                           00 00 00 01         |         ....   |                  entry_count: 1 0x2c9-0x2cd (4)
      |                                               |                |                  entries[0:1]: 0x2cd-0x2d9 (12)
      |                                               |                |                    [0]{}: entry 0x2cd-0x2d9 (12)
0x02c0|                                       00 00 00|             ...|                      segment_duration: 51 0x2cd-0x2d1 (4)
0x02d0|33                                             |3               |
0x02d0|   00 00 00 00                                 | ....           |                      media_time: 0 0x2d1-0x2d5 (4)
0x02d0|               00 01 00 00                     |     ....       |                      media_rate: 1 0x2d5-0x2d9 (4)
      |                                               |                |            [2]{}: box 0x2d9-0x1127 (3662)
0x02d0|                           00 00 0e 4e         |         ...N   |              size: 3662 0x2d9-0x2dd (4)
0x02d0|                                       6d 64 69|             mdi|              type: "mdia" (Container for the media information in a track) 0x2dd-0x2e1 (4)
0x02e0|61                                             |a               |
      |                                               |                |              boxes[0:3]: 0x2e1-0x1127 (3654)
      |                                               |                |                [0]{}: box 0x2e1-0x301 (32)
0x02e0|   00 00 00 20                                 | ...            |                  size: 32 0x2e1-0x2e5 (4)
0x02e0|               6d 64 68 64                     |     mdhd       |                  type: "mdhd" (Media header, overall information about the media) 0x2e5-0x2e9 (4)
0x02e0|                           00                  |         .      |                  version: 0 0x2e9-0x2ea (1)
0x02e0|                              00 00 00         |          ...   |                  flags: 0 0x2ea-0x2ed (3)
0x02e0|                                       00 00 00|             ...|                  creation_time: 0 (1904-01-01T00:00:00Z) 0x2ed-0x2f1 (4)
0x02f0|00                                             |.               |
0x02f0|   00 00 00 00                                 | ....           |                  modification_time: 0 (1904-01-01T00:00:00Z) 0x2f1-0x2f5 (4)
0x02f0|               00 00 ac 44                     |     ...D       |                  time_scale: 44100 0x2f5-0x2f9 (4)
0x02f0|                           00 00 08 c0         |         ....   |                  duration: 2240 0x2f9-0x2fd (4)
0x02f0|                                       55 c4   |             U. |                  language: "und" 0x2fd-0x2ff (2)
0x02f0|                                             00|               .|                  quality: 0 0x2ff-0x301 (2)
0x0300|00                                             |.               |
      |                                               |                |                [1]{}: box 0x301-0x32e (45)
0x0300|   00 00 00 2d                                 | ...-           |                  size: 45 0x301-0x305 (4)
0x0300|               68 64 6c 72                     |     hdlr       |                  type: "hdlr" (Handler, declares the media (handler) type) 0x305-0x309 (4)
0x0300|                           00                  |         .      |                  version: 0 0x309-0x30a (1)
0x0300|                              00 00 00         |          ...   |                  flags: 0 0x30a-0x30d (3)
0x0300|                                       00 00 00|             ...|                  component_type: "" 0x30d-0x311 (4)
0x0310|00                                             |.               |
0x0310|   73 6f 75 6e                                 | soun           |                  component_subtype: "soun" (Audio Track) 0x311-0x315 (4)
0x0310|               00 00 00 00                     |     ....       |                  component_manufacturer: "" 0x315-0x319 (4)
0x0310|                           00 00 00 00         |         ....   |                  component_flags: 0 0x319-0x31d (4)
0x0310|                                       00 00 00|             ...|                  component_flags_mask: 0 0x31d-0x321 (4)
0x0320|00                                             |.               |
0x0320|   53 6f 75 6e 64 48 61 6e 64 6c 65 72 00      | SoundHandler.  |                  component_name: "SoundHandler" 0x321-0x32e (13)
      |                                               |                |                [2]{}: box 0x32e-0x1127 (3577)
0x0320|                                          00 00|              ..|                  size: 3577 0x32e-0x332 (4)
0x0330|0d f9                                          |..              |
0x0330|      6d 69 6e 66                              |  minf          |                  type: "minf" (Media information container) 0x332-0x336 (4)
      |                                               |                |                  boxes[0:3]: 0x336-0x1127 (3569)
      |                                               |                |                    [0]{}: box 0x336-0x346 (16)
0x0330|                  00 00 00 10                  |      ....      |                      size: 16 0x336-0x33a (4)
0x0330|                              73 6d 68 64      |          smhd  |                      type: "smhd" (Sound media header, overall information (sound track only)) 0x33a-0x33e (4)
0x0330|                                          00   |              . |                      version: 0 0x33e-0x33f (1)
0x0330|                                             00|               .|                      flags: 0 0x33f-0x342 (3)
0x0340|00 00                                          |..              |
0x0340|      00 00                                    |  ..            |                      balance: 0 0x342-0x344 (2)
0x0340|            00 00                              |    ..          |                      reserved: 0 0x344-0x346 (2)
      |                                               |                |                    [1]{}: box 0x346-0x36a (36)
0x0340|                  00 00 00 24                  |      ...$      |                      size: 36 0x346-0x34a (4)
0x0340|                              64 69 6e 66      |          dinf  |                      type: "dinf" (Data information box, container) 0x34a-0x34e (4)
      |                                               |                |                      boxes[0:1]: 0x34e-0x36a (28)
      |                                               |                |                        [0]{}: box 0x34e-0x36a (28)
0x0340|                                          00 00|              ..|                          size: 28 0x34e-0x352 (4)
0x0350|00 1c                                          |..              |
0x0350|      64 72 65 66                              |  dref          |                          type: "dref" (Data reference box, declares source(s) of media data in track) 0x352-0x356 (4)
0x0350|                  00                           |      .         |                          version: 0 0x356-0x357 (1)
0x0350|                     00 00 00                  |       ...      |                          flags: 0 0x357-0x35a (3)
0x0350|                              00 00 00 01      |          ....  |                          entry_count: 1 0x35a-0x35e (4)
      |                                               |                |                          boxes[0:1]: 0x35e-0x36a (12)
      |                                               |                |                            [0]{}: box 0x35e-0x36a (12)
0x0350|                                          00 00|              ..|                              size: 12 0x35e-0x362 (4)
0x0360|00 0c                                          |..              |
0x0360|      75 72 6c 20                              |  url           |                              type: "url" 0x362-0x366 (4)
0x0360|                  00                           |      .         |                              version: 0 0x366-0x367 (1)
0x0360|                     00 00 01                  |       ...      |                              flags: 1 0x367-0x36a (3)
      |                                               |                |                              data: "" 0x36a-0x36a (0)
      |                                               |                |                    [2]{}: box 0x36a-0x1127 (3517)
0x0360|                              00 00 0d bd      |          ....  |                      size: 3517 0x36a-0x36e (4)
0x0360|                                          73 74|              st|                      type: "stbl" (Sample table box, container for the time/space map) 0x36e-0x372 (4)
0x0370|62 6c                                          |bl              |
      |                                               |                |                      boxes[0:5]: 0x372-0x1127 (3509)
      |                                               |                |                        [0]{}: box 0x372-0x10b7 (3397)
0x0370|      00 00 0d 45                              |  ...E          |                          size: 3397 0x372-0x376 (4)
0x0370|                  73 74 73 64                  |      stsd      |                          type: "stsd" (Sample descriptions (codec types, initialization etc.)) 0x376-0x37a (4)
0x0370|                              00               |          .     |                          version: 0 0x37a-0x37b (1)
0x0370|                                 00 00 00      |           ...  |                          flags: 0 0x37b-0x37e (3)
0x0370|                                          00 00|              ..|                          entry_count: 1 0x37e-0x382 (4)
0x0380|00 01                                          |..              |
      |                                               |                |                          boxes[0:1]: 0x382-0x10b7 (3381)
      |                                               |                |                            [0]{}: box 0x382-0x10b7 (3381)
0x0380|      00 00 0d 35                              |  ...5          |                              size: 3381 0x382-0x386 (4)
0x0380|                  6d 70 34 61                  |      mp4a      |                              type: "mp4a" (MPEG-4 Audio) 0x386-0x38a (4)
0x0380|                              00 00 00 00 00 00|          ......|                              reserved: raw bits 0x38a-0x390 (6)
0x0390|00 01                                          |..              |                              data_reference_index: 1 0x390-0x392 (2)
0x0390|      00 00                                    |  ..            |                              version: 0 0x392-0x394 (2)
0x0390|            00 00                              |    ..          |                              revision_level: 0 0x394-0x396 (2)
0x0390|                  00 00 00 00                  |      ....      |                              max_packet_size: 0 0x396-0x39a (4)
0x0390|                              00 02            |          ..    |                              num_audio_channels: 2 0x39a-0x39c (2)
0x0390|                                    00 10      |            ..  |                              sample_size: 16 0x39c-0x39e (2)
0x0390|                                          00 00|              ..|                              compression_id: 0 0x39e-0x3a0 (2)
0x03a0|00 00                                          |..              |                              packet_size: 0 0x3a0-0x3a2 (2)
0x03a0|      ac 44 00 00                              |  .D..          |                              sample_rate: 44100 0x3a2-0x3a6 (4)
      |                                               |                |                              boxes[0:1]: 0x3a6-0x10b7 (3345)
      |                                               |                |                                [0]{}: box 0x3a6-0x10b7 (3345)
0x03a0|                  00 00 0d 11                  |      ....      |                                  size: 3345 0x3a6-0x3aa (4)
0x03a0|                              65 73 64 73      |          esds  |                                  type: "esds" (Elementary stream descriptor) 0x3aa-0x3ae (4)
0x03a0|                                          00 00|              ..|                                  version: 0 0x3ae-0x3b2 (4)
0x03b0|00 00                                          |..              |
      |00 01 02 03 04 05 06 07 08 09 0a 0b 0c 0d 0e 0f|0123456789abcdef|                                  descriptor{}: (mpeg_es) 0x3b2-0x10b7 (3333)
0x03b0|      03                                       |  .             |                                    tag_id: "ES_DescrTag" (3) 0x3b2-0x3b3 (1)
0x03b0|         80 80 9a 00                           |   ....         |                                    length: 3328 0x3b3-0x3b7 (4)
0x03b0|                     00 01                     |       ..       |                                    es_id: 1 0x3b7-0x3b9 (2)
0x03b0|                           00                  |         .      |                                    stream_dependency_flag: false 0x3b9-0x3b9.1 (0.1)
0x03b0|                           00                  |         .      |                                    url_flag: false 0x3b9.1-0x3b9.2 (0.1)
0x03b0|                           00                  |         .      |                                    ocr_stream_flag: false 0x3b9.2-0x3b9.3 (0.1)
0x03b0|                           00                  |         .      |                                    stream_priority: 0 0x3b9.3-0x3ba (0.5)
      |                                               |                |                                    dec_config_descr{}: 0x3ba-0x10b1 (3319)
0x03b0|                              04               |          .     |                                      tag_id: "DecoderConfigDescrTag" (4) 0x3ba-0x3bb (1)
0x03b0|                                 80 80 99 72   |           ...r |                                      length: 3314 0x3bb-0x3bf (4)
0x03b0|                                             dd|               .|                                      object_type_indication: "MPEGObjectTypeVORBIS" (221) 0x3bf-0x3c0 (1)
0x03c0|15                                             |.               |                                      stream_type: "AudioStream" (5) 0x3c0-0x3c0.6 (0.6)
0x03c0|15                                             |.               |                                      upstream: false 0x3c0.6-0x3c0.7 (0.1)
0x03c0|15                                             |.               |                                      specific_info_flag: true 0x3c0.7-0x3c1 (0.1)
0x03c0|   00 00 00                                    | ...            |                                      buffer_size_db: 0 0x3c1-0x3c4 (3)
0x03c0|            00 01 0a 65                        |    ...e        |                                      max_bit_rate: 68197 0x3c4-0x3c8 (4)
0x03c0|                        00 01 0a 65            |        ...e    |                                      avg_bit_rate: 68197 0x3c8-0x3cc (4)
      |                                               |                |                                      decoder_specific_info{}: 0x3cc-0x10b1 (3301)
0x03c0|                                    05         |            .   |                                        tag_id: "DecSpecificInfoTag" (5) 0x3cc-0x3cd (1)
0x03c0|                                       80 80 99|             ...|                                        length: 3296 0x3cd-0x3d1 (4)
0x03d0|60                                             |`               |
0x03d0|   02                                          | .              |                                        num_packets: 2 0x3d1-0x3d2 (1)
      |                                               |                |                                        laces[0:2]: 0x3d2-0x3d4 (2)
0x03d0|      1e                                       |  .             |                                          [0]: 30 lace 0x3d2-0x3d3 (1)
0x03d0|         10                                    |   .            |                                          [1]: 16 lace 0x3d3-0x3d4 (1)
      |                                               |                |                                        packets[0:3]: 0x3d4-0x10b1 (3293)
      |00 01 02 03 04 05 06 07 08 09 0a 0b 0c 0d 0e 0f|0123456789abcdef|                                          [0]{}: packet (vorbis_packet) 0x3d4-0x3f2 (30)
0x03d0|            01                                 |    .           |                                            packet_type: "identification" (1) 0x3d4-0x3d5 (1)
0x03d0|               76 6f 72 62 69 73               |     vorbis     |                                            magic: "vorbis" (valid) 0x3d5-0x3db (6)
0x03d0|                                 00 00 00 00   |           .... |                                            vorbis_version: 0 (valid) 0x3db-0x3df (4)
0x03d0|                                             02|               .|                                            audio_channels: 2 0x3df-0x3e0 (1)
0x03e0|44 ac 00 00                                    |D...            |                                            audio_sample_rate: 44100 0x3e0-0x3e4 (4)
0x03e0|            00 00 00 00                        |    ....        |                                            bitrate_maximum: 0 0x3e4-0x3e8 (4)
0x03e0|                        00 00 00 00            |        ....    |                                            bitrate_nominal: 0 0x3e8-0x3ec (4)
0x03e0|                                    00 00 00 00|            ....|                                            bitrate_minimum: 0 0x3ec-0x3f0 (4)
0x03f0|bb                                             |.               |                                            blocksize_1: 2048 0x3f0-0x3f0.4 (0.4)
0x03f0|bb                                             |.               |                                            blocksize_0: 2048 0x3f0.4-0x3f1 (0.4)
0x03f0|   01                                          | .              |                                            padding0: raw bits (all zero) 0x3f1-0x3f1.7 (0.7)
0x03f0|   01                                          | .              |                                            framing_flag: 1 (valid) 0x3f1.7-0x3f2 (0.1)
      |00 01 02 03 04 05 06 07 08 09 0a 0b 0c 0d 0e 0f|0123456789abcdef|                                          [1]{}: packet (vorbis_packet) 0x3f2-0x402 (16)
0x03f0|      03                                       |  .             |                                            packet_type: "comment" (3) 0x3f2-0x3f3 (1)
0x03f0|         76 6f 72 62 69 73                     |   vorbis       |                                            magic: "vorbis" (valid) 0x3f3-0x3f9 (6)
      |00 01 02 03 04 05 06 07 08 09 0a 0b 0c 0d 0e 0f|0123456789abcdef|                                            comment{}: (vorbis_comment) 0x3f9-0x401 (8)
0x03f0|                           00 00 00 00         |         ....   |                                              vendor_length: 0 0x3f9-0x3fd (4)
      |                                               |                |                                              vendor: "" 0x3fd-0x3fd (0)
0x03f0|                                       00 00 00|             ...|                                              user_comment_list_length: 0 0x3fd-0x401 (4)
0x0400|00                                             |.               |
      |                                               |                |                                              user_comments[0:0]: 0x401-0x401 (0)
0x0400|   01                                          | .              |                                            padding0: raw bits (all zero) 0x401-0x401.7 (0.7)
0x0400|   01                                          | .              |                                            frame_bit: 1 (valid) 0x401.7-0x402 (0.1)
      |00 01 02 03 04 05 06 07 08 09 0a 0b 0c 0d 0e 0f|0123456789abcdef|                                          [2]{}: packet (vorbis_packet) 0x402-0x10b1 (3247)
0x0400|      05                                       |  .             |                                            packet_type: "setup" (5) 0x402-0x403 (1)
0x0400|         76 6f 72 62 69 73                     |   vorbis       |                                            magic: "vorbis" (valid) 0x403-0x409 (6)
0x0400|                           1c                  |         .      |                                            vorbis_codebook_count: 29 0x409-0x40a (1)
0x0400|                              42 43 56         |          BCV   |                                            codecooke_sync: 0x564342 (valid) 0x40a-0x40d (3)
0x0400|                                       02 00   |             .. |                                            codebook_dimensions: 2 0x40d-0x40f (2)
0x0400|                                             10|               .|                                            codebook_entries: 16 0x40f-0x412 (3)
0x0410|00 00                                          |..              |
0x0410|      84 74 9a 59 aa 01 22 cc 40 86 81 d0 90 95|  .t.Y..".@.....|                                            data: raw bits 0x412-0x10b1 (3231)
0x0420|00 00 02 00 00 60 84 22 0c 31 20 34 64 25 00 00|.....`.".1 4d%..|
*     |until 0x10b0.7 (3231)                          |                |
      |                                               |                |                                    sl_config_descr{}: 0x10b1-0x10b7 (6)
0x10b0|   06                                          | .              |                                      tag_id: "SLConfigDescrTag" (6) 0x10b1-0x10b2 (1)
0x10b0|      80 80 80 01                              |  ....          |                                      length: 1 0x10b2-0x10b6 (4)
0x10b0|                  02                           |      .         |                                      data: raw bits 0x10b6-0x10b7 (1)
      |                                               |                |                        [1]{}: box 0x10b7-0x10d7 (32)
0x10b0|                     00 00 00 20               |       ...      |                          size: 32 0x10b7-0x10bb (4)
0x10b0|                                 73 74 74 73   |           stts |                          type: "stts" (Sample time-to-sample) 0x10bb-0x10bf (4)
0x10b0|                                             00|               .|                          version: 0 0x10bf-0x10c0 (1)
0x10c0|00 00 00                                       |...             |                          flags: 0 0x10c0-0x10c3 (3)
0x10c0|         00 00 00 02                           |   ....         |                          entry_count: 2 0x10c3-0x10c7 (4)
      |                                               |                |                          entries[0:2]: 0x10c7-0x10d7 (16)
      |                                               |                |                            [0]{}: entry 0x10c7-0x10cf (8)
0x10c0|                     00 00 00 02               |       ....     |                              count: 2 0x10c7-0x10cb (4)
0x10c0|                                 00 00 04 00   |           .... |                              delta: 1024 0x10cb-0x10cf (4)
      |                                               |                |                            [1]{}: entry 0x10cf-0x10d7 (8)
0x10c0|                                             00|               .|                              count: 1 0x10cf-0x10d3 (4)
0x10d0|00 00 01                                       |...             |
0x10d0|         00 00 00 c0                           |   ....         |                              delta: 192 0x10d3-0x10d7 (4)
      |                                               |                |                        [2]{}: box 0x10d7-0x10f3 (28)
0x10d0|                     00 00 00 1c               |       ....     |                          size: 28 0x10d7-0x10db (4)
0x10d0|                                 73 74 73 63   |           stsc |                          type: "stsc" (Sample-to-chunk, partial data-offset information) 0x10db-0x10df (4)
0x10d0|                                             00|               .|                          version: 0 0x10df-0x10e0 (1)
0x10e0|00 00 00                                       |...             |                          flags: 0 0x10e0-0x10e3 (3)
0x10e0|         00 00 00 01                           |   ....         |                          entry_count: 1 0x10e3-0x10e7 (4)
      |                                               |                |                          entries[0:1]: 0x10e7-0x10f3 (12)
      |                                               |                |                            [0]{}: entry 0x10e7-0x10f3 (12)
0x10e0|                     00 00 00 01               |       ....     |                              first_chunk: 1 0x10e7-0x10eb (4)
0x10e0|                                 00 00 00 03   |           .... |                              samples_per_chunk: 3 0x10eb-0x10ef (4)
0x10e0|                                             00|               .|                              sample_description_id: 1 0x10ef-0x10f3 (4)
0x10f0|00 00 01                                       |...             |
      |                                               |                |                        [3]{}: box 0x10f3-0x1113 (32)
0x10f0|         00 00 00 20                           |   ...          |                          size: 32 0x10f3-0x10f7 (4)
0x10f0|                     73 74 73 7a               |       stsz     |                          type: "stsz" (Sample sizes (framing)) 0x10f7-0x10fb (4)
0x10f0|                                 00            |           .    |                          version: 0 0x10fb-0x10fc (1)
0x10f0|                                    00 00 00   |            ... |                          flags: 0 0x10fc-0x10ff (3)
0x10f0|                                             00|               .|                          sample_size: 0 0x10ff-0x1103 (4)
0x1100|00 00 00                                       |...             |
0x1100|         00 00 00 03                           |   ....         |                          entry_count: 3 0x1103-0x1107 (4)
      |                                               |                |                          entries[0:3]: 0x1107-0x1113 (12)
0x1100|                     00 00 00 b6               |       ....     |                            [0]: 182 size 0x1107-0x110b (4)
0x1100|                                 00 00 00 4c   |           ...L |                            [1]: 76 size 0x110b-0x110f (4)
0x1100|                                             00|               .|                            [2]: 175 size 0x110f-0x1113 (4)
0x1110|00 00 af                                       |...             |
      |                                               |                |                        [4]{}: box 0x1113-0x1127 (20)
0x1110|         00 00 00 14                           |   ....         |                          size: 20 0x1113-0x1117 (4)
0x1110|                     73 74 63 6f               |       stco     |                          type: "stco" (Chunk offset, partial data-offset information) 0x1117-0x111b (4)
0x1110|                                 00            |           .    |                          version: 0 0x111b-0x111c (1)
0x1110|                                    00 00 00   |            ... |                          flags: 0 0x111c-0x111f (3)
0x1110|                                             00|               .|                          entry_count: 1 0x111f-0x1123 (4)
0x1120|00 00 01                                       |...             |
      |                                               |                |                          entries[0:1]: 0x1123-0x1127 (4)
0x1120|         00 00 00 2c                           |   ...,         |                            [0]: 44 chunk_offset 0x1123-0x1127 (4)
      |                                               |                |        [2]{}: box 0x1127-0x1189 (98)
0x1120|                     00 00 00 62               |       ...b     |          size: 98 0x1127-0x112b (4)
0x1120|                                 75 64 74 61   |           udta |          type: "udta" (User-data) 0x112b-0x112f (4)
      |                                               |                |          boxes[0:1]: 0x112f-0x1189 (90)
      |                                               |                |            [0]{}: box 0x112f-0x1189 (90)
0x1120|                                             00|               .|              size: 90 0x112f-0x1133 (4)
0x1130|00 00 5a                                       |..Z             |
0x1130|         6d 65 74 61                           |   meta         |              type: "meta" (Metadata container) 0x1133-0x1137 (4)
0x1130|                     00 00 00 00               |       ....     |              maybe_flags: 0 0x1137-0x113b (4)
      |                                               |                |              boxes[0:2]: 0x113b-0x1189 (78)
      |                                               |                |                [0]{}: box 0x113b-0x115c (33)
0x1130|                                 00 00 00 21   |           ...! |                  size: 33 0x113b-0x113f (4)
0x1130|                                             68|               h|                  type: "hdlr" (Handler, declares the media (handler) type) 0x113f-0x1143 (4)
0x1140|64 6c 72                                       |dlr             |
0x1140|         00                                    |   .            |                  version: 0 0x1143-0x1144 (1)
0x1140|            00 00 00                           |    ...         |                  flags: 0 0x1144-0x1147 (3)
0x1140|                     00 00 00 00               |       ....     |                  component_type: "" 0x1147-0x114b (4)
0x1140|                                 6d 64 69 72   |           mdir |                  component_subtype: "mdir" (Metadata) 0x114b-0x114f (4)
0x1140|                                             61|               a|                  component_manufacturer: "appl" 0x114f-0x1153 (4)
0x1150|70 70 6c                                       |ppl             |
0x1150|         00 00 00 00                           |   ....         |                  component_flags: 0 0x1153-0x1157 (4)
0x1150|                     00 00 00 00               |       ....     |                  component_flags_mask: 0 0x1157-0x115b (4)
0x1150|                                 00            |           .    |                  component_name: "" 0x115b-0x115c (1)
      |                                               |                |                [1]{}: box 0x115c-0x1189 (45)
0x1150|                                    00 00 00 2d|            ...-|                  size: 45 0x115c-0x1160 (4)
0x1160|69 6c 73 74                                    |ilst            |                  type: "ilst" 0x1160-0x1164 (4)
      |                                               |                |                  boxes[0:1]: 0x1164-0x1189 (37)
      |                                               |                |                    [0]{}: box 0x1164-0x1189 (37)
0x1160|            00 00 00 25                        |    ...%        |                      size: 37 0x1164-0x1168 (4)
0x1160|                        a9 74 6f 6f            |        .too    |                      type: "©too" (Encoder) 0x1168-0x116c (4)
      |                                               |                |                      boxes[0:1]: 0x116c-0x1189 (29)
      |                                               |                |                        [0]{}: box 0x116c-0x1189 (29)
0x1160|                                    00 00 00 1d|            ....|                          size: 29 0x116c-0x1170 (4)
0x1170|64 61 74 61                                    |data            |                          type: "data" 0x1170-0x1174 (4)
0x1170|            00                                 |    .           |                          version: 0 0x1174-0x1175 (1)
0x1170|               00 00 01                        |     ...        |                          flags: 1 0x1175-0x1178 (3)
0x1170|                        00 00 00 00            |        ....    |                          reserved: 0 0x1178-0x117c (4)
0x1170|                                    4c 61 76 66|            Lavf|                          data: "Lavf58.45.100" 0x117c-0x1189 (13)
0x1180|35 38 2e 34 35 2e 31 30 30|                    |58.45.100|      |
      |                                               |                |  tracks[0:1]: 0x2c-0x1dd (433)
      |                                               |                |    [0]{}: track 0x2c-0x1dd (433)
      |                                               |                |      samples[0:3]: 0x2c-0x1dd (433)
      |00 01 02 03 04 05 06 07 08 09 0a 0b 0c 0d 0e 0f|0123456789abcdef|        [0]{}: sample (vorbis_packet) 0x2c-0xe2 (182)
0x0020|                                    be         |            .   |          packet_type: "audio" (0) 0x2c-0x2d (1)
0x0020|                                       b7 f2 81|             ...|          data: raw bits 0x2d-0xe2 (181)
0x0030|46 74 15 42 0b 52 08 17 32 8e 43 08 65 84 84 f6|Ft.B.R..2.C.e...|
*     |until 0xe1.7 (181)                             |                |
      |00 01 02 03 04 05 06 07 08 09 0a 0b 0c 0d 0e 0f|0123456789abcdef|        [1]{}: sample (vorbis_packet) 0xe2-0x12e (76)
0x00e0|      be                                       |  .             |          packet_type: "audio" (0) 0xe2-0xe3 (1)
0x00e0|         13 a2 9b 06 0a b6 ff 13 10 ff 25 62 ec|   ..........%b.|          data: raw bits 0xe3-0x12e (75)
0x00f0|8f d9 f7 a2 11 72 ca 44 3b 21 ba 69 a0 60 fb 3f|.....r.D;!.i.`.?|
*     |until 0x12d.7 (75)                             |                |
      |00 01 02 03 04 05 06 07 08 09 0a 0b 0c 0d 0e 0f|0123456789abcdef|        [2]{}: sample (vorbis_packet) 0x12e-0x1dd (175)
0x0120|                                          be   |              . |          packet_type: "audio" (0) 0x12e-0x12f (1)
0x0120|                                             a7|               .|          data: raw bits 0x12f-0x1dd (174)
0x0130|f2 81 46 bb c2 48 52 08 27 b8 83 10 ca 08 b1 a7|..F..HR.'.......|
*     |until 0x1dc.7 (174)                            |                |
      |                                               |                |      id: 1
      |                                               |                |      data_format: "mp4a" (MPEG-4 Audio)
