$ fq -d elf dv a_dynamic
      |00 01 02 03 04 05 06 07 08 09 0a 0b 0c 0d 0e 0f|0123456789abcdef|.{}: a_dynamic (elf) 0x0-0x4710 (18192)
      |                                               |                |  header{}: 0x0-0x40 (64)
      |                                               |                |    ident{}: 0x0-0x10 (16)
0x0000|7f 45 4c 46                                    |.ELF            |      magic: raw bits (valid) 0x0-0x4 (4)
0x0000|            02                                 |    .           |      class: 64 (2) 0x4-0x5 (1)
0x0000|               01                              |     .          |      data: "little_endian" (1) 0x5-0x6 (1)
0x0000|                  01                           |      .         |      version: 1 0x6-0x7 (1)
0x0000|                     00                        |       .        |      os_abi: "sysv" (0) 0x7-0x8 (1)
0x0000|                        00                     |        .       |      abi_version: 0 0x8-0x9 (1)
0x0000|                           00 00 00 00 00 00 00|         .......|      pad: raw bits (all zero) 0x9-0x10 (7)
0x0010|03 00                                          |..              |    type: "dyn" (0x3) 0x10-0x12 (2)
0x0010|      3e 00                                    |  >.            |    machine: "x86_64" (0x3e) (AMD x86-64) 0x12-0x14 (2)
0x0010|            01 00 00 00                        |    ....        |    version: 1 0x14-0x18 (4)
0x0010|                        70 10 00 00 00 00 00 00|        p.......|    entry: 4208 0x18-0x20 (8)
0x0020|40 00 00 00 00 00 00 00                        |@.......        |    phoff: 64 0x20-0x28 (8)
0x0020|                        90 3e 00 00 00 00 00 00|        .>......|    shoff: 16016 0x28-0x30 (8)
0x0030|00 00 00 00                                    |....            |    flags: 0 0x30-0x34 (4)
0x0030|            40 00                              |    @.          |    ehsize: 64 0x34-0x36 (2)
0x0030|                  38 00                        |      8.        |    phentsize: 56 0x36-0x38 (2)
0x0030|                        0c 00                  |        ..      |    phnum: 12 0x38-0x3a (2)
0x0030|                              40 00            |          @.    |    shentsize: 64 0x3a-0x3c (2)
0x0030|                                    22 00      |            ".  |    shnum: 34 0x3c-0x3e (2)
0x0030|                                          21 00|              !.|    shstrndx: 33 0x3e-0x40 (2)
      |                                               |                |  program_headers[0:12]: 0x0-0x3008 (12296)
      |                                               |                |    [0]{}: program_header 0x40-0x2e0 (672)
0x0040|06 00 00 00                                    |....            |      type: "phdr" (6) (Program header location and size) 0x40-0x44 (4)
0x0040|06 00 00 00 04 00 00 00 40 00 00 00 00 00 00 00|........@.......|      data: raw bits 0x40-0x2e0 (672)
*     |until 0x2df.7 (672)                            |                |
      |                                               |                |      flags{}: 0x44-0x48 (4)
0x0040|            04                                 |    .           |        unused0: 0 0x44-0x44.5 (0.5)
0x0040|            04                                 |    .           |        r: true 0x44.5-0x44.6 (0.1)
0x0040|            04                                 |    .           |        w: false 0x44.6-0x44.7 (0.1)
0x0040|            04                                 |    .           |        x: false 0x44.7-0x45 (0.1)
0x0040|               00 00 00                        |     ...        |        unused1: 0 0x45-0x48 (3)
0x0040|                        40 00 00 00 00 00 00 00|        @.......|      offset: 0x40 0x48-0x50 (8)
0x0050|40 00 00 00 00 00 00 00                        |@.......        |      vaddr: 0x40 0x50-0x58 (8)
0x0050|                        40 00 00 00 00 00 00 00|        @.......|      paddr: 0x40 0x58-0x60 (8)
0x0060|a0 02 00 00 00 00 00 00                        |........        |      filesz: 672 0x60-0x68 (8)
0x0060|                        a0 02 00 00 00 00 00 00|        ........|      memsz: 672 0x68-0x70 (8)
0x0070|08 00 00 00 00 00 00 00                        |........        |      align: 8 0x70-0x78 (8)
      |                                               |                |    [1]{}: program_header 0x78-0x2f9 (641)
0x0070|                        03 00 00 00            |        ....    |      type: "interp" (3) (Interpreter to invoke) 0x78-0x7c (4)
      |                                               |                |      flags{}: 0x7c-0x80 (4)
0x0070|                                    04         |            .   |        unused0: 0 0x7c-0x7c.5 (0.5)
0x0070|                                    04         |            .   |        r: true 0x7c.5-0x7c.6 (0.1)
0x0070|                                    04         |            .   |        w: false 0x7c.6-0x7c.7 (0.1)
0x0070|                                    04         |            .   |        x: false 0x7c.7-0x7d (0.1)
0x0070|                                       00 00 00|             ...|        unused1: 0 0x7d-0x80 (3)
0x0080|e0 02 00 00 00 00 00 00                        |........        |      offset: 0x2e0 0x80-0x88 (8)
0x0080|                        e0 02 00 00 00 00 00 00|        ........|      vaddr: 0x2e0 0x88-0x90 (8)
0x0090|e0 02 00 00 00 00 00 00                        |........        |      paddr: 0x2e0 0x90-0x98 (8)
0x0090|                        19 00 00 00 00 00 00 00|        ........|      filesz: 25 0x98-0xa0 (8)
0x00a0|19 00 00 00 00 00 00 00                        |........        |      memsz: 25 0xa0-0xa8 (8)
0x00a0|                        01 00 00 00 00 00 00 00|        ........|      align: 1 0xa8-0xb0 (8)
0x02e0|2f 6c 69 62 2f 6c 64 2d 6d 75 73 6c 2d 78 38 36|/lib/ld-musl-x86|      data: raw bits 0x2e0-0x2f9 (25)
0x02f0|5f 36 34 2e 73 6f 2e 31 00                     |_64.so.1.       |
      |                                               |                |    [2]{}: program_header 0x0-0x608 (1544)
0x0000|7f 45 4c 46 02 01 01 00 00 00 00 00 00 00 00 00|.ELF............|      data: raw bits 0x0-0x608 (1544)
*     |until 0x607.7 (1544)                           |                |
0x00b0|01 00 00 00                                    |....            |      type: "load" (1) (Loadable segment) 0xb0-0xb4 (4)
      |                                               |                |      flags{}: 0xb4-0xb8 (4)
0x00b0|            04                                 |    .           |        unused0: 0 0xb4-0xb4.5 (0.5)
0x00b0|            04                                 |    .           |        r: true 0xb4.5-0xb4.6 (0.1)
0x00b0|            04                                 |    .           |        w: false 0xb4.6-0xb4.7 (0.1)
0x00b0|            04                                 |    .           |        x: false 0xb4.7-0xb5 (0.1)
0x00b0|               00 00 00                        |     ...        |        unused1: 0 0xb5-0xb8 (3)
0x00b0|                        00 00 00 00 00 00 00 00|        ........|      offset: 0x0 0xb8-0xc0 (8)
0x00c0|00 00 00 00 00 00 00 00                        |........        |      vaddr: 0x0 0xc0-0xc8 (8)
0x00c0|                        00 00 00 00 00 00 00 00|        ........|      paddr: 0x0 0xc8-0xd0 (8)
0x00d0|08 06 00 00 00 00 00 00                        |........        |      filesz: 1544 0xd0-0xd8 (8)
0x00d0|                        08 06 00 00 00 00 00 00|        ........|      memsz: 1544 0xd8-0xe0 (8)
0x00e0|00 10 00 00 00 00 00 00                        |........        |      align: 4096 0xe0-0xe8 (8)
      |                                               |                |    [3]{}: program_header 0xe8-0x1289 (4513)
0x00e0|                        01 00 00 00            |        ....    |      type: "load" (1) (Loadable segment) 0xe8-0xec (4)
      |                                               |                |      flags{}: 0xec-0xf0 (4)
0x00e0|                                    05         |            .   |        unused0: 0 0xec-0xec.5 (0.5)
0x00e0|                                    05         |            .   |        r: true 0xec.5-0xec.6 (0.1)
0x00e0|                                    05         |            .   |        w: false 0xec.6-0xec.7 (0.1)
0x00e0|                                    05         |            .   |        x: true 0xec.7-0xed (0.1)
0x00e0|                                       00 00 00|             ...|        unused1: 0 0xed-0xf0 (3)
0x00f0|00 10 00 00 00 00 00 00                        |........        |      offset: 0x1000 0xf0-0xf8 (8)
0x00f0|                        00 10 00 00 00 00 00 00|        ........|      vaddr: 0x1000 0xf8-0x100 (8)
0x0100|00 10 00 00 00 00 00 00                        |........        |      paddr: 0x1000 0x100-0x108 (8)
0x0100|                        89 02 00 00 00 00 00 00|        ........|      filesz: 649 0x108-0x110 (8)
0x0110|89 02 00 00 00 00 00 00                        |........        |      memsz: 649 0x110-0x118 (8)
0x0110|                        00 10 00 00 00 00 00 00|        ........|      align: 4096 0x118-0x120 (8)
0x1000|50 e8 ca 01 00 00 e8 35 02 00 00 58 c3 00 00 00|P......5...X....|      data: raw bits 0x1000-0x1289 (649)
*     |until 0x1288.7 (649)                           |                |
      |                                               |                |    [4]{}: program_header 0x120-0x20cc (8108)
0x0120|01 00 00 00                                    |....            |      type: "load" (1) (Loadable segment) 0x120-0x124 (4)
      |                                               |                |      flags{}: 0x124-0x128 (4)
0x0120|            04                                 |    .           |        unused0: 0 0x124-0x124.5 (0.5)
0x0120|            04                                 |    .           |        r: true 0x124.5-0x124.6 (0.1)
0x0120|            04                                 |    .           |        w: false 0x124.6-0x124.7 (0.1)
0x0120|            04                                 |    .           |        x: false 0x124.7-0x125 (0.1)
0x0120|               00 00 00                        |     ...        |        unused1: 0 0x125-0x128 (3)
0x0120|                        00 20 00 00 00 00 00 00|        . ......|      offset: 0x2000 0x128-0x130 (8)
0x0130|00 20 00 00 00 00 00 00                        |. ......        |      vaddr: 0x2000 0x130-0x138 (8)
0x0130|                        00 20 00 00 00 00 00 00|        . ......|      paddr: 0x2000 0x138-0x140 (8)
0x0140|cc 00 00 00 00 00 00 00                        |........        |      filesz: 204 0x140-0x148 (8)
0x0140|                        cc 00 00 00 00 00 00 00|        ........|      memsz: 204 0x148-0x150 (8)
0x0150|00 10 00 00 00 00 00 00                        |........        |      align: 4096 0x150-0x158 (8)
0x2000|61 61 61 00 01 1b 03 3b 28 00 00 00 04 00 00 00|aaa....;(.......|      data: raw bits 0x2000-0x20cc (204)
*     |until 0x20cb.7 (204)                           |                |
      |                                               |                |    [5]{}: program_header 0x158-0x3008 (11952)
0x0150|                        01 00 00 00            |        ....    |      type: "load" (1) (Loadable segment) 0x158-0x15c (4)
      |                                               |                |      flags{}: 0x15c-0x160 (4)
0x0150|                                    06         |            .   |        unused0: 0 0x15c-0x15c.5 (0.5)
0x0150|                                    06         |            .   |        r: true 0x15c.5-0x15c.6 (0.1)
0x0150|                                    06         |            .   |        w: true 0x15c.6-0x15c.7 (0.1)
0x0150|                                    06         |            .   |        x: false 0x15c.7-0x15d (0.1)
0x0150|                                       00 00 00|             ...|        unused1: 0 0x15d-0x160 (3)
0x0160|f8 2d 00 00 00 00 00 00                        |.-......        |      offset: 0x2df8 0x160-0x168 (8)
0x0160|                        f8 3d 00 00 00 00 00 00|        .=......|      vaddr: 0x3df8 0x168-0x170 (8)
0x0170|f8 3d 00 00 00 00 00 00                        |.=......        |      paddr: 0x3df8 0x170-0x178 (8)
0x0170|                        10 02 00 00 00 00 00 00|        ........|      filesz: 528 0x178-0x180 (8)
0x0180|78 02 00 00 00 00 00 00                        |x.......        |      memsz: 632 0x180-0x188 (8)
0x0180|                        00 10 00 00 00 00 00 00|        ........|      align: 4096 0x188-0x190 (8)
0x2df0|                        ff ff ff ff ff ff ff ff|        ........|      data: raw bits 0x2df8-0x3008 (528)
0x2e00|00 00 00 00 00 00 00 00 ff ff ff ff ff ff ff ff|................|
*     |until 0x3007.7 (528)                           |                |
      |                                               |                |    [6]{}: program_header 0x190-0x2fa8 (11800)
0x0190|02 00 00 00                                    |....            |      type: "dynamic" (2) (Dynamic linking information) 0x190-0x194 (4)
      |                                               |                |      flags{}: 0x194-0x198 (4)
0x0190|            06                                 |    .           |        unused0: 0 0x194-0x194.5 (0.5)
0x0190|            06                                 |    .           |        r: true 0x194.5-0x194.6 (0.1)
0x0190|            06                                 |    .           |        w: true 0x194.6-0x194.7 (0.1)
0x0190|            06                                 |    .           |        x: false 0x194.7-0x195 (0.1)
0x0190|               00 00 00                        |     ...        |        unused1: 0 0x195-0x198 (3)
0x0190|                        18 2e 00 00 00 00 00 00|        ........|      offset: 0x2e18 0x198-0x1a0 (8)
0x01a0|18 3e 00 00 00 00 00 00                        |.>......        |      vaddr: 0x3e18 0x1a0-0x1a8 (8)
0x01a0|                        18 3e 00 00 00 00 00 00|        .>......|      paddr: 0x3e18 0x1a8-0x1b0 (8)
0x01b0|90 01 00 00 00 00 00 00                        |........        |      filesz: 400 0x1b0-0x1b8 (8)
0x01b0|                        90 01 00 00 00 00 00 00|        ........|      memsz: 400 0x1b8-0x1c0 (8)
0x01c0|08 00 00 00 00 00 00 00                        |........        |      align: 8 0x1c0-0x1c8 (8)
0x2e10|                        01 00 00 00 00 00 00 00|        ........|      data: raw bits 0x2e18-0x2fa8 (400)
0x2e20|a2 00 00 00 00 00 00 00 01 00 00 00 00 00 00 00|................|
*     |until 0x2fa7.7 (400)                           |                |
      |                                               |                |    [7]{}: program_header 0x1c8-0x330 (360)
0x01c0|                        04 00 00 00            |        ....    |      type: "note" (4) (Auxiliary information) 0x1c8-0x1cc (4)
      |                                               |                |      flags{}: 0x1cc-0x1d0 (4)
0x01c0|                                    04         |            .   |        unused0: 0 0x1cc-0x1cc.5 (0.5)
0x01c0|                                    04         |            .   |        r: true 0x1cc.5-0x1cc.6 (0.1)
0x01c0|                                    04         |            .   |        w: false 0x1cc.6-0x1cc.7 (0.1)
0x01c0|                                    04         |            .   |        x: false 0x1cc.7-0x1cd (0.1)
0x01c0|                                       00 00 00|             ...|        unused1: 0 0x1cd-0x1d0 (3)
0x01d0|00 03 00 00 00 00 00 00                        |........        |      offset: 0x300 0x1d0-0x1d8 (8)
0x01d0|                        00 03 00 00 00 00 00 00|        ........|      vaddr: 0x300 0x1d8-0x1e0 (8)
0x01e0|00 03 00 00 00 00 00 00                        |........        |      paddr: 0x300 0x1e0-0x1e8 (8)
0x01e0|                        30 00 00 00 00 00 00 00|        0.......|      filesz: 48 0x1e8-0x1f0 (8)
0x01f0|30 00 00 00 00 00 00 00                        |0.......        |      memsz: 48 0x1f0-0x1f8 (8)
0x01f0|                        08 00 00 00 00 00 00 00|        ........|      align: 8 0x1f8-0x200 (8)
      |                                               |                |      notes[0:1]: 0x300-0x330 (48)
      |                                               |                |        [0]{}: note 0x300-0x330 (48)
0x0300|04 00 00 00                                    |....            |          n_namesz: 4 0x300-0x304 (4)
0x0300|            20 00 00 00                        |     ...        |          n_descsz: 32 0x304-0x308 (4)
0x0300|                        05 00 00 00            |        ....    |          n_type: 0x5 0x308-0x30c (4)
0x0300|                                    47 4e 55 00|            GNU.|          name: "GNU" 0x30c-0x310 (4)
0x0310|01 00 01 c0 04 00 00 00 01 00 00 00 00 00 00 00|................|          desc: raw bits 0x310-0x330 (32)
0x0320|02 00 01 c0 04 00 00 00 00 00 00 00 00 00 00 00|................|
      |                                               |                |    [8]{}: program_header 0x200-0x330 (304)
0x0200|53 e5 74 64                                    |S.td            |      type: "os" (1685382483) (Operating system-specific) 0x200-0x204 (4)
      |                                               |                |      flags{}: 0x204-0x208 (4)
0x0200|            04                                 |    .           |        unused0: 0 0x204-0x204.5 (0.5)
0x0200|            04                                 |    .           |        r: true 0x204.5-0x204.6 (0.1)
0x0200|            04                                 |    .           |        w: false 0x204.6-0x204.7 (0.1)
0x0200|            04                                 |    .           |        x: false 0x204.7-0x205 (0.1)
0x0200|               00 00 00                        |     ...        |        unused1: 0 0x205-0x208 (3)
0x0200|                        00 03 00 00 00 00 00 00|        ........|      offset: 0x300 0x208-0x210 (8)
0x0210|00 03 00 00 00 00 00 00                        |........        |      vaddr: 0x300 0x210-0x218 (8)
0x0210|                        00 03 00 00 00 00 00 00|        ........|      paddr: 0x300 0x218-0x220 (8)
0x0220|30 00 00 00 00 00 00 00                        |0.......        |      filesz: 48 0x220-0x228 (8)
0x0220|                        30 00 00 00 00 00 00 00|        0.......|      memsz: 48 0x228-0x230 (8)
0x0230|08 00 00 00 00 00 00 00                        |........        |      align: 8 0x230-0x238 (8)
0x0300|04 00 00 00 20 00 00 00 05 00 00 00 47 4e 55 00|.... .......GNU.|      data: raw bits 0x300-0x330 (48)
*     |until 0x32f.7 (48)                             |                |
      |                                               |                |    [9]{}: program_header 0x238-0x2030 (7672)
0x0230|                        50 e5 74 64            |        P.td    |      type: "gnu_eh_frame" (1685382480) (GNU frame unwind information) 0x238-0x23c (4)
      |                                               |                |      flags{}: 0x23c-0x240 (4)
0x0230|                                    04         |            .   |        unused0: 0 0x23c-0x23c.5 (0.5)
0x0230|                                    04         |            .   |        r: true 0x23c.5-0x23c.6 (0.1)
0x0230|                                    04         |            .   |        w: false 0x23c.6-0x23c.7 (0.1)
0x0230|                                    04         |            .   |        x: false 0x23c.7-0x23d (0.1)
0x0230|                                       00 00 00|             ...|        unused1: 0 0x23d-0x240 (3)
0x0240|04 20 00 00 00 00 00 00                        |. ......        |      offset: 0x2004 0x240-0x248 (8)
0x0240|                        04 20 00 00 00 00 00 00|        . ......|      vaddr: 0x2004 0x248-0x250 (8)
0x0250|04 20 00 00 00 00 00 00                        |. ......        |      paddr: 0x2004 0x250-0x258 (8)
0x0250|                        2c 00 00 00 00 00 00 00|        ,.......|      filesz: 44 0x258-0x260 (8)
0x0260|2c 00 00 00 00 00 00 00                        |,.......        |      memsz: 44 0x260-0x268 (8)
0x0260|                        04 00 00 00 00 00 00 00|        ........|      align: 4 0x268-0x270 (8)
0x2000|            01 1b 03 3b 28 00 00 00 04 00 00 00|    ...;(.......|      data: raw bits 0x2004-0x2030 (44)
0x2010|0c f0 ff ff 44 00 00 00 4c f0 ff ff 6c 00 00 00|....D...L...l...|
0x2020|01 f2 ff ff 84 00 00 00 14 f2 ff ff a4 00 00 00|................|
      |                                               |                |    [10]{}: program_header 0x0-0x2a8 (680)
      |                                               |                |      data: raw bits 0x0-0x0 (0)
0x0270|51 e5 74 64                                    |Q.td            |      type: "gnu_stack" (1685382481) (GNU stack permission) 0x270-0x274 (4)
      |                                               |                |      flags{}: 0x274-0x278 (4)
0x0270|            06                                 |    .           |        unused0: 0 0x274-0x274.5 (0.5)
0x0270|            06                                 |    .           |        r: true 0x274.5-0x274.6 (0.1)
0x0270|            06                                 |    .           |        w: true 0x274.6-0x274.7 (0.1)
0x0270|            06                                 |    .           |        x: false 0x274.7-0x275 (0.1)
0x0270|               00 00 00                        |     ...        |        unused1: 0 0x275-0x278 (3)
0x0270|                        00 00 00 00 00 00 00 00|        ........|      offset: 0x0 0x278-0x280 (8)
0x0280|00 00 00 00 00 00 00 00                        |........        |      vaddr: 0x0 0x280-0x288 (8)
0x0280|                        00 00 00 00 00 00 00 00|        ........|      paddr: 0x0 0x288-0x290 (8)
0x0290|00 00 00 00 00 00 00 00                        |........        |      filesz: 0 0x290-0x298 (8)
0x0290|                        00 00 00 00 00 00 00 00|        ........|      memsz: 0 0x298-0x2a0 (8)
0x02a0|10 00 00 00 00 00 00 00                        |........        |      align: 16 0x2a0-0x2a8 (8)
      |                                               |                |    [11]{}: program_header 0x2a8-0x3000 (11608)
0x02a0|                        52 e5 74 64            |        R.td    |      type: "gnu_relro" (1685382482) (GNU read-only after relocation) 0x2a8-0x2ac (4)
      |                                               |                |      flags{}: 0x2ac-0x2b0 (4)
0x02a0|                                    04         |            .   |        unused0: 0 0x2ac-0x2ac.5 (0.5)
0x02a0|                                    04         |            .   |        r: true 0x2ac.5-0x2ac.6 (0.1)
0x02a0|                                    04         |            .   |        w: false 0x2ac.6-0x2ac.7 (0.1)
0x02a0|                                    04         |            .   |        x: false 0x2ac.7-0x2ad (0.1)
0x02a0|                                       00 00 00|             ...|        unused1: 0 0x2ad-0x2b0 (3)
0x02b0|f8 2d 00 00 00 00 00 00                        |.-......        |      offset: 0x2df8 0x2b0-0x2b8 (8)
0x02b0|                        f8 3d 00 00 00 00 00 00|        .=......|      vaddr: 0x3df8 0x2b8-0x2c0 (8)
0x02c0|f8 3d 00 00 00 00 00 00                        |.=......        |      paddr: 0x3df8 0x2c0-0x2c8 (8)
0x02c0|                        08 02 00 00 00 00 00 00|        ........|      filesz: 520 0x2c8-0x2d0 (8)
0x02d0|08 02 00 00 00 00 00 00                        |........        |      memsz: 520 0x2d0-0x2d8 (8)
0x02d0|                        01 00 00 00 00 00 00 00|        ........|      align: 1 0x2d8-0x2e0 (8)
0x2df0|                        ff ff ff ff ff ff ff ff|        ........|      data: raw bits 0x2df8-0x3000 (520)
0x2e00|00 00 00 00 00 00 00 00 ff ff ff ff ff ff ff ff|................|
*     |until 0x2fff.7 (520)                           |                |
      |                                               |                |  section_headers[0:34]: 0x2e0-0x4710 (17456)
      |                                               |                |    [0]{}: section_header 0x3e90-0x3ed0 (64)
0x3e90|00 00 00 00                                    |....            |      name: "" (0) 0x3e90-0x3e94 (4)
0x3e90|            00 00 00 00                        |    ....        |      type: "null" (0x0) (Header inactive) 0x3e94-0x3e98 (4)
      |                                               |                |      flags{}: 0x3e98-0x3ea0 (8)
0x3e90|                        00                     |        .       |        link_order: false 0x3e98-0x3e98.1 (0.1)
0x3e90|                        00                     |        .       |        info_link: false 0x3e98.1-0x3e98.2 (0.1)
0x3e90|                        00                     |        .       |        strings: false 0x3e98.2-0x3e98.3 (0.1)
0x3e90|                        00                     |        .       |        merge: false 0x3e98.3-0x3e98.4 (0.1)
0x3e90|                        00                     |        .       |        unused0: 0 0x3e98.4-0x3e98.5 (0.1)
0x3e90|                        00                     |        .       |        execinstr: false 0x3e98.5-0x3e98.6 (0.1)
0x3e90|                        00                     |        .       |        alloc: false 0x3e98.6-0x3e98.7 (0.1)
0x3e90|                        00                     |        .       |        write: false 0x3e98.7-0x3e99 (0.1)
0x3e90|                           00                  |         .      |        tls: false 0x3e99-0x3e99.1 (0.1)
0x3e90|                           00                  |         .      |        group: false 0x3e99.1-0x3e99.2 (0.1)
0x3e90|                           00                  |         .      |        os_nonconforming: false 0x3e99.2-0x3e99.3 (0.1)
0x3e90|                           00 00               |         ..     |        unused1: 0 0x3e99.3-0x3e9a.4 (1.1)
0x3e90|                              00 00            |          ..    |        os_specific: 0 0x3e9a.4-0x3e9b.4 (1)
0x3e90|                                 00            |           .    |        processor_specific: 0 0x3e9b.4-0x3e9c (0.4)
0x3e90|                                    00 00 00 00|            ....|        unused2: 0 0x3e9c-0x3ea0 (4)
0x3ea0|00 00 00 00 00 00 00 00                        |........        |      addr: 0x0 0x3ea0-0x3ea8 (8)
0x3ea0|                        00 00 00 00 00 00 00 00|        ........|      offset: 0x0 0x3ea8-0x3eb0 (8)
0x3eb0|00 00 00 00 00 00 00 00                        |........        |      size: 0 0x3eb0-0x3eb8 (8)
0x3eb0|                        00 00 00 00            |        ....    |      link: 0 0x3eb8-0x3ebc (4)
0x3eb0|                                    00 00 00 00|            ....|      info: 0 0x3ebc-0x3ec0 (4)
0x3ec0|00 00 00 00 00 00 00 00                        |........        |      addralign: 0 0x3ec0-0x3ec8 (8)
0x3ec0|                        00 00 00 00 00 00 00 00|        ........|      entsize: 0 0x3ec8-0x3ed0 (8)
      |                                               |                |    [1]{}: section_header 0x2e0-0x3f10 (15408)
0x02e0|2f 6c 69 62 2f 6c 64 2d 6d 75 73 6c 2d 78 38 36|/lib/ld-musl-x86|      data: raw bits 0x2e0-0x2f9 (25)
0x02f0|5f 36 34 2e 73 6f 2e 31 00                     |_64.so.1.       |
0x3ed0|1b 00 00 00                                    |....            |      name: ".interp" (27) 0x3ed0-0x3ed4 (4)
0x3ed0|            01 00 00 00                        |    ....        |      type: "progbits" (0x1) (Information defined by the program) 0x3ed4-0x3ed8 (4)
      |                                               |                |      flags{}: 0x3ed8-0x3ee0 (8)
0x3ed0|                        02                     |        .       |        link_order: false 0x3ed8-0x3ed8.1 (0.1)
0x3ed0|                        02                     |        .       |        info_link: false 0x3ed8.1-0x3ed8.2 (0.1)
0x3ed0|                        02                     |        .       |        strings: false 0x3ed8.2-0x3ed8.3 (0.1)
0x3ed0|                        02                     |        .       |        merge: false 0x3ed8.3-0x3ed8.4 (0.1)
0x3ed0|                        02                     |        .       |        unused0: 0 0x3ed8.4-0x3ed8.5 (0.1)
0x3ed0|                        02                     |        .       |        execinstr: false 0x3ed8.5-0x3ed8.6 (0.1)
0x3ed0|                        02                     |        .       |        alloc: true 0x3ed8.6-0x3ed8.7 (0.1)
0x3ed0|                        02                     |        .       |        write: false 0x3ed8.7-0x3ed9 (0.1)
0x3ed0|                           00                  |         .      |        tls: false 0x3ed9-0x3ed9.1 (0.1)
0x3ed0|                           00                  |         .      |        group: false 0x3ed9.1-0x3ed9.2 (0.1)
0x3ed0|                           00                  |         .      |        os_nonconforming: false 0x3ed9.2-0x3ed9.3 (0.1)
0x3ed0|                           00 00               |         ..     |        unused1: 0 0x3ed9.3-0x3eda.4 (1.1)
0x3ed0|                              00 00            |          ..    |        os_specific: 0 0x3eda.4-0x3edb.4 (1)
0x3ed0|                                 00            |           .    |        processor_specific: 0 0x3edb.4-0x3edc (0.4)
0x3ed0|                                    00 00 00 00|            ....|        unused2: 0 0x3edc-0x3ee0 (4)
0x3ee0|e0 02 00 00 00 00 00 00                        |........        |      addr: 0x2e0 0x3ee0-0x3ee8 (8)
0x3ee0|                        e0 02 00 00 00 00 00 00|        ........|      offset: 0x2e0 0x3ee8-0x3ef0 (8)
0x3ef0|19 00 00 00 00 00 00 00                        |........        |      size: 25 0x3ef0-0x3ef8 (8)
0x3ef0|                        00 00 00 00            |        ....    |      link: 0 0x3ef8-0x3efc (4)
0x3ef0|                                    00 00 00 00|            ....|      info: 0 0x3efc-0x3f00 (4)
0x3f00|01 00 00 00 00 00 00 00                        |........        |      addralign: 1 0x3f00-0x3f08 (8)
0x3f00|                        00 00 00 00 00 00 00 00|        ........|      entsize: 0 0x3f08-0x3f10 (8)
      |                                               |                |    [2]{}: section_header 0x300-0x3f50 (15440)
0x0300|04 00 00 00 20 00 00 00 05 00 00 00 47 4e 55 00|.... .......GNU.|      data: raw bits 0x300-0x330 (48)
*     |until 0x32f.7 (48)                             |                |
0x3f10|23 00 00 00                                    |#...            |      name: ".note.gnu.property" (35) 0x3f10-0x3f14 (4)
0x3f10|            07 00 00 00                        |    ....        |      type: "note" (0x7) (Information that marks the file in some way) 0x3f14-0x3f18 (4)
      |                                               |                |      flags{}: 0x3f18-0x3f20 (8)
0x3f10|                        02                     |        .       |        link_order: false 0x3f18-0x3f18.1 (0.1)
0x3f10|                        02                     |        .       |        info_link: false 0x3f18.1-0x3f18.2 (0.1)
0x3f10|                        02                     |        .       |        strings: false 0x3f18.2-0x3f18.3 (0.1)
0x3f10|                        02                     |        .       |        merge: false 0x3f18.3-0x3f18.4 (0.1)
0x3f10|                        02                     |        .       |        unused0: 0 0x3f18.4-0x3f18.5 (0.1)
0x3f10|                        02                     |        .       |        execinstr: false 0x3f18.5-0x3f18.6 (0.1)
0x3f10|                        02                     |        .       |        alloc: true 0x3f18.6-0x3f18.7 (0.1)
0x3f10|                        02                     |        .       |        write: false 0x3f18.7-0x3f19 (0.1)
0x3f10|                           00                  |         .      |        tls: false 0x3f19-0x3f19.1 (0.1)
0x3f10|                           00                  |         .      |        group: false 0x3f19.1-0x3f19.2 (0.1)
0x3f10|                           00                  |         .      |        os_nonconforming: false 0x3f19.2-0x3f19.3 (0.1)
0x3f10|                           00 00               |         ..     |        unused1: 0 0x3f19.3-0x3f1a.4 (1.1)
0x3f10|                              00 00            |          ..    |        os_specific: 0 0x3f1a.4-0x3f1b.4 (1)
0x3f10|                                 00            |           .    |        processor_specific: 0 0x3f1b.4-0x3f1c (0.4)
0x3f10|                                    00 00 00 00|            ....|        unused2: 0 0x3f1c-0x3f20 (4)
0x3f20|00 03 00 00 00 00 00 00                        |........        |      addr: 0x300 0x3f20-0x3f28 (8)
0x3f20|                        00 03 00 00 00 00 00 00|        ........|      offset: 0x300 0x3f28-0x3f30 (8)
0x3f30|30 00 00 00 00 00 00 00                        |0.......        |      size: 48 0x3f30-0x3f38 (8)
0x3f30|                        00 00 00 00            |        ....    |      link: 0 0x3f38-0x3f3c (4)
0x3f30|                                    00 00 00 00|            ....|      info: 0 0x3f3c-0x3f40 (4)
0x3f40|08 00 00 00 00 00 00 00                        |........        |      addralign: 8 0x3f40-0x3f48 (8)
0x3f40|                        00 00 00 00 00 00 00 00|        ........|      entsize: 0 0x3f48-0x3f50 (8)
      |                                               |                |    [3]{}: section_header 0x330-0x3f90 (15456)
      |                                               |                |      gnu_hash{}: 0x330-0x360 (48)
0x0330|03 00 00 00                                    |....            |        nbuckets: 3 0x330-0x334 (4)
0x0330|            08 00 00 00                        |    ....        |        symndx: 8 0x334-0x338 (4)
0x0330|                        01 00 00 00            |        ....    |        maskwords: 1 0x338-0x33c (4)
0x0330|                                    06 00 00 00|            ....|        shift2: 6 0x33c-0x340 (4)
      |                                               |                |        bloom_filter[0:1]: 0x340-0x348 (8)
0x0340|00 80 81 00 00 04 40 01                        |......@.        |          [0]: 90076390602407936 maskword 0x340-0x348 (8)
      |                                               |                |        buckets[0:3]: 0x348-0x354 (12)
0x0340|                        08 00 00 00            |        ....    |          [0]: 8 bucket 0x348-0x34c (4)
0x0340|                                    09 00 00 00|            ....|          [1]: 9 bucket 0x34c-0x350 (4)
0x0350|0a 00 00 00                                    |....            |          [2]: 10 bucket 0x350-0x354 (4)
      |                                               |                |        values[0:3]: 0x354-0x360 (12)
0x0350|            d1 65 ce 6d                        |    .e.m        |          [0]: 1842243025 value 0x354-0x358 (4)
0x0350|                        b9 8d f1 0e            |        ....    |          [1]: 250711481 value 0x358-0x35c (4)
0x0350|                                    eb d3 ef 0e|            ....|          [2]: 250598379 value 0x35c-0x360 (4)
0x3f50|36 00 00 00                                    |6...            |      name: ".gnu.hash" (54) 0x3f50-0x3f54 (4)
0x3f50|            f6 ff ff 6f                        |    ...o        |      type: "gnu_hash" (0x6ffffff6) (GNU symbol hash table) 0x3f54-0x3f58 (4)
      |                                               |                |      flags{}: 0x3f58-0x3f60 (8)
0x3f50|                        02                     |        .       |        link_order: false 0x3f58-0x3f58.1 (0.1)
0x3f50|                        02                     |        .       |        info_link: false 0x3f58.1-0x3f58.2 (0.1)
0x3f50|                        02                     |        .       |        strings: false 0x3f58.2-0x3f58.3 (0.1)
0x3f50|                        02                     |        .       |        merge: false 0x3f58.3-0x3f58.4 (0.1)
0x3f50|                        02                     |        .       |        unused0: 0 0x3f58.4-0x3f58.5 (0.1)
0x3f50|                        02                     |        .       |        execinstr: false 0x3f58.5-0x3f58.6 (0.1)
0x3f50|                        02                     |        .       |        alloc: true 0x3f58.6-0x3f58.7 (0.1)
0x3f50|                        02                     |        .       |        write: false 0x3f58.7-0x3f59 (0.1)
0x3f50|                           00                  |         .      |        tls: false 0x3f59-0x3f59.1 (0.1)
0x3f50|                           00                  |         .      |        group: false 0x3f59.1-0x3f59.2 (0.1)
0x3f50|                           00                  |         .      |        os_nonconforming: false 0x3f59.2-0x3f59.3 (0.1)
0x3f50|                           00 00               |         ..     |        unused1: 0 0x3f59.3-0x3f5a.4 (1.1)
0x3f50|                              00 00            |          ..    |        os_specific: 0 0x3f5a.4-0x3f5b.4 (1)
0x3f50|                                 00            |           .    |        processor_specific: 0 0x3f5b.4-0x3f5c (0.4)
0x3f50|                                    00 00 00 00|            ....|        unused2: 0 0x3f5c-0x3f60 (4)
0x3f60|30 03 00 00 00 00 00 00                        |0.......        |      addr: 0x330 0x3f60-0x3f68 (8)
0x3f60|                        30 03 00 00 00 00 00 00|        0.......|      offset: 0x330 0x3f68-0x3f70 (8)
0x3f70|30 00 00 00 00 00 00 00                        |0.......        |      size: 48 0x3f70-0x3f78 (8)
0x3f70|                        04 00 00 00            |        ....    |      link: 4 0x3f78-0x3f7c (4)
0x3f70|                                    00 00 00 00|            ....|      info: 0 0x3f7c-0x3f80 (4)
0x3f80|08 00 00 00 00 00 00 00                        |........        |      addralign: 8 0x3f80-0x3f88 (8)
0x3f80|                        00 00 00 00 00 00 00 00|        ........|      entsize: 0 0x3f88-0x3f90 (8)
      |                                               |                |    [4]{}: section_header 0x360-0x3fd0 (15472)
      |                                               |                |      symbol_table[0:11]: 0x360-0x468 (264)
      |                                               |                |        [0]{}: symbol 0x360-0x378 (24)
0x0360|00 00 00 00                                    |....            |          name: "" (0) 0x360-0x364 (4)
0x0360|            00                                 |    .           |          bind: "local" (0) 0x364-0x364.4 (0.4)
0x0360|            00                                 |    .           |          type: "notype" (0) 0x364.4-0x365 (0.4)
0x0360|               00                              |     .          |          other_unused: 0 0x365-0x365.6 (0.6)
0x0360|               00                              |     .          |          visibility: "default" (0) 0x365.6-0x366 (0.2)
0x0360|                  00 00                        |      ..        |          shndx: 0 0x366-0x368 (2)
0x0360|                        00 00 00 00 00 00 00 00|        ........|          value: 0 0x368-0x370 (8)
0x0370|00 00 00 00 00 00 00 00                        |........        |          size: 0 0x370-0x378 (8)
      |                                               |                |        [1]{}: symbol 0x378-0x390 (24)
0x0370|                        01 00 00 00            |        ....    |          name: "puts" (1) 0x378-0x37c (4)
0x0370|                                    12         |            .   |          bind: "global" (1) 0x37c-0x37c.4 (0.4)
0x0370|                                    12         |            .   |          type: "func" (2) 0x37c.4-0x37d (0.4)
0x0370|                                       00      |             .  |          other_unused: 0 0x37d-0x37d.6 (0.6)
0x0370|                                       00      |             .  |          visibility: "default" (0) 0x37d.6-0x37e (0.2)
0x0370|                                          00 00|              ..|          shndx: 0 0x37e-0x380 (2)
0x0380|00 00 00 00 00 00 00 00                        |........        |          value: 0 0x380-0x388 (8)
0x0380|                        00 00 00 00 00 00 00 00|        ........|          size: 0 0x388-0x390 (8)
      |                                               |                |        [2]{}: symbol 0x390-0x3a8 (24)
0x0390|15 00 00 00                                    |....            |          name: "__deregister_frame_info" (21) 0x390-0x394 (4)
0x0390|            20                                 |                |          bind: "weak" (2) 0x394-0x394.4 (0.4)
0x0390|            20                                 |                |          type: "notype" (0) 0x394.4-0x395 (0.4)
0x0390|               00                              |     .          |          other_unused: 0 0x395-0x395.6 (0.6)
0x0390|               00                              |     .          |          visibility: "default" (0) 0x395.6-0x396 (0.2)
0x0390|                  00 00                        |      ..        |          shndx: 0 0x396-0x398 (2)
0x0390|                        00 00 00 00 00 00 00 00|        ........|          value: 0 0x398-0x3a0 (8)
0x03a0|00 00 00 00 00 00 00 00                        |........        |          size: 0 0x3a0-0x3a8 (8)
      |                                               |                |        [3]{}: symbol 0x3a8-0x3c0 (24)
0x03a0|                        2d 00 00 00            |        -...    |          name: "_ITM_registerTMCloneTable" (45) 0x3a8-0x3ac (4)
0x03a0|                                    20         |                |          bind: "weak" (2) 0x3ac-0x3ac.4 (0.4)
0x03a0|                                    20         |                |          type: "notype" (0) 0x3ac.4-0x3ad (0.4)
0x03a0|                                       00      |             .  |          other_unused: 0 0x3ad-0x3ad.6 (0.6)
0x03a0|                                       00      |             .  |          visibility: "default" (0) 0x3ad.6-0x3ae (0.2)
0x03a0|                                          00 00|              ..|          shndx: 0 0x3ae-0x3b0 (2)
0x03b0|00 00 00 00 00 00 00 00                        |........        |          value: 0 0x3b0-0x3b8 (8)
0x03b0|                        00 00 00 00 00 00 00 00|        ........|          size: 0 0x3b8-0x3c0 (8)
      |                                               |                |        [4]{}: symbol 0x3c0-0x3d8 (24)
0x03c0|47 00 00 00                                    |G...            |          name: "_ITM_deregisterTMCloneTable" (71) 0x3c0-0x3c4 (4)
0x03c0|            20                                 |                |          bind: "weak" (2) 0x3c4-0x3c4.4 (0.4)
0x03c0|            20                                 |                |          type: "notype" (0) 0x3c4.4-0x3c5 (0.4)
0x03c0|               00                              |     .          |          other_unused: 0 0x3c5-0x3c5.6 (0.6)
0x03c0|               00                              |     .          |          visibility: "default" (0) 0x3c5.6-0x3c6 (0.2)
0x03c0|                  00 00                        |      ..        |          shndx: 0 0x3c6-0x3c8 (2)
0x03c0|                        00 00 00 00 00 00 00 00|        ........|          value: 0 0x3c8-0x3d0 (8)
0x03d0|00 00 00 00 00 00 00 00                        |........        |          size: 0 0x3d0-0x3d8 (8)
      |                                               |                |        [5]{}: symbol 0x3d8-0x3f0 (24)
0x03d0|                        85 00 00 00            |        ....    |          name: "libbbb_bbb" (133) 0x3d8-0x3dc (4)
0x03d0|                                    12         |            .   |          bind: "global" (1) 0x3dc-0x3dc.4 (0.4)
0x03d0|                                    12         |            .   |          type: "func" (2) 0x3dc.4-0x3dd (0.4)
0x03d0|                                       00      |             .  |          other_unused: 0 0x3dd-0x3dd.6 (0.6)
0x03d0|                                       00      |             .  |          visibility: "default" (0) 0x3dd.6-0x3de (0.2)
0x03d0|                                          00 00|              ..|          shndx: 0 0x3de-0x3e0 (2)
0x03e0|00 00 00 00 00 00 00 00                        |........        |          value: 0 0x3e0-0x3e8 (8)
0x03e0|                        00 00 00 00 00 00 00 00|        ........|          size: 0 0x3e8-0x3f0 (8)
      |                                               |                |        [6]{}: symbol 0x3f0-0x408 (24)
0x03f0|90 00 00 00                                    |....            |          name: "__libc_start_main" (144) 0x3f0-0x3f4 (4)
0x03f0|            12                                 |    .           |          bind: "global" (1) 0x3f4-0x3f4.4 (0.4)
0x03f0|            12                                 |    .           |          type: "func" (2) 0x3f4.4-0x3f5 (0.4)
0x03f0|               00                              |     .          |          other_unused: 0 0x3f5-0x3f5.6 (0.6)
0x03f0|               00                              |     .          |          visibility: "default" (0) 0x3f5.6-0x3f6 (0.2)
0x03f0|                  00 00                        |      ..        |          shndx: 0 0x3f6-0x3f8 (2)
0x03f0|                        00 00 00 00 00 00 00 00|        ........|          value: 0 0x3f8-0x400 (8)
0x0400|00 00 00 00 00 00 00 00                        |........        |          size: 0 0x400-0x408 (8)
      |                                               |                |        [7]{}: symbol 0x408-0x420 (24)
0x0400|                        63 00 00 00            |        c...    |          name: "__register_frame_info" (99) 0x408-0x40c (4)
0x0400|                                    20         |                |          bind: "weak" (2) 0x40c-0x40c.4 (0.4)
0x0400|                                    20         |                |          type: "notype" (0) 0x40c.4-0x40d (0.4)
0x0400|                                       00      |             .  |          other_unused: 0 0x40d-0x40d.6 (0.6)
0x0400|                                       00      |             .  |          visibility: "default" (0) 0x40d.6-0x40e (0.2)
0x0400|                                          00 00|              ..|          shndx: 0 0x40e-0x410 (2)
0x0410|00 00 00 00 00 00 00 00                        |........        |          value: 0 0x410-0x418 (8)
0x0410|                        00 00 00 00 00 00 00 00|        ........|          size: 0 0x418-0x420 (8)
      |                                               |                |        [8]{}: symbol 0x420-0x438 (24)
0x0420|06 00 00 00                                    |....            |          name: "__cxa_finalize" (6) 0x420-0x424 (4)
0x0420|            22                                 |    "           |          bind: "weak" (2) 0x424-0x424.4 (0.4)
0x0420|            22                                 |    "           |          type: "func" (2) 0x424.4-0x425 (0.4)
0x0420|               00                              |     .          |          other_unused: 0 0x425-0x425.6 (0.6)
0x0420|               00                              |     .          |          visibility: "default" (0) 0x425.6-0x426 (0.2)
0x0420|                  00 00                        |      ..        |          shndx: 0 0x426-0x428 (2)
0x0420|                        00 00 00 00 00 00 00 00|        ........|          value: 0 0x428-0x430 (8)
0x0430|00 00 00 00 00 00 00 00                        |........        |          size: 0 0x430-0x438 (8)
      |                                               |                |        [9]{}: symbol 0x438-0x450 (24)
0x0430|                        79 00 00 00            |        y...    |          name: "_init" (121) 0x438-0x43c (4)
0x0430|                                    12         |            .   |          bind: "global" (1) 0x43c-0x43c.4 (0.4)
0x0430|                                    12         |            .   |          type: "func" (2) 0x43c.4-0x43d (0.4)
0x0430|                                       00      |             .  |          other_unused: 0 0x43d-0x43d.6 (0.6)
0x0430|                                       00      |             .  |          visibility: "default" (0) 0x43d.6-0x43e (0.2)
0x0430|                                          08 00|              ..|          shndx: 8 0x43e-0x440 (2)
0x0440|00 10 00 00 00 00 00 00                        |........        |          value: 4096 0x440-0x448 (8)
0x0440|                        01 00 00 00 00 00 00 00|        ........|          size: 1 0x448-0x450 (8)
      |                                               |                |        [10]{}: symbol 0x450-0x468 (24)
0x0450|7f 00 00 00                                    |....            |          name: "_fini" (127) 0x450-0x454 (4)
0x0450|            12                                 |    .           |          bind: "global" (1) 0x454-0x454.4 (0.4)
0x0450|            12                                 |    .           |          type: "func" (2) 0x454.4-0x455 (0.4)
0x0450|               00                              |     .          |          other_unused: 0 0x455-0x455.6 (0.6)
0x0450|               00                              |     .          |          visibility: "default" (0) 0x455.6-0x456 (0.2)
0x0450|                  0c 00                        |      ..        |          shndx: 12 0x456-0x458 (2)
0x0450|                        81 12 00 00 00 00 00 00|        ........|          value: 4737 0x458-0x460 (8)
0x0460|01 00 00 00 00 00 00 00                        |........        |          size: 1 0x460-0x468 (8)
0x3f90|40 00 00 00                                    |@...            |      name: ".dynsym" (64) 0x3f90-0x3f94 (4)
0x3f90|            0b 00 00 00                        |    ....        |      type: "dynsym" (0xb) (Dynamic linking symbol table) 0x3f94-0x3f98 (4)
      |                                               |                |      flags{}: 0x3f98-0x3fa0 (8)
0x3f90|                        02                     |        .       |        link_order: false 0x3f98-0x3f98.1 (0.1)
0x3f90|                        02                     |        .       |        info_link: false 0x3f98.1-0x3f98.2 (0.1)
0x3f90|                        02                     |        .       |        strings: false 0x3f98.2-0x3f98.3 (0.1)
0x3f90|                        02                     |        .       |        merge: false 0x3f98.3-0x3f98.4 (0.1)
0x3f90|                        02                     |        .       |        unused0: 0 0x3f98.4-0x3f98.5 (0.1)
0x3f90|                        02                     |        .       |        execinstr: false 0x3f98.5-0x3f98.6 (0.1)
0x3f90|                        02                     |        .       |        alloc: true 0x3f98.6-0x3f98.7 (0.1)
0x3f90|                        02                     |        .       |        write: false 0x3f98.7-0x3f99 (0.1)
0x3f90|                           00                  |         .      |        tls: false 0x3f99-0x3f99.1 (0.1)
0x3f90|                           00                  |         .      |        group: false 0x3f99.1-0x3f99.2 (0.1)
0x3f90|                           00                  |         .      |        os_nonconforming: false 0x3f99.2-0x3f99.3 (0.1)
0x3f90|                           00 00               |         ..     |        unused1: 0 0x3f99.3-0x3f9a.4 (1.1)
0x3f90|                              00 00            |          ..    |        os_specific: 0 0x3f9a.4-0x3f9b.4 (1)
0x3f90|                                 00            |           .    |        processor_specific: 0 0x3f9b.4-0x3f9c (0.4)
0x3f90|                                    00 00 00 00|            ....|        unused2: 0 0x3f9c-0x3fa0 (4)
0x3fa0|60 03 00 00 00 00 00 00                        |`.......        |      addr: 0x360 0x3fa0-0x3fa8 (8)
0x3fa0|                        60 03 00 00 00 00 00 00|        `.......|      offset: 0x360 0x3fa8-0x3fb0 (8)
0x3fb0|08 01 00 00 00 00 00 00                        |........        |      size: 264 0x3fb0-0x3fb8 (8)
0x3fb0|                        05 00 00 00            |        ....    |      link: 5 0x3fb8-0x3fbc (4)
0x3fb0|                                    01 00 00 00|            ....|      info: 1 0x3fbc-0x3fc0 (4)
0x3fc0|08 00 00 00 00 00 00 00                        |........        |      addralign: 8 0x3fc0-0x3fc8 (8)
0x3fc0|                        18 00 00 00 00 00 00 00|        ........|      entsize: 24 0x3fc8-0x3fd0 (8)
      |                                               |                |    [5]{}: section_header 0x468-0x4010 (15272)
0x0460|                        00 70 75 74 73 00 5f 5f|        .puts.__|      string: "\x00puts\x00__cxa_finalize\x00__deregister_frame_info\x00_ITM_registerTMCloneTable\x00_ITM_deregisterTMCloneTable\x00__register_frame_info\x00_init\x00_fini\x00libbbb_bbb\x00__libc_start_main\x00libbbb.so\x00libc.musl-x86_64.so.1\x00" 0x468-0x52a (194)
0x0470|63 78 61 5f 66 69 6e 61 6c 69 7a 65 00 5f 5f 64|cxa_finalize.__d|
*     |until 0x529.7 (194)                            |                |
0x3fd0|48 00 00 00                                    |H...            |      name: ".dynstr" (72) 0x3fd0-0x3fd4 (4)
0x3fd0|            03 00 00 00                        |    ....        |      type: "strtab" (0x3) (String table) 0x3fd4-0x3fd8 (4)
      |                                               |                |      flags{}: 0x3fd8-0x3fe0 (8)
0x3fd0|                        02                     |        .       |        link_order: false 0x3fd8-0x3fd8.1 (0.1)
0x3fd0|                        02                     |        .       |        info_link: false 0x3fd8.1-0x3fd8.2 (0.1)
0x3fd0|                        02                     |        .       |        strings: false 0x3fd8.2-0x3fd8.3 (0.1)
0x3fd0|                        02                     |        .       |        merge: false 0x3fd8.3-0x3fd8.4 (0.1)
0x3fd0|                        02                     |        .       |        unused0: 0 0x3fd8.4-0x3fd8.5 (0.1)
0x3fd0|                        02                     |        .       |        execinstr: false 0x3fd8.5-0x3fd8.6 (0.1)
0x3fd0|                        02                     |        .       |        alloc: true 0x3fd8.6-0x3fd8.7 (0.1)
0x3fd0|                        02                     |        .       |        write: false 0x3fd8.7-0x3fd9 (0.1)
0x3fd0|                           00                  |         .      |        tls: false 0x3fd9-0x3fd9.1 (0.1)
0x3fd0|                           00                  |         .      |        group: false 0x3fd9.1-0x3fd9.2 (0.1)
0x3fd0|                           00                  |         .      |        os_nonconforming: false 0x3fd9.2-0x3fd9.3 (0.1)
0x3fd0|                           00 00               |         ..     |        unused1: 0 0x3fd9.3-0x3fda.4 (1.1)
0x3fd0|                              00 00            |          ..    |        os_specific: 0 0x3fda.4-0x3fdb.4 (1)
0x3fd0|                                 00            |           .    |        processor_specific: 0 0x3fdb.4-0x3fdc (0.4)
0x3fd0|                                    00 00 00 00|            ....|        unused2: 0 0x3fdc-0x3fe0 (4)
0x3fe0|68 04 00 00 00 00 00 00                        |h.......        |      addr: 0x468 0x3fe0-0x3fe8 (8)
0x3fe0|                        68 04 00 00 00 00 00 00|        h.......|      offset: 0x468 0x3fe8-0x3ff0 (8)
0x3ff0|c2 00 00 00 00 00 00 00                        |........        |      size: 194 0x3ff0-0x3ff8 (8)
0x3ff0|                        00 00 00 00            |        ....    |      link: 0 0x3ff8-0x3ffc (4)
0x3ff0|                                    00 00 00 00|            ....|      info: 0 0x3ffc-0x4000 (4)
0x4000|01 00 00 00 00 00 00 00                        |........        |      addralign: 1 0x4000-0x4008 (8)
0x4000|                        00 00 00 00 00 00 00 00|        ........|      entsize: 0 0x4008-0x4010 (8)
      |                                               |                |    [6]{}: section_header 0x530-0x4050 (15136)
0x0530|00 40 00 00 00 00 00 00 08 00 00 00 00 00 00 00|.@..............|      data: raw bits 0x530-0x5c0 (144)
*     |until 0x5bf.7 (144)                            |                |
0x4010|50 00 00 00                                    |P...            |      name: ".rela.dyn" (80) 0x4010-0x4014 (4)
0x4010|            04 00 00 00                        |    ....        |      type: "rela" (0x4) (Relocation entries with explicit addends) 0x4014-0x4018 (4)
      |                                               |                |      flags{}: 0x4018-0x4020 (8)
0x4010|                        02                     |        .       |        link_order: false 0x4018-0x4018.1 (0.1)
0x4010|                        02                     |        .       |        info_link: false 0x4018.1-0x4018.2 (0.1)
0x4010|                        02                     |        .       |        strings: false 0x4018.2-0x4018.3 (0.1)
0x4010|                        02                     |        .       |        merge: false 0x4018.3-0x4018.4 (0.1)
0x4010|                        02                     |        .       |        unused0: 0 0x4018.4-0x4018.5 (0.1)
0x4010|                        02                     |        .       |        execinstr: false 0x4018.5-0x4018.6 (0.1)
0x4010|                        02                     |        .       |        alloc: true 0x4018.6-0x4018.7 (0.1)
0x4010|                        02                     |        .       |        write: false 0x4018.7-0x4019 (0.1)
0x4010|                           00                  |         .      |        tls: false 0x4019-0x4019.1 (0.1)
0x4010|                           00                  |         .      |        group: false 0x4019.1-0x4019.2 (0.1)
0x4010|                           00                  |         .      |        os_nonconforming: false 0x4019.2-0x4019.3 (0.1)
0x4010|                           00 00               |         ..     |        unused1: 0 0x4019.3-0x401a.4 (1.1)
0x4010|                              00 00            |          ..    |        os_specific: 0 0x401a.4-0x401b.4 (1)
0x4010|                                 00            |           .    |        processor_specific: 0 0x401b.4-0x401c (0.4)
0x4010|                                    00 00 00 00|            ....|        unused2: 0 0x401c-0x4020 (4)
0x4020|30 05 00 00 00 00 00 00                        |0.......        |      addr: 0x530 0x4020-0x4028 (8)
0x4020|                        30 05 00 00 00 00 00 00|        0.......|      offset: 0x530 0x4028-0x4030 (8)
0x4030|90 00 00 00 00 00 00 00                        |........        |      size: 144 0x4030-0x4038 (8)
0x4030|                        04 00 00 00            |        ....    |      link: 4 0x4038-0x403c (4)
0x4030|                                    00 00 00 00|            ....|      info: 0 0x403c-0x4040 (4)
0x4040|08 00 00 00 00 00 00 00                        |........        |      addralign: 8 0x4040-0x4048 (8)
0x4040|                        18 00 00 00 00 00 00 00|        ........|      entsize: 24 0x4048-0x4050 (8)
      |                                               |                |    [7]{}: section_header 0x5c0-0x4090 (15056)
0x05c0|c0 3f 00 00 00 00 00 00 07 00 00 00 01 00 00 00|.?..............|      data: raw bits 0x5c0-0x608 (72)
*     |until 0x607.7 (72)                             |                |
0x4050|5a 00 00 00                                    |Z...            |      name: ".rela.plt" (90) 0x4050-0x4054 (4)
0x4050|            04 00 00 00                        |    ....        |      type: "rela" (0x4) (Relocation entries with explicit addends) 0x4054-0x4058 (4)
      |                                               |                |      flags{}: 0x4058-0x4060 (8)
0x4050|                        42                     |        B       |        link_order: false 0x4058-0x4058.1 (0.1)
0x4050|                        42                     |        B       |        info_link: true 0x4058.1-0x4058.2 (0.1)
0x4050|                        42                     |        B       |        strings: false 0x4058.2-0x4058.3 (0.1)
0x4050|                        42                     |        B       |        merge: false 0x4058.3-0x4058.4 (0.1)
0x4050|                        42                     |        B       |        unused0: 0 0x4058.4-0x4058.5 (0.1)
0x4050|                        42                     |        B       |        execinstr: false 0x4058.5-0x4058.6 (0.1)
0x4050|                        42                     |        B       |        alloc: true 0x4058.6-0x4058.7 (0.1)
0x4050|                        42                     |        B       |        write: false 0x4058.7-0x4059 (0.1)
0x4050|                           00                  |         .      |        tls: false 0x4059-0x4059.1 (0.1)
0x4050|                           00                  |         .      |        group: false 0x4059.1-0x4059.2 (0.1)
0x4050|                           00                  |         .      |        os_nonconforming: false 0x4059.2-0x4059.3 (0.1)
0x4050|                           00 00               |         ..     |        unused1: 0 0x4059.3-0x405a.4 (1.1)
0x4050|                              00 00            |          ..    |        os_specific: 0 0x405a.4-0x405b.4 (1)
0x4050|                                 00            |           .    |        processor_specific: 0 0x405b.4-0x405c (0.4)
0x4050|                                    00 00 00 00|            ....|        unused2: 0 0x405c-0x4060 (4)
0x4060|c0 05 00 00 00 00 00 00                        |........        |      addr: 0x5c0 0x4060-0x4068 (8)
0x4060|                        c0 05 00 00 00 00 00 00|        ........|      offset: 0x5c0 0x4068-0x4070 (8)
0x4070|48 00 00 00 00 00 00 00                        |H.......        |      size: 72 0x4070-0x4078 (8)
0x4070|                        04 00 00 00            |        ....    |      link: 4 0x4078-0x407c (4)
0x4070|                                    13 00 00 00|            ....|      info: 19 0x407c-0x4080 (4)
0x4080|08 00 00 00 00 00 00 00                        |........        |      addralign: 8 0x4080-0x4088 (8)
0x4080|                        18 00 00 00 00 00 00 00|        ........|      entsize: 24 0x4088-0x4090 (8)
      |                                               |                |    [8]{}: section_header 0x1000-0x40d0 (12496)
0x1000|50 e8 ca 01 00 00 e8 35 02 00 00 58 c3         |P......5...X.   |      data: raw bits 0x1000-0x100d (13)
0x4090|64 00 00 00                                    |d...            |      name: ".init" (100) 0x4090-0x4094 (4)
0x4090|            01 00 00 00                        |    ....        |      type: "progbits" (0x1) (Information defined by the program) 0x4094-0x4098 (4)
      |                                               |                |      flags{}: 0x4098-0x40a0 (8)
0x4090|                        06                     |        .       |        link_order: false 0x4098-0x4098.1 (0.1)
0x4090|                        06                     |        .       |        info_link: false 0x4098.1-0x4098.2 (0.1)
0x4090|                        06                     |        .       |        strings: false 0x4098.2-0x4098.3 (0.1)
0x4090|                        06                     |        .       |        merge: false 0x4098.3-0x4098.4 (0.1)
0x4090|                        06                     |        .       |        unused0: 0 0x4098.4-0x4098.5 (0.1)
0x4090|                        06                     |        .       |        execinstr: true 0x4098.5-0x4098.6 (0.1)
0x4090|                        06                     |        .       |        alloc: true 0x4098.6-0x4098.7 (0.1)
0x4090|                        06                     |        .       |        write: false 0x4098.7-0x4099 (0.1)
0x4090|                           00                  |         .      |        tls: false 0x4099-0x4099.1 (0.1)
0x4090|                           00                  |         .      |        group: false 0x4099.1-0x4099.2 (0.1)
0x4090|                           00                  |         .      |        os_nonconforming: false 0x4099.2-0x4099.3 (0.1)
0x4090|                           00 00               |         ..     |        unused1: 0 0x4099.3-0x409a.4 (1.1)
0x4090|                              00 00            |          ..    |        os_specific: 0 0x409a.4-0x409b.4 (1)
0x4090|                                 00            |           .    |        processor_specific: 0 0x409b.4-0x409c (0.4)
0x4090|                                    00 00 00 00|            ....|        unused2: 0 0x409c-0x40a0 (4)
0x40a0|00 10 00 00 00 00 00 00                        |........        |      addr: 0x1000 0x40a0-0x40a8 (8)
0x40a0|                        00 10 00 00 00 00 00 00|        ........|      offset: 0x1000 0x40a8-0x40b0 (8)
0x40b0|0d 00 00 00 00 00 00 00                        |........        |      size: 13 0x40b0-0x40b8 (8)
0x40b0|                        00 00 00 00            |        ....    |      link: 0 0x40b8-0x40bc (4)
0x40b0|                                    00 00 00 00|            ....|      info: 0 0x40bc-0x40c0 (4)
0x40c0|01 00 00 00 00 00 00 00                        |........        |      addralign: 1 0x40c0-0x40c8 (8)
0x40c0|                        00 00 00 00 00 00 00 00|        ........|      entsize: 0 0x40c8-0x40d0 (8)
      |                                               |                |    [9]{}: section_header 0x1010-0x4110 (12544)
0x1010|ff 35 9a 2f 00 00 ff 25 9c 2f 00 00 0f 1f 40 00|.5./...%./....@.|      data: raw bits 0x1010-0x1050 (64)
*     |until 0x104f.7 (64)                            |                |
0x40d0|5f 00 00 00                                    |_...            |      name: ".plt" (95) 0x40d0-0x40d4 (4)
0x40d0|            01 00 00 00                        |    ....        |      type: "progbits" (0x1) (Information defined by the program) 0x40d4-0x40d8 (4)
      |                                               |                |      flags{}: 0x40d8-0x40e0 (8)
0x40d0|                        06                     |        .       |        link_order: false 0x40d8-0x40d8.1 (0.1)
0x40d0|                        06                     |        .       |        info_link: false 0x40d8.1-0x40d8.2 (0.1)
0x40d0|                        06                     |        .       |        strings: false 0x40d8.2-0x40d8.3 (0.1)
0x40d0|                        06                     |        .       |        merge: false 0x40d8.3-0x40d8.4 (0.1)
0x40d0|                        06                     |        .       |        unused0: 0 0x40d8.4-0x40d8.5 (0.1)
0x40d0|                        06                     |        .       |        execinstr: true 0x40d8.5-0x40d8.6 (0.1)
0x40d0|                        06                     |        .       |        alloc: true 0x40d8.6-0x40d8.7 (0.1)
0x40d0|                        06                     |        .       |        write: false 0x40d8.7-0x40d9 (0.1)
0x40d0|                           00                  |         .      |        tls: false 0x40d9-0x40d9.1 (0.1)
0x40d0|                           00                  |         .      |        group: false 0x40d9.1-0x40d9.2 (0.1)
0x40d0|                           00                  |         .      |        os_nonconforming: false 0x40d9.2-0x40d9.3 (0.1)
0x40d0|                           00 00               |         ..     |        unused1: 0 0x40d9.3-0x40da.4 (1.1)
0x40d0|                              00 00            |          ..    |        os_specific: 0 0x40da.4-0x40db.4 (1)
0x40d0|                                 00            |           .    |        processor_specific: 0 0x40db.4-0x40dc (0.4)
0x40d0|                                    00 00 00 00|            ....|        unused2: 0 0x40dc-0x40e0 (4)
0x40e0|10 10 00 00 00 00 00 00                        |........        |      addr: 0x1010 0x40e0-0x40e8 (8)
0x40e0|                        10 10 00 00 00 00 00 00|        ........|      offset: 0x1010 0x40e8-0x40f0 (8)
0x40f0|40 00 00 00 00 00 00 00                        |@.......        |      size: 64 0x40f0-0x40f8 (8)
0x40f0|                        00 00 00 00            |        ....    |      link: 0 0x40f8-0x40fc (4)
0x40f0|                                    00 00 00 00|            ....|      info: 0 0x40fc-0x4100 (4)
0x4100|10 00 00 00 00 00 00 00                        |........        |      addralign: 16 0x4100-0x4108 (8)
0x4100|                        10 00 00 00 00 00 00 00|        ........|      entsize: 16 0x4108-0x4110 (8)
      |                                               |                |    [10]{}: section_header 0x1050-0x4150 (12544)
0x1050|ff 25 82 2f 00 00 66 90 ff 25 82 2f 00 00 66 90|.%./..f..%./..f.|      data: raw bits 0x1050-0x1068 (24)
0x1060|ff 25 92 2f 00 00 66 90                        |.%./..f.        |
0x4110|6a 00 00 00                                    |j...            |      name: ".plt.got" (106) 0x4110-0x4114 (4)
0x4110|            01 00 00 00                        |    ....        |      type: "progbits" (0x1) (Information defined by the program) 0x4114-0x4118 (4)
      |                                               |                |      flags{}: 0x4118-0x4120 (8)
0x4110|                        06                     |        .       |        link_order: false 0x4118-0x4118.1 (0.1)
0x4110|                        06                     |        .       |        info_link: false 0x4118.1-0x4118.2 (0.1)
0x4110|                        06                     |        .       |        strings: false 0x4118.2-0x4118.3 (0.1)
0x4110|                        06                     |        .       |        merge: false 0x4118.3-0x4118.4 (0.1)
0x4110|                        06                     |        .       |        unused0: 0 0x4118.4-0x4118.5 (0.1)
0x4110|                        06                     |        .       |        execinstr: true 0x4118.5-0x4118.6 (0.1)
0x4110|                        06                     |        .       |        alloc: true 0x4118.6-0x4118.7 (0.1)
0x4110|                        06                     |        .       |        write: false 0x4118.7-0x4119 (0.1)
0x4110|                           00                  |         .      |        tls: false 0x4119-0x4119.1 (0.1)
0x4110|                           00                  |         .      |        group: false 0x4119.1-0x4119.2 (0.1)
0x4110|                           00                  |         .      |        os_nonconforming: false 0x4119.2-0x4119.3 (0.1)
0x4110|                           00 00               |         ..     |        unused1: 0 0x4119.3-0x411a.4 (1.1)
0x4110|                              00 00            |          ..    |        os_specific: 0 0x411a.4-0x411b.4 (1)
0x4110|                                 00            |           .    |        processor_specific: 0 0x411b.4-0x411c (0.4)
0x4110|                                    00 00 00 00|            ....|        unused2: 0 0x411c-0x4120 (4)
0x4120|50 10 00 00 00 00 00 00                        |P.......        |      addr: 0x1050 0x4120-0x4128 (8)
0x4120|                        50 10 00 00 00 00 00 00|        P.......|      offset: 0x1050 0x4128-0x4130 (8)
0x4130|18 00 00 00 00 00 00 00                        |........        |      size: 24 0x4130-0x4138 (8)
0x4130|                        00 00 00 00            |        ....    |      link: 0 0x4138-0x413c (4)
0x4130|                                    00 00 00 00|            ....|      info: 0 0x413c-0x4140 (4)
0x4140|08 00 00 00 00 00 00 00                        |........        |      addralign: 8 0x4140-0x4148 (8)
0x4140|                        08 00 00 00 00 00 00 00|        ........|      entsize: 8 0x4148-0x4150 (8)
      |                                               |                |    [11]{}: section_header 0x1070-0x4190 (12576)
0x1070|48 31 ed 48 89 e7 48 8d 35 9b 2d 00 00 48 83 e4|H1.H..H.5.-..H..|      data: raw bits 0x1070-0x1281 (529)
*     |until 0x1280.7 (529)                           |                |
0x4150|73 00 00 00                                    |s...            |      name: ".text" (115) 0x4150-0x4154 (4)
0x4150|            01 00 00 00                        |    ....        |      type: "progbits" (0x1) (Information defined by the program) 0x4154-0x4158 (4)
      |                                               |                |      flags{}: 0x4158-0x4160 (8)
0x4150|                        06                     |        .       |        link_order: false 0x4158-0x4158.1 (0.1)
0x4150|                        06                     |        .       |        info_link: false 0x4158.1-0x4158.2 (0.1)
0x4150|                        06                     |        .       |        strings: false 0x4158.2-0x4158.3 (0.1)
0x4150|                        06                     |        .       |        merge: false 0x4158.3-0x4158.4 (0.1)
0x4150|                        06                     |        .       |        unused0: 0 0x4158.4-0x4158.5 (0.1)
0x4150|                        06                     |        .       |        execinstr: true 0x4158.5-0x4158.6 (0.1)
0x4150|                        06                     |        .       |        alloc: true 0x4158.6-0x4158.7 (0.1)
0x4150|                        06                     |        .       |        write: false 0x4158.7-0x4159 (0.1)
0x4150|                           00                  |         .      |        tls: false 0x4159-0x4159.1 (0.1)
0x4150|                           00                  |         .      |        group: false 0x4159.1-0x4159.2 (0.1)
0x4150|                           00                  |         .      |        os_nonconforming: false 0x4159.2-0x4159.3 (0.1)
0x4150|                           00 00               |         ..     |        unused1: 0 0x4159.3-0x415a.4 (1.1)
0x4150|                              00 00            |          ..    |        os_specific: 0 0x415a.4-0x415b.4 (1)
0x4150|                                 00            |           .    |        processor_specific: 0 0x415b.4-0x415c (0.4)
0x4150|                                    00 00 00 00|            ....|        unused2: 0 0x415c-0x4160 (4)
0x4160|70 10 00 00 00 00 00 00                        |p.......        |      addr: 0x1070 0x4160-0x4168 (8)
0x4160|                        70 10 00 00 00 00 00 00|        p.......|      offset: 0x1070 0x4168-0x4170 (8)
0x4170|11 02 00 00 00 00 00 00                        |........        |      size: 529 0x4170-0x4178 (8)
0x4170|                        00 00 00 00            |        ....    |      link: 0 0x4178-0x417c (4)
0x4170|                                    00 00 00 00|            ....|      info: 0 0x417c-0x4180 (4)
0x4180|10 00 00 00 00 00 00 00                        |........        |      addralign: 16 0x4180-0x4188 (8)
0x4180|                        00 00 00 00 00 00 00 00|        ........|      entsize: 0 0x4188-0x4190 (8)
      |                                               |                |    [12]{}: section_header 0x1281-0x41d0 (12111)
0x1280|   50 e8 99 fe ff ff 58 c3                     | P.....X.       |      data: raw bits 0x1281-0x1289 (8)
0x4190|79 00 00 00                                    |y...            |      name: ".fini" (121) 0x4190-0x4194 (4)
0x4190|            01 00 00 00                        |    ....        |      type: "progbits" (0x1) (Information defined by the program) 0x4194-0x4198 (4)
      |                                               |                |      flags{}: 0x4198-0x41a0 (8)
0x4190|                        06                     |        .       |        link_order: false 0x4198-0x4198.1 (0.1)
0x4190|                        06                     |        .       |        info_link: false 0x4198.1-0x4198.2 (0.1)
0x4190|                        06                     |        .       |        strings: false 0x4198.2-0x4198.3 (0.1)
0x4190|                        06                     |        .       |        merge: false 0x4198.3-0x4198.4 (0.1)
0x4190|                        06                     |        .       |        unused0: 0 0x4198.4-0x4198.5 (0.1)
0x4190|                        06                     |        .       |        execinstr: true 0x4198.5-0x4198.6 (0.1)
0x4190|                        06                     |        .       |        alloc: true 0x4198.6-0x4198.7 (0.1)
0x4190|                        06                     |        .       |        write: false 0x4198.7-0x4199 (0.1)
0x4190|                           00                  |         .      |        tls: false 0x4199-0x4199.1 (0.1)
0x4190|                           00                  |         .      |        group: false 0x4199.1-0x4199.2 (0.1)
0x4190|                           00                  |         .      |        os_nonconforming: false 0x4199.2-0x4199.3 (0.1)
0x4190|                           00 00               |         ..     |        unused1: 0 0x4199.3-0x419a.4 (1.1)
0x4190|                              00 00            |          ..    |        os_specific: 0 0x419a.4-0x419b.4 (1)
0x4190|                                 00            |           .    |        processor_specific: 0 0x419b.4-0x419c (0.4)
0x4190|                                    00 00 00 00|            ....|        unused2: 0 0x419c-0x41a0 (4)
0x41a0|81 12 00 00 00 00 00 00                        |........        |      addr: 0x1281 0x41a0-0x41a8 (8)
0x41a0|                        81 12 00 00 00 00 00 00|        ........|      offset: 0x1281 0x41a8-0x41b0 (8)
0x41b0|08 00 00 00 00 00 00 00                        |........        |      size: 8 0x41b0-0x41b8 (8)
0x41b0|                        00 00 00 00            |        ....    |      link: 0 0x41b8-0x41bc (4)
0x41b0|                                    00 00 00 00|            ....|      info: 0 0x41bc-0x41c0 (4)
0x41c0|01 00 00 00 00 00 00 00                        |........        |      addralign: 1 0x41c0-0x41c8 (8)
0x41c0|                        00 00 00 00 00 00 00 00|        ........|      entsize: 0 0x41c8-0x41d0 (8)
      |                                               |                |    [13]{}: section_header 0x2000-0x4210 (8720)
0x2000|61 61 61 00                                    |aaa.            |      data: raw bits 0x2000-0x2004 (4)
0x41d0|7f 00 00 00                                    |....            |      name: ".rodata" (127) 0x41d0-0x41d4 (4)
0x41d0|            01 00 00 00                        |    ....        |      type: "progbits" (0x1) (Information defined by the program) 0x41d4-0x41d8 (4)
      |                                               |                |      flags{}: 0x41d8-0x41e0 (8)
0x41d0|                        02                     |        .       |        link_order: false 0x41d8-0x41d8.1 (0.1)
0x41d0|                        02                     |        .       |        info_link: false 0x41d8.1-0x41d8.2 (0.1)
0x41d0|                        02                     |        .       |        strings: false 0x41d8.2-0x41d8.3 (0.1)
0x41d0|                        02                     |        .       |        merge: false 0x41d8.3-0x41d8.4 (0.1)
0x41d0|                        02                     |        .       |        unused0: 0 0x41d8.4-0x41d8.5 (0.1)
0x41d0|                        02                     |        .       |        execinstr: false 0x41d8.5-0x41d8.6 (0.1)
0x41d0|                        02                     |        .       |        alloc: true 0x41d8.6-0x41d8.7 (0.1)
0x41d0|                        02                     |        .       |        write: false 0x41d8.7-0x41d9 (0.1)
0x41d0|                           00                  |         .      |        tls: false 0x41d9-0x41d9.1 (0.1)
0x41d0|                           00                  |         .      |        group: false 0x41d9.1-0x41d9.2 (0.1)
0x41d0|                           00                  |         .      |        os_nonconforming: false 0x41d9.2-0x41d9.3 (0.1)
0x41d0|                           00 00               |         ..     |        unused1: 0 0x41d9.3-0x41da.4 (1.1)
0x41d0|                              00 00            |          ..    |        os_specific: 0 0x41da.4-0x41db.4 (1)
0x41d0|                                 00            |           .    |        processor_specific: 0 0x41db.4-0x41dc (0.4)
0x41d0|                                    00 00 00 00|            ....|        unused2: 0 0x41dc-0x41e0 (4)
0x41e0|00 20 00 00 00 00 00 00                        |. ......        |      addr: 0x2000 0x41e0-0x41e8 (8)
0x41e0|                        00 20 00 00 00 00 00 00|        . ......|      offset: 0x2000 0x41e8-0x41f0 (8)
0x41f0|04 00 00 00 00 00 00 00                        |........        |      size: 4 0x41f0-0x41f8 (8)
0x41f0|                        00 00 00 00            |        ....    |      link: 0 0x41f8-0x41fc (4)
0x41f0|                                    00 00 00 00|            ....|      info: 0 0x41fc-0x4200 (4)
0x4200|01 00 00 00 00 00 00 00                        |........        |      addralign: 1 0x4200-0x4208 (8)
0x4200|                        00 00 00 00 00 00 00 00|        ........|      entsize: 0 0x4208-0x4210 (8)
      |                                               |                |    [14]{}: section_header 0x2004-0x4250 (8780)
0x2000|            01 1b 03 3b 28 00 00 00 04 00 00 00|    ...;(.......|      data: raw bits 0x2004-0x2030 (44)
0x2010|0c f0 ff ff 44 00 00 00 4c f0 ff ff 6c 00 00 00|....D...L...l...|
0x2020|01 f2 ff ff 84 00 00 00 14 f2 ff ff a4 00 00 00|................|
0x4210|87 00 00 00                                    |....            |      name: ".eh_frame_hdr" (135) 0x4210-0x4214 (4)
0x4210|            01 00 00 00                        |    ....        |      type: "progbits" (0x1) (Information defined by the program) 0x4214-0x4218 (4)
      |                                               |                |      flags{}: 0x4218-0x4220 (8)
0x4210|                        02                     |        .       |        link_order: false 0x4218-0x4218.1 (0.1)
0x4210|                        02                     |        .       |        info_link: false 0x4218.1-0x4218.2 (0.1)
0x4210|                        02                     |        .       |        strings: false 0x4218.2-0x4218.3 (0.1)
0x4210|                        02                     |        .       |        merge: false 0x4218.3-0x4218.4 (0.1)
0x4210|                        02                     |        .       |        unused0: 0 0x4218.4-0x4218.5 (0.1)
0x4210|                        02                     |        .       |        execinstr: false 0x4218.5-0x4218.6 (0.1)
0x4210|                        02                     |        .       |        alloc: true 0x4218.6-0x4218.7 (0.1)
0x4210|                        02                     |        .       |        write: false 0x4218.7-0x4219 (0.1)
0x4210|                           00                  |         .      |        tls: false 0x4219-0x4219.1 (0.1)
0x4210|                           00                  |         .      |        group: false 0x4219.1-0x4219.2 (0.1)
0x4210|                           00                  |         .      |        os_nonconforming: false 0x4219.2-0x4219.3 (0.1)
0x4210|                           00 00               |         ..     |        unused1: 0 0x4219.3-0x421a.4 (1.1)
0x4210|                              00 00            |          ..    |        os_specific: 0 0x421a.4-0x421b.4 (1)
0x4210|                                 00            |           .    |        processor_specific: 0 0x421b.4-0x421c (0.4)
0x4210|                                    00 00 00 00|            ....|        unused2: 0 0x421c-0x4220 (4)
0x4220|04 20 00 00 00 00 00 00                        |. ......        |      addr: 0x2004 0x4220-0x4228 (8)
0x4220|                        04 20 00 00 00 00 00 00|        . ......|      offset: 0x2004 0x4228-0x4230 (8)
0x4230|2c 00 00 00 00 00 00 00                        |,.......        |      size: 44 0x4230-0x4238 (8)
0x4230|                        00 00 00 00            |        ....    |      link: 0 0x4238-0x423c (4)
0x4230|                                    00 00 00 00|            ....|      info: 0 0x423c-0x4240 (4)
0x4240|04 00 00 00 00 00 00 00                        |........        |      addralign: 4 0x4240-0x4248 (8)
0x4240|                        00 00 00 00 00 00 00 00|        ........|      entsize: 0 0x4248-0x4250 (8)
      |                                               |                |    [15]{}: section_header 0x2030-0x4290 (8800)
0x2030|14 00 00 00 00 00 00 00 01 7a 52 00 01 78 10 01|.........zR..x..|      data: raw bits 0x2030-0x20cc (156)
*     |until 0x20cb.7 (156)                           |                |
0x4250|95 00 00 00                                    |....            |      name: ".eh_frame" (149) 0x4250-0x4254 (4)
0x4250|            01 00 00 00                        |    ....        |      type: "progbits" (0x1) (Information defined by the program) 0x4254-0x4258 (4)
      |                                               |                |      flags{}: 0x4258-0x4260 (8)
0x4250|                        02                     |        .       |        link_order: false 0x4258-0x4258.1 (0.1)
0x4250|                        02                     |        .       |        info_link: false 0x4258.1-0x4258.2 (0.1)
0x4250|                        02                     |        .       |        strings: false 0x4258.2-0x4258.3 (0.1)
0x4250|                        02                     |        .       |        merge: false 0x4258.3-0x4258.4 (0.1)
0x4250|                        02                     |        .       |        unused0: 0 0x4258.4-0x4258.5 (0.1)
0x4250|                        02                     |        .       |        execinstr: false 0x4258.5-0x4258.6 (0.1)
0x4250|                        02                     |        .       |        alloc: true 0x4258.6-0x4258.7 (0.1)
0x4250|                        02                     |        .       |        write: false 0x4258.7-0x4259 (0.1)
0x4250|                           00                  |         .      |        tls: false 0x4259-0x4259.1 (0.1)
0x4250|                           00                  |         .      |        group: false 0x4259.1-0x4259.2 (0.1)
0x4250|                           00                  |         .      |        os_nonconforming: false 0x4259.2-0x4259.3 (0.1)
0x4250|                           00 00               |         ..     |        unused1: 0 0x4259.3-0x425a.4 (1.1)
0x4250|                              00 00            |          ..    |        os_specific: 0 0x425a.4-0x425b.4 (1)
0x4250|                                 00            |           .    |        processor_specific: 0 0x425b.4-0x425c (0.4)
0x4250|                                    00 00 00 00|            ....|        unused2: 0 0x425c-0x4260 (4)
0x4260|30 20 00 00 00 00 00 00                        |0 ......        |      addr: 0x2030 0x4260-0x4268 (8)
0x4260|                        30 20 00 00 00 00 00 00|        0 ......|      offset: 0x2030 0x4268-0x4270 (8)
0x4270|9c 00 00 00 00 00 00 00                        |........        |      size: 156 0x4270-0x4278 (8)
0x4270|                        00 00 00 00            |        ....    |      link: 0 0x4278-0x427c (4)
0x4270|                                    00 00 00 00|            ....|      info: 0 0x427c-0x4280 (4)
0x4280|08 00 00 00 00 00 00 00                        |........        |      addralign: 8 0x4280-0x4288 (8)
0x4280|                        00 00 00 00 00 00 00 00|        ........|      entsize: 0 0x4288-0x4290 (8)
      |                                               |                |    [16]{}: section_header 0x2df8-0x42d0 (5336)
0x2df0|                        ff ff ff ff ff ff ff ff|        ........|      data: raw bits 0x2df8-0x2e08 (16)
0x2e00|00 00 00 00 00 00 00 00                        |........        |
0x4290|9f 00 00 00                                    |....            |      name: ".ctors" (159) 0x4290-0x4294 (4)
0x4290|            01 00 00 00                        |    ....        |      type: "progbits" (0x1) (Information defined by the program) 0x4294-0x4298 (4)
      |                                               |                |      flags{}: 0x4298-0x42a0 (8)
0x4290|                        03                     |        .       |        link_order: false 0x4298-0x4298.1 (0.1)
0x4290|                        03                     |        .       |        info_link: false 0x4298.1-0x4298.2 (0.1)
0x4290|                        03                     |        .       |        strings: false 0x4298.2-0x4298.3 (0.1)
0x4290|                        03                     |        .       |        merge: false 0x4298.3-0x4298.4 (0.1)
0x4290|                        03                     |        .       |        unused0: 0 0x4298.4-0x4298.5 (0.1)
0x4290|                        03                     |        .       |        execinstr: false 0x4298.5-0x4298.6 (0.1)
0x4290|                        03                     |        .       |        alloc: true 0x4298.6-0x4298.7 (0.1)
0x4290|                        03                     |        .       |        write: true 0x4298.7-0x4299 (0.1)
0x4290|                           00                  |         .      |        tls: false 0x4299-0x4299.1 (0.1)
0x4290|                           00                  |         .      |        group: false 0x4299.1-0x4299.2 (0.1)
0x4290|                           00                  |         .      |        os_nonconforming: false 0x4299.2-0x4299.3 (0.1)
0x4290|                           00 00               |         ..     |        unused1: 0 0x4299.3-0x429a.4 (1.1)
0x4290|                              00 00            |          ..    |        os_specific: 0 0x429a.4-0x429b.4 (1)
0x4290|                                 00            |           .    |        processor_specific: 0 0x429b.4-0x429c (0.4)
0x4290|                                    00 00 00 00|            ....|        unused2: 0 0x429c-0x42a0 (4)
0x42a0|f8 3d 00 00 00 00 00 00                        |.=......        |      addr: 0x3df8 0x42a0-0x42a8 (8)
0x42a0|                        f8 2d 00 00 00 00 00 00|        .-......|      offset: 0x2df8 0x42a8-0x42b0 (8)
0x42b0|10 00 00 00 00 00 00 00                        |........        |      size: 16 0x42b0-0x42b8 (8)
0x42b0|                        00 00 00 00            |        ....    |      link: 0 0x42b8-0x42bc (4)
0x42b0|                                    00 00 00 00|            ....|      info: 0 0x42bc-0x42c0 (4)
0x42c0|08 00 00 00 00 00 00 00                        |........        |      addralign: 8 0x42c0-0x42c8 (8)
0x42c0|                        00 00 00 00 00 00 00 00|        ........|      entsize: 0 0x42c8-0x42d0 (8)
      |                                               |                |    [17]{}: section_header 0x2e08-0x4310 (5384)
0x2e00|                        ff ff ff ff ff ff ff ff|        ........|      data: raw bits 0x2e08-0x2e18 (16)
0x2e10|00 00 00 00 00 00 00 00                        |........        |
0x42d0|a6 00 00 00                                    |....            |      name: ".dtors" (166) 0x42d0-0x42d4 (4)
0x42d0|            01 00 00 00                        |    ....        |      type: "progbits" (0x1) (Information defined by the program) 0x42d4-0x42d8 (4)
      |                                               |                |      flags{}: 0x42d8-0x42e0 (8)
0x42d0|                        03                     |        .       |        link_order: false 0x42d8-0x42d8.1 (0.1)
0x42d0|                        03                     |        .       |        info_link: false 0x42d8.1-0x42d8.2 (0.1)
0x42d0|                        03                     |        .       |        strings: false 0x42d8.2-0x42d8.3 (0.1)
0x42d0|                        03                     |        .       |        merge: false 0x42d8.3-0x42d8.4 (0.1)
0x42d0|                        03                     |        .       |        unused0: 0 0x42d8.4-0x42d8.5 (0.1)
0x42d0|                        03                     |        .       |        execinstr: false 0x42d8.5-0x42d8.6 (0.1)
0x42d0|                        03                     |        .       |        alloc: true 0x42d8.6-0x42d8.7 (0.1)
0x42d0|                        03                     |        .       |        write: true 0x42d8.7-0x42d9 (0.1)
0x42d0|                           00                  |         .      |        tls: false 0x42d9-0x42d9.1 (0.1)
0x42d0|                           00                  |         .      |        group: false 0x42d9.1-0x42d9.2 (0.1)
0x42d0|                           00                  |         .      |        os_nonconforming: false 0x42d9.2-0x42d9.3 (0.1)
0x42d0|                           00 00               |         ..     |        unused1: 0 0x42d9.3-0x42da.4 (1.1)
0x42d0|                              00 00            |          ..    |        os_specific: 0 0x42da.4-0x42db.4 (1)
0x42d0|                                 00            |           .    |        processor_specific: 0 0x42db.4-0x42dc (0.4)
0x42d0|                                    00 00 00 00|            ....|        unused2: 0 0x42dc-0x42e0 (4)
0x42e0|08 3e 00 00 00 00 00 00                        |.>......        |      addr: 0x3e08 0x42e0-0x42e8 (8)
0x42e0|                        08 2e 00 00 00 00 00 00|        ........|      offset: 0x2e08 0x42e8-0x42f0 (8)
0x42f0|10 00 00 00 00 00 00 00                        |........        |      size: 16 0x42f0-0x42f8 (8)
0x42f0|                        00 00 00 00            |        ....    |      link: 0 0x42f8-0x42fc (4)
0x42f0|                                    00 00 00 00|            ....|      info: 0 0x42fc-0x4300 (4)
0x4300|08 00 00 00 00 00 00 00                        |........        |      addralign: 8 0x4300-0x4308 (8)
0x4300|                        00 00 00 00 00 00 00 00|        ........|      entsize: 0 0x4308-0x4310 (8)
      |                                               |                |    [18]{}: section_header 0x2e18-0x4350 (5432)
      |                                               |                |      dynamic_tags[0:21]: 0x2e18-0x2f68 (336)
      |                                               |                |        [0]{}: dynamic_tags 0x2e18-0x2e28 (16)
0x2e10|                        01 00 00 00 00 00 00 00|        ........|          tag: "needed" (1) (String table offset to name of a needed library) 0x2e18-0x2e20 (8)
0x2e20|a2 00 00 00 00 00 00 00                        |........        |          val: "libbbb.so" (162) 0x2e20-0x2e28 (8)
      |                                               |                |        [1]{}: dynamic_tags 0x2e28-0x2e38 (16)
0x2e20|                        01 00 00 00 00 00 00 00|        ........|          tag: "needed" (1) (String table offset to name of a needed library) 0x2e28-0x2e30 (8)
0x2e30|ac 00 00 00 00 00 00 00                        |........        |          val: "libc.musl-x86_64.so.1" (172) 0x2e30-0x2e38 (8)
      |                                               |                |        [2]{}: dynamic_tags 0x2e38-0x2e48 (16)
0x2e30|                        0c 00 00 00 00 00 00 00|        ........|          tag: "init" (12) (Address of the initialization function) 0x2e38-0x2e40 (8)
0x2e40|00 10 00 00 00 00 00 00                        |........        |          ptr: 0x1000 0x2e40-0x2e48 (8)
      |                                               |                |          section_index: 8
      |                                               |                |        [3]{}: dynamic_tags 0x2e48-0x2e58 (16)
0x2e40|                        0d 00 00 00 00 00 00 00|        ........|          tag: "fini" (13) (Address of the termination function) 0x2e48-0x2e50 (8)
0x2e50|81 12 00 00 00 00 00 00                        |........        |          ptr: 0x1281 0x2e50-0x2e58 (8)
      |                                               |                |          section_index: 12
      |                                               |                |        [4]{}: dynamic_tags 0x2e58-0x2e68 (16)
0x2e50|                        f5 fe ff 6f 00 00 00 00|        ...o....|          tag: 1879047925 0x2e58-0x2e60 (8)
0x2e60|30 03 00 00 00 00 00 00                        |0.......        |          unspecified: 0x330 0x2e60-0x2e68 (8)
      |                                               |                |        [5]{}: dynamic_tags 0x2e68-0x2e78 (16)
0x2e60|                        05 00 00 00 00 00 00 00|        ........|          tag: "strtab" (5) (Address of string table) 0x2e68-0x2e70 (8)
0x2e70|68 04 00 00 00 00 00 00                        |h.......        |          ptr: 0x468 0x2e70-0x2e78 (8)
      |                                               |                |          section_index: 5
      |                                               |                |        [6]{}: dynamic_tags 0x2e78-0x2e88 (16)
0x2e70|                        06 00 00 00 00 00 00 00|        ........|          tag: "symtab" (6) (Address of symbol table) 0x2e78-0x2e80 (8)
0x2e80|60 03 00 00 00 00 00 00                        |`.......        |          ptr: 0x360 0x2e80-0x2e88 (8)
      |                                               |                |          section_index: 4
      |                                               |                |        [7]{}: dynamic_tags 0x2e88-0x2e98 (16)
0x2e80|                        0a 00 00 00 00 00 00 00|        ........|          tag: "strsz" (10) (Size in bytes of string table) 0x2e88-0x2e90 (8)
0x2e90|c2 00 00 00 00 00 00 00                        |........        |          val: 194 0x2e90-0x2e98 (8)
      |                                               |                |        [8]{}: dynamic_tags 0x2e98-0x2ea8 (16)
0x2e90|                        0b 00 00 00 00 00 00 00|        ........|          tag: "syment" (11) (Size in bytes of a symbol table entry) 0x2e98-0x2ea0 (8)
0x2ea0|18 00 00 00 00 00 00 00                        |........        |          val: 24 0x2ea0-0x2ea8 (8)
      |                                               |                |        [9]{}: dynamic_tags 0x2ea8-0x2eb8 (16)
0x2ea0|                        15 00 00 00 00 00 00 00|        ........|          tag: "debug" (21) (Undefined use for debugging) 0x2ea8-0x2eb0 (8)
0x2eb0|00 00 00 00 00 00 00 00                        |........        |          ptr: 0x0 0x2eb0-0x2eb8 (8)
      |                                               |                |        [10]{}: dynamic_tags 0x2eb8-0x2ec8 (16)
0x2eb0|                        03 00 00 00 00 00 00 00|        ........|          tag: "pltgot" (3) (Address of PLT and/or GOT) 0x2eb8-0x2ec0 (8)
0x2ec0|a8 3f 00 00 00 00 00 00                        |.?......        |          ptr: 0x3fa8 0x2ec0-0x2ec8 (8)
      |                                               |                |          section_index: 19
      |                                               |                |        [11]{}: dynamic_tags 0x2ec8-0x2ed8 (16)
0x2ec0|                        02 00 00 00 00 00 00 00|        ........|          tag: "pltrelsz" (2) (Size in bytes of PLT relocation entries) 0x2ec8-0x2ed0 (8)
0x2ed0|48 00 00 00 00 00 00 00                        |H.......        |          val: 72 0x2ed0-0x2ed8 (8)
      |                                               |                |        [12]{}: dynamic_tags 0x2ed8-0x2ee8 (16)
0x2ed0|                        14 00 00 00 00 00 00 00|        ........|          tag: "pltrel" (20) (Type of relocation entry to which the PLT refers (Rela or Rel)) 0x2ed8-0x2ee0 (8)
0x2ee0|07 00 00 00 00 00 00 00                        |........        |          val: 7 0x2ee0-0x2ee8 (8)
      |                                               |                |        [13]{}: dynamic_tags 0x2ee8-0x2ef8 (16)
0x2ee0|                        17 00 00 00 00 00 00 00|        ........|          tag: "jmprel" (23) (Address of relocation entries associated solely with the PLT) 0x2ee8-0x2ef0 (8)
0x2ef0|c0 05 00 00 00 00 00 00                        |........        |          ptr: 0x5c0 0x2ef0-0x2ef8 (8)
      |                                               |                |          section_index: 7
      |                                               |                |        [14]{}: dynamic_tags 0x2ef8-0x2f08 (16)
0x2ef0|                        07 00 00 00 00 00 00 00|        ........|          tag: "rela" (7) (Address of Rela relocation table) 0x2ef8-0x2f00 (8)
0x2f00|30 05 00 00 00 00 00 00                        |0.......        |          ptr: 0x530 0x2f00-0x2f08 (8)
      |                                               |                |        [15]{}: dynamic_tags 0x2f08-0x2f18 (16)
0x2f00|                        08 00 00 00 00 00 00 00|        ........|          tag: "relasz" (8) (Size in bytes of the Rela relocation table) 0x2f08-0x2f10 (8)
0x2f10|90 00 00 00 00 00 00 00                        |........        |          val: 144 0x2f10-0x2f18 (8)
      |                                               |                |        [16]{}: dynamic_tags 0x2f18-0x2f28 (16)
0x2f10|                        09 00 00 00 00 00 00 00|        ........|          tag: "relaent" (9) (Size in bytes of a Rela relocation table entry) 0x2f18-0x2f20 (8)
0x2f20|18 00 00 00 00 00 00 00                        |........        |          val: 24 0x2f20-0x2f28 (8)
      |                                               |                |        [17]{}: dynamic_tags 0x2f28-0x2f38 (16)
0x2f20|                        18 00 00 00 00 00 00 00|        ........|          tag: "bind_now" (24) (Instruct dynamic linker to process all relocations before transferring control to the executable) 0x2f28-0x2f30 (8)
0x2f30|00 00 00 00 00 00 00 00                        |........        |          ignored: 0x0 0x2f30-0x2f38 (8)
      |                                               |                |        [18]{}: dynamic_tags 0x2f38-0x2f48 (16)
0x2f30|                        fb ff ff 6f 00 00 00 00|        ...o....|          tag: 1879048187 0x2f38-0x2f40 (8)
0x2f40|01 00 00 08 00 00 00 00                        |........        |          unspecified: 0x8000001 0x2f40-0x2f48 (8)
      |                                               |                |        [19]{}: dynamic_tags 0x2f48-0x2f58 (16)
0x2f40|                        f9 ff ff 6f 00 00 00 00|        ...o....|          tag: 1879048185 0x2f48-0x2f50 (8)
0x2f50|01 00 00 00 00 00 00 00                        |........        |          unspecified: 0x1 0x2f50-0x2f58 (8)
      |                                               |                |        [20]{}: dynamic_tags 0x2f58-0x2f68 (16)
0x2f50|                        00 00 00 00 00 00 00 00|        ........|          tag: "null" (0) (Marks end of dynamic section) 0x2f58-0x2f60 (8)
0x2f60|00 00 00 00 00 00 00 00                        |........        |          ignored: 0x0 0x2f60-0x2f68 (8)
0x4310|ad 00 00 00                                    |....            |      name: ".dynamic" (173) 0x4310-0x4314 (4)
0x4310|            06 00 00 00                        |    ....        |      type: "dynamic" (0x6) (Information for dynamic linking) 0x4314-0x4318 (4)
      |                                               |                |      flags{}: 0x4318-0x4320 (8)
0x4310|                        03                     |        .       |        link_order: false 0x4318-0x4318.1 (0.1)
0x4310|                        03                     |        .       |        info_link: false 0x4318.1-0x4318.2 (0.1)
0x4310|                        03                     |        .       |        strings: false 0x4318.2-0x4318.3 (0.1)
0x4310|                        03                     |        .       |        merge: false 0x4318.3-0x4318.4 (0.1)
0x4310|                        03                     |        .       |        unused0: 0 0x4318.4-0x4318.5 (0.1)
0x4310|                        03                     |        .       |        execinstr: false 0x4318.5-0x4318.6 (0.1)
0x4310|                        03                     |        .       |        alloc: true 0x4318.6-0x4318.7 (0.1)
0x4310|                        03                     |        .       |        write: true 0x4318.7-0x4319 (0.1)
0x4310|                           00                  |         .      |        tls: false 0x4319-0x4319.1 (0.1)
0x4310|                           00                  |         .      |        group: false 0x4319.1-0x4319.2 (0.1)
0x4310|                           00                  |         .      |        os_nonconforming: false 0x4319.2-0x4319.3 (0.1)
0x4310|                           00 00               |         ..     |        unused1: 0 0x4319.3-0x431a.4 (1.1)
0x4310|                              00 00            |          ..    |        os_specific: 0 0x431a.4-0x431b.4 (1)
0x4310|                                 00            |           .    |        processor_specific: 0 0x431b.4-0x431c (0.4)
0x4310|                                    00 00 00 00|            ....|        unused2: 0 0x431c-0x4320 (4)
0x4320|18 3e 00 00 00 00 00 00                        |.>......        |      addr: 0x3e18 0x4320-0x4328 (8)
0x4320|                        18 2e 00 00 00 00 00 00|        ........|      offset: 0x2e18 0x4328-0x4330 (8)
0x4330|90 01 00 00 00 00 00 00                        |........        |      size: 400 0x4330-0x4338 (8)
0x4330|                        05 00 00 00            |        ....    |      link: 5 0x4338-0x433c (4)
0x4330|                                    00 00 00 00|            ....|      info: 0 0x433c-0x4340 (4)
0x4340|08 00 00 00 00 00 00 00                        |........        |      addralign: 8 0x4340-0x4348 (8)
0x4340|                        10 00 00 00 00 00 00 00|        ........|      entsize: 16 0x4348-0x4350 (8)
      |                                               |                |    [19]{}: section_header 0x2fa8-0x4390 (5096)
0x2fa0|                        18 3e 00 00 00 00 00 00|        .>......|      data: raw bits 0x2fa8-0x3000 (88)
0x2fb0|00 00 00 00 00 00 00 00 00 00 00 00 00 00 00 00|................|
*     |until 0x2fff.7 (88)                            |                |
0x4350|6e 00 00 00                                    |n...            |      name: ".got" (110) 0x4350-0x4354 (4)
0x4350|            01 00 00 00                        |    ....        |      type: "progbits" (0x1) (Information defined by the program) 0x4354-0x4358 (4)
      |                                               |                |      flags{}: 0x4358-0x4360 (8)
0x4350|                        03                     |        .       |        link_order: false 0x4358-0x4358.1 (0.1)
0x4350|                        03                     |        .       |        info_link: false 0x4358.1-0x4358.2 (0.1)
0x4350|                        03                     |        .       |        strings: false 0x4358.2-0x4358.3 (0.1)
0x4350|                        03                     |        .       |        merge: false 0x4358.3-0x4358.4 (0.1)
0x4350|                        03                     |        .       |        unused0: 0 0x4358.4-0x4358.5 (0.1)
0x4350|                        03                     |        .       |        execinstr: false 0x4358.5-0x4358.6 (0.1)
0x4350|                        03                     |        .       |        alloc: true 0x4358.6-0x4358.7 (0.1)
0x4350|                        03                     |        .       |        write: true 0x4358.7-0x4359 (0.1)
0x4350|                           00                  |         .      |        tls: false 0x4359-0x4359.1 (0.1)
0x4350|                           00                  |         .      |        group: false 0x4359.1-0x4359.2 (0.1)
0x4350|                           00                  |         .      |        os_nonconforming: false 0x4359.2-0x4359.3 (0.1)
0x4350|                           00 00               |         ..     |        unused1: 0 0x4359.3-0x435a.4 (1.1)
0x4350|                              00 00            |          ..    |        os_specific: 0 0x435a.4-0x435b.4 (1)
0x4350|                                 00            |           .    |        processor_specific: 0 0x435b.4-0x435c (0.4)
0x4350|                                    00 00 00 00|            ....|        unused2: 0 0x435c-0x4360 (4)
0x4360|a8 3f 00 00 00 00 00 00                        |.?......        |      addr: 0x3fa8 0x4360-0x4368 (8)
0x4360|                        a8 2f 00 00 00 00 00 00|        ./......|      offset: 0x2fa8 0x4368-0x4370 (8)
0x4370|58 00 00 00 00 00 00 00                        |X.......        |      size: 88 0x4370-0x4378 (8)
0x4370|                        00 00 00 00            |        ....    |      link: 0 0x4378-0x437c (4)
0x4370|                                    00 00 00 00|            ....|      info: 0 0x437c-0x4380 (4)
0x4380|08 00 00 00 00 00 00 00                        |........        |      addralign: 8 0x4380-0x4388 (8)
0x4380|                        08 00 00 00 00 00 00 00|        ........|      entsize: 8 0x4388-0x4390 (8)
      |                                               |                |    [20]{}: section_header 0x3000-0x43d0 (5072)
0x3000|00 40 00 00 00 00 00 00                        |.@......        |      data: raw bits 0x3000-0x3008 (8)
0x4390|b6 00 00 00                                    |....            |      name: ".data" (182) 0x4390-0x4394 (4)
0x4390|            01 00 00 00                        |    ....        |      type: "progbits" (0x1) (Information defined by the program) 0x4394-0x4398 (4)
      |                                               |                |      flags{}: 0x4398-0x43a0 (8)
0x4390|                        03                     |        .       |        link_order: false 0x4398-0x4398.1 (0.1)
0x4390|                        03                     |        .       |        info_link: false 0x4398.1-0x4398.2 (0.1)
0x4390|                        03                     |        .       |        strings: false 0x4398.2-0x4398.3 (0.1)
0x4390|                        03                     |        .       |        merge: false 0x4398.3-0x4398.4 (0.1)
0x4390|                        03                     |        .       |        unused0: 0 0x4398.4-0x4398.5 (0.1)
0x4390|                        03                     |        .       |        execinstr: false 0x4398.5-0x4398.6 (0.1)
0x4390|                        03                     |        .       |        alloc: true 0x4398.6-0x4398.7 (0.1)
0x4390|                        03                     |        .       |        write: true 0x4398.7-0x4399 (0.1)
0x4390|                           00                  |         .      |        tls: false 0x4399-0x4399.1 (0.1)
0x4390|                           00                  |         .      |        group: false 0x4399.1-0x4399.2 (0.1)
0x4390|                           00                  |         .      |        os_nonconforming: false 0x4399.2-0x4399.3 (0.1)
0x4390|                           00 00               |         ..     |        unused1: 0 0x4399.3-0x439a.4 (1.1)
0x4390|                              00 00            |          ..    |        os_specific: 0 0x439a.4-0x439b.4 (1)
0x4390|                                 00            |           .    |        processor_specific: 0 0x439b.4-0x439c (0.4)
0x4390|                                    00 00 00 00|            ....|        unused2: 0 0x439c-0x43a0 (4)
0x43a0|00 40 00 00 00 00 00 00                        |.@......        |      addr: 0x4000 0x43a0-0x43a8 (8)
0x43a0|                        00 30 00 00 00 00 00 00|        .0......|      offset: 0x3000 0x43a8-0x43b0 (8)
0x43b0|08 00 00 00 00 00 00 00                        |........        |      size: 8 0x43b0-0x43b8 (8)
0x43b0|                        00 00 00 00            |        ....    |      link: 0 0x43b8-0x43bc (4)
0x43b0|                                    00 00 00 00|            ....|      info: 0 0x43bc-0x43c0 (4)
0x43c0|08 00 00 00 00 00 00 00                        |........        |      addralign: 8 0x43c0-0x43c8 (8)
0x43c0|                        00 00 00 00 00 00 00 00|        ........|      entsize: 0 0x43c8-0x43d0 (8)
      |                                               |                |    [21]{}: section_header 0x43d0-0x4410 (64)
0x43d0|bc 00 00 00                                    |....            |      name: ".bss" (188) 0x43d0-0x43d4 (4)
0x43d0|            08 00 00 00                        |    ....        |      type: "nobits" (0x8) (No space in the file) 0x43d4-0x43d8 (4)
      |                                               |                |      flags{}: 0x43d8-0x43e0 (8)
0x43d0|                        03                     |        .       |        link_order: false 0x43d8-0x43d8.1 (0.1)
0x43d0|                        03                     |        .       |        info_link: false 0x43d8.1-0x43d8.2 (0.1)
0x43d0|                        03                     |        .       |        strings: false 0x43d8.2-0x43d8.3 (0.1)
0x43d0|                        03                     |        .       |        merge: false 0x43d8.3-0x43d8.4 (0.1)
0x43d0|                        03                     |        .       |        unused0: 0 0x43d8.4-0x43d8.5 (0.1)
0x43d0|                        03                     |        .       |        execinstr: false 0x43d8.5-0x43d8.6 (0.1)
0x43d0|                        03                     |        .       |        alloc: true 0x43d8.6-0x43d8.7 (0.1)
0x43d0|                        03                     |        .       |        write: true 0x43d8.7-0x43d9 (0.1)
0x43d0|                           00                  |         .      |        tls: false 0x43d9-0x43d9.1 (0.1)
0x43d0|                           00                  |         .      |        group: false 0x43d9.1-0x43d9.2 (0.1)
0x43d0|                           00                  |         .      |        os_nonconforming: false 0x43d9.2-0x43d9.3 (0.1)
0x43d0|                           00 00               |         ..     |        unused1: 0 0x43d9.3-0x43da.4 (1.1)
0x43d0|                              00 00            |          ..    |        os_specific: 0 0x43da.4-0x43db.4 (1)
0x43d0|                                 00            |           .    |        processor_specific: 0 0x43db.4-0x43dc (0.4)
0x43d0|                                    00 00 00 00|            ....|        unused2: 0 0x43dc-0x43e0 (4)
0x43e0|20 40 00 00 00 00 00 00                        | @......        |      addr: 0x4020 0x43e0-0x43e8 (8)
0x43e0|                        08 30 00 00 00 00 00 00|        .0......|      offset: 0x3008 0x43e8-0x43f0 (8)
0x43f0|50 00 00 00 00 00 00 00                        |P.......        |      size: 80 0x43f0-0x43f8 (8)
0x43f0|                        00 00 00 00            |        ....    |      link: 0 0x43f8-0x43fc (4)
0x43f0|                                    00 00 00 00|            ....|      info: 0 0x43fc-0x4400 (4)
0x4400|20 00 00 00 00 00 00 00                        | .......        |      addralign: 32 0x4400-0x4408 (8)
0x4400|                        00 00 00 00 00 00 00 00|        ........|      entsize: 0 0x4408-0x4410 (8)
      |                                               |                |    [22]{}: section_header 0x3008-0x4450 (5192)
0x3000|                        47 43 43 3a 20 28 41 6c|        GCC: (Al|      data: raw bits 0x3008-0x3039 (49)
0x3010|70 69 6e 65 20 31 30 2e 33 2e 31 5f 67 69 74 32|pine 10.3.1_git2|
*     |until 0x3038.7 (49)                            |                |
0x4410|c1 00 00 00                                    |....            |      name: ".comment" (193) 0x4410-0x4414 (4)
0x4410|            01 00 00 00                        |    ....        |      type: "progbits" (0x1) (Information defined by the program) 0x4414-0x4418 (4)
      |                                               |                |      flags{}: 0x4418-0x4420 (8)
0x4410|                        30                     |        0       |        link_order: false 0x4418-0x4418.1 (0.1)
0x4410|                        30                     |        0       |        info_link: false 0x4418.1-0x4418.2 (0.1)
0x4410|                        30                     |        0       |        strings: true 0x4418.2-0x4418.3 (0.1)
0x4410|                        30                     |        0       |        merge: true 0x4418.3-0x4418.4 (0.1)
0x4410|                        30                     |        0       |        unused0: 0 0x4418.4-0x4418.5 (0.1)
0x4410|                        30                     |        0       |        execinstr: false 0x4418.5-0x4418.6 (0.1)
0x4410|                        30                     |        0       |        alloc: false 0x4418.6-0x4418.7 (0.1)
0x4410|                        30                     |        0       |        write: false 0x4418.7-0x4419 (0.1)
0x4410|                           00                  |         .      |        tls: false 0x4419-0x4419.1 (0.1)
0x4410|                           00                  |         .      |        group: false 0x4419.1-0x4419.2 (0.1)
0x4410|                           00                  |         .      |        os_nonconforming: false 0x4419.2-0x4419.3 (0.1)
0x4410|                           00 00               |         ..     |        unused1: 0 0x4419.3-0x441a.4 (1.1)
0x4410|                              00 00            |          ..    |        os_specific: 0 0x441a.4-0x441b.4 (1)
0x4410|                                 00            |           .    |        processor_specific: 0 0x441b.4-0x441c (0.4)
0x4410|                                    00 00 00 00|            ....|        unused2: 0 0x441c-0x4420 (4)
0x4420|00 00 00 00 00 00 00 00                        |........        |      addr: 0x0 0x4420-0x4428 (8)
0x4420|                        08 30 00 00 00 00 00 00|        .0......|      offset: 0x3008 0x4428-0x4430 (8)
0x4430|31 00 00 00 00 00 00 00                        |1.......        |      size: 49 0x4430-0x4438 (8)
0x4430|                        00 00 00 00            |        ....    |      link: 0 0x4438-0x443c (4)
0x4430|                                    00 00 00 00|            ....|      info: 0 0x443c-0x4440 (4)
0x4440|01 00 00 00 00 00 00 00                        |........        |      addralign: 1 0x4440-0x4448 (8)
0x4440|                        01 00 00 00 00 00 00 00|        ........|      entsize: 1 0x4448-0x4450 (8)
      |                                               |                |    [23]{}: section_header 0x3040-0x4490 (5200)
0x3040|2c 00 00 00 02 00 00 00 00 00 08 00 00 00 00 00|,...............|      data: raw bits 0x3040-0x30f0 (176)
*     |until 0x30ef.7 (176)                           |                |
0x4450|ca 00 00 00                                    |....            |      name: ".debug_aranges" (202) 0x4450-0x4454 (4)
0x4450|            01 00 00 00                        |    ....        |      type: "progbits" (0x1) (Information defined by the program) 0x4454-0x4458 (4)
      |                                               |                |      flags{}: 0x4458-0x4460 (8)
0x4450|                        00                     |        .       |        link_order: false 0x4458-0x4458.1 (0.1)
0x4450|                        00                     |        .       |        info_link: false 0x4458.1-0x4458.2 (0.1)
0x4450|                        00                     |        .       |        strings: false 0x4458.2-0x4458.3 (0.1)
0x4450|                        00                     |        .       |        merge: false 0x4458.3-0x4458.4 (0.1)
0x4450|                        00                     |        .       |        unused0: 0 0x4458.4-0x4458.5 (0.1)
0x4450|                        00                     |        .       |        execinstr: false 0x4458.5-0x4458.6 (0.1)
0x4450|                        00                     |        .       |        alloc: false 0x4458.6-0x4458.7 (0.1)
0x4450|                        00                     |        .       |        write: false 0x4458.7-0x4459 (0.1)
0x4450|                           00                  |         .      |        tls: false 0x4459-0x4459.1 (0.1)
0x4450|                           00                  |         .      |        group: false 0x4459.1-0x4459.2 (0.1)
0x4450|                           00                  |         .      |        os_nonconforming: false 0x4459.2-0x4459.3 (0.1)
0x4450|                           00 00               |         ..     |        unused1: 0 0x4459.3-0x445a.4 (1.1)
0x4450|                              00 00            |          ..    |        os_specific: 0 0x445a.4-0x445b.4 (1)
0x4450|                                 00            |           .    |        processor_specific: 0 0x445b.4-0x445c (0.4)
0x4450|                                    00 00 00 00|            ....|        unused2: 0 0x445c-0x4460 (4)
0x4460|00 00 00 00 00 00 00 00                        |........        |      addr: 0x0 0x4460-0x4468 (8)
0x4460|                        40 30 00 00 00 00 00 00|        @0......|      offset: 0x3040 0x4468-0x4470 (8)
0x4470|b0 00 00 00 00 00 00 00                        |........        |      size: 176 0x4470-0x4478 (8)
0x4470|                        00 00 00 00            |        ....    |      link: 0 0x4478-0x447c (4)
0x4470|                                    00 00 00 00|            ....|      info: 0 0x447c-0x4480 (4)
0x4480|10 00 00 00 00 00 00 00                        |........        |      addralign: 16 0x4480-0x4488 (8)
0x4480|                        00 00 00 00 00 00 00 00|        ........|      entsize: 0 0x4488-0x4490 (8)
      |                                               |                |    [24]{}: section_header 0x30f0-0x44d0 (5088)
0x30f0|f1 00 00 00 04 00 00 00 00 00 08 01 58 00 00 00|............X...|      data: raw bits 0x30f0-0x3229 (313)
*     |until 0x3228.7 (313)                           |                |
0x4490|d9 00 00 00                                    |....            |      name: ".debug_info" (217) 0x4490-0x4494 (4)
0x4490|            01 00 00 00                        |    ....        |      type: "progbits" (0x1) (Information defined by the program) 0x4494-0x4498 (4)
      |                                               |                |      flags{}: 0x4498-0x44a0 (8)
0x4490|                        00                     |        .       |        link_order: false 0x4498-0x4498.1 (0.1)
0x4490|                        00                     |        .       |        info_link: false 0x4498.1-0x4498.2 (0.1)
0x4490|                        00                     |        .       |        strings: false 0x4498.2-0x4498.3 (0.1)
0x4490|                        00                     |        .       |        merge: false 0x4498.3-0x4498.4 (0.1)
0x4490|                        00                     |        .       |        unused0: 0 0x4498.4-0x4498.5 (0.1)
0x4490|                        00                     |        .       |        execinstr: false 0x4498.5-0x4498.6 (0.1)
0x4490|                        00                     |        .       |        alloc: false 0x4498.6-0x4498.7 (0.1)
0x4490|                        00                     |        .       |        write: false 0x4498.7-0x4499 (0.1)
0x4490|                           00                  |         .      |        tls: false 0x4499-0x4499.1 (0.1)
0x4490|                           00                  |         .      |        group: false 0x4499.1-0x4499.2 (0.1)
0x4490|                           00                  |         .      |        os_nonconforming: false 0x4499.2-0x4499.3 (0.1)
0x4490|                           00 00               |         ..     |        unused1: 0 0x4499.3-0x449a.4 (1.1)
0x4490|                              00 00            |          ..    |        os_specific: 0 0x449a.4-0x449b.4 (1)
0x4490|                                 00            |           .    |        processor_specific: 0 0x449b.4-0x449c (0.4)
0x4490|                                    00 00 00 00|            ....|        unused2: 0 0x449c-0x44a0 (4)
0x44a0|00 00 00 00 00 00 00 00                        |........        |      addr: 0x0 0x44a0-0x44a8 (8)
0x44a0|                        f0 30 00 00 00 00 00 00|        .0......|      offset: 0x30f0 0x44a8-0x44b0 (8)
0x44b0|39 01 00 00 00 00 00 00                        |9.......        |      size: 313 0x44b0-0x44b8 (8)
0x44b0|                        00 00 00 00            |        ....    |      link: 0 0x44b8-0x44bc (4)
0x44b0|                                    00 00 00 00|            ....|      info: 0 0x44bc-0x44c0 (4)
0x44c0|01 00 00 00 00 00 00 00                        |........        |      addralign: 1 0x44c0-0x44c8 (8)
0x44c0|                        00 00 00 00 00 00 00 00|        ........|      entsize: 0 0x44c8-0x44d0 (8)
      |                                               |                |    [25]{}: section_header 0x3229-0x4510 (4839)
0x3220|                           01 11 01 25 0e 13 0b|         ...%...|      data: raw bits 0x3229-0x32f1 (200)
0x3230|03 0e 1b 0e 55 17 11 01 10 17 00 00 02 24 00 0b|....U........$..|
*     |until 0x32f0.7 (200)                           |                |
0x44d0|e5 00 00 00                                    |....            |      name: ".debug_abbrev" (229) 0x44d0-0x44d4 (4)
0x44d0|            01 00 00 00                        |    ....        |      type: "progbits" (0x1) (Information defined by the program) 0x44d4-0x44d8 (4)
      |                                               |                |      flags{}: 0x44d8-0x44e0 (8)
0x44d0|                        00                     |        .       |        link_order: false 0x44d8-0x44d8.1 (0.1)
0x44d0|                        00                     |        .       |        info_link: false 0x44d8.1-0x44d8.2 (0.1)
0x44d0|                        00                     |        .       |        strings: false 0x44d8.2-0x44d8.3 (0.1)
0x44d0|                        00                     |        .       |        merge: false 0x44d8.3-0x44d8.4 (0.1)
0x44d0|                        00                     |        .       |        unused0: 0 0x44d8.4-0x44d8.5 (0.1)
0x44d0|                        00                     |        .       |        execinstr: false 0x44d8.5-0x44d8.6 (0.1)
0x44d0|                        00                     |        .       |        alloc: false 0x44d8.6-0x44d8.7 (0.1)
0x44d0|                        00                     |        .       |        write: false 0x44d8.7-0x44d9 (0.1)
0x44d0|                           00                  |         .      |        tls: false 0x44d9-0x44d9.1 (0.1)
0x44d0|                           00                  |         .      |        group: false 0x44d9.1-0x44d9.2 (0.1)
0x44d0|                           00                  |         .      |        os_nonconforming: false 0x44d9.2-0x44d9.3 (0.1)
0x44d0|                           00 00               |         ..     |        unused1: 0 0x44d9.3-0x44da.4 (1.1)
0x44d0|                              00 00            |          ..    |        os_specific: 0 0x44da.4-0x44db.4 (1)
0x44d0|                                 00            |           .    |        processor_specific: 0 0x44db.4-0x44dc (0.4)
0x44d0|                                    00 00 00 00|            ....|        unused2: 0 0x44dc-0x44e0 (4)
0x44e0|00 00 00 00 00 00 00 00                        |........        |      addr: 0x0 0x44e0-0x44e8 (8)
0x44e0|                        29 32 00 00 00 00 00 00|        )2......|      offset: 0x3229 0x44e8-0x44f0 (8)
0x44f0|c8 00 00 00 00 00 00 00                        |........        |      size: 200 0x44f0-0x44f8 (8)
0x44f0|                        00 00 00 00            |        ....    |      link: 0 0x44f8-0x44fc (4)
0x44f0|                                    00 00 00 00|            ....|      info: 0 0x44fc-0x4500 (4)
0x4500|01 00 00 00 00 00 00 00                        |........        |      addralign: 1 0x4500-0x4508 (8)
0x4500|                        00 00 00 00 00 00 00 00|        ........|      entsize: 0 0x4508-0x4510 (8)
      |                                               |                |    [26]{}: section_header 0x32f1-0x4550 (4703)
0x32f0|   4c 00 00 00 03 00 21 00 00 00 01 01 fb 0e 0d| L.....!........|      data: raw bits 0x32f1-0x33ed (252)
0x3300|00 01 01 01 01 00 00 00 01 00 00 01 63 72 74 00|............crt.|
*     |until 0x33ec.7 (252)                           |                |
0x4510|f3 00 00 00                                    |....            |      name: ".debug_line" (243) 0x4510-0x4514 (4)
0x4510|            01 00 00 00                        |    ....        |      type: "progbits" (0x1) (Information defined by the program) 0x4514-0x4518 (4)
      |                                               |                |      flags{}: 0x4518-0x4520 (8)
0x4510|                        00                     |        .       |        link_order: false 0x4518-0x4518.1 (0.1)
0x4510|                        00                     |        .       |        info_link: false 0x4518.1-0x4518.2 (0.1)
0x4510|                        00                     |        .       |        strings: false 0x4518.2-0x4518.3 (0.1)
0x4510|                        00                     |        .       |        merge: false 0x4518.3-0x4518.4 (0.1)
0x4510|                        00                     |        .       |        unused0: 0 0x4518.4-0x4518.5 (0.1)
0x4510|                        00                     |        .       |        execinstr: false 0x4518.5-0x4518.6 (0.1)
0x4510|                        00                     |        .       |        alloc: false 0x4518.6-0x4518.7 (0.1)
0x4510|                        00                     |        .       |        write: false 0x4518.7-0x4519 (0.1)
0x4510|                           00                  |         .      |        tls: false 0x4519-0x4519.1 (0.1)
0x4510|                           00                  |         .      |        group: false 0x4519.1-0x4519.2 (0.1)
0x4510|                           00                  |         .      |        os_nonconforming: false 0x4519.2-0x4519.3 (0.1)
0x4510|                           00 00               |         ..     |        unused1: 0 0x4519.3-0x451a.4 (1.1)
0x4510|                              00 00            |          ..    |        os_specific: 0 0x451a.4-0x451b.4 (1)
0x4510|                                 00            |           .    |        processor_specific: 0 0x451b.4-0x451c (0.4)
0x4510|                                    00 00 00 00|            ....|        unused2: 0 0x451c-0x4520 (4)
0x4520|00 00 00 00 00 00 00 00                        |........        |      addr: 0x0 0x4520-0x4528 (8)
0x4520|                        f1 32 00 00 00 00 00 00|        .2......|      offset: 0x32f1 0x4528-0x4530 (8)
0x4530|fc 00 00 00 00 00 00 00                        |........        |      size: 252 0x4530-0x4538 (8)
0x4530|                        00 00 00 00            |        ....    |      link: 0 0x4538-0x453c (4)
0x4530|                                    00 00 00 00|            ....|      info: 0 0x453c-0x4540 (4)
0x4540|01 00 00 00 00 00 00 00                        |........        |      addralign: 1 0x4540-0x4548 (8)
0x4540|                        00 00 00 00 00 00 00 00|        ........|      entsize: 0 0x4548-0x4550 (8)
      |                                               |                |    [27]{}: section_header 0x33f0-0x4590 (4512)
0x33f0|14 00 00 00 ff ff ff ff 01 00 01 78 10 0c 07 08|...........x....|      data: raw bits 0x33f0-0x3420 (48)
*     |until 0x341f.7 (48)                            |                |
0x4550|ff 00 00 00                                    |....            |      name: ".debug_frame" (255) 0x4550-0x4554 (4)
0x4550|            01 00 00 00                        |    ....        |      type: "progbits" (0x1) (Information defined by the program) 0x4554-0x4558 (4)
      |                                               |                |      flags{}: 0x4558-0x4560 (8)
0x4550|                        00                     |        .       |        link_order: false 0x4558-0x4558.1 (0.1)
0x4550|                        00                     |        .       |        info_link: false 0x4558.1-0x4558.2 (0.1)
0x4550|                        00                     |        .       |        strings: false 0x4558.2-0x4558.3 (0.1)
0x4550|                        00                     |        .       |        merge: false 0x4558.3-0x4558.4 (0.1)
0x4550|                        00                     |        .       |        unused0: 0 0x4558.4-0x4558.5 (0.1)
0x4550|                        00                     |        .       |        execinstr: false 0x4558.5-0x4558.6 (0.1)
0x4550|                        00                     |        .       |        alloc: false 0x4558.6-0x4558.7 (0.1)
0x4550|                        00                     |        .       |        write: false 0x4558.7-0x4559 (0.1)
0x4550|                           00                  |         .      |        tls: false 0x4559-0x4559.1 (0.1)
0x4550|                           00                  |         .      |        group: false 0x4559.1-0x4559.2 (0.1)
0x4550|                           00                  |         .      |        os_nonconforming: false 0x4559.2-0x4559.3 (0.1)
0x4550|                           00 00               |         ..     |        unused1: 0 0x4559.3-0x455a.4 (1.1)
0x4550|                              00 00            |          ..    |        os_specific: 0 0x455a.4-0x455b.4 (1)
0x4550|                                 00            |           .    |        processor_specific: 0 0x455b.4-0x455c (0.4)
0x4550|                                    00 00 00 00|            ....|        unused2: 0 0x455c-0x4560 (4)
0x4560|00 00 00 00 00 00 00 00                        |........        |      addr: 0x0 0x4560-0x4568 (8)
0x4560|                        f0 33 00 00 00 00 00 00|        .3......|      offset: 0x33f0 0x4568-0x4570 (8)
0x4570|30 00 00 00 00 00 00 00                        |0.......        |      size: 48 0x4570-0x4578 (8)
0x4570|                        00 00 00 00            |        ....    |      link: 0 0x4578-0x457c (4)
0x4570|                                    00 00 00 00|            ....|      info: 0 0x457c-0x4580 (4)
0x4580|08 00 00 00 00 00 00 00                        |........        |      addralign: 8 0x4580-0x4588 (8)
0x4580|                        00 00 00 00 00 00 00 00|        ........|      entsize: 0 0x4588-0x4590 (8)
      |                                               |                |    [28]{}: section_header 0x3420-0x45d0 (4528)
0x3420|63 72 74 2f 53 63 72 74 31 2e 63 00 6c 6f 6e 67|crt/Scrt1.c.long|      data: raw bits 0x3420-0x35ee (462)
*     |until 0x35ed.7 (462)                           |                |
0x4590|0c 01 00 00                                    |....            |      name: ".debug_str" (268) 0x4590-0x4594 (4)
0x4590|            01 00 00 00                        |    ....        |      type: "progbits" (0x1) (Information defined by the program) 0x4594-0x4598 (4)
      |                                               |                |      flags{}: 0x4598-0x45a0 (8)
0x4590|                        30                     |        0       |        link_order: false 0x4598-0x4598.1 (0.1)
0x4590|                        30                     |        0       |        info_link: false 0x4598.1-0x4598.2 (0.1)
0x4590|                        30                     |        0       |        strings: true 0x4598.2-0x4598.3 (0.1)
0x4590|                        30                     |        0       |        merge: true 0x4598.3-0x4598.4 (0.1)
0x4590|                        30                     |        0       |        unused0: 0 0x4598.4-0x4598.5 (0.1)
0x4590|                        30                     |        0       |        execinstr: false 0x4598.5-0x4598.6 (0.1)
0x4590|                        30                     |        0       |        alloc: false 0x4598.6-0x4598.7 (0.1)
0x4590|                        30                     |        0       |        write: false 0x4598.7-0x4599 (0.1)
0x4590|                           00                  |         .      |        tls: false 0x4599-0x4599.1 (0.1)
0x4590|                           00                  |         .      |        group: false 0x4599.1-0x4599.2 (0.1)
0x4590|                           00                  |         .      |        os_nonconforming: false 0x4599.2-0x4599.3 (0.1)
0x4590|                           00 00               |         ..     |        unused1: 0 0x4599.3-0x459a.4 (1.1)
0x4590|                              00 00            |          ..    |        os_specific: 0 0x459a.4-0x459b.4 (1)
0x4590|                                 00            |           .    |        processor_specific: 0 0x459b.4-0x459c (0.4)
0x4590|                                    00 00 00 00|            ....|        unused2: 0 0x459c-0x45a0 (4)
0x45a0|00 00 00 00 00 00 00 00                        |........        |      addr: 0x0 0x45a0-0x45a8 (8)
0x45a0|                        20 34 00 00 00 00 00 00|         4......|      offset: 0x3420 0x45a8-0x45b0 (8)
0x45b0|ce 01 00 00 00 00 00 00                        |........        |      size: 462 0x45b0-0x45b8 (8)
0x45b0|                        00 00 00 00            |        ....    |      link: 0 0x45b8-0x45bc (4)
0x45b0|                                    00 00 00 00|            ....|      info: 0 0x45bc-0x45c0 (4)
0x45c0|01 00 00 00 00 00 00 00                        |........        |      addralign: 1 0x45c0-0x45c8 (8)
0x45c0|                        01 00 00 00 00 00 00 00|        ........|      entsize: 1 0x45c8-0x45d0 (8)
      |                                               |                |    [29]{}: section_header 0x35ee-0x4610 (4130)
0x35e0|                                          00 00|              ..|      data: raw bits 0x35ee-0x36d4 (230)
0x35f0|00 00 00 00 86 10 00 00 00 00 00 00 a5 10 00 00|................|
*     |until 0x36d3.7 (230)                           |                |
0x45d0|17 01 00 00                                    |....            |      name: ".debug_loc" (279) 0x45d0-0x45d4 (4)
0x45d0|            01 00 00 00                        |    ....        |      type: "progbits" (0x1) (Information defined by the program) 0x45d4-0x45d8 (4)
      |                                               |                |      flags{}: 0x45d8-0x45e0 (8)
0x45d0|                        00                     |        .       |        link_order: false 0x45d8-0x45d8.1 (0.1)
0x45d0|                        00                     |        .       |        info_link: false 0x45d8.1-0x45d8.2 (0.1)
0x45d0|                        00                     |        .       |        strings: false 0x45d8.2-0x45d8.3 (0.1)
0x45d0|                        00                     |        .       |        merge: false 0x45d8.3-0x45d8.4 (0.1)
0x45d0|                        00                     |        .       |        unused0: 0 0x45d8.4-0x45d8.5 (0.1)
0x45d0|                        00                     |        .       |        execinstr: false 0x45d8.5-0x45d8.6 (0.1)
0x45d0|                        00                     |        .       |        alloc: false 0x45d8.6-0x45d8.7 (0.1)
0x45d0|                        00                     |        .       |        write: false 0x45d8.7-0x45d9 (0.1)
0x45d0|                           00                  |         .      |        tls: false 0x45d9-0x45d9.1 (0.1)
0x45d0|                           00                  |         .      |        group: false 0x45d9.1-0x45d9.2 (0.1)
0x45d0|                           00                  |         .      |        os_nonconforming: false 0x45d9.2-0x45d9.3 (0.1)
0x45d0|                           00 00               |         ..     |        unused1: 0 0x45d9.3-0x45da.4 (1.1)
0x45d0|                              00 00            |          ..    |        os_specific: 0 0x45da.4-0x45db.4 (1)
0x45d0|                                 00            |           .    |        processor_specific: 0 0x45db.4-0x45dc (0.4)
0x45d0|                                    00 00 00 00|            ....|        unused2: 0 0x45dc-0x45e0 (4)
0x45e0|00 00 00 00 00 00 00 00                        |........        |      addr: 0x0 0x45e0-0x45e8 (8)
0x45e0|                        ee 35 00 00 00 00 00 00|        .5......|      offset: 0x35ee 0x45e8-0x45f0 (8)
0x45f0|e6 00 00 00 00 00 00 00                        |........        |      size: 230 0x45f0-0x45f8 (8)
0x45f0|                        00 00 00 00            |        ....    |      link: 0 0x45f8-0x45fc (4)
0x45f0|                                    00 00 00 00|            ....|      info: 0 0x45fc-0x4600 (4)
0x4600|01 00 00 00 00 00 00 00                        |........        |      addralign: 1 0x4600-0x4608 (8)
0x4600|                        00 00 00 00 00 00 00 00|        ........|      entsize: 0 0x4608-0x4610 (8)
      |                                               |                |    [30]{}: section_header 0x36e0-0x4650 (3952)
0x36e0|86 10 00 00 00 00 00 00 aa 10 00 00 00 00 00 00|................|      data: raw bits 0x36e0-0x3780 (160)
*     |until 0x377f.7 (160)                           |                |
0x4610|22 01 00 00                                    |"...            |      name: ".debug_ranges" (290) 0x4610-0x4614 (4)
0x4610|            01 00 00 00                        |    ....        |      type: "progbits" (0x1) (Information defined by the program) 0x4614-0x4618 (4)
      |                                               |                |      flags{}: 0x4618-0x4620 (8)
0x4610|                        00                     |        .       |        link_order: false 0x4618-0x4618.1 (0.1)
0x4610|                        00                     |        .       |        info_link: false 0x4618.1-0x4618.2 (0.1)
0x4610|                        00                     |        .       |        strings: false 0x4618.2-0x4618.3 (0.1)
0x4610|                        00                     |        .       |        merge: false 0x4618.3-0x4618.4 (0.1)
0x4610|                        00                     |        .       |        unused0: 0 0x4618.4-0x4618.5 (0.1)
0x4610|                        00                     |        .       |        execinstr: false 0x4618.5-0x4618.6 (0.1)
0x4610|                        00                     |        .       |        alloc: false 0x4618.6-0x4618.7 (0.1)
0x4610|                        00                     |        .       |        write: false 0x4618.7-0x4619 (0.1)
0x4610|                           00                  |         .      |        tls: false 0x4619-0x4619.1 (0.1)
0x4610|                           00                  |         .      |        group: false 0x4619.1-0x4619.2 (0.1)
0x4610|                           00                  |         .      |        os_nonconforming: false 0x4619.2-0x4619.3 (0.1)
0x4610|                           00 00               |         ..     |        unused1: 0 0x4619.3-0x461a.4 (1.1)
0x4610|                              00 00            |          ..    |        os_specific: 0 0x461a.4-0x461b.4 (1)
0x4610|                                 00            |           .    |        processor_specific: 0 0x461b.4-0x461c (0.4)
0x4610|                                    00 00 00 00|            ....|        unused2: 0 0x461c-0x4620 (4)
0x4620|00 00 00 00 00 00 00 00                        |........        |      addr: 0x0 0x4620-0x4628 (8)
0x4620|                        e0 36 00 00 00 00 00 00|        .6......|      offset: 0x36e0 0x4628-0x4630 (8)
0x4630|a0 00 00 00 00 00 00 00                        |........        |      size: 160 0x4630-0x4638 (8)
0x4630|                        00 00 00 00            |        ....    |      link: 0 0x4638-0x463c (4)
0x4630|                                    00 00 00 00|            ....|      info: 0 0x463c-0x4640 (4)
0x4640|10 00 00 00 00 00 00 00                        |........        |      addralign: 16 0x4640-0x4648 (8)
0x4640|                        00 00 00 00 00 00 00 00|        ........|      entsize: 0 0x4648-0x4650 (8)
      |                                               |                |    [31]{}: section_header 0x3780-0x4690 (3856)
      |                                               |                |      symbol_table[0:42]: 0x3780-0x3b70 (1008)
      |                                               |                |        [0]{}: symbol 0x3780-0x3798 (24)
0x3780|00 00 00 00                                    |....            |          name: "" (0) 0x3780-0x3784 (4)
0x3780|            00                                 |    .           |          bind: "local" (0) 0x3784-0x3784.4 (0.4)
0x3780|            00                                 |    .           |          type: "notype" (0) 0x3784.4-0x3785 (0.4)
0x3780|               00                              |     .          |          other_unused: 0 0x3785-0x3785.6 (0.6)
0x3780|               00                              |     .          |          visibility: "default" (0) 0x3785.6-0x3786 (0.2)
0x3780|                  00 00                        |      ..        |          shndx: 0 0x3786-0x3788 (2)
0x3780|                        00 00 00 00 00 00 00 00|        ........|          value: 0 0x3788-0x3790 (8)
0x3790|00 00 00 00 00 00 00 00                        |........        |          size: 0 0x3790-0x3798 (8)
      |                                               |                |        [1]{}: symbol 0x3798-0x37b0 (24)
0x3790|                        01 00 00 00            |        ....    |          name: "Scrt1.c" (1) 0x3798-0x379c (4)
0x3790|                                    04         |            .   |          bind: "local" (0) 0x379c-0x379c.4 (0.4)
0x3790|                                    04         |            .   |          type: "file" (4) 0x379c.4-0x379d (0.4)
0x3790|                                       00      |             .  |          other_unused: 0 0x379d-0x379d.6 (0.6)
0x3790|                                       00      |             .  |          visibility: "default" (0) 0x379d.6-0x379e (0.2)
0x3790|                                          f1 ff|              ..|          shndx: 65521 0x379e-0x37a0 (2)
0x37a0|00 00 00 00 00 00 00 00                        |........        |          value: 0 0x37a0-0x37a8 (8)
0x37a0|                        00 00 00 00 00 00 00 00|        ........|          size: 0 0x37a8-0x37b0 (8)
      |                                               |                |        [2]{}: symbol 0x37b0-0x37c8 (24)
0x37b0|09 00 00 00                                    |....            |          name: "crtstuff.c" (9) 0x37b0-0x37b4 (4)
0x37b0|            04                                 |    .           |          bind: "local" (0) 0x37b4-0x37b4.4 (0.4)
0x37b0|            04                                 |    .           |          type: "file" (4) 0x37b4.4-0x37b5 (0.4)
0x37b0|               00                              |     .          |          other_unused: 0 0x37b5-0x37b5.6 (0.6)
0x37b0|               00                              |     .          |          visibility: "default" (0) 0x37b5.6-0x37b6 (0.2)
0x37b0|                  f1 ff                        |      ..        |          shndx: 65521 0x37b6-0x37b8 (2)
0x37b0|                        00 00 00 00 00 00 00 00|        ........|          value: 0 0x37b8-0x37c0 (8)
0x37c0|00 00 00 00 00 00 00 00                        |........        |          size: 0 0x37c0-0x37c8 (8)
      |                                               |                |        [3]{}: symbol 0x37c8-0x37e0 (24)
0x37c0|                        14 00 00 00            |        ....    |          name: "__CTOR_LIST__" (20) 0x37c8-0x37cc (4)
0x37c0|                                    01         |            .   |          bind: "local" (0) 0x37cc-0x37cc.4 (0.4)
0x37c0|                                    01         |            .   |          type: "object" (1) 0x37cc.4-0x37cd (0.4)
0x37c0|                                       00      |             .  |          other_unused: 0 0x37cd-0x37cd.6 (0.6)
0x37c0|                                       00      |             .  |          visibility: "default" (0) 0x37cd.6-0x37ce (0.2)
0x37c0|                                          10 00|              ..|          shndx: 16 0x37ce-0x37d0 (2)
0x37d0|f8 3d 00 00 00 00 00 00                        |.=......        |          value: 15864 0x37d0-0x37d8 (8)
0x37d0|                        00 00 00 00 00 00 00 00|        ........|          size: 0 0x37d8-0x37e0 (8)
      |                                               |                |        [4]{}: symbol 0x37e0-0x37f8 (24)
0x37e0|22 00 00 00                                    |"...            |          name: "__DTOR_LIST__" (34) 0x37e0-0x37e4 (4)
0x37e0|            01                                 |    .           |          bind: "local" (0) 0x37e4-0x37e4.4 (0.4)
0x37e0|            01                                 |    .           |          type: "object" (1) 0x37e4.4-0x37e5 (0.4)
0x37e0|               00                              |     .          |          other_unused: 0 0x37e5-0x37e5.6 (0.6)
0x37e0|               00                              |     .          |          visibility: "default" (0) 0x37e5.6-0x37e6 (0.2)
0x37e0|                  11 00                        |      ..        |          shndx: 17 0x37e6-0x37e8 (2)
0x37e0|                        08 3e 00 00 00 00 00 00|        .>......|          value: 15880 0x37e8-0x37f0 (8)
0x37f0|00 00 00 00 00 00 00 00                        |........        |          size: 0 0x37f0-0x37f8 (8)
      |                                               |                |        [5]{}: symbol 0x37f8-0x3810 (24)
0x37f0|                        30 00 00 00            |        0...    |          name: "__EH_FRAME_BEGIN__" (48) 0x37f8-0x37fc (4)
0x37f0|                                    01         |            .   |          bind: "local" (0) 0x37fc-0x37fc.4 (0.4)
0x37f0|                                    01         |            .   |          type: "object" (1) 0x37fc.4-0x37fd (0.4)
0x37f0|                                       00      |             .  |          other_unused: 0 0x37fd-0x37fd.6 (0.6)
0x37f0|                                       00      |             .  |          visibility: "default" (0) 0x37fd.6-0x37fe (0.2)
0x37f0|                                          0f 00|              ..|          shndx: 15 0x37fe-0x3800 (2)
0x3800|88 20 00 00 00 00 00 00                        |. ......        |          value: 8328 0x3800-0x3808 (8)
0x3800|                        00 00 00 00 00 00 00 00|        ........|          size: 0 0x3808-0x3810 (8)
      |                                               |                |        [6]{}: symbol 0x3810-0x3828 (24)
0x3810|43 00 00 00                                    |C...            |          name: "deregister_tm_clones" (67) 0x3810-0x3814 (4)
0x3810|            02                                 |    .           |          bind: "local" (0) 0x3814-0x3814.4 (0.4)
0x3810|            02                                 |    .           |          type: "func" (2) 0x3814.4-0x3815 (0.4)
0x3810|               00                              |     .          |          other_unused: 0 0x3815-0x3815.6 (0.6)
0x3810|               00                              |     .          |          visibility: "default" (0) 0x3815.6-0x3816 (0.2)
0x3810|                  0b 00                        |      ..        |          shndx: 11 0x3816-0x3818 (2)
0x3810|                        b0 10 00 00 00 00 00 00|        ........|          value: 4272 0x3818-0x3820 (8)
0x3820|00 00 00 00 00 00 00 00                        |........        |          size: 0 0x3820-0x3828 (8)
      |                                               |                |        [7]{}: symbol 0x3828-0x3840 (24)
0x3820|                        45 00 00 00            |        E...    |          name: "register_tm_clones" (69) 0x3828-0x382c (4)
0x3820|                                    02         |            .   |          bind: "local" (0) 0x382c-0x382c.4 (0.4)
0x3820|                                    02         |            .   |          type: "func" (2) 0x382c.4-0x382d (0.4)
0x3820|                                       00      |             .  |          other_unused: 0 0x382d-0x382d.6 (0.6)
0x3820|                                       00      |             .  |          visibility: "default" (0) 0x382d.6-0x382e (0.2)
0x3820|                                          0b 00|              ..|          shndx: 11 0x382e-0x3830 (2)
0x3830|e0 10 00 00 00 00 00 00                        |........        |          value: 4320 0x3830-0x3838 (8)
0x3830|                        00 00 00 00 00 00 00 00|        ........|          size: 0 0x3838-0x3840 (8)
      |                                               |                |        [8]{}: symbol 0x3840-0x3858 (24)
0x3840|58 00 00 00                                    |X...            |          name: "__do_global_dtors_aux" (88) 0x3840-0x3844 (4)
0x3840|            02                                 |    .           |          bind: "local" (0) 0x3844-0x3844.4 (0.4)
0x3840|            02                                 |    .           |          type: "func" (2) 0x3844.4-0x3845 (0.4)
0x3840|               00                              |     .          |          other_unused: 0 0x3845-0x3845.6 (0.6)
0x3840|               00                              |     .          |          visibility: "default" (0) 0x3845.6-0x3846 (0.2)
0x3840|                  0b 00                        |      ..        |          shndx: 11 0x3846-0x3848 (2)
0x3840|                        20 11 00 00 00 00 00 00|         .......|          value: 4384 0x3848-0x3850 (8)
0x3850|00 00 00 00 00 00 00 00                        |........        |          size: 0 0x3850-0x3858 (8)
      |                                               |                |        [9]{}: symbol 0x3858-0x3870 (24)
0x3850|                        6e 00 00 00            |        n...    |          name: "completed.2" (110) 0x3858-0x385c (4)
0x3850|                                    01         |            .   |          bind: "local" (0) 0x385c-0x385c.4 (0.4)
0x3850|                                    01         |            .   |          type: "object" (1) 0x385c.4-0x385d (0.4)
0x3850|                                       00      |             .  |          other_unused: 0 0x385d-0x385d.6 (0.6)
0x3850|                                       00      |             .  |          visibility: "default" (0) 0x385d.6-0x385e (0.2)
0x3850|                                          15 00|              ..|          shndx: 21 0x385e-0x3860 (2)
0x3860|20 40 00 00 00 00 00 00                        | @......        |          value: 16416 0x3860-0x3868 (8)
0x3860|                        01 00 00 00 00 00 00 00|        ........|          size: 1 0x3868-0x3870 (8)
      |                                               |                |        [10]{}: symbol 0x3870-0x3888 (24)
0x3870|7a 00 00 00                                    |z...            |          name: "dtor_idx.1" (122) 0x3870-0x3874 (4)
0x3870|            01                                 |    .           |          bind: "local" (0) 0x3874-0x3874.4 (0.4)
0x3870|            01                                 |    .           |          type: "object" (1) 0x3874.4-0x3875 (0.4)
0x3870|               00                              |     .          |          other_unused: 0 0x3875-0x3875.6 (0.6)
0x3870|               00                              |     .          |          visibility: "default" (0) 0x3875.6-0x3876 (0.2)
0x3870|                  15 00                        |      ..        |          shndx: 21 0x3876-0x3878 (2)
0x3870|                        28 40 00 00 00 00 00 00|        (@......|          value: 16424 0x3878-0x3880 (8)
0x3880|08 00 00 00 00 00 00 00                        |........        |          size: 8 0x3880-0x3888 (8)
      |                                               |                |        [11]{}: symbol 0x3888-0x38a0 (24)
0x3880|                        85 00 00 00            |        ....    |          name: "frame_dummy" (133) 0x3888-0x388c (4)
0x3880|                                    02         |            .   |          bind: "local" (0) 0x388c-0x388c.4 (0.4)
0x3880|                                    02         |            .   |          type: "func" (2) 0x388c.4-0x388d (0.4)
0x3880|                                       00      |             .  |          other_unused: 0 0x388d-0x388d.6 (0.6)
0x3880|                                       00      |             .  |          visibility: "default" (0) 0x388d.6-0x388e (0.2)
0x3880|                                          0b 00|              ..|          shndx: 11 0x388e-0x3890 (2)
0x3890|d0 11 00 00 00 00 00 00                        |........        |          value: 4560 0x3890-0x3898 (8)
0x3890|                        00 00 00 00 00 00 00 00|        ........|          size: 0 0x3898-0x38a0 (8)
      |                                               |                |        [12]{}: symbol 0x38a0-0x38b8 (24)
0x38a0|91 00 00 00                                    |....            |          name: "object.0" (145) 0x38a0-0x38a4 (4)
0x38a0|            01                                 |    .           |          bind: "local" (0) 0x38a4-0x38a4.4 (0.4)
0x38a0|            01                                 |    .           |          type: "object" (1) 0x38a4.4-0x38a5 (0.4)
0x38a0|               00                              |     .          |          other_unused: 0 0x38a5-0x38a5.6 (0.6)
0x38a0|               00                              |     .          |          visibility: "default" (0) 0x38a5.6-0x38a6 (0.2)
0x38a0|                  15 00                        |      ..        |          shndx: 21 0x38a6-0x38a8 (2)
0x38a0|                        40 40 00 00 00 00 00 00|        @@......|          value: 16448 0x38a8-0x38b0 (8)
0x38b0|30 00 00 00 00 00 00 00                        |0.......        |          size: 48 0x38b0-0x38b8 (8)
      |                                               |                |        [13]{}: symbol 0x38b8-0x38d0 (24)
0x38b0|                        09 00 00 00            |        ....    |          name: "crtstuff.c" (9) 0x38b8-0x38bc (4)
0x38b0|                                    04         |            .   |          bind: "local" (0) 0x38bc-0x38bc.4 (0.4)
0x38b0|                                    04         |            .   |          type: "file" (4) 0x38bc.4-0x38bd (0.4)
0x38b0|                                       00      |             .  |          other_unused: 0 0x38bd-0x38bd.6 (0.6)
0x38b0|                                       00      |             .  |          visibility: "default" (0) 0x38bd.6-0x38be (0.2)
0x38b0|                                          f1 ff|              ..|          shndx: 65521 0x38be-0x38c0 (2)
0x38c0|00 00 00 00 00 00 00 00                        |........        |          value: 0 0x38c0-0x38c8 (8)
0x38c0|                        00 00 00 00 00 00 00 00|        ........|          size: 0 0x38c8-0x38d0 (8)
      |                                               |                |        [14]{}: symbol 0x38d0-0x38e8 (24)
0x38d0|9a 00 00 00                                    |....            |          name: "__CTOR_END__" (154) 0x38d0-0x38d4 (4)
0x38d0|            01                                 |    .           |          bind: "local" (0) 0x38d4-0x38d4.4 (0.4)
0x38d0|            01                                 |    .           |          type: "object" (1) 0x38d4.4-0x38d5 (0.4)
0x38d0|               00                              |     .          |          other_unused: 0 0x38d5-0x38d5.6 (0.6)
0x38d0|               00                              |     .          |          visibility: "default" (0) 0x38d5.6-0x38d6 (0.2)
0x38d0|                  10 00                        |      ..        |          shndx: 16 0x38d6-0x38d8 (2)
0x38d0|                        00 3e 00 00 00 00 00 00|        .>......|          value: 15872 0x38d8-0x38e0 (8)
0x38e0|00 00 00 00 00 00 00 00                        |........        |          size: 0 0x38e0-0x38e8 (8)
      |                                               |                |        [15]{}: symbol 0x38e8-0x3900 (24)
0x38e0|                        a7 00 00 00            |        ....    |          name: "__FRAME_END__" (167) 0x38e8-0x38ec (4)
0x38e0|                                    01         |            .   |          bind: "local" (0) 0x38ec-0x38ec.4 (0.4)
0x38e0|                                    01         |            .   |          type: "object" (1) 0x38ec.4-0x38ed (0.4)
0x38e0|                                       00      |             .  |          other_unused: 0 0x38ed-0x38ed.6 (0.6)
0x38e0|                                       00      |             .  |          visibility: "default" (0) 0x38ed.6-0x38ee (0.2)
0x38e0|                                          0f 00|              ..|          shndx: 15 0x38ee-0x38f0 (2)
0x38f0|c8 20 00 00 00 00 00 00                        |. ......        |          value: 8392 0x38f0-0x38f8 (8)
0x38f0|                        00 00 00 00 00 00 00 00|        ........|          size: 0 0x38f8-0x3900 (8)
      |                                               |                |        [16]{}: symbol 0x3900-0x3918 (24)
0x3900|b5 00 00 00                                    |....            |          name: "__do_global_ctors_aux" (181) 0x3900-0x3904 (4)
0x3900|            02                                 |    .           |          bind: "local" (0) 0x3904-0x3904.4 (0.4)
0x3900|            02                                 |    .           |          type: "func" (2) 0x3904.4-0x3905 (0.4)
0x3900|               00                              |     .          |          other_unused: 0 0x3905-0x3905.6 (0.6)
0x3900|               00                              |     .          |          visibility: "default" (0) 0x3905.6-0x3906 (0.2)
0x3900|                  0b 00                        |      ..        |          shndx: 11 0x3906-0x3908 (2)
0x3900|                        40 12 00 00 00 00 00 00|        @.......|          value: 4672 0x3908-0x3910 (8)
0x3910|00 00 00 00 00 00 00 00                        |........        |          size: 0 0x3910-0x3918 (8)
      |                                               |                |        [17]{}: symbol 0x3918-0x3930 (24)
0x3910|                        cb 00 00 00            |        ....    |          name: "a.c" (203) 0x3918-0x391c (4)
0x3910|                                    04         |            .   |          bind: "local" (0) 0x391c-0x391c.4 (0.4)
0x3910|                                    04         |            .   |          type: "file" (4) 0x391c.4-0x391d (0.4)
0x3910|                                       00      |             .  |          other_unused: 0 0x391d-0x391d.6 (0.6)
0x3910|                                       00      |             .  |          visibility: "default" (0) 0x391d.6-0x391e (0.2)
0x3910|                                          f1 ff|              ..|          shndx: 65521 0x391e-0x3920 (2)
0x3920|00 00 00 00 00 00 00 00                        |........        |          value: 0 0x3920-0x3928 (8)
0x3920|                        00 00 00 00 00 00 00 00|        ........|          size: 0 0x3928-0x3930 (8)
      |                                               |                |        [18]{}: symbol 0x3930-0x3948 (24)
0x3930|00 00 00 00                                    |....            |          name: "" (0) 0x3930-0x3934 (4)
0x3930|            04                                 |    .           |          bind: "local" (0) 0x3934-0x3934.4 (0.4)
0x3930|            04                                 |    .           |          type: "file" (4) 0x3934.4-0x3935 (0.4)
0x3930|               00                              |     .          |          other_unused: 0 0x3935-0x3935.6 (0.6)
0x3930|               00                              |     .          |          visibility: "default" (0) 0x3935.6-0x3936 (0.2)
0x3930|                  f1 ff                        |      ..        |          shndx: 65521 0x3936-0x3938 (2)
0x3930|                        00 00 00 00 00 00 00 00|        ........|          value: 0 0x3938-0x3940 (8)
0x3940|00 00 00 00 00 00 00 00                        |........        |          size: 0 0x3940-0x3948 (8)
      |                                               |                |        [19]{}: symbol 0x3948-0x3960 (24)
0x3940|                        cf 00 00 00            |        ....    |          name: "_DYNAMIC" (207) 0x3948-0x394c (4)
0x3940|                                    01         |            .   |          bind: "local" (0) 0x394c-0x394c.4 (0.4)
0x3940|                                    01         |            .   |          type: "object" (1) 0x394c.4-0x394d (0.4)
0x3940|                                       00      |             .  |          other_unused: 0 0x394d-0x394d.6 (0.6)
0x3940|                                       00      |             .  |          visibility: "default" (0) 0x394d.6-0x394e (0.2)
0x3940|                                          12 00|              ..|          shndx: 18 0x394e-0x3950 (2)
0x3950|18 3e 00 00 00 00 00 00                        |.>......        |          value: 15896 0x3950-0x3958 (8)
0x3950|                        00 00 00 00 00 00 00 00|        ........|          size: 0 0x3958-0x3960 (8)
      |                                               |                |        [20]{}: symbol 0x3960-0x3978 (24)
0x3960|d8 00 00 00                                    |....            |          name: "__GNU_EH_FRAME_HDR" (216) 0x3960-0x3964 (4)
0x3960|            00                                 |    .           |          bind: "local" (0) 0x3964-0x3964.4 (0.4)
0x3960|            00                                 |    .           |          type: "notype" (0) 0x3964.4-0x3965 (0.4)
0x3960|               00                              |     .          |          other_unused: 0 0x3965-0x3965.6 (0.6)
0x3960|               00                              |     .          |          visibility: "default" (0) 0x3965.6-0x3966 (0.2)
0x3960|                  0e 00                        |      ..        |          shndx: 14 0x3966-0x3968 (2)
0x3960|                        04 20 00 00 00 00 00 00|        . ......|          value: 8196 0x3968-0x3970 (8)
0x3970|00 00 00 00 00 00 00 00                        |........        |          size: 0 0x3970-0x3978 (8)
      |                                               |                |        [21]{}: symbol 0x3978-0x3990 (24)
0x3970|                        eb 00 00 00            |        ....    |          name: "_GLOBAL_OFFSET_TABLE_" (235) 0x3978-0x397c (4)
0x3970|                                    01         |            .   |          bind: "local" (0) 0x397c-0x397c.4 (0.4)
0x3970|                                    01         |            .   |          type: "object" (1) 0x397c.4-0x397d (0.4)
0x3970|                                       00      |             .  |          other_unused: 0 0x397d-0x397d.6 (0.6)
0x3970|                                       00      |             .  |          visibility: "default" (0) 0x397d.6-0x397e (0.2)
0x3970|                                          13 00|              ..|          shndx: 19 0x397e-0x3980 (2)
0x3980|a8 3f 00 00 00 00 00 00                        |.?......        |          value: 16296 0x3980-0x3988 (8)
0x3980|                        00 00 00 00 00 00 00 00|        ........|          size: 0 0x3988-0x3990 (8)
      |                                               |                |        [22]{}: symbol 0x3990-0x39a8 (24)
0x3990|01 01 00 00                                    |....            |          name: "__TMC_END__" (257) 0x3990-0x3994 (4)
0x3990|            11                                 |    .           |          bind: "global" (1) 0x3994-0x3994.4 (0.4)
0x3990|            11                                 |    .           |          type: "object" (1) 0x3994.4-0x3995 (0.4)
0x3990|               02                              |     .          |          other_unused: 0 0x3995-0x3995.6 (0.6)
0x3990|               02                              |     .          |          visibility: "hidden" (2) 0x3995.6-0x3996 (0.2)
0x3990|                  14 00                        |      ..        |          shndx: 20 0x3996-0x3998 (2)
0x3990|                        08 40 00 00 00 00 00 00|        .@......|          value: 16392 0x3998-0x39a0 (8)
0x39a0|00 00 00 00 00 00 00 00                        |........        |          size: 0 0x39a0-0x39a8 (8)
      |                                               |                |        [23]{}: symbol 0x39a8-0x39c0 (24)
0x39a0|                        0d 01 00 00            |        ....    |          name: "__DTOR_END__" (269) 0x39a8-0x39ac (4)
0x39a0|                                    11         |            .   |          bind: "global" (1) 0x39ac-0x39ac.4 (0.4)
0x39a0|                                    11         |            .   |          type: "object" (1) 0x39ac.4-0x39ad (0.4)
0x39a0|                                       02      |             .  |          other_unused: 0 0x39ad-0x39ad.6 (0.6)
0x39a0|                                       02      |             .  |          visibility: "hidden" (2) 0x39ad.6-0x39ae (0.2)
0x39a0|                                          11 00|              ..|          shndx: 17 0x39ae-0x39b0 (2)
0x39b0|10 3e 00 00 00 00 00 00                        |.>......        |          value: 15888 0x39b0-0x39b8 (8)
0x39b0|                        00 00 00 00 00 00 00 00|        ........|          size: 0 0x39b8-0x39c0 (8)
      |                                               |                |        [24]{}: symbol 0x39c0-0x39d8 (24)
0x39c0|1a 01 00 00                                    |....            |          name: "puts" (282) 0x39c0-0x39c4 (4)
0x39c0|            12                                 |    .           |          bind: "global" (1) 0x39c4-0x39c4.4 (0.4)
0x39c0|            12                                 |    .           |          type: "func" (2) 0x39c4.4-0x39c5 (0.4)
0x39c0|               00                              |     .          |          other_unused: 0 0x39c5-0x39c5.6 (0.6)
0x39c0|               00                              |     .          |          visibility: "default" (0) 0x39c5.6-0x39c6 (0.2)
0x39c0|                  00 00                        |      ..        |          shndx: 0 0x39c6-0x39c8 (2)
0x39c0|                        00 00 00 00 00 00 00 00|        ........|          value: 0 0x39c8-0x39d0 (8)
0x39d0|00 00 00 00 00 00 00 00                        |........        |          size: 0 0x39d0-0x39d8 (8)
      |                                               |                |        [25]{}: symbol 0x39d8-0x39f0 (24)
0x39d0|                        1f 01 00 00            |        ....    |          name: "__cxa_finalize" (287) 0x39d8-0x39dc (4)
0x39d0|                                    22         |            "   |          bind: "weak" (2) 0x39dc-0x39dc.4 (0.4)
0x39d0|                                    22         |            "   |          type: "func" (2) 0x39dc.4-0x39dd (0.4)
0x39d0|                                       00      |             .  |          other_unused: 0 0x39dd-0x39dd.6 (0.6)
0x39d0|                                       00      |             .  |          visibility: "default" (0) 0x39dd.6-0x39de (0.2)
0x39d0|                                          00 00|              ..|          shndx: 0 0x39de-0x39e0 (2)
0x39e0|00 00 00 00 00 00 00 00                        |........        |          value: 0 0x39e0-0x39e8 (8)
0x39e0|                        00 00 00 00 00 00 00 00|        ........|          size: 0 0x39e8-0x39f0 (8)
      |                                               |                |        [26]{}: symbol 0x39f0-0x3a08 (24)
0x39f0|2e 01 00 00                                    |....            |          name: "__dso_handle" (302) 0x39f0-0x39f4 (4)
0x39f0|            11                                 |    .           |          bind: "global" (1) 0x39f4-0x39f4.4 (0.4)
0x39f0|            11                                 |    .           |          type: "object" (1) 0x39f4.4-0x39f5 (0.4)
0x39f0|               02                              |     .          |          other_unused: 0 0x39f5-0x39f5.6 (0.6)
0x39f0|               02                              |     .          |          visibility: "hidden" (2) 0x39f5.6-0x39f6 (0.2)
0x39f0|                  14 00                        |      ..        |          shndx: 20 0x39f6-0x39f8 (2)
0x39f0|                        00 40 00 00 00 00 00 00|        .@......|          value: 16384 0x39f8-0x3a00 (8)
0x3a00|00 00 00 00 00 00 00 00                        |........        |          size: 0 0x3a00-0x3a08 (8)
      |                                               |                |        [27]{}: symbol 0x3a08-0x3a20 (24)
0x3a00|                        3b 01 00 00            |        ;...    |          name: "aaa" (315) 0x3a08-0x3a0c (4)
0x3a00|                                    12         |            .   |          bind: "global" (1) 0x3a0c-0x3a0c.4 (0.4)
0x3a00|                                    12         |            .   |          type: "func" (2) 0x3a0c.4-0x3a0d (0.4)
0x3a00|                                       00      |             .  |          other_unused: 0 0x3a0d-0x3a0d.6 (0.6)
0x3a00|                                       00      |             .  |          visibility: "default" (0) 0x3a0d.6-0x3a0e (0.2)
0x3a00|                                          0b 00|              ..|          shndx: 11 0x3a0e-0x3a10 (2)
0x3a10|05 12 00 00 00 00 00 00                        |........        |          value: 4613 0x3a10-0x3a18 (8)
0x3a10|                        13 00 00 00 00 00 00 00|        ........|          size: 19 0x3a18-0x3a20 (8)
      |                                               |                |        [28]{}: symbol 0x3a20-0x3a38 (24)
0x3a20|3f 01 00 00                                    |?...            |          name: "_init" (319) 0x3a20-0x3a24 (4)
0x3a20|            12                                 |    .           |          bind: "global" (1) 0x3a24-0x3a24.4 (0.4)
0x3a20|            12                                 |    .           |          type: "func" (2) 0x3a24.4-0x3a25 (0.4)
0x3a20|               00                              |     .          |          other_unused: 0 0x3a25-0x3a25.6 (0.6)
0x3a20|               00                              |     .          |          visibility: "default" (0) 0x3a25.6-0x3a26 (0.2)
0x3a20|                  08 00                        |      ..        |          shndx: 8 0x3a26-0x3a28 (2)
0x3a20|                        00 10 00 00 00 00 00 00|        ........|          value: 4096 0x3a28-0x3a30 (8)
0x3a30|01 00 00 00 00 00 00 00                        |........        |          size: 1 0x3a30-0x3a38 (8)
      |                                               |                |        [29]{}: symbol 0x3a38-0x3a50 (24)
0x3a30|                        45 01 00 00            |        E...    |          name: "__deregister_frame_info" (325) 0x3a38-0x3a3c (4)
0x3a30|                                    20         |                |          bind: "weak" (2) 0x3a3c-0x3a3c.4 (0.4)
0x3a30|                                    20         |                |          type: "notype" (0) 0x3a3c.4-0x3a3d (0.4)
0x3a30|                                       00      |             .  |          other_unused: 0 0x3a3d-0x3a3d.6 (0.6)
0x3a30|                                       00      |             .  |          visibility: "default" (0) 0x3a3d.6-0x3a3e (0.2)
0x3a30|                                          00 00|              ..|          shndx: 0 0x3a3e-0x3a40 (2)
0x3a40|00 00 00 00 00 00 00 00                        |........        |          value: 0 0x3a40-0x3a48 (8)
0x3a40|                        00 00 00 00 00 00 00 00|        ........|          size: 0 0x3a48-0x3a50 (8)
      |                                               |                |        [30]{}: symbol 0x3a50-0x3a68 (24)
0x3a50|5d 01 00 00                                    |]...            |          name: "_ITM_registerTMCloneTable" (349) 0x3a50-0x3a54 (4)
0x3a50|            20                                 |                |          bind: "weak" (2) 0x3a54-0x3a54.4 (0.4)
0x3a50|            20                                 |                |          type: "notype" (0) 0x3a54.4-0x3a55 (0.4)
0x3a50|               00                              |     .          |          other_unused: 0 0x3a55-0x3a55.6 (0.6)
0x3a50|               00                              |     .          |          visibility: "default" (0) 0x3a55.6-0x3a56 (0.2)
0x3a50|                  00 00                        |      ..        |          shndx: 0 0x3a56-0x3a58 (2)
0x3a50|                        00 00 00 00 00 00 00 00|        ........|          value: 0 0x3a58-0x3a60 (8)
0x3a60|00 00 00 00 00 00 00 00                        |........        |          size: 0 0x3a60-0x3a68 (8)
      |                                               |                |        [31]{}: symbol 0x3a68-0x3a80 (24)
0x3a60|                        a1 01 00 00            |        ....    |          name: "_start" (417) 0x3a68-0x3a6c (4)
0x3a60|                                    10         |            .   |          bind: "global" (1) 0x3a6c-0x3a6c.4 (0.4)
0x3a60|                                    10         |            .   |          type: "notype" (0) 0x3a6c.4-0x3a6d (0.4)
0x3a60|                                       00      |             .  |          other_unused: 0 0x3a6d-0x3a6d.6 (0.6)
0x3a60|                                       00      |             .  |          visibility: "default" (0) 0x3a6d.6-0x3a6e (0.2)
0x3a60|                                          0b 00|              ..|          shndx: 11 0x3a6e-0x3a70 (2)
0x3a70|70 10 00 00 00 00 00 00                        |p.......        |          value: 4208 0x3a70-0x3a78 (8)
0x3a70|                        00 00 00 00 00 00 00 00|        ........|          size: 0 0x3a78-0x3a80 (8)
      |                                               |                |        [32]{}: symbol 0x3a80-0x3a98 (24)
0x3a80|77 01 00 00                                    |w...            |          name: "_start_c" (375) 0x3a80-0x3a84 (4)
0x3a80|            12                                 |    .           |          bind: "global" (1) 0x3a84-0x3a84.4 (0.4)
0x3a80|            12                                 |    .           |          type: "func" (2) 0x3a84.4-0x3a85 (0.4)
0x3a80|               00                              |     .          |          other_unused: 0 0x3a85-0x3a85.6 (0.6)
0x3a80|               00                              |     .          |          visibility: "default" (0) 0x3a85.6-0x3a86 (0.2)
0x3a80|                  0b 00                        |      ..        |          shndx: 11 0x3a86-0x3a88 (2)
0x3a80|                        86 10 00 00 00 00 00 00|        ........|          value: 4230 0x3a88-0x3a90 (8)
0x3a90|24 00 00 00 00 00 00 00                        |$.......        |          size: 36 0x3a90-0x3a98 (8)
      |                                               |                |        [33]{}: symbol 0x3a98-0x3ab0 (24)
0x3a90|                        80 01 00 00            |        ....    |          name: "_ITM_deregisterTMCloneTable" (384) 0x3a98-0x3a9c (4)
0x3a90|                                    20         |                |          bind: "weak" (2) 0x3a9c-0x3a9c.4 (0.4)
0x3a90|                                    20         |                |          type: "notype" (0) 0x3a9c.4-0x3a9d (0.4)
0x3a90|                                       00      |             .  |          other_unused: 0 0x3a9d-0x3a9d.6 (0.6)
0x3a90|                                       00      |             .  |          visibility: "default" (0) 0x3a9d.6-0x3a9e (0.2)
0x3a90|                                          00 00|              ..|          shndx: 0 0x3a9e-0x3aa0 (2)
0x3aa0|00 00 00 00 00 00 00 00                        |........        |          value: 0 0x3aa0-0x3aa8 (8)
0x3aa0|                        00 00 00 00 00 00 00 00|        ........|          size: 0 0x3aa8-0x3ab0 (8)
      |                                               |                |        [34]{}: symbol 0x3ab0-0x3ac8 (24)
0x3ab0|9c 01 00 00                                    |....            |          name: "__bss_start" (412) 0x3ab0-0x3ab4 (4)
0x3ab0|            10                                 |    .           |          bind: "global" (1) 0x3ab4-0x3ab4.4 (0.4)
0x3ab0|            10                                 |    .           |          type: "notype" (0) 0x3ab4.4-0x3ab5 (0.4)
0x3ab0|               00                              |     .          |          other_unused: 0 0x3ab5-0x3ab5.6 (0.6)
0x3ab0|               00                              |     .          |          visibility: "default" (0) 0x3ab5.6-0x3ab6 (0.2)
0x3ab0|                  15 00                        |      ..        |          shndx: 21 0x3ab6-0x3ab8 (2)
0x3ab0|                        08 40 00 00 00 00 00 00|        .@......|          value: 16392 0x3ab8-0x3ac0 (8)
0x3ac0|00 00 00 00 00 00 00 00                        |........        |          size: 0 0x3ac0-0x3ac8 (8)
      |                                               |                |        [35]{}: symbol 0x3ac8-0x3ae0 (24)
0x3ac0|                        d2 01 00 00            |        ....    |          name: "main" (466) 0x3ac8-0x3acc (4)
0x3ac0|                                    12         |            .   |          bind: "global" (1) 0x3acc-0x3acc.4 (0.4)
0x3ac0|                                    12         |            .   |          type: "func" (2) 0x3acc.4-0x3acd (0.4)
0x3ac0|                                       00      |             .  |          other_unused: 0 0x3acd-0x3acd.6 (0.6)
0x3ac0|                                       00      |             .  |          visibility: "default" (0) 0x3acd.6-0x3ace (0.2)
0x3ac0|                                          0b 00|              ..|          shndx: 11 0x3ace-0x3ad0 (2)
0x3ad0|18 12 00 00 00 00 00 00                        |........        |          value: 4632 0x3ad0-0x3ad8 (8)
0x3ad0|                        1f 00 00 00 00 00 00 00|        ........|          size: 31 0x3ad8-0x3ae0 (8)
      |                                               |                |        [36]{}: symbol 0x3ae0-0x3af8 (24)
0x3ae0|a8 01 00 00                                    |....            |          name: "_fini" (424) 0x3ae0-0x3ae4 (4)
0x3ae0|            12                                 |    .           |          bind: "global" (1) 0x3ae4-0x3ae4.4 (0.4)
0x3ae0|            12                                 |    .           |          type: "func" (2) 0x3ae4.4-0x3ae5 (0.4)
0x3ae0|               00                              |     .          |          other_unused: 0 0x3ae5-0x3ae5.6 (0.6)
0x3ae0|               00                              |     .          |          visibility: "default" (0) 0x3ae5.6-0x3ae6 (0.2)
0x3ae0|                  0c 00                        |      ..        |          shndx: 12 0x3ae6-0x3ae8 (2)
0x3ae0|                        81 12 00 00 00 00 00 00|        ........|          value: 4737 0x3ae8-0x3af0 (8)
0x3af0|01 00 00 00 00 00 00 00                        |........        |          size: 1 0x3af0-0x3af8 (8)
      |                                               |                |        [37]{}: symbol 0x3af8-0x3b10 (24)
0x3af0|                        ae 01 00 00            |        ....    |          name: "_edata" (430) 0x3af8-0x3afc (4)
0x3af0|                                    10         |            .   |          bind: "global" (1) 0x3afc-0x3afc.4 (0.4)
0x3af0|                                    10         |            .   |          type: "notype" (0) 0x3afc.4-0x3afd (0.4)
0x3af0|                                       00      |             .  |          other_unused: 0 0x3afd-0x3afd.6 (0.6)
0x3af0|                                       00      |             .  |          visibility: "default" (0) 0x3afd.6-0x3afe (0.2)
0x3af0|                                          14 00|              ..|          shndx: 20 0x3afe-0x3b00 (2)
0x3b00|08 40 00 00 00 00 00 00                        |.@......        |          value: 16392 0x3b00-0x3b08 (8)
0x3b00|                        00 00 00 00 00 00 00 00|        ........|          size: 0 0x3b08-0x3b10 (8)
      |                                               |                |        [38]{}: symbol 0x3b10-0x3b28 (24)
0x3b10|b5 01 00 00                                    |....            |          name: "_end" (437) 0x3b10-0x3b14 (4)
0x3b10|            10                                 |    .           |          bind: "global" (1) 0x3b14-0x3b14.4 (0.4)
0x3b10|            10                                 |    .           |          type: "notype" (0) 0x3b14.4-0x3b15 (0.4)
0x3b10|               00                              |     .          |          other_unused: 0 0x3b15-0x3b15.6 (0.6)
0x3b10|               00                              |     .          |          visibility: "default" (0) 0x3b15.6-0x3b16 (0.2)
0x3b10|                  15 00                        |      ..        |          shndx: 21 0x3b16-0x3b18 (2)
0x3b10|                        70 40 00 00 00 00 00 00|        p@......|          value: 16496 0x3b18-0x3b20 (8)
0x3b20|00 00 00 00 00 00 00 00                        |........        |          size: 0 0x3b20-0x3b28 (8)
      |                                               |                |        [39]{}: symbol 0x3b28-0x3b40 (24)
0x3b20|                        ba 01 00 00            |        ....    |          name: "libbbb_bbb" (442) 0x3b28-0x3b2c (4)
0x3b20|                                    12         |            .   |          bind: "global" (1) 0x3b2c-0x3b2c.4 (0.4)
0x3b20|                                    12         |            .   |          type: "func" (2) 0x3b2c.4-0x3b2d (0.4)
0x3b20|                                       00      |             .  |          other_unused: 0 0x3b2d-0x3b2d.6 (0.6)
0x3b20|                                       00      |             .  |          visibility: "default" (0) 0x3b2d.6-0x3b2e (0.2)
0x3b20|                                          00 00|              ..|          shndx: 0 0x3b2e-0x3b30 (2)
0x3b30|00 00 00 00 00 00 00 00                        |........        |          value: 0 0x3b30-0x3b38 (8)
0x3b30|                        00 00 00 00 00 00 00 00|        ........|          size: 0 0x3b38-0x3b40 (8)
      |                                               |                |        [40]{}: symbol 0x3b40-0x3b58 (24)
0x3b40|c5 01 00 00                                    |....            |          name: "__libc_start_main" (453) 0x3b40-0x3b44 (4)
0x3b40|            12                                 |    .           |          bind: "global" (1) 0x3b44-0x3b44.4 (0.4)
0x3b40|            12                                 |    .           |          type: "func" (2) 0x3b44.4-0x3b45 (0.4)
0x3b40|               00                              |     .          |          other_unused: 0 0x3b45-0x3b45.6 (0.6)
0x3b40|               00                              |     .          |          visibility: "default" (0) 0x3b45.6-0x3b46 (0.2)
0x3b40|                  00 00                        |      ..        |          shndx: 0 0x3b46-0x3b48 (2)
0x3b40|                        00 00 00 00 00 00 00 00|        ........|          value: 0 0x3b48-0x3b50 (8)
0x3b50|00 00 00 00 00 00 00 00                        |........        |          size: 0 0x3b50-0x3b58 (8)
      |                                               |                |        [41]{}: symbol 0x3b58-0x3b70 (24)
0x3b50|                        d7 01 00 00            |        ....    |          name: "__register_frame_info" (471) 0x3b58-0x3b5c (4)
0x3b50|                                    20         |                |          bind: "weak" (2) 0x3b5c-0x3b5c.4 (0.4)
0x3b50|                                    20         |                |          type: "notype" (0) 0x3b5c.4-0x3b5d (0.4)
0x3b50|                                       00      |             .  |          other_unused: 0 0x3b5d-0x3b5d.6 (0.6)
0x3b50|                                       00      |             .  |          visibility: "default" (0) 0x3b5d.6-0x3b5e (0.2)
0x3b50|                                          00 00|              ..|          shndx: 0 0x3b5e-0x3b60 (2)
0x3b60|00 00 00 00 00 00 00 00                        |........        |          value: 0 0x3b60-0x3b68 (8)
0x3b60|                        00 00 00 00 00 00 00 00|        ........|          size: 0 0x3b68-0x3b70 (8)
0x4650|01 00 00 00                                    |....            |      name: ".symtab" (1) 0x4650-0x4654 (4)
0x4650|            02 00 00 00                        |    ....        |      type: "symtab" (0x2) (Symbol table) 0x4654-0x4658 (4)
      |                                               |                |      flags{}: 0x4658-0x4660 (8)
0x4650|                        00                     |        .       |        link_order: false 0x4658-0x4658.1 (0.1)
0x4650|                        00                     |        .       |        info_link: false 0x4658.1-0x4658.2 (0.1)
0x4650|                        00                     |        .       |        strings: false 0x4658.2-0x4658.3 (0.1)
0x4650|                        00                     |        .       |        merge: false 0x4658.3-0x4658.4 (0.1)
0x4650|                        00                     |        .       |        unused0: 0 0x4658.4-0x4658.5 (0.1)
0x4650|                        00                     |        .       |        execinstr: false 0x4658.5-0x4658.6 (0.1)
0x4650|                        00                     |        .       |        alloc: false 0x4658.6-0x4658.7 (0.1)
0x4650|                        00                     |        .       |        write: false 0x4658.7-0x4659 (0.1)
0x4650|                           00                  |         .      |        tls: false 0x4659-0x4659.1 (0.1)
0x4650|                           00                  |         .      |        group: false 0x4659.1-0x4659.2 (0.1)
0x4650|                           00                  |         .      |        os_nonconforming: false 0x4659.2-0x4659.3 (0.1)
0x4650|                           00 00               |         ..     |        unused1: 0 0x4659.3-0x465a.4 (1.1)
0x4650|                              00 00            |          ..    |        os_specific: 0 0x465a.4-0x465b.4 (1)
0x4650|                                 00            |           .    |        processor_specific: 0 0x465b.4-0x465c (0.4)
0x4650|                                    00 00 00 00|            ....|        unused2: 0 0x465c-0x4660 (4)
0x4660|00 00 00 00 00 00 00 00                        |........        |      addr: 0x0 0x4660-0x4668 (8)
0x4660|                        80 37 00 00 00 00 00 00|        .7......|      offset: 0x3780 0x4668-0x4670 (8)
0x4670|f0 03 00 00 00 00 00 00                        |........        |      size: 1008 0x4670-0x4678 (8)
0x4670|                        20 00 00 00            |         ...    |      link: 32 0x4678-0x467c (4)
0x4670|                                    16 00 00 00|            ....|      info: 22 0x467c-0x4680 (4)
0x4680|08 00 00 00 00 00 00 00                        |........        |      addralign: 8 0x4680-0x4688 (8)
0x4680|                        18 00 00 00 00 00 00 00|        ........|      entsize: 24 0x4688-0x4690 (8)
      |                                               |                |    [32]{}: section_header 0x3b70-0x46d0 (2912)
0x3b70|00 53 63 72 74 31 2e 63 00 63 72 74 73 74 75 66|.Scrt1.c.crtstuf|      string: "\x00Scrt1.c\x00crtstuff.c\x00__CTOR_LIST__\x00__DTOR_LIST__\x00__EH_FRAME_BEGIN__\x00deregister_tm_clones\x00__do_global_dtors_aux\x00completed.2\x00dtor_idx.1\x00frame_dummy\x00object.0\x00__CTOR_END__\x00__FRAME_END__\x00__do_global_ctors_aux\x00a.c\x00_DYNAMIC\x00__GNU_EH_FRAME_HDR\x00_GLOBAL_OFFSET_TABLE_\x00__TMC_END__\x00__DTOR_END__\x00puts\x00__cxa_finalize\x00__dso_handle\x00aaa\x00_init\x00__deregister_frame_info\x00_ITM_registerTMCloneTable\x00_start_c\x00_ITM_deregisterTMCloneTable\x00__bss_start\x00_fini\x00_edata\x00_end\x00libbbb_bbb\x00__libc_start_main\x00__register_frame_info\x00" 0x3b70-0x3d5d (493)
*     |until 0x3d5c.7 (493)                           |                |
0x4690|09 00 00 00                                    |....            |      name: ".strtab" (9) 0x4690-0x4694 (4)
0x4690|            03 00 00 00                        |    ....        |      type: "strtab" (0x3) (String table) 0x4694-0x4698 (4)
      |                                               |                |      flags{}: 0x4698-0x46a0 (8)
0x4690|                        00                     |        .       |        link_order: false 0x4698-0x4698.1 (0.1)
0x4690|                        00                     |        .       |        info_link: false 0x4698.1-0x4698.2 (0.1)
0x4690|                        00                     |        .       |        strings: false 0x4698.2-0x4698.3 (0.1)
0x4690|                        00                     |        .       |        merge: false 0x4698.3-0x4698.4 (0.1)
0x4690|                        00                     |        .       |        unused0: 0 0x4698.4-0x4698.5 (0.1)
0x4690|                        00                     |        .       |        execinstr: false 0x4698.5-0x4698.6 (0.1)
0x4690|                        00                     |        .       |        alloc: false 0x4698.6-0x4698.7 (0.1)
0x4690|                        00                     |        .       |        write: false 0x4698.7-0x4699 (0.1)
0x4690|                           00                  |         .      |        tls: false 0x4699-0x4699.1 (0.1)
0x4690|                           00                  |         .      |        group: false 0x4699.1-0x4699.2 (0.1)
0x4690|                           00                  |         .      |        os_nonconforming: false 0x4699.2-0x4699.3 (0.1)
0x4690|                           00 00               |         ..     |        unused1: 0 0x4699.3-0x469a.4 (1.1)
0x4690|                              00 00            |          ..    |        os_specific: 0 0x469a.4-0x469b.4 (1)
0x4690|                                 00            |           .    |        processor_specific: 0 0x469b.4-0x469c (0.4)
0x4690|                                    00 00 00 00|            ....|        unused2: 0 0x469c-0x46a0 (4)
0x46a0|00 00 00 00 00 00 00 00                        |........        |      addr: 0x0 0x46a0-0x46a8 (8)
0x46a0|                        70 3b 00 00 00 00 00 00|        p;......|      offset: 0x3b70 0x46a8-0x46b0 (8)
0x46b0|ed 01 00 00 00 00 00 00                        |........        |      size: 493 0x46b0-0x46b8 (8)
0x46b0|                        00 00 00 00            |        ....    |      link: 0 0x46b8-0x46bc (4)
0x46b0|                                    00 00 00 00|            ....|      info: 0 0x46bc-0x46c0 (4)
0x46c0|01 00 00 00 00 00 00 00                        |........        |      addralign: 1 0x46c0-0x46c8 (8)
0x46c0|                        00 00 00 00 00 00 00 00|        ........|      entsize: 0 0x46c8-0x46d0 (8)
      |                                               |                |    [33]{}: section_header 0x3d5d-0x4710 (2483)
0x3d50|                                       00 2e 73|             ..s|      string: "\x00.symtab\x00.strtab\x00.shstrtab\x00.interp\x00.note.gnu.property\x00.gnu.hash\x00.dynsym\x00.dynstr\x00.rela.dyn\x00.rela.plt\x00.init\x00.plt.got\x00.text\x00.fini\x00.rodata\x00.eh_frame_hdr\x00.eh_frame\x00.ctors\x00.dtors\x00.dynamic\x00.data\x00.bss\x00.comment\x00.debug_aranges\x00.debug_info\x00.debug_abbrev\x00.debug_line\x00.debug_frame\x00.debug_str\x00.debug_loc\x00.debug_ranges\x00" 0x3d5d-0x3e8d (304)
0x3d60|79 6d 74 61 62 00 2e 73 74 72 74 61 62 00 2e 73|ymtab..strtab..s|
*     |until 0x3e8c.7 (304)                           |                |
0x46d0|11 00 00 00                                    |....            |      name: ".shstrtab" (17) 0x46d0-0x46d4 (4)
0x46d0|            03 00 00 00                        |    ....        |      type: "strtab" (0x3) (String table) 0x46d4-0x46d8 (4)
      |                                               |                |      flags{}: 0x46d8-0x46e0 (8)
0x46d0|                        00                     |        .       |        link_order: false 0x46d8-0x46d8.1 (0.1)
0x46d0|                        00                     |        .       |        info_link: false 0x46d8.1-0x46d8.2 (0.1)
0x46d0|                        00                     |        .       |        strings: false 0x46d8.2-0x46d8.3 (0.1)
0x46d0|                        00                     |        .       |        merge: false 0x46d8.3-0x46d8.4 (0.1)
0x46d0|                        00                     |        .       |        unused0: 0 0x46d8.4-0x46d8.5 (0.1)
0x46d0|                        00                     |        .       |        execinstr: false 0x46d8.5-0x46d8.6 (0.1)
0x46d0|                        00                     |        .       |        alloc: false 0x46d8.6-0x46d8.7 (0.1)
0x46d0|                        00                     |        .       |        write: false 0x46d8.7-0x46d9 (0.1)
0x46d0|                           00                  |         .      |        tls: false 0x46d9-0x46d9.1 (0.1)
0x46d0|                           00                  |         .      |        group: false 0x46d9.1-0x46d9.2 (0.1)
0x46d0|                           00                  |         .      |        os_nonconforming: false 0x46d9.2-0x46d9.3 (0.1)
0x46d0|                           00 00               |         ..     |        unused1: 0 0x46d9.3-0x46da.4 (1.1)
0x46d0|                              00 00            |          ..    |        os_specific: 0 0x46da.4-0x46db.4 (1)
0x46d0|                                 00            |           .    |        processor_specific: 0 0x46db.4-0x46dc (0.4)
0x46d0|                                    00 00 00 00|            ....|        unused2: 0 0x46dc-0x46e0 (4)
0x46e0|00 00 00 00 00 00 00 00                        |........        |      addr: 0x0 0x46e0-0x46e8 (8)
0x46e0|                        5d 3d 00 00 00 00 00 00|        ]=......|      offset: 0x3d5d 0x46e8-0x46f0 (8)
0x46f0|30 01 00 00 00 00 00 00                        |0.......        |      size: 304 0x46f0-0x46f8 (8)
0x46f0|                        00 00 00 00            |        ....    |      link: 0 0x46f8-0x46fc (4)
0x46f0|                                    00 00 00 00|            ....|      info: 0 0x46fc-0x4700 (4)
0x4700|01 00 00 00 00 00 00 00                        |........        |      addralign: 1 0x4700-0x4708 (8)
0x4700|                        00 00 00 00 00 00 00 00|        ........|      entsize: 0 0x4708-0x4710 (8)
0x0600|                        00 00 00 00 00 00 00 00|        ........|  gap0: raw bits 0x608-0x1000 (2552)
0x0610|00 00 00 00 00 00 00 00 00 00 00 00 00 00 00 00|................|
*     |until 0xfff.7 (2552)                           |                |
0x1280|                           00 00 00 00 00 00 00|         .......|  gap1: raw bits 0x1289-0x2000 (3447)
0x1290|00 00 00 00 00 00 00 00 00 00 00 00 00 00 00 00|................|
*     |until 0x1fff.7 (3447)                          |                |
0x20c0|                                    00 00 00 00|            ....|  gap2: raw bits 0x20cc-0x2df8 (3372)
0x20d0|00 00 00 00 00 00 00 00 00 00 00 00 00 00 00 00|................|
*     |until 0x2df7.7 (3372)                          |                |
0x3030|                           00 00 00 00 00 00 00|         .......|  gap3: raw bits 0x3039-0x3040 (7)
0x33e0|                                       00 00 00|             ...|  gap4: raw bits 0x33ed-0x33f0 (3)
0x36d0|            00 00 00 00 00 00 00 00 00 00 00 00|    ............|  gap5: raw bits 0x36d4-0x36e0 (12)
0x3e80|                                       00 00 00|             ...|  gap6: raw bits 0x3e8d-0x3e90 (3)
