$ fq -d elf dv a_static
       |00 01 02 03 04 05 06 07 08 09 0a 0b 0c 0d 0e 0f|0123456789abcdef|.{}: a_static (elf) 0x0-0x144a0 (83104)
       |                                               |                |  header{}: 0x0-0x40 (64)
       |                                               |                |    ident{}: 0x0-0x10 (16)
0x00000|7f 45 4c 46                                    |.ELF            |      magic: raw bits (valid) 0x0-0x4 (4)
0x00000|            02                                 |    .           |      class: 64 (2) 0x4-0x5 (1)
0x00000|               01                              |     .          |      data: "little_endian" (1) 0x5-0x6 (1)
0x00000|                  01                           |      .         |      version: 1 0x6-0x7 (1)
0x00000|                     00                        |       .        |      os_abi: "sysv" (0) 0x7-0x8 (1)
0x00000|                        00                     |        .       |      abi_version: 0 0x8-0x9 (1)
0x00000|                           00 00 00 00 00 00 00|         .......|      pad: raw bits (all zero) 0x9-0x10 (7)
0x00010|02 00                                          |..              |    type: "exec" (0x2) 0x10-0x12 (2)
0x00010|      3e 00                                    |  >.            |    machine: "x86_64" (0x3e) (AMD x86-64) 0x12-0x14 (2)
0x00010|            01 00 00 00                        |    ....        |    version: 1 0x14-0x18 (4)
0x00010|                        32 10 40 00 00 00 00 00|        2.@.....|    entry: 4198450 0x18-0x20 (8)
0x00020|40 00 00 00 00 00 00 00                        |@.......        |    phoff: 64 0x20-0x28 (8)
0x00020|                        a0 3e 01 00 00 00 00 00|        .>......|    shoff: 81568 0x28-0x30 (8)
0x00030|00 00 00 00                                    |....            |    flags: 0 0x30-0x34 (4)
0x00030|            40 00                              |    @.          |    ehsize: 64 0x34-0x36 (2)
0x00030|                  38 00                        |      8.        |    phentsize: 56 0x36-0x38 (2)
0x00030|                        08 00                  |        ..      |    phnum: 8 0x38-0x3a (2)
0x00030|                              40 00            |          @.    |    shentsize: 64 0x3a-0x3c (2)
0x00030|                                    18 00      |            ..  |    shnum: 24 0x3c-0x3e (2)
0x00030|                                          17 00|              ..|    shstrndx: 23 0x3e-0x40 (2)
       |                                               |                |  program_headers[0:8]: 0x0-0x3110 (12560)
       |                                               |                |    [0]{}: program_header 0x0-0x230 (560)
0x00000|7f 45 4c 46 02 01 01 00 00 00 00 00 00 00 00 00|.ELF............|      data: raw bits 0x0-0x230 (560)
*      |until 0x22f.7 (560)                            |                |
0x00040|01 00 00 00                                    |....            |      type: "load" (1) (Loadable segment) 0x40-0x44 (4)
       |                                               |                |      flags{}: 0x44-0x48 (4)
0x00040|            04                                 |    .           |        unused0: 0 0x44-0x44.5 (0.5)
0x00040|            04                                 |    .           |        r: true 0x44.5-0x44.6 (0.1)
0x00040|            04                                 |    .           |        w: false 0x44.6-0x44.7 (0.1)
0x00040|            04                                 |    .           |        x: false 0x44.7-0x45 (0.1)
0x00040|               00 00 00                        |     ...        |        unused1: 0 0x45-0x48 (3)
0x00040|                        00 00 00 00 00 00 00 00|        ........|      offset: 0x0 0x48-0x50 (8)
0x00050|00 00 40 00 00 00 00 00                        |..@.....        |      vaddr: 0x400000 0x50-0x58 (8)
0x00050|                        00 00 40 00 00 00 00 00|        ..@.....|      paddr: 0x400000 0x58-0x60 (8)
0x00060|30 02 00 00 00 00 00 00                        |0.......        |      filesz: 560 0x60-0x68 (8)
0x00060|                        30 02 00 00 00 00 00 00|        0.......|      memsz: 560 0x68-0x70 (8)
0x00070|00 10 00 00 00 00 00 00                        |........        |      align: 4096 0x70-0x78 (8)
       |                                               |                |    [1]{}: program_header 0x78-0x1e69 (7665)
0x00070|                        01 00 00 00            |        ....    |      type: "load" (1) (Loadable segment) 0x78-0x7c (4)
       |                                               |                |      flags{}: 0x7c-0x80 (4)
0x00070|                                    05         |            .   |        unused0: 0 0x7c-0x7c.5 (0.5)
0x00070|                                    05         |            .   |        r: true 0x7c.5-0x7c.6 (0.1)
0x00070|                                    05         |            .   |        w: false 0x7c.6-0x7c.7 (0.1)
0x00070|                                    05         |            .   |        x: true 0x7c.7-0x7d (0.1)
0x00070|                                       00 00 00|             ...|        unused1: 0 0x7d-0x80 (3)
0x00080|00 10 00 00 00 00 00 00                        |........        |      offset: 0x1000 0x80-0x88 (8)
0x00080|                        00 10 40 00 00 00 00 00|        ..@.....|      vaddr: 0x401000 0x88-0x90 (8)
0x00090|00 10 40 00 00 00 00 00                        |..@.....        |      paddr: 0x401000 0x90-0x98 (8)
0x00090|                        69 0e 00 00 00 00 00 00|        i.......|      filesz: 3689 0x98-0xa0 (8)
0x000a0|69 0e 00 00 00 00 00 00                        |i.......        |      memsz: 3689 0xa0-0xa8 (8)
0x000a0|                        00 10 00 00 00 00 00 00|        ........|      align: 4096 0xa8-0xb0 (8)
0x01000|50 e8 6a 01 00 00 e8 15 0e 00 00 58 c3 00 00 00|P.j........X....|      data: raw bits 0x1000-0x1e69 (3689)
*      |until 0x1e68.7 (3689)                          |                |
       |                                               |                |    [2]{}: program_header 0xb0-0x209c (8172)
0x000b0|01 00 00 00                                    |....            |      type: "load" (1) (Loadable segment) 0xb0-0xb4 (4)
       |                                               |                |      flags{}: 0xb4-0xb8 (4)
0x000b0|            04                                 |    .           |        unused0: 0 0xb4-0xb4.5 (0.5)
0x000b0|            04                                 |    .           |        r: true 0xb4.5-0xb4.6 (0.1)
0x000b0|            04                                 |    .           |        w: false 0xb4.6-0xb4.7 (0.1)
0x000b0|            04                                 |    .           |        x: false 0xb4.7-0xb5 (0.1)
0x000b0|               00 00 00                        |     ...        |        unused1: 0 0xb5-0xb8 (3)
0x000b0|                        00 20 00 00 00 00 00 00|        . ......|      offset: 0x2000 0xb8-0xc0 (8)
0x000c0|00 20 40 00 00 00 00 00                        |. @.....        |      vaddr: 0x402000 0xc0-0xc8 (8)
0x000c0|                        00 20 40 00 00 00 00 00|        . @.....|      paddr: 0x402000 0xc8-0xd0 (8)
0x000d0|9c 00 00 00 00 00 00 00                        |........        |      filesz: 156 0xd0-0xd8 (8)
0x000d0|                        9c 00 00 00 00 00 00 00|        ........|      memsz: 156 0xd8-0xe0 (8)
0x000e0|00 10 00 00 00 00 00 00                        |........        |      align: 4096 0xe0-0xe8 (8)
0x02000|61 61 61 00 6c 69 62 62 62 62 5f 62 62 62 00 2f|aaa.libbbb_bbb./|      data: raw bits 0x2000-0x209c (156)
*      |until 0x209b.7 (156)                           |                |
       |                                               |                |    [3]{}: program_header 0xe8-0x3110 (12328)
0x000e0|                        01 00 00 00            |        ....    |      type: "load" (1) (Loadable segment) 0xe8-0xec (4)
       |                                               |                |      flags{}: 0xec-0xf0 (4)
0x000e0|                                    06         |            .   |        unused0: 0 0xec-0xec.5 (0.5)
0x000e0|                                    06         |            .   |        r: true 0xec.5-0xec.6 (0.1)
0x000e0|                                    06         |            .   |        w: true 0xec.6-0xec.7 (0.1)
0x000e0|                                    06         |            .   |        x: false 0xec.7-0xed (0.1)
0x000e0|                                       00 00 00|             ...|        unused1: 0 0xed-0xf0 (3)
0x000f0|d0 2f 00 00 00 00 00 00                        |./......        |      offset: 0x2fd0 0xf0-0xf8 (8)
0x000f0|                        d0 3f 40 00 00 00 00 00|        .?@.....|      vaddr: 0x403fd0 0xf8-0x100 (8)
0x00100|d0 3f 40 00 00 00 00 00                        |.?@.....        |      paddr: 0x403fd0 0x100-0x108 (8)
0x00100|                        40 01 00 00 00 00 00 00|        @.......|      filesz: 320 0x108-0x110 (8)
0x00110|20 08 00 00 00 00 00 00                        | .......        |      memsz: 2080 0x110-0x118 (8)
0x00110|                        00 10 00 00 00 00 00 00|        ........|      align: 4096 0x118-0x120 (8)
0x02fd0|ff ff ff ff ff ff ff ff 00 00 00 00 00 00 00 00|................|      data: raw bits 0x2fd0-0x3110 (320)
*      |until 0x310f.7 (320)                           |                |
       |                                               |                |    [4]{}: program_header 0x120-0x230 (272)
0x00120|04 00 00 00                                    |....            |      type: "note" (4) (Auxiliary information) 0x120-0x124 (4)
       |                                               |                |      flags{}: 0x124-0x128 (4)
0x00120|            04                                 |    .           |        unused0: 0 0x124-0x124.5 (0.5)
0x00120|            04                                 |    .           |        r: true 0x124.5-0x124.6 (0.1)
0x00120|            04                                 |    .           |        w: false 0x124.6-0x124.7 (0.1)
0x00120|            04                                 |    .           |        x: false 0x124.7-0x125 (0.1)
0x00120|               00 00 00                        |     ...        |        unused1: 0 0x125-0x128 (3)
0x00120|                        00 02 00 00 00 00 00 00|        ........|      offset: 0x200 0x128-0x130 (8)
0x00130|00 02 40 00 00 00 00 00                        |..@.....        |      vaddr: 0x400200 0x130-0x138 (8)
0x00130|                        00 02 40 00 00 00 00 00|        ..@.....|      paddr: 0x400200 0x138-0x140 (8)
0x00140|30 00 00 00 00 00 00 00                        |0.......        |      filesz: 48 0x140-0x148 (8)
0x00140|                        30 00 00 00 00 00 00 00|        0.......|      memsz: 48 0x148-0x150 (8)
0x00150|08 00 00 00 00 00 00 00                        |........        |      align: 8 0x150-0x158 (8)
       |                                               |                |      notes[0:1]: 0x200-0x230 (48)
       |                                               |                |        [0]{}: note 0x200-0x230 (48)
0x00200|04 00 00 00                                    |....            |          n_namesz: 4 0x200-0x204 (4)
0x00200|            20 00 00 00                        |     ...        |          n_descsz: 32 0x204-0x208 (4)
0x00200|                        05 00 00 00            |        ....    |          n_type: 0x5 0x208-0x20c (4)
0x00200|                                    47 4e 55 00|            GNU.|          name: "GNU" 0x20c-0x210 (4)
0x00210|01 00 01 c0 04 00 00 00 01 00 00 00 00 00 00 00|................|          desc: raw bits 0x210-0x230 (32)
0x00220|02 00 01 c0 04 00 00 00 01 00 00 00 00 00 00 00|................|
       |                                               |                |    [5]{}: program_header 0x158-0x230 (216)
0x00150|                        53 e5 74 64            |        S.td    |      type: "os" (1685382483) (Operating system-specific) 0x158-0x15c (4)
       |                                               |                |      flags{}: 0x15c-0x160 (4)
0x00150|                                    04         |            .   |        unused0: 0 0x15c-0x15c.5 (0.5)
0x00150|                                    04         |            .   |        r: true 0x15c.5-0x15c.6 (0.1)
0x00150|                                    04         |            .   |        w: false 0x15c.6-0x15c.7 (0.1)
0x00150|                                    04         |            .   |        x: false 0x15c.7-0x15d (0.1)
0x00150|                                       00 00 00|             ...|        unused1: 0 0x15d-0x160 (3)
0x00160|00 02 00 00 00 00 00 00                        |........        |      offset: 0x200 0x160-0x168 (8)
0x00160|                        00 02 40 00 00 00 00 00|        ..@.....|      vaddr: 0x400200 0x168-0x170 (8)
0x00170|00 02 40 00 00 00 00 00                        |..@.....        |      paddr: 0x400200 0x170-0x178 (8)
0x00170|                        30 00 00 00 00 00 00 00|        0.......|      filesz: 48 0x178-0x180 (8)
0x00180|30 00 00 00 00 00 00 00                        |0.......        |      memsz: 48 0x180-0x188 (8)
0x00180|                        08 00 00 00 00 00 00 00|        ........|      align: 8 0x188-0x190 (8)
0x00200|04 00 00 00 20 00 00 00 05 00 00 00 47 4e 55 00|.... .......GNU.|      data: raw bits 0x200-0x230 (48)
*      |until 0x22f.7 (48)                             |                |
       |                                               |                |    [6]{}: program_header 0x0-0x1c8 (456)
       |                                               |                |      data: raw bits 0x0-0x0 (0)
0x00190|51 e5 74 64                                    |Q.td            |      type: "gnu_stack" (1685382481) (GNU stack permission) 0x190-0x194 (4)
       |                                               |                |      flags{}: 0x194-0x198 (4)
0x00190|            06                                 |    .           |        unused0: 0 0x194-0x194.5 (0.5)
0x00190|            06                                 |    .           |        r: true 0x194.5-0x194.6 (0.1)
0x00190|            06                                 |    .           |        w: true 0x194.6-0x194.7 (0.1)
0x00190|            06                                 |    .           |        x: false 0x194.7-0x195 (0.1)
0x00190|               00 00 00                        |     ...        |        unused1: 0 0x195-0x198 (3)
0x00190|                        00 00 00 00 00 00 00 00|        ........|      offset: 0x0 0x198-0x1a0 (8)
0x001a0|00 00 00 00 00 00 00 00                        |........        |      vaddr: 0x0 0x1a0-0x1a8 (8)
0x001a0|                        00 00 00 00 00 00 00 00|        ........|      paddr: 0x0 0x1a8-0x1b0 (8)
0x001b0|00 00 00 00 00 00 00 00                        |........        |      filesz: 0 0x1b0-0x1b8 (8)
0x001b0|                        00 00 00 00 00 00 00 00|        ........|      memsz: 0 0x1b8-0x1c0 (8)
0x001c0|10 00 00 00 00 00 00 00                        |........        |      align: 16 0x1c0-0x1c8 (8)
       |                                               |                |    [7]{}: program_header 0x1c8-0x3000 (11832)
0x001c0|                        52 e5 74 64            |        R.td    |      type: "gnu_relro" (1685382482) (GNU read-only after relocation) 0x1c8-0x1cc (4)
       |                                               |                |      flags{}: 0x1cc-0x1d0 (4)
0x001c0|                                    04         |            .   |        unused0: 0 0x1cc-0x1cc.5 (0.5)
0x001c0|                                    04         |            .   |        r: true 0x1cc.5-0x1cc.6 (0.1)
0x001c0|                                    04         |            .   |        w: false 0x1cc.6-0x1cc.7 (0.1)
0x001c0|                                    04         |            .   |        x: false 0x1cc.7-0x1cd (0.1)
0x001c0|                                       00 00 00|             ...|        unused1: 0 0x1cd-0x1d0 (3)
0x001d0|d0 2f 00 00 00 00 00 00                        |./......        |      offset: 0x2fd0 0x1d0-0x1d8 (8)
0x001d0|                        d0 3f 40 00 00 00 00 00|        .?@.....|      vaddr: 0x403fd0 0x1d8-0x1e0 (8)
0x001e0|d0 3f 40 00 00 00 00 00                        |.?@.....        |      paddr: 0x403fd0 0x1e0-0x1e8 (8)
0x001e0|                        30 00 00 00 00 00 00 00|        0.......|      filesz: 48 0x1e8-0x1f0 (8)
0x001f0|30 00 00 00 00 00 00 00                        |0.......        |      memsz: 48 0x1f0-0x1f8 (8)
0x001f0|                        01 00 00 00 00 00 00 00|        ........|      align: 1 0x1f8-0x200 (8)
0x02fd0|ff ff ff ff ff ff ff ff 00 00 00 00 00 00 00 00|................|      data: raw bits 0x2fd0-0x3000 (48)
*      |until 0x2fff.7 (48)                            |                |
       |                                               |                |  section_headers[0:24]: 0x200-0x144a0 (82592)
       |                                               |                |    [0]{}: section_header 0x13ea0-0x13ee0 (64)
0x13ea0|00 00 00 00                                    |....            |      name: "" (0) 0x13ea0-0x13ea4 (4)
0x13ea0|            00 00 00 00                        |    ....        |      type: "null" (0x0) (Header inactive) 0x13ea4-0x13ea8 (4)
       |                                               |                |      flags{}: 0x13ea8-0x13eb0 (8)
0x13ea0|                        00                     |        .       |        link_order: false 0x13ea8-0x13ea8.1 (0.1)
0x13ea0|                        00                     |        .       |        info_link: false 0x13ea8.1-0x13ea8.2 (0.1)
0x13ea0|                        00                     |        .       |        strings: false 0x13ea8.2-0x13ea8.3 (0.1)
0x13ea0|                        00                     |        .       |        merge: false 0x13ea8.3-0x13ea8.4 (0.1)
0x13ea0|                        00                     |        .       |        unused0: 0 0x13ea8.4-0x13ea8.5 (0.1)
0x13ea0|                        00                     |        .       |        execinstr: false 0x13ea8.5-0x13ea8.6 (0.1)
0x13ea0|                        00                     |        .       |        alloc: false 0x13ea8.6-0x13ea8.7 (0.1)
0x13ea0|                        00                     |        .       |        write: false 0x13ea8.7-0x13ea9 (0.1)
0x13ea0|                           00                  |         .      |        tls: false 0x13ea9-0x13ea9.1 (0.1)
0x13ea0|                           00                  |         .      |        group: false 0x13ea9.1-0x13ea9.2 (0.1)
0x13ea0|                           00                  |         .      |        os_nonconforming: false 0x13ea9.2-0x13ea9.3 (0.1)
0x13ea0|                           00 00               |         ..     |        unused1: 0 0x13ea9.3-0x13eaa.4 (1.1)
0x13ea0|                              00 00            |          ..    |        os_specific: 0 0x13eaa.4-0x13eab.4 (1)
0x13ea0|                                 00            |           .    |        processor_specific: 0 0x13eab.4-0x13eac (0.4)
0x13ea0|                                    00 00 00 00|            ....|        unused2: 0 0x13eac-0x13eb0 (4)
0x13eb0|00 00 00 00 00 00 00 00                        |........        |      addr: 0x0 0x13eb0-0x13eb8 (8)
0x13eb0|                        00 00 00 00 00 00 00 00|        ........|      offset: 0x0 0x13eb8-0x13ec0 (8)
0x13ec0|00 00 00 00 00 00 00 00                        |........        |      size: 0 0x13ec0-0x13ec8 (8)
0x13ec0|                        00 00 00 00            |        ....    |      link: 0 0x13ec8-0x13ecc (4)
0x13ec0|                                    00 00 00 00|            ....|      info: 0 0x13ecc-0x13ed0 (4)
0x13ed0|00 00 00 00 00 00 00 00                        |........        |      addralign: 0 0x13ed0-0x13ed8 (8)
0x13ed0|                        00 00 00 00 00 00 00 00|        ........|      entsize: 0 0x13ed8-0x13ee0 (8)
       |                                               |                |    [1]{}: section_header 0x200-0x13f20 (81184)
0x00200|04 00 00 00 20 00 00 00 05 00 00 00 47 4e 55 00|.... .......GNU.|      data: raw bits 0x200-0x230 (48)
*      |until 0x22f.7 (48)                             |                |
0x13ee0|1b 00 00 00                                    |....            |      name: ".note.gnu.property" (27) 0x13ee0-0x13ee4 (4)
0x13ee0|            07 00 00 00                        |    ....        |      type: "note" (0x7) (Information that marks the file in some way) 0x13ee4-0x13ee8 (4)
       |                                               |                |      flags{}: 0x13ee8-0x13ef0 (8)
0x13ee0|                        02                     |        .       |        link_order: false 0x13ee8-0x13ee8.1 (0.1)
0x13ee0|                        02                     |        .       |        info_link: false 0x13ee8.1-0x13ee8.2 (0.1)
0x13ee0|                        02                     |        .       |        strings: false 0x13ee8.2-0x13ee8.3 (0.1)
0x13ee0|                        02                     |        .       |        merge: false 0x13ee8.3-0x13ee8.4 (0.1)
0x13ee0|                        02                     |        .       |        unused0: 0 0x13ee8.4-0x13ee8.5 (0.1)
0x13ee0|                        02                     |        .       |        execinstr: false 0x13ee8.5-0x13ee8.6 (0.1)
0x13ee0|                        02                     |        .       |        alloc: true 0x13ee8.6-0x13ee8.7 (0.1)
0x13ee0|                        02                     |        .       |        write: false 0x13ee8.7-0x13ee9 (0.1)
0x13ee0|                           00                  |         .      |        tls: false 0x13ee9-0x13ee9.1 (0.1)
0x13ee0|                           00                  |         .      |        group: false 0x13ee9.1-0x13ee9.2 (0.1)
0x13ee0|                           00                  |         .      |        os_nonconforming: false 0x13ee9.2-0x13ee9.3 (0.1)
0x13ee0|                           00 00               |         ..     |        unused1: 0 0x13ee9.3-0x13eea.4 (1.1)
0x13ee0|                              00 00            |          ..    |        os_specific: 0 0x13eea.4-0x13eeb.4 (1)
0x13ee0|                                 00            |           .    |        processor_specific: 0 0x13eeb.4-0x13eec (0.4)
0x13ee0|                                    00 00 00 00|            ....|        unused2: 0 0x13eec-0x13ef0 (4)
0x13ef0|00 02 40 00 00 00 00 00                        |..@.....        |      addr: 0x400200 0x13ef0-0x13ef8 (8)
0x13ef0|                        00 02 00 00 00 00 00 00|        ........|      offset: 0x200 0x13ef8-0x13f00 (8)
0x13f00|30 00 00 00 00 00 00 00                        |0.......        |      size: 48 0x13f00-0x13f08 (8)
0x13f00|                        00 00 00 00            |        ....    |      link: 0 0x13f08-0x13f0c (4)
0x13f00|                                    00 00 00 00|            ....|      info: 0 0x13f0c-0x13f10 (4)
0x13f10|08 00 00 00 00 00 00 00                        |........        |      addralign: 8 0x13f10-0x13f18 (8)
0x13f10|                        00 00 00 00 00 00 00 00|        ........|      entsize: 0 0x13f18-0x13f20 (8)
       |                                               |                |    [2]{}: section_header 0x1000-0x13f60 (77664)
0x01000|50 e8 6a 01 00 00 e8 15 0e 00 00 58 c3         |P.j........X.   |      data: raw bits 0x1000-0x100d (13)
0x13f20|2e 00 00 00                                    |....            |      name: ".init" (46) 0x13f20-0x13f24 (4)
0x13f20|            01 00 00 00                        |    ....        |      type: "progbits" (0x1) (Information defined by the program) 0x13f24-0x13f28 (4)
       |                                               |                |      flags{}: 0x13f28-0x13f30 (8)
0x13f20|                        06                     |        .       |        link_order: false 0x13f28-0x13f28.1 (0.1)
0x13f20|                        06                     |        .       |        info_link: false 0x13f28.1-0x13f28.2 (0.1)
0x13f20|                        06                     |        .       |        strings: false 0x13f28.2-0x13f28.3 (0.1)
0x13f20|                        06                     |        .       |        merge: false 0x13f28.3-0x13f28.4 (0.1)
0x13f20|                        06                     |        .       |        unused0: 0 0x13f28.4-0x13f28.5 (0.1)
0x13f20|                        06                     |        .       |        execinstr: true 0x13f28.5-0x13f28.6 (0.1)
0x13f20|                        06                     |        .       |        alloc: true 0x13f28.6-0x13f28.7 (0.1)
0x13f20|                        06                     |        .       |        write: false 0x13f28.7-0x13f29 (0.1)
0x13f20|                           00                  |         .      |        tls: false 0x13f29-0x13f29.1 (0.1)
0x13f20|                           00                  |         .      |        group: false 0x13f29.1-0x13f29.2 (0.1)
0x13f20|                           00                  |         .      |        os_nonconforming: false 0x13f29.2-0x13f29.3 (0.1)
0x13f20|                           00 00               |         ..     |        unused1: 0 0x13f29.3-0x13f2a.4 (1.1)
0x13f20|                              00 00            |          ..    |        os_specific: 0 0x13f2a.4-0x13f2b.4 (1)
0x13f20|                                 00            |           .    |        processor_specific: 0 0x13f2b.4-0x13f2c (0.4)
0x13f20|                                    00 00 00 00|            ....|        unused2: 0 0x13f2c-0x13f30 (4)
0x13f30|00 10 40 00 00 00 00 00                        |..@.....        |      addr: 0x401000 0x13f30-0x13f38 (8)
0x13f30|                        00 10 00 00 00 00 00 00|        ........|      offset: 0x1000 0x13f38-0x13f40 (8)
0x13f40|0d 00 00 00 00 00 00 00                        |........        |      size: 13 0x13f40-0x13f48 (8)
0x13f40|                        00 00 00 00            |        ....    |      link: 0 0x13f48-0x13f4c (4)
0x13f40|                                    00 00 00 00|            ....|      info: 0 0x13f4c-0x13f50 (4)
0x13f50|01 00 00 00 00 00 00 00                        |........        |      addralign: 1 0x13f50-0x13f58 (8)
0x13f50|                        00 00 00 00 00 00 00 00|        ........|      entsize: 0 0x13f58-0x13f60 (8)
       |                                               |                |    [3]{}: section_header 0x1010-0x13fa0 (77712)
0x01010|48 83 ec 18 89 7c 24 0c e8 d4 03 00 00 e8 d0 03|H....|$.........|      data: raw bits 0x1010-0x1e61 (3665)
*      |until 0x1e60.7 (3665)                          |                |
0x13f60|34 00 00 00                                    |4...            |      name: ".text" (52) 0x13f60-0x13f64 (4)
0x13f60|            01 00 00 00                        |    ....        |      type: "progbits" (0x1) (Information defined by the program) 0x13f64-0x13f68 (4)
       |                                               |                |      flags{}: 0x13f68-0x13f70 (8)
0x13f60|                        06                     |        .       |        link_order: false 0x13f68-0x13f68.1 (0.1)
0x13f60|                        06                     |        .       |        info_link: false 0x13f68.1-0x13f68.2 (0.1)
0x13f60|                        06                     |        .       |        strings: false 0x13f68.2-0x13f68.3 (0.1)
0x13f60|                        06                     |        .       |        merge: false 0x13f68.3-0x13f68.4 (0.1)
0x13f60|                        06                     |        .       |        unused0: 0 0x13f68.4-0x13f68.5 (0.1)
0x13f60|                        06                     |        .       |        execinstr: true 0x13f68.5-0x13f68.6 (0.1)
0x13f60|                        06                     |        .       |        alloc: true 0x13f68.6-0x13f68.7 (0.1)
0x13f60|                        06                     |        .       |        write: false 0x13f68.7-0x13f69 (0.1)
0x13f60|                           00                  |         .      |        tls: false 0x13f69-0x13f69.1 (0.1)
0x13f60|                           00                  |         .      |        group: false 0x13f69.1-0x13f69.2 (0.1)
0x13f60|                           00                  |         .      |        os_nonconforming: false 0x13f69.2-0x13f69.3 (0.1)
0x13f60|                           00 00               |         ..     |        unused1: 0 0x13f69.3-0x13f6a.4 (1.1)
0x13f60|                              00 00            |          ..    |        os_specific: 0 0x13f6a.4-0x13f6b.4 (1)
0x13f60|                                 00            |           .    |        processor_specific: 0 0x13f6b.4-0x13f6c (0.4)
0x13f60|                                    00 00 00 00|            ....|        unused2: 0 0x13f6c-0x13f70 (4)
0x13f70|10 10 40 00 00 00 00 00                        |..@.....        |      addr: 0x401010 0x13f70-0x13f78 (8)
0x13f70|                        10 10 00 00 00 00 00 00|        ........|      offset: 0x1010 0x13f78-0x13f80 (8)
0x13f80|51 0e 00 00 00 00 00 00                        |Q.......        |      size: 3665 0x13f80-0x13f88 (8)
0x13f80|                        00 00 00 00            |        ....    |      link: 0 0x13f88-0x13f8c (4)
0x13f80|                                    00 00 00 00|            ....|      info: 0 0x13f8c-0x13f90 (4)
0x13f90|10 00 00 00 00 00 00 00                        |........        |      addralign: 16 0x13f90-0x13f98 (8)
0x13f90|                        00 00 00 00 00 00 00 00|        ........|      entsize: 0 0x13f98-0x13fa0 (8)
       |                                               |                |    [4]{}: section_header 0x1e61-0x13fe0 (74111)
0x01e60|   50 e8 79 f2 ff ff 58 c3                     | P.y...X.       |      data: raw bits 0x1e61-0x1e69 (8)
0x13fa0|3a 00 00 00                                    |:...            |      name: ".fini" (58) 0x13fa0-0x13fa4 (4)
0x13fa0|            01 00 00 00                        |    ....        |      type: "progbits" (0x1) (Information defined by the program) 0x13fa4-0x13fa8 (4)
       |                                               |                |      flags{}: 0x13fa8-0x13fb0 (8)
0x13fa0|                        06                     |        .       |        link_order: false 0x13fa8-0x13fa8.1 (0.1)
0x13fa0|                        06                     |        .       |        info_link: false 0x13fa8.1-0x13fa8.2 (0.1)
0x13fa0|                        06                     |        .       |        strings: false 0x13fa8.2-0x13fa8.3 (0.1)
0x13fa0|                        06                     |        .       |        merge: false 0x13fa8.3-0x13fa8.4 (0.1)
0x13fa0|                        06                     |        .       |        unused0: 0 0x13fa8.4-0x13fa8.5 (0.1)
0x13fa0|                        06                     |        .       |        execinstr: true 0x13fa8.5-0x13fa8.6 (0.1)
0x13fa0|                        06                     |        .       |        alloc: true 0x13fa8.6-0x13fa8.7 (0.1)
0x13fa0|                        06                     |        .       |        write: false 0x13fa8.7-0x13fa9 (0.1)
0x13fa0|                           00                  |         .      |        tls: false 0x13fa9-0x13fa9.1 (0.1)
0x13fa0|                           00                  |         .      |        group: false 0x13fa9.1-0x13fa9.2 (0.1)
0x13fa0|                           00                  |         .      |        os_nonconforming: false 0x13fa9.2-0x13fa9.3 (0.1)
0x13fa0|                           00 00               |         ..     |        unused1: 0 0x13fa9.3-0x13faa.4 (1.1)
0x13fa0|                              00 00            |          ..    |        os_specific: 0 0x13faa.4-0x13fab.4 (1)
0x13fa0|                                 00            |           .    |        processor_specific: 0 0x13fab.4-0x13fac (0.4)
0x13fa0|                                    00 00 00 00|            ....|        unused2: 0 0x13fac-0x13fb0 (4)
0x13fb0|61 1e 40 00 00 00 00 00                        |a.@.....        |      addr: 0x401e61 0x13fb0-0x13fb8 (8)
0x13fb0|                        61 1e 00 00 00 00 00 00|        a.......|      offset: 0x1e61 0x13fb8-0x13fc0 (8)
0x13fc0|08 00 00 00 00 00 00 00                        |........        |      size: 8 0x13fc0-0x13fc8 (8)
0x13fc0|                        00 00 00 00            |        ....    |      link: 0 0x13fc8-0x13fcc (4)
0x13fc0|                                    00 00 00 00|            ....|      info: 0 0x13fcc-0x13fd0 (4)
0x13fd0|01 00 00 00 00 00 00 00                        |........        |      addralign: 1 0x13fd0-0x13fd8 (8)
0x13fd0|                        00 00 00 00 00 00 00 00|        ........|      entsize: 0 0x13fd8-0x13fe0 (8)
       |                                               |                |    [5]{}: section_header 0x2000-0x14020 (73760)
0x02000|61 61 61 00 6c 69 62 62 62 62 5f 62 62 62 00 2f|aaa.libbbb_bbb./|      data: raw bits 0x2000-0x2019 (25)
0x02010|64 65 76 2f 6e 75 6c 6c 00                     |dev/null.       |
0x13fe0|40 00 00 00                                    |@...            |      name: ".rodata" (64) 0x13fe0-0x13fe4 (4)
0x13fe0|            01 00 00 00                        |    ....        |      type: "progbits" (0x1) (Information defined by the program) 0x13fe4-0x13fe8 (4)
       |                                               |                |      flags{}: 0x13fe8-0x13ff0 (8)
0x13fe0|                        02                     |        .       |        link_order: false 0x13fe8-0x13fe8.1 (0.1)
0x13fe0|                        02                     |        .       |        info_link: false 0x13fe8.1-0x13fe8.2 (0.1)
0x13fe0|                        02                     |        .       |        strings: false 0x13fe8.2-0x13fe8.3 (0.1)
0x13fe0|                        02                     |        .       |        merge: false 0x13fe8.3-0x13fe8.4 (0.1)
0x13fe0|                        02                     |        .       |        unused0: 0 0x13fe8.4-0x13fe8.5 (0.1)
0x13fe0|                        02                     |        .       |        execinstr: false 0x13fe8.5-0x13fe8.6 (0.1)
0x13fe0|                        02                     |        .       |        alloc: true 0x13fe8.6-0x13fe8.7 (0.1)
0x13fe0|                        02                     |        .       |        write: false 0x13fe8.7-0x13fe9 (0.1)
0x13fe0|                           00                  |         .      |        tls: false 0x13fe9-0x13fe9.1 (0.1)
0x13fe0|                           00                  |         .      |        group: false 0x13fe9.1-0x13fe9.2 (0.1)
0x13fe0|                           00                  |         .      |        os_nonconforming: false 0x13fe9.2-0x13fe9.3 (0.1)
0x13fe0|                           00 00               |         ..     |        unused1: 0 0x13fe9.3-0x13fea.4 (1.1)
0x13fe0|                              00 00            |          ..    |        os_specific: 0 0x13fea.4-0x13feb.4 (1)
0x13fe0|                                 00            |           .    |        processor_specific: 0 0x13feb.4-0x13fec (0.4)
0x13fe0|                                    00 00 00 00|            ....|        unused2: 0 0x13fec-0x13ff0 (4)
0x13ff0|00 20 40 00 00 00 00 00                        |. @.....        |      addr: 0x402000 0x13ff0-0x13ff8 (8)
0x13ff0|                        00 20 00 00 00 00 00 00|        . ......|      offset: 0x2000 0x13ff8-0x14000 (8)
0x14000|19 00 00 00 00 00 00 00                        |........        |      size: 25 0x14000-0x14008 (8)
0x14000|                        00 00 00 00            |        ....    |      link: 0 0x14008-0x1400c (4)
0x14000|                                    00 00 00 00|            ....|      info: 0 0x1400c-0x14010 (4)
0x14010|01 00 00 00 00 00 00 00                        |........        |      addralign: 1 0x14010-0x14018 (8)
0x14010|                        00 00 00 00 00 00 00 00|        ........|      entsize: 0 0x14018-0x14020 (8)
       |                                               |                |    [6]{}: section_header 0x2020-0x14060 (73792)
0x02020|14 00 00 00 00 00 00 00 01 7a 52 00 01 78 10 01|.........zR..x..|      data: raw bits 0x2020-0x209c (124)
*      |until 0x209b.7 (124)                           |                |
0x14020|48 00 00 00                                    |H...            |      name: ".eh_frame" (72) 0x14020-0x14024 (4)
0x14020|            01 00 00 00                        |    ....        |      type: "progbits" (0x1) (Information defined by the program) 0x14024-0x14028 (4)
       |                                               |                |      flags{}: 0x14028-0x14030 (8)
0x14020|                        02                     |        .       |        link_order: false 0x14028-0x14028.1 (0.1)
0x14020|                        02                     |        .       |        info_link: false 0x14028.1-0x14028.2 (0.1)
0x14020|                        02                     |        .       |        strings: false 0x14028.2-0x14028.3 (0.1)
0x14020|                        02                     |        .       |        merge: false 0x14028.3-0x14028.4 (0.1)
0x14020|                        02                     |        .       |        unused0: 0 0x14028.4-0x14028.5 (0.1)
0x14020|                        02                     |        .       |        execinstr: false 0x14028.5-0x14028.6 (0.1)
0x14020|                        02                     |        .       |        alloc: true 0x14028.6-0x14028.7 (0.1)
0x14020|                        02                     |        .       |        write: false 0x14028.7-0x14029 (0.1)
0x14020|                           00                  |         .      |        tls: false 0x14029-0x14029.1 (0.1)
0x14020|                           00                  |         .      |        group: false 0x14029.1-0x14029.2 (0.1)
0x14020|                           00                  |         .      |        os_nonconforming: false 0x14029.2-0x14029.3 (0.1)
0x14020|                           00 00               |         ..     |        unused1: 0 0x14029.3-0x1402a.4 (1.1)
0x14020|                              00 00            |          ..    |        os_specific: 0 0x1402a.4-0x1402b.4 (1)
0x14020|                                 00            |           .    |        processor_specific: 0 0x1402b.4-0x1402c (0.4)
0x14020|                                    00 00 00 00|            ....|        unused2: 0 0x1402c-0x14030 (4)
0x14030|20 20 40 00 00 00 00 00                        |  @.....        |      addr: 0x402020 0x14030-0x14038 (8)
0x14030|                        20 20 00 00 00 00 00 00|          ......|      offset: 0x2020 0x14038-0x14040 (8)
0x14040|7c 00 00 00 00 00 00 00                        ||.......        |      size: 124 0x14040-0x14048 (8)
0x14040|                        00 00 00 00            |        ....    |      link: 0 0x14048-0x1404c (4)
0x14040|                                    00 00 00 00|            ....|      info: 0 0x1404c-0x14050 (4)
0x14050|08 00 00 00 00 00 00 00                        |........        |      addralign: 8 0x14050-0x14058 (8)
0x14050|                        00 00 00 00 00 00 00 00|        ........|      entsize: 0 0x14058-0x14060 (8)
       |                                               |                |    [7]{}: section_header 0x2fd0-0x140a0 (69840)
0x02fd0|ff ff ff ff ff ff ff ff 00 00 00 00 00 00 00 00|................|      data: raw bits 0x2fd0-0x2fe0 (16)
0x14060|52 00 00 00                                    |R...            |      name: ".ctors" (82) 0x14060-0x14064 (4)
0x14060|            01 00 00 00                        |    ....        |      type: "progbits" (0x1) (Information defined by the program) 0x14064-0x14068 (4)
       |                                               |                |      flags{}: 0x14068-0x14070 (8)
0x14060|                        03                     |        .       |        link_order: false 0x14068-0x14068.1 (0.1)
0x14060|                        03                     |        .       |        info_link: false 0x14068.1-0x14068.2 (0.1)
0x14060|                        03                     |        .       |        strings: false 0x14068.2-0x14068.3 (0.1)
0x14060|                        03                     |        .       |        merge: false 0x14068.3-0x14068.4 (0.1)
0x14060|                        03                     |        .       |        unused0: 0 0x14068.4-0x14068.5 (0.1)
0x14060|                        03                     |        .       |        execinstr: false 0x14068.5-0x14068.6 (0.1)
0x14060|                        03                     |        .       |        alloc: true 0x14068.6-0x14068.7 (0.1)
0x14060|                        03                     |        .       |        write: true 0x14068.7-0x14069 (0.1)
0x14060|                           00                  |         .      |        tls: false 0x14069-0x14069.1 (0.1)
0x14060|                           00                  |         .      |        group: false 0x14069.1-0x14069.2 (0.1)
0x14060|                           00                  |         .      |        os_nonconforming: false 0x14069.2-0x14069.3 (0.1)
0x14060|                           00 00               |         ..     |        unused1: 0 0x14069.3-0x1406a.4 (1.1)
0x14060|                              00 00            |          ..    |        os_specific: 0 0x1406a.4-0x1406b.4 (1)
0x14060|                                 00            |           .    |        processor_specific: 0 0x1406b.4-0x1406c (0.4)
0x14060|                                    00 00 00 00|            ....|        unused2: 0 0x1406c-0x14070 (4)
0x14070|d0 3f 40 00 00 00 00 00                        |.?@.....        |      addr: 0x403fd0 0x14070-0x14078 (8)
0x14070|                        d0 2f 00 00 00 00 00 00|        ./......|      offset: 0x2fd0 0x14078-0x14080 (8)
0x14080|10 00 00 00 00 00 00 00                        |........        |      size: 16 0x14080-0x14088 (8)
0x14080|                        00 00 00 00            |        ....    |      link: 0 0x14088-0x1408c (4)
0x14080|                                    00 00 00 00|            ....|      info: 0 0x1408c-0x14090 (4)
0x14090|08 00 00 00 00 00 00 00                        |........        |      addralign: 8 0x14090-0x14098 (8)
0x14090|                        00 00 00 00 00 00 00 00|        ........|      entsize: 0 0x14098-0x140a0 (8)
       |                                               |                |    [8]{}: section_header 0x2fe0-0x140e0 (69888)
0x02fe0|ff ff ff ff ff ff ff ff 00 00 00 00 00 00 00 00|................|      data: raw bits 0x2fe0-0x2ff0 (16)
0x140a0|59 00 00 00                                    |Y...            |      name: ".dtors" (89) 0x140a0-0x140a4 (4)
0x140a0|            01 00 00 00                        |    ....        |      type: "progbits" (0x1) (Information defined by the program) 0x140a4-0x140a8 (4)
       |                                               |                |      flags{}: 0x140a8-0x140b0 (8)
0x140a0|                        03                     |        .       |        link_order: false 0x140a8-0x140a8.1 (0.1)
0x140a0|                        03                     |        .       |        info_link: false 0x140a8.1-0x140a8.2 (0.1)
0x140a0|                        03                     |        .       |        strings: false 0x140a8.2-0x140a8.3 (0.1)
0x140a0|                        03                     |        .       |        merge: false 0x140a8.3-0x140a8.4 (0.1)
0x140a0|                        03                     |        .       |        unused0: 0 0x140a8.4-0x140a8.5 (0.1)
0x140a0|                        03                     |        .       |        execinstr: false 0x140a8.5-0x140a8.6 (0.1)
0x140a0|                        03                     |        .       |        alloc: true 0x140a8.6-0x140a8.7 (0.1)
0x140a0|                        03                     |        .       |        write: true 0x140a8.7-0x140a9 (0.1)
0x140a0|                           00                  |         .      |        tls: false 0x140a9-0x140a9.1 (0.1)
0x140a0|                           00                  |         .      |        group: false 0x140a9.1-0x140a9.2 (0.1)
0x140a0|                           00                  |         .      |        os_nonconforming: false 0x140a9.2-0x140a9.3 (0.1)
0x140a0|                           00 00               |         ..     |        unused1: 0 0x140a9.3-0x140aa.4 (1.1)
0x140a0|                              00 00            |          ..    |        os_specific: 0 0x140aa.4-0x140ab.4 (1)
0x140a0|                                 00            |           .    |        processor_specific: 0 0x140ab.4-0x140ac (0.4)
0x140a0|                                    00 00 00 00|            ....|        unused2: 0 0x140ac-0x140b0 (4)
0x140b0|e0 3f 40 00 00 00 00 00                        |.?@.....        |      addr: 0x403fe0 0x140b0-0x140b8 (8)
0x140b0|                        e0 2f 00 00 00 00 00 00|        ./......|      offset: 0x2fe0 0x140b8-0x140c0 (8)
0x140c0|10 00 00 00 00 00 00 00                        |........        |      size: 16 0x140c0-0x140c8 (8)
0x140c0|                        00 00 00 00            |        ....    |      link: 0 0x140c8-0x140cc (4)
0x140c0|                                    00 00 00 00|            ....|      info: 0 0x140cc-0x140d0 (4)
0x140d0|08 00 00 00 00 00 00 00                        |........        |      addralign: 8 0x140d0-0x140d8 (8)
0x140d0|                        00 00 00 00 00 00 00 00|        ........|      entsize: 0 0x140d8-0x140e0 (8)
       |                                               |                |    [9]{}: section_header 0x2ff0-0x14120 (69936)
0x02ff0|20 40 40 00 00 00 00 00 e0 47 40 00 00 00 00 00| @@......G@.....|      data: raw bits 0x2ff0-0x3000 (16)
0x140e0|60 00 00 00                                    |`...            |      name: ".data.rel.ro" (96) 0x140e0-0x140e4 (4)
0x140e0|            01 00 00 00                        |    ....        |      type: "progbits" (0x1) (Information defined by the program) 0x140e4-0x140e8 (4)
       |                                               |                |      flags{}: 0x140e8-0x140f0 (8)
0x140e0|                        03                     |        .       |        link_order: false 0x140e8-0x140e8.1 (0.1)
0x140e0|                        03                     |        .       |        info_link: false 0x140e8.1-0x140e8.2 (0.1)
0x140e0|                        03                     |        .       |        strings: false 0x140e8.2-0x140e8.3 (0.1)
0x140e0|                        03                     |        .       |        merge: false 0x140e8.3-0x140e8.4 (0.1)
0x140e0|                        03                     |        .       |        unused0: 0 0x140e8.4-0x140e8.5 (0.1)
0x140e0|                        03                     |        .       |        execinstr: false 0x140e8.5-0x140e8.6 (0.1)
0x140e0|                        03                     |        .       |        alloc: true 0x140e8.6-0x140e8.7 (0.1)
0x140e0|                        03                     |        .       |        write: true 0x140e8.7-0x140e9 (0.1)
0x140e0|                           00                  |         .      |        tls: false 0x140e9-0x140e9.1 (0.1)
0x140e0|                           00                  |         .      |        group: false 0x140e9.1-0x140e9.2 (0.1)
0x140e0|                           00                  |         .      |        os_nonconforming: false 0x140e9.2-0x140e9.3 (0.1)
0x140e0|                           00 00               |         ..     |        unused1: 0 0x140e9.3-0x140ea.4 (1.1)
0x140e0|                              00 00            |          ..    |        os_specific: 0 0x140ea.4-0x140eb.4 (1)
0x140e0|                                 00            |           .    |        processor_specific: 0 0x140eb.4-0x140ec (0.4)
0x140e0|                                    00 00 00 00|            ....|        unused2: 0 0x140ec-0x140f0 (4)
0x140f0|f0 3f 40 00 00 00 00 00                        |.?@.....        |      addr: 0x403ff0 0x140f0-0x140f8 (8)
0x140f0|                        f0 2f 00 00 00 00 00 00|        ./......|      offset: 0x2ff0 0x140f8-0x14100 (8)
0x14100|10 00 00 00 00 00 00 00                        |........        |      size: 16 0x14100-0x14108 (8)
0x14100|                        00 00 00 00            |        ....    |      link: 0 0x14108-0x1410c (4)
0x14100|                                    00 00 00 00|            ....|      info: 0 0x1410c-0x14110 (4)
0x14110|08 00 00 00 00 00 00 00                        |........        |      addralign: 8 0x14110-0x14118 (8)
0x14110|                        00 00 00 00 00 00 00 00|        ........|      entsize: 0 0x14118-0x14120 (8)
       |                                               |                |    [10]{}: section_header 0x3000-0x14160 (69984)
0x03000|00 00 00 00 00 00 00 00 20 40 40 00 00 00 00 00|........ @@.....|      data: raw bits 0x3000-0x3110 (272)
*      |until 0x310f.7 (272)                           |                |
0x14120|6d 00 00 00                                    |m...            |      name: ".data" (109) 0x14120-0x14124 (4)
0x14120|            01 00 00 00                        |    ....        |      type: "progbits" (0x1) (Information defined by the program) 0x14124-0x14128 (4)
       |                                               |                |      flags{}: 0x14128-0x14130 (8)
0x14120|                        03                     |        .       |        link_order: false 0x14128-0x14128.1 (0.1)
0x14120|                        03                     |        .       |        info_link: false 0x14128.1-0x14128.2 (0.1)
0x14120|                        03                     |        .       |        strings: false 0x14128.2-0x14128.3 (0.1)
0x14120|                        03                     |        .       |        merge: false 0x14128.3-0x14128.4 (0.1)
0x14120|                        03                     |        .       |        unused0: 0 0x14128.4-0x14128.5 (0.1)
0x14120|                        03                     |        .       |        execinstr: false 0x14128.5-0x14128.6 (0.1)
0x14120|                        03                     |        .       |        alloc: true 0x14128.6-0x14128.7 (0.1)
0x14120|                        03                     |        .       |        write: true 0x14128.7-0x14129 (0.1)
0x14120|                           00                  |         .      |        tls: false 0x14129-0x14129.1 (0.1)
0x14120|                           00                  |         .      |        group: false 0x14129.1-0x14129.2 (0.1)
0x14120|                           00                  |         .      |        os_nonconforming: false 0x14129.2-0x14129.3 (0.1)
0x14120|                           00 00               |         ..     |        unused1: 0 0x14129.3-0x1412a.4 (1.1)
0x14120|                              00 00            |          ..    |        os_specific: 0 0x1412a.4-0x1412b.4 (1)
0x14120|                                 00            |           .    |        processor_specific: 0 0x1412b.4-0x1412c (0.4)
0x14120|                                    00 00 00 00|            ....|        unused2: 0 0x1412c-0x14130 (4)
0x14130|00 40 40 00 00 00 00 00                        |.@@.....        |      addr: 0x404000 0x14130-0x14138 (8)
0x14130|                        00 30 00 00 00 00 00 00|        .0......|      offset: 0x3000 0x14138-0x14140 (8)
0x14140|10 01 00 00 00 00 00 00                        |........        |      size: 272 0x14140-0x14148 (8)
0x14140|                        00 00 00 00            |        ....    |      link: 0 0x14148-0x1414c (4)
0x14140|                                    00 00 00 00|            ....|      info: 0 0x1414c-0x14150 (4)
0x14150|20 00 00 00 00 00 00 00                        | .......        |      addralign: 32 0x14150-0x14158 (8)
0x14150|                        00 00 00 00 00 00 00 00|        ........|      entsize: 0 0x14158-0x14160 (8)
       |                                               |                |    [11]{}: section_header 0x14160-0x141a0 (64)
0x14160|73 00 00 00                                    |s...            |      name: ".bss" (115) 0x14160-0x14164 (4)
0x14160|            08 00 00 00                        |    ....        |      type: "nobits" (0x8) (No space in the file) 0x14164-0x14168 (4)
       |                                               |                |      flags{}: 0x14168-0x14170 (8)
0x14160|                        03                     |        .       |        link_order: false 0x14168-0x14168.1 (0.1)
0x14160|                        03                     |        .       |        info_link: false 0x14168.1-0x14168.2 (0.1)
0x14160|                        03                     |        .       |        strings: false 0x14168.2-0x14168.3 (0.1)
0x14160|                        03                     |        .       |        merge: false 0x14168.3-0x14168.4 (0.1)
0x14160|                        03                     |        .       |        unused0: 0 0x14168.4-0x14168.5 (0.1)
0x14160|                        03                     |        .       |        execinstr: false 0x14168.5-0x14168.6 (0.1)
0x14160|                        03                     |        .       |        alloc: true 0x14168.6-0x14168.7 (0.1)
0x14160|                        03                     |        .       |        write: true 0x14168.7-0x14169 (0.1)
0x14160|                           00                  |         .      |        tls: false 0x14169-0x14169.1 (0.1)
0x14160|                           00                  |         .      |        group: false 0x14169.1-0x14169.2 (0.1)
0x14160|                           00                  |         .      |        os_nonconforming: false 0x14169.2-0x14169.3 (0.1)
0x14160|                           00 00               |         ..     |        unused1: 0 0x14169.3-0x1416a.4 (1.1)
0x14160|                              00 00            |          ..    |        os_specific: 0 0x1416a.4-0x1416b.4 (1)
0x14160|                                 00            |           .    |        processor_specific: 0 0x1416b.4-0x1416c (0.4)
0x14160|                                    00 00 00 00|            ....|        unused2: 0 0x1416c-0x14170 (4)
0x14170|20 41 40 00 00 00 00 00                        | A@.....        |      addr: 0x404120 0x14170-0x14178 (8)
0x14170|                        10 31 00 00 00 00 00 00|        .1......|      offset: 0x3110 0x14178-0x14180 (8)
0x14180|d0 06 00 00 00 00 00 00                        |........        |      size: 1744 0x14180-0x14188 (8)
0x14180|                        00 00 00 00            |        ....    |      link: 0 0x14188-0x1418c (4)
0x14180|                                    00 00 00 00|            ....|      info: 0 0x1418c-0x14190 (4)
0x14190|20 00 00 00 00 00 00 00                        | .......        |      addralign: 32 0x14190-0x14198 (8)
0x14190|                        00 00 00 00 00 00 00 00|        ........|      entsize: 0 0x14198-0x141a0 (8)
       |                                               |                |    [12]{}: section_header 0x3110-0x141e0 (69840)
0x03110|47 43 43 3a 20 28 41 6c 70 69 6e 65 20 31 30 2e|GCC: (Alpine 10.|      data: raw bits 0x3110-0x3141 (49)
*      |until 0x3140.7 (49)                            |                |
0x141a0|78 00 00 00                                    |x...            |      name: ".comment" (120) 0x141a0-0x141a4 (4)
0x141a0|            01 00 00 00                        |    ....        |      type: "progbits" (0x1) (Information defined by the program) 0x141a4-0x141a8 (4)
       |                                               |                |      flags{}: 0x141a8-0x141b0 (8)
0x141a0|                        30                     |        0       |        link_order: false 0x141a8-0x141a8.1 (0.1)
0x141a0|                        30                     |        0       |        info_link: false 0x141a8.1-0x141a8.2 (0.1)
0x141a0|                        30                     |        0       |        strings: true 0x141a8.2-0x141a8.3 (0.1)
0x141a0|                        30                     |        0       |        merge: true 0x141a8.3-0x141a8.4 (0.1)
0x141a0|                        30                     |        0       |        unused0: 0 0x141a8.4-0x141a8.5 (0.1)
0x141a0|                        30                     |        0       |        execinstr: false 0x141a8.5-0x141a8.6 (0.1)
0x141a0|                        30                     |        0       |        alloc: false 0x141a8.6-0x141a8.7 (0.1)
0x141a0|                        30                     |        0       |        write: false 0x141a8.7-0x141a9 (0.1)
0x141a0|                           00                  |         .      |        tls: false 0x141a9-0x141a9.1 (0.1)
0x141a0|                           00                  |         .      |        group: false 0x141a9.1-0x141a9.2 (0.1)
0x141a0|                           00                  |         .      |        os_nonconforming: false 0x141a9.2-0x141a9.3 (0.1)
0x141a0|                           00 00               |         ..     |        unused1: 0 0x141a9.3-0x141aa.4 (1.1)
0x141a0|                              00 00            |          ..    |        os_specific: 0 0x141aa.4-0x141ab.4 (1)
0x141a0|                                 00            |           .    |        processor_specific: 0 0x141ab.4-0x141ac (0.4)
0x141a0|                                    00 00 00 00|            ....|        unused2: 0 0x141ac-0x141b0 (4)
0x141b0|00 00 00 00 00 00 00 00                        |........        |      addr: 0x0 0x141b0-0x141b8 (8)
0x141b0|                        10 31 00 00 00 00 00 00|        .1......|      offset: 0x3110 0x141b8-0x141c0 (8)
0x141c0|31 00 00 00 00 00 00 00                        |1.......        |      size: 49 0x141c0-0x141c8 (8)
0x141c0|                        00 00 00 00            |        ....    |      link: 0 0x141c8-0x141cc (4)
0x141c0|                                    00 00 00 00|            ....|      info: 0 0x141cc-0x141d0 (4)
0x141d0|01 00 00 00 00 00 00 00                        |........        |      addralign: 1 0x141d0-0x141d8 (8)
0x141d0|                        01 00 00 00 00 00 00 00|        ........|      entsize: 1 0x141d8-0x141e0 (8)
       |                                               |                |    [13]{}: section_header 0x3150-0x14220 (69840)
0x03150|2c 00 00 00 02 00 00 00 00 00 08 00 00 00 00 00|,...............|      data: raw bits 0x3150-0x37f0 (1696)
*      |until 0x37ef.7 (1696)                          |                |
0x141e0|81 00 00 00                                    |....            |      name: ".debug_aranges" (129) 0x141e0-0x141e4 (4)
0x141e0|            01 00 00 00                        |    ....        |      type: "progbits" (0x1) (Information defined by the program) 0x141e4-0x141e8 (4)
       |                                               |                |      flags{}: 0x141e8-0x141f0 (8)
0x141e0|                        00                     |        .       |        link_order: false 0x141e8-0x141e8.1 (0.1)
0x141e0|                        00                     |        .       |        info_link: false 0x141e8.1-0x141e8.2 (0.1)
0x141e0|                        00                     |        .       |        strings: false 0x141e8.2-0x141e8.3 (0.1)
0x141e0|                        00                     |        .       |        merge: false 0x141e8.3-0x141e8.4 (0.1)
0x141e0|                        00                     |        .       |        unused0: 0 0x141e8.4-0x141e8.5 (0.1)
0x141e0|                        00                     |        .       |        execinstr: false 0x141e8.5-0x141e8.6 (0.1)
0x141e0|                        00                     |        .       |        alloc: false 0x141e8.6-0x141e8.7 (0.1)
0x141e0|                        00                     |        .       |        write: false 0x141e8.7-0x141e9 (0.1)
0x141e0|                           00                  |         .      |        tls: false 0x141e9-0x141e9.1 (0.1)
0x141e0|                           00                  |         .      |        group: false 0x141e9.1-0x141e9.2 (0.1)
0x141e0|                           00                  |         .      |        os_nonconforming: false 0x141e9.2-0x141e9.3 (0.1)
0x141e0|                           00 00               |         ..     |        unused1: 0 0x141e9.3-0x141ea.4 (1.1)
0x141e0|                              00 00            |          ..    |        os_specific: 0 0x141ea.4-0x141eb.4 (1)
0x141e0|                                 00            |           .    |        processor_specific: 0 0x141eb.4-0x141ec (0.4)
0x141e0|                                    00 00 00 00|            ....|        unused2: 0 0x141ec-0x141f0 (4)
0x141f0|00 00 00 00 00 00 00 00                        |........        |      addr: 0x0 0x141f0-0x141f8 (8)
0x141f0|                        50 31 00 00 00 00 00 00|        P1......|      offset: 0x3150 0x141f8-0x14200 (8)
0x14200|a0 06 00 00 00 00 00 00                        |........        |      size: 1696 0x14200-0x14208 (8)
0x14200|                        00 00 00 00            |        ....    |      link: 0 0x14208-0x1420c (4)
0x14200|                                    00 00 00 00|            ....|      info: 0 0x1420c-0x14210 (4)
0x14210|10 00 00 00 00 00 00 00                        |........        |      addralign: 16 0x14210-0x14218 (8)
0x14210|                        00 00 00 00 00 00 00 00|        ........|      entsize: 0 0x14218-0x14220 (8)
       |                                               |                |    [14]{}: section_header 0x37f0-0x14260 (68208)
0x037f0|f1 00 00 00 04 00 00 00 00 00 08 01 73 00 00 00|............s...|      data: raw bits 0x37f0-0x99f8 (25096)
*      |until 0x99f7.7 (25096)                         |                |
0x14220|90 00 00 00                                    |....            |      name: ".debug_info" (144) 0x14220-0x14224 (4)
0x14220|            01 00 00 00                        |    ....        |      type: "progbits" (0x1) (Information defined by the program) 0x14224-0x14228 (4)
       |                                               |                |      flags{}: 0x14228-0x14230 (8)
0x14220|                        00                     |        .       |        link_order: false 0x14228-0x14228.1 (0.1)
0x14220|                        00                     |        .       |        info_link: false 0x14228.1-0x14228.2 (0.1)
0x14220|                        00                     |        .       |        strings: false 0x14228.2-0x14228.3 (0.1)
0x14220|                        00                     |        .       |        merge: false 0x14228.3-0x14228.4 (0.1)
0x14220|                        00                     |        .       |        unused0: 0 0x14228.4-0x14228.5 (0.1)
0x14220|                        00                     |        .       |        execinstr: false 0x14228.5-0x14228.6 (0.1)
0x14220|                        00                     |        .       |        alloc: false 0x14228.6-0x14228.7 (0.1)
0x14220|                        00                     |        .       |        write: false 0x14228.7-0x14229 (0.1)
0x14220|                           00                  |         .      |        tls: false 0x14229-0x14229.1 (0.1)
0x14220|                           00                  |         .      |        group: false 0x14229.1-0x14229.2 (0.1)
0x14220|                           00                  |         .      |        os_nonconforming: false 0x14229.2-0x14229.3 (0.1)
0x14220|                           00 00               |         ..     |        unused1: 0 0x14229.3-0x1422a.4 (1.1)
0x14220|                              00 00            |          ..    |        os_specific: 0 0x1422a.4-0x1422b.4 (1)
0x14220|                                 00            |           .    |        processor_specific: 0 0x1422b.4-0x1422c (0.4)
0x14220|                                    00 00 00 00|            ....|        unused2: 0 0x1422c-0x14230 (4)
0x14230|00 00 00 00 00 00 00 00                        |........        |      addr: 0x0 0x14230-0x14238 (8)
0x14230|                        f0 37 00 00 00 00 00 00|        .7......|      offset: 0x37f0 0x14238-0x14240 (8)
0x14240|08 62 00 00 00 00 00 00                        |.b......        |      size: 25096 0x14240-0x14248 (8)
0x14240|                        00 00 00 00            |        ....    |      link: 0 0x14248-0x1424c (4)
0x14240|                                    00 00 00 00|            ....|      info: 0 0x1424c-0x14250 (4)
0x14250|01 00 00 00 00 00 00 00                        |........        |      addralign: 1 0x14250-0x14258 (8)
0x14250|                        00 00 00 00 00 00 00 00|        ........|      entsize: 0 0x14258-0x14260 (8)
       |                                               |                |    [15]{}: section_header 0x99f8-0x142a0 (43176)
0x099f0|                        01 11 01 25 0e 13 0b 03|        ...%....|      data: raw bits 0x99f8-0xbcba (8898)
0x09a00|0e 1b 0e 55 17 11 01 10 17 00 00 02 24 00 0b 0b|...U........$...|
*      |until 0xbcb9.7 (8898)                          |                |
0x14260|9c 00 00 00                                    |....            |      name: ".debug_abbrev" (156) 0x14260-0x14264 (4)
0x14260|            01 00 00 00                        |    ....        |      type: "progbits" (0x1) (Information defined by the program) 0x14264-0x14268 (4)
       |                                               |                |      flags{}: 0x14268-0x14270 (8)
0x14260|                        00                     |        .       |        link_order: false 0x14268-0x14268.1 (0.1)
0x14260|                        00                     |        .       |        info_link: false 0x14268.1-0x14268.2 (0.1)
0x14260|                        00                     |        .       |        strings: false 0x14268.2-0x14268.3 (0.1)
0x14260|                        00                     |        .       |        merge: false 0x14268.3-0x14268.4 (0.1)
0x14260|                        00                     |        .       |        unused0: 0 0x14268.4-0x14268.5 (0.1)
0x14260|                        00                     |        .       |        execinstr: false 0x14268.5-0x14268.6 (0.1)
0x14260|                        00                     |        .       |        alloc: false 0x14268.6-0x14268.7 (0.1)
0x14260|                        00                     |        .       |        write: false 0x14268.7-0x14269 (0.1)
0x14260|                           00                  |         .      |        tls: false 0x14269-0x14269.1 (0.1)
0x14260|                           00                  |         .      |        group: false 0x14269.1-0x14269.2 (0.1)
0x14260|                           00                  |         .      |        os_nonconforming: false 0x14269.2-0x14269.3 (0.1)
0x14260|                           00 00               |         ..     |        unused1: 0 0x14269.3-0x1426a.4 (1.1)
0x14260|                              00 00            |          ..    |        os_specific: 0 0x1426a.4-0x1426b.4 (1)
0x14260|                                 00            |           .    |        processor_specific: 0 0x1426b.4-0x1426c (0.4)
0x14260|                                    00 00 00 00|            ....|        unused2: 0 0x1426c-0x14270 (4)
0x14270|00 00 00 00 00 00 00 00                        |........        |      addr: 0x0 0x14270-0x14278 (8)
0x14270|                        f8 99 00 00 00 00 00 00|        ........|      offset: 0x99f8 0x14278-0x14280 (8)
0x14280|c2 22 00 00 00 00 00 00                        |."......        |      size: 8898 0x14280-0x14288 (8)
0x14280|                        00 00 00 00            |        ....    |      link: 0 0x14288-0x1428c (4)
0x14280|                                    00 00 00 00|            ....|      info: 0 0x1428c-0x14290 (4)
0x14290|01 00 00 00 00 00 00 00                        |........        |      addralign: 1 0x14290-0x14298 (8)
0x14290|                        00 00 00 00 00 00 00 00|        ........|      entsize: 0 0x14298-0x142a0 (8)
       |                                               |                |    [16]{}: section_header 0xbcba-0x142e0 (34342)
0x0bcb0|                              4c 00 00 00 03 00|          L.....|      data: raw bits 0xbcba-0xe00d (9043)
0x0bcc0|21 00 00 00 01 01 fb 0e 0d 00 01 01 01 01 00 00|!...............|
*      |until 0xe00c.7 (9043)                          |                |
0x142a0|aa 00 00 00                                    |....            |      name: ".debug_line" (170) 0x142a0-0x142a4 (4)
0x142a0|            01 00 00 00                        |    ....        |      type: "progbits" (0x1) (Information defined by the program) 0x142a4-0x142a8 (4)
       |                                               |                |      flags{}: 0x142a8-0x142b0 (8)
0x142a0|                        00                     |        .       |        link_order: false 0x142a8-0x142a8.1 (0.1)
0x142a0|                        00                     |        .       |        info_link: false 0x142a8.1-0x142a8.2 (0.1)
0x142a0|                        00                     |        .       |        strings: false 0x142a8.2-0x142a8.3 (0.1)
0x142a0|                        00                     |        .       |        merge: false 0x142a8.3-0x142a8.4 (0.1)
0x142a0|                        00                     |        .       |        unused0: 0 0x142a8.4-0x142a8.5 (0.1)
0x142a0|                        00                     |        .       |        execinstr: false 0x142a8.5-0x142a8.6 (0.1)
0x142a0|                        00                     |        .       |        alloc: false 0x142a8.6-0x142a8.7 (0.1)
0x142a0|                        00                     |        .       |        write: false 0x142a8.7-0x142a9 (0.1)
0x142a0|                           00                  |         .      |        tls: false 0x142a9-0x142a9.1 (0.1)
0x142a0|                           00                  |         .      |        group: false 0x142a9.1-0x142a9.2 (0.1)
0x142a0|                           00                  |         .      |        os_nonconforming: false 0x142a9.2-0x142a9.3 (0.1)
0x142a0|                           00 00               |         ..     |        unused1: 0 0x142a9.3-0x142aa.4 (1.1)
0x142a0|                              00 00            |          ..    |        os_specific: 0 0x142aa.4-0x142ab.4 (1)
0x142a0|                                 00            |           .    |        processor_specific: 0 0x142ab.4-0x142ac (0.4)
0x142a0|                                    00 00 00 00|            ....|        unused2: 0 0x142ac-0x142b0 (4)
0x142b0|00 00 00 00 00 00 00 00                        |........        |      addr: 0x0 0x142b0-0x142b8 (8)
0x142b0|                        ba bc 00 00 00 00 00 00|        ........|      offset: 0xbcba 0x142b8-0x142c0 (8)
0x142c0|53 23 00 00 00 00 00 00                        |S#......        |      size: 9043 0x142c0-0x142c8 (8)
0x142c0|                        00 00 00 00            |        ....    |      link: 0 0x142c8-0x142cc (4)
0x142c0|                                    00 00 00 00|            ....|      info: 0 0x142cc-0x142d0 (4)
0x142d0|01 00 00 00 00 00 00 00                        |........        |      addralign: 1 0x142d0-0x142d8 (8)
0x142d0|                        00 00 00 00 00 00 00 00|        ........|      entsize: 0 0x142d8-0x142e0 (8)
       |                                               |                |    [17]{}: section_header 0xe010-0x14320 (25360)
0x0e010|14 00 00 00 ff ff ff ff 01 00 01 78 10 0c 07 08|...........x....|      data: raw bits 0xe010-0xe820 (2064)
*      |until 0xe81f.7 (2064)                          |                |
0x142e0|b6 00 00 00                                    |....            |      name: ".debug_frame" (182) 0x142e0-0x142e4 (4)
0x142e0|            01 00 00 00                        |    ....        |      type: "progbits" (0x1) (Information defined by the program) 0x142e4-0x142e8 (4)
       |                                               |                |      flags{}: 0x142e8-0x142f0 (8)
0x142e0|                        00                     |        .       |        link_order: false 0x142e8-0x142e8.1 (0.1)
0x142e0|                        00                     |        .       |        info_link: false 0x142e8.1-0x142e8.2 (0.1)
0x142e0|                        00                     |        .       |        strings: false 0x142e8.2-0x142e8.3 (0.1)
0x142e0|                        00                     |        .       |        merge: false 0x142e8.3-0x142e8.4 (0.1)
0x142e0|                        00                     |        .       |        unused0: 0 0x142e8.4-0x142e8.5 (0.1)
0x142e0|                        00                     |        .       |        execinstr: false 0x142e8.5-0x142e8.6 (0.1)
0x142e0|                        00                     |        .       |        alloc: false 0x142e8.6-0x142e8.7 (0.1)
0x142e0|                        00                     |        .       |        write: false 0x142e8.7-0x142e9 (0.1)
0x142e0|                           00                  |         .      |        tls: false 0x142e9-0x142e9.1 (0.1)
0x142e0|                           00                  |         .      |        group: false 0x142e9.1-0x142e9.2 (0.1)
0x142e0|                           00                  |         .      |        os_nonconforming: false 0x142e9.2-0x142e9.3 (0.1)
0x142e0|                           00 00               |         ..     |        unused1: 0 0x142e9.3-0x142ea.4 (1.1)
0x142e0|                              00 00            |          ..    |        os_specific: 0 0x142ea.4-0x142eb.4 (1)
0x142e0|                                 00            |           .    |        processor_specific: 0 0x142eb.4-0x142ec (0.4)
0x142e0|                                    00 00 00 00|            ....|        unused2: 0 0x142ec-0x142f0 (4)
0x142f0|00 00 00 00 00 00 00 00                        |........        |      addr: 0x0 0x142f0-0x142f8 (8)
0x142f0|                        10 e0 00 00 00 00 00 00|        ........|      offset: 0xe010 0x142f8-0x14300 (8)
0x14300|10 08 00 00 00 00 00 00                        |........        |      size: 2064 0x14300-0x14308 (8)
0x14300|                        00 00 00 00            |        ....    |      link: 0 0x14308-0x1430c (4)
0x14300|                                    00 00 00 00|            ....|      info: 0 0x1430c-0x14310 (4)
0x14310|08 00 00 00 00 00 00 00                        |........        |      addralign: 8 0x14310-0x14318 (8)
0x14310|                        00 00 00 00 00 00 00 00|        ........|      entsize: 0 0x14318-0x14320 (8)
       |                                               |                |    [18]{}: section_header 0xe820-0x14360 (23360)
0x0e820|6c 6f 6e 67 20 75 6e 73 69 67 6e 65 64 20 69 6e|long unsigned in|      data: raw bits 0xe820-0xf5a4 (3460)
*      |until 0xf5a3.7 (3460)                          |                |
0x14320|c3 00 00 00                                    |....            |      name: ".debug_str" (195) 0x14320-0x14324 (4)
0x14320|            01 00 00 00                        |    ....        |      type: "progbits" (0x1) (Information defined by the program) 0x14324-0x14328 (4)
       |                                               |                |      flags{}: 0x14328-0x14330 (8)
0x14320|                        30                     |        0       |        link_order: false 0x14328-0x14328.1 (0.1)
0x14320|                        30                     |        0       |        info_link: false 0x14328.1-0x14328.2 (0.1)
0x14320|                        30                     |        0       |        strings: true 0x14328.2-0x14328.3 (0.1)
0x14320|                        30                     |        0       |        merge: true 0x14328.3-0x14328.4 (0.1)
0x14320|                        30                     |        0       |        unused0: 0 0x14328.4-0x14328.5 (0.1)
0x14320|                        30                     |        0       |        execinstr: false 0x14328.5-0x14328.6 (0.1)
0x14320|                        30                     |        0       |        alloc: false 0x14328.6-0x14328.7 (0.1)
0x14320|                        30                     |        0       |        write: false 0x14328.7-0x14329 (0.1)
0x14320|                           00                  |         .      |        tls: false 0x14329-0x14329.1 (0.1)
0x14320|                           00                  |         .      |        group: false 0x14329.1-0x14329.2 (0.1)
0x14320|                           00                  |         .      |        os_nonconforming: false 0x14329.2-0x14329.3 (0.1)
0x14320|                           00 00               |         ..     |        unused1: 0 0x14329.3-0x1432a.4 (1.1)
0x14320|                              00 00            |          ..    |        os_specific: 0 0x1432a.4-0x1432b.4 (1)
0x14320|                                 00            |           .    |        processor_specific: 0 0x1432b.4-0x1432c (0.4)
0x14320|                                    00 00 00 00|            ....|        unused2: 0 0x1432c-0x14330 (4)
0x14330|00 00 00 00 00 00 00 00                        |........        |      addr: 0x0 0x14330-0x14338 (8)
0x14330|                        20 e8 00 00 00 00 00 00|         .......|      offset: 0xe820 0x14338-0x14340 (8)
0x14340|84 0d 00 00 00 00 00 00                        |........        |      size: 3460 0x14340-0x14348 (8)
0x14340|                        00 00 00 00            |        ....    |      link: 0 0x14348-0x1434c (4)
0x14340|                                    00 00 00 00|            ....|      info: 0 0x1434c-0x14350 (4)
0x14350|01 00 00 00 00 00 00 00                        |........        |      addralign: 1 0x14350-0x14358 (8)
0x14350|                        01 00 00 00 00 00 00 00|        ........|      entsize: 1 0x14358-0x14360 (8)
       |                                               |                |    [19]{}: section_header 0xf5a4-0x143a0 (19964)
0x0f5a0|            00 00 00 00 00 00 48 10 40 00 00 00|    ......H.@...|      data: raw bits 0xf5a4-0x122ca (11558)
0x0f5b0|00 00 67 10 40 00 00 00 00 00 01 00 55 67 10 40|..g.@.......Ug.@|
*      |until 0x122c9.7 (11558)                        |                |
0x14360|ce 00 00 00                                    |....            |      name: ".debug_loc" (206) 0x14360-0x14364 (4)
0x14360|            01 00 00 00                        |    ....        |      type: "progbits" (0x1) (Information defined by the program) 0x14364-0x14368 (4)
       |                                               |                |      flags{}: 0x14368-0x14370 (8)
0x14360|                        00                     |        .       |        link_order: false 0x14368-0x14368.1 (0.1)
0x14360|                        00                     |        .       |        info_link: false 0x14368.1-0x14368.2 (0.1)
0x14360|                        00                     |        .       |        strings: false 0x14368.2-0x14368.3 (0.1)
0x14360|                        00                     |        .       |        merge: false 0x14368.3-0x14368.4 (0.1)
0x14360|                        00                     |        .       |        unused0: 0 0x14368.4-0x14368.5 (0.1)
0x14360|                        00                     |        .       |        execinstr: false 0x14368.5-0x14368.6 (0.1)
0x14360|                        00                     |        .       |        alloc: false 0x14368.6-0x14368.7 (0.1)
0x14360|                        00                     |        .       |        write: false 0x14368.7-0x14369 (0.1)
0x14360|                           00                  |         .      |        tls: false 0x14369-0x14369.1 (0.1)
0x14360|                           00                  |         .      |        group: false 0x14369.1-0x14369.2 (0.1)
0x14360|                           00                  |         .      |        os_nonconforming: false 0x14369.2-0x14369.3 (0.1)
0x14360|                           00 00               |         ..     |        unused1: 0 0x14369.3-0x1436a.4 (1.1)
0x14360|                              00 00            |          ..    |        os_specific: 0 0x1436a.4-0x1436b.4 (1)
0x14360|                                 00            |           .    |        processor_specific: 0 0x1436b.4-0x1436c (0.4)
0x14360|                                    00 00 00 00|            ....|        unused2: 0 0x1436c-0x14370 (4)
0x14370|00 00 00 00 00 00 00 00                        |........        |      addr: 0x0 0x14370-0x14378 (8)
0x14370|                        a4 f5 00 00 00 00 00 00|        ........|      offset: 0xf5a4 0x14378-0x14380 (8)
0x14380|26 2d 00 00 00 00 00 00                        |&-......        |      size: 11558 0x14380-0x14388 (8)
0x14380|                        00 00 00 00            |        ....    |      link: 0 0x14388-0x1438c (4)
0x14380|                                    00 00 00 00|            ....|      info: 0 0x1438c-0x14390 (4)
0x14390|01 00 00 00 00 00 00 00                        |........        |      addralign: 1 0x14390-0x14398 (8)
0x14390|                        00 00 00 00 00 00 00 00|        ........|      entsize: 0 0x14398-0x143a0 (8)
       |                                               |                |    [20]{}: section_header 0x122d0-0x143e0 (8464)
0x122d0|48 10 40 00 00 00 00 00 6c 10 40 00 00 00 00 00|H.@.....l.@.....|      data: raw bits 0x122d0-0x12a90 (1984)
*      |until 0x12a8f.7 (1984)                         |                |
0x143a0|d9 00 00 00                                    |....            |      name: ".debug_ranges" (217) 0x143a0-0x143a4 (4)
0x143a0|            01 00 00 00                        |    ....        |      type: "progbits" (0x1) (Information defined by the program) 0x143a4-0x143a8 (4)
       |                                               |                |      flags{}: 0x143a8-0x143b0 (8)
0x143a0|                        00                     |        .       |        link_order: false 0x143a8-0x143a8.1 (0.1)
0x143a0|                        00                     |        .       |        info_link: false 0x143a8.1-0x143a8.2 (0.1)
0x143a0|                        00                     |        .       |        strings: false 0x143a8.2-0x143a8.3 (0.1)
0x143a0|                        00                     |        .       |        merge: false 0x143a8.3-0x143a8.4 (0.1)
0x143a0|                        00                     |        .       |        unused0: 0 0x143a8.4-0x143a8.5 (0.1)
0x143a0|                        00                     |        .       |        execinstr: false 0x143a8.5-0x143a8.6 (0.1)
0x143a0|                        00                     |        .       |        alloc: false 0x143a8.6-0x143a8.7 (0.1)
0x143a0|                        00                     |        .       |        write: false 0x143a8.7-0x143a9 (0.1)
0x143a0|                           00                  |         .      |        tls: false 0x143a9-0x143a9.1 (0.1)
0x143a0|                           00                  |         .      |        group: false 0x143a9.1-0x143a9.2 (0.1)
0x143a0|                           00                  |         .      |        os_nonconforming: false 0x143a9.2-0x143a9.3 (0.1)
0x143a0|                           00 00               |         ..     |        unused1: 0 0x143a9.3-0x143aa.4 (1.1)
0x143a0|                              00 00            |          ..    |        os_specific: 0 0x143aa.4-0x143ab.4 (1)
0x143a0|                                 00            |           .    |        processor_specific: 0 0x143ab.4-0x143ac (0.4)
0x143a0|                                    00 00 00 00|            ....|        unused2: 0 0x143ac-0x143b0 (4)
0x143b0|00 00 00 00 00 00 00 00                        |........        |      addr: 0x0 0x143b0-0x143b8 (8)
0x143b0|                        d0 22 01 00 00 00 00 00|        ."......|      offset: 0x122d0 0x143b8-0x143c0 (8)
0x143c0|c0 07 00 00 00 00 00 00                        |........        |      size: 1984 0x143c0-0x143c8 (8)
0x143c0|                        00 00 00 00            |        ....    |      link: 0 0x143c8-0x143cc (4)
0x143c0|                                    00 00 00 00|            ....|      info: 0 0x143cc-0x143d0 (4)
0x143d0|10 00 00 00 00 00 00 00                        |........        |      addralign: 16 0x143d0-0x143d8 (8)
0x143d0|                        00 00 00 00 00 00 00 00|        ........|      entsize: 0 0x143d8-0x143e0 (8)
       |                                               |                |    [21]{}: section_header 0x12a90-0x14420 (6544)
       |                                               |                |      symbol_table[0:141]: 0x12a90-0x137c8 (3384)
       |                                               |                |        [0]{}: symbol 0x12a90-0x12aa8 (24)
0x12a90|00 00 00 00                                    |....            |          name: "" (0) 0x12a90-0x12a94 (4)
0x12a90|            00                                 |    .           |          bind: "local" (0) 0x12a94-0x12a94.4 (0.4)
0x12a90|            00                                 |    .           |          type: "notype" (0) 0x12a94.4-0x12a95 (0.4)
0x12a90|               00                              |     .          |          other_unused: 0 0x12a95-0x12a95.6 (0.6)
0x12a90|               00                              |     .          |          visibility: "default" (0) 0x12a95.6-0x12a96 (0.2)
0x12a90|                  00 00                        |      ..        |          shndx: 0 0x12a96-0x12a98 (2)
0x12a90|                        00 00 00 00 00 00 00 00|        ........|          value: 0 0x12a98-0x12aa0 (8)
0x12aa0|00 00 00 00 00 00 00 00                        |........        |          size: 0 0x12aa0-0x12aa8 (8)
       |                                               |                |        [1]{}: symbol 0x12aa8-0x12ac0 (24)
0x12aa0|                        01 00 00 00            |        ....    |          name: "crt1.c" (1) 0x12aa8-0x12aac (4)
0x12aa0|                                    04         |            .   |          bind: "local" (0) 0x12aac-0x12aac.4 (0.4)
0x12aa0|                                    04         |            .   |          type: "file" (4) 0x12aac.4-0x12aad (0.4)
0x12aa0|                                       00      |             .  |          other_unused: 0 0x12aad-0x12aad.6 (0.6)
0x12aa0|                                       00      |             .  |          visibility: "default" (0) 0x12aad.6-0x12aae (0.2)
0x12aa0|                                          f1 ff|              ..|          shndx: 65521 0x12aae-0x12ab0 (2)
0x12ab0|00 00 00 00 00 00 00 00                        |........        |          value: 0 0x12ab0-0x12ab8 (8)
0x12ab0|                        00 00 00 00 00 00 00 00|        ........|          size: 0 0x12ab8-0x12ac0 (8)
       |                                               |                |        [2]{}: symbol 0x12ac0-0x12ad8 (24)
0x12ac0|08 00 00 00                                    |....            |          name: "crtstuff.c" (8) 0x12ac0-0x12ac4 (4)
0x12ac0|            04                                 |    .           |          bind: "local" (0) 0x12ac4-0x12ac4.4 (0.4)
0x12ac0|            04                                 |    .           |          type: "file" (4) 0x12ac4.4-0x12ac5 (0.4)
0x12ac0|               00                              |     .          |          other_unused: 0 0x12ac5-0x12ac5.6 (0.6)
0x12ac0|               00                              |     .          |          visibility: "default" (0) 0x12ac5.6-0x12ac6 (0.2)
0x12ac0|                  f1 ff                        |      ..        |          shndx: 65521 0x12ac6-0x12ac8 (2)
0x12ac0|                        00 00 00 00 00 00 00 00|        ........|          value: 0 0x12ac8-0x12ad0 (8)
0x12ad0|00 00 00 00 00 00 00 00                        |........        |          size: 0 0x12ad0-0x12ad8 (8)
       |                                               |                |        [3]{}: symbol 0x12ad8-0x12af0 (24)
0x12ad0|                        13 00 00 00            |        ....    |          name: "__CTOR_LIST__" (19) 0x12ad8-0x12adc (4)
0x12ad0|                                    01         |            .   |          bind: "local" (0) 0x12adc-0x12adc.4 (0.4)
0x12ad0|                                    01         |            .   |          type: "object" (1) 0x12adc.4-0x12add (0.4)
0x12ad0|                                       00      |             .  |          other_unused: 0 0x12add-0x12add.6 (0.6)
0x12ad0|                                       00      |             .  |          visibility: "default" (0) 0x12add.6-0x12ade (0.2)
0x12ad0|                                          07 00|              ..|          shndx: 7 0x12ade-0x12ae0 (2)
0x12ae0|d0 3f 40 00 00 00 00 00                        |.?@.....        |          value: 4210640 0x12ae0-0x12ae8 (8)
0x12ae0|                        00 00 00 00 00 00 00 00|        ........|          size: 0 0x12ae8-0x12af0 (8)
       |                                               |                |        [4]{}: symbol 0x12af0-0x12b08 (24)
0x12af0|21 00 00 00                                    |!...            |          name: "__DTOR_LIST__" (33) 0x12af0-0x12af4 (4)
0x12af0|            01                                 |    .           |          bind: "local" (0) 0x12af4-0x12af4.4 (0.4)
0x12af0|            01                                 |    .           |          type: "object" (1) 0x12af4.4-0x12af5 (0.4)
0x12af0|               00                              |     .          |          other_unused: 0 0x12af5-0x12af5.6 (0.6)
0x12af0|               00                              |     .          |          visibility: "default" (0) 0x12af5.6-0x12af6 (0.2)
0x12af0|                  08 00                        |      ..        |          shndx: 8 0x12af6-0x12af8 (2)
0x12af0|                        e0 3f 40 00 00 00 00 00|        .?@.....|          value: 4210656 0x12af8-0x12b00 (8)
0x12b00|00 00 00 00 00 00 00 00                        |........        |          size: 0 0x12b00-0x12b08 (8)
       |                                               |                |        [5]{}: symbol 0x12b08-0x12b20 (24)
0x12b00|                        2f 00 00 00            |        /...    |          name: "__EH_FRAME_BEGIN__" (47) 0x12b08-0x12b0c (4)
0x12b00|                                    01         |            .   |          bind: "local" (0) 0x12b0c-0x12b0c.4 (0.4)
0x12b00|                                    01         |            .   |          type: "object" (1) 0x12b0c.4-0x12b0d (0.4)
0x12b00|                                       00      |             .  |          other_unused: 0 0x12b0d-0x12b0d.6 (0.6)
0x12b00|                                       00      |             .  |          visibility: "default" (0) 0x12b0d.6-0x12b0e (0.2)
0x12b00|                                          06 00|              ..|          shndx: 6 0x12b0e-0x12b10 (2)
0x12b10|20 20 40 00 00 00 00 00                        |  @.....        |          value: 4202528 0x12b10-0x12b18 (8)
0x12b10|                        00 00 00 00 00 00 00 00|        ........|          size: 0 0x12b18-0x12b20 (8)
       |                                               |                |        [6]{}: symbol 0x12b20-0x12b38 (24)
0x12b20|42 00 00 00                                    |B...            |          name: "deregister_tm_clones" (66) 0x12b20-0x12b24 (4)
0x12b20|            02                                 |    .           |          bind: "local" (0) 0x12b24-0x12b24.4 (0.4)
0x12b20|            02                                 |    .           |          type: "func" (2) 0x12b24.4-0x12b25 (0.4)
0x12b20|               00                              |     .          |          other_unused: 0 0x12b25-0x12b25.6 (0.6)
0x12b20|               00                              |     .          |          visibility: "default" (0) 0x12b25.6-0x12b26 (0.2)
0x12b20|                  03 00                        |      ..        |          shndx: 3 0x12b26-0x12b28 (2)
0x12b20|                        70 10 40 00 00 00 00 00|        p.@.....|          value: 4198512 0x12b28-0x12b30 (8)
0x12b30|00 00 00 00 00 00 00 00                        |........        |          size: 0 0x12b30-0x12b38 (8)
       |                                               |                |        [7]{}: symbol 0x12b38-0x12b50 (24)
0x12b30|                        44 00 00 00            |        D...    |          name: "register_tm_clones" (68) 0x12b38-0x12b3c (4)
0x12b30|                                    02         |            .   |          bind: "local" (0) 0x12b3c-0x12b3c.4 (0.4)
0x12b30|                                    02         |            .   |          type: "func" (2) 0x12b3c.4-0x12b3d (0.4)
0x12b30|                                       00      |             .  |          other_unused: 0 0x12b3d-0x12b3d.6 (0.6)
0x12b30|                                       00      |             .  |          visibility: "default" (0) 0x12b3d.6-0x12b3e (0.2)
0x12b30|                                          03 00|              ..|          shndx: 3 0x12b3e-0x12b40 (2)
0x12b40|a0 10 40 00 00 00 00 00                        |..@.....        |          value: 4198560 0x12b40-0x12b48 (8)
0x12b40|                        00 00 00 00 00 00 00 00|        ........|          size: 0 0x12b48-0x12b50 (8)
       |                                               |                |        [8]{}: symbol 0x12b50-0x12b68 (24)
0x12b50|57 00 00 00                                    |W...            |          name: "__do_global_dtors_aux" (87) 0x12b50-0x12b54 (4)
0x12b50|            02                                 |    .           |          bind: "local" (0) 0x12b54-0x12b54.4 (0.4)
0x12b50|            02                                 |    .           |          type: "func" (2) 0x12b54.4-0x12b55 (0.4)
0x12b50|               00                              |     .          |          other_unused: 0 0x12b55-0x12b55.6 (0.6)
0x12b50|               00                              |     .          |          visibility: "default" (0) 0x12b55.6-0x12b56 (0.2)
0x12b50|                  03 00                        |      ..        |          shndx: 3 0x12b56-0x12b58 (2)
0x12b50|                        e0 10 40 00 00 00 00 00|        ..@.....|          value: 4198624 0x12b58-0x12b60 (8)
0x12b60|00 00 00 00 00 00 00 00                        |........        |          size: 0 0x12b60-0x12b68 (8)
       |                                               |                |        [9]{}: symbol 0x12b68-0x12b80 (24)
0x12b60|                        6d 00 00 00            |        m...    |          name: "completed.2" (109) 0x12b68-0x12b6c (4)
0x12b60|                                    01         |            .   |          bind: "local" (0) 0x12b6c-0x12b6c.4 (0.4)
0x12b60|                                    01         |            .   |          type: "object" (1) 0x12b6c.4-0x12b6d (0.4)
0x12b60|                                       00      |             .  |          other_unused: 0 0x12b6d-0x12b6d.6 (0.6)
0x12b60|                                       00      |             .  |          visibility: "default" (0) 0x12b6d.6-0x12b6e (0.2)
0x12b60|                                          0b 00|              ..|          shndx: 11 0x12b6e-0x12b70 (2)
0x12b70|20 41 40 00 00 00 00 00                        | A@.....        |          value: 4210976 0x12b70-0x12b78 (8)
0x12b70|                        01 00 00 00 00 00 00 00|        ........|          size: 1 0x12b78-0x12b80 (8)
       |                                               |                |        [10]{}: symbol 0x12b80-0x12b98 (24)
0x12b80|79 00 00 00                                    |y...            |          name: "dtor_idx.1" (121) 0x12b80-0x12b84 (4)
0x12b80|            01                                 |    .           |          bind: "local" (0) 0x12b84-0x12b84.4 (0.4)
0x12b80|            01                                 |    .           |          type: "object" (1) 0x12b84.4-0x12b85 (0.4)
0x12b80|               00                              |     .          |          other_unused: 0 0x12b85-0x12b85.6 (0.6)
0x12b80|               00                              |     .          |          visibility: "default" (0) 0x12b85.6-0x12b86 (0.2)
0x12b80|                  0b 00                        |      ..        |          shndx: 11 0x12b86-0x12b88 (2)
0x12b80|                        28 41 40 00 00 00 00 00|        (A@.....|          value: 4210984 0x12b88-0x12b90 (8)
0x12b90|08 00 00 00 00 00 00 00                        |........        |          size: 8 0x12b90-0x12b98 (8)
       |                                               |                |        [11]{}: symbol 0x12b98-0x12bb0 (24)
0x12b90|                        84 00 00 00            |        ....    |          name: "frame_dummy" (132) 0x12b98-0x12b9c (4)
0x12b90|                                    02         |            .   |          bind: "local" (0) 0x12b9c-0x12b9c.4 (0.4)
0x12b90|                                    02         |            .   |          type: "func" (2) 0x12b9c.4-0x12b9d (0.4)
0x12b90|                                       00      |             .  |          other_unused: 0 0x12b9d-0x12b9d.6 (0.6)
0x12b90|                                       00      |             .  |          visibility: "default" (0) 0x12b9d.6-0x12b9e (0.2)
0x12b90|                                          03 00|              ..|          shndx: 3 0x12b9e-0x12ba0 (2)
0x12ba0|70 11 40 00 00 00 00 00                        |p.@.....        |          value: 4198768 0x12ba0-0x12ba8 (8)
0x12ba0|                        00 00 00 00 00 00 00 00|        ........|          size: 0 0x12ba8-0x12bb0 (8)
       |                                               |                |        [12]{}: symbol 0x12bb0-0x12bc8 (24)
0x12bb0|90 00 00 00                                    |....            |          name: "object.0" (144) 0x12bb0-0x12bb4 (4)
0x12bb0|            01                                 |    .           |          bind: "local" (0) 0x12bb4-0x12bb4.4 (0.4)
0x12bb0|            01                                 |    .           |          type: "object" (1) 0x12bb4.4-0x12bb5 (0.4)
0x12bb0|               00                              |     .          |          other_unused: 0 0x12bb5-0x12bb5.6 (0.6)
0x12bb0|               00                              |     .          |          visibility: "default" (0) 0x12bb5.6-0x12bb6 (0.2)
0x12bb0|                  0b 00                        |      ..        |          shndx: 11 0x12bb6-0x12bb8 (2)
0x12bb0|                        40 41 40 00 00 00 00 00|        @A@.....|          value: 4211008 0x12bb8-0x12bc0 (8)
0x12bc0|30 00 00 00 00 00 00 00                        |0.......        |          size: 48 0x12bc0-0x12bc8 (8)
       |                                               |                |        [13]{}: symbol 0x12bc8-0x12be0 (24)
0x12bc0|                        08 00 00 00            |        ....    |          name: "crtstuff.c" (8) 0x12bc8-0x12bcc (4)
0x12bc0|                                    04         |            .   |          bind: "local" (0) 0x12bcc-0x12bcc.4 (0.4)
0x12bc0|                                    04         |            .   |          type: "file" (4) 0x12bcc.4-0x12bcd (0.4)
0x12bc0|                                       00      |             .  |          other_unused: 0 0x12bcd-0x12bcd.6 (0.6)
0x12bc0|                                       00      |             .  |          visibility: "default" (0) 0x12bcd.6-0x12bce (0.2)
0x12bc0|                                          f1 ff|              ..|          shndx: 65521 0x12bce-0x12bd0 (2)
0x12bd0|00 00 00 00 00 00 00 00                        |........        |          value: 0 0x12bd0-0x12bd8 (8)
0x12bd0|                        00 00 00 00 00 00 00 00|        ........|          size: 0 0x12bd8-0x12be0 (8)
       |                                               |                |        [14]{}: symbol 0x12be0-0x12bf8 (24)
0x12be0|99 00 00 00                                    |....            |          name: "__CTOR_END__" (153) 0x12be0-0x12be4 (4)
0x12be0|            01                                 |    .           |          bind: "local" (0) 0x12be4-0x12be4.4 (0.4)
0x12be0|            01                                 |    .           |          type: "object" (1) 0x12be4.4-0x12be5 (0.4)
0x12be0|               00                              |     .          |          other_unused: 0 0x12be5-0x12be5.6 (0.6)
0x12be0|               00                              |     .          |          visibility: "default" (0) 0x12be5.6-0x12be6 (0.2)
0x12be0|                  07 00                        |      ..        |          shndx: 7 0x12be6-0x12be8 (2)
0x12be0|                        d8 3f 40 00 00 00 00 00|        .?@.....|          value: 4210648 0x12be8-0x12bf0 (8)
0x12bf0|00 00 00 00 00 00 00 00                        |........        |          size: 0 0x12bf0-0x12bf8 (8)
       |                                               |                |        [15]{}: symbol 0x12bf8-0x12c10 (24)
0x12bf0|                        a6 00 00 00            |        ....    |          name: "__FRAME_END__" (166) 0x12bf8-0x12bfc (4)
0x12bf0|                                    01         |            .   |          bind: "local" (0) 0x12bfc-0x12bfc.4 (0.4)
0x12bf0|                                    01         |            .   |          type: "object" (1) 0x12bfc.4-0x12bfd (0.4)
0x12bf0|                                       00      |             .  |          other_unused: 0 0x12bfd-0x12bfd.6 (0.6)
0x12bf0|                                       00      |             .  |          visibility: "default" (0) 0x12bfd.6-0x12bfe (0.2)
0x12bf0|                                          06 00|              ..|          shndx: 6 0x12bfe-0x12c00 (2)
0x12c00|98 20 40 00 00 00 00 00                        |. @.....        |          value: 4202648 0x12c00-0x12c08 (8)
0x12c00|                        00 00 00 00 00 00 00 00|        ........|          size: 0 0x12c08-0x12c10 (8)
       |                                               |                |        [16]{}: symbol 0x12c10-0x12c28 (24)
0x12c10|b4 00 00 00                                    |....            |          name: "__do_global_ctors_aux" (180) 0x12c10-0x12c14 (4)
0x12c10|            02                                 |    .           |          bind: "local" (0) 0x12c14-0x12c14.4 (0.4)
0x12c10|            02                                 |    .           |          type: "func" (2) 0x12c14.4-0x12c15 (0.4)
0x12c10|               00                              |     .          |          other_unused: 0 0x12c15-0x12c15.6 (0.6)
0x12c10|               00                              |     .          |          visibility: "default" (0) 0x12c15.6-0x12c16 (0.2)
0x12c10|                  03 00                        |      ..        |          shndx: 3 0x12c16-0x12c18 (2)
0x12c10|                        20 1e 40 00 00 00 00 00|         .@.....|          value: 4202016 0x12c18-0x12c20 (8)
0x12c20|00 00 00 00 00 00 00 00                        |........        |          size: 0 0x12c20-0x12c28 (8)
       |                                               |                |        [17]{}: symbol 0x12c28-0x12c40 (24)
0x12c20|                        0d 02 00 00            |        ....    |          name: "exit.c" (525) 0x12c28-0x12c2c (4)
0x12c20|                                    04         |            .   |          bind: "local" (0) 0x12c2c-0x12c2c.4 (0.4)
0x12c20|                                    04         |            .   |          type: "file" (4) 0x12c2c.4-0x12c2d (0.4)
0x12c20|                                       00      |             .  |          other_unused: 0 0x12c2d-0x12c2d.6 (0.6)
0x12c20|                                       00      |             .  |          visibility: "default" (0) 0x12c2d.6-0x12c2e (0.2)
0x12c20|                                          f1 ff|              ..|          shndx: 65521 0x12c2e-0x12c30 (2)
0x12c30|00 00 00 00 00 00 00 00                        |........        |          value: 0 0x12c30-0x12c38 (8)
0x12c30|                        00 00 00 00 00 00 00 00|        ........|          size: 0 0x12c38-0x12c40 (8)
       |                                               |                |        [18]{}: symbol 0x12c40-0x12c58 (24)
0x12c40|8a 00 00 00                                    |....            |          name: "dummy" (138) 0x12c40-0x12c44 (4)
0x12c40|            02                                 |    .           |          bind: "local" (0) 0x12c44-0x12c44.4 (0.4)
0x12c40|            02                                 |    .           |          type: "func" (2) 0x12c44.4-0x12c45 (0.4)
0x12c40|               00                              |     .          |          other_unused: 0 0x12c45-0x12c45.6 (0.6)
0x12c40|               00                              |     .          |          visibility: "default" (0) 0x12c45.6-0x12c46 (0.2)
0x12c40|                  03 00                        |      ..        |          shndx: 3 0x12c46-0x12c48 (2)
0x12c40|                        f1 13 40 00 00 00 00 00|        ..@.....|          value: 4199409 0x12c48-0x12c50 (8)
0x12c50|01 00 00 00 00 00 00 00                        |........        |          size: 1 0x12c50-0x12c58 (8)
       |                                               |                |        [19]{}: symbol 0x12c58-0x12c70 (24)
0x12c50|                        01 05 00 00            |        ....    |          name: "libc_exit_fini" (1281) 0x12c58-0x12c5c (4)
0x12c50|                                    02         |            .   |          bind: "local" (0) 0x12c5c-0x12c5c.4 (0.4)
0x12c50|                                    02         |            .   |          type: "func" (2) 0x12c5c.4-0x12c5d (0.4)
0x12c50|                                       00      |             .  |          other_unused: 0 0x12c5d-0x12c5d.6 (0.6)
0x12c50|                                       00      |             .  |          visibility: "default" (0) 0x12c5d.6-0x12c5e (0.2)
0x12c50|                                          03 00|              ..|          shndx: 3 0x12c5e-0x12c60 (2)
0x12c60|f2 13 40 00 00 00 00 00                        |..@.....        |          value: 4199410 0x12c60-0x12c68 (8)
0x12c60|                        23 00 00 00 00 00 00 00|        #.......|          size: 35 0x12c68-0x12c70 (8)
       |                                               |                |        [20]{}: symbol 0x12c70-0x12c88 (24)
0x12c70|ca 00 00 00                                    |....            |          name: "a.c" (202) 0x12c70-0x12c74 (4)
0x12c70|            04                                 |    .           |          bind: "local" (0) 0x12c74-0x12c74.4 (0.4)
0x12c70|            04                                 |    .           |          type: "file" (4) 0x12c74.4-0x12c75 (0.4)
0x12c70|               00                              |     .          |          other_unused: 0 0x12c75-0x12c75.6 (0.6)
0x12c70|               00                              |     .          |          visibility: "default" (0) 0x12c75.6-0x12c76 (0.2)
0x12c70|                  f1 ff                        |      ..        |          shndx: 65521 0x12c76-0x12c78 (2)
0x12c70|                        00 00 00 00 00 00 00 00|        ........|          value: 0 0x12c78-0x12c80 (8)
0x12c80|00 00 00 00 00 00 00 00                        |........        |          size: 0 0x12c80-0x12c88 (8)
       |                                               |                |        [21]{}: symbol 0x12c88-0x12ca0 (24)
0x12c80|                        ce 00 00 00            |        ....    |          name: "libbbb.c" (206) 0x12c88-0x12c8c (4)
0x12c80|                                    04         |            .   |          bind: "local" (0) 0x12c8c-0x12c8c.4 (0.4)
0x12c80|                                    04         |            .   |          type: "file" (4) 0x12c8c.4-0x12c8d (0.4)
0x12c80|                                       00      |             .  |          other_unused: 0 0x12c8d-0x12c8d.6 (0.6)
0x12c80|                                       00      |             .  |          visibility: "default" (0) 0x12c8d.6-0x12c8e (0.2)
0x12c80|                                          f1 ff|              ..|          shndx: 65521 0x12c8e-0x12c90 (2)
0x12c90|00 00 00 00 00 00 00 00                        |........        |          value: 0 0x12c90-0x12c98 (8)
0x12c90|                        00 00 00 00 00 00 00 00|        ........|          size: 0 0x12c98-0x12ca0 (8)
       |                                               |                |        [22]{}: symbol 0x12ca0-0x12cb8 (24)
0x12ca0|d7 00 00 00                                    |....            |          name: "__libc_start_main.c" (215) 0x12ca0-0x12ca4 (4)
0x12ca0|            04                                 |    .           |          bind: "local" (0) 0x12ca4-0x12ca4.4 (0.4)
0x12ca0|            04                                 |    .           |          type: "file" (4) 0x12ca4.4-0x12ca5 (0.4)
0x12ca0|               00                              |     .          |          other_unused: 0 0x12ca5-0x12ca5.6 (0.6)
0x12ca0|               00                              |     .          |          visibility: "default" (0) 0x12ca5.6-0x12ca6 (0.2)
0x12ca0|                  f1 ff                        |      ..        |          shndx: 65521 0x12ca6-0x12ca8 (2)
0x12ca0|                        00 00 00 00 00 00 00 00|        ........|          value: 0 0x12ca8-0x12cb0 (8)
0x12cb0|00 00 00 00 00 00 00 00                        |........        |          size: 0 0x12cb0-0x12cb8 (8)
       |                                               |                |        [23]{}: symbol 0x12cb8-0x12cd0 (24)
0x12cb0|                        8a 00 00 00            |        ....    |          name: "dummy" (138) 0x12cb8-0x12cbc (4)
0x12cb0|                                    02         |            .   |          bind: "local" (0) 0x12cbc-0x12cbc.4 (0.4)
0x12cb0|                                    02         |            .   |          type: "func" (2) 0x12cbc.4-0x12cbd (0.4)
0x12cb0|                                       00      |             .  |          other_unused: 0 0x12cbd-0x12cbd.6 (0.6)
0x12cb0|                                       00      |             .  |          visibility: "default" (0) 0x12cbd.6-0x12cbe (0.2)
0x12cb0|                                          03 00|              ..|          shndx: 3 0x12cbe-0x12cc0 (2)
0x12cc0|e2 11 40 00 00 00 00 00                        |..@.....        |          value: 4198882 0x12cc0-0x12cc8 (8)
0x12cc0|                        01 00 00 00 00 00 00 00|        ........|          size: 1 0x12cc8-0x12cd0 (8)
       |                                               |                |        [24]{}: symbol 0x12cd0-0x12ce8 (24)
0x12cd0|eb 00 00 00                                    |....            |          name: "dummy1" (235) 0x12cd0-0x12cd4 (4)
0x12cd0|            02                                 |    .           |          bind: "local" (0) 0x12cd4-0x12cd4.4 (0.4)
0x12cd0|            02                                 |    .           |          type: "func" (2) 0x12cd4.4-0x12cd5 (0.4)
0x12cd0|               00                              |     .          |          other_unused: 0 0x12cd5-0x12cd5.6 (0.6)
0x12cd0|               00                              |     .          |          visibility: "default" (0) 0x12cd5.6-0x12cd6 (0.2)
0x12cd0|                  03 00                        |      ..        |          shndx: 3 0x12cd6-0x12cd8 (2)
0x12cd0|                        e3 11 40 00 00 00 00 00|        ..@.....|          value: 4198883 0x12cd8-0x12ce0 (8)
0x12ce0|01 00 00 00 00 00 00 00                        |........        |          size: 1 0x12ce0-0x12ce8 (8)
       |                                               |                |        [25]{}: symbol 0x12ce8-0x12d00 (24)
0x12ce0|                        9c 04 00 00            |        ....    |          name: "libc_start_init" (1180) 0x12ce8-0x12cec (4)
0x12ce0|                                    02         |            .   |          bind: "local" (0) 0x12cec-0x12cec.4 (0.4)
0x12ce0|                                    02         |            .   |          type: "func" (2) 0x12cec.4-0x12ced (0.4)
0x12ce0|                                       00      |             .  |          other_unused: 0 0x12ced-0x12ced.6 (0.6)
0x12ce0|                                       00      |             .  |          visibility: "default" (0) 0x12ced.6-0x12cee (0.2)
0x12ce0|                                          03 00|              ..|          shndx: 3 0x12cee-0x12cf0 (2)
0x12cf0|67 13 40 00 00 00 00 00                        |g.@.....        |          value: 4199271 0x12cf0-0x12cf8 (8)
0x12cf0|                        20 00 00 00 00 00 00 00|         .......|          size: 32 0x12cf8-0x12d00 (8)
       |                                               |                |        [26]{}: symbol 0x12d00-0x12d18 (24)
0x12d00|f2 00 00 00                                    |....            |          name: "libc_start_main_stage2" (242) 0x12d00-0x12d04 (4)
0x12d00|            02                                 |    .           |          bind: "local" (0) 0x12d04-0x12d04.4 (0.4)
0x12d00|            02                                 |    .           |          type: "func" (2) 0x12d04.4-0x12d05 (0.4)
0x12d00|               00                              |     .          |          other_unused: 0 0x12d05-0x12d05.6 (0.6)
0x12d00|               00                              |     .          |          visibility: "default" (0) 0x12d05.6-0x12d06 (0.2)
0x12d00|                  03 00                        |      ..        |          shndx: 3 0x12d06-0x12d08 (2)
0x12d00|                        87 13 40 00 00 00 00 00|        ..@.....|          value: 4199303 0x12d08-0x12d10 (8)
0x12d10|2e 00 00 00 00 00 00 00                        |........        |          size: 46 0x12d10-0x12d18 (8)
       |                                               |                |        [27]{}: symbol 0x12d18-0x12d30 (24)
0x12d10|                        09 01 00 00            |        ....    |          name: "defsysinfo.c" (265) 0x12d18-0x12d1c (4)
0x12d10|                                    04         |            .   |          bind: "local" (0) 0x12d1c-0x12d1c.4 (0.4)
0x12d10|                                    04         |            .   |          type: "file" (4) 0x12d1c.4-0x12d1d (0.4)
0x12d10|                                       00      |             .  |          other_unused: 0 0x12d1d-0x12d1d.6 (0.6)
0x12d10|                                       00      |             .  |          visibility: "default" (0) 0x12d1d.6-0x12d1e (0.2)
0x12d10|                                          f1 ff|              ..|          shndx: 65521 0x12d1e-0x12d20 (2)
0x12d20|00 00 00 00 00 00 00 00                        |........        |          value: 0 0x12d20-0x12d28 (8)
0x12d20|                        00 00 00 00 00 00 00 00|        ........|          size: 0 0x12d28-0x12d30 (8)
       |                                               |                |        [28]{}: symbol 0x12d30-0x12d48 (24)
0x12d30|16 01 00 00                                    |....            |          name: "libc.c" (278) 0x12d30-0x12d34 (4)
0x12d30|            04                                 |    .           |          bind: "local" (0) 0x12d34-0x12d34.4 (0.4)
0x12d30|            04                                 |    .           |          type: "file" (4) 0x12d34.4-0x12d35 (0.4)
0x12d30|               00                              |     .          |          other_unused: 0 0x12d35-0x12d35.6 (0.6)
0x12d30|               00                              |     .          |          visibility: "default" (0) 0x12d35.6-0x12d36 (0.2)
0x12d30|                  f1 ff                        |      ..        |          shndx: 65521 0x12d36-0x12d38 (2)
0x12d30|                        00 00 00 00 00 00 00 00|        ........|          value: 0 0x12d38-0x12d40 (8)
0x12d40|00 00 00 00 00 00 00 00                        |........        |          size: 0 0x12d40-0x12d48 (8)
       |                                               |                |        [29]{}: symbol 0x12d48-0x12d60 (24)
0x12d40|                        c7 01 00 00            |        ....    |          name: "puts.c" (455) 0x12d48-0x12d4c (4)
0x12d40|                                    04         |            .   |          bind: "local" (0) 0x12d4c-0x12d4c.4 (0.4)
0x12d40|                                    04         |            .   |          type: "file" (4) 0x12d4c.4-0x12d4d (0.4)
0x12d40|                                       00      |             .  |          other_unused: 0 0x12d4d-0x12d4d.6 (0.6)
0x12d40|                                       00      |             .  |          visibility: "default" (0) 0x12d4d.6-0x12d4e (0.2)
0x12d40|                                          f1 ff|              ..|          shndx: 65521 0x12d4e-0x12d50 (2)
0x12d50|00 00 00 00 00 00 00 00                        |........        |          value: 0 0x12d50-0x12d58 (8)
0x12d50|                        00 00 00 00 00 00 00 00|        ........|          size: 0 0x12d58-0x12d60 (8)
       |                                               |                |        [30]{}: symbol 0x12d60-0x12d78 (24)
0x12d60|1d 01 00 00                                    |....            |          name: "stdout.c" (285) 0x12d60-0x12d64 (4)
0x12d60|            04                                 |    .           |          bind: "local" (0) 0x12d64-0x12d64.4 (0.4)
0x12d60|            04                                 |    .           |          type: "file" (4) 0x12d64.4-0x12d65 (0.4)
0x12d60|               00                              |     .          |          other_unused: 0 0x12d65-0x12d65.6 (0.6)
0x12d60|               00                              |     .          |          visibility: "default" (0) 0x12d65.6-0x12d66 (0.2)
0x12d60|                  f1 ff                        |      ..        |          shndx: 65521 0x12d66-0x12d68 (2)
0x12d60|                        00 00 00 00 00 00 00 00|        ........|          value: 0 0x12d68-0x12d70 (8)
0x12d70|00 00 00 00 00 00 00 00                        |........        |          size: 0 0x12d70-0x12d78 (8)
       |                                               |                |        [31]{}: symbol 0x12d78-0x12d90 (24)
0x12d70|                        26 01 00 00            |        &...    |          name: "buf" (294) 0x12d78-0x12d7c (4)
0x12d70|                                    01         |            .   |          bind: "local" (0) 0x12d7c-0x12d7c.4 (0.4)
0x12d70|                                    01         |            .   |          type: "object" (1) 0x12d7c.4-0x12d7d (0.4)
0x12d70|                                       00      |             .  |          other_unused: 0 0x12d7d-0x12d7d.6 (0.6)
0x12d70|                                       00      |             .  |          visibility: "default" (0) 0x12d7d.6-0x12d7e (0.2)
0x12d70|                                          0b 00|              ..|          shndx: 11 0x12d7e-0x12d80 (2)
0x12d80|20 42 40 00 00 00 00 00                        | B@.....        |          value: 4211232 0x12d80-0x12d88 (8)
0x12d80|                        08 04 00 00 00 00 00 00|        ........|          size: 1032 0x12d88-0x12d90 (8)
       |                                               |                |        [32]{}: symbol 0x12d90-0x12da8 (24)
0x12d90|2a 01 00 00                                    |*...            |          name: "__environ.c" (298) 0x12d90-0x12d94 (4)
0x12d90|            04                                 |    .           |          bind: "local" (0) 0x12d94-0x12d94.4 (0.4)
0x12d90|            04                                 |    .           |          type: "file" (4) 0x12d94.4-0x12d95 (0.4)
0x12d90|               00                              |     .          |          other_unused: 0 0x12d95-0x12d95.6 (0.6)
0x12d90|               00                              |     .          |          visibility: "default" (0) 0x12d95.6-0x12d96 (0.2)
0x12d90|                  f1 ff                        |      ..        |          shndx: 65521 0x12d96-0x12d98 (2)
0x12d90|                        00 00 00 00 00 00 00 00|        ........|          value: 0 0x12d98-0x12da0 (8)
0x12da0|00 00 00 00 00 00 00 00                        |........        |          size: 0 0x12da0-0x12da8 (8)
       |                                               |                |        [33]{}: symbol 0x12da8-0x12dc0 (24)
0x12da0|                        36 01 00 00            |        6...    |          name: "__init_tls.c" (310) 0x12da8-0x12dac (4)
0x12da0|                                    04         |            .   |          bind: "local" (0) 0x12dac-0x12dac.4 (0.4)
0x12da0|                                    04         |            .   |          type: "file" (4) 0x12dac.4-0x12dad (0.4)
0x12da0|                                       00      |             .  |          other_unused: 0 0x12dad-0x12dad.6 (0.6)
0x12da0|                                       00      |             .  |          visibility: "default" (0) 0x12dad.6-0x12dae (0.2)
0x12da0|                                          f1 ff|              ..|          shndx: 65521 0x12dae-0x12db0 (2)
0x12db0|00 00 00 00 00 00 00 00                        |........        |          value: 0 0x12db0-0x12db8 (8)
0x12db0|                        00 00 00 00 00 00 00 00|        ........|          size: 0 0x12db8-0x12dc0 (8)
       |                                               |                |        [34]{}: symbol 0x12dc0-0x12dd8 (24)
0x12dc0|43 01 00 00                                    |C...            |          name: "static_init_tls" (323) 0x12dc0-0x12dc4 (4)
0x12dc0|            02                                 |    .           |          bind: "local" (0) 0x12dc4-0x12dc4.4 (0.4)
0x12dc0|            02                                 |    .           |          type: "func" (2) 0x12dc4.4-0x12dc5 (0.4)
0x12dc0|               00                              |     .          |          other_unused: 0 0x12dc5-0x12dc5.6 (0.6)
0x12dc0|               00                              |     .          |          visibility: "default" (0) 0x12dc5.6-0x12dc6 (0.2)
0x12dc0|                  03 00                        |      ..        |          shndx: 3 0x12dc6-0x12dc8 (2)
0x12dc0|                        98 15 40 00 00 00 00 00|        ..@.....|          value: 4199832 0x12dc8-0x12dd0 (8)
0x12dd0|92 01 00 00 00 00 00 00                        |........        |          size: 402 0x12dd0-0x12dd8 (8)
       |                                               |                |        [35]{}: symbol 0x12dd8-0x12df0 (24)
0x12dd0|                        53 01 00 00            |        S...    |          name: "main_tls" (339) 0x12dd8-0x12ddc (4)
0x12dd0|                                    01         |            .   |          bind: "local" (0) 0x12ddc-0x12ddc.4 (0.4)
0x12dd0|                                    01         |            .   |          type: "object" (1) 0x12ddc.4-0x12ddd (0.4)
0x12dd0|                                       00      |             .  |          other_unused: 0 0x12ddd-0x12ddd.6 (0.6)
0x12dd0|                                       00      |             .  |          visibility: "default" (0) 0x12ddd.6-0x12dde (0.2)
0x12dd0|                                          0b 00|              ..|          shndx: 11 0x12dde-0x12de0 (2)
0x12de0|40 46 40 00 00 00 00 00                        |@F@.....        |          value: 4212288 0x12de0-0x12de8 (8)
0x12de0|                        30 00 00 00 00 00 00 00|        0.......|          size: 48 0x12de8-0x12df0 (8)
       |                                               |                |        [36]{}: symbol 0x12df0-0x12e08 (24)
0x12df0|5c 01 00 00                                    |\...            |          name: "builtin_tls" (348) 0x12df0-0x12df4 (4)
0x12df0|            01                                 |    .           |          bind: "local" (0) 0x12df4-0x12df4.4 (0.4)
0x12df0|            01                                 |    .           |          type: "object" (1) 0x12df4.4-0x12df5 (0.4)
0x12df0|               00                              |     .          |          other_unused: 0 0x12df5-0x12df5.6 (0.6)
0x12df0|               00                              |     .          |          visibility: "default" (0) 0x12df5.6-0x12df6 (0.2)
0x12df0|                  0b 00                        |      ..        |          shndx: 11 0x12df6-0x12df8 (2)
0x12df0|                        80 46 40 00 00 00 00 00|        .F@.....|          value: 4212352 0x12df8-0x12e00 (8)
0x12e00|50 01 00 00 00 00 00 00                        |P.......        |          size: 336 0x12e00-0x12e08 (8)
       |                                               |                |        [37]{}: symbol 0x12e08-0x12e20 (24)
0x12e00|                        68 01 00 00            |        h...    |          name: "_Exit.c" (360) 0x12e08-0x12e0c (4)
0x12e00|                                    04         |            .   |          bind: "local" (0) 0x12e0c-0x12e0c.4 (0.4)
0x12e00|                                    04         |            .   |          type: "file" (4) 0x12e0c.4-0x12e0d (0.4)
0x12e00|                                       00      |             .  |          other_unused: 0 0x12e0d-0x12e0d.6 (0.6)
0x12e00|                                       00      |             .  |          visibility: "default" (0) 0x12e0d.6-0x12e0e (0.2)
0x12e00|                                          f1 ff|              ..|          shndx: 65521 0x12e0e-0x12e10 (2)
0x12e10|00 00 00 00 00 00 00 00                        |........        |          value: 0 0x12e10-0x12e18 (8)
0x12e10|                        00 00 00 00 00 00 00 00|        ........|          size: 0 0x12e18-0x12e20 (8)
       |                                               |                |        [38]{}: symbol 0x12e20-0x12e38 (24)
0x12e20|70 01 00 00                                    |p...            |          name: "__lockfile.c" (368) 0x12e20-0x12e24 (4)
0x12e20|            04                                 |    .           |          bind: "local" (0) 0x12e24-0x12e24.4 (0.4)
0x12e20|            04                                 |    .           |          type: "file" (4) 0x12e24.4-0x12e25 (0.4)
0x12e20|               00                              |     .          |          other_unused: 0 0x12e25-0x12e25.6 (0.6)
0x12e20|               00                              |     .          |          visibility: "default" (0) 0x12e25.6-0x12e26 (0.2)
0x12e20|                  f1 ff                        |      ..        |          shndx: 65521 0x12e26-0x12e28 (2)
0x12e20|                        00 00 00 00 00 00 00 00|        ........|          value: 0 0x12e28-0x12e30 (8)
0x12e30|00 00 00 00 00 00 00 00                        |........        |          size: 0 0x12e30-0x12e38 (8)
       |                                               |                |        [39]{}: symbol 0x12e38-0x12e50 (24)
0x12e30|                        7d 01 00 00            |        }...    |          name: "__overflow.c" (381) 0x12e38-0x12e3c (4)
0x12e30|                                    04         |            .   |          bind: "local" (0) 0x12e3c-0x12e3c.4 (0.4)
0x12e30|                                    04         |            .   |          type: "file" (4) 0x12e3c.4-0x12e3d (0.4)
0x12e30|                                       00      |             .  |          other_unused: 0 0x12e3d-0x12e3d.6 (0.6)
0x12e30|                                       00      |             .  |          visibility: "default" (0) 0x12e3d.6-0x12e3e (0.2)
0x12e30|                                          f1 ff|              ..|          shndx: 65521 0x12e3e-0x12e40 (2)
0x12e40|00 00 00 00 00 00 00 00                        |........        |          value: 0 0x12e40-0x12e48 (8)
0x12e40|                        00 00 00 00 00 00 00 00|        ........|          size: 0 0x12e48-0x12e50 (8)
       |                                               |                |        [40]{}: symbol 0x12e50-0x12e68 (24)
0x12e50|8a 01 00 00                                    |....            |          name: "__stdio_close.c" (394) 0x12e50-0x12e54 (4)
0x12e50|            04                                 |    .           |          bind: "local" (0) 0x12e54-0x12e54.4 (0.4)
0x12e50|            04                                 |    .           |          type: "file" (4) 0x12e54.4-0x12e55 (0.4)
0x12e50|               00                              |     .          |          other_unused: 0 0x12e55-0x12e55.6 (0.6)
0x12e50|               00                              |     .          |          visibility: "default" (0) 0x12e55.6-0x12e56 (0.2)
0x12e50|                  f1 ff                        |      ..        |          shndx: 65521 0x12e56-0x12e58 (2)
0x12e50|                        00 00 00 00 00 00 00 00|        ........|          value: 0 0x12e58-0x12e60 (8)
0x12e60|00 00 00 00 00 00 00 00                        |........        |          size: 0 0x12e60-0x12e68 (8)
       |                                               |                |        [41]{}: symbol 0x12e68-0x12e80 (24)
0x12e60|                        8a 00 00 00            |        ....    |          name: "dummy" (138) 0x12e68-0x12e6c (4)
0x12e60|                                    02         |            .   |          bind: "local" (0) 0x12e6c-0x12e6c.4 (0.4)
0x12e60|                                    02         |            .   |          type: "func" (2) 0x12e6c.4-0x12e6d (0.4)
0x12e60|                                       00      |             .  |          other_unused: 0 0x12e6d-0x12e6d.6 (0.6)
0x12e60|                                       00      |             .  |          visibility: "default" (0) 0x12e6d.6-0x12e6e (0.2)
0x12e60|                                          03 00|              ..|          shndx: 3 0x12e6e-0x12e70 (2)
0x12e70|95 18 40 00 00 00 00 00                        |..@.....        |          value: 4200597 0x12e70-0x12e78 (8)
0x12e70|                        03 00 00 00 00 00 00 00|        ........|          size: 3 0x12e78-0x12e80 (8)
       |                                               |                |        [42]{}: symbol 0x12e80-0x12e98 (24)
0x12e80|9a 01 00 00                                    |....            |          name: "__stdio_seek.c" (410) 0x12e80-0x12e84 (4)
0x12e80|            04                                 |    .           |          bind: "local" (0) 0x12e84-0x12e84.4 (0.4)
0x12e80|            04                                 |    .           |          type: "file" (4) 0x12e84.4-0x12e85 (0.4)
0x12e80|               00                              |     .          |          other_unused: 0 0x12e85-0x12e85.6 (0.6)
0x12e80|               00                              |     .          |          visibility: "default" (0) 0x12e85.6-0x12e86 (0.2)
0x12e80|                  f1 ff                        |      ..        |          shndx: 65521 0x12e86-0x12e88 (2)
0x12e80|                        00 00 00 00 00 00 00 00|        ........|          value: 0 0x12e88-0x12e90 (8)
0x12e90|00 00 00 00 00 00 00 00                        |........        |          size: 0 0x12e90-0x12e98 (8)
       |                                               |                |        [43]{}: symbol 0x12e98-0x12eb0 (24)
0x12e90|                        a9 01 00 00            |        ....    |          name: "__stdout_write.c" (425) 0x12e98-0x12e9c (4)
0x12e90|                                    04         |            .   |          bind: "local" (0) 0x12e9c-0x12e9c.4 (0.4)
0x12e90|                                    04         |            .   |          type: "file" (4) 0x12e9c.4-0x12e9d (0.4)
0x12e90|                                       00      |             .  |          other_unused: 0 0x12e9d-0x12e9d.6 (0.6)
0x12e90|                                       00      |             .  |          visibility: "default" (0) 0x12e9d.6-0x12e9e (0.2)
0x12e90|                                          f1 ff|              ..|          shndx: 65521 0x12e9e-0x12ea0 (2)
0x12ea0|00 00 00 00 00 00 00 00                        |........        |          value: 0 0x12ea0-0x12ea8 (8)
0x12ea0|                        00 00 00 00 00 00 00 00|        ........|          size: 0 0x12ea8-0x12eb0 (8)
       |                                               |                |        [44]{}: symbol 0x12eb0-0x12ec8 (24)
0x12eb0|ba 01 00 00                                    |....            |          name: "__towrite.c" (442) 0x12eb0-0x12eb4 (4)
0x12eb0|            04                                 |    .           |          bind: "local" (0) 0x12eb4-0x12eb4.4 (0.4)
0x12eb0|            04                                 |    .           |          type: "file" (4) 0x12eb4.4-0x12eb5 (0.4)
0x12eb0|               00                              |     .          |          other_unused: 0 0x12eb5-0x12eb5.6 (0.6)
0x12eb0|               00                              |     .          |          visibility: "default" (0) 0x12eb5.6-0x12eb6 (0.2)
0x12eb0|                  f1 ff                        |      ..        |          shndx: 65521 0x12eb6-0x12eb8 (2)
0x12eb0|                        00 00 00 00 00 00 00 00|        ........|          value: 0 0x12eb8-0x12ec0 (8)
0x12ec0|00 00 00 00 00 00 00 00                        |........        |          size: 0 0x12ec0-0x12ec8 (8)
       |                                               |                |        [45]{}: symbol 0x12ec8-0x12ee0 (24)
0x12ec0|                        c6 01 00 00            |        ....    |          name: "fputs.c" (454) 0x12ec8-0x12ecc (4)
0x12ec0|                                    04         |            .   |          bind: "local" (0) 0x12ecc-0x12ecc.4 (0.4)
0x12ec0|                                    04         |            .   |          type: "file" (4) 0x12ecc.4-0x12ecd (0.4)
0x12ec0|                                       00      |             .  |          other_unused: 0 0x12ecd-0x12ecd.6 (0.6)
0x12ec0|                                       00      |             .  |          visibility: "default" (0) 0x12ecd.6-0x12ece (0.2)
0x12ec0|                                          f1 ff|              ..|          shndx: 65521 0x12ece-0x12ed0 (2)
0x12ed0|00 00 00 00 00 00 00 00                        |........        |          value: 0 0x12ed0-0x12ed8 (8)
0x12ed0|                        00 00 00 00 00 00 00 00|        ........|          size: 0 0x12ed8-0x12ee0 (8)
       |                                               |                |        [46]{}: symbol 0x12ee0-0x12ef8 (24)
0x12ee0|ce 01 00 00                                    |....            |          name: "fwrite.c" (462) 0x12ee0-0x12ee4 (4)
0x12ee0|            04                                 |    .           |          bind: "local" (0) 0x12ee4-0x12ee4.4 (0.4)
0x12ee0|            04                                 |    .           |          type: "file" (4) 0x12ee4.4-0x12ee5 (0.4)
0x12ee0|               00                              |     .          |          other_unused: 0 0x12ee5-0x12ee5.6 (0.6)
0x12ee0|               00                              |     .          |          visibility: "default" (0) 0x12ee5.6-0x12ee6 (0.2)
0x12ee0|                  f1 ff                        |      ..        |          shndx: 65521 0x12ee6-0x12ee8 (2)
0x12ee0|                        00 00 00 00 00 00 00 00|        ........|          value: 0 0x12ee8-0x12ef0 (8)
0x12ef0|00 00 00 00 00 00 00 00                        |........        |          size: 0 0x12ef0-0x12ef8 (8)
       |                                               |                |        [47]{}: symbol 0x12ef8-0x12f10 (24)
0x12ef0|                        d7 01 00 00            |        ....    |          name: "strlen.c" (471) 0x12ef8-0x12efc (4)
0x12ef0|                                    04         |            .   |          bind: "local" (0) 0x12efc-0x12efc.4 (0.4)
0x12ef0|                                    04         |            .   |          type: "file" (4) 0x12efc.4-0x12efd (0.4)
0x12ef0|                                       00      |             .  |          other_unused: 0 0x12efd-0x12efd.6 (0.6)
0x12ef0|                                       00      |             .  |          visibility: "default" (0) 0x12efd.6-0x12efe (0.2)
0x12ef0|                                          f1 ff|              ..|          shndx: 65521 0x12efe-0x12f00 (2)
0x12f00|00 00 00 00 00 00 00 00                        |........        |          value: 0 0x12f00-0x12f08 (8)
0x12f00|                        00 00 00 00 00 00 00 00|        ........|          size: 0 0x12f08-0x12f10 (8)
       |                                               |                |        [48]{}: symbol 0x12f10-0x12f28 (24)
0x12f10|e0 01 00 00                                    |....            |          name: "default_attr.c" (480) 0x12f10-0x12f14 (4)
0x12f10|            04                                 |    .           |          bind: "local" (0) 0x12f14-0x12f14.4 (0.4)
0x12f10|            04                                 |    .           |          type: "file" (4) 0x12f14.4-0x12f15 (0.4)
0x12f10|               00                              |     .          |          other_unused: 0 0x12f15-0x12f15.6 (0.6)
0x12f10|               00                              |     .          |          visibility: "default" (0) 0x12f15.6-0x12f16 (0.2)
0x12f10|                  f1 ff                        |      ..        |          shndx: 65521 0x12f16-0x12f18 (2)
0x12f10|                        00 00 00 00 00 00 00 00|        ........|          value: 0 0x12f18-0x12f20 (8)
0x12f20|00 00 00 00 00 00 00 00                        |........        |          size: 0 0x12f20-0x12f28 (8)
       |                                               |                |        [49]{}: symbol 0x12f28-0x12f40 (24)
0x12f20|                        ef 01 00 00            |        ....    |          name: "lseek.c" (495) 0x12f28-0x12f2c (4)
0x12f20|                                    04         |            .   |          bind: "local" (0) 0x12f2c-0x12f2c.4 (0.4)
0x12f20|                                    04         |            .   |          type: "file" (4) 0x12f2c.4-0x12f2d (0.4)
0x12f20|                                       00      |             .  |          other_unused: 0 0x12f2d-0x12f2d.6 (0.6)
0x12f20|                                       00      |             .  |          visibility: "default" (0) 0x12f2d.6-0x12f2e (0.2)
0x12f20|                                          f1 ff|              ..|          shndx: 65521 0x12f2e-0x12f30 (2)
0x12f30|00 00 00 00 00 00 00 00                        |........        |          value: 0 0x12f30-0x12f38 (8)
0x12f30|                        00 00 00 00 00 00 00 00|        ........|          size: 0 0x12f38-0x12f40 (8)
       |                                               |                |        [50]{}: symbol 0x12f40-0x12f58 (24)
0x12f40|f7 01 00 00                                    |....            |          name: "syscall_ret.c" (503) 0x12f40-0x12f44 (4)
0x12f40|            04                                 |    .           |          bind: "local" (0) 0x12f44-0x12f44.4 (0.4)
0x12f40|            04                                 |    .           |          type: "file" (4) 0x12f44.4-0x12f45 (0.4)
0x12f40|               00                              |     .          |          other_unused: 0 0x12f45-0x12f45.6 (0.6)
0x12f40|               00                              |     .          |          visibility: "default" (0) 0x12f45.6-0x12f46 (0.2)
0x12f40|                  f1 ff                        |      ..        |          shndx: 65521 0x12f46-0x12f48 (2)
0x12f40|                        00 00 00 00 00 00 00 00|        ........|          value: 0 0x12f48-0x12f50 (8)
0x12f50|00 00 00 00 00 00 00 00                        |........        |          size: 0 0x12f50-0x12f58 (8)
       |                                               |                |        [51]{}: symbol 0x12f58-0x12f70 (24)
0x12f50|                        05 02 00 00            |        ....    |          name: "__stdio_exit.c" (517) 0x12f58-0x12f5c (4)
0x12f50|                                    04         |            .   |          bind: "local" (0) 0x12f5c-0x12f5c.4 (0.4)
0x12f50|                                    04         |            .   |          type: "file" (4) 0x12f5c.4-0x12f5d (0.4)
0x12f50|                                       00      |             .  |          other_unused: 0 0x12f5d-0x12f5d.6 (0.6)
0x12f50|                                       00      |             .  |          visibility: "default" (0) 0x12f5d.6-0x12f5e (0.2)
0x12f50|                                          f1 ff|              ..|          shndx: 65521 0x12f5e-0x12f60 (2)
0x12f60|00 00 00 00 00 00 00 00                        |........        |          value: 0 0x12f60-0x12f68 (8)
0x12f60|                        00 00 00 00 00 00 00 00|        ........|          size: 0 0x12f68-0x12f70 (8)
       |                                               |                |        [52]{}: symbol 0x12f70-0x12f88 (24)
0x12f70|14 02 00 00                                    |....            |          name: "close_file" (532) 0x12f70-0x12f74 (4)
0x12f70|            02                                 |    .           |          bind: "local" (0) 0x12f74-0x12f74.4 (0.4)
0x12f70|            02                                 |    .           |          type: "func" (2) 0x12f74.4-0x12f75 (0.4)
0x12f70|               00                              |     .          |          other_unused: 0 0x12f75-0x12f75.6 (0.6)
0x12f70|               00                              |     .          |          visibility: "default" (0) 0x12f75.6-0x12f76 (0.2)
0x12f70|                  03 00                        |      ..        |          shndx: 3 0x12f76-0x12f78 (2)
0x12f70|                        90 1b 40 00 00 00 00 00|        ..@.....|          value: 4201360 0x12f78-0x12f80 (8)
0x12f80|4e 00 00 00 00 00 00 00                        |N.......        |          size: 78 0x12f80-0x12f88 (8)
       |                                               |                |        [53]{}: symbol 0x12f88-0x12fa0 (24)
0x12f80|                        1f 02 00 00            |        ....    |          name: "dummy_file" (543) 0x12f88-0x12f8c (4)
0x12f80|                                    01         |            .   |          bind: "local" (0) 0x12f8c-0x12f8c.4 (0.4)
0x12f80|                                    01         |            .   |          type: "object" (1) 0x12f8c.4-0x12f8d (0.4)
0x12f80|                                       00      |             .  |          other_unused: 0 0x12f8d-0x12f8d.6 (0.6)
0x12f80|                                       00      |             .  |          visibility: "default" (0) 0x12f8d.6-0x12f8e (0.2)
0x12f80|                                          0b 00|              ..|          shndx: 11 0x12f8e-0x12f90 (2)
0x12f90|d8 47 40 00 00 00 00 00                        |.G@.....        |          value: 4212696 0x12f90-0x12f98 (8)
0x12f90|                        08 00 00 00 00 00 00 00|        ........|          size: 8 0x12f98-0x12fa0 (8)
       |                                               |                |        [54]{}: symbol 0x12fa0-0x12fb8 (24)
0x12fa0|2a 02 00 00                                    |*...            |          name: "__stdio_write.c" (554) 0x12fa0-0x12fa4 (4)
0x12fa0|            04                                 |    .           |          bind: "local" (0) 0x12fa4-0x12fa4.4 (0.4)
0x12fa0|            04                                 |    .           |          type: "file" (4) 0x12fa4.4-0x12fa5 (0.4)
0x12fa0|               00                              |     .          |          other_unused: 0 0x12fa5-0x12fa5.6 (0.6)
0x12fa0|               00                              |     .          |          visibility: "default" (0) 0x12fa5.6-0x12fa6 (0.2)
0x12fa0|                  f1 ff                        |      ..        |          shndx: 65521 0x12fa6-0x12fa8 (2)
0x12fa0|                        00 00 00 00 00 00 00 00|        ........|          value: 0 0x12fa8-0x12fb0 (8)
0x12fb0|00 00 00 00 00 00 00 00                        |........        |          size: 0 0x12fb0-0x12fb8 (8)
       |                                               |                |        [55]{}: symbol 0x12fb8-0x12fd0 (24)
0x12fb0|                        3a 02 00 00            |        :...    |          name: "ofl.c" (570) 0x12fb8-0x12fbc (4)
0x12fb0|                                    04         |            .   |          bind: "local" (0) 0x12fbc-0x12fbc.4 (0.4)
0x12fb0|                                    04         |            .   |          type: "file" (4) 0x12fbc.4-0x12fbd (0.4)
0x12fb0|                                       00      |             .  |          other_unused: 0 0x12fbd-0x12fbd.6 (0.6)
0x12fb0|                                       00      |             .  |          visibility: "default" (0) 0x12fbd.6-0x12fbe (0.2)
0x12fb0|                                          f1 ff|              ..|          shndx: 65521 0x12fbe-0x12fc0 (2)
0x12fc0|00 00 00 00 00 00 00 00                        |........        |          value: 0 0x12fc0-0x12fc8 (8)
0x12fc0|                        00 00 00 00 00 00 00 00|        ........|          size: 0 0x12fc8-0x12fd0 (8)
       |                                               |                |        [56]{}: symbol 0x12fd0-0x12fe8 (24)
0x12fd0|41 03 00 00                                    |A...            |          name: "ofl_lock" (833) 0x12fd0-0x12fd4 (4)
0x12fd0|            01                                 |    .           |          bind: "local" (0) 0x12fd4-0x12fd4.4 (0.4)
0x12fd0|            01                                 |    .           |          type: "object" (1) 0x12fd4.4-0x12fd5 (0.4)
0x12fd0|               00                              |     .          |          other_unused: 0 0x12fd5-0x12fd5.6 (0.6)
0x12fd0|               00                              |     .          |          visibility: "default" (0) 0x12fd5.6-0x12fd6 (0.2)
0x12fd0|                  0b 00                        |      ..        |          shndx: 11 0x12fd6-0x12fd8 (2)
0x12fd0|                        e0 47 40 00 00 00 00 00|        .G@.....|          value: 4212704 0x12fd8-0x12fe0 (8)
0x12fe0|04 00 00 00 00 00 00 00                        |........        |          size: 4 0x12fe0-0x12fe8 (8)
       |                                               |                |        [57]{}: symbol 0x12fe8-0x13000 (24)
0x12fe0|                        40 02 00 00            |        @...    |          name: "ofl_head" (576) 0x12fe8-0x12fec (4)
0x12fe0|                                    01         |            .   |          bind: "local" (0) 0x12fec-0x12fec.4 (0.4)
0x12fe0|                                    01         |            .   |          type: "object" (1) 0x12fec.4-0x12fed (0.4)
0x12fe0|                                       00      |             .  |          other_unused: 0 0x12fed-0x12fed.6 (0.6)
0x12fe0|                                       00      |             .  |          visibility: "default" (0) 0x12fed.6-0x12fee (0.2)
0x12fe0|                                          0b 00|              ..|          shndx: 11 0x12fee-0x12ff0 (2)
0x12ff0|e8 47 40 00 00 00 00 00                        |.G@.....        |          value: 4212712 0x12ff0-0x12ff8 (8)
0x12ff0|                        08 00 00 00 00 00 00 00|        ........|          size: 8 0x12ff8-0x13000 (8)
       |                                               |                |        [58]{}: symbol 0x13000-0x13018 (24)
0x13000|49 02 00 00                                    |I...            |          name: "__lock.c" (585) 0x13000-0x13004 (4)
0x13000|            04                                 |    .           |          bind: "local" (0) 0x13004-0x13004.4 (0.4)
0x13000|            04                                 |    .           |          type: "file" (4) 0x13004.4-0x13005 (0.4)
0x13000|               00                              |     .          |          other_unused: 0 0x13005-0x13005.6 (0.6)
0x13000|               00                              |     .          |          visibility: "default" (0) 0x13005.6-0x13006 (0.2)
0x13000|                  f1 ff                        |      ..        |          shndx: 65521 0x13006-0x13008 (2)
0x13000|                        00 00 00 00 00 00 00 00|        ........|          value: 0 0x13008-0x13010 (8)
0x13010|00 00 00 00 00 00 00 00                        |........        |          size: 0 0x13010-0x13018 (8)
       |                                               |                |        [59]{}: symbol 0x13018-0x13030 (24)
0x13010|                        52 02 00 00            |        R...    |          name: "__errno_location.c" (594) 0x13018-0x1301c (4)
0x13010|                                    04         |            .   |          bind: "local" (0) 0x1301c-0x1301c.4 (0.4)
0x13010|                                    04         |            .   |          type: "file" (4) 0x1301c.4-0x1301d (0.4)
0x13010|                                       00      |             .  |          other_unused: 0 0x1301d-0x1301d.6 (0.6)
0x13010|                                       00      |             .  |          visibility: "default" (0) 0x1301d.6-0x1301e (0.2)
0x13010|                                          f1 ff|              ..|          shndx: 65521 0x1301e-0x13020 (2)
0x13020|00 00 00 00 00 00 00 00                        |........        |          value: 0 0x13020-0x13028 (8)
0x13020|                        00 00 00 00 00 00 00 00|        ........|          size: 0 0x13028-0x13030 (8)
       |                                               |                |        [60]{}: symbol 0x13030-0x13048 (24)
0x13030|00 00 00 00                                    |....            |          name: "" (0) 0x13030-0x13034 (4)
0x13030|            04                                 |    .           |          bind: "local" (0) 0x13034-0x13034.4 (0.4)
0x13030|            04                                 |    .           |          type: "file" (4) 0x13034.4-0x13035 (0.4)
0x13030|               00                              |     .          |          other_unused: 0 0x13035-0x13035.6 (0.6)
0x13030|               00                              |     .          |          visibility: "default" (0) 0x13035.6-0x13036 (0.2)
0x13030|                  f1 ff                        |      ..        |          shndx: 65521 0x13036-0x13038 (2)
0x13030|                        00 00 00 00 00 00 00 00|        ........|          value: 0 0x13038-0x13040 (8)
0x13040|00 00 00 00 00 00 00 00                        |........        |          size: 0 0x13040-0x13048 (8)
       |                                               |                |        [61]{}: symbol 0x13048-0x13060 (24)
0x13040|                        65 02 00 00            |        e...    |          name: "__fini_array_end" (613) 0x13048-0x1304c (4)
0x13040|                                    00         |            .   |          bind: "local" (0) 0x1304c-0x1304c.4 (0.4)
0x13040|                                    00         |            .   |          type: "notype" (0) 0x1304c.4-0x1304d (0.4)
0x13040|                                       00      |             .  |          other_unused: 0 0x1304d-0x1304d.6 (0.6)
0x13040|                                       00      |             .  |          visibility: "default" (0) 0x1304d.6-0x1304e (0.2)
0x13040|                                          07 00|              ..|          shndx: 7 0x1304e-0x13050 (2)
0x13050|d0 3f 40 00 00 00 00 00                        |.?@.....        |          value: 4210640 0x13050-0x13058 (8)
0x13050|                        00 00 00 00 00 00 00 00|        ........|          size: 0 0x13058-0x13060 (8)
       |                                               |                |        [62]{}: symbol 0x13060-0x13078 (24)
0x13060|76 02 00 00                                    |v...            |          name: "__fini_array_start" (630) 0x13060-0x13064 (4)
0x13060|            00                                 |    .           |          bind: "local" (0) 0x13064-0x13064.4 (0.4)
0x13060|            00                                 |    .           |          type: "notype" (0) 0x13064.4-0x13065 (0.4)
0x13060|               00                              |     .          |          other_unused: 0 0x13065-0x13065.6 (0.6)
0x13060|               00                              |     .          |          visibility: "default" (0) 0x13065.6-0x13066 (0.2)
0x13060|                  07 00                        |      ..        |          shndx: 7 0x13066-0x13068 (2)
0x13060|                        d0 3f 40 00 00 00 00 00|        .?@.....|          value: 4210640 0x13068-0x13070 (8)
0x13070|00 00 00 00 00 00 00 00                        |........        |          size: 0 0x13070-0x13078 (8)
       |                                               |                |        [63]{}: symbol 0x13078-0x13090 (24)
0x13070|                        89 02 00 00            |        ....    |          name: "__init_array_end" (649) 0x13078-0x1307c (4)
0x13070|                                    00         |            .   |          bind: "local" (0) 0x1307c-0x1307c.4 (0.4)
0x13070|                                    00         |            .   |          type: "notype" (0) 0x1307c.4-0x1307d (0.4)
0x13070|                                       00      |             .  |          other_unused: 0 0x1307d-0x1307d.6 (0.6)
0x13070|                                       00      |             .  |          visibility: "default" (0) 0x1307d.6-0x1307e (0.2)
0x13070|                                          07 00|              ..|          shndx: 7 0x1307e-0x13080 (2)
0x13080|d0 3f 40 00 00 00 00 00                        |.?@.....        |          value: 4210640 0x13080-0x13088 (8)
0x13080|                        00 00 00 00 00 00 00 00|        ........|          size: 0 0x13088-0x13090 (8)
       |                                               |                |        [64]{}: symbol 0x13090-0x130a8 (24)
0x13090|9a 02 00 00                                    |....            |          name: "__init_array_start" (666) 0x13090-0x13094 (4)
0x13090|            00                                 |    .           |          bind: "local" (0) 0x13094-0x13094.4 (0.4)
0x13090|            00                                 |    .           |          type: "notype" (0) 0x13094.4-0x13095 (0.4)
0x13090|               00                              |     .          |          other_unused: 0 0x13095-0x13095.6 (0.6)
0x13090|               00                              |     .          |          visibility: "default" (0) 0x13095.6-0x13096 (0.2)
0x13090|                  07 00                        |      ..        |          shndx: 7 0x13096-0x13098 (2)
0x13090|                        d0 3f 40 00 00 00 00 00|        .?@.....|          value: 4210640 0x13098-0x130a0 (8)
0x130a0|00 00 00 00 00 00 00 00                        |........        |          size: 0 0x130a0-0x130a8 (8)
       |                                               |                |        [65]{}: symbol 0x130a8-0x130c0 (24)
0x130a0|                        ad 02 00 00            |        ....    |          name: "__thread_list_lock" (685) 0x130a8-0x130ac (4)
0x130a0|                                    11         |            .   |          bind: "global" (1) 0x130ac-0x130ac.4 (0.4)
0x130a0|                                    11         |            .   |          type: "object" (1) 0x130ac.4-0x130ad (0.4)
0x130a0|                                       02      |             .  |          other_unused: 0 0x130ad-0x130ad.6 (0.6)
0x130a0|                                       02      |             .  |          visibility: "hidden" (2) 0x130ad.6-0x130ae (0.2)
0x130a0|                                          0b 00|              ..|          shndx: 11 0x130ae-0x130b0 (2)
0x130b0|d0 47 40 00 00 00 00 00                        |.G@.....        |          value: 4212688 0x130b0-0x130b8 (8)
0x130b0|                        04 00 00 00 00 00 00 00|        ........|          size: 4 0x130b8-0x130c0 (8)
       |                                               |                |        [66]{}: symbol 0x130c0-0x130d8 (24)
0x130c0|c0 02 00 00                                    |....            |          name: "__stdout_used" (704) 0x130c0-0x130c4 (4)
0x130c0|            11                                 |    .           |          bind: "global" (1) 0x130c4-0x130c4.4 (0.4)
0x130c0|            11                                 |    .           |          type: "object" (1) 0x130c4.4-0x130c5 (0.4)
0x130c0|               02                              |     .          |          other_unused: 0 0x130c5-0x130c5.6 (0.6)
0x130c0|               02                              |     .          |          visibility: "hidden" (2) 0x130c5.6-0x130c6 (0.2)
0x130c0|                  0a 00                        |      ..        |          shndx: 10 0x130c6-0x130c8 (2)
0x130c0|                        08 40 40 00 00 00 00 00|        .@@.....|          value: 4210696 0x130c8-0x130d0 (8)
0x130d0|08 00 00 00 00 00 00 00                        |........        |          size: 8 0x130d0-0x130d8 (8)
       |                                               |                |        [67]{}: symbol 0x130d8-0x130f0 (24)
0x130d0|                        ce 02 00 00            |        ....    |          name: "stdout" (718) 0x130d8-0x130dc (4)
0x130d0|                                    11         |            .   |          bind: "global" (1) 0x130dc-0x130dc.4 (0.4)
0x130d0|                                    11         |            .   |          type: "object" (1) 0x130dc.4-0x130dd (0.4)
0x130d0|                                       00      |             .  |          other_unused: 0 0x130dd-0x130dd.6 (0.6)
0x130d0|                                       00      |             .  |          visibility: "default" (0) 0x130dd.6-0x130de (0.2)
0x130d0|                                          09 00|              ..|          shndx: 9 0x130de-0x130e0 (2)
0x130e0|f0 3f 40 00 00 00 00 00                        |.?@.....        |          value: 4210672 0x130e0-0x130e8 (8)
0x130e0|                        08 00 00 00 00 00 00 00|        ........|          size: 8 0x130e8-0x130f0 (8)
       |                                               |                |        [68]{}: symbol 0x130f0-0x13108 (24)
0x130f0|d5 02 00 00                                    |....            |          name: "__init_libc" (725) 0x130f0-0x130f4 (4)
0x130f0|            12                                 |    .           |          bind: "global" (1) 0x130f4-0x130f4.4 (0.4)
0x130f0|            12                                 |    .           |          type: "func" (2) 0x130f4.4-0x130f5 (0.4)
0x130f0|               02                              |     .          |          other_unused: 0 0x130f5-0x130f5.6 (0.6)
0x130f0|               02                              |     .          |          visibility: "hidden" (2) 0x130f5.6-0x130f6 (0.2)
0x130f0|                  03 00                        |      ..        |          shndx: 3 0x130f6-0x130f8 (2)
0x130f0|                        e4 11 40 00 00 00 00 00|        ..@.....|          value: 4198884 0x130f8-0x13100 (8)
0x13100|83 01 00 00 00 00 00 00                        |........        |          size: 387 0x13100-0x13108 (8)
       |                                               |                |        [69]{}: symbol 0x13108-0x13120 (24)
0x13100|                        e1 02 00 00            |        ....    |          name: "__syscall_ret" (737) 0x13108-0x1310c (4)
0x13100|                                    12         |            .   |          bind: "global" (1) 0x1310c-0x1310c.4 (0.4)
0x13100|                                    12         |            .   |          type: "func" (2) 0x1310c.4-0x1310d (0.4)
0x13100|                                       02      |             .  |          other_unused: 0 0x1310d-0x1310d.6 (0.6)
0x13100|                                       02      |             .  |          visibility: "hidden" (2) 0x1310d.6-0x1310e (0.2)
0x13100|                                          03 00|              ..|          shndx: 3 0x1310e-0x13110 (2)
0x13110|6d 1b 40 00 00 00 00 00                        |m.@.....        |          value: 4201325 0x13110-0x13118 (8)
0x13110|                        23 00 00 00 00 00 00 00|        #.......|          size: 35 0x13118-0x13120 (8)
       |                                               |                |        [70]{}: symbol 0x13120-0x13138 (24)
0x13120|ef 02 00 00                                    |....            |          name: "__stdout_write" (751) 0x13120-0x13124 (4)
0x13120|            12                                 |    .           |          bind: "global" (1) 0x13124-0x13124.4 (0.4)
0x13120|            12                                 |    .           |          type: "func" (2) 0x13124.4-0x13125 (0.4)
0x13120|               02                              |     .          |          other_unused: 0 0x13125-0x13125.6 (0.6)
0x13120|               02                              |     .          |          visibility: "hidden" (2) 0x13125.6-0x13126 (0.2)
0x13120|                  03 00                        |      ..        |          shndx: 3 0x13126-0x13128 (2)
0x13120|                        bd 18 40 00 00 00 00 00|        ..@.....|          value: 4200637 0x13128-0x13130 (8)
0x13130|55 00 00 00 00 00 00 00                        |U.......        |          size: 85 0x13130-0x13138 (8)
       |                                               |                |        [71]{}: symbol 0x13138-0x13150 (24)
0x13130|                        fe 02 00 00            |        ....    |          name: "__ofl_unlock" (766) 0x13138-0x1313c (4)
0x13130|                                    12         |            .   |          bind: "global" (1) 0x1313c-0x1313c.4 (0.4)
0x13130|                                    12         |            .   |          type: "func" (2) 0x1313c.4-0x1313d (0.4)
0x13130|                                       02      |             .  |          other_unused: 0 0x1313d-0x1313d.6 (0.6)
0x13130|                                       02      |             .  |          visibility: "hidden" (2) 0x1313d.6-0x1313e (0.2)
0x13130|                                          03 00|              ..|          shndx: 3 0x1313e-0x13140 (2)
0x13140|12 1d 40 00 00 00 00 00                        |..@.....        |          value: 4201746 0x13140-0x13148 (8)
0x13140|                        0c 00 00 00 00 00 00 00|        ........|          size: 12 0x13148-0x13150 (8)
       |                                               |                |        [72]{}: symbol 0x13150-0x13168 (24)
0x13150|0b 03 00 00                                    |....            |          name: "__unlockfile" (779) 0x13150-0x13154 (4)
0x13150|            12                                 |    .           |          bind: "global" (1) 0x13154-0x13154.4 (0.4)
0x13150|            12                                 |    .           |          type: "func" (2) 0x13154.4-0x13155 (0.4)
0x13150|               02                              |     .          |          other_unused: 0 0x13155-0x13155.6 (0.6)
0x13150|               02                              |     .          |          visibility: "hidden" (2) 0x13155.6-0x13156 (0.2)
0x13150|                  03 00                        |      ..        |          shndx: 3 0x13156-0x13158 (2)
0x13150|                        f2 17 40 00 00 00 00 00|        ..@.....|          value: 4200434 0x13158-0x13160 (8)
0x13160|3c 00 00 00 00 00 00 00                        |<.......        |          size: 60 0x13160-0x13168 (8)
       |                                               |                |        [73]{}: symbol 0x13168-0x13180 (24)
0x13160|                        18 03 00 00            |        ....    |          name: "__hwcap" (792) 0x13168-0x1316c (4)
0x13160|                                    11         |            .   |          bind: "global" (1) 0x1316c-0x1316c.4 (0.4)
0x13160|                                    11         |            .   |          type: "object" (1) 0x1316c.4-0x1316d (0.4)
0x13160|                                       02      |             .  |          other_unused: 0 0x1316d-0x1316d.6 (0.6)
0x13160|                                       02      |             .  |          visibility: "hidden" (2) 0x1316d.6-0x1316e (0.2)
0x13160|                                          0b 00|              ..|          shndx: 11 0x1316e-0x13170 (2)
0x13170|88 41 40 00 00 00 00 00                        |.A@.....        |          value: 4211080 0x13170-0x13178 (8)
0x13170|                        08 00 00 00 00 00 00 00|        ........|          size: 8 0x13178-0x13180 (8)
       |                                               |                |        [74]{}: symbol 0x13180-0x13198 (24)
0x13180|20 03 00 00                                    | ...            |          name: "__stdio_write" (800) 0x13180-0x13184 (4)
0x13180|            12                                 |    .           |          bind: "global" (1) 0x13184-0x13184.4 (0.4)
0x13180|            12                                 |    .           |          type: "func" (2) 0x13184.4-0x13185 (0.4)
0x13180|               02                              |     .          |          other_unused: 0 0x13185-0x13185.6 (0.6)
0x13180|               02                              |     .          |          visibility: "hidden" (2) 0x13185.6-0x13186 (0.2)
0x13180|                  03 00                        |      ..        |          shndx: 3 0x13186-0x13188 (2)
0x13180|                        1f 1c 40 00 00 00 00 00|        ..@.....|          value: 4201503 0x13188-0x13190 (8)
0x13190|dd 00 00 00 00 00 00 00                        |........        |          size: 221 0x13190-0x13198 (8)
       |                                               |                |        [75]{}: symbol 0x13198-0x131b0 (24)
0x13190|                        2e 03 00 00            |        ....    |          name: "__towrite" (814) 0x13198-0x1319c (4)
0x13190|                                    12         |            .   |          bind: "global" (1) 0x1319c-0x1319c.4 (0.4)
0x13190|                                    12         |            .   |          type: "func" (2) 0x1319c.4-0x1319d (0.4)
0x13190|                                       02      |             .  |          other_unused: 0 0x1319d-0x1319d.6 (0.6)
0x13190|                                       02      |             .  |          visibility: "hidden" (2) 0x1319d.6-0x1319e (0.2)
0x13190|                                          03 00|              ..|          shndx: 3 0x1319e-0x131a0 (2)
0x131a0|12 19 40 00 00 00 00 00                        |..@.....        |          value: 4200722 0x131a0-0x131a8 (8)
0x131a0|                        47 00 00 00 00 00 00 00|        G.......|          size: 71 0x131a8-0x131b0 (8)
       |                                               |                |        [76]{}: symbol 0x131b0-0x131c8 (24)
0x131b0|38 03 00 00                                    |8...            |          name: "memcpy" (824) 0x131b0-0x131b4 (4)
0x131b0|            12                                 |    .           |          bind: "global" (1) 0x131b4-0x131b4.4 (0.4)
0x131b0|            12                                 |    .           |          type: "func" (2) 0x131b4.4-0x131b5 (0.4)
0x131b0|               00                              |     .          |          other_unused: 0 0x131b5-0x131b5.6 (0.6)
0x131b0|               00                              |     .          |          visibility: "default" (0) 0x131b5.6-0x131b6 (0.2)
0x131b0|                  03 00                        |      ..        |          shndx: 3 0x131b6-0x131b8 (2)
0x131b0|                        16 1b 40 00 00 00 00 00|        ..@.....|          value: 4201238 0x131b8-0x131c0 (8)
0x131c0|00 00 00 00 00 00 00 00                        |........        |          size: 0 0x131c0-0x131c8 (8)
       |                                               |                |        [77]{}: symbol 0x131c8-0x131e0 (24)
0x131c0|                        3f 03 00 00            |        ?...    |          name: "__ofl_lock" (831) 0x131c8-0x131cc (4)
0x131c0|                                    12         |            .   |          bind: "global" (1) 0x131cc-0x131cc.4 (0.4)
0x131c0|                                    12         |            .   |          type: "func" (2) 0x131cc.4-0x131cd (0.4)
0x131c0|                                       02      |             .  |          other_unused: 0 0x131cd-0x131cd.6 (0.6)
0x131c0|                                       02      |             .  |          visibility: "hidden" (2) 0x131cd.6-0x131ce (0.2)
0x131c0|                                          03 00|              ..|          shndx: 3 0x131ce-0x131d0 (2)
0x131d0|fc 1c 40 00 00 00 00 00                        |..@.....        |          value: 4201724 0x131d0-0x131d8 (8)
0x131d0|                        16 00 00 00 00 00 00 00|        ........|          size: 22 0x131d8-0x131e0 (8)
       |                                               |                |        [78]{}: symbol 0x131e0-0x131f8 (24)
0x131e0|4a 03 00 00                                    |J...            |          name: "__TMC_END__" (842) 0x131e0-0x131e4 (4)
0x131e0|            11                                 |    .           |          bind: "global" (1) 0x131e4-0x131e4.4 (0.4)
0x131e0|            11                                 |    .           |          type: "object" (1) 0x131e4.4-0x131e5 (0.4)
0x131e0|               02                              |     .          |          other_unused: 0 0x131e5-0x131e5.6 (0.6)
0x131e0|               02                              |     .          |          visibility: "hidden" (2) 0x131e5.6-0x131e6 (0.2)
0x131e0|                  0a 00                        |      ..        |          shndx: 10 0x131e6-0x131e8 (2)
0x131e0|                        10 41 40 00 00 00 00 00|        .A@.....|          value: 4210960 0x131e8-0x131f0 (8)
0x131f0|00 00 00 00 00 00 00 00                        |........        |          size: 0 0x131f0-0x131f8 (8)
       |                                               |                |        [79]{}: symbol 0x131f8-0x13210 (24)
0x131f0|                        56 03 00 00            |        V...    |          name: "__unlock" (854) 0x131f8-0x131fc (4)
0x131f0|                                    12         |            .   |          bind: "global" (1) 0x131fc-0x131fc.4 (0.4)
0x131f0|                                    12         |            .   |          type: "func" (2) 0x131fc.4-0x131fd (0.4)
0x131f0|                                       02      |             .  |          other_unused: 0 0x131fd-0x131fd.6 (0.6)
0x131f0|                                       02      |             .  |          visibility: "hidden" (2) 0x131fd.6-0x131fe (0.2)
0x131f0|                                          03 00|              ..|          shndx: 3 0x131fe-0x13200 (2)
0x13200|d0 1d 40 00 00 00 00 00                        |..@.....        |          value: 4201936 0x13200-0x13208 (8)
0x13200|                        3a 00 00 00 00 00 00 00|        :.......|          size: 58 0x13208-0x13210 (8)
       |                                               |                |        [80]{}: symbol 0x13210-0x13228 (24)
0x13210|5f 03 00 00                                    |_...            |          name: "__DTOR_END__" (863) 0x13210-0x13214 (4)
0x13210|            11                                 |    .           |          bind: "global" (1) 0x13214-0x13214.4 (0.4)
0x13210|            11                                 |    .           |          type: "object" (1) 0x13214.4-0x13215 (0.4)
0x13210|               02                              |     .          |          other_unused: 0 0x13215-0x13215.6 (0.6)
0x13210|               02                              |     .          |          visibility: "hidden" (2) 0x13215.6-0x13216 (0.2)
0x13210|                  08 00                        |      ..        |          shndx: 8 0x13216-0x13218 (2)
0x13210|                        e8 3f 40 00 00 00 00 00|        .?@.....|          value: 4210664 0x13218-0x13220 (8)
0x13220|00 00 00 00 00 00 00 00                        |........        |          size: 0 0x13220-0x13228 (8)
       |                                               |                |        [81]{}: symbol 0x13228-0x13240 (24)
0x13220|                        b7 05 00 00            |        ....    |          name: "puts" (1463) 0x13228-0x1322c (4)
0x13220|                                    12         |            .   |          bind: "global" (1) 0x1322c-0x1322c.4 (0.4)
0x13220|                                    12         |            .   |          type: "func" (2) 0x1322c.4-0x1322d (0.4)
0x13220|                                       00      |             .  |          other_unused: 0 0x1322d-0x1322d.6 (0.6)
0x13220|                                       00      |             .  |          visibility: "default" (0) 0x1322d.6-0x1322e (0.2)
0x13220|                                          03 00|              ..|          shndx: 3 0x1322e-0x13230 (2)
0x13230|15 14 40 00 00 00 00 00                        |..@.....        |          value: 4199445 0x13230-0x13238 (8)
0x13230|                        9f 00 00 00 00 00 00 00|        ........|          size: 159 0x13238-0x13240 (8)
       |                                               |                |        [82]{}: symbol 0x13240-0x13258 (24)
0x13240|6c 03 00 00                                    |l...            |          name: "__overflow" (876) 0x13240-0x13244 (4)
0x13240|            12                                 |    .           |          bind: "global" (1) 0x13244-0x13244.4 (0.4)
0x13240|            12                                 |    .           |          type: "func" (2) 0x13244.4-0x13245 (0.4)
0x13240|               03                              |     .          |          other_unused: 0 0x13245-0x13245.6 (0.6)
0x13240|               03                              |     .          |          visibility: "protected" (3) 0x13245.6-0x13246 (0.2)
0x13240|                  03 00                        |      ..        |          shndx: 3 0x13246-0x13248 (2)
0x13240|                        2e 18 40 00 00 00 00 00|        ..@.....|          value: 4200494 0x13248-0x13250 (8)
0x13250|67 00 00 00 00 00 00 00                        |g.......        |          size: 103 0x13250-0x13258 (8)
       |                                               |                |        [83]{}: symbol 0x13258-0x13270 (24)
0x13250|                        77 03 00 00            |        w...    |          name: "__libc" (887) 0x13258-0x1325c (4)
0x13250|                                    11         |            .   |          bind: "global" (1) 0x1325c-0x1325c.4 (0.4)
0x13250|                                    11         |            .   |          type: "object" (1) 0x1325c.4-0x1325d (0.4)
0x13250|                                       02      |             .  |          other_unused: 0 0x1325d-0x1325d.6 (0.6)
0x13250|                                       02      |             .  |          visibility: "hidden" (2) 0x1325d.6-0x1325e (0.2)
0x13250|                                          0b 00|              ..|          shndx: 11 0x1325e-0x13260 (2)
0x13260|a0 41 40 00 00 00 00 00                        |.A@.....        |          value: 4211104 0x13260-0x13268 (8)
0x13260|                        68 00 00 00 00 00 00 00|        h.......|          size: 104 0x13268-0x13270 (8)
       |                                               |                |        [84]{}: symbol 0x13270-0x13288 (24)
0x13270|7e 03 00 00                                    |~...            |          name: "__dso_handle" (894) 0x13270-0x13274 (4)
0x13270|            11                                 |    .           |          bind: "global" (1) 0x13274-0x13274.4 (0.4)
0x13270|            11                                 |    .           |          type: "object" (1) 0x13274.4-0x13275 (0.4)
0x13270|               02                              |     .          |          other_unused: 0 0x13275-0x13275.6 (0.6)
0x13270|               02                              |     .          |          visibility: "hidden" (2) 0x13275.6-0x13276 (0.2)
0x13270|                  0a 00                        |      ..        |          shndx: 10 0x13276-0x13278 (2)
0x13270|                        00 40 40 00 00 00 00 00|        .@@.....|          value: 4210688 0x13278-0x13280 (8)
0x13280|00 00 00 00 00 00 00 00                        |........        |          size: 0 0x13280-0x13288 (8)
       |                                               |                |        [85]{}: symbol 0x13288-0x132a0 (24)
0x13280|                        8b 03 00 00            |        ....    |          name: "__set_thread_area" (907) 0x13288-0x1328c (4)
0x13280|                                    12         |            .   |          bind: "global" (1) 0x1328c-0x1328c.4 (0.4)
0x13280|                                    12         |            .   |          type: "func" (2) 0x1328c.4-0x1328d (0.4)
0x13280|                                       02      |             .  |          other_unused: 0 0x1328d-0x1328d.6 (0.6)
0x13280|                                       02      |             .  |          visibility: "hidden" (2) 0x1328d.6-0x1328e (0.2)
0x13280|                                          03 00|              ..|          shndx: 3 0x1328e-0x13290 (2)
0x13290|48 1b 40 00 00 00 00 00                        |H.@.....        |          value: 4201288 0x13290-0x13298 (8)
0x13290|                        00 00 00 00 00 00 00 00|        ........|          size: 0 0x13298-0x132a0 (8)
       |                                               |                |        [86]{}: symbol 0x132a0-0x132b8 (24)
0x132a0|9d 03 00 00                                    |....            |          name: "__stdin_used" (925) 0x132a0-0x132a4 (4)
0x132a0|            21                                 |    !           |          bind: "weak" (2) 0x132a4-0x132a4.4 (0.4)
0x132a0|            21                                 |    !           |          type: "object" (1) 0x132a4.4-0x132a5 (0.4)
0x132a0|               02                              |     .          |          other_unused: 0 0x132a5-0x132a5.6 (0.6)
0x132a0|               02                              |     .          |          visibility: "hidden" (2) 0x132a5.6-0x132a6 (0.2)
0x132a0|                  0b 00                        |      ..        |          shndx: 11 0x132a6-0x132a8 (2)
0x132a0|                        d8 47 40 00 00 00 00 00|        .G@.....|          value: 4212696 0x132a8-0x132b0 (8)
0x132b0|08 00 00 00 00 00 00 00                        |........        |          size: 8 0x132b0-0x132b8 (8)
       |                                               |                |        [87]{}: symbol 0x132b8-0x132d0 (24)
0x132b0|                        aa 03 00 00            |        ....    |          name: "__copy_tls" (938) 0x132b8-0x132bc (4)
0x132b0|                                    12         |            .   |          bind: "global" (1) 0x132bc-0x132bc.4 (0.4)
0x132b0|                                    12         |            .   |          type: "func" (2) 0x132bc.4-0x132bd (0.4)
0x132b0|                                       02      |             .  |          other_unused: 0 0x132bd-0x132bd.6 (0.6)
0x132b0|                                       02      |             .  |          visibility: "hidden" (2) 0x132bd.6-0x132be (0.2)
0x132b0|                                          03 00|              ..|          shndx: 3 0x132be-0x132c0 (2)
0x132c0|1f 15 40 00 00 00 00 00                        |..@.....        |          value: 4199711 0x132c0-0x132c8 (8)
0x132c0|                        79 00 00 00 00 00 00 00|        y.......|          size: 121 0x132c8-0x132d0 (8)
       |                                               |                |        [88]{}: symbol 0x132d0-0x132e8 (24)
0x132d0|b5 03 00 00                                    |....            |          name: "__stdio_seek" (949) 0x132d0-0x132d4 (4)
0x132d0|            12                                 |    .           |          bind: "global" (1) 0x132d4-0x132d4.4 (0.4)
0x132d0|            12                                 |    .           |          type: "func" (2) 0x132d4.4-0x132d5 (0.4)
0x132d0|               02                              |     .          |          other_unused: 0 0x132d5-0x132d5.6 (0.6)
0x132d0|               02                              |     .          |          visibility: "hidden" (2) 0x132d5.6-0x132d6 (0.2)
0x132d0|                  03 00                        |      ..        |          shndx: 3 0x132d6-0x132d8 (2)
0x132d0|                        b5 18 40 00 00 00 00 00|        ..@.....|          value: 4200629 0x132d8-0x132e0 (8)
0x132e0|08 00 00 00 00 00 00 00                        |........        |          size: 8 0x132e0-0x132e8 (8)
       |                                               |                |        [89]{}: symbol 0x132e8-0x13300 (24)
0x132e0|                        51 04 00 00            |        Q...    |          name: "_environ" (1105) 0x132e8-0x132ec (4)
0x132e0|                                    21         |            !   |          bind: "weak" (2) 0x132ec-0x132ec.4 (0.4)
0x132e0|                                    21         |            !   |          type: "object" (1) 0x132ec.4-0x132ed (0.4)
0x132e0|                                       00      |             .  |          other_unused: 0 0x132ed-0x132ed.6 (0.6)
0x132e0|                                       00      |             .  |          visibility: "default" (0) 0x132ed.6-0x132ee (0.2)
0x132e0|                                          0b 00|              ..|          shndx: 11 0x132ee-0x132f0 (2)
0x132f0|28 46 40 00 00 00 00 00                        |(F@.....        |          value: 4212264 0x132f0-0x132f8 (8)
0x132f0|                        08 00 00 00 00 00 00 00|        ........|          size: 8 0x132f8-0x13300 (8)
       |                                               |                |        [90]{}: symbol 0x13300-0x13318 (24)
0x13300|c2 03 00 00                                    |....            |          name: "__lockfile" (962) 0x13300-0x13304 (4)
0x13300|            12                                 |    .           |          bind: "global" (1) 0x13304-0x13304.4 (0.4)
0x13300|            12                                 |    .           |          type: "func" (2) 0x13304.4-0x13305 (0.4)
0x13300|               02                              |     .          |          other_unused: 0 0x13305-0x13305.6 (0.6)
0x13300|               02                              |     .          |          visibility: "hidden" (2) 0x13305.6-0x13306 (0.2)
0x13300|                  03 00                        |      ..        |          shndx: 3 0x13306-0x13308 (2)
0x13300|                        40 17 40 00 00 00 00 00|        @.@.....|          value: 4200256 0x13308-0x13310 (8)
0x13310|b2 00 00 00 00 00 00 00                        |........        |          size: 178 0x13310-0x13318 (8)
       |                                               |                |        [91]{}: symbol 0x13318-0x13330 (24)
0x13310|                        cd 03 00 00            |        ....    |          name: "___errno_location" (973) 0x13318-0x1331c (4)
0x13310|                                    22         |            "   |          bind: "weak" (2) 0x1331c-0x1331c.4 (0.4)
0x13310|                                    22         |            "   |          type: "func" (2) 0x1331c.4-0x1331d (0.4)
0x13310|                                       02      |             .  |          other_unused: 0 0x1331d-0x1331d.6 (0.6)
0x13310|                                       02      |             .  |          visibility: "hidden" (2) 0x1331d.6-0x1331e (0.2)
0x13310|                                          03 00|              ..|          shndx: 3 0x1331e-0x13320 (2)
0x13320|0a 1e 40 00 00 00 00 00                        |..@.....        |          value: 4201994 0x13320-0x13328 (8)
0x13320|                        0e 00 00 00 00 00 00 00|        ........|          size: 14 0x13328-0x13330 (8)
       |                                               |                |        [92]{}: symbol 0x13330-0x13348 (24)
0x13330|f9 04 00 00                                    |....            |          name: "lseek" (1273) 0x13330-0x13334 (4)
0x13330|            22                                 |    "           |          bind: "weak" (2) 0x13334-0x13334.4 (0.4)
0x13330|            22                                 |    "           |          type: "func" (2) 0x13334.4-0x13335 (0.4)
0x13330|               00                              |     .          |          other_unused: 0 0x13335-0x13335.6 (0.6)
0x13330|               00                              |     .          |          visibility: "default" (0) 0x13335.6-0x13336 (0.2)
0x13330|                  03 00                        |      ..        |          shndx: 3 0x13336-0x13338 (2)
0x13330|                        58 1b 40 00 00 00 00 00|        X.@.....|          value: 4201304 0x13338-0x13340 (8)
0x13340|15 00 00 00 00 00 00 00                        |........        |          size: 21 0x13340-0x13348 (8)
       |                                               |                |        [93]{}: symbol 0x13348-0x13360 (24)
0x13340|                        50 04 00 00            |        P...    |          name: "__environ" (1104) 0x13348-0x1334c (4)
0x13340|                                    11         |            .   |          bind: "global" (1) 0x1334c-0x1334c.4 (0.4)
0x13340|                                    11         |            .   |          type: "object" (1) 0x1334c.4-0x1334d (0.4)
0x13340|                                       00      |             .  |          other_unused: 0 0x1334d-0x1334d.6 (0.6)
0x13340|                                       00      |             .  |          visibility: "default" (0) 0x1334d.6-0x1334e (0.2)
0x13340|                                          0b 00|              ..|          shndx: 11 0x1334e-0x13350 (2)
0x13350|28 46 40 00 00 00 00 00                        |(F@.....        |          value: 4212264 0x13350-0x13358 (8)
0x13350|                        08 00 00 00 00 00 00 00|        ........|          size: 8 0x13358-0x13360 (8)
       |                                               |                |        [94]{}: symbol 0x13360-0x13378 (24)
0x13360|df 03 00 00                                    |....            |          name: "aaa" (991) 0x13360-0x13364 (4)
0x13360|            12                                 |    .           |          bind: "global" (1) 0x13364-0x13364.4 (0.4)
0x13360|            12                                 |    .           |          type: "func" (2) 0x13364.4-0x13365 (0.4)
0x13360|               00                              |     .          |          other_unused: 0 0x13365-0x13365.6 (0.6)
0x13360|               00                              |     .          |          visibility: "default" (0) 0x13365.6-0x13366 (0.2)
0x13360|                  03 00                        |      ..        |          shndx: 3 0x13366-0x13368 (2)
0x13360|                        9d 11 40 00 00 00 00 00|        ..@.....|          value: 4198813 0x13368-0x13370 (8)
0x13370|13 00 00 00 00 00 00 00                        |........        |          size: 19 0x13370-0x13378 (8)
       |                                               |                |        [95]{}: symbol 0x13378-0x13390 (24)
0x13370|                        e3 03 00 00            |        ....    |          name: "_Exit" (995) 0x13378-0x1337c (4)
0x13370|                                    12         |            .   |          bind: "global" (1) 0x1337c-0x1337c.4 (0.4)
0x13370|                                    12         |            .   |          type: "func" (2) 0x1337c.4-0x1337d (0.4)
0x13370|                                       00      |             .  |          other_unused: 0 0x1337d-0x1337d.6 (0.6)
0x13370|                                       00      |             .  |          visibility: "default" (0) 0x1337d.6-0x1337e (0.2)
0x13370|                                          03 00|              ..|          shndx: 3 0x1337e-0x13380 (2)
0x13380|2a 17 40 00 00 00 00 00                        |*.@.....        |          value: 4200234 0x13380-0x13388 (8)
0x13380|                        16 00 00 00 00 00 00 00|        ........|          size: 22 0x13388-0x13390 (8)
       |                                               |                |        [96]{}: symbol 0x13390-0x133a8 (24)
0x13390|e9 03 00 00                                    |....            |          name: "__towrite_needs_stdio_exit" (1001) 0x13390-0x13394 (4)
0x13390|            12                                 |    .           |          bind: "global" (1) 0x13394-0x13394.4 (0.4)
0x13390|            12                                 |    .           |          type: "func" (2) 0x13394.4-0x13395 (0.4)
0x13390|               02                              |     .          |          other_unused: 0 0x13395-0x13395.6 (0.6)
0x13390|               02                              |     .          |          visibility: "hidden" (2) 0x13395.6-0x13396 (0.2)
0x13390|                  03 00                        |      ..        |          shndx: 3 0x13396-0x13398 (2)
0x13390|                        59 19 40 00 00 00 00 00|        Y.@.....|          value: 4200793 0x13398-0x133a0 (8)
0x133a0|05 00 00 00 00 00 00 00                        |........        |          size: 5 0x133a0-0x133a8 (8)
       |                                               |                |        [97]{}: symbol 0x133a8-0x133c0 (24)
0x133a0|                        04 04 00 00            |        ....    |          name: "__init_tls" (1028) 0x133a8-0x133ac (4)
0x133a0|                                    22         |            "   |          bind: "weak" (2) 0x133ac-0x133ac.4 (0.4)
0x133a0|                                    22         |            "   |          type: "func" (2) 0x133ac.4-0x133ad (0.4)
0x133a0|                                       02      |             .  |          other_unused: 0 0x133ad-0x133ad.6 (0.6)
0x133a0|                                       02      |             .  |          visibility: "hidden" (2) 0x133ad.6-0x133ae (0.2)
0x133a0|                                          03 00|              ..|          shndx: 3 0x133ae-0x133b0 (2)
0x133b0|98 15 40 00 00 00 00 00                        |..@.....        |          value: 4199832 0x133b0-0x133b8 (8)
0x133b0|                        92 01 00 00 00 00 00 00|        ........|          size: 402 0x133b8-0x133c0 (8)
       |                                               |                |        [98]{}: symbol 0x133c0-0x133d8 (24)
0x133c0|a6 04 00 00                                    |....            |          name: "_init" (1190) 0x133c0-0x133c4 (4)
0x133c0|            10                                 |    .           |          bind: "global" (1) 0x133c4-0x133c4.4 (0.4)
0x133c0|            10                                 |    .           |          type: "notype" (0) 0x133c4.4-0x133c5 (0.4)
0x133c0|               00                              |     .          |          other_unused: 0 0x133c5-0x133c5.6 (0.6)
0x133c0|               00                              |     .          |          visibility: "default" (0) 0x133c5.6-0x133c6 (0.2)
0x133c0|                  02 00                        |      ..        |          shndx: 2 0x133c6-0x133c8 (2)
0x133c0|                        00 10 40 00 00 00 00 00|        ..@.....|          value: 4198400 0x133c8-0x133d0 (8)
0x133d0|00 00 00 00 00 00 00 00                        |........        |          size: 0 0x133d0-0x133d8 (8)
       |                                               |                |        [99]{}: symbol 0x133d8-0x133f0 (24)
0x133d0|                        0f 04 00 00            |        ....    |          name: "__funcs_on_exit" (1039) 0x133d8-0x133dc (4)
0x133d0|                                    22         |            "   |          bind: "weak" (2) 0x133dc-0x133dc.4 (0.4)
0x133d0|                                    22         |            "   |          type: "func" (2) 0x133dc.4-0x133dd (0.4)
0x133d0|                                       02      |             .  |          other_unused: 0 0x133dd-0x133dd.6 (0.6)
0x133d0|                                       02      |             .  |          visibility: "hidden" (2) 0x133dd.6-0x133de (0.2)
0x133d0|                                          03 00|              ..|          shndx: 3 0x133de-0x133e0 (2)
0x133e0|f1 13 40 00 00 00 00 00                        |..@.....        |          value: 4199409 0x133e0-0x133e8 (8)
0x133e0|                        01 00 00 00 00 00 00 00|        ........|          size: 1 0x133e8-0x133f0 (8)
       |                                               |                |        [100]{}: symbol 0x133f0-0x13408 (24)
0x133f0|1f 04 00 00                                    |....            |          name: "__memcpy_fwd" (1055) 0x133f0-0x133f4 (4)
0x133f0|            10                                 |    .           |          bind: "global" (1) 0x133f4-0x133f4.4 (0.4)
0x133f0|            10                                 |    .           |          type: "notype" (0) 0x133f4.4-0x133f5 (0.4)
0x133f0|               02                              |     .          |          other_unused: 0 0x133f5-0x133f5.6 (0.6)
0x133f0|               02                              |     .          |          visibility: "hidden" (2) 0x133f5.6-0x133f6 (0.2)
0x133f0|                  03 00                        |      ..        |          shndx: 3 0x133f6-0x133f8 (2)
0x133f0|                        16 1b 40 00 00 00 00 00|        ..@.....|          value: 4201238 0x133f8-0x13400 (8)
0x13400|00 00 00 00 00 00 00 00                        |........        |          size: 0 0x13400-0x13408 (8)
       |                                               |                |        [101]{}: symbol 0x13408-0x13420 (24)
0x13400|                        52 04 00 00            |        R...    |          name: "environ" (1106) 0x13408-0x1340c (4)
0x13400|                                    21         |            !   |          bind: "weak" (2) 0x1340c-0x1340c.4 (0.4)
0x13400|                                    21         |            !   |          type: "object" (1) 0x1340c.4-0x1340d (0.4)
0x13400|                                       00      |             .  |          other_unused: 0 0x1340d-0x1340d.6 (0.6)
0x13400|                                       00      |             .  |          visibility: "default" (0) 0x1340d.6-0x1340e (0.2)
0x13400|                                          0b 00|              ..|          shndx: 11 0x1340e-0x13410 (2)
0x13410|28 46 40 00 00 00 00 00                        |(F@.....        |          value: 4212264 0x13410-0x13418 (8)
0x13410|                        08 00 00 00 00 00 00 00|        ........|          size: 8 0x13418-0x13420 (8)
       |                                               |                |        [102]{}: symbol 0x13420-0x13438 (24)
0x13420|2c 04 00 00                                    |,...            |          name: "__stdio_ofl_lockptr" (1068) 0x13420-0x13424 (4)
0x13420|            11                                 |    .           |          bind: "global" (1) 0x13424-0x13424.4 (0.4)
0x13420|            11                                 |    .           |          type: "object" (1) 0x13424.4-0x13425 (0.4)
0x13420|               02                              |     .          |          other_unused: 0 0x13425-0x13425.6 (0.6)
0x13420|               02                              |     .          |          visibility: "hidden" (2) 0x13425.6-0x13426 (0.2)
0x13420|                  09 00                        |      ..        |          shndx: 9 0x13426-0x13428 (2)
0x13420|                        f8 3f 40 00 00 00 00 00|        .?@.....|          value: 4210680 0x13428-0x13430 (8)
0x13430|08 00 00 00 00 00 00 00                        |........        |          size: 8 0x13430-0x13438 (8)
       |                                               |                |        [103]{}: symbol 0x13438-0x13450 (24)
0x13430|                        40 04 00 00            |        @...    |          name: "fputs_unlocked" (1088) 0x13438-0x1343c (4)
0x13430|                                    22         |            "   |          bind: "weak" (2) 0x1343c-0x1343c.4 (0.4)
0x13430|                                    22         |            "   |          type: "func" (2) 0x1343c.4-0x1343d (0.4)
0x13430|                                       00      |             .  |          other_unused: 0 0x1343d-0x1343d.6 (0.6)
0x13430|                                       00      |             .  |          visibility: "default" (0) 0x1343d.6-0x1343e (0.2)
0x13430|                                          03 00|              ..|          shndx: 3 0x1343e-0x13440 (2)
0x13440|5e 19 40 00 00 00 00 00                        |^.@.....        |          value: 4200798 0x13440-0x13448 (8)
0x13440|                        3f 00 00 00 00 00 00 00|        ?.......|          size: 63 0x13448-0x13450 (8)
       |                                               |                |        [104]{}: symbol 0x13450-0x13468 (24)
0x13450|4f 04 00 00                                    |O...            |          name: "___environ" (1103) 0x13450-0x13454 (4)
0x13450|            21                                 |    !           |          bind: "weak" (2) 0x13454-0x13454.4 (0.4)
0x13450|            21                                 |    !           |          type: "object" (1) 0x13454.4-0x13455 (0.4)
0x13450|               00                              |     .          |          other_unused: 0 0x13455-0x13455.6 (0.6)
0x13450|               00                              |     .          |          visibility: "default" (0) 0x13455.6-0x13456 (0.2)
0x13450|                  0b 00                        |      ..        |          shndx: 11 0x13456-0x13458 (2)
0x13450|                        28 46 40 00 00 00 00 00|        (F@.....|          value: 4212264 0x13458-0x13460 (8)
0x13460|08 00 00 00 00 00 00 00                        |........        |          size: 8 0x13460-0x13468 (8)
       |                                               |                |        [105]{}: symbol 0x13468-0x13480 (24)
0x13460|                        5a 04 00 00            |        Z...    |          name: "__progname" (1114) 0x13468-0x1346c (4)
0x13460|                                    11         |            .   |          bind: "global" (1) 0x1346c-0x1346c.4 (0.4)
0x13460|                                    11         |            .   |          type: "object" (1) 0x1346c.4-0x1346d (0.4)
0x13460|                                       00      |             .  |          other_unused: 0 0x1346d-0x1346d.6 (0.6)
0x13460|                                       00      |             .  |          visibility: "default" (0) 0x1346d.6-0x1346e (0.2)
0x13460|                                          0b 00|              ..|          shndx: 11 0x1346e-0x13470 (2)
0x13470|80 41 40 00 00 00 00 00                        |.A@.....        |          value: 4211072 0x13470-0x13478 (8)
0x13470|                        08 00 00 00 00 00 00 00|        ........|          size: 8 0x13478-0x13480 (8)
       |                                               |                |        [106]{}: symbol 0x13480-0x13498 (24)
0x13480|d0 04 00 00                                    |....            |          name: "_start" (1232) 0x13480-0x13484 (4)
0x13480|            10                                 |    .           |          bind: "global" (1) 0x13484-0x13484.4 (0.4)
0x13480|            10                                 |    .           |          type: "notype" (0) 0x13484.4-0x13485 (0.4)
0x13480|               00                              |     .          |          other_unused: 0 0x13485-0x13485.6 (0.6)
0x13480|               00                              |     .          |          visibility: "default" (0) 0x13485.6-0x13486 (0.2)
0x13480|                  03 00                        |      ..        |          shndx: 3 0x13486-0x13488 (2)
0x13480|                        32 10 40 00 00 00 00 00|        2.@.....|          value: 4198450 0x13488-0x13490 (8)
0x13490|00 00 00 00 00 00 00 00                        |........        |          size: 0 0x13490-0x13498 (8)
       |                                               |                |        [107]{}: symbol 0x13498-0x134b0 (24)
0x13490|                        65 04 00 00            |        e...    |          name: "_start_c" (1125) 0x13498-0x1349c (4)
0x13490|                                    12         |            .   |          bind: "global" (1) 0x1349c-0x1349c.4 (0.4)
0x13490|                                    12         |            .   |          type: "func" (2) 0x1349c.4-0x1349d (0.4)
0x13490|                                       00      |             .  |          other_unused: 0 0x1349d-0x1349d.6 (0.6)
0x13490|                                       00      |             .  |          visibility: "default" (0) 0x1349d.6-0x1349e (0.2)
0x13490|                                          03 00|              ..|          shndx: 3 0x1349e-0x134a0 (2)
0x134a0|48 10 40 00 00 00 00 00                        |H.@.....        |          value: 4198472 0x134a0-0x134a8 (8)
0x134a0|                        24 00 00 00 00 00 00 00|        $.......|          size: 36 0x134a8-0x134b0 (8)
       |                                               |                |        [108]{}: symbol 0x134b0-0x134c8 (24)
0x134b0|6e 04 00 00                                    |n...            |          name: "__stdout_FILE" (1134) 0x134b0-0x134b4 (4)
0x134b0|            11                                 |    .           |          bind: "global" (1) 0x134b4-0x134b4.4 (0.4)
0x134b0|            11                                 |    .           |          type: "object" (1) 0x134b4.4-0x134b5 (0.4)
0x134b0|               02                              |     .          |          other_unused: 0 0x134b5-0x134b5.6 (0.6)
0x134b0|               02                              |     .          |          visibility: "hidden" (2) 0x134b5.6-0x134b6 (0.2)
0x134b0|                  0a 00                        |      ..        |          shndx: 10 0x134b6-0x134b8 (2)
0x134b0|                        20 40 40 00 00 00 00 00|         @@.....|          value: 4210720 0x134b8-0x134c0 (8)
0x134c0|e8 00 00 00 00 00 00 00                        |........        |          size: 232 0x134c0-0x134c8 (8)
       |                                               |                |        [109]{}: symbol 0x134c8-0x134e0 (24)
0x134c0|                        7c 04 00 00            |        |...    |          name: "program_invocation_short_name" (1148) 0x134c8-0x134cc (4)
0x134c0|                                    21         |            !   |          bind: "weak" (2) 0x134cc-0x134cc.4 (0.4)
0x134c0|                                    21         |            !   |          type: "object" (1) 0x134cc.4-0x134cd (0.4)
0x134c0|                                       00      |             .  |          other_unused: 0 0x134cd-0x134cd.6 (0.6)
0x134c0|                                       00      |             .  |          visibility: "default" (0) 0x134cd.6-0x134ce (0.2)
0x134c0|                                          0b 00|              ..|          shndx: 11 0x134ce-0x134d0 (2)
0x134d0|80 41 40 00 00 00 00 00                        |.A@.....        |          value: 4211072 0x134d0-0x134d8 (8)
0x134d0|                        08 00 00 00 00 00 00 00|        ........|          size: 8 0x134d8-0x134e0 (8)
       |                                               |                |        [110]{}: symbol 0x134e0-0x134f8 (24)
0x134e0|9a 04 00 00                                    |....            |          name: "__libc_start_init" (1178) 0x134e0-0x134e4 (4)
0x134e0|            22                                 |    "           |          bind: "weak" (2) 0x134e4-0x134e4.4 (0.4)
0x134e0|            22                                 |    "           |          type: "func" (2) 0x134e4.4-0x134e5 (0.4)
0x134e0|               02                              |     .          |          other_unused: 0 0x134e5-0x134e5.6 (0.6)
0x134e0|               02                              |     .          |          visibility: "hidden" (2) 0x134e5.6-0x134e6 (0.2)
0x134e0|                  03 00                        |      ..        |          shndx: 3 0x134e6-0x134e8 (2)
0x134e0|                        67 13 40 00 00 00 00 00|        g.@.....|          value: 4199271 0x134e8-0x134f0 (8)
0x134f0|20 00 00 00 00 00 00 00                        | .......        |          size: 32 0x134f0-0x134f8 (8)
       |                                               |                |        [111]{}: symbol 0x134f8-0x13510 (24)
0x134f0|                        ac 04 00 00            |        ....    |          name: "__init_tp" (1196) 0x134f8-0x134fc (4)
0x134f0|                                    12         |            .   |          bind: "global" (1) 0x134fc-0x134fc.4 (0.4)
0x134f0|                                    12         |            .   |          type: "func" (2) 0x134fc.4-0x134fd (0.4)
0x134f0|                                       02      |             .  |          other_unused: 0 0x134fd-0x134fd.6 (0.6)
0x134f0|                                       02      |             .  |          visibility: "hidden" (2) 0x134fd.6-0x134fe (0.2)
0x134f0|                                          03 00|              ..|          shndx: 3 0x134fe-0x13500 (2)
0x13500|b4 14 40 00 00 00 00 00                        |..@.....        |          value: 4199604 0x13500-0x13508 (8)
0x13500|                        6b 00 00 00 00 00 00 00|        k.......|          size: 107 0x13508-0x13510 (8)
       |                                               |                |        [112]{}: symbol 0x13510-0x13528 (24)
0x13510|b6 04 00 00                                    |....            |          name: "__init_ssp" (1206) 0x13510-0x13514 (4)
0x13510|            22                                 |    "           |          bind: "weak" (2) 0x13514-0x13514.4 (0.4)
0x13510|            22                                 |    "           |          type: "func" (2) 0x13514.4-0x13515 (0.4)
0x13510|               02                              |     .          |          other_unused: 0 0x13515-0x13515.6 (0.6)
0x13510|               02                              |     .          |          visibility: "hidden" (2) 0x13515.6-0x13516 (0.2)
0x13510|                  03 00                        |      ..        |          shndx: 3 0x13516-0x13518 (2)
0x13510|                        e3 11 40 00 00 00 00 00|        ..@.....|          value: 4198883 0x13518-0x13520 (8)
0x13520|01 00 00 00 00 00 00 00                        |........        |          size: 1 0x13520-0x13528 (8)
       |                                               |                |        [113]{}: symbol 0x13528-0x13540 (24)
0x13520|                        c1 04 00 00            |        ....    |          name: "__fwritex" (1217) 0x13528-0x1352c (4)
0x13520|                                    12         |            .   |          bind: "global" (1) 0x1352c-0x1352c.4 (0.4)
0x13520|                                    12         |            .   |          type: "func" (2) 0x1352c.4-0x1352d (0.4)
0x13520|                                       02      |             .  |          other_unused: 0 0x1352d-0x1352d.6 (0.6)
0x13520|                                       02      |             .  |          visibility: "hidden" (2) 0x1352d.6-0x1352e (0.2)
0x13520|                                          03 00|              ..|          shndx: 3 0x1352e-0x13530 (2)
0x13530|9d 19 40 00 00 00 00 00                        |..@.....        |          value: 4200861 0x13530-0x13538 (8)
0x13530|                        ae 00 00 00 00 00 00 00|        ........|          size: 174 0x13538-0x13540 (8)
       |                                               |                |        [114]{}: symbol 0x13540-0x13558 (24)
0x13540|cb 04 00 00                                    |....            |          name: "__bss_start" (1227) 0x13540-0x13544 (4)
0x13540|            10                                 |    .           |          bind: "global" (1) 0x13544-0x13544.4 (0.4)
0x13540|            10                                 |    .           |          type: "notype" (0) 0x13544.4-0x13545 (0.4)
0x13540|               00                              |     .          |          other_unused: 0 0x13545-0x13545.6 (0.6)
0x13540|               00                              |     .          |          visibility: "default" (0) 0x13545.6-0x13546 (0.2)
0x13540|                  0b 00                        |      ..        |          shndx: 11 0x13546-0x13548 (2)
0x13540|                        10 41 40 00 00 00 00 00|        .A@.....|          value: 4210960 0x13548-0x13550 (8)
0x13550|00 00 00 00 00 00 00 00                        |........        |          size: 0 0x13550-0x13558 (8)
       |                                               |                |        [115]{}: symbol 0x13558-0x13570 (24)
0x13550|                        76 05 00 00            |        v...    |          name: "main" (1398) 0x13558-0x1355c (4)
0x13550|                                    12         |            .   |          bind: "global" (1) 0x1355c-0x1355c.4 (0.4)
0x13550|                                    12         |            .   |          type: "func" (2) 0x1355c.4-0x1355d (0.4)
0x13550|                                       00      |             .  |          other_unused: 0 0x1355d-0x1355d.6 (0.6)
0x13550|                                       00      |             .  |          visibility: "default" (0) 0x1355d.6-0x1355e (0.2)
0x13550|                                          03 00|              ..|          shndx: 3 0x1355e-0x13560 (2)
0x13560|b0 11 40 00 00 00 00 00                        |..@.....        |          value: 4198832 0x13560-0x13568 (8)
0x13560|                        1f 00 00 00 00 00 00 00|        ........|          size: 31 0x13568-0x13570 (8)
       |                                               |                |        [116]{}: symbol 0x13570-0x13588 (24)
0x13570|d7 04 00 00                                    |....            |          name: "__stdio_exit" (1239) 0x13570-0x13574 (4)
0x13570|            12                                 |    .           |          bind: "global" (1) 0x13574-0x13574.4 (0.4)
0x13570|            12                                 |    .           |          type: "func" (2) 0x13574.4-0x13575 (0.4)
0x13570|               02                              |     .          |          other_unused: 0 0x13575-0x13575.6 (0.6)
0x13570|               02                              |     .          |          visibility: "hidden" (2) 0x13575.6-0x13576 (0.2)
0x13570|                  03 00                        |      ..        |          shndx: 3 0x13576-0x13578 (2)
0x13570|                        de 1b 40 00 00 00 00 00|        ..@.....|          value: 4201438 0x13578-0x13580 (8)
0x13580|41 00 00 00 00 00 00 00                        |A.......        |          size: 65 0x13580-0x13588 (8)
       |                                               |                |        [117]{}: symbol 0x13588-0x135a0 (24)
0x13580|                        e4 04 00 00            |        ....    |          name: "__lock" (1252) 0x13588-0x1358c (4)
0x13580|                                    12         |            .   |          bind: "global" (1) 0x1358c-0x1358c.4 (0.4)
0x13580|                                    12         |            .   |          type: "func" (2) 0x1358c.4-0x1358d (0.4)
0x13580|                                       02      |             .  |          other_unused: 0 0x1358d-0x1358d.6 (0.6)
0x13580|                                       02      |             .  |          visibility: "hidden" (2) 0x1358d.6-0x1358e (0.2)
0x13580|                                          03 00|              ..|          shndx: 3 0x1358e-0x13590 (2)
0x13590|1e 1d 40 00 00 00 00 00                        |..@.....        |          value: 4201758 0x13590-0x13598 (8)
0x13590|                        b2 00 00 00 00 00 00 00|        ........|          size: 178 0x13598-0x135a0 (8)
       |                                               |                |        [118]{}: symbol 0x135a0-0x135b8 (24)
0x135a0|eb 04 00 00                                    |....            |          name: "__aio_close" (1259) 0x135a0-0x135a4 (4)
0x135a0|            22                                 |    "           |          bind: "weak" (2) 0x135a4-0x135a4.4 (0.4)
0x135a0|            22                                 |    "           |          type: "func" (2) 0x135a4.4-0x135a5 (0.4)
0x135a0|               02                              |     .          |          other_unused: 0 0x135a5-0x135a5.6 (0.6)
0x135a0|               02                              |     .          |          visibility: "hidden" (2) 0x135a5.6-0x135a6 (0.2)
0x135a0|                  03 00                        |      ..        |          shndx: 3 0x135a6-0x135a8 (2)
0x135a0|                        95 18 40 00 00 00 00 00|        ..@.....|          value: 4200597 0x135a8-0x135b0 (8)
0x135b0|03 00 00 00 00 00 00 00                        |........        |          size: 3 0x135b0-0x135b8 (8)
       |                                               |                |        [119]{}: symbol 0x135b8-0x135d0 (24)
0x135b0|                        f7 04 00 00            |        ....    |          name: "__lseek" (1271) 0x135b8-0x135bc (4)
0x135b0|                                    12         |            .   |          bind: "global" (1) 0x135bc-0x135bc.4 (0.4)
0x135b0|                                    12         |            .   |          type: "func" (2) 0x135bc.4-0x135bd (0.4)
0x135b0|                                       02      |             .  |          other_unused: 0 0x135bd-0x135bd.6 (0.6)
0x135b0|                                       02      |             .  |          visibility: "hidden" (2) 0x135bd.6-0x135be (0.2)
0x135b0|                                          03 00|              ..|          shndx: 3 0x135be-0x135c0 (2)
0x135c0|58 1b 40 00 00 00 00 00                        |X.@.....        |          value: 4201304 0x135c0-0x135c8 (8)
0x135c0|                        15 00 00 00 00 00 00 00|        ........|          size: 21 0x135c8-0x135d0 (8)
       |                                               |                |        [120]{}: symbol 0x135d0-0x135e8 (24)
0x135d0|0a 05 00 00                                    |....            |          name: "_fini" (1290) 0x135d0-0x135d4 (4)
0x135d0|            10                                 |    .           |          bind: "global" (1) 0x135d4-0x135d4.4 (0.4)
0x135d0|            10                                 |    .           |          type: "notype" (0) 0x135d4.4-0x135d5 (0.4)
0x135d0|               00                              |     .          |          other_unused: 0 0x135d5-0x135d5.6 (0.6)
0x135d0|               00                              |     .          |          visibility: "default" (0) 0x135d5.6-0x135d6 (0.2)
0x135d0|                  04 00                        |      ..        |          shndx: 4 0x135d6-0x135d8 (2)
0x135d0|                        61 1e 40 00 00 00 00 00|        a.@.....|          value: 4202081 0x135d8-0x135e0 (8)
0x135e0|00 00 00 00 00 00 00 00                        |........        |          size: 0 0x135e0-0x135e8 (8)
       |                                               |                |        [121]{}: symbol 0x135e8-0x13600 (24)
0x135e0|                        ff 04 00 00            |        ....    |          name: "__libc_exit_fini" (1279) 0x135e8-0x135ec (4)
0x135e0|                                    22         |            "   |          bind: "weak" (2) 0x135ec-0x135ec.4 (0.4)
0x135e0|                                    22         |            "   |          type: "func" (2) 0x135ec.4-0x135ed (0.4)
0x135e0|                                       02      |             .  |          other_unused: 0 0x135ed-0x135ed.6 (0.6)
0x135e0|                                       02      |             .  |          visibility: "hidden" (2) 0x135ed.6-0x135ee (0.2)
0x135e0|                                          03 00|              ..|          shndx: 3 0x135ee-0x135f0 (2)
0x135f0|f2 13 40 00 00 00 00 00                        |..@.....        |          value: 4199410 0x135f0-0x135f8 (8)
0x135f0|                        23 00 00 00 00 00 00 00|        #.......|          size: 35 0x135f8-0x13600 (8)
       |                                               |                |        [122]{}: symbol 0x13600-0x13618 (24)
0x13600|10 05 00 00                                    |....            |          name: "fwrite_unlocked" (1296) 0x13600-0x13604 (4)
0x13600|            22                                 |    "           |          bind: "weak" (2) 0x13604-0x13604.4 (0.4)
0x13600|            22                                 |    "           |          type: "func" (2) 0x13604.4-0x13605 (0.4)
0x13600|               00                              |     .          |          other_unused: 0 0x13605-0x13605.6 (0.6)
0x13600|               00                              |     .          |          visibility: "default" (0) 0x13605.6-0x13606 (0.2)
0x13600|                  03 00                        |      ..        |          shndx: 3 0x13606-0x13608 (2)
0x13600|                        4b 1a 40 00 00 00 00 00|        K.@.....|          value: 4201035 0x13608-0x13610 (8)
0x13610|80 00 00 00 00 00 00 00                        |........        |          size: 128 0x13610-0x13618 (8)
       |                                               |                |        [123]{}: symbol 0x13618-0x13630 (24)
0x13610|                        20 05 00 00            |         ...    |          name: "fwrite" (1312) 0x13618-0x1361c (4)
0x13610|                                    12         |            .   |          bind: "global" (1) 0x1361c-0x1361c.4 (0.4)
0x13610|                                    12         |            .   |          type: "func" (2) 0x1361c.4-0x1361d (0.4)
0x13610|                                       00      |             .  |          other_unused: 0 0x1361d-0x1361d.6 (0.6)
0x13610|                                       00      |             .  |          visibility: "default" (0) 0x1361d.6-0x1361e (0.2)
0x13610|                                          03 00|              ..|          shndx: 3 0x1361e-0x13620 (2)
0x13620|4b 1a 40 00 00 00 00 00                        |K.@.....        |          value: 4201035 0x13620-0x13628 (8)
0x13620|                        80 00 00 00 00 00 00 00|        ........|          size: 128 0x13628-0x13630 (8)
       |                                               |                |        [124]{}: symbol 0x13630-0x13648 (24)
0x13630|27 05 00 00                                    |'...            |          name: "_edata" (1319) 0x13630-0x13634 (4)
0x13630|            10                                 |    .           |          bind: "global" (1) 0x13634-0x13634.4 (0.4)
0x13630|            10                                 |    .           |          type: "notype" (0) 0x13634.4-0x13635 (0.4)
0x13630|               00                              |     .          |          other_unused: 0 0x13635-0x13635.6 (0.6)
0x13630|               00                              |     .          |          visibility: "default" (0) 0x13635.6-0x13636 (0.2)
0x13630|                  0a 00                        |      ..        |          shndx: 10 0x13636-0x13638 (2)
0x13630|                        10 41 40 00 00 00 00 00|        .A@.....|          value: 4210960 0x13638-0x13640 (8)
0x13640|00 00 00 00 00 00 00 00                        |........        |          size: 0 0x13640-0x13648 (8)
       |                                               |                |        [125]{}: symbol 0x13648-0x13660 (24)
0x13640|                        71 02 00 00            |        q...    |          name: "_end" (625) 0x13648-0x1364c (4)
0x13640|                                    10         |            .   |          bind: "global" (1) 0x1364c-0x1364c.4 (0.4)
0x13640|                                    10         |            .   |          type: "notype" (0) 0x1364c.4-0x1364d (0.4)
0x13640|                                       00      |             .  |          other_unused: 0 0x1364d-0x1364d.6 (0.6)
0x13640|                                       00      |             .  |          visibility: "default" (0) 0x1364d.6-0x1364e (0.2)
0x13640|                                          0b 00|              ..|          shndx: 11 0x1364e-0x13650 (2)
0x13650|f0 47 40 00 00 00 00 00                        |.G@.....        |          value: 4212720 0x13650-0x13658 (8)
0x13650|                        00 00 00 00 00 00 00 00|        ........|          size: 0 0x13658-0x13660 (8)
       |                                               |                |        [126]{}: symbol 0x13660-0x13678 (24)
0x13660|2e 05 00 00                                    |....            |          name: "__stdio_close" (1326) 0x13660-0x13664 (4)
0x13660|            12                                 |    .           |          bind: "global" (1) 0x13664-0x13664.4 (0.4)
0x13660|            12                                 |    .           |          type: "func" (2) 0x13664.4-0x13665 (0.4)
0x13660|               02                              |     .          |          other_unused: 0 0x13665-0x13665.6 (0.6)
0x13660|               02                              |     .          |          visibility: "hidden" (2) 0x13665.6-0x13666 (0.2)
0x13660|                  03 00                        |      ..        |          shndx: 3 0x13666-0x13668 (2)
0x13660|                        98 18 40 00 00 00 00 00|        ..@.....|          value: 4200600 0x13668-0x13670 (8)
0x13670|1d 00 00 00 00 00 00 00                        |........        |          size: 29 0x13670-0x13678 (8)
       |                                               |                |        [127]{}: symbol 0x13678-0x13690 (24)
0x13670|                        ce 03 00 00            |        ....    |          name: "__errno_location" (974) 0x13678-0x1367c (4)
0x13670|                                    12         |            .   |          bind: "global" (1) 0x1367c-0x1367c.4 (0.4)
0x13670|                                    12         |            .   |          type: "func" (2) 0x1367c.4-0x1367d (0.4)
0x13670|                                       00      |             .  |          other_unused: 0 0x1367d-0x1367d.6 (0.6)
0x13670|                                       00      |             .  |          visibility: "default" (0) 0x1367d.6-0x1367e (0.2)
0x13670|                                          03 00|              ..|          shndx: 3 0x1367e-0x13680 (2)
0x13680|0a 1e 40 00 00 00 00 00                        |..@.....        |          value: 4201994 0x13680-0x13688 (8)
0x13680|                        0e 00 00 00 00 00 00 00|        ........|          size: 14 0x13688-0x13690 (8)
       |                                               |                |        [128]{}: symbol 0x13690-0x136a8 (24)
0x13690|1a 04 00 00                                    |....            |          name: "exit" (1050) 0x13690-0x13694 (4)
0x13690|            12                                 |    .           |          bind: "global" (1) 0x13694-0x13694.4 (0.4)
0x13690|            12                                 |    .           |          type: "func" (2) 0x13694.4-0x13695 (0.4)
0x13690|               00                              |     .          |          other_unused: 0 0x13695-0x13695.6 (0.6)
0x13690|               00                              |     .          |          visibility: "default" (0) 0x13695.6-0x13696 (0.2)
0x13690|                  03 00                        |      ..        |          shndx: 3 0x13696-0x13698 (2)
0x13690|                        10 10 40 00 00 00 00 00|        ..@.....|          value: 4198416 0x13698-0x136a0 (8)
0x136a0|22 00 00 00 00 00 00 00                        |".......        |          size: 34 0x136a0-0x136a8 (8)
       |                                               |                |        [129]{}: symbol 0x136a8-0x136c0 (24)
0x136a0|                        3c 05 00 00            |        <...    |          name: "__stderr_used" (1340) 0x136a8-0x136ac (4)
0x136a0|                                    21         |            !   |          bind: "weak" (2) 0x136ac-0x136ac.4 (0.4)
0x136a0|                                    21         |            !   |          type: "object" (1) 0x136ac.4-0x136ad (0.4)
0x136a0|                                       02      |             .  |          other_unused: 0 0x136ad-0x136ad.6 (0.6)
0x136a0|                                       02      |             .  |          visibility: "hidden" (2) 0x136ad.6-0x136ae (0.2)
0x136a0|                                          0b 00|              ..|          shndx: 11 0x136ae-0x136b0 (2)
0x136b0|d8 47 40 00 00 00 00 00                        |.G@.....        |          value: 4212696 0x136b0-0x136b8 (8)
0x136b0|                        08 00 00 00 00 00 00 00|        ........|          size: 8 0x136b8-0x136c0 (8)
       |                                               |                |        [130]{}: symbol 0x136c0-0x136d8 (24)
0x136c0|4a 05 00 00                                    |J...            |          name: "__stdio_exit_needed" (1354) 0x136c0-0x136c4 (4)
0x136c0|            22                                 |    "           |          bind: "weak" (2) 0x136c4-0x136c4.4 (0.4)
0x136c0|            22                                 |    "           |          type: "func" (2) 0x136c4.4-0x136c5 (0.4)
0x136c0|               02                              |     .          |          other_unused: 0 0x136c5-0x136c5.6 (0.6)
0x136c0|               02                              |     .          |          visibility: "hidden" (2) 0x136c5.6-0x136c6 (0.2)
0x136c0|                  03 00                        |      ..        |          shndx: 3 0x136c6-0x136c8 (2)
0x136c0|                        de 1b 40 00 00 00 00 00|        ..@.....|          value: 4201438 0x136c8-0x136d0 (8)
0x136d0|41 00 00 00 00 00 00 00                        |A.......        |          size: 65 0x136d0-0x136d8 (8)
       |                                               |                |        [131]{}: symbol 0x136d8-0x136f0 (24)
0x136d0|                        5e 05 00 00            |        ^...    |          name: "libbbb_bbb" (1374) 0x136d8-0x136dc (4)
0x136d0|                                    12         |            .   |          bind: "global" (1) 0x136dc-0x136dc.4 (0.4)
0x136d0|                                    12         |            .   |          type: "func" (2) 0x136dc.4-0x136dd (0.4)
0x136d0|                                       00      |             .  |          other_unused: 0 0x136dd-0x136dd.6 (0.6)
0x136d0|                                       00      |             .  |          visibility: "default" (0) 0x136dd.6-0x136de (0.2)
0x136d0|                                          03 00|              ..|          shndx: 3 0x136de-0x136e0 (2)
0x136e0|cf 11 40 00 00 00 00 00                        |..@.....        |          value: 4198863 0x136e0-0x136e8 (8)
0x136e0|                        13 00 00 00 00 00 00 00|        ........|          size: 19 0x136e8-0x136f0 (8)
       |                                               |                |        [132]{}: symbol 0x136f0-0x13708 (24)
0x136f0|69 05 00 00                                    |i...            |          name: "__libc_start_main" (1385) 0x136f0-0x136f4 (4)
0x136f0|            12                                 |    .           |          bind: "global" (1) 0x136f4-0x136f4.4 (0.4)
0x136f0|            12                                 |    .           |          type: "func" (2) 0x136f4.4-0x136f5 (0.4)
0x136f0|               00                              |     .          |          other_unused: 0 0x136f5-0x136f5.6 (0.6)
0x136f0|               00                              |     .          |          visibility: "default" (0) 0x136f5.6-0x136f6 (0.2)
0x136f0|                  03 00                        |      ..        |          shndx: 3 0x136f6-0x136f8 (2)
0x136f0|                        b5 13 40 00 00 00 00 00|        ..@.....|          value: 4199349 0x136f8-0x13700 (8)
0x13700|3c 00 00 00 00 00 00 00                        |<.......        |          size: 60 0x13700-0x13708 (8)
       |                                               |                |        [133]{}: symbol 0x13708-0x13720 (24)
0x13700|                        7b 05 00 00            |        {...    |          name: "strlen" (1403) 0x13708-0x1370c (4)
0x13700|                                    12         |            .   |          bind: "global" (1) 0x1370c-0x1370c.4 (0.4)
0x13700|                                    12         |            .   |          type: "func" (2) 0x1370c.4-0x1370d (0.4)
0x13700|                                       00      |             .  |          other_unused: 0 0x1370d-0x1370d.6 (0.6)
0x13700|                                       00      |             .  |          visibility: "default" (0) 0x1370d.6-0x1370e (0.2)
0x13700|                                          03 00|              ..|          shndx: 3 0x1370e-0x13710 (2)
0x13710|cb 1a 40 00 00 00 00 00                        |..@.....        |          value: 4201163 0x13710-0x13718 (8)
0x13710|                        4b 00 00 00 00 00 00 00|        K.......|          size: 75 0x13718-0x13720 (8)
       |                                               |                |        [134]{}: symbol 0x13720-0x13738 (24)
0x13720|82 05 00 00                                    |....            |          name: "lseek64" (1410) 0x13720-0x13724 (4)
0x13720|            22                                 |    "           |          bind: "weak" (2) 0x13724-0x13724.4 (0.4)
0x13720|            22                                 |    "           |          type: "func" (2) 0x13724.4-0x13725 (0.4)
0x13720|               00                              |     .          |          other_unused: 0 0x13725-0x13725.6 (0.6)
0x13720|               00                              |     .          |          visibility: "default" (0) 0x13725.6-0x13726 (0.2)
0x13720|                  03 00                        |      ..        |          shndx: 3 0x13726-0x13728 (2)
0x13720|                        58 1b 40 00 00 00 00 00|        X.@.....|          value: 4201304 0x13728-0x13730 (8)
0x13730|15 00 00 00 00 00 00 00                        |........        |          size: 21 0x13730-0x13738 (8)
       |                                               |                |        [135]{}: symbol 0x13738-0x13750 (24)
0x13730|                        8a 05 00 00            |        ....    |          name: "program_invocation_name" (1418) 0x13738-0x1373c (4)
0x13730|                                    21         |            !   |          bind: "weak" (2) 0x1373c-0x1373c.4 (0.4)
0x13730|                                    21         |            !   |          type: "object" (1) 0x1373c.4-0x1373d (0.4)
0x13730|                                       00      |             .  |          other_unused: 0 0x1373d-0x1373d.6 (0.6)
0x13730|                                       00      |             .  |          visibility: "default" (0) 0x1373d.6-0x1373e (0.2)
0x13730|                                          0b 00|              ..|          shndx: 11 0x1373e-0x13740 (2)
0x13740|78 41 40 00 00 00 00 00                        |xA@.....        |          value: 4211064 0x13740-0x13748 (8)
0x13740|                        08 00 00 00 00 00 00 00|        ........|          size: 8 0x13748-0x13750 (8)
       |                                               |                |        [136]{}: symbol 0x13750-0x13768 (24)
0x13750|a2 05 00 00                                    |....            |          name: "__default_stacksize" (1442) 0x13750-0x13754 (4)
0x13750|            11                                 |    .           |          bind: "global" (1) 0x13754-0x13754.4 (0.4)
0x13750|            11                                 |    .           |          type: "object" (1) 0x13754.4-0x13755 (0.4)
0x13750|               02                              |     .          |          other_unused: 0 0x13755-0x13755.6 (0.6)
0x13750|               02                              |     .          |          visibility: "hidden" (2) 0x13755.6-0x13756 (0.2)
0x13750|                  0a 00                        |      ..        |          shndx: 10 0x13756-0x13758 (2)
0x13750|                        0c 41 40 00 00 00 00 00|        .A@.....|          value: 4210956 0x13758-0x13760 (8)
0x13760|04 00 00 00 00 00 00 00                        |........        |          size: 4 0x13760-0x13768 (8)
       |                                               |                |        [137]{}: symbol 0x13768-0x13780 (24)
0x13760|                        b6 05 00 00            |        ....    |          name: "fputs" (1462) 0x13768-0x1376c (4)
0x13760|                                    12         |            .   |          bind: "global" (1) 0x1376c-0x1376c.4 (0.4)
0x13760|                                    12         |            .   |          type: "func" (2) 0x1376c.4-0x1376d (0.4)
0x13760|                                       00      |             .  |          other_unused: 0 0x1376d-0x1376d.6 (0.6)
0x13760|                                       00      |             .  |          visibility: "default" (0) 0x1376d.6-0x1376e (0.2)
0x13760|                                          03 00|              ..|          shndx: 3 0x1376e-0x13770 (2)
0x13770|5e 19 40 00 00 00 00 00                        |^.@.....        |          value: 4200798 0x13770-0x13778 (8)
0x13770|                        3f 00 00 00 00 00 00 00|        ?.......|          size: 63 0x13778-0x13780 (8)
       |                                               |                |        [138]{}: symbol 0x13780-0x13798 (24)
0x13780|bc 05 00 00                                    |....            |          name: "__default_guardsize" (1468) 0x13780-0x13784 (4)
0x13780|            11                                 |    .           |          bind: "global" (1) 0x13784-0x13784.4 (0.4)
0x13780|            11                                 |    .           |          type: "object" (1) 0x13784.4-0x13785 (0.4)
0x13780|               02                              |     .          |          other_unused: 0 0x13785-0x13785.6 (0.6)
0x13780|               02                              |     .          |          visibility: "hidden" (2) 0x13785.6-0x13786 (0.2)
0x13780|                  0a 00                        |      ..        |          shndx: 10 0x13786-0x13788 (2)
0x13780|                        08 41 40 00 00 00 00 00|        .A@.....|          value: 4210952 0x13788-0x13790 (8)
0x13790|04 00 00 00 00 00 00 00                        |........        |          size: 4 0x13790-0x13798 (8)
       |                                               |                |        [139]{}: symbol 0x13798-0x137b0 (24)
0x13790|                        d0 05 00 00            |        ....    |          name: "__sysinfo" (1488) 0x13798-0x1379c (4)
0x13790|                                    11         |            .   |          bind: "global" (1) 0x1379c-0x1379c.4 (0.4)
0x13790|                                    11         |            .   |          type: "object" (1) 0x1379c.4-0x1379d (0.4)
0x13790|                                       02      |             .  |          other_unused: 0 0x1379d-0x1379d.6 (0.6)
0x13790|                                       02      |             .  |          visibility: "hidden" (2) 0x1379d.6-0x1379e (0.2)
0x13790|                                          0b 00|              ..|          shndx: 11 0x1379e-0x137a0 (2)
0x137a0|70 41 40 00 00 00 00 00                        |pA@.....        |          value: 4211056 0x137a0-0x137a8 (8)
0x137a0|                        08 00 00 00 00 00 00 00|        ........|          size: 8 0x137a8-0x137b0 (8)
       |                                               |                |        [140]{}: symbol 0x137b0-0x137c8 (24)
0x137b0|da 05 00 00                                    |....            |          name: "__progname_full" (1498) 0x137b0-0x137b4 (4)
0x137b0|            11                                 |    .           |          bind: "global" (1) 0x137b4-0x137b4.4 (0.4)
0x137b0|            11                                 |    .           |          type: "object" (1) 0x137b4.4-0x137b5 (0.4)
0x137b0|               00                              |     .          |          other_unused: 0 0x137b5-0x137b5.6 (0.6)
0x137b0|               00                              |     .          |          visibility: "default" (0) 0x137b5.6-0x137b6 (0.2)
0x137b0|                  0b 00                        |      ..        |          shndx: 11 0x137b6-0x137b8 (2)
0x137b0|                        78 41 40 00 00 00 00 00|        xA@.....|          value: 4211064 0x137b8-0x137c0 (8)
0x137c0|08 00 00 00 00 00 00 00                        |........        |          size: 8 0x137c0-0x137c8 (8)
0x143e0|01 00 00 00                                    |....            |      name: ".symtab" (1) 0x143e0-0x143e4 (4)
0x143e0|            02 00 00 00                        |    ....        |      type: "symtab" (0x2) (Symbol table) 0x143e4-0x143e8 (4)
       |                                               |                |      flags{}: 0x143e8-0x143f0 (8)
0x143e0|                        00                     |        .       |        link_order: false 0x143e8-0x143e8.1 (0.1)
0x143e0|                        00                     |        .       |        info_link: false 0x143e8.1-0x143e8.2 (0.1)
0x143e0|                        00                     |        .       |        strings: false 0x143e8.2-0x143e8.3 (0.1)
0x143e0|                        00                     |        .       |        merge: false 0x143e8.3-0x143e8.4 (0.1)
0x143e0|                        00                     |        .       |        unused0: 0 0x143e8.4-0x143e8.5 (0.1)
0x143e0|                        00                     |        .       |        execinstr: false 0x143e8.5-0x143e8.6 (0.1)
0x143e0|                        00                     |        .       |        alloc: false 0x143e8.6-0x143e8.7 (0.1)
0x143e0|                        00                     |        .       |        write: false 0x143e8.7-0x143e9 (0.1)
0x143e0|                           00                  |         .      |        tls: false 0x143e9-0x143e9.1 (0.1)
0x143e0|                           00                  |         .      |        group: false 0x143e9.1-0x143e9.2 (0.1)
0x143e0|                           00                  |         .      |        os_nonconforming: false 0x143e9.2-0x143e9.3 (0.1)
0x143e0|                           00 00               |         ..     |        unused1: 0 0x143e9.3-0x143ea.4 (1.1)
0x143e0|                              00 00            |          ..    |        os_specific: 0 0x143ea.4-0x143eb.4 (1)
0x143e0|                                 00            |           .    |        processor_specific: 0 0x143eb.4-0x143ec (0.4)
0x143e0|                                    00 00 00 00|            ....|        unused2: 0 0x143ec-0x143f0 (4)
0x143f0|00 00 00 00 00 00 00 00                        |........        |      addr: 0x0 0x143f0-0x143f8 (8)
0x143f0|                        90 2a 01 00 00 00 00 00|        .*......|      offset: 0x12a90 0x143f8-0x14400 (8)
0x14400|38 0d 00 00 00 00 00 00                        |8.......        |      size: 3384 0x14400-0x14408 (8)
0x14400|                        16 00 00 00            |        ....    |      link: 22 0x14408-0x1440c (4)
0x14400|                                    41 00 00 00|            A...|      info: 65 0x1440c-0x14410 (4)
0x14410|08 00 00 00 00 00 00 00                        |........        |      addralign: 8 0x14410-0x14418 (8)
0x14410|                        18 00 00 00 00 00 00 00|        ........|      entsize: 24 0x14418-0x14420 (8)
       |                                               |                |    [22]{}: section_header 0x137c8-0x14460 (3224)
0x137c0|                        00 63 72 74 31 2e 63 00|        .crt1.c.|      string: "\x00crt1.c\x00crtstuff.c\x00__CTOR_LIST__\x00__DTOR_LIST__\x00__EH_FRAME_BEGIN__\x00deregister_tm_clones\x00__do_global_dtors_aux\x00completed.2\x00dtor_idx.1\x00frame_dummy\x00object.0\x00__CTOR_END__\x00__FRAME_END__\x00__do_global_ctors_aux\x00a.c\x00libbbb.c\x00__libc_start_main.c\x00dummy1\x00libc_start_main_stage2\x00defsysinfo.c\x00libc.c\x00stdout.c\x00buf\x00__environ.c\x00__init_tls.c\x00static_init_tls\x00main_tls\x00builtin_tls\x00_Exit.c\x00__lockfile.c\x00__overflow.c\x00__stdio_close.c\x00__stdio_seek.c\x00__stdout_write.c\x00__towrite.c\x00fputs.c\x00fwrite.c\x00strlen.c\x00default_attr.c\x00lseek.c\x00syscall_ret.c\x00__stdio_exit.c\x00close_file\x00dummy_file\x00__stdio_write.c\x00ofl.c\x00ofl_head\x00__lock.c\x00__errno_location.c\x00__fini_array_end\x00__fini_array_start\x00__init_array_end\x00__init_array_start\x00__thread_list_lock\x00__stdout_used\x00stdout\x00__init_libc\x00__syscall_ret\x00__stdout_write\x00__ofl_unlock\x00__unlockfile\x00__hwcap\x00__stdio_write\x00__towrite\x00memcpy\x00__ofl_lock\x00__TMC_END__\x00__unlock\x00__DTOR_END__\x00__overflow\x00__libc\x00__dso_handle\x00__set_thread_area\x00__stdin_used\x00__copy_tls\x00__stdio_seek\x00__lockfile\x00___errno_location\x00aaa\x00_Exit\x00__towrite_needs_stdio_exit\x00__init_tls\x00__funcs_on_exit\x00__memcpy_fwd\x00__stdio_ofl_lockptr\x00fputs_unlocked\x00___environ\x00__progname\x00_start_c\x00__stdout_FILE\x00program_invocation_short_name\x00__libc_start_init\x00__init_tp\x00__init_ssp\x00__fwritex\x00__bss_start\x00__stdio_exit\x00__lock\x00__aio_close\x00__lseek\x00__libc_exit_fini\x00fwrite_unlocked\x00fwrite\x00_edata\x00__stdio_close\x00__stderr_used\x00__stdio_exit_needed\x00libbbb_bbb\x00__libc_start_main\x00strlen\x00lseek64\x00program_invocation_name\x00__default_stacksize\x00fputs\x00__default_guardsize\x00__sysinfo\x00__progname_full\x00" 0x137c8-0x13db2 (1514)
0x137d0|63 72 74 73 74 75 66 66 2e 63 00 5f 5f 43 54 4f|crtstuff.c.__CTO|
*      |until 0x13db1.7 (1514)                         |                |
0x14420|09 00 00 00                                    |....            |      name: ".strtab" (9) 0x14420-0x14424 (4)
0x14420|            03 00 00 00                        |    ....        |      type: "strtab" (0x3) (String table) 0x14424-0x14428 (4)
       |                                               |                |      flags{}: 0x14428-0x14430 (8)
0x14420|                        00                     |        .       |        link_order: false 0x14428-0x14428.1 (0.1)
0x14420|                        00                     |        .       |        info_link: false 0x14428.1-0x14428.2 (0.1)
0x14420|                        00                     |        .       |        strings: false 0x14428.2-0x14428.3 (0.1)
0x14420|                        00                     |        .       |        merge: false 0x14428.3-0x14428.4 (0.1)
0x14420|                        00                     |        .       |        unused0: 0 0x14428.4-0x14428.5 (0.1)
0x14420|                        00                     |        .       |        execinstr: false 0x14428.5-0x14428.6 (0.1)
0x14420|                        00                     |        .       |        alloc: false 0x14428.6-0x14428.7 (0.1)
0x14420|                        00                     |        .       |        write: false 0x14428.7-0x14429 (0.1)
0x14420|                           00                  |         .      |        tls: false 0x14429-0x14429.1 (0.1)
0x14420|                           00                  |         .      |        group: false 0x14429.1-0x14429.2 (0.1)
0x14420|                           00                  |         .      |        os_nonconforming: false 0x14429.2-0x14429.3 (0.1)
0x14420|                           00 00               |         ..     |        unused1: 0 0x14429.3-0x1442a.4 (1.1)
0x14420|                              00 00            |          ..    |        os_specific: 0 0x1442a.4-0x1442b.4 (1)
0x14420|                                 00            |           .    |        processor_specific: 0 0x1442b.4-0x1442c (0.4)
0x14420|                                    00 00 00 00|            ....|        unused2: 0 0x1442c-0x14430 (4)
0x14430|00 00 00 00 00 00 00 00                        |........        |      addr: 0x0 0x14430-0x14438 (8)
0x14430|                        c8 37 01 00 00 00 00 00|        .7......|      offset: 0x137c8 0x14438-0x14440 (8)
0x14440|ea 05 00 00 00 00 00 00                        |........        |      size: 1514 0x14440-0x14448 (8)
0x14440|                        00 00 00 00            |        ....    |      link: 0 0x14448-0x1444c (4)
0x14440|                                    00 00 00 00|            ....|      info: 0 0x1444c-0x14450 (4)
0x14450|01 00 00 00 00 00 00 00                        |........        |      addralign: 1 0x14450-0x14458 (8)
0x14450|                        00 00 00 00 00 00 00 00|        ........|      entsize: 0 0x14458-0x14460 (8)
       |                                               |                |    [23]{}: section_header 0x13db2-0x144a0 (1774)
0x13db0|      00 2e 73 79 6d 74 61 62 00 2e 73 74 72 74|  ..symtab..strt|      string: "\x00.symtab\x00.strtab\x00.shstrtab\x00.note.gnu.property\x00.init\x00.text\x00.fini\x00.rodata\x00.eh_frame\x00.ctors\x00.dtors\x00.data.rel.ro\x00.data\x00.bss\x00.comment\x00.debug_aranges\x00.debug_info\x00.debug_abbrev\x00.debug_line\x00.debug_frame\x00.debug_str\x00.debug_loc\x00.debug_ranges\x00" 0x13db2-0x13e99 (231)
0x13dc0|61 62 00 2e 73 68 73 74 72 74 61 62 00 2e 6e 6f|ab..shstrtab..no|
*      |until 0x13e98.7 (231)                          |                |
0x14460|11 00 00 00                                    |....            |      name: ".shstrtab" (17) 0x14460-0x14464 (4)
0x14460|            03 00 00 00                        |    ....        |      type: "strtab" (0x3) (String table) 0x14464-0x14468 (4)
       |                                               |                |      flags{}: 0x14468-0x14470 (8)
0x14460|                        00                     |        .       |        link_order: false 0x14468-0x14468.1 (0.1)
0x14460|                        00                     |        .       |        info_link: false 0x14468.1-0x14468.2 (0.1)
0x14460|                        00                     |        .       |        strings: false 0x14468.2-0x14468.3 (0.1)
0x14460|                        00                     |        .       |        merge: false 0x14468.3-0x14468.4 (0.1)
0x14460|                        00                     |        .       |        unused0: 0 0x14468.4-0x14468.5 (0.1)
0x14460|                        00                     |        .       |        execinstr: false 0x14468.5-0x14468.6 (0.1)
0x14460|                        00                     |        .       |        alloc: false 0x14468.6-0x14468.7 (0.1)
0x14460|                        00                     |        .       |        write: false 0x14468.7-0x14469 (0.1)
0x14460|                           00                  |         .      |        tls: false 0x14469-0x14469.1 (0.1)
0x14460|                           00                  |         .      |        group: false 0x14469.1-0x14469.2 (0.1)
0x14460|                           00                  |         .      |        os_nonconforming: false 0x14469.2-0x14469.3 (0.1)
0x14460|                           00 00               |         ..     |        unused1: 0 0x14469.3-0x1446a.4 (1.1)
0x14460|                              00 00            |          ..    |        os_specific: 0 0x1446a.4-0x1446b.4 (1)
0x14460|                                 00            |           .    |        processor_specific: 0 0x1446b.4-0x1446c (0.4)
0x14460|                                    00 00 00 00|            ....|        unused2: 0 0x1446c-0x14470 (4)
0x14470|00 00 00 00 00 00 00 00                        |........        |      addr: 0x0 0x14470-0x14478 (8)
0x14470|                        b2 3d 01 00 00 00 00 00|        .=......|      offset: 0x13db2 0x14478-0x14480 (8)
0x14480|e7 00 00 00 00 00 00 00                        |........        |      size: 231 0x14480-0x14488 (8)
0x14480|                        00 00 00 00            |        ....    |      link: 0 0x14488-0x1448c (4)
0x14480|                                    00 00 00 00|            ....|      info: 0 0x1448c-0x14490 (4)
0x14490|01 00 00 00 00 00 00 00                        |........        |      addralign: 1 0x14490-0x14498 (8)
0x14490|                        00 00 00 00 00 00 00 00|        ........|      entsize: 0 0x14498-0x144a0 (8)
0x00230|00 00 00 00 00 00 00 00 00 00 00 00 00 00 00 00|................|  gap0: raw bits 0x230-0x1000 (3536)
*      |until 0xfff.7 (3536)                           |                |
0x01e60|                           00 00 00 00 00 00 00|         .......|  gap1: raw bits 0x1e69-0x2000 (407)
0x01e70|00 00 00 00 00 00 00 00 00 00 00 00 00 00 00 00|................|
*      |until 0x1fff.7 (407)                           |                |
0x02090|                                    00 00 00 00|            ....|  gap2: raw bits 0x209c-0x2fd0 (3892)
0x020a0|00 00 00 00 00 00 00 00 00 00 00 00 00 00 00 00|................|
*      |until 0x2fcf.7 (3892)                          |                |
0x03140|   00 00 00 00 00 00 00 00 00 00 00 00 00 00 00| ...............|  gap3: raw bits 0x3141-0x3150 (15)
0x0e000|                                       00 00 00|             ...|  gap4: raw bits 0xe00d-0xe010 (3)
0x122c0|                              00 00 00 00 00 00|          ......|  gap5: raw bits 0x122ca-0x122d0 (6)
0x13e90|                           00 00 00 00 00 00 00|         .......|  gap6: raw bits 0x13e99-0x13ea0 (7)
