$ fq -d elf dv a_stripped
      |00 01 02 03 04 05 06 07 08 09 0a 0b 0c 0d 0e 0f|0123456789abcdef|.{}: a_stripped (elf) 0x0-0x36f8 (14072)
      |                                               |                |  header{}: 0x0-0x40 (64)
      |                                               |                |    ident{}: 0x0-0x10 (16)
0x0000|7f 45 4c 46                                    |.ELF            |      magic: raw bits (valid) 0x0-0x4 (4)
0x0000|            02                                 |    .           |      class: 64 (2) 0x4-0x5 (1)
0x0000|               01                              |     .          |      data: "little_endian" (1) 0x5-0x6 (1)
0x0000|                  01                           |      .         |      version: 1 0x6-0x7 (1)
0x0000|                     00                        |       .        |      os_abi: "sysv" (0) 0x7-0x8 (1)
0x0000|                        00                     |        .       |      abi_version: 0 0x8-0x9 (1)
0x0000|                           00 00 00 00 00 00 00|         .......|      pad: raw bits (all zero) 0x9-0x10 (7)
0x0010|03 00                                          |..              |    type: "dyn" (0x3) 0x10-0x12 (2)
0x0010|      3e 00                                    |  >.            |    machine: "x86_64" (0x3e) (AMD x86-64) 0x12-0x14 (2)
0x0010|            01 00 00 00                        |    ....        |    version: 1 0x14-0x18 (4)
0x0010|                        70 10 00 00 00 00 00 00|        p.......|    entry: 4208 0x18-0x20 (8)
0x0020|40 00 00 00 00 00 00 00                        |@.......        |    phoff: 64 0x20-0x28 (8)
0x0020|                        f8 30 00 00 00 00 00 00|        .0......|    shoff: 12536 0x28-0x30 (8)
0x0030|00 00 00 00                                    |....            |    flags: 0 0x30-0x34 (4)
0x0030|            40 00                              |    @.          |    ehsize: 64 0x34-0x36 (2)
0x0030|                  38 00                        |      8.        |    phentsize: 56 0x36-0x38 (2)
0x0030|                        0c 00                  |        ..      |    phnum: 12 0x38-0x3a (2)
0x0030|                              40 00            |          @.    |    shentsize: 64 0x3a-0x3c (2)
0x0030|                                    18 00      |            ..  |    shnum: 24 0x3c-0x3e (2)
0x0030|                                          17 00|              ..|    shstrndx: 23 0x3e-0x40 (2)
      |                                               |                |  program_headers[0:12]: 0x0-0x3008 (12296)
      |                                               |                |    [0]{}: program_header 0x40-0x2e0 (672)
0x0040|06 00 00 00                                    |....            |      type: "phdr" (6) (Program header location and size) 0x40-0x44 (4)
0x0040|06 00 00 00 04 00 00 00 40 00 00 00 00 00 00 00|........@.......|      data: raw bits 0x40-0x2e0 (672)
*     |until 0x2df.7 (672)                            |                |
      |                                               |                |      flags{}: 0x44-0x48 (4)
0x0040|            04                                 |    .           |        unused0: 0 0x44-0x44.5 (0.5)
0x0040|            04                                 |    .           |        r: true 0x44.5-0x44.6 (0.1)
0x0040|            04                                 |    .           |        w: false 0x44.6-0x44.7 (0.1)
0x0040|            04                                 |    .           |        x: false 0x44.7-0x45 (0.1)
0x0040|               00 00 00                        |     ...        |        unused1: 0 0x45-0x48 (3)
0x0040|                        40 00 00 00 00 00 00 00|        @.......|      offset: 0x40 0x48-0x50 (8)
0x0050|40 00 00 00 00 00 00 00                        |@.......        |      vaddr: 0x40 0x50-0x58 (8)
0x0050|                        40 00 00 00 00 00 00 00|        @.......|      paddr: 0x40 0x58-0x60 (8)
0x0060|a0 02 00 00 00 00 00 00                        |........        |      filesz: 672 0x60-0x68 (8)
0x0060|                        a0 02 00 00 00 00 00 00|        ........|      memsz: 672 0x68-0x70 (8)
0x0070|08 00 00 00 00 00 00 00                        |........        |      align: 8 0x70-0x78 (8)
      |                                               |                |    [1]{}: program_header 0x78-0x2f9 (641)
0x0070|                        03 00 00 00            |        ....    |      type: "interp" (3) (Interpreter to invoke) 0x78-0x7c (4)
      |                                               |                |      flags{}: 0x7c-0x80 (4)
0x0070|                                    04         |            .   |        unused0: 0 0x7c-0x7c.5 (0.5)
0x0070|                                    04         |            .   |        r: true 0x7c.5-0x7c.6 (0.1)
0x0070|                                    04         |            .   |        w: false 0x7c.6-0x7c.7 (0.1)
0x0070|                                    04         |            .   |        x: false 0x7c.7-0x7d (0.1)
0x0070|                                       00 00 00|             ...|        unused1: 0 0x7d-0x80 (3)
0x0080|e0 02 00 00 00 00 00 00                        |........        |      offset: 0x2e0 0x80-0x88 (8)
0x0080|                        e0 02 00 00 00 00 00 00|        ........|      vaddr: 0x2e0 0x88-0x90 (8)
0x0090|e0 02 00 00 00 00 00 00                        |........        |      paddr: 0x2e0 0x90-0x98 (8)
0x0090|                        19 00 00 00 00 00 00 00|        ........|      filesz: 25 0x98-0xa0 (8)
0x00a0|19 00 00 00 00 00 00 00                        |........        |      memsz: 25 0xa0-0xa8 (8)
0x00a0|                        01 00 00 00 00 00 00 00|        ........|      align: 1 0xa8-0xb0 (8)
0x02e0|2f 6c 69 62 2f 6c 64 2d 6d 75 73 6c 2d 78 38 36|/lib/ld-musl-x86|      data: raw bits 0x2e0-0x2f9 (25)
0x02f0|5f 36 34 2e 73 6f 2e 31 00                     |_64.so.1.       |
      |                                               |                |    [2]{}: program_header 0x0-0x608 (1544)
0x0000|7f 45 4c 46 02 01 01 00 00 00 00 00 00 00 00 00|.ELF............|      data: raw bits 0x0-0x608 (1544)
*     |until 0x607.7 (1544)                           |                |
0x00b0|01 00 00 00                                    |....            |      type: "load" (1) (Loadable segment) 0xb0-0xb4 (4)
      |                                               |                |      flags{}: 0xb4-0xb8 (4)
0x00b0|            04                                 |    .           |        unused0: 0 0xb4-0xb4.5 (0.5)
0x00b0|            04                                 |    .           |        r: true 0xb4.5-0xb4.6 (0.1)
0x00b0|            04                                 |    .           |        w: false 0xb4.6-0xb4.7 (0.1)
0x00b0|            04                                 |    .           |        x: false 0xb4.7-0xb5 (0.1)
0x00b0|               00 00 00                        |     ...        |        unused1: 0 0xb5-0xb8 (3)
0x00b0|                        00 00 00 00 00 00 00 00|        ........|      offset: 0x0 0xb8-0xc0 (8)
0x00c0|00 00 00 00 00 00 00 00                        |........        |      vaddr: 0x0 0xc0-0xc8 (8)
0x00c0|                        00 00 00 00 00 00 00 00|        ........|      paddr: 0x0 0xc8-0xd0 (8)
0x00d0|08 06 00 00 00 00 00 00                        |........        |      filesz: 1544 0xd0-0xd8 (8)
0x00d0|                        08 06 00 00 00 00 00 00|        ........|      memsz: 1544 0xd8-0xe0 (8)
0x00e0|00 10 00 00 00 00 00 00                        |........        |      align: 4096 0xe0-0xe8 (8)
      |                                               |                |    [3]{}: program_header 0xe8-0x1289 (4513)
0x00e0|                        01 00 00 00            |        ....    |      type: "load" (1) (Loadable segment) 0xe8-0xec (4)
      |                                               |                |      flags{}: 0xec-0xf0 (4)
0x00e0|                                    05         |            .   |        unused0: 0 0xec-0xec.5 (0.5)
0x00e0|                                    05         |            .   |        r: true 0xec.5-0xec.6 (0.1)
0x00e0|                                    05         |            .   |        w: false 0xec.6-0xec.7 (0.1)
0x00e0|                                    05         |            .   |        x: true 0xec.7-0xed (0.1)
0x00e0|                                       00 00 00|             ...|        unused1: 0 0xed-0xf0 (3)
0x00f0|00 10 00 00 00 00 00 00                        |........        |      offset: 0x1000 0xf0-0xf8 (8)
0x00f0|                        00 10 00 00 00 00 00 00|        ........|      vaddr: 0x1000 0xf8-0x100 (8)
0x0100|00 10 00 00 00 00 00 00                        |........        |      paddr: 0x1000 0x100-0x108 (8)
0x0100|                        89 02 00 00 00 00 00 00|        ........|      filesz: 649 0x108-0x110 (8)
0x0110|89 02 00 00 00 00 00 00                        |........        |      memsz: 649 0x110-0x118 (8)
0x0110|                        00 10 00 00 00 00 00 00|        ........|      align: 4096 0x118-0x120 (8)
0x1000|50 e8 ca 01 00 00 e8 35 02 00 00 58 c3 00 00 00|P......5...X....|      data: raw bits 0x1000-0x1289 (649)
*     |until 0x1288.7 (649)                           |                |
      |                                               |                |    [4]{}: program_header 0x120-0x20cc (8108)
0x0120|01 00 00 00                                    |....            |      type: "load" (1) (Loadable segment) 0x120-0x124 (4)
      |                                               |                |      flags{}: 0x124-0x128 (4)
0x0120|            04                                 |    .           |        unused0: 0 0x124-0x124.5 (0.5)
0x0120|            04                                 |    .           |        r: true 0x124.5-0x124.6 (0.1)
0x0120|            04                                 |    .           |        w: false 0x124.6-0x124.7 (0.1)
0x0120|            04                                 |    .           |        x: false 0x124.7-0x125 (0.1)
0x0120|               00 00 00                        |     ...        |        unused1: 0 0x125-0x128 (3)
0x0120|                        00 20 00 00 00 00 00 00|        . ......|      offset: 0x2000 0x128-0x130 (8)
0x0130|00 20 00 00 00 00 00 00                        |. ......        |      vaddr: 0x2000 0x130-0x138 (8)
0x0130|                        00 20 00 00 00 00 00 00|        . ......|      paddr: 0x2000 0x138-0x140 (8)
0x0140|cc 00 00 00 00 00 00 00                        |........        |      filesz: 204 0x140-0x148 (8)
0x0140|                        cc 00 00 00 00 00 00 00|        ........|      memsz: 204 0x148-0x150 (8)
0x0150|00 10 00 00 00 00 00 00                        |........        |      align: 4096 0x150-0x158 (8)
0x2000|61 61 61 00 01 1b 03 3b 28 00 00 00 04 00 00 00|aaa....;(.......|      data: raw bits 0x2000-0x20cc (204)
*     |until 0x20cb.7 (204)                           |                |
      |                                               |                |    [5]{}: program_header 0x158-0x3008 (11952)
0x0150|                        01 00 00 00            |        ....    |      type: "load" (1) (Loadable segment) 0x158-0x15c (4)
      |                                               |                |      flags{}: 0x15c-0x160 (4)
0x0150|                                    06         |            .   |        unused0: 0 0x15c-0x15c.5 (0.5)
0x0150|                                    06         |            .   |        r: true 0x15c.5-0x15c.6 (0.1)
0x0150|                                    06         |            .   |        w: true 0x15c.6-0x15c.7 (0.1)
0x0150|                                    06         |            .   |        x: false 0x15c.7-0x15d (0.1)
0x0150|                                       00 00 00|             ...|        unused1: 0 0x15d-0x160 (3)
0x0160|f8 2d 00 00 00 00 00 00                        |.-......        |      offset: 0x2df8 0x160-0x168 (8)
0x0160|                        f8 3d 00 00 00 00 00 00|        .=......|      vaddr: 0x3df8 0x168-0x170 (8)
0x0170|f8 3d 00 00 00 00 00 00                        |.=......        |      paddr: 0x3df8 0x170-0x178 (8)
0x0170|                        10 02 00 00 00 00 00 00|        ........|      filesz: 528 0x178-0x180 (8)
0x0180|78 02 00 00 00 00 00 00                        |x.......        |      memsz: 632 0x180-0x188 (8)
0x0180|                        00 10 00 00 00 00 00 00|        ........|      align: 4096 0x188-0x190 (8)
0x2df0|                        ff ff ff ff ff ff ff ff|        ........|      data: raw bits 0x2df8-0x3008 (528)
0x2e00|00 00 00 00 00 00 00 00 ff ff ff ff ff ff ff ff|................|
*     |until 0x3007.7 (528)                           |                |
      |                                               |                |    [6]{}: program_header 0x190-0x2fa8 (11800)
0x0190|02 00 00 00                                    |....            |      type: "dynamic" (2) (Dynamic linking information) 0x190-0x194 (4)
      |                                               |                |      flags{}: 0x194-0x198 (4)
0x0190|            06                                 |    .           |        unused0: 0 0x194-0x194.5 (0.5)
0x0190|            06                                 |    .           |        r: true 0x194.5-0x194.6 (0.1)
0x0190|            06                                 |    .           |        w: true 0x194.6-0x194.7 (0.1)
0x0190|            06                                 |    .           |        x: false 0x194.7-0x195 (0.1)
0x0190|               00 00 00                        |     ...        |        unused1: 0 0x195-0x198 (3)
0x0190|                        18 2e 00 00 00 00 00 00|        ........|      offset: 0x2e18 0x198-0x1a0 (8)
0x01a0|18 3e 00 00 00 00 00 00                        |.>......        |      vaddr: 0x3e18 0x1a0-0x1a8 (8)
0x01a0|                        18 3e 00 00 00 00 00 00|        .>......|      paddr: 0x3e18 0x1a8-0x1b0 (8)
0x01b0|90 01 00 00 00 00 00 00                        |........        |      filesz: 400 0x1b0-0x1b8 (8)
0x01b0|                        90 01 00 00 00 00 00 00|        ........|      memsz: 400 0x1b8-0x1c0 (8)
0x01c0|08 00 00 00 00 00 00 00                        |........        |      align: 8 0x1c0-0x1c8 (8)
0x2e10|                        01 00 00 00 00 00 00 00|        ........|      data: raw bits 0x2e18-0x2fa8 (400)
0x2e20|a2 00 00 00 00 00 00 00 01 00 00 00 00 00 00 00|................|
*     |until 0x2fa7.7 (400)                           |                |
      |                                               |                |    [7]{}: program_header 0x1c8-0x330 (360)
0x01c0|                        04 00 00 00            |        ....    |      type: "note" (4) (Auxiliary information) 0x1c8-0x1cc (4)
      |                                               |                |      flags{}: 0x1cc-0x1d0 (4)
0x01c0|                                    04         |            .   |        unused0: 0 0x1cc-0x1cc.5 (0.5)
0x01c0|                                    04         |            .   |        r: true 0x1cc.5-0x1cc.6 (0.1)
0x01c0|                                    04         |            .   |        w: false 0x1cc.6-0x1cc.7 (0.1)
0x01c0|                                    04         |            .   |        x: false 0x1cc.7-0x1cd (0.1)
0x01c0|                                       00 00 00|             ...|        unused1: 0 0x1cd-0x1d0 (3)
0x01d0|00 03 00 00 00 00 00 00                        |........        |      offset: 0x300 0x1d0-0x1d8 (8)
0x01d0|                        00 03 00 00 00 00 00 00|        ........|      vaddr: 0x300 0x1d8-0x1e0 (8)
0x01e0|00 03 00 00 00 00 00 00                        |........        |      paddr: 0x300 0x1e0-0x1e8 (8)
0x01e0|                        30 00 00 00 00 00 00 00|        0.......|      filesz: 48 0x1e8-0x1f0 (8)
0x01f0|30 00 00 00 00 00 00 00                        |0.......        |      memsz: 48 0x1f0-0x1f8 (8)
0x01f0|                        08 00 00 00 00 00 00 00|        ........|      align: 8 0x1f8-0x200 (8)
      |                                               |                |      notes[0:1]: 0x300-0x330 (48)
      |                                               |                |        [0]{}: note 0x300-0x330 (48)
0x0300|04 00 00 00                                    |....            |          n_namesz: 4 0x300-0x304 (4)
0x0300|            20 00 00 00                        |     ...        |          n_descsz: 32 0x304-0x308 (4)
0x0300|                        05 00 00 00            |        ....    |          n_type: 0x5 0x308-0x30c (4)
0x0300|                                    47 4e 55 00|            GNU.|          name: "GNU" 0x30c-0x310 (4)
0x0310|01 00 01 c0 04 00 00 00 01 00 00 00 00 00 00 00|................|          desc: raw bits 0x310-0x330 (32)
0x0320|02 00 01 c0 04 00 00 00 00 00 00 00 00 00 00 00|................|
      |                                               |                |    [8]{}: program_header 0x200-0x330 (304)
0x0200|53 e5 74 64                                    |S.td            |      type: "os" (1685382483) (Operating system-specific) 0x200-0x204 (4)
      |                                               |                |      flags{}: 0x204-0x208 (4)
0x0200|            04                                 |    .           |        unused0: 0 0x204-0x204.5 (0.5)
0x0200|            04                                 |    .           |        r: true 0x204.5-0x204.6 (0.1)
0x0200|            04                                 |    .           |        w: false 0x204.6-0x204.7 (0.1)
0x0200|            04                                 |    .           |        x: false 0x204.7-0x205 (0.1)
0x0200|               00 00 00                        |     ...        |        unused1: 0 0x205-0x208 (3)
0x0200|                        00 03 00 00 00 00 00 00|        ........|      offset: 0x300 0x208-0x210 (8)
0x0210|00 03 00 00 00 00 00 00                        |........        |      vaddr: 0x300 0x210-0x218 (8)
0x0210|                        00 03 00 00 00 00 00 00|        ........|      paddr: 0x300 0x218-0x220 (8)
0x0220|30 00 00 00 00 00 00 00                        |0.......        |      filesz: 48 0x220-0x228 (8)
0x0220|                        30 00 00 00 00 00 00 00|        0.......|      memsz: 48 0x228-0x230 (8)
0x0230|08 00 00 00 00 00 00 00                        |........        |      align: 8 0x230-0x238 (8)
0x0300|04 00 00 00 20 00 00 00 05 00 00 00 47 4e 55 00|.... .......GNU.|      data: raw bits 0x300-0x330 (48)
*     |until 0x32f.7 (48)                             |                |
      |                                               |                |    [9]{}: program_header 0x238-0x2030 (7672)
0x0230|                        50 e5 74 64            |        P.td    |      type: "gnu_eh_frame" (1685382480) (GNU frame unwind information) 0x238-0x23c (4)
      |                                               |                |      flags{}: 0x23c-0x240 (4)
0x0230|                                    04         |            .   |        unused0: 0 0x23c-0x23c.5 (0.5)
0x0230|                                    04         |            .   |        r: true 0x23c.5-0x23c.6 (0.1)
0x0230|                                    04         |            .   |        w: false 0x23c.6-0x23c.7 (0.1)
0x0230|                                    04         |            .   |        x: false 0x23c.7-0x23d (0.1)
0x0230|                                       00 00 00|             ...|        unused1: 0 0x23d-0x240 (3)
0x0240|04 20 00 00 00 00 00 00                        |. ......        |      offset: 0x2004 0x240-0x248 (8)
0x0240|                        04 20 00 00 00 00 00 00|        . ......|      vaddr: 0x2004 0x248-0x250 (8)
0x0250|04 20 00 00 00 00 00 00                        |. ......        |      paddr: 0x2004 0x250-0x258 (8)
0x0250|                        2c 00 00 00 00 00 00 00|        ,.......|      filesz: 44 0x258-0x260 (8)
0x0260|2c 00 00 00 00 00 00 00                        |,.......        |      memsz: 44 0x260-0x268 (8)
0x0260|                        04 00 00 00 00 00 00 00|        ........|      align: 4 0x268-0x270 (8)
0x2000|            01 1b 03 3b 28 00 00 00 04 00 00 00|    ...;(.......|      data: raw bits 0x2004-0x2030 (44)
0x2010|0c f0 ff ff 44 00 00 00 4c f0 ff ff 6c 00 00 00|....D...L...l...|
0x2020|01 f2 ff ff 84 00 00 00 14 f2 ff ff a4 00 00 00|................|
      |                                               |                |    [10]{}: program_header 0x0-0x2a8 (680)
      |                                               |                |      data: raw bits 0x0-0x0 (0)
0x0270|51 e5 74 64                                    |Q.td            |      type: "gnu_stack" (1685382481) (GNU stack permission) 0x270-0x274 (4)
      |                                               |                |      flags{}: 0x274-0x278 (4)
0x0270|            06                                 |    .           |        unused0: 0 0x274-0x274.5 (0.5)
0x0270|            06                                 |    .           |        r: true 0x274.5-0x274.6 (0.1)
0x0270|            06                                 |    .           |        w: true 0x274.6-0x274.7 (0.1)
0x0270|            06                                 |    .           |        x: false 0x274.7-0x275 (0.1)
0x0270|               00 00 00                        |     ...        |        unused1: 0 0x275-0x278 (3)
0x0270|                        00 00 00 00 00 00 00 00|        ........|      offset: 0x0 0x278-0x280 (8)
0x0280|00 00 00 00 00 00 00 00                        |........        |      vaddr: 0x0 0x280-0x288 (8)
0x0280|                        00 00 00 00 00 00 00 00|        ........|      paddr: 0x0 0x288-0x290 (8)
0x0290|00 00 00 00 00 00 00 00                        |........        |      filesz: 0 0x290-0x298 (8)
0x0290|                        00 00 00 00 00 00 00 00|        ........|      memsz: 0 0x298-0x2a0 (8)
0x02a0|10 00 00 00 00 00 00 00                        |........        |      align: 16 0x2a0-0x2a8 (8)
      |                                               |                |    [11]{}: program_header 0x2a8-0x3000 (11608)
0x02a0|                        52 e5 74 64            |        R.td    |      type: "gnu_relro" (1685382482) (GNU read-only after relocation) 0x2a8-0x2ac (4)
      |                                               |                |      flags{}: 0x2ac-0x2b0 (4)
0x02a0|                                    04         |            .   |        unused0: 0 0x2ac-0x2ac.5 (0.5)
0x02a0|                                    04         |            .   |        r: true 0x2ac.5-0x2ac.6 (0.1)
0x02a0|                                    04         |            .   |        w: false 0x2ac.6-0x2ac.7 (0.1)
0x02a0|                                    04         |            .   |        x: false 0x2ac.7-0x2ad (0.1)
0x02a0|                                       00 00 00|             ...|        unused1: 0 0x2ad-0x2b0 (3)
0x02b0|f8 2d 00 00 00 00 00 00                        |.-......        |      offset: 0x2df8 0x2b0-0x2b8 (8)
0x02b0|                        f8 3d 00 00 00 00 00 00|        .=......|      vaddr: 0x3df8 0x2b8-0x2c0 (8)
0x02c0|f8 3d 00 00 00 00 00 00                        |.=......        |      paddr: 0x3df8 0x2c0-0x2c8 (8)
0x02c0|                        08 02 00 00 00 00 00 00|        ........|      filesz: 520 0x2c8-0x2d0 (8)
0x02d0|08 02 00 00 00 00 00 00                        |........        |      memsz: 520 0x2d0-0x2d8 (8)
0x02d0|                        01 00 00 00 00 00 00 00|        ........|      align: 1 0x2d8-0x2e0 (8)
0x2df0|                        ff ff ff ff ff ff ff ff|        ........|      data: raw bits 0x2df8-0x3000 (520)
0x2e00|00 00 00 00 00 00 00 00 ff ff ff ff ff ff ff ff|................|
*     |until 0x2fff.7 (520)                           |                |
      |                                               |                |  section_headers[0:24]: 0x2e0-0x36f8 (13336)
      |                                               |                |    [0]{}: section_header 0x30f8-0x3138 (64)
0x30f0|                        00 00 00 00            |        ....    |      name: "" (0) 0x30f8-0x30fc (4)
0x30f0|                                    00 00 00 00|            ....|      type: "null" (0x0) (Header inactive) 0x30fc-0x3100 (4)
      |                                               |                |      flags{}: 0x3100-0x3108 (8)
0x3100|00                                             |.               |        link_order: false 0x3100-0x3100.1 (0.1)
0x3100|00                                             |.               |        info_link: false 0x3100.1-0x3100.2 (0.1)
0x3100|00                                             |.               |        strings: false 0x3100.2-0x3100.3 (0.1)
0x3100|00                                             |.               |        merge: false 0x3100.3-0x3100.4 (0.1)
0x3100|00                                             |.               |        unused0: 0 0x3100.4-0x3100.5 (0.1)
0x3100|00                                             |.               |        execinstr: false 0x3100.5-0x3100.6 (0.1)
0x3100|00                                             |.               |        alloc: false 0x3100.6-0x3100.7 (0.1)
0x3100|00                                             |.               |        write: false 0x3100.7-0x3101 (0.1)
0x3100|   00                                          | .              |        tls: false 0x3101-0x3101.1 (0.1)
0x3100|   00                                          | .              |        group: false 0x3101.1-0x3101.2 (0.1)
0x3100|   00                                          | .              |        os_nonconforming: false 0x3101.2-0x3101.3 (0.1)
0x3100|   00 00                                       | ..             |        unused1: 0 0x3101.3-0x3102.4 (1.1)
0x3100|      00 00                                    |  ..            |        os_specific: 0 0x3102.4-0x3103.4 (1)
0x3100|         00                                    |   .            |        processor_specific: 0 0x3103.4-0x3104 (0.4)
0x3100|            00 00 00 00                        |    ....        |        unused2: 0 0x3104-0x3108 (4)
0x3100|                        00 00 00 00 00 00 00 00|        ........|      addr: 0x0 0x3108-0x3110 (8)
0x3110|00 00 00 00 00 00 00 00                        |........        |      offset: 0x0 0x3110-0x3118 (8)
0x3110|                        00 00 00 00 00 00 00 00|        ........|      size: 0 0x3118-0x3120 (8)
0x3120|00 00 00 00                                    |....            |      link: 0 0x3120-0x3124 (4)
0x3120|            00 00 00 00                        |    ....        |      info: 0 0x3124-0x3128 (4)
0x3120|                        00 00 00 00 00 00 00 00|        ........|      addralign: 0 0x3128-0x3130 (8)
0x3130|00 00 00 00 00 00 00 00                        |........        |      entsize: 0 0x3130-0x3138 (8)
      |                                               |                |    [1]{}: section_header 0x2e0-0x3178 (11928)
0x02e0|2f 6c 69 62 2f 6c 64 2d 6d 75 73 6c 2d 78 38 36|/lib/ld-musl-x86|      data: raw bits 0x2e0-0x2f9 (25)
0x02f0|5f 36 34 2e 73 6f 2e 31 00                     |_64.so.1.       |
0x3130|                        0b 00 00 00            |        ....    |      name: ".interp" (11) 0x3138-0x313c (4)
0x3130|                                    01 00 00 00|            ....|      type: "progbits" (0x1) (Information defined by the program) 0x313c-0x3140 (4)
      |                                               |                |      flags{}: 0x3140-0x3148 (8)
0x3140|02                                             |.               |        link_order: false 0x3140-0x3140.1 (0.1)
0x3140|02                                             |.               |        info_link: false 0x3140.1-0x3140.2 (0.1)
0x3140|02                                             |.               |        strings: false 0x3140.2-0x3140.3 (0.1)
0x3140|02                                             |.               |        merge: false 0x3140.3-0x3140.4 (0.1)
0x3140|02                                             |.               |        unused0: 0 0x3140.4-0x3140.5 (0.1)
0x3140|02                                             |.               |        execinstr: false 0x3140.5-0x3140.6 (0.1)
0x3140|02                                             |.               |        alloc: true 0x3140.6-0x3140.7 (0.1)
0x3140|02                                             |.               |        write: false 0x3140.7-0x3141 (0.1)
0x3140|   00                                          | .              |        tls: false 0x3141-0x3141.1 (0.1)
0x3140|   00                                          | .              |        group: false 0x3141.1-0x3141.2 (0.1)
0x3140|   00                                          | .              |        os_nonconforming: false 0x3141.2-0x3141.3 (0.1)
0x3140|   00 00                                       | ..             |        unused1: 0 0x3141.3-0x3142.4 (1.1)
0x3140|      00 00                                    |  ..            |        os_specific: 0 0x3142.4-0x3143.4 (1)
0x3140|         00                                    |   .            |        processor_specific: 0 0x3143.4-0x3144 (0.4)
0x3140|            00 00 00 00                        |    ....        |        unused2: 0 0x3144-0x3148 (4)
0x3140|                        e0 02 00 00 00 00 00 00|        ........|      addr: 0x2e0 0x3148-0x3150 (8)
0x3150|e0 02 00 00 00 00 00 00                        |........        |      offset: 0x2e0 0x3150-0x3158 (8)
0x3150|                        19 00 00 00 00 00 00 00|        ........|      size: 25 0x3158-0x3160 (8)
0x3160|00 00 00 00                                    |....            |      link: 0 0x3160-0x3164 (4)
0x3160|            00 00 00 00                        |    ....        |      info: 0 0x3164-0x3168 (4)
0x3160|                        01 00 00 00 00 00 00 00|        ........|      addralign: 1 0x3168-0x3170 (8)
0x3170|00 00 00 00 00 00 00 00                        |........        |      entsize: 0 0x3170-0x3178 (8)
      |                                               |                |    [2]{}: section_header 0x300-0x31b8 (11960)
0x0300|04 00 00 00 20 00 00 00 05 00 00 00 47 4e 55 00|.... .......GNU.|      data: raw bits 0x300-0x330 (48)
*     |until 0x32f.7 (48)                             |                |
0x3170|                        13 00 00 00            |        ....    |      name: ".note.gnu.property" (19) 0x3178-0x317c (4)
0x3170|                                    07 00 00 00|            ....|      type: "note" (0x7) (Information that marks the file in some way) 0x317c-0x3180 (4)
      |                                               |                |      flags{}: 0x3180-0x3188 (8)
0x3180|02                                             |.               |        link_order: false 0x3180-0x3180.1 (0.1)
0x3180|02                                             |.               |        info_link: false 0x3180.1-0x3180.2 (0.1)
0x3180|02                                             |.               |        strings: false 0x3180.2-0x3180.3 (0.1)
0x3180|02                                             |.               |        merge: false 0x3180.3-0x3180.4 (0.1)
0x3180|02                                             |.               |        unused0: 0 0x3180.4-0x3180.5 (0.1)
0x3180|02                                             |.               |        execinstr: false 0x3180.5-0x3180.6 (0.1)
0x3180|02                                             |.               |        alloc: true 0x3180.6-0x3180.7 (0.1)
0x3180|02                                             |.               |        write: false 0x3180.7-0x3181 (0.1)
0x3180|   00                                          | .              |        tls: false 0x3181-0x3181.1 (0.1)
0x3180|   00                                          | .              |        group: false 0x3181.1-0x3181.2 (0.1)
0x3180|   00                                          | .              |        os_nonconforming: false 0x3181.2-0x3181.3 (0.1)
0x3180|   00 00                                       | ..             |        unused1: 0 0x3181.3-0x3182.4 (1.1)
0x3180|      00 00                                    |  ..            |        os_specific: 0 0x3182.4-0x3183.4 (1)
0x3180|         00                                    |   .            |        processor_specific: 0 0x3183.4-0x3184 (0.4)
0x3180|            00 00 00 00                        |    ....        |        unused2: 0 0x3184-0x3188 (4)
0x3180|                        00 03 00 00 00 00 00 00|        ........|      addr: 0x300 0x3188-0x3190 (8)
0x3190|00 03 00 00 00 00 00 00                        |........        |      offset: 0x300 0x3190-0x3198 (8)
0x3190|                        30 00 00 00 00 00 00 00|        0.......|      size: 48 0x3198-0x31a0 (8)
0x31a0|00 00 00 00                                    |....            |      link: 0 0x31a0-0x31a4 (4)
0x31a0|            00 00 00 00                        |    ....        |      info: 0 0x31a4-0x31a8 (4)
0x31a0|                        08 00 00 00 00 00 00 00|        ........|      addralign: 8 0x31a8-0x31b0 (8)
0x31b0|00 00 00 00 00 00 00 00                        |........        |      entsize: 0 0x31b0-0x31b8 (8)
      |                                               |                |    [3]{}: section_header 0x330-0x31f8 (11976)
      |                                               |                |      gnu_hash{}: 0x330-0x360 (48)
0x0330|03 00 00 00                                    |....            |        nbuckets: 3 0x330-0x334 (4)
0x0330|            08 00 00 00                        |    ....        |        symndx: 8 0x334-0x338 (4)
0x0330|                        01 00 00 00            |        ....    |        maskwords: 1 0x338-0x33c (4)
0x0330|                                    06 00 00 00|            ....|        shift2: 6 0x33c-0x340 (4)
      |                                               |                |        bloom_filter[0:1]: 0x340-0x348 (8)
0x0340|00 80 81 00 00 04 40 01                        |......@.        |          [0]: 90076390602407936 maskword 0x340-0x348 (8)
      |                                               |                |        buckets[0:3]: 0x348-0x354 (12)
0x0340|                        08 00 00 00            |        ....    |          [0]: 8 bucket 0x348-0x34c (4)
0x0340|                                    09 00 00 00|            ....|          [1]: 9 bucket 0x34c-0x350 (4)
0x0350|0a 00 00 00                                    |....            |          [2]: 10 bucket 0x350-0x354 (4)
      |                                               |                |        values[0:3]: 0x354-0x360 (12)
0x0350|            d1 65 ce 6d                        |    .e.m        |          [0]: 1842243025 value 0x354-0x358 (4)
0x0350|                        b9 8d f1 0e            |        ....    |          [1]: 250711481 value 0x358-0x35c (4)
0x0350|                                    eb d3 ef 0e|            ....|          [2]: 250598379 value 0x35c-0x360 (4)
0x31b0|                        26 00 00 00            |        &...    |      name: ".gnu.hash" (38) 0x31b8-0x31bc (4)
0x31b0|                                    f6 ff ff 6f|            ...o|      type: "gnu_hash" (0x6ffffff6) (GNU symbol hash table) 0x31bc-0x31c0 (4)
      |                                               |                |      flags{}: 0x31c0-0x31c8 (8)
0x31c0|02                                             |.               |        link_order: false 0x31c0-0x31c0.1 (0.1)
0x31c0|02                                             |.               |        info_link: false 0x31c0.1-0x31c0.2 (0.1)
0x31c0|02                                             |.               |        strings: false 0x31c0.2-0x31c0.3 (0.1)
0x31c0|02                                             |.               |        merge: false 0x31c0.3-0x31c0.4 (0.1)
0x31c0|02                                             |.               |        unused0: 0 0x31c0.4-0x31c0.5 (0.1)
0x31c0|02                                             |.               |        execinstr: false 0x31c0.5-0x31c0.6 (0.1)
0x31c0|02                                             |.               |        alloc: true 0x31c0.6-0x31c0.7 (0.1)
0x31c0|02                                             |.               |        write: false 0x31c0.7-0x31c1 (0.1)
0x31c0|   00                                          | .              |        tls: false 0x31c1-0x31c1.1 (0.1)
0x31c0|   00                                          | .              |        group: false 0x31c1.1-0x31c1.2 (0.1)
0x31c0|   00                                          | .              |        os_nonconforming: false 0x31c1.2-0x31c1.3 (0.1)
0x31c0|   00 00                                       | ..             |        unused1: 0 0x31c1.3-0x31c2.4 (1.1)
0x31c0|      00 00                                    |  ..            |        os_specific: 0 0x31c2.4-0x31c3.4 (1)
0x31c0|         00                                    |   .            |        processor_specific: 0 0x31c3.4-0x31c4 (0.4)
0x31c0|            00 00 00 00                        |    ....        |        unused2: 0 0x31c4-0x31c8 (4)
0x31c0|                        30 03 00 00 00 00 00 00|        0.......|      addr: 0x330 0x31c8-0x31d0 (8)
0x31d0|30 03 00 00 00 00 00 00                        |0.......        |      offset: 0x330 0x31d0-0x31d8 (8)
0x31d0|                        30 00 00 00 00 00 00 00|        0.......|      size: 48 0x31d8-0x31e0 (8)
0x31e0|04 00 00 00                                    |....            |      link: 4 0x31e0-0x31e4 (4)
0x31e0|            00 00 00 00                        |    ....        |      info: 0 0x31e4-0x31e8 (4)
0x31e0|                        08 00 00 00 00 00 00 00|        ........|      addralign: 8 0x31e8-0x31f0 (8)
0x31f0|00 00 00 00 00 00 00 00                        |........        |      entsize: 0 0x31f0-0x31f8 (8)
      |                                               |                |    [4]{}: section_header 0x360-0x3238 (11992)
      |                                               |                |      symbol_table[0:11]: 0x360-0x468 (264)
      |                                               |                |        [0]{}: symbol 0x360-0x378 (24)
0x0360|00 00 00 00                                    |....            |          name: "" (0) 0x360-0x364 (4)
0x0360|            00                                 |    .           |          bind: "local" (0) 0x364-0x364.4 (0.4)
0x0360|            00                                 |    .           |          type: "notype" (0) 0x364.4-0x365 (0.4)
0x0360|               00                              |     .          |          other_unused: 0 0x365-0x365.6 (0.6)
0x0360|               00                              |     .          |          visibility: "default" (0) 0x365.6-0x366 (0.2)
0x0360|                  00 00                        |      ..        |          shndx: 0 0x366-0x368 (2)
0x0360|                        00 00 00 00 00 00 00 00|        ........|          value: 0 0x368-0x370 (8)
0x0370|00 00 00 00 00 00 00 00                        |........        |          size: 0 0x370-0x378 (8)
      |                                               |                |        [1]{}: symbol 0x378-0x390 (24)
0x0370|                        01 00 00 00            |        ....    |          name: "puts" (1) 0x378-0x37c (4)
0x0370|                                    12         |            .   |          bind: "global" (1) 0x37c-0x37c.4 (0.4)
0x0370|                                    12         |            .   |          type: "func" (2) 0x37c.4-0x37d (0.4)
0x0370|                                       00      |             .  |          other_unused: 0 0x37d-0x37d.6 (0.6)
0x0370|                                       00      |             .  |          visibility: "default" (0) 0x37d.6-0x37e (0.2)
0x0370|                                          00 00|              ..|          shndx: 0 0x37e-0x380 (2)
0x0380|00 00 00 00 00 00 00 00                        |........        |          value: 0 0x380-0x388 (8)
0x0380|                        00 00 00 00 00 00 00 00|        ........|          size: 0 0x388-0x390 (8)
      |                                               |                |        [2]{}: symbol 0x390-0x3a8 (24)
0x0390|15 00 00 00                                    |....            |          name: "__deregister_frame_info" (21) 0x390-0x394 (4)
0x0390|            20                                 |                |          bind: "weak" (2) 0x394-0x394.4 (0.4)
0x0390|            20                                 |                |          type: "notype" (0) 0x394.4-0x395 (0.4)
0x0390|               00                              |     .          |          other_unused: 0 0x395-0x395.6 (0.6)
0x0390|               00                              |     .          |          visibility: "default" (0) 0x395.6-0x396 (0.2)
0x0390|                  00 00                        |      ..        |          shndx: 0 0x396-0x398 (2)
0x0390|                        00 00 00 00 00 00 00 00|        ........|          value: 0 0x398-0x3a0 (8)
0x03a0|00 00 00 00 00 00 00 00                        |........        |          size: 0 0x3a0-0x3a8 (8)
      |                                               |                |        [3]{}: symbol 0x3a8-0x3c0 (24)
0x03a0|                        2d 00 00 00            |        -...    |          name: "_ITM_registerTMCloneTable" (45) 0x3a8-0x3ac (4)
0x03a0|                                    20         |                |          bind: "weak" (2) 0x3ac-0x3ac.4 (0.4)
0x03a0|                                    20         |                |          type: "notype" (0) 0x3ac.4-0x3ad (0.4)
0x03a0|                                       00      |             .  |          other_unused: 0 0x3ad-0x3ad.6 (0.6)
0x03a0|                                       00      |             .  |          visibility: "default" (0) 0x3ad.6-0x3ae (0.2)
0x03a0|                                          00 00|              ..|          shndx: 0 0x3ae-0x3b0 (2)
0x03b0|00 00 00 00 00 00 00 00                        |........        |          value: 0 0x3b0-0x3b8 (8)
0x03b0|                        00 00 00 00 00 00 00 00|        ........|          size: 0 0x3b8-0x3c0 (8)
      |                                               |                |        [4]{}: symbol 0x3c0-0x3d8 (24)
0x03c0|47 00 00 00                                    |G...            |          name: "_ITM_deregisterTMCloneTable" (71) 0x3c0-0x3c4 (4)
0x03c0|            20                                 |                |          bind: "weak" (2) 0x3c4-0x3c4.4 (0.4)
0x03c0|            20                                 |                |          type: "notype" (0) 0x3c4.4-0x3c5 (0.4)
0x03c0|               00                              |     .          |          other_unused: 0 0x3c5-0x3c5.6 (0.6)
0x03c0|               00                              |     .          |          visibility: "default" (0) 0x3c5.6-0x3c6 (0.2)
0x03c0|                  00 00                        |      ..        |          shndx: 0 0x3c6-0x3c8 (2)
0x03c0|                        00 00 00 00 00 00 00 00|        ........|          value: 0 0x3c8-0x3d0 (8)
0x03d0|00 00 00 00 00 00 00 00                        |........        |          size: 0 0x3d0-0x3d8 (8)
      |                                               |                |        [5]{}: symbol 0x3d8-0x3f0 (24)
0x03d0|                        85 00 00 00            |        ....    |          name: "libbbb_bbb" (133) 0x3d8-0x3dc (4)
0x03d0|                                    12         |            .   |          bind: "global" (1) 0x3dc-0x3dc.4 (0.4)
0x03d0|                                    12         |            .   |          type: "func" (2) 0x3dc.4-0x3dd (0.4)
0x03d0|                                       00      |             .  |          other_unused: 0 0x3dd-0x3dd.6 (0.6)
0x03d0|                                       00      |             .  |          visibility: "default" (0) 0x3dd.6-0x3de (0.2)
0x03d0|                                          00 00|              ..|          shndx: 0 0x3de-0x3e0 (2)
0x03e0|00 00 00 00 00 00 00 00                        |........        |          value: 0 0x3e0-0x3e8 (8)
0x03e0|                        00 00 00 00 00 00 00 00|        ........|          size: 0 0x3e8-0x3f0 (8)
      |                                               |                |        [6]{}: symbol 0x3f0-0x408 (24)
0x03f0|90 00 00 00                                    |....            |          name: "__libc_start_main" (144) 0x3f0-0x3f4 (4)
0x03f0|            12                                 |    .           |          bind: "global" (1) 0x3f4-0x3f4.4 (0.4)
0x03f0|            12                                 |    .           |          type: "func" (2) 0x3f4.4-0x3f5 (0.4)
0x03f0|               00                              |     .          |          other_unused: 0 0x3f5-0x3f5.6 (0.6)
0x03f0|               00                              |     .          |          visibility: "default" (0) 0x3f5.6-0x3f6 (0.2)
0x03f0|                  00 00                        |      ..        |          shndx: 0 0x3f6-0x3f8 (2)
0x03f0|                        00 00 00 00 00 00 00 00|        ........|          value: 0 0x3f8-0x400 (8)
0x0400|00 00 00 00 00 00 00 00                        |........        |          size: 0 0x400-0x408 (8)
      |                                               |                |        [7]{}: symbol 0x408-0x420 (24)
0x0400|                        63 00 00 00            |        c...    |          name: "__register_frame_info" (99) 0x408-0x40c (4)
0x0400|                                    20         |                |          bind: "weak" (2) 0x40c-0x40c.4 (0.4)
0x0400|                                    20         |                |          type: "notype" (0) 0x40c.4-0x40d (0.4)
0x0400|                                       00      |             .  |          other_unused: 0 0x40d-0x40d.6 (0.6)
0x0400|                                       00      |             .  |          visibility: "default" (0) 0x40d.6-0x40e (0.2)
0x0400|                                          00 00|              ..|          shndx: 0 0x40e-0x410 (2)
0x0410|00 00 00 00 00 00 00 00                        |........        |          value: 0 0x410-0x418 (8)
0x0410|                        00 00 00 00 00 00 00 00|        ........|          size: 0 0x418-0x420 (8)
      |                                               |                |        [8]{}: symbol 0x420-0x438 (24)
0x0420|06 00 00 00                                    |....            |          name: "__cxa_finalize" (6) 0x420-0x424 (4)
0x0420|            22                                 |    "           |          bind: "weak" (2) 0x424-0x424.4 (0.4)
0x0420|            22                                 |    "           |          type: "func" (2) 0x424.4-0x425 (0.4)
0x0420|               00                              |     .          |          other_unused: 0 0x425-0x425.6 (0.6)
0x0420|               00                              |     .          |          visibility: "default" (0) 0x425.6-0x426 (0.2)
0x0420|                  00 00                        |      ..        |          shndx: 0 0x426-0x428 (2)
0x0420|                        00 00 00 00 00 00 00 00|        ........|          value: 0 0x428-0x430 (8)
0x0430|00 00 00 00 00 00 00 00                        |........        |          size: 0 0x430-0x438 (8)
      |                                               |                |        [9]{}: symbol 0x438-0x450 (24)
0x0430|                        79 00 00 00            |        y...    |          name: "_init" (121) 0x438-0x43c (4)
0x0430|                                    12         |            .   |          bind: "global" (1) 0x43c-0x43c.4 (0.4)
0x0430|                                    12         |            .   |          type: "func" (2) 0x43c.4-0x43d (0.4)
0x0430|                                       00      |             .  |          other_unused: 0 0x43d-0x43d.6 (0.6)
0x0430|                                       00      |             .  |          visibility: "default" (0) 0x43d.6-0x43e (0.2)
0x0430|                                          08 00|              ..|          shndx: 8 0x43e-0x440 (2)
0x0440|00 10 00 00 00 00 00 00                        |........        |          value: 4096 0x440-0x448 (8)
0x0440|                        01 00 00 00 00 00 00 00|        ........|          size: 1 0x448-0x450 (8)
      |                                               |                |        [10]{}: symbol 0x450-0x468 (24)
0x0450|7f 00 00 00                                    |....            |          name: "_fini" (127) 0x450-0x454 (4)
0x0450|            12                                 |    .           |          bind: "global" (1) 0x454-0x454.4 (0.4)
0x0450|            12                                 |    .           |          type: "func" (2) 0x454.4-0x455 (0.4)
0x0450|               00                              |     .          |          other_unused: 0 0x455-0x455.6 (0.6)
0x0450|               00                              |     .          |          visibility: "default" (0) 0x455.6-0x456 (0.2)
0x0450|                  0c 00                        |      ..        |          shndx: 12 0x456-0x458 (2)
0x0450|                        81 12 00 00 00 00 00 00|        ........|          value: 4737 0x458-0x460 (8)
0x0460|01 00 00 00 00 00 00 00                        |........        |          size: 1 0x460-0x468 (8)
0x31f0|                        30 00 00 00            |        0...    |      name: ".dynsym" (48) 0x31f8-0x31fc (4)
0x31f0|                                    0b 00 00 00|            ....|      type: "dynsym" (0xb) (Dynamic linking symbol table) 0x31fc-0x3200 (4)
      |                                               |                |      flags{}: 0x3200-0x3208 (8)
0x3200|02                                             |.               |        link_order: false 0x3200-0x3200.1 (0.1)
0x3200|02                                             |.               |        info_link: false 0x3200.1-0x3200.2 (0.1)
0x3200|02                                             |.               |        strings: false 0x3200.2-0x3200.3 (0.1)
0x3200|02                                             |.               |        merge: false 0x3200.3-0x3200.4 (0.1)
0x3200|02                                             |.               |        unused0: 0 0x3200.4-0x3200.5 (0.1)
0x3200|02                                             |.               |        execinstr: false 0x3200.5-0x3200.6 (0.1)
0x3200|02                                             |.               |        alloc: true 0x3200.6-0x3200.7 (0.1)
0x3200|02                                             |.               |        write: false 0x3200.7-0x3201 (0.1)
0x3200|   00                                          | .              |        tls: false 0x3201-0x3201.1 (0.1)
0x3200|   00                                          | .              |        group: false 0x3201.1-0x3201.2 (0.1)
0x3200|   00                                          | .              |        os_nonconforming: false 0x3201.2-0x3201.3 (0.1)
0x3200|   00 00                                       | ..             |        unused1: 0 0x3201.3-0x3202.4 (1.1)
0x3200|      00 00                                    |  ..            |        os_specific: 0 0x3202.4-0x3203.4 (1)
0x3200|         00                                    |   .            |        processor_specific: 0 0x3203.4-0x3204 (0.4)
0x3200|            00 00 00 00                        |    ....        |        unused2: 0 0x3204-0x3208 (4)
0x3200|                        60 03 00 00 00 00 00 00|        `.......|      addr: 0x360 0x3208-0x3210 (8)
0x3210|60 03 00 00 00 00 00 00                        |`.......        |      offset: 0x360 0x3210-0x3218 (8)
0x3210|                        08 01 00 00 00 00 00 00|        ........|      size: 264 0x3218-0x3220 (8)
0x3220|05 00 00 00                                    |....            |      link: 5 0x3220-0x3224 (4)
0x3220|            01 00 00 00                        |    ....        |      info: 1 0x3224-0x3228 (4)
0x3220|                        08 00 00 00 00 00 00 00|        ........|      addralign: 8 0x3228-0x3230 (8)
0x3230|18 00 00 00 00 00 00 00                        |........        |      entsize: 24 0x3230-0x3238 (8)
      |                                               |                |    [5]{}: section_header 0x468-0x3278 (11792)
0x0460|                        00 70 75 74 73 00 5f 5f|        .puts.__|      string: "\x00puts\x00__cxa_finalize\x00__deregister_frame_info\x00_ITM_registerTMCloneTable\x00_ITM_deregisterTMCloneTable\x00__register_frame_info\x00_init\x00_fini\x00libbbb_bbb\x00__libc_start_main\x00libbbb.so\x00libc.musl-x86_64.so.1\x00" 0x468-0x52a (194)
0x0470|63 78 61 5f 66 69 6e 61 6c 69 7a 65 00 5f 5f 64|cxa_finalize.__d|
*     |until 0x529.7 (194)                            |                |
0x3230|                        38 00 00 00            |        8...    |      name: ".dynstr" (56) 0x3238-0x323c (4)
0x3230|                                    03 00 00 00|            ....|      type: "strtab" (0x3) (String table) 0x323c-0x3240 (4)
      |                                               |                |      flags{}: 0x3240-0x3248 (8)
0x3240|02                                             |.               |        link_order: false 0x3240-0x3240.1 (0.1)
0x3240|02                                             |.               |        info_link: false 0x3240.1-0x3240.2 (0.1)
0x3240|02                                             |.               |        strings: false 0x3240.2-0x3240.3 (0.1)
0x3240|02                                             |.               |        merge: false 0x3240.3-0x3240.4 (0.1)
0x3240|02                                             |.               |        unused0: 0 0x3240.4-0x3240.5 (0.1)
0x3240|02                                             |.               |        execinstr: false 0x3240.5-0x3240.6 (0.1)
0x3240|02                                             |.               |        alloc: true 0x3240.6-0x3240.7 (0.1)
0x3240|02                                             |.               |        write: false 0x3240.7-0x3241 (0.1)
0x3240|   00                                          | .              |        tls: false 0x3241-0x3241.1 (0.1)
0x3240|   00                                          | .              |        group: false 0x3241.1-0x3241.2 (0.1)
0x3240|   00                                          | .              |        os_nonconforming: false 0x3241.2-0x3241.3 (0.1)
0x3240|   00 00                                       | ..             |        unused1: 0 0x3241.3-0x3242.4 (1.1)
0x3240|      00 00                                    |  ..            |        os_specific: 0 0x3242.4-0x3243.4 (1)
0x3240|         00                                    |   .            |        processor_specific: 0 0x3243.4-0x3244 (0.4)
0x3240|            00 00 00 00                        |    ....        |        unused2: 0 0x3244-0x3248 (4)
0x3240|                        68 04 00 00 00 00 00 00|        h.......|      addr: 0x468 0x3248-0x3250 (8)
0x3250|68 04 00 00 00 00 00 00                        |h.......        |      offset: 0x468 0x3250-0x3258 (8)
0x3250|                        c2 00 00 00 00 00 00 00|        ........|      size: 194 0x3258-0x3260 (8)
0x3260|00 00 00 00                                    |....            |      link: 0 0x3260-0x3264 (4)
0x3260|            00 00 00 00                        |    ....        |      info: 0 0x3264-0x3268 (4)
0x3260|                        01 00 00 00 00 00 00 00|        ........|      addralign: 1 0x3268-0x3270 (8)
0x3270|00 00 00 00 00 00 00 00                        |........        |      entsize: 0 0x3270-0x3278 (8)
      |                                               |                |    [6]{}: section_header 0x530-0x32b8 (11656)
0x0530|00 40 00 00 00 00 00 00 08 00 00 00 00 00 00 00|.@..............|      data: raw bits 0x530-0x5c0 (144)
*     |until 0x5bf.7 (144)                            |                |
0x3270|                        40 00 00 00            |        @...    |      name: ".rela.dyn" (64) 0x3278-0x327c (4)
0x3270|                                    04 00 00 00|            ....|      type: "rela" (0x4) (Relocation entries with explicit addends) 0x327c-0x3280 (4)
      |                                               |                |      flags{}: 0x3280-0x3288 (8)
0x3280|02                                             |.               |        link_order: false 0x3280-0x3280.1 (0.1)
0x3280|02                                             |.               |        info_link: false 0x3280.1-0x3280.2 (0.1)
0x3280|02                                             |.               |        strings: false 0x3280.2-0x3280.3 (0.1)
0x3280|02                                             |.               |        merge: false 0x3280.3-0x3280.4 (0.1)
0x3280|02                                             |.               |        unused0: 0 0x3280.4-0x3280.5 (0.1)
0x3280|02                                             |.               |        execinstr: false 0x3280.5-0x3280.6 (0.1)
0x3280|02                                             |.               |        alloc: true 0x3280.6-0x3280.7 (0.1)
0x3280|02                                             |.               |        write: false 0x3280.7-0x3281 (0.1)
0x3280|   00                                          | .              |        tls: false 0x3281-0x3281.1 (0.1)
0x3280|   00                                          | .              |        group: false 0x3281.1-0x3281.2 (0.1)
0x3280|   00                                          | .              |        os_nonconforming: false 0x3281.2-0x3281.3 (0.1)
0x3280|   00 00                                       | ..             |        unused1: 0 0x3281.3-0x3282.4 (1.1)
0x3280|      00 00                                    |  ..            |        os_specific: 0 0x3282.4-0x3283.4 (1)
0x3280|         00                                    |   .            |        processor_specific: 0 0x3283.4-0x3284 (0.4)
0x3280|            00 00 00 00                        |    ....        |        unused2: 0 0x3284-0x3288 (4)
0x3280|                        30 05 00 00 00 00 00 00|        0.......|      addr: 0x530 0x3288-0x3290 (8)
0x3290|30 05 00 00 00 00 00 00                        |0.......        |      offset: 0x530 0x3290-0x3298 (8)
0x3290|                        90 00 00 00 00 00 00 00|        ........|      size: 144 0x3298-0x32a0 (8)
0x32a0|04 00 00 00                                    |....            |      link: 4 0x32a0-0x32a4 (4)
0x32a0|            00 00 00 00                        |    ....        |      info: 0 0x32a4-0x32a8 (4)
0x32a0|                        08 00 00 00 00 00 00 00|        ........|      addralign: 8 0x32a8-0x32b0 (8)
0x32b0|18 00 00 00 00 00 00 00                        |........        |      entsize: 24 0x32b0-0x32b8 (8)
      |                                               |                |    [7]{}: section_header 0x5c0-0x32f8 (11576)
0x05c0|c0 3f 00 00 00 00 00 00 07 00 00 00 01 00 00 00|.?..............|      data: raw bits 0x5c0-0x608 (72)
*     |until 0x607.7 (72)                             |                |
0x32b0|                        4a 00 00 00            |        J...    |      name: ".rela.plt" (74) 0x32b8-0x32bc (4)
0x32b0|                                    04 00 00 00|            ....|      type: "rela" (0x4) (Relocation entries with explicit addends) 0x32bc-0x32c0 (4)
      |                                               |                |      flags{}: 0x32c0-0x32c8 (8)
0x32c0|42                                             |B               |        link_order: false 0x32c0-0x32c0.1 (0.1)
0x32c0|42                                             |B               |        info_link: true 0x32c0.1-0x32c0.2 (0.1)
0x32c0|42                                             |B               |        strings: false 0x32c0.2-0x32c0.3 (0.1)
0x32c0|42                                             |B               |        merge: false 0x32c0.3-0x32c0.4 (0.1)
0x32c0|42                                             |B               |        unused0: 0 0x32c0.4-0x32c0.5 (0.1)
0x32c0|42                                             |B               |        execinstr: false 0x32c0.5-0x32c0.6 (0.1)
0x32c0|42                                             |B               |        alloc: true 0x32c0.6-0x32c0.7 (0.1)
0x32c0|42                                             |B               |        write: false 0x32c0.7-0x32c1 (0.1)
0x32c0|   00                                          | .              |        tls: false 0x32c1-0x32c1.1 (0.1)
0x32c0|   00                                          | .              |        group: false 0x32c1.1-0x32c1.2 (0.1)
0x32c0|   00                                          | .              |        os_nonconforming: false 0x32c1.2-0x32c1.3 (0.1)
0x32c0|   00 00                                       | ..             |        unused1: 0 0x32c1.3-0x32c2.4 (1.1)
0x32c0|      00 00                                    |  ..            |        os_specific: 0 0x32c2.4-0x32c3.4 (1)
0x32c0|         00                                    |   .            |        processor_specific: 0 0x32c3.4-0x32c4 (0.4)
0x32c0|            00 00 00 00                        |    ....        |        unused2: 0 0x32c4-0x32c8 (4)
0x32c0|                        c0 05 00 00 00 00 00 00|        ........|      addr: 0x5c0 0x32c8-0x32d0 (8)
0x32d0|c0 05 00 00 00 00 00 00                        |........        |      offset: 0x5c0 0x32d0-0x32d8 (8)
0x32d0|                        48 00 00 00 00 00 00 00|        H.......|      size: 72 0x32d8-0x32e0 (8)
0x32e0|04 00 00 00                                    |....            |      link: 4 0x32e0-0x32e4 (4)
0x32e0|            13 00 00 00                        |    ....        |      info: 19 0x32e4-0x32e8 (4)
0x32e0|                        08 00 00 00 00 00 00 00|        ........|      addralign: 8 0x32e8-0x32f0 (8)
0x32f0|18 00 00 00 00 00 00 00                        |........        |      entsize: 24 0x32f0-0x32f8 (8)
      |                                               |                |    [8]{}: section_header 0x1000-0x3338 (9016)
0x1000|50 e8 ca 01 00 00 e8 35 02 00 00 58 c3         |P......5...X.   |      data: raw bits 0x1000-0x100d (13)
0x32f0|                        54 00 00 00            |        T...    |      name: ".init" (84) 0x32f8-0x32fc (4)
0x32f0|                                    01 00 00 00|            ....|      type: "progbits" (0x1) (Information defined by the program) 0x32fc-0x3300 (4)
      |                                               |                |      flags{}: 0x3300-0x3308 (8)
0x3300|06                                             |.               |        link_order: false 0x3300-0x3300.1 (0.1)
0x3300|06                                             |.               |        info_link: false 0x3300.1-0x3300.2 (0.1)
0x3300|06                                             |.               |        strings: false 0x3300.2-0x3300.3 (0.1)
0x3300|06                                             |.               |        merge: false 0x3300.3-0x3300.4 (0.1)
0x3300|06                                             |.               |        unused0: 0 0x3300.4-0x3300.5 (0.1)
0x3300|06                                             |.               |        execinstr: true 0x3300.5-0x3300.6 (0.1)
0x3300|06                                             |.               |        alloc: true 0x3300.6-0x3300.7 (0.1)
0x3300|06                                             |.               |        write: false 0x3300.7-0x3301 (0.1)
0x3300|   00                                          | .              |        tls: false 0x3301-0x3301.1 (0.1)
0x3300|   00                                          | .              |        group: false 0x3301.1-0x3301.2 (0.1)
0x3300|   00                                          | .              |        os_nonconforming: false 0x3301.2-0x3301.3 (0.1)
0x3300|   00 00                                       | ..             |        unused1: 0 0x3301.3-0x3302.4 (1.1)
0x3300|      00 00                                    |  ..            |        os_specific: 0 0x3302.4-0x3303.4 (1)
0x3300|         00                                    |   .            |        processor_specific: 0 0x3303.4-0x3304 (0.4)
0x3300|            00 00 00 00                        |    ....        |        unused2: 0 0x3304-0x3308 (4)
0x3300|                        00 10 00 00 00 00 00 00|        ........|      addr: 0x1000 0x3308-0x3310 (8)
0x3310|00 10 00 00 00 00 00 00                        |........        |      offset: 0x1000 0x3310-0x3318 (8)
0x3310|                        0d 00 00 00 00 00 00 00|        ........|      size: 13 0x3318-0x3320 (8)
0x3320|00 00 00 00                                    |....            |      link: 0 0x3320-0x3324 (4)
0x3320|            00 00 00 00                        |    ....        |      info: 0 0x3324-0x3328 (4)
0x3320|                        01 00 00 00 00 00 00 00|        ........|      addralign: 1 0x3328-0x3330 (8)
0x3330|00 00 00 00 00 00 00 00                        |........        |      entsize: 0 0x3330-0x3338 (8)
      |                                               |                |    [9]{}: section_header 0x1010-0x3378 (9064)
0x1010|ff 35 9a 2f 00 00 ff 25 9c 2f 00 00 0f 1f 40 00|.5./...%./....@.|      data: raw bits 0x1010-0x1050 (64)
*     |until 0x104f.7 (64)                            |                |
0x3330|                        4f 00 00 00            |        O...    |      name: ".plt" (79) 0x3338-0x333c (4)
0x3330|                                    01 00 00 00|            ....|      type: "progbits" (0x1) (Information defined by the program) 0x333c-0x3340 (4)
      |                                               |                |      flags{}: 0x3340-0x3348 (8)
0x3340|06                                             |.               |        link_order: false 0x3340-0x3340.1 (0.1)
0x3340|06                                             |.               |        info_link: false 0x3340.1-0x3340.2 (0.1)
0x3340|06                                             |.               |        strings: false 0x3340.2-0x3340.3 (0.1)
0x3340|06                                             |.               |        merge: false 0x3340.3-0x3340.4 (0.1)
0x3340|06                                             |.               |        unused0: 0 0x3340.4-0x3340.5 (0.1)
0x3340|06                                             |.               |        execinstr: true 0x3340.5-0x3340.6 (0.1)
0x3340|06                                             |.               |        alloc: true 0x3340.6-0x3340.7 (0.1)
0x3340|06                                             |.               |        write: false 0x3340.7-0x3341 (0.1)
0x3340|   00                                          | .              |        tls: false 0x3341-0x3341.1 (0.1)
0x3340|   00                                          | .              |        group: false 0x3341.1-0x3341.2 (0.1)
0x3340|   00                                          | .              |        os_nonconforming: false 0x3341.2-0x3341.3 (0.1)
0x3340|   00 00                                       | ..             |        unused1: 0 0x3341.3-0x3342.4 (1.1)
0x3340|      00 00                                    |  ..            |        os_specific: 0 0x3342.4-0x3343.4 (1)
0x3340|         00                                    |   .            |        processor_specific: 0 0x3343.4-0x3344 (0.4)
0x3340|            00 00 00 00                        |    ....        |        unused2: 0 0x3344-0x3348 (4)
0x3340|                        10 10 00 00 00 00 00 00|        ........|      addr: 0x1010 0x3348-0x3350 (8)
0x3350|10 10 00 00 00 00 00 00                        |........        |      offset: 0x1010 0x3350-0x3358 (8)
0x3350|                        40 00 00 00 00 00 00 00|        @.......|      size: 64 0x3358-0x3360 (8)
0x3360|00 00 00 00                                    |....            |      link: 0 0x3360-0x3364 (4)
0x3360|            00 00 00 00                        |    ....        |      info: 0 0x3364-0x3368 (4)
0x3360|                        10 00 00 00 00 00 00 00|        ........|      addralign: 16 0x3368-0x3370 (8)
0x3370|10 00 00 00 00 00 00 00                        |........        |      entsize: 16 0x3370-0x3378 (8)
      |                                               |                |    [10]{}: section_header 0x1050-0x33b8 (9064)
0x1050|ff 25 82 2f 00 00 66 90 ff 25 82 2f 00 00 66 90|.%./..f..%./..f.|      data: raw bits 0x1050-0x1068 (24)
0x1060|ff 25 92 2f 00 00 66 90                        |.%./..f.        |
0x3370|                        5a 00 00 00            |        Z...    |      name: ".plt.got" (90) 0x3378-0x337c (4)
0x3370|                                    01 00 00 00|            ....|      type: "progbits" (0x1) (Information defined by the program) 0x337c-0x3380 (4)
      |                                               |                |      flags{}: 0x3380-0x3388 (8)
0x3380|06                                             |.               |        link_order: false 0x3380-0x3380.1 (0.1)
0x3380|06                                             |.               |        info_link: false 0x3380.1-0x3380.2 (0.1)
0x3380|06                                             |.               |        strings: false 0x3380.2-0x3380.3 (0.1)
0x3380|06                                             |.               |        merge: false 0x3380.3-0x3380.4 (0.1)
0x3380|06                                             |.               |        unused0: 0 0x3380.4-0x3380.5 (0.1)
0x3380|06                                             |.               |        execinstr: true 0x3380.5-0x3380.6 (0.1)
0x3380|06                                             |.               |        alloc: true 0x3380.6-0x3380.7 (0.1)
0x3380|06                                             |.               |        write: false 0x3380.7-0x3381 (0.1)
0x3380|   00                                          | .              |        tls: false 0x3381-0x3381.1 (0.1)
0x3380|   00                                          | .              |        group: false 0x3381.1-0x3381.2 (0.1)
0x3380|   00                                          | .              |        os_nonconforming: false 0x3381.2-0x3381.3 (0.1)
0x3380|   00 00                                       | ..             |        unused1: 0 0x3381.3-0x3382.4 (1.1)
0x3380|      00 00                                    |  ..            |        os_specific: 0 0x3382.4-0x3383.4 (1)
0x3380|         00                                    |   .            |        processor_specific: 0 0x3383.4-0x3384 (0.4)
0x3380|            00 00 00 00                        |    ....        |        unused2: 0 0x3384-0x3388 (4)
0x3380|                        50 10 00 00 00 00 00 00|        P.......|      addr: 0x1050 0x3388-0x3390 (8)
0x3390|50 10 00 00 00 00 00 00                        |P.......        |      offset: 0x1050 0x3390-0x3398 (8)
0x3390|                        18 00 00 00 00 00 00 00|        ........|      size: 24 0x3398-0x33a0 (8)
0x33a0|00 00 00 00                                    |....            |      link: 0 0x33a0-0x33a4 (4)
0x33a0|            00 00 00 00                        |    ....        |      info: 0 0x33a4-0x33a8 (4)
0x33a0|                        08 00 00 00 00 00 00 00|        ........|      addralign: 8 0x33a8-0x33b0 (8)
0x33b0|08 00 00 00 00 00 00 00                        |........        |      entsize: 8 0x33b0-0x33b8 (8)
      |                                               |                |    [11]{}: section_header 0x1070-0x33f8 (9096)
0x1070|48 31 ed 48 89 e7 48 8d 35 9b 2d 00 00 48 83 e4|H1.H..H.5.-..H..|      data: raw bits 0x1070-0x1281 (529)
*     |until 0x1280.7 (529)                           |                |
0x33b0|                        63 00 00 00            |        c...    |      name: ".text" (99) 0x33b8-0x33bc (4)
0x33b0|                                    01 00 00 00|            ....|      type: "progbits" (0x1) (Information defined by the program) 0x33bc-0x33c0 (4)
      |                                               |                |      flags{}: 0x33c0-0x33c8 (8)
0x33c0|06                                             |.               |        link_order: false 0x33c0-0x33c0.1 (0.1)
0x33c0|06                                             |.               |        info_link: false 0x33c0.1-0x33c0.2 (0.1)
0x33c0|06                                             |.               |        strings: false 0x33c0.2-0x33c0.3 (0.1)
0x33c0|06                                             |.               |        merge: false 0x33c0.3-0x33c0.4 (0.1)
0x33c0|06                                             |.               |        unused0: 0 0x33c0.4-0x33c0.5 (0.1)
0x33c0|06                                             |.               |        execinstr: true 0x33c0.5-0x33c0.6 (0.1)
0x33c0|06                                             |.               |        alloc: true 0x33c0.6-0x33c0.7 (0.1)
0x33c0|06                                             |.               |        write: false 0x33c0.7-0x33c1 (0.1)
0x33c0|   00                                          | .              |        tls: false 0x33c1-0x33c1.1 (0.1)
0x33c0|   00                                          | .              |        group: false 0x33c1.1-0x33c1.2 (0.1)
0x33c0|   00                                          | .              |        os_nonconforming: false 0x33c1.2-0x33c1.3 (0.1)
0x33c0|   00 00                                       | ..             |        unused1: 0 0x33c1.3-0x33c2.4 (1.1)
0x33c0|      00 00                                    |  ..            |        os_specific: 0 0x33c2.4-0x33c3.4 (1)
0x33c0|         00                                    |   .            |        processor_specific: 0 0x33c3.4-0x33c4 (0.4)
0x33c0|            00 00 00 00                        |    ....        |        unused2: 0 0x33c4-0x33c8 (4)
0x33c0|                        70 10 00 00 00 00 00 00|        p.......|      addr: 0x1070 0x33c8-0x33d0 (8)
0x33d0|70 10 00 00 00 00 00 00                        |p.......        |      offset: 0x1070 0x33d0-0x33d8 (8)
0x33d0|                        11 02 00 00 00 00 00 00|        ........|      size: 529 0x33d8-0x33e0 (8)
0x33e0|00 00 00 00                                    |....            |      link: 0 0x33e0-0x33e4 (4)
0x33e0|            00 00 00 00                        |    ....        |      info: 0 0x33e4-0x33e8 (4)
0x33e0|                        10 00 00 00 00 00 00 00|        ........|      addralign: 16 0x33e8-0x33f0 (8)
0x33f0|00 00 00 00 00 00 00 00                        |........        |      entsize: 0 0x33f0-0x33f8 (8)
      |                                               |                |    [12]{}: section_header 0x1281-0x3438 (8631)
0x1280|   50 e8 99 fe ff ff 58 c3                     | P.....X.       |      data: raw bits 0x1281-0x1289 (8)
0x33f0|                        69 00 00 00            |        i...    |      name: ".fini" (105) 0x33f8-0x33fc (4)
0x33f0|                                    01 00 00 00|            ....|      type: "progbits" (0x1) (Information defined by the program) 0x33fc-0x3400 (4)
      |                                               |                |      flags{}: 0x3400-0x3408 (8)
0x3400|06                                             |.               |        link_order: false 0x3400-0x3400.1 (0.1)
0x3400|06                                             |.               |        info_link: false 0x3400.1-0x3400.2 (0.1)
0x3400|06                                             |.               |        strings: false 0x3400.2-0x3400.3 (0.1)
0x3400|06                                             |.               |        merge: false 0x3400.3-0x3400.4 (0.1)
0x3400|06                                             |.               |        unused0: 0 0x3400.4-0x3400.5 (0.1)
0x3400|06                                             |.               |        execinstr: true 0x3400.5-0x3400.6 (0.1)
0x3400|06                                             |.               |        alloc: true 0x3400.6-0x3400.7 (0.1)
0x3400|06                                             |.               |        write: false 0x3400.7-0x3401 (0.1)
0x3400|   00                                          | .              |        tls: false 0x3401-0x3401.1 (0.1)
0x3400|   00                                          | .              |        group: false 0x3401.1-0x3401.2 (0.1)
0x3400|   00                                          | .              |        os_nonconforming: false 0x3401.2-0x3401.3 (0.1)
0x3400|   00 00                                       | ..             |        unused1: 0 0x3401.3-0x3402.4 (1.1)
0x3400|      00 00                                    |  ..            |        os_specific: 0 0x3402.4-0x3403.4 (1)
0x3400|         00                                    |   .            |        processor_specific: 0 0x3403.4-0x3404 (0.4)
0x3400|            00 00 00 00                        |    ....        |        unused2: 0 0x3404-0x3408 (4)
0x3400|                        81 12 00 00 00 00 00 00|        ........|      addr: 0x1281 0x3408-0x3410 (8)
0x3410|81 12 00 00 00 00 00 00                        |........        |      offset: 0x1281 0x3410-0x3418 (8)
0x3410|                        08 00 00 00 00 00 00 00|        ........|      size: 8 0x3418-0x3420 (8)
0x3420|00 00 00 00                                    |....            |      link: 0 0x3420-0x3424 (4)
0x3420|            00 00 00 00                        |    ....        |      info: 0 0x3424-0x3428 (4)
0x3420|                        01 00 00 00 00 00 00 00|        ........|      addralign: 1 0x3428-0x3430 (8)
0x3430|00 00 00 00 00 00 00 00                        |........        |      entsize: 0 0x3430-0x3438 (8)
      |                                               |                |    [13]{}: section_header 0x2000-0x3478 (5240)
0x2000|61 61 61 00                                    |aaa.            |      data: raw bits 0x2000-0x2004 (4)
0x3430|                        6f 00 00 00            |        o...    |      name: ".rodata" (111) 0x3438-0x343c (4)
0x3430|                                    01 00 00 00|            ....|      type: "progbits" (0x1) (Information defined by the program) 0x343c-0x3440 (4)
      |                                               |                |      flags{}: 0x3440-0x3448 (8)
0x3440|02                                             |.               |        link_order: false 0x3440-0x3440.1 (0.1)
0x3440|02                                             |.               |        info_link: false 0x3440.1-0x3440.2 (0.1)
0x3440|02                                             |.               |        strings: false 0x3440.2-0x3440.3 (0.1)
0x3440|02                                             |.               |        merge: false 0x3440.3-0x3440.4 (0.1)
0x3440|02                                             |.               |        unused0: 0 0x3440.4-0x3440.5 (0.1)
0x3440|02                                             |.               |        execinstr: false 0x3440.5-0x3440.6 (0.1)
0x3440|02                                             |.               |        alloc: true 0x3440.6-0x3440.7 (0.1)
0x3440|02                                             |.               |        write: false 0x3440.7-0x3441 (0.1)
0x3440|   00                                          | .              |        tls: false 0x3441-0x3441.1 (0.1)
0x3440|   00                                          | .              |        group: false 0x3441.1-0x3441.2 (0.1)
0x3440|   00                                          | .              |        os_nonconforming: false 0x3441.2-0x3441.3 (0.1)
0x3440|   00 00                                       | ..             |        unused1: 0 0x3441.3-0x3442.4 (1.1)
0x3440|      00 00                                    |  ..            |        os_specific: 0 0x3442.4-0x3443.4 (1)
0x3440|         00                                    |   .            |        processor_specific: 0 0x3443.4-0x3444 (0.4)
0x3440|            00 00 00 00                        |    ....        |        unused2: 0 0x3444-0x3448 (4)
0x3440|                        00 20 00 00 00 00 00 00|        . ......|      addr: 0x2000 0x3448-0x3450 (8)
0x3450|00 20 00 00 00 00 00 00                        |. ......        |      offset: 0x2000 0x3450-0x3458 (8)
0x3450|                        04 00 00 00 00 00 00 00|        ........|      size: 4 0x3458-0x3460 (8)
0x3460|00 00 00 00                                    |....            |      link: 0 0x3460-0x3464 (4)
0x3460|            00 00 00 00                        |    ....        |      info: 0 0x3464-0x3468 (4)
0x3460|                        01 00 00 00 00 00 00 00|        ........|      addralign: 1 0x3468-0x3470 (8)
0x3470|00 00 00 00 00 00 00 00                        |........        |      entsize: 0 0x3470-0x3478 (8)
      |                                               |                |    [14]{}: section_header 0x2004-0x34b8 (5300)
0x2000|            01 1b 03 3b 28 00 00 00 04 00 00 00|    ...;(.......|      data: raw bits 0x2004-0x2030 (44)
0x2010|0c f0 ff ff 44 00 00 00 4c f0 ff ff 6c 00 00 00|....D...L...l...|
0x2020|01 f2 ff ff 84 00 00 00 14 f2 ff ff a4 00 00 00|................|
0x3470|                        77 00 00 00            |        w...    |      name: ".eh_frame_hdr" (119) 0x3478-0x347c (4)
0x3470|                                    01 00 00 00|            ....|      type: "progbits" (0x1) (Information defined by the program) 0x347c-0x3480 (4)
      |                                               |                |      flags{}: 0x3480-0x3488 (8)
0x3480|02                                             |.               |        link_order: false 0x3480-0x3480.1 (0.1)
0x3480|02                                             |.               |        info_link: false 0x3480.1-0x3480.2 (0.1)
0x3480|02                                             |.               |        strings: false 0x3480.2-0x3480.3 (0.1)
0x3480|02                                             |.               |        merge: false 0x3480.3-0x3480.4 (0.1)
0x3480|02                                             |.               |        unused0: 0 0x3480.4-0x3480.5 (0.1)
0x3480|02                                             |.               |        execinstr: false 0x3480.5-0x3480.6 (0.1)
0x3480|02                                             |.               |        alloc: true 0x3480.6-0x3480.7 (0.1)
0x3480|02                                             |.               |        write: false 0x3480.7-0x3481 (0.1)
0x3480|   00                                          | .              |        tls: false 0x3481-0x3481.1 (0.1)
0x3480|   00                                          | .              |        group: false 0x3481.1-0x3481.2 (0.1)
0x3480|   00                                          | .              |        os_nonconforming: false 0x3481.2-0x3481.3 (0.1)
0x3480|   00 00                                       | ..             |        unused1: 0 0x3481.3-0x3482.4 (1.1)
0x3480|      00 00                                    |  ..            |        os_specific: 0 0x3482.4-0x3483.4 (1)
0x3480|         00                                    |   .            |        processor_specific: 0 0x3483.4-0x3484 (0.4)
0x3480|            00 00 00 00                        |    ....        |        unused2: 0 0x3484-0x3488 (4)
0x3480|                        04 20 00 00 00 00 00 00|        . ......|      addr: 0x2004 0x3488-0x3490 (8)
0x3490|04 20 00 00 00 00 00 00                        |. ......        |      offset: 0x2004 0x3490-0x3498 (8)
0x3490|                        2c 00 00 00 00 00 00 00|        ,.......|      size: 44 0x3498-0x34a0 (8)
0x34a0|00 00 00 00                                    |....            |      link: 0 0x34a0-0x34a4 (4)
0x34a0|            00 00 00 00                        |    ....        |      info: 0 0x34a4-0x34a8 (4)
0x34a0|                        04 00 00 00 00 00 00 00|        ........|      addralign: 4 0x34a8-0x34b0 (8)
0x34b0|00 00 00 00 00 00 00 00                        |........        |      entsize: 0 0x34b0-0x34b8 (8)
      |                                               |                |    [15]{}: section_header 0x2030-0x34f8 (5320)
0x2030|14 00 00 00 00 00 00 00 01 7a 52 00 01 78 10 01|.........zR..x..|      data: raw bits 0x2030-0x20cc (156)
*     |until 0x20cb.7 (156)                           |                |
0x34b0|                        85 00 00 00            |        ....    |      name: ".eh_frame" (133) 0x34b8-0x34bc (4)
0x34b0|                                    01 00 00 00|            ....|      type: "progbits" (0x1) (Information defined by the program) 0x34bc-0x34c0 (4)
      |                                               |                |      flags{}: 0x34c0-0x34c8 (8)
0x34c0|02                                             |.               |        link_order: false 0x34c0-0x34c0.1 (0.1)
0x34c0|02                                             |.               |        info_link: false 0x34c0.1-0x34c0.2 (0.1)
0x34c0|02                                             |.               |        strings: false 0x34c0.2-0x34c0.3 (0.1)
0x34c0|02                                             |.               |        merge: false 0x34c0.3-0x34c0.4 (0.1)
0x34c0|02                                             |.               |        unused0: 0 0x34c0.4-0x34c0.5 (0.1)
0x34c0|02                                             |.               |        execinstr: false 0x34c0.5-0x34c0.6 (0.1)
0x34c0|02                                             |.               |        alloc: true 0x34c0.6-0x34c0.7 (0.1)
0x34c0|02                                             |.               |        write: false 0x34c0.7-0x34c1 (0.1)
0x34c0|   00                                          | .              |        tls: false 0x34c1-0x34c1.1 (0.1)
0x34c0|   00                                          | .              |        group: false 0x34c1.1-0x34c1.2 (0.1)
0x34c0|   00                                          | .              |        os_nonconforming: false 0x34c1.2-0x34c1.3 (0.1)
0x34c0|   00 00                                       | ..             |        unused1: 0 0x34c1.3-0x34c2.4 (1.1)
0x34c0|      00 00                                    |  ..            |        os_specific: 0 0x34c2.4-0x34c3.4 (1)
0x34c0|         00                                    |   .            |        processor_specific: 0 0x34c3.4-0x34c4 (0.4)
0x34c0|            00 00 00 00                        |    ....        |        unused2: 0 0x34c4-0x34c8 (4)
0x34c0|                        30 20 00 00 00 00 00 00|        0 ......|      addr: 0x2030 0x34c8-0x34d0 (8)
0x34d0|30 20 00 00 00 00 00 00                        |0 ......        |      offset: 0x2030 0x34d0-0x34d8 (8)
0x34d0|                        9c 00 00 00 00 00 00 00|        ........|      size: 156 0x34d8-0x34e0 (8)
0x34e0|00 00 00 00                                    |....            |      link: 0 0x34e0-0x34e4 (4)
0x34e0|            00 00 00 00                        |    ....        |      info: 0 0x34e4-0x34e8 (4)
0x34e0|                        08 00 00 00 00 00 00 00|        ........|      addralign: 8 0x34e8-0x34f0 (8)
0x34f0|00 00 00 00 00 00 00 00                        |........        |      entsize: 0 0x34f0-0x34f8 (8)
      |                                               |                |    [16]{}: section_header 0x2df8-0x3538 (1856)
0x2df0|                        ff ff ff ff ff ff ff ff|        ........|      data: raw bits 0x2df8-0x2e08 (16)
0x2e00|00 00 00 00 00 00 00 00                        |........        |
0x34f0|                        8f 00 00 00            |        ....    |      name: ".ctors" (143) 0x34f8-0x34fc (4)
0x34f0|                                    01 00 00 00|            ....|      type: "progbits" (0x1) (Information defined by the program) 0x34fc-0x3500 (4)
      |                                               |                |      flags{}: 0x3500-0x3508 (8)
0x3500|03                                             |.               |        link_order: false 0x3500-0x3500.1 (0.1)
0x3500|03                                             |.               |        info_link: false 0x3500.1-0x3500.2 (0.1)
0x3500|03                                             |.               |        strings: false 0x3500.2-0x3500.3 (0.1)
0x3500|03                                             |.               |        merge: false 0x3500.3-0x3500.4 (0.1)
0x3500|03                                             |.               |        unused0: 0 0x3500.4-0x3500.5 (0.1)
0x3500|03                                             |.               |        execinstr: false 0x3500.5-0x3500.6 (0.1)
0x3500|03                                             |.               |        alloc: true 0x3500.6-0x3500.7 (0.1)
0x3500|03                                             |.               |        write: true 0x3500.7-0x3501 (0.1)
0x3500|   00                                          | .              |        tls: false 0x3501-0x3501.1 (0.1)
0x3500|   00                                          | .              |        group: false 0x3501.1-0x3501.2 (0.1)
0x3500|   00                                          | .              |        os_nonconforming: false 0x3501.2-0x3501.3 (0.1)
0x3500|   00 00                                       | ..             |        unused1: 0 0x3501.3-0x3502.4 (1.1)
0x3500|      00 00                                    |  ..            |        os_specific: 0 0x3502.4-0x3503.4 (1)
0x3500|         00                                    |   .            |        processor_specific: 0 0x3503.4-0x3504 (0.4)
0x3500|            00 00 00 00                        |    ....        |        unused2: 0 0x3504-0x3508 (4)
0x3500|                        f8 3d 00 00 00 00 00 00|        .=......|      addr: 0x3df8 0x3508-0x3510 (8)
0x3510|f8 2d 00 00 00 00 00 00                        |.-......        |      offset: 0x2df8 0x3510-0x3518 (8)
0x3510|                        10 00 00 00 00 00 00 00|        ........|      size: 16 0x3518-0x3520 (8)
0x3520|00 00 00 00                                    |....            |      link: 0 0x3520-0x3524 (4)
0x3520|            00 00 00 00                        |    ....        |      info: 0 0x3524-0x3528 (4)
0x3520|                        08 00 00 00 00 00 00 00|        ........|      addralign: 8 0x3528-0x3530 (8)
0x3530|00 00 00 00 00 00 00 00                        |........        |      entsize: 0 0x3530-0x3538 (8)
      |                                               |                |    [17]{}: section_header 0x2e08-0x3578 (1904)
0x2e00|                        ff ff ff ff ff ff ff ff|        ........|      data: raw bits 0x2e08-0x2e18 (16)
0x2e10|00 00 00 00 00 00 00 00                        |........        |
0x3530|                        96 00 00 00            |        ....    |      name: ".dtors" (150) 0x3538-0x353c (4)
0x3530|                                    01 00 00 00|            ....|      type: "progbits" (0x1) (Information defined by the program) 0x353c-0x3540 (4)
      |                                               |                |      flags{}: 0x3540-0x3548 (8)
0x3540|03                                             |.               |        link_order: false 0x3540-0x3540.1 (0.1)
0x3540|03                                             |.               |        info_link: false 0x3540.1-0x3540.2 (0.1)
0x3540|03                                             |.               |        strings: false 0x3540.2-0x3540.3 (0.1)
0x3540|03                                             |.               |        merge: false 0x3540.3-0x3540.4 (0.1)
0x3540|03                                             |.               |        unused0: 0 0x3540.4-0x3540.5 (0.1)
0x3540|03                                             |.               |        execinstr: false 0x3540.5-0x3540.6 (0.1)
0x3540|03                                             |.               |        alloc: true 0x3540.6-0x3540.7 (0.1)
0x3540|03                                             |.               |        write: true 0x3540.7-0x3541 (0.1)
0x3540|   00                                          | .              |        tls: false 0x3541-0x3541.1 (0.1)
0x3540|   00                                          | .              |        group: false 0x3541.1-0x3541.2 (0.1)
0x3540|   00                                          | .              |        os_nonconforming: false 0x3541.2-0x3541.3 (0.1)
0x3540|   00 00                                       | ..             |        unused1: 0 0x3541.3-0x3542.4 (1.1)
0x3540|      00 00                                    |  ..            |        os_specific: 0 0x3542.4-0x3543.4 (1)
0x3540|         00                                    |   .            |        processor_specific: 0 0x3543.4-0x3544 (0.4)
0x3540|            00 00 00 00                        |    ....        |        unused2: 0 0x3544-0x3548 (4)
0x3540|                        08 3e 00 00 00 00 00 00|        .>......|      addr: 0x3e08 0x3548-0x3550 (8)
0x3550|08 2e 00 00 00 00 00 00                        |........        |      offset: 0x2e08 0x3550-0x3558 (8)
0x3550|                        10 00 00 00 00 00 00 00|        ........|      size: 16 0x3558-0x3560 (8)
0x3560|00 00 00 00                                    |....            |      link: 0 0x3560-0x3564 (4)
0x3560|            00 00 00 00                        |    ....        |      info: 0 0x3564-0x3568 (4)
0x3560|                        08 00 00 00 00 00 00 00|        ........|      addralign: 8 0x3568-0x3570 (8)
0x3570|00 00 00 00 00 00 00 00                        |........        |      entsize: 0 0x3570-0x3578 (8)
      |                                               |                |    [18]{}: section_header 0x2e18-0x35b8 (1952)
      |                                               |                |      dynamic_tags[0:21]: 0x2e18-0x2f68 (336)
      |                                               |                |        [0]{}: dynamic_tags 0x2e18-0x2e28 (16)
0x2e10|                        01 00 00 00 00 00 00 00|        ........|          tag: "needed" (1) (String table offset to name of a needed library) 0x2e18-0x2e20 (8)
0x2e20|a2 00 00 00 00 00 00 00                        |........        |          val: "libbbb.so" (162) 0x2e20-0x2e28 (8)
      |                                               |                |        [1]{}: dynamic_tags 0x2e28-0x2e38 (16)
0x2e20|                        01 00 00 00 00 00 00 00|        ........|          tag: "needed" (1) (String table offset to name of a needed library) 0x2e28-0x2e30 (8)
0x2e30|ac 00 00 00 00 00 00 00                        |........        |          val: "libc.musl-x86_64.so.1" (172) 0x2e30-0x2e38 (8)
      |                                               |                |        [2]{}: dynamic_tags 0x2e38-0x2e48 (16)
0x2e30|                        0c 00 00 00 00 00 00 00|        ........|          tag: "init" (12) (Address of the initialization function) 0x2e38-0x2e40 (8)
0x2e40|00 10 00 00 00 00 00 00                        |........        |          ptr: 0x1000 0x2e40-0x2e48 (8)
      |                                               |                |          section_index: 8
      |                                               |                |        [3]{}: dynamic_tags 0x2e48-0x2e58 (16)
0x2e40|                        0d 00 00 00 00 00 00 00|        ........|          tag: "fini" (13) (Address of the termination function) 0x2e48-0x2e50 (8)
0x2e50|81 12 00 00 00 00 00 00                        |........        |          ptr: 0x1281 0x2e50-0x2e58 (8)
      |                                               |                |          section_index: 12
      |                                               |                |        [4]{}: dynamic_tags 0x2e58-0x2e68 (16)
0x2e50|                        f5 fe ff 6f 00 00 00 00|        ...o....|          tag: 1879047925 0x2e58-0x2e60 (8)
0x2e60|30 03 00 00 00 00 00 00                        |0.......        |          unspecified: 0x330 0x2e60-0x2e68 (8)
      |                                               |                |        [5]{}: dynamic_tags 0x2e68-0x2e78 (16)
0x2e60|                        05 00 00 00 00 00 00 00|        ........|          tag: "strtab" (5) (Address of string table) 0x2e68-0x2e70 (8)
0x2e70|68 04 00 00 00 00 00 00                        |h.......        |          ptr: 0x468 0x2e70-0x2e78 (8)
      |                                               |                |          section_index: 5
      |                                               |                |        [6]{}: dynamic_tags 0x2e78-0x2e88 (16)
0x2e70|                        06 00 00 00 00 00 00 00|        ........|          tag: "symtab" (6) (Address of symbol table) 0x2e78-0x2e80 (8)
0x2e80|60 03 00 00 00 00 00 00                        |`.......        |          ptr: 0x360 0x2e80-0x2e88 (8)
      |                                               |                |          section_index: 4
      |                                               |                |        [7]{}: dynamic_tags 0x2e88-0x2e98 (16)
0x2e80|                        0a 00 00 00 00 00 00 00|        ........|          tag: "strsz" (10) (Size in bytes of string table) 0x2e88-0x2e90 (8)
0x2e90|c2 00 00 00 00 00 00 00                        |........        |          val: 194 0x2e90-0x2e98 (8)
      |                                               |                |        [8]{}: dynamic_tags 0x2e98-0x2ea8 (16)
0x2e90|                        0b 00 00 00 00 00 00 00|        ........|          tag: "syment" (11) (Size in bytes of a symbol table entry) 0x2e98-0x2ea0 (8)
0x2ea0|18 00 00 00 00 00 00 00                        |........        |          val: 24 0x2ea0-0x2ea8 (8)
      |                                               |                |        [9]{}: dynamic_tags 0x2ea8-0x2eb8 (16)
0x2ea0|                        15 00 00 00 00 00 00 00|        ........|          tag: "debug" (21) (Undefined use for debugging) 0x2ea8-0x2eb0 (8)
0x2eb0|00 00 00 00 00 00 00 00                        |........        |          ptr: 0x0 0x2eb0-0x2eb8 (8)
      |                                               |                |        [10]{}: dynamic_tags 0x2eb8-0x2ec8 (16)
0x2eb0|                        03 00 00 00 00 00 00 00|        ........|          tag: "pltgot" (3) (Address of PLT and/or GOT) 0x2eb8-0x2ec0 (8)
0x2ec0|a8 3f 00 00 00 00 00 00                        |.?......        |          ptr: 0x3fa8 0x2ec0-0x2ec8 (8)
      |                                               |                |          section_index: 19
      |                                               |                |        [11]{}: dynamic_tags 0x2ec8-0x2ed8 (16)
0x2ec0|                        02 00 00 00 00 00 00 00|        ........|          tag: "pltrelsz" (2) (Size in bytes of PLT relocation entries) 0x2ec8-0x2ed0 (8)
0x2ed0|48 00 00 00 00 00 00 00                        |H.......        |          val: 72 0x2ed0-0x2ed8 (8)
      |                                               |                |        [12]{}: dynamic_tags 0x2ed8-0x2ee8 (16)
0x2ed0|                        14 00 00 00 00 00 00 00|        ........|          tag: "pltrel" (20) (Type of relocation entry to which the PLT refers (Rela or Rel)) 0x2ed8-0x2ee0 (8)
0x2ee0|07 00 00 00 00 00 00 00                        |........        |          val: 7 0x2ee0-0x2ee8 (8)
      |                                               |                |        [13]{}: dynamic_tags 0x2ee8-0x2ef8 (16)
0x2ee0|                        17 00 00 00 00 00 00 00|        ........|          tag: "jmprel" (23) (Address of relocation entries associated solely with the PLT) 0x2ee8-0x2ef0 (8)
0x2ef0|c0 05 00 00 00 00 00 00                        |........        |          ptr: 0x5c0 0x2ef0-0x2ef8 (8)
      |                                               |                |          section_index: 7
      |                                               |                |        [14]{}: dynamic_tags 0x2ef8-0x2f08 (16)
0x2ef0|                        07 00 00 00 00 00 00 00|        ........|          tag: "rela" (7) (Address of Rela relocation table) 0x2ef8-0x2f00 (8)
0x2f00|30 05 00 00 00 00 00 00                        |0.......        |          ptr: 0x530 0x2f00-0x2f08 (8)
      |                                               |                |        [15]{}: dynamic_tags 0x2f08-0x2f18 (16)
0x2f00|                        08 00 00 00 00 00 00 00|        ........|          tag: "relasz" (8) (Size in bytes of the Rela relocation table) 0x2f08-0x2f10 (8)
0x2f10|90 00 00 00 00 00 00 00                        |........        |          val: 144 0x2f10-0x2f18 (8)
      |                                               |                |        [16]{}: dynamic_tags 0x2f18-0x2f28 (16)
0x2f10|                        09 00 00 00 00 00 00 00|        ........|          tag: "relaent" (9) (Size in bytes of a Rela relocation table entry) 0x2f18-0x2f20 (8)
0x2f20|18 00 00 00 00 00 00 00                        |........        |          val: 24 0x2f20-0x2f28 (8)
      |                                               |                |        [17]{}: dynamic_tags 0x2f28-0x2f38 (16)
0x2f20|                        18 00 00 00 00 00 00 00|        ........|          tag: "bind_now" (24) (Instruct dynamic linker to process all relocations before transferring control to the executable) 0x2f28-0x2f30 (8)
0x2f30|00 00 00 00 00 00 00 00                        |........        |          ignored: 0x0 0x2f30-0x2f38 (8)
      |                                               |                |        [18]{}: dynamic_tags 0x2f38-0x2f48 (16)
0x2f30|                        fb ff ff 6f 00 00 00 00|        ...o....|          tag: 1879048187 0x2f38-0x2f40 (8)
0x2f40|01 00 00 08 00 00 00 00                        |........        |          unspecified: 0x8000001 0x2f40-0x2f48 (8)
      |                                               |                |        [19]{}: dynamic_tags 0x2f48-0x2f58 (16)
0x2f40|                        f9 ff ff 6f 00 00 00 00|        ...o....|          tag: 1879048185 0x2f48-0x2f50 (8)
0x2f50|01 00 00 00 00 00 00 00                        |........        |          unspecified: 0x1 0x2f50-0x2f58 (8)
      |                                               |                |        [20]{}: dynamic_tags 0x2f58-0x2f68 (16)
0x2f50|                        00 00 00 00 00 00 00 00|        ........|          tag: "null" (0) (Marks end of dynamic section) 0x2f58-0x2f60 (8)
0x2f60|00 00 00 00 00 00 00 00                        |........        |          ignored: 0x0 0x2f60-0x2f68 (8)
0x3570|                        9d 00 00 00            |        ....    |      name: ".dynamic" (157) 0x3578-0x357c (4)
0x3570|                                    06 00 00 00|            ....|      type: "dynamic" (0x6) (Information for dynamic linking) 0x357c-0x3580 (4)
      |                                               |                |      flags{}: 0x3580-0x3588 (8)
0x3580|03                                             |.               |        link_order: false 0x3580-0x3580.1 (0.1)
0x3580|03                                             |.               |        info_link: false 0x3580.1-0x3580.2 (0.1)
0x3580|03                                             |.               |        strings: false 0x3580.2-0x3580.3 (0.1)
0x3580|03                                             |.               |        merge: false 0x3580.3-0x3580.4 (0.1)
0x3580|03                                             |.               |        unused0: 0 0x3580.4-0x3580.5 (0.1)
0x3580|03                                             |.               |        execinstr: false 0x3580.5-0x3580.6 (0.1)
0x3580|03                                             |.               |        alloc: true 0x3580.6-0x3580.7 (0.1)
0x3580|03                                             |.               |        write: true 0x3580.7-0x3581 (0.1)
0x3580|   00                                          | .              |        tls: false 0x3581-0x3581.1 (0.1)
0x3580|   00                                          | .              |        group: false 0x3581.1-0x3581.2 (0.1)
0x3580|   00                                          | .              |        os_nonconforming: false 0x3581.2-0x3581.3 (0.1)
0x3580|   00 00                                       | ..             |        unused1: 0 0x3581.3-0x3582.4 (1.1)
0x3580|      00 00                                    |  ..            |        os_specific: 0 0x3582.4-0x3583.4 (1)
0x3580|         00                                    |   .            |        processor_specific: 0 0x3583.4-0x3584 (0.4)
0x3580|            00 00 00 00                        |    ....        |        unused2: 0 0x3584-0x3588 (4)
0x3580|                        18 3e 00 00 00 00 00 00|        .>......|      addr: 0x3e18 0x3588-0x3590 (8)
0x3590|18 2e 00 00 00 00 00 00                        |........        |      offset: 0x2e18 0x3590-0x3598 (8)
0x3590|                        90 01 00 00 00 00 00 00|        ........|      size: 400 0x3598-0x35a0 (8)
0x35a0|05 00 00 00                                    |....            |      link: 5 0x35a0-0x35a4 (4)
0x35a0|            00 00 00 00                        |    ....        |      info: 0 0x35a4-0x35a8 (4)
0x35a0|                        08 00 00 00 00 00 00 00|        ........|      addralign: 8 0x35a8-0x35b0 (8)
0x35b0|10 00 00 00 00 00 00 00                        |........        |      entsize: 16 0x35b0-0x35b8 (8)
      |                                               |                |    [19]{}: section_header 0x2fa8-0x35f8 (1616)
0x2fa0|                        18 3e 00 00 00 00 00 00|        .>......|      data: raw bits 0x2fa8-0x3000 (88)
0x2fb0|00 00 00 00 00 00 00 00 00 00 00 00 00 00 00 00|................|
*     |until 0x2fff.7 (88)                            |                |
0x35b0|                        5e 00 00 00            |        ^...    |      name: ".got" (94) 0x35b8-0x35bc (4)
0x35b0|                                    01 00 00 00|            ....|      type: "progbits" (0x1) (Information defined by the program) 0x35bc-0x35c0 (4)
      |                                               |                |      flags{}: 0x35c0-0x35c8 (8)
0x35c0|03                                             |.               |        link_order: false 0x35c0-0x35c0.1 (0.1)
0x35c0|03                                             |.               |        info_link: false 0x35c0.1-0x35c0.2 (0.1)
0x35c0|03                                             |.               |        strings: false 0x35c0.2-0x35c0.3 (0.1)
0x35c0|03                                             |.               |        merge: false 0x35c0.3-0x35c0.4 (0.1)
0x35c0|03                                             |.               |        unused0: 0 0x35c0.4-0x35c0.5 (0.1)
0x35c0|03                                             |.               |        execinstr: false 0x35c0.5-0x35c0.6 (0.1)
0x35c0|03                                             |.               |        alloc: true 0x35c0.6-0x35c0.7 (0.1)
0x35c0|03                                             |.               |        write: true 0x35c0.7-0x35c1 (0.1)
0x35c0|   00                                          | .              |        tls: false 0x35c1-0x35c1.1 (0.1)
0x35c0|   00                                          | .              |        group: false 0x35c1.1-0x35c1.2 (0.1)
0x35c0|   00                                          | .              |        os_nonconforming: false 0x35c1.2-0x35c1.3 (0.1)
0x35c0|   00 00                                       | ..             |        unused1: 0 0x35c1.3-0x35c2.4 (1.1)
0x35c0|      00 00                                    |  ..            |        os_specific: 0 0x35c2.4-0x35c3.4 (1)
0x35c0|         00                                    |   .            |        processor_specific: 0 0x35c3.4-0x35c4 (0.4)
0x35c0|            00 00 00 00                        |    ....        |        unused2: 0 0x35c4-0x35c8 (4)
0x35c0|                        a8 3f 00 00 00 00 00 00|        .?......|      addr: 0x3fa8 0x35c8-0x35d0 (8)
0x35d0|a8 2f 00 00 00 00 00 00                        |./......        |      offset: 0x2fa8 0x35d0-0x35d8 (8)
0x35d0|                        58 00 00 00 00 00 00 00|        X.......|      size: 88 0x35d8-0x35e0 (8)
0x35e0|00 00 00 00                                    |....            |      link: 0 0x35e0-0x35e4 (4)
0x35e0|            00 00 00 00                        |    ....        |      info: 0 0x35e4-0x35e8 (4)
0x35e0|                        08 00 00 00 00 00 00 00|        ........|      addralign: 8 0x35e8-0x35f0 (8)
0x35f0|08 00 00 00 00 00 00 00                        |........        |      entsize: 8 0x35f0-0x35f8 (8)
      |                                               |                |    [20]{}: section_header 0x3000-0x3638 (1592)
0x3000|00 40 00 00 00 00 00 00                        |.@......        |      data: raw bits 0x3000-0x3008 (8)
0x35f0|                        a6 00 00 00            |        ....    |      name: ".data" (166) 0x35f8-0x35fc (4)
0x35f0|                                    01 00 00 00|            ....|      type: "progbits" (0x1) (Information defined by the program) 0x35fc-0x3600 (4)
      |                                               |                |      flags{}: 0x3600-0x3608 (8)
0x3600|03                                             |.               |        link_order: false 0x3600-0x3600.1 (0.1)
0x3600|03                                             |.               |        info_link: false 0x3600.1-0x3600.2 (0.1)
0x3600|03                                             |.               |        strings: false 0x3600.2-0x3600.3 (0.1)
0x3600|03                                             |.               |        merge: false 0x3600.3-0x3600.4 (0.1)
0x3600|03                                             |.               |        unused0: 0 0x3600.4-0x3600.5 (0.1)
0x3600|03                                             |.               |        execinstr: false 0x3600.5-0x3600.6 (0.1)
0x3600|03                                             |.               |        alloc: true 0x3600.6-0x3600.7 (0.1)
0x3600|03                                             |.               |        write: true 0x3600.7-0x3601 (0.1)
0x3600|   00                                          | .              |        tls: false 0x3601-0x3601.1 (0.1)
0x3600|   00                                          | .              |        group: false 0x3601.1-0x3601.2 (0.1)
0x3600|   00                                          | .              |        os_nonconforming: false 0x3601.2-0x3601.3 (0.1)
0x3600|   00 00                                       | ..             |        unused1: 0 0x3601.3-0x3602.4 (1.1)
0x3600|      00 00                                    |  ..            |        os_specific: 0 0x3602.4-0x3603.4 (1)
0x3600|         00                                    |   .            |        processor_specific: 0 0x3603.4-0x3604 (0.4)
0x3600|            00 00 00 00                        |    ....        |        unused2: 0 0x3604-0x3608 (4)
0x3600|                        00 40 00 00 00 00 00 00|        .@......|      addr: 0x4000 0x3608-0x3610 (8)
0x3610|00 30 00 00 00 00 00 00                        |.0......        |      offset: 0x3000 0x3610-0x3618 (8)
0x3610|                        08 00 00 00 00 00 00 00|        ........|      size: 8 0x3618-0x3620 (8)
0x3620|00 00 00 00                                    |....            |      link: 0 0x3620-0x3624 (4)
0x3620|            00 00 00 00                        |    ....        |      info: 0 0x3624-0x3628 (4)
0x3620|                        08 00 00 00 00 00 00 00|        ........|      addralign: 8 0x3628-0x3630 (8)
0x3630|00 00 00 00 00 00 00 00                        |........        |      entsize: 0 0x3630-0x3638 (8)
      |                                               |                |    [21]{}: section_header 0x3638-0x3678 (64)
0x3630|                        ac 00 00 00            |        ....    |      name: ".bss" (172) 0x3638-0x363c (4)
0x3630|                                    08 00 00 00|            ....|      type: "nobits" (0x8) (No space in the file) 0x363c-0x3640 (4)
      |                                               |                |      flags{}: 0x3640-0x3648 (8)
0x3640|03                                             |.               |        link_order: false 0x3640-0x3640.1 (0.1)
0x3640|03                                             |.               |        info_link: false 0x3640.1-0x3640.2 (0.1)
0x3640|03                                             |.               |        strings: false 0x3640.2-0x3640.3 (0.1)
0x3640|03                                             |.               |        merge: false 0x3640.3-0x3640.4 (0.1)
0x3640|03                                             |.               |        unused0: 0 0x3640.4-0x3640.5 (0.1)
0x3640|03                                             |.               |        execinstr: false 0x3640.5-0x3640.6 (0.1)
0x3640|03                                             |.               |        alloc: true 0x3640.6-0x3640.7 (0.1)
0x3640|03                                             |.               |        write: true 0x3640.7-0x3641 (0.1)
0x3640|   00                                          | .              |        tls: false 0x3641-0x3641.1 (0.1)
0x3640|   00                                          | .              |        group: false 0x3641.1-0x3641.2 (0.1)
0x3640|   00                                          | .              |        os_nonconforming: false 0x3641.2-0x3641.3 (0.1)
0x3640|   00 00                                       | ..             |        unused1: 0 0x3641.3-0x3642.4 (1.1)
0x3640|      00 00                                    |  ..            |        os_specific: 0 0x3642.4-0x3643.4 (1)
0x3640|         00                                    |   .            |        processor_specific: 0 0x3643.4-0x3644 (0.4)
0x3640|            00 00 00 00                        |    ....        |        unused2: 0 0x3644-0x3648 (4)
0x3640|                        20 40 00 00 00 00 00 00|         @......|      addr: 0x4020 0x3648-0x3650 (8)
0x3650|08 30 00 00 00 00 00 00                        |.0......        |      offset: 0x3008 0x3650-0x3658 (8)
0x3650|                        50 00 00 00 00 00 00 00|        P.......|      size: 80 0x3658-0x3660 (8)
0x3660|00 00 00 00                                    |....            |      link: 0 0x3660-0x3664 (4)
0x3660|            00 00 00 00                        |    ....        |      info: 0 0x3664-0x3668 (4)
0x3660|                        20 00 00 00 00 00 00 00|         .......|      addralign: 32 0x3668-0x3670 (8)
0x3670|00 00 00 00 00 00 00 00                        |........        |      entsize: 0 0x3670-0x3678 (8)
      |                                               |                |    [22]{}: section_header 0x3008-0x36b8 (1712)
0x3000|                        47 43 43 3a 20 28 41 6c|        GCC: (Al|      data: raw bits 0x3008-0x3039 (49)
0x3010|70 69 6e 65 20 31 30 2e 33 2e 31 5f 67 69 74 32|pine 10.3.1_git2|
*     |until 0x3038.7 (49)                            |                |
0x3670|                        b1 00 00 00            |        ....    |      name: ".comment" (177) 0x3678-0x367c (4)
0x3670|                                    01 00 00 00|            ....|      type: "progbits" (0x1) (Information defined by the program) 0x367c-0x3680 (4)
      |                                               |                |      flags{}: 0x3680-0x3688 (8)
0x3680|30                                             |0               |        link_order: false 0x3680-0x3680.1 (0.1)
0x3680|30                                             |0               |        info_link: false 0x3680.1-0x3680.2 (0.1)
0x3680|30                                             |0               |        strings: true 0x3680.2-0x3680.3 (0.1)
0x3680|30                                             |0               |        merge: true 0x3680.3-0x3680.4 (0.1)
0x3680|30                                             |0               |        unused0: 0 0x3680.4-0x3680.5 (0.1)
0x3680|30                                             |0               |        execinstr: false 0x3680.5-0x3680.6 (0.1)
0x3680|30                                             |0               |        alloc: false 0x3680.6-0x3680.7 (0.1)
0x3680|30                                             |0               |        write: false 0x3680.7-0x3681 (0.1)
0x3680|   00                                          | .              |        tls: false 0x3681-0x3681.1 (0.1)
0x3680|   00                                          | .              |        group: false 0x3681.1-0x3681.2 (0.1)
0x3680|   00                                          | .              |        os_nonconforming: false 0x3681.2-0x3681.3 (0.1)
0x3680|   00 00                                       | ..             |        unused1: 0 0x3681.3-0x3682.4 (1.1)
0x3680|      00 00                                    |  ..            |        os_specific: 0 0x3682.4-0x3683.4 (1)
0x3680|         00                                    |   .            |        processor_specific: 0 0x3683.4-0x3684 (0.4)
0x3680|            00 00 00 00                        |    ....        |        unused2: 0 0x3684-0x3688 (4)
0x3680|                        00 00 00 00 00 00 00 00|        ........|      addr: 0x0 0x3688-0x3690 (8)
0x3690|08 30 00 00 00 00 00 00                        |.0......        |      offset: 0x3008 0x3690-0x3698 (8)
0x3690|                        31 00 00 00 00 00 00 00|        1.......|      size: 49 0x3698-0x36a0 (8)
0x36a0|00 00 00 00                                    |....            |      link: 0 0x36a0-0x36a4 (4)
0x36a0|            00 00 00 00                        |    ....        |      info: 0 0x36a4-0x36a8 (4)
0x36a0|                        01 00 00 00 00 00 00 00|        ........|      addralign: 1 0x36a8-0x36b0 (8)
0x36b0|01 00 00 00 00 00 00 00                        |........        |      entsize: 1 0x36b0-0x36b8 (8)
      |                                               |                |    [23]{}: section_header 0x3039-0x36f8 (1727)
0x3030|                           00 2e 73 68 73 74 72|         ..shstr|      string: "\x00.shstrtab\x00.interp\x00.note.gnu.property\x00.gnu.hash\x00.dynsym\x00.dynstr\x00.rela.dyn\x00.rela.plt\x00.init\x00.plt.got\x00.text\x00.fini\x00.rodata\x00.eh_frame_hdr\x00.eh_frame\x00.ctors\x00.dtors\x00.dynamic\x00.data\x00.bss\x00.comment\x00" 0x3039-0x30f3 (186)
0x3040|74 61 62 00 2e 69 6e 74 65 72 70 00 2e 6e 6f 74|tab..interp..not|
*     |until 0x30f2.7 (186)                           |                |
0x36b0|                        01 00 00 00            |        ....    |      name: ".shstrtab" (1) 0x36b8-0x36bc (4)
0x36b0|                                    03 00 00 00|            ....|      type: "strtab" (0x3) (String table) 0x36bc-0x36c0 (4)
      |                                               |                |      flags{}: 0x36c0-0x36c8 (8)
0x36c0|00                                             |.               |        link_order: false 0x36c0-0x36c0.1 (0.1)
0x36c0|00                                             |.               |        info_link: false 0x36c0.1-0x36c0.2 (0.1)
0x36c0|00                                             |.               |        strings: false 0x36c0.2-0x36c0.3 (0.1)
0x36c0|00                                             |.               |        merge: false 0x36c0.3-0x36c0.4 (0.1)
0x36c0|00                                             |.               |        unused0: 0 0x36c0.4-0x36c0.5 (0.1)
0x36c0|00                                             |.               |        execinstr: false 0x36c0.5-0x36c0.6 (0.1)
0x36c0|00                                             |.               |        alloc: false 0x36c0.6-0x36c0.7 (0.1)
0x36c0|00                                             |.               |        write: false 0x36c0.7-0x36c1 (0.1)
0x36c0|   00                                          | .              |        tls: false 0x36c1-0x36c1.1 (0.1)
0x36c0|   00                                          | .              |        group: false 0x36c1.1-0x36c1.2 (0.1)
0x36c0|   00                                          | .              |        os_nonconforming: false 0x36c1.2-0x36c1.3 (0.1)
0x36c0|   00 00                                       | ..             |        unused1: 0 0x36c1.3-0x36c2.4 (1.1)
0x36c0|      00 00                                    |  ..            |        os_specific: 0 0x36c2.4-0x36c3.4 (1)
0x36c0|         00                                    |   .            |        processor_specific: 0 0x36c3.4-0x36c4 (0.4)
0x36c0|            00 00 00 00                        |    ....        |        unused2: 0 0x36c4-0x36c8 (4)
0x36c0|                        00 00 00 00 00 00 00 00|        ........|      addr: 0x0 0x36c8-0x36d0 (8)
0x36d0|39 30 00 00 00 00 00 00                        |90......        |      offset: 0x3039 0x36d0-0x36d8 (8)
0x36d0|                        ba 00 00 00 00 00 00 00|        ........|      size: 186 0x36d8-0x36e0 (8)
0x36e0|00 00 00 00                                    |....            |      link: 0 0x36e0-0x36e4 (4)
0x36e0|            00 00 00 00                        |    ....        |      info: 0 0x36e4-0x36e8 (4)
0x36e0|                        01 00 00 00 00 00 00 00|        ........|      addralign: 1 0x36e8-0x36f0 (8)
0x36f0|00 00 00 00 00 00 00 00|                       |........|       |      entsize: 0 0x36f0-0x36f8 (8)
0x0600|                        00 00 00 00 00 00 00 00|        ........|  gap0: raw bits 0x608-0x1000 (2552)
0x0610|00 00 00 00 00 00 00 00 00 00 00 00 00 00 00 00|................|
*     |until 0xfff.7 (2552)                           |                |
0x1280|                           00 00 00 00 00 00 00|         .......|  gap1: raw bits 0x1289-0x2000 (3447)
0x1290|00 00 00 00 00 00 00 00 00 00 00 00 00 00 00 00|................|
*     |until 0x1fff.7 (3447)                          |                |
0x20c0|                                    00 00 00 00|            ....|  gap2: raw bits 0x20cc-0x2df8 (3372)
0x20d0|00 00 00 00 00 00 00 00 00 00 00 00 00 00 00 00|................|
*     |until 0x2df7.7 (3372)                          |                |
0x30f0|         00 00 00 00 00                        |   .....        |  gap3: raw bits 0x30f3-0x30f8 (5)
