$ fq -d elf dv coredump
       |00 01 02 03 04 05 06 07 08 09 0a 0b 0c 0d 0e 0f|0123456789abcdef|.{}: coredump (elf) 0x0-0x32000 (204800)
       |                                               |                |  header{}: 0x0-0x40 (64)
       |                                               |                |    ident{}: 0x0-0x10 (16)
0x00000|7f 45 4c 46                                    |.ELF            |      magic: raw bits (valid) 0x0-0x4 (4)
0x00000|            02                                 |    .           |      class: 64 (2) 0x4-0x5 (1)
0x00000|               01                              |     .          |      data: "little_endian" (1) 0x5-0x6 (1)
0x00000|                  01                           |      .         |      version: 1 0x6-0x7 (1)
0x00000|                     00                        |       .        |      os_abi: "sysv" (0) 0x7-0x8 (1)
0x00000|                        00                     |        .       |      abi_version: 0 0x8-0x9 (1)
0x00000|                           00 00 00 00 00 00 00|         .......|      pad: raw bits (all zero) 0x9-0x10 (7)
0x00010|04 00                                          |..              |    type: "core" (0x4) 0x10-0x12 (2)
0x00010|      3e 00                                    |  >.            |    machine: "x86_64" (0x3e) (AMD x86-64) 0x12-0x14 (2)
0x00010|            01 00 00 00                        |    ....        |    version: 1 0x14-0x18 (4)
0x00010|                        00 00 00 00 00 00 00 00|        ........|    entry: 0 0x18-0x20 (8)
0x00020|40 00 00 00 00 00 00 00                        |@.......        |    phoff: 64 0x20-0x28 (8)
0x00020|                        00 00 00 00 00 00 00 00|        ........|    shoff: 0 0x28-0x30 (8)
0x00030|00 00 00 00                                    |....            |    flags: 0 0x30-0x34 (4)
0x00030|            40 00                              |    @.          |    ehsize: 64 0x34-0x36 (2)
0x00030|                  38 00                        |      8.        |    phentsize: 56 0x36-0x38 (2)
0x00030|                        12 00                  |        ..      |    phnum: 18 0x38-0x3a (2)
0x00030|                              00 00            |          ..    |    shentsize: 0 0x3a-0x3c (2)
0x00030|                                    00 00      |            ..  |    shnum: 0 0x3c-0x3e (2)
0x00030|                                          00 00|              ..|    shstrndx: 0 0x3e-0x40 (2)
       |                                               |                |  program_headers[0:18]: 0x40-0x32000 (204736)
       |                                               |                |    [0]{}: program_header 0x40-0x1018 (4056)
0x00040|04 00 00 00                                    |....            |      type: "note" (4) (Auxiliary information) 0x40-0x44 (4)
       |                                               |                |      flags{}: 0x44-0x48 (4)
0x00040|            00                                 |    .           |        unused0: 0 0x44-0x44.5 (0.5)
0x00040|            00                                 |    .           |        r: false 0x44.5-0x44.6 (0.1)
0x00040|            00                                 |    .           |        w: false 0x44.6-0x44.7 (0.1)
0x00040|            00                                 |    .           |        x: false 0x44.7-0x45 (0.1)
0x00040|               00 00 00                        |     ...        |        unused1: 0 0x45-0x48 (3)
0x00040|                        30 04 00 00 00 00 00 00|        0.......|      offset: 0x430 0x48-0x50 (8)
0x00050|00 00 00 00 00 00 00 00                        |........        |      vaddr: 0x0 0x50-0x58 (8)
0x00050|                        00 00 00 00 00 00 00 00|        ........|      paddr: 0x0 0x58-0x60 (8)
0x00060|e8 0b 00 00 00 00 00 00                        |........        |      filesz: 3048 0x60-0x68 (8)
0x00060|                        00 00 00 00 00 00 00 00|        ........|      memsz: 0 0x68-0x70 (8)
0x00070|00 00 00 00 00 00 00 00                        |........        |      align: 0 0x70-0x78 (8)
       |                                               |                |      notes[0:7]: 0x430-0x1018 (3048)
       |                                               |                |        [0]{}: note 0x430-0x594 (356)
0x00430|05 00 00 00                                    |....            |          n_namesz: 5 0x430-0x434 (4)
0x00430|            50 01 00 00                        |    P...        |          n_descsz: 336 0x434-0x438 (4)
0x00430|                        01 00 00 00            |        ....    |          n_type: "prstatus" (0x1) 0x438-0x43c (4)
0x00430|                                    43 4f 52 45|            CORE|          name: "CORE" 0x43c-0x441 (5)
0x00440|00                                             |.               |
0x00440|   00 00 00                                    | ...            |          name_align: raw bits 0x441-0x444 (3)
0x00440|            0b 00 00 00 00 00 00 00 00 00 00 00|    ............|          desc: raw bits 0x444-0x594 (336)
0x00450|0b 00 00 00 00 00 00 00 00 00 00 00 00 00 00 00|................|
*      |until 0x593.7 (336)                            |                |
       |                                               |                |        [1]{}: note 0x594-0x630 (156)
0x00590|            05 00 00 00                        |    ....        |          n_namesz: 5 0x594-0x598 (4)
0x00590|                        88 00 00 00            |        ....    |          n_descsz: 136 0x598-0x59c (4)
0x00590|                                    03 00 00 00|            ....|          n_type: "prpsinfo" (0x3) 0x59c-0x5a0 (4)
0x005a0|43 4f 52 45 00                                 |CORE.           |          name: "CORE" 0x5a0-0x5a5 (5)
0x005a0|               00 00 00                        |     ...        |          name_align: raw bits 0x5a5-0x5a8 (3)
0x005a0|                        00 52 00 00 00 00 00 00|        .R......|          desc: raw bits 0x5a8-0x630 (136)
0x005b0|00 06 40 00 00 00 00 00 00 00 00 00 00 00 00 00|..@.............|
*      |until 0x62f.7 (136)                            |                |
       |                                               |                |        [2]{}: note 0x630-0x6c4 (148)
0x00630|05 00 00 00                                    |....            |          n_namesz: 5 0x630-0x634 (4)
0x00630|            80 00 00 00                        |    ....        |          n_descsz: 128 0x634-0x638 (4)
0x00630|                        49 47 49 53            |        IGIS    |          n_type: "siginfo" (0x53494749) (Signal info) 0x638-0x63c (4)
0x00630|                                    43 4f 52 45|            CORE|          name: "CORE" 0x63c-0x641 (5)
0x00640|00                                             |.               |
0x00640|   00 00 00                                    | ...            |          name_align: raw bits 0x641-0x644 (3)
0x00640|            0b 00 00 00 00 00 00 00 01 00 00 00|    ............|          desc: raw bits 0x644-0x6c4 (128)
0x00650|00 00 00 00 00 00 00 00 00 00 00 00 00 00 00 00|................|
*      |until 0x6c3.7 (128)                            |                |
       |                                               |                |        [3]{}: note 0x6c4-0x828 (356)
0x006c0|            05 00 00 00                        |    ....        |          n_namesz: 5 0x6c4-0x6c8 (4)
0x006c0|                        50 01 00 00            |        P...    |          n_descsz: 336 0x6c8-0x6cc (4)
0x006c0|                                    06 00 00 00|            ....|          n_type: "auxv" (0x6) 0x6cc-0x6d0 (4)
0x006d0|43 4f 52 45 00                                 |CORE.           |          name: "CORE" 0x6d0-0x6d5 (5)
0x006d0|               00 00 00                        |     ...        |          name_align: raw bits 0x6d5-0x6d8 (3)
0x006d0|                        21 00 00 00 00 00 00 00|        !.......|          desc: raw bits 0x6d8-0x828 (336)
0x006e0|00 70 9a f2 fe 7f 00 00 33 00 00 00 00 00 00 00|.p......3.......|
*      |until 0x827.7 (336)                            |                |
       |                                               |                |        [4]{}: note 0x828-0xab0 (648)
0x00820|                        05 00 00 00            |        ....    |          n_namesz: 5 0x828-0x82c (4)
0x00820|                                    72 02 00 00|            r...|          n_descsz: 626 0x82c-0x830 (4)
0x00830|45 4c 49 46                                    |ELIF            |          n_type: "file" (0x46494c45) (File info) 0x830-0x834 (4)
0x00830|            43 4f 52 45 00                     |    CORE.       |          name: "CORE" 0x834-0x839 (5)
0x00830|                           00 00 00            |         ...    |          name_align: raw bits 0x839-0x83c (3)
0x00830|                                    0a 00 00 00|            ....|          desc: raw bits 0x83c-0xaae (626)
0x00840|00 00 00 00 00 10 00 00 00 00 00 00 00 e0 b2 29|...............)|
*      |until 0xaad.7 (626)                            |                |
0x00aa0|                                          00 00|              ..|          decs_align: raw bits 0xaae-0xab0 (2)
       |                                               |                |        [5]{}: note 0xab0-0xcc4 (532)
0x00ab0|05 00 00 00                                    |....            |          n_namesz: 5 0xab0-0xab4 (4)
0x00ab0|            00 02 00 00                        |    ....        |          n_descsz: 512 0xab4-0xab8 (4)
0x00ab0|                        02 00 00 00            |        ....    |          n_type: "prfpreg" (0x2) 0xab8-0xabc (4)
0x00ab0|                                    43 4f 52 45|            CORE|          name: "CORE" 0xabc-0xac1 (5)
0x00ac0|00                                             |.               |
0x00ac0|   00 00 00                                    | ...            |          name_align: raw bits 0xac1-0xac4 (3)
0x00ac0|            7f 03 00 00 00 00 00 00 00 00 00 00|    ............|          desc: raw bits 0xac4-0xcc4 (512)
0x00ad0|00 00 00 00 00 00 00 00 00 00 00 00 80 1f 00 00|................|
*      |until 0xcc3.7 (512)                            |                |
       |                                               |                |        [6]{}: note 0xcc4-0x1018 (852)
0x00cc0|            06 00 00 00                        |    ....        |          n_namesz: 6 0xcc4-0xcc8 (4)
0x00cc0|                        40 03 00 00            |        @...    |          n_descsz: 832 0xcc8-0xccc (4)
0x00cc0|                                    02 02 00 00|            ....|          n_type: "x86_xstate" (0x202) (x86 extended state using xsave) 0xccc-0xcd0 (4)
0x00cd0|4c 49 4e 55 58 00                              |LINUX.          |          name: "LINUX" 0xcd0-0xcd6 (6)
0x00cd0|                  00 00                        |      ..        |          name_align: raw bits 0xcd6-0xcd8 (2)
0x00cd0|                        7f 03 00 00 00 00 00 00|        ........|          desc: raw bits 0xcd8-0x1018 (832)
0x00ce0|00 00 00 00 00 00 00 00 00 00 00 00 00 00 00 00|................|
*      |until 0x1017.7 (832)                           |                |
       |                                               |                |    [1]{}: program_header 0x78-0x2000 (8072)
0x00070|                        01 00 00 00            |        ....    |      type: "load" (1) (Loadable segment) 0x78-0x7c (4)
       |                                               |                |      flags{}: 0x7c-0x80 (4)
0x00070|                                    04         |            .   |        unused0: 0 0x7c-0x7c.5 (0.5)
0x00070|                                    04         |            .   |        r: true 0x7c.5-0x7c.6 (0.1)
0x00070|                                    04         |            .   |        w: false 0x7c.6-0x7c.7 (0.1)
0x00070|                                    04         |            .   |        x: false 0x7c.7-0x7d (0.1)
0x00070|                                       00 00 00|             ...|        unused1: 0 0x7d-0x80 (3)
0x00080|00 20 00 00 00 00 00 00                        |. ......        |      offset: 0x2000 0x80-0x88 (8)
0x00080|                        00 e0 b2 29 6f 55 00 00|        ...)oU..|      vaddr: 0x556f29b2e000 0x88-0x90 (8)
0x00090|00 00 00 00 00 00 00 00                        |........        |      paddr: 0x0 0x90-0x98 (8)
0x00090|                        00 00 00 00 00 00 00 00|        ........|      filesz: 0 0x98-0xa0 (8)
0x000a0|00 10 00 00 00 00 00 00                        |........        |      memsz: 4096 0xa0-0xa8 (8)
0x000a0|                        00 10 00 00 00 00 00 00|        ........|      align: 4096 0xa8-0xb0 (8)
       |                                               |                |      data: raw bits 0x2000-0x2000 (0)
       |                                               |                |    [2]{}: program_header 0xb0-0x2000 (8016)
0x000b0|01 00 00 00                                    |....            |      type: "load" (1) (Loadable segment) 0xb0-0xb4 (4)
       |                                               |                |      flags{}: 0xb4-0xb8 (4)
0x000b0|            05                                 |    .           |        unused0: 0 0xb4-0xb4.5 (0.5)
0x000b0|            05                                 |    .           |        r: true 0xb4.5-0xb4.6 (0.1)
0x000b0|            05                                 |    .           |        w: false 0xb4.6-0xb4.7 (0.1)
0x000b0|            05                                 |    .           |        x: true 0xb4.7-0xb5 (0.1)
0x000b0|               00 00 00                        |     ...        |        unused1: 0 0xb5-0xb8 (3)
0x000b0|                        00 20 00 00 00 00 00 00|        . ......|      offset: 0x2000 0xb8-0xc0 (8)
0x000c0|00 f0 b2 29 6f 55 00 00                        |...)oU..        |      vaddr: 0x556f29b2f000 0xc0-0xc8 (8)
0x000c0|                        00 00 00 00 00 00 00 00|        ........|      paddr: 0x0 0xc8-0xd0 (8)
0x000d0|00 00 00 00 00 00 00 00                        |........        |      filesz: 0 0xd0-0xd8 (8)
0x000d0|                        00 10 00 00 00 00 00 00|        ........|      memsz: 4096 0xd8-0xe0 (8)
0x000e0|00 10 00 00 00 00 00 00                        |........        |      align: 4096 0xe0-0xe8 (8)
       |                                               |                |      data: raw bits 0x2000-0x2000 (0)
       |                                               |                |    [3]{}: program_header 0xe8-0x2000 (7960)
0x000e0|                        01 00 00 00            |        ....    |      type: "load" (1) (Loadable segment) 0xe8-0xec (4)
       |                                               |                |      flags{}: 0xec-0xf0 (4)
0x000e0|                                    04         |            .   |        unused0: 0 0xec-0xec.5 (0.5)
0x000e0|                                    04         |            .   |        r: true 0xec.5-0xec.6 (0.1)
0x000e0|                                    04         |            .   |        w: false 0xec.6-0xec.7 (0.1)
0x000e0|                                    04         |            .   |        x: false 0xec.7-0xed (0.1)
0x000e0|                                       00 00 00|             ...|        unused1: 0 0xed-0xf0 (3)
0x000f0|00 20 00 00 00 00 00 00                        |. ......        |      offset: 0x2000 0xf0-0xf8 (8)
0x000f0|                        00 00 b3 29 6f 55 00 00|        ...)oU..|      vaddr: 0x556f29b30000 0xf8-0x100 (8)
0x00100|00 00 00 00 00 00 00 00                        |........        |      paddr: 0x0 0x100-0x108 (8)
0x00100|                        00 00 00 00 00 00 00 00|        ........|      filesz: 0 0x108-0x110 (8)
0x00110|00 10 00 00 00 00 00 00                        |........        |      memsz: 4096 0x110-0x118 (8)
0x00110|                        00 10 00 00 00 00 00 00|        ........|      align: 4096 0x118-0x120 (8)
       |                                               |                |      data: raw bits 0x2000-0x2000 (0)
       |                                               |                |    [4]{}: program_header 0x120-0x3000 (12000)
0x00120|01 00 00 00                                    |....            |      type: "load" (1) (Loadable segment) 0x120-0x124 (4)
       |                                               |                |      flags{}: 0x124-0x128 (4)
0x00120|            04                                 |    .           |        unused0: 0 0x124-0x124.5 (0.5)
0x00120|            04                                 |    .           |        r: true 0x124.5-0x124.6 (0.1)
0x00120|            04                                 |    .           |        w: false 0x124.6-0x124.7 (0.1)
0x00120|            04                                 |    .           |        x: false 0x124.7-0x125 (0.1)
0x00120|               00 00 00                        |     ...        |        unused1: 0 0x125-0x128 (3)
0x00120|                        00 20 00 00 00 00 00 00|        . ......|      offset: 0x2000 0x128-0x130 (8)
0x00130|00 10 b3 29 6f 55 00 00                        |...)oU..        |      vaddr: 0x556f29b31000 0x130-0x138 (8)
0x00130|                        00 00 00 00 00 00 00 00|        ........|      paddr: 0x0 0x138-0x140 (8)
0x00140|00 10 00 00 00 00 00 00                        |........        |      filesz: 4096 0x140-0x148 (8)
0x00140|                        00 10 00 00 00 00 00 00|        ........|      memsz: 4096 0x148-0x150 (8)
0x00150|00 10 00 00 00 00 00 00                        |........        |      align: 4096 0x150-0x158 (8)
0x02000|01 1b 03 3b 24 00 00 00 03 00 00 00 10 f0 ff ff|...;$...........|      data: raw bits 0x2000-0x3000 (4096)
*      |until 0x2fff.7 (4096)                          |                |
       |                                               |                |    [5]{}: program_header 0x158-0x4000 (16040)
0x00150|                        01 00 00 00            |        ....    |      type: "load" (1) (Loadable segment) 0x158-0x15c (4)
       |                                               |                |      flags{}: 0x15c-0x160 (4)
0x00150|                                    06         |            .   |        unused0: 0 0x15c-0x15c.5 (0.5)
0x00150|                                    06         |            .   |        r: true 0x15c.5-0x15c.6 (0.1)
0x00150|                                    06         |            .   |        w: true 0x15c.6-0x15c.7 (0.1)
0x00150|                                    06         |            .   |        x: false 0x15c.7-0x15d (0.1)
0x00150|                                       00 00 00|             ...|        unused1: 0 0x15d-0x160 (3)
0x00160|00 30 00 00 00 00 00 00                        |.0......        |      offset: 0x3000 0x160-0x168 (8)
0x00160|                        00 20 b3 29 6f 55 00 00|        . .)oU..|      vaddr: 0x556f29b32000 0x168-0x170 (8)
0x00170|00 00 00 00 00 00 00 00                        |........        |      paddr: 0x0 0x170-0x178 (8)
0x00170|                        00 10 00 00 00 00 00 00|        ........|      filesz: 4096 0x178-0x180 (8)
0x00180|00 10 00 00 00 00 00 00                        |........        |      memsz: 4096 0x180-0x188 (8)
0x00180|                        00 10 00 00 00 00 00 00|        ........|      align: 4096 0x188-0x190 (8)
0x03000|00 20 b3 29 6f 55 00 00 00 00 00 00 00 00 00 00|. .)oU..........|      data: raw bits 0x3000-0x4000 (4096)
*      |until 0x3fff.7 (4096)                          |                |
       |                                               |                |    [6]{}: program_header 0x190-0x4000 (15984)
0x00190|01 00 00 00                                    |....            |      type: "load" (1) (Loadable segment) 0x190-0x194 (4)
       |                                               |                |      flags{}: 0x194-0x198 (4)
0x00190|            00                                 |    .           |        unused0: 0 0x194-0x194.5 (0.5)
0x00190|            00                                 |    .           |        r: false 0x194.5-0x194.6 (0.1)
0x00190|            00                                 |    .           |        w: false 0x194.6-0x194.7 (0.1)
0x00190|            00                                 |    .           |        x: false 0x194.7-0x195 (0.1)
0x00190|               00 00 00                        |     ...        |        unused1: 0 0x195-0x198 (3)
0x00190|                        00 40 00 00 00 00 00 00|        .@......|      offset: 0x4000 0x198-0x1a0 (8)
0x001a0|00 20 02 2b 6f 55 00 00                        |. .+oU..        |      vaddr: 0x556f2b022000 0x1a0-0x1a8 (8)
0x001a0|                        00 00 00 00 00 00 00 00|        ........|      paddr: 0x0 0x1a8-0x1b0 (8)
0x001b0|00 00 00 00 00 00 00 00                        |........        |      filesz: 0 0x1b0-0x1b8 (8)
0x001b0|                        00 10 00 00 00 00 00 00|        ........|      memsz: 4096 0x1b8-0x1c0 (8)
0x001c0|00 10 00 00 00 00 00 00                        |........        |      align: 4096 0x1c0-0x1c8 (8)
       |                                               |                |      data: raw bits 0x4000-0x4000 (0)
       |                                               |                |    [7]{}: program_header 0x1c8-0x5000 (20024)
0x001c0|                        01 00 00 00            |        ....    |      type: "load" (1) (Loadable segment) 0x1c8-0x1cc (4)
       |                                               |                |      flags{}: 0x1cc-0x1d0 (4)
0x001c0|                                    06         |            .   |        unused0: 0 0x1cc-0x1cc.5 (0.5)
0x001c0|                                    06         |            .   |        r: true 0x1cc.5-0x1cc.6 (0.1)
0x001c0|                                    06         |            .   |        w: true 0x1cc.6-0x1cc.7 (0.1)
0x001c0|                                    06         |            .   |        x: false 0x1cc.7-0x1cd (0.1)
0x001c0|                                       00 00 00|             ...|        unused1: 0 0x1cd-0x1d0 (3)
0x001d0|00 40 00 00 00 00 00 00                        |.@......        |      offset: 0x4000 0x1d0-0x1d8 (8)
0x001d0|                        00 30 02 2b 6f 55 00 00|        .0.+oU..|      vaddr: 0x556f2b023000 0x1d8-0x1e0 (8)
0x001e0|00 00 00 00 00 00 00 00                        |........        |      paddr: 0x0 0x1e0-0x1e8 (8)
0x001e0|                        00 10 00 00 00 00 00 00|        ........|      filesz: 4096 0x1e8-0x1f0 (8)
0x001f0|00 10 00 00 00 00 00 00                        |........        |      memsz: 4096 0x1f0-0x1f8 (8)
0x001f0|                        00 10 00 00 00 00 00 00|        ........|      align: 4096 0x1f8-0x200 (8)
0x04000|ad 9b f8 6b d9 87 e7 ac 00 00 00 00 00 00 00 00|...k............|      data: raw bits 0x4000-0x5000 (4096)
*      |until 0x4fff.7 (4096)                          |                |
       |                                               |                |    [8]{}: program_header 0x200-0x5000 (19968)
0x00200|01 00 00 00                                    |....            |      type: "load" (1) (Loadable segment) 0x200-0x204 (4)
       |                                               |                |      flags{}: 0x204-0x208 (4)
0x00200|            04                                 |    .           |        unused0: 0 0x204-0x204.5 (0.5)
0x00200|            04                                 |    .           |        r: true 0x204.5-0x204.6 (0.1)
0x00200|            04                                 |    .           |        w: false 0x204.6-0x204.7 (0.1)
0x00200|            04                                 |    .           |        x: false 0x204.7-0x205 (0.1)
0x00200|               00 00 00                        |     ...        |        unused1: 0 0x205-0x208 (3)
0x00200|                        00 50 00 00 00 00 00 00|        .P......|      offset: 0x5000 0x208-0x210 (8)
0x00210|00 70 24 f4 bb 7f 00 00                        |.p$.....        |      vaddr: 0x7fbbf4247000 0x210-0x218 (8)
0x00210|                        00 00 00 00 00 00 00 00|        ........|      paddr: 0x0 0x218-0x220 (8)
0x00220|00 00 00 00 00 00 00 00                        |........        |      filesz: 0 0x220-0x228 (8)
0x00220|                        00 50 01 00 00 00 00 00|        .P......|      memsz: 86016 0x228-0x230 (8)
0x00230|00 10 00 00 00 00 00 00                        |........        |      align: 4096 0x230-0x238 (8)
       |                                               |                |      data: raw bits 0x5000-0x5000 (0)
       |                                               |                |    [9]{}: program_header 0x238-0x5000 (19912)
0x00230|                        01 00 00 00            |        ....    |      type: "load" (1) (Loadable segment) 0x238-0x23c (4)
       |                                               |                |      flags{}: 0x23c-0x240 (4)
0x00230|                                    05         |            .   |        unused0: 0 0x23c-0x23c.5 (0.5)
0x00230|                                    05         |            .   |        r: true 0x23c.5-0x23c.6 (0.1)
0x00230|                                    05         |            .   |        w: false 0x23c.6-0x23c.7 (0.1)
0x00230|                                    05         |            .   |        x: true 0x23c.7-0x23d (0.1)
0x00230|                                       00 00 00|             ...|        unused1: 0 0x23d-0x240 (3)
0x00240|00 50 00 00 00 00 00 00                        |.P......        |      offset: 0x5000 0x240-0x248 (8)
0x00240|                        00 c0 25 f4 bb 7f 00 00|        ..%.....|      vaddr: 0x7fbbf425c000 0x248-0x250 (8)
0x00250|00 00 00 00 00 00 00 00                        |........        |      paddr: 0x0 0x250-0x258 (8)
0x00250|                        00 00 00 00 00 00 00 00|        ........|      filesz: 0 0x258-0x260 (8)
0x00260|00 80 04 00 00 00 00 00                        |........        |      memsz: 294912 0x260-0x268 (8)
0x00260|                        00 10 00 00 00 00 00 00|        ........|      align: 4096 0x268-0x270 (8)
       |                                               |                |      data: raw bits 0x5000-0x5000 (0)
       |                                               |                |    [10]{}: program_header 0x270-0x5000 (19856)
0x00270|01 00 00 00                                    |....            |      type: "load" (1) (Loadable segment) 0x270-0x274 (4)
       |                                               |                |      flags{}: 0x274-0x278 (4)
0x00270|            04                                 |    .           |        unused0: 0 0x274-0x274.5 (0.5)
0x00270|            04                                 |    .           |        r: true 0x274.5-0x274.6 (0.1)
0x00270|            04                                 |    .           |        w: false 0x274.6-0x274.7 (0.1)
0x00270|            04                                 |    .           |        x: false 0x274.7-0x275 (0.1)
0x00270|               00 00 00                        |     ...        |        unused1: 0 0x275-0x278 (3)
0x00270|                        00 50 00 00 00 00 00 00|        .P......|      offset: 0x5000 0x278-0x280 (8)
0x00280|00 40 2a f4 bb 7f 00 00                        |.@*.....        |      vaddr: 0x7fbbf42a4000 0x280-0x288 (8)
0x00280|                        00 00 00 00 00 00 00 00|        ........|      paddr: 0x0 0x288-0x290 (8)
0x00290|00 00 00 00 00 00 00 00                        |........        |      filesz: 0 0x290-0x298 (8)
0x00290|                        00 60 03 00 00 00 00 00|        .`......|      memsz: 221184 0x298-0x2a0 (8)
0x002a0|00 10 00 00 00 00 00 00                        |........        |      align: 4096 0x2a0-0x2a8 (8)
       |                                               |                |      data: raw bits 0x5000-0x5000 (0)
       |                                               |                |    [11]{}: program_header 0x2a8-0x6000 (23896)
0x002a0|                        01 00 00 00            |        ....    |      type: "load" (1) (Loadable segment) 0x2a8-0x2ac (4)
       |                                               |                |      flags{}: 0x2ac-0x2b0 (4)
0x002a0|                                    04         |            .   |        unused0: 0 0x2ac-0x2ac.5 (0.5)
0x002a0|                                    04         |            .   |        r: true 0x2ac.5-0x2ac.6 (0.1)
0x002a0|                                    04         |            .   |        w: false 0x2ac.6-0x2ac.7 (0.1)
0x002a0|                                    04         |            .   |        x: false 0x2ac.7-0x2ad (0.1)
0x002a0|                                       00 00 00|             ...|        unused1: 0 0x2ad-0x2b0 (3)
0x002b0|00 50 00 00 00 00 00 00                        |.P......        |      offset: 0x5000 0x2b0-0x2b8 (8)
0x002b0|                        00 a0 2d f4 bb 7f 00 00|        ..-.....|      vaddr: 0x7fbbf42da000 0x2b8-0x2c0 (8)
0x002c0|00 00 00 00 00 00 00 00                        |........        |      paddr: 0x0 0x2c0-0x2c8 (8)
0x002c0|                        00 10 00 00 00 00 00 00|        ........|      filesz: 4096 0x2c8-0x2d0 (8)
0x002d0|00 10 00 00 00 00 00 00                        |........        |      memsz: 4096 0x2d0-0x2d8 (8)
0x002d0|                        00 10 00 00 00 00 00 00|        ........|      align: 4096 0x2d8-0x2e0 (8)
0x05000|53 74 61 74 65 20 6f 66 20 25 73 20 69 73 20 69|State of %s is i|      data: raw bits 0x5000-0x6000 (4096)
*      |until 0x5fff.7 (4096)                          |                |
       |                                               |                |    [12]{}: program_header 0x2e0-0x7000 (27936)
0x002e0|01 00 00 00                                    |....            |      type: "load" (1) (Loadable segment) 0x2e0-0x2e4 (4)
       |                                               |                |      flags{}: 0x2e4-0x2e8 (4)
0x002e0|            06                                 |    .           |        unused0: 0 0x2e4-0x2e4.5 (0.5)
0x002e0|            06                                 |    .           |        r: true 0x2e4.5-0x2e4.6 (0.1)
0x002e0|            06                                 |    .           |        w: true 0x2e4.6-0x2e4.7 (0.1)
0x002e0|            06                                 |    .           |        x: false 0x2e4.7-0x2e5 (0.1)
0x002e0|               00 00 00                        |     ...        |        unused1: 0 0x2e5-0x2e8 (3)
0x002e0|                        00 60 00 00 00 00 00 00|        .`......|      offset: 0x6000 0x2e8-0x2f0 (8)
0x002f0|00 b0 2d f4 bb 7f 00 00                        |..-.....        |      vaddr: 0x7fbbf42db000 0x2f0-0x2f8 (8)
0x002f0|                        00 00 00 00 00 00 00 00|        ........|      paddr: 0x0 0x2f8-0x300 (8)
0x00300|00 10 00 00 00 00 00 00                        |........        |      filesz: 4096 0x300-0x308 (8)
0x00300|                        00 10 00 00 00 00 00 00|        ........|      memsz: 4096 0x308-0x310 (8)
0x00310|00 10 00 00 00 00 00 00                        |........        |      align: 4096 0x310-0x318 (8)
0x06000|62 89 2d f4 bb 7f 00 00 68 89 2d f4 bb 7f 00 00|b.-.....h.-.....|      data: raw bits 0x6000-0x7000 (4096)
*      |until 0x6fff.7 (4096)                          |                |
       |                                               |                |    [13]{}: program_header 0x318-0xa000 (40168)
0x00310|                        01 00 00 00            |        ....    |      type: "load" (1) (Loadable segment) 0x318-0x31c (4)
       |                                               |                |      flags{}: 0x31c-0x320 (4)
0x00310|                                    06         |            .   |        unused0: 0 0x31c-0x31c.5 (0.5)
0x00310|                                    06         |            .   |        r: true 0x31c.5-0x31c.6 (0.1)
0x00310|                                    06         |            .   |        w: true 0x31c.6-0x31c.7 (0.1)
0x00310|                                    06         |            .   |        x: false 0x31c.7-0x31d (0.1)
0x00310|                                       00 00 00|             ...|        unused1: 0 0x31d-0x320 (3)
0x00320|00 70 00 00 00 00 00 00                        |.p......        |      offset: 0x7000 0x320-0x328 (8)
0x00320|                        00 c0 2d f4 bb 7f 00 00|        ..-.....|      vaddr: 0x7fbbf42dc000 0x328-0x330 (8)
0x00330|00 00 00 00 00 00 00 00                        |........        |      paddr: 0x0 0x330-0x338 (8)
0x00330|                        00 30 00 00 00 00 00 00|        .0......|      filesz: 12288 0x338-0x340 (8)
0x00340|00 30 00 00 00 00 00 00                        |.0......        |      memsz: 12288 0x340-0x348 (8)
0x00340|                        00 10 00 00 00 00 00 00|        ........|      align: 4096 0x348-0x350 (8)
0x07000|00 00 00 00 00 00 00 00 00 00 00 00 00 00 00 00|................|      data: raw bits 0x7000-0xa000 (12288)
*      |until 0x9fff.7 (12288)                         |                |
       |                                               |                |    [14]{}: program_header 0x350-0x2b000 (175280)
0x00350|01 00 00 00                                    |....            |      type: "load" (1) (Loadable segment) 0x350-0x354 (4)
       |                                               |                |      flags{}: 0x354-0x358 (4)
0x00350|            06                                 |    .           |        unused0: 0 0x354-0x354.5 (0.5)
0x00350|            06                                 |    .           |        r: true 0x354.5-0x354.6 (0.1)
0x00350|            06                                 |    .           |        w: true 0x354.6-0x354.7 (0.1)
0x00350|            06                                 |    .           |        x: false 0x354.7-0x355 (0.1)
0x00350|               00 00 00                        |     ...        |        unused1: 0 0x355-0x358 (3)
0x00350|                        00 a0 00 00 00 00 00 00|        ........|      offset: 0xa000 0x358-0x360 (8)
0x00360|00 e0 94 f2 fe 7f 00 00                        |........        |      vaddr: 0x7ffef294e000 0x360-0x368 (8)
0x00360|                        00 00 00 00 00 00 00 00|        ........|      paddr: 0x0 0x368-0x370 (8)
0x00370|00 10 02 00 00 00 00 00                        |........        |      filesz: 135168 0x370-0x378 (8)
0x00370|                        00 10 02 00 00 00 00 00|        ........|      memsz: 135168 0x378-0x380 (8)
0x00380|00 10 00 00 00 00 00 00                        |........        |      align: 4096 0x380-0x388 (8)
0x0a000|00 00 00 00 00 00 00 00 00 00 00 00 00 00 00 00|................|      data: raw bits 0xa000-0x2b000 (135168)
*      |until 0x2afff.7 (135168)                       |                |
       |                                               |                |    [15]{}: program_header 0x388-0x2f000 (191608)
0x00380|                        01 00 00 00            |        ....    |      type: "load" (1) (Loadable segment) 0x388-0x38c (4)
       |                                               |                |      flags{}: 0x38c-0x390 (4)
0x00380|                                    04         |            .   |        unused0: 0 0x38c-0x38c.5 (0.5)
0x00380|                                    04         |            .   |        r: true 0x38c.5-0x38c.6 (0.1)
0x00380|                                    04         |            .   |        w: false 0x38c.6-0x38c.7 (0.1)
0x00380|                                    04         |            .   |        x: false 0x38c.7-0x38d (0.1)
0x00380|                                       00 00 00|             ...|        unused1: 0 0x38d-0x390 (3)
0x00390|00 b0 02 00 00 00 00 00                        |........        |      offset: 0x2b000 0x390-0x398 (8)
0x00390|                        00 30 9a f2 fe 7f 00 00|        .0......|      vaddr: 0x7ffef29a3000 0x398-0x3a0 (8)
0x003a0|00 00 00 00 00 00 00 00                        |........        |      paddr: 0x0 0x3a0-0x3a8 (8)
0x003a0|                        00 40 00 00 00 00 00 00|        .@......|      filesz: 16384 0x3a8-0x3b0 (8)
0x003b0|00 40 00 00 00 00 00 00                        |.@......        |      memsz: 16384 0x3b0-0x3b8 (8)
0x003b0|                        00 10 00 00 00 00 00 00|        ........|      align: 4096 0x3b8-0x3c0 (8)
0x2b000|00 00 00 00 00 00 00 00 00 00 00 00 00 00 00 00|................|      data: raw bits 0x2b000-0x2f000 (16384)
*      |until 0x2efff.7 (16384)                        |                |
       |                                               |                |    [16]{}: program_header 0x3c0-0x31000 (199744)
0x003c0|01 00 00 00                                    |....            |      type: "load" (1) (Loadable segment) 0x3c0-0x3c4 (4)
       |                                               |                |      flags{}: 0x3c4-0x3c8 (4)
0x003c0|            05                                 |    .           |        unused0: 0 0x3c4-0x3c4.5 (0.5)
0x003c0|            05                                 |    .           |        r: true 0x3c4.5-0x3c4.6 (0.1)
0x003c0|            05                                 |    .           |        w: false 0x3c4.6-0x3c4.7 (0.1)
0x003c0|            05                                 |    .           |        x: true 0x3c4.7-0x3c5 (0.1)
0x003c0|               00 00 00                        |     ...        |        unused1: 0 0x3c5-0x3c8 (3)
0x003c0|                        00 f0 02 00 00 00 00 00|        ........|      offset: 0x2f000 0x3c8-0x3d0 (8)
0x003d0|00 70 9a f2 fe 7f 00 00                        |.p......        |      vaddr: 0x7ffef29a7000 0x3d0-0x3d8 (8)
0x003d0|                        00 00 00 00 00 00 00 00|        ........|      paddr: 0x0 0x3d8-0x3e0 (8)
0x003e0|00 20 00 00 00 00 00 00                        |. ......        |      filesz: 8192 0x3e0-0x3e8 (8)
0x003e0|                        00 20 00 00 00 00 00 00|        . ......|      memsz: 8192 0x3e8-0x3f0 (8)
0x003f0|00 10 00 00 00 00 00 00                        |........        |      align: 4096 0x3f0-0x3f8 (8)
0x2f000|7f 45 4c 46 02 01 01 00 00 00 00 00 00 00 00 00|.ELF............|      data: raw bits 0x2f000-0x31000 (8192)
*      |until 0x30fff.7 (8192)                         |                |
       |                                               |                |    [17]{}: program_header 0x3f8-0x32000 (203784)
0x003f0|                        01 00 00 00            |        ....    |      type: "load" (1) (Loadable segment) 0x3f8-0x3fc (4)
       |                                               |                |      flags{}: 0x3fc-0x400 (4)
0x003f0|                                    05         |            .   |        unused0: 0 0x3fc-0x3fc.5 (0.5)
0x003f0|                                    05         |            .   |        r: true 0x3fc.5-0x3fc.6 (0.1)
0x003f0|                                    05         |            .   |        w: false 0x3fc.6-0x3fc.7 (0.1)
0x003f0|                                    05         |            .   |        x: true 0x3fc.7-0x3fd (0.1)
0x003f0|                                       00 00 00|             ...|        unused1: 0 0x3fd-0x400 (3)
0x00400|00 10 03 00 00 00 00 00                        |........        |      offset: 0x31000 0x400-0x408 (8)
0x00400|                        00 00 60 ff ff ff ff ff|        ..`.....|      vaddr: 0xffffffffff600000 0x408-0x410 (8)
0x00410|00 00 00 00 00 00 00 00                        |........        |      paddr: 0x0 0x410-0x418 (8)
0x00410|                        00 10 00 00 00 00 00 00|        ........|      filesz: 4096 0x418-0x420 (8)
0x00420|00 10 00 00 00 00 00 00                        |........        |      memsz: 4096 0x420-0x428 (8)
0x00420|                        00 10 00 00 00 00 00 00|        ........|      align: 4096 0x428-0x430 (8)
0x31000|48 c7 c0 60 00 00 00 0f 05 c3 cc cc cc cc cc cc|H..`............|      data: raw bits 0x31000-0x32000 (4096)
*      |until 0x31fff.7 (end) (4096)                   |                |
       |                                               |                |  section_headers[0:0]: 0x430-0x430 (0)
0x01010|                        00 00 00 00 00 00 00 00|        ........|  gap0: raw bits 0x1018-0x2000 (4072)
0x01020|00 00 00 00 00 00 00 00 00 00 00 00 00 00 00 00|................|
*      |until 0x1fff.7 (4072)                          |                |
