$ fq -d elf dv coredump
       |00 01 02 03 04 05 06 07 08 09 0a 0b 0c 0d 0e 0f|0123456789abcdef|.{}: coredump (elf) 0x0-0x31fff.7 (204800)
       |                                               |                |  header{}: 0x0-0x3f.7 (64)
       |                                               |                |    ident{}: 0x0-0xf.7 (16)
0x00000|7f 45 4c 46                                    |.ELF            |      magic: raw bits (valid) 0x0-0x3.7 (4)
0x00000|            02                                 |    .           |      class: 64 (2) 0x4-0x4.7 (1)
0x00000|               01                              |     .          |      data: "little_endian" (1) 0x5-0x5.7 (1)
0x00000|                  01                           |      .         |      version: 1 0x6-0x6.7 (1)
0x00000|                     00                        |       .        |      os_abi: "sysv" (0) 0x7-0x7.7 (1)
0x00000|                        00                     |        .       |      abi_version: 0 0x8-0x8.7 (1)
0x00000|                           00 00 00 00 00 00 00|         .......|      pad: raw bits (all zero) 0x9-0xf.7 (7)
0x00010|04 00                                          |..              |    type: "core" (0x4) 0x10-0x11.7 (2)
0x00010|      3e 00                                    |  >.            |    machine: "x86_64" (0x3e) (AMD x86-64) 0x12-0x13.7 (2)
0x00010|            01 00 00 00                        |    ....        |    version: 1 0x14-0x17.7 (4)
0x00010|                        00 00 00 00 00 00 00 00|        ........|    entry: 0 0x18-0x1f.7 (8)
0x00020|40 00 00 00 00 00 00 00                        |@.......        |    phoff: 64 0x20-0x27.7 (8)
0x00020|                        00 00 00 00 00 00 00 00|        ........|    shoff: 0 0x28-0x2f.7 (8)
0x00030|00 00 00 00                                    |....            |    flags: 0 0x30-0x33.7 (4)
0x00030|            40 00                              |    @.          |    ehsize: 64 0x34-0x35.7 (2)
0x00030|                  38 00                        |      8.        |    phentsize: 56 0x36-0x37.7 (2)
0x00030|                        12 00                  |        ..      |    phnum: 18 0x38-0x39.7 (2)
0x00030|                              00 00            |          ..    |    shentsize: 0 0x3a-0x3b.7 (2)
0x00030|                                    00 00      |            ..  |    shnum: 0 0x3c-0x3d.7 (2)
0x00030|                                          00 00|              ..|    shstrndx: 0 0x3e-0x3f.7 (2)
       |                                               |                |  program_headers[0:18]: 0x40-0x31fff.7 (204736)
       |                                               |                |    [0]{}: program_header 0x40-0x1007.7 (4040)
0x00040|04 00 00 00                                    |....            |      type: "note" (4) (Auxiliary information) 0x40-0x43.7 (4)
       |                                               |                |      flags{}: 0x44-0x47.7 (4)
0x00040|            00                                 |    .           |        unused0: 0 0x44-0x44.4 (0.5)
0x00040|            00                                 |    .           |        r: false 0x44.5-0x44.5 (0.1)
0x00040|            00                                 |    .           |        w: false 0x44.6-0x44.6 (0.1)
0x00040|            00                                 |    .           |        x: false 0x44.7-0x44.7 (0.1)
0x00040|               00 00 00                        |     ...        |        unused1: 0 0x45-0x47.7 (3)
0x00040|                        30 04 00 00 00 00 00 00|        0.......|      offset: 0x430 0x48-0x4f.7 (8)
0x00050|00 00 00 00 00 00 00 00                        |........        |      vaddr: 0x0 0x50-0x57.7 (8)
0x00050|                        00 00 00 00 00 00 00 00|        ........|      paddr: 0x0 0x58-0x5f.7 (8)
0x00060|d8 0b 00 00 00 00 00 00                        |........        |      filesz: 3032 0x60-0x67.7 (8)
0x00060|                        00 00 00 00 00 00 00 00|        ........|      memsz: 0 0x68-0x6f.7 (8)
0x00070|00 00 00 00 00 00 00 00                        |........        |      align: 0 0x70-0x77.7 (8)
       |                                               |                |      notes[0:7]: 0x430-0x1007.7 (3032)
       |                                               |                |        [0]{}: note 0x430-0x593.7 (356)
0x00430|05 00 00 00                                    |....            |          n_namesz: 5 0x430-0x433.7 (4)
0x00430|            50 01 00 00                        |    P...        |          n_descsz: 336 0x434-0x437.7 (4)
0x00430|                        01 00 00 00            |        ....    |          n_type: "prstatus" (0x1) 0x438-0x43b.7 (4)
0x00430|                                    43 4f 52 45|            CORE|          name: "CORE" 0x43c-0x440.7 (5)
0x00440|00                                             |.               |
0x00440|   00 00 00                                    | ...            |          name_align: raw bits 0x441-0x443.7 (3)
0x00440|            0b 00 00 00 00 00 00 00 00 00 00 00|    ............|          desc: raw bits 0x444-0x593.7 (336)
0x00450|0b 00 00 00 00 00 00 00 00 00 00 00 00 00 00 00|................|
*      |until 0x593.7 (336)                            |                |
       |                                               |                |        [1]{}: note 0x594-0x62f.7 (156)
0x00590|            05 00 00 00                        |    ....        |          n_namesz: 5 0x594-0x597.7 (4)
0x00590|                        88 00 00 00            |        ....    |          n_descsz: 136 0x598-0x59b.7 (4)
0x00590|                                    03 00 00 00|            ....|          n_type: "prpsinfo" (0x3) 0x59c-0x59f.7 (4)
0x005a0|43 4f 52 45 00                                 |CORE.           |          name: "CORE" 0x5a0-0x5a4.7 (5)
0x005a0|               00 00 00                        |     ...        |          name_align: raw bits 0x5a5-0x5a7.7 (3)
0x005a0|                        00 52 00 00 00 00 00 00|        .R......|          desc: raw bits 0x5a8-0x62f.7 (136)
0x005b0|00 06 40 00 00 00 00 00 00 00 00 00 00 00 00 00|..@.............|
*      |until 0x62f.7 (136)                            |                |
       |                                               |                |        [2]{}: note 0x630-0x6c3.7 (148)
0x00630|05 00 00 00                                    |....            |          n_namesz: 5 0x630-0x633.7 (4)
0x00630|            80 00 00 00                        |    ....        |          n_descsz: 128 0x634-0x637.7 (4)
0x00630|                        49 47 49 53            |        IGIS    |          n_type: "siginfo" (0x53494749) (Signal info) 0x638-0x63b.7 (4)
0x00630|                                    43 4f 52 45|            CORE|          name: "CORE" 0x63c-0x640.7 (5)
0x00640|00                                             |.               |
0x00640|   00 00 00                                    | ...            |          name_align: raw bits 0x641-0x643.7 (3)
0x00640|            0b 00 00 00 00 00 00 00 01 00 00 00|    ............|          desc: raw bits 0x644-0x6c3.7 (128)
0x00650|00 00 00 00 44 33 22 11 00 00 00 00 00 00 00 00|....D3".........|
*      |until 0x6c3.7 (128)                            |                |
       |                                               |                |        [3]{}: note 0x6c4-0x817.7 (340)
0x006c0|            05 00 00 00                        |    ....        |          n_namesz: 5 0x6c4-0x6c7.7 (4)
0x006c0|                        40 01 00 00            |        @...    |          n_descsz: 320 0x6c8-0x6cb.7 (4)
0x006c0|                                    06 00 00 00|            ....|          n_type: "auxv" (0x6) 0x6cc-0x6cf.7 (4)
0x006d0|43 4f 52 45 00                                 |CORE.           |          name: "CORE" 0x6d0-0x6d4.7 (5)
0x006d0|               00 00 00                        |     ...        |          name_align: raw bits 0x6d5-0x6d7.7 (3)
0x006d0|                        21 00 00 00 00 00 00 00|        !.......|          desc: raw bits 0x6d8-0x817.7 (320)
0x006e0|00 c0 87 9e fe 7f 00 00 10 00 00 00 00 00 00 00|................|
*      |until 0x817.7 (320)                            |                |
       |                                               |                |        [4]{}: note 0x818-0xa9f.7 (648)
0x00810|                        05 00 00 00            |        ....    |          n_namesz: 5 0x818-0x81b.7 (4)
0x00810|                                    72 02 00 00|            r...|          n_descsz: 626 0x81c-0x81f.7 (4)
0x00820|45 4c 49 46                                    |ELIF            |          n_type: "file" (0x46494c45) (File info) 0x820-0x823.7 (4)
0x00820|            43 4f 52 45 00                     |    CORE.       |          name: "CORE" 0x824-0x828.7 (5)
0x00820|                           00 00 00            |         ...    |          name_align: raw bits 0x829-0x82b.7 (3)
0x00820|                                    0a 00 00 00|            ....|          desc: raw bits 0x82c-0xa9d.7 (626)
0x00830|00 00 00 00 00 10 00 00 00 00 00 00 00 c0 63 e6|..............c.|
*      |until 0xa9d.7 (626)                            |                |
0x00a90|                                          00 00|              ..|          decs_align: raw bits 0xa9e-0xa9f.7 (2)
       |                                               |                |        [5]{}: note 0xaa0-0xcb3.7 (532)
0x00aa0|05 00 00 00                                    |....            |          n_namesz: 5 0xaa0-0xaa3.7 (4)
0x00aa0|            00 02 00 00                        |    ....        |          n_descsz: 512 0xaa4-0xaa7.7 (4)
0x00aa0|                        02 00 00 00            |        ....    |          n_type: "prfpreg" (0x2) 0xaa8-0xaab.7 (4)
0x00aa0|                                    43 4f 52 45|            CORE|          name: "CORE" 0xaac-0xab0.7 (5)
0x00ab0|00                                             |.               |
0x00ab0|   00 00 00                                    | ...            |          name_align: raw bits 0xab1-0xab3.7 (3)
0x00ab0|            7f 03 00 00 00 00 00 00 00 00 00 00|    ............|          desc: raw bits 0xab4-0xcb3.7 (512)
0x00ac0|00 00 00 00 00 00 00 00 00 00 00 00 80 1f 00 00|................|
*      |until 0xcb3.7 (512)                            |                |
       |                                               |                |        [6]{}: note 0xcb4-0x1007.7 (852)
0x00cb0|            06 00 00 00                        |    ....        |          n_namesz: 6 0xcb4-0xcb7.7 (4)
0x00cb0|                        40 03 00 00            |        @...    |          n_descsz: 832 0xcb8-0xcbb.7 (4)
0x00cb0|                                    02 02 00 00|            ....|          n_type: "x86_xstate" (0x202) (x86 extended state using xsave) 0xcbc-0xcbf.7 (4)
0x00cc0|4c 49 4e 55 58 00                              |LINUX.          |          name: "LINUX" 0xcc0-0xcc5.7 (6)
0x00cc0|                  00 00                        |      ..        |          name_align: raw bits 0xcc6-0xcc7.7 (2)
0x00cc0|                        7f 03 00 00 00 00 00 00|        ........|          desc: raw bits 0xcc8-0x1007.7 (832)
0x00cd0|00 00 00 00 00 00 00 00 00 00 00 00 00 00 00 00|................|
*      |until 0x1007.7 (832)                           |                |
       |                                               |                |    [1]{}: program_header 0x78-0x1fff.7 (8072)
0x00070|                        01 00 00 00            |        ....    |      type: "load" (1) (Loadable segment) 0x78-0x7b.7 (4)
       |                                               |                |      flags{}: 0x7c-0x7f.7 (4)
0x00070|                                    04         |            .   |        unused0: 0 0x7c-0x7c.4 (0.5)
0x00070|                                    04         |            .   |        r: true 0x7c.5-0x7c.5 (0.1)
0x00070|                                    04         |            .   |        w: false 0x7c.6-0x7c.6 (0.1)
0x00070|                                    04         |            .   |        x: false 0x7c.7-0x7c.7 (0.1)
0x00070|                                       00 00 00|             ...|        unused1: 0 0x7d-0x7f.7 (3)
0x00080|00 20 00 00 00 00 00 00                        |. ......        |      offset: 0x2000 0x80-0x87.7 (8)
0x00080|                        00 c0 63 e6 e9 55 00 00|        ..c..U..|      vaddr: 0x55e9e663c000 0x88-0x8f.7 (8)
0x00090|00 00 00 00 00 00 00 00                        |........        |      paddr: 0x0 0x90-0x97.7 (8)
0x00090|                        00 00 00 00 00 00 00 00|        ........|      filesz: 0 0x98-0x9f.7 (8)
0x000a0|00 10 00 00 00 00 00 00                        |........        |      memsz: 4096 0xa0-0xa7.7 (8)
0x000a0|                        00 10 00 00 00 00 00 00|        ........|      align: 4096 0xa8-0xaf.7 (8)
       |                                               |                |      data: raw bits 0x2000-NA (0)
       |                                               |                |    [2]{}: program_header 0xb0-0x1fff.7 (8016)
0x000b0|01 00 00 00                                    |....            |      type: "load" (1) (Loadable segment) 0xb0-0xb3.7 (4)
       |                                               |                |      flags{}: 0xb4-0xb7.7 (4)
0x000b0|            05                                 |    .           |        unused0: 0 0xb4-0xb4.4 (0.5)
0x000b0|            05                                 |    .           |        r: true 0xb4.5-0xb4.5 (0.1)
0x000b0|            05                                 |    .           |        w: false 0xb4.6-0xb4.6 (0.1)
0x000b0|            05                                 |    .           |        x: true 0xb4.7-0xb4.7 (0.1)
0x000b0|               00 00 00                        |     ...        |        unused1: 0 0xb5-0xb7.7 (3)
0x000b0|                        00 20 00 00 00 00 00 00|        . ......|      offset: 0x2000 0xb8-0xbf.7 (8)
0x000c0|00 d0 63 e6 e9 55 00 00                        |..c..U..        |      vaddr: 0x55e9e663d000 0xc0-0xc7.7 (8)
0x000c0|                        00 00 00 00 00 00 00 00|        ........|      paddr: 0x0 0xc8-0xcf.7 (8)
0x000d0|00 00 00 00 00 00 00 00                        |........        |      filesz: 0 0xd0-0xd7.7 (8)
0x000d0|                        00 10 00 00 00 00 00 00|        ........|      memsz: 4096 0xd8-0xdf.7 (8)
0x000e0|00 10 00 00 00 00 00 00                        |........        |      align: 4096 0xe0-0xe7.7 (8)
       |                                               |                |      data: raw bits 0x2000-NA (0)
       |                                               |                |    [3]{}: program_header 0xe8-0x1fff.7 (7960)
0x000e0|                        01 00 00 00            |        ....    |      type: "load" (1) (Loadable segment) 0xe8-0xeb.7 (4)
       |                                               |                |      flags{}: 0xec-0xef.7 (4)
0x000e0|                                    04         |            .   |        unused0: 0 0xec-0xec.4 (0.5)
0x000e0|                                    04         |            .   |        r: true 0xec.5-0xec.5 (0.1)
0x000e0|                                    04         |            .   |        w: false 0xec.6-0xec.6 (0.1)
0x000e0|                                    04         |            .   |        x: false 0xec.7-0xec.7 (0.1)
0x000e0|                                       00 00 00|             ...|        unused1: 0 0xed-0xef.7 (3)
0x000f0|00 20 00 00 00 00 00 00                        |. ......        |      offset: 0x2000 0xf0-0xf7.7 (8)
0x000f0|                        00 e0 63 e6 e9 55 00 00|        ..c..U..|      vaddr: 0x55e9e663e000 0xf8-0xff.7 (8)
0x00100|00 00 00 00 00 00 00 00                        |........        |      paddr: 0x0 0x100-0x107.7 (8)
0x00100|                        00 00 00 00 00 00 00 00|        ........|      filesz: 0 0x108-0x10f.7 (8)
0x00110|00 10 00 00 00 00 00 00                        |........        |      memsz: 4096 0x110-0x117.7 (8)
0x00110|                        00 10 00 00 00 00 00 00|        ........|      align: 4096 0x118-0x11f.7 (8)
       |                                               |                |      data: raw bits 0x2000-NA (0)
       |                                               |                |    [4]{}: program_header 0x120-0x2fff.7 (12000)
0x00120|01 00 00 00                                    |....            |      type: "load" (1) (Loadable segment) 0x120-0x123.7 (4)
       |                                               |                |      flags{}: 0x124-0x127.7 (4)
0x00120|            04                                 |    .           |        unused0: 0 0x124-0x124.4 (0.5)
0x00120|            04                                 |    .           |        r: true 0x124.5-0x124.5 (0.1)
0x00120|            04                                 |    .           |        w: false 0x124.6-0x124.6 (0.1)
0x00120|            04                                 |    .           |        x: false 0x124.7-0x124.7 (0.1)
0x00120|               00 00 00                        |     ...        |        unused1: 0 0x125-0x127.7 (3)
0x00120|                        00 20 00 00 00 00 00 00|        . ......|      offset: 0x2000 0x128-0x12f.7 (8)
0x00130|00 f0 63 e6 e9 55 00 00                        |..c..U..        |      vaddr: 0x55e9e663f000 0x130-0x137.7 (8)
0x00130|                        00 00 00 00 00 00 00 00|        ........|      paddr: 0x0 0x138-0x13f.7 (8)
0x00140|00 10 00 00 00 00 00 00                        |........        |      filesz: 4096 0x140-0x147.7 (8)
0x00140|                        00 10 00 00 00 00 00 00|        ........|      memsz: 4096 0x148-0x14f.7 (8)
0x00150|00 10 00 00 00 00 00 00                        |........        |      align: 4096 0x150-0x157.7 (8)
0x02000|01 1b 03 3b 24 00 00 00 03 00 00 00 10 f0 ff ff|...;$...........|      data: raw bits 0x2000-0x2fff.7 (4096)
*      |until 0x2fff.7 (4096)                          |                |
       |                                               |                |    [5]{}: program_header 0x158-0x3fff.7 (16040)
0x00150|                        01 00 00 00            |        ....    |      type: "load" (1) (Loadable segment) 0x158-0x15b.7 (4)
       |                                               |                |      flags{}: 0x15c-0x15f.7 (4)
0x00150|                                    06         |            .   |        unused0: 0 0x15c-0x15c.4 (0.5)
0x00150|                                    06         |            .   |        r: true 0x15c.5-0x15c.5 (0.1)
0x00150|                                    06         |            .   |        w: true 0x15c.6-0x15c.6 (0.1)
0x00150|                                    06         |            .   |        x: false 0x15c.7-0x15c.7 (0.1)
0x00150|                                       00 00 00|             ...|        unused1: 0 0x15d-0x15f.7 (3)
0x00160|00 30 00 00 00 00 00 00                        |.0......        |      offset: 0x3000 0x160-0x167.7 (8)
0x00160|                        00 00 64 e6 e9 55 00 00|        ..d..U..|      vaddr: 0x55e9e6640000 0x168-0x16f.7 (8)
0x00170|00 00 00 00 00 00 00 00                        |........        |      paddr: 0x0 0x170-0x177.7 (8)
0x00170|                        00 10 00 00 00 00 00 00|        ........|      filesz: 4096 0x178-0x17f.7 (8)
0x00180|00 10 00 00 00 00 00 00                        |........        |      memsz: 4096 0x180-0x187.7 (8)
0x00180|                        00 10 00 00 00 00 00 00|        ........|      align: 4096 0x188-0x18f.7 (8)
0x03000|00 00 64 e6 e9 55 00 00 00 00 00 00 00 00 00 00|..d..U..........|      data: raw bits 0x3000-0x3fff.7 (4096)
*      |until 0x3fff.7 (4096)                          |                |
       |                                               |                |    [6]{}: program_header 0x190-0x3fff.7 (15984)
0x00190|01 00 00 00                                    |....            |      type: "load" (1) (Loadable segment) 0x190-0x193.7 (4)
       |                                               |                |      flags{}: 0x194-0x197.7 (4)
0x00190|            00                                 |    .           |        unused0: 0 0x194-0x194.4 (0.5)
0x00190|            00                                 |    .           |        r: false 0x194.5-0x194.5 (0.1)
0x00190|            00                                 |    .           |        w: false 0x194.6-0x194.6 (0.1)
0x00190|            00                                 |    .           |        x: false 0x194.7-0x194.7 (0.1)
0x00190|               00 00 00                        |     ...        |        unused1: 0 0x195-0x197.7 (3)
0x00190|                        00 40 00 00 00 00 00 00|        .@......|      offset: 0x4000 0x198-0x19f.7 (8)
0x001a0|00 00 5f e7 e9 55 00 00                        |.._..U..        |      vaddr: 0x55e9e75f0000 0x1a0-0x1a7.7 (8)
0x001a0|                        00 00 00 00 00 00 00 00|        ........|      paddr: 0x0 0x1a8-0x1af.7 (8)
0x001b0|00 00 00 00 00 00 00 00                        |........        |      filesz: 0 0x1b0-0x1b7.7 (8)
0x001b0|                        00 10 00 00 00 00 00 00|        ........|      memsz: 4096 0x1b8-0x1bf.7 (8)
0x001c0|00 10 00 00 00 00 00 00                        |........        |      align: 4096 0x1c0-0x1c7.7 (8)
       |                                               |                |      data: raw bits 0x4000-NA (0)
       |                                               |                |    [7]{}: program_header 0x1c8-0x4fff.7 (20024)
0x001c0|                        01 00 00 00            |        ....    |      type: "load" (1) (Loadable segment) 0x1c8-0x1cb.7 (4)
       |                                               |                |      flags{}: 0x1cc-0x1cf.7 (4)
0x001c0|                                    06         |            .   |        unused0: 0 0x1cc-0x1cc.4 (0.5)
0x001c0|                                    06         |            .   |        r: true 0x1cc.5-0x1cc.5 (0.1)
0x001c0|                                    06         |            .   |        w: true 0x1cc.6-0x1cc.6 (0.1)
0x001c0|                                    06         |            .   |        x: false 0x1cc.7-0x1cc.7 (0.1)
0x001c0|                                       00 00 00|             ...|        unused1: 0 0x1cd-0x1cf.7 (3)
0x001d0|00 40 00 00 00 00 00 00                        |.@......        |      offset: 0x4000 0x1d0-0x1d7.7 (8)
0x001d0|                        00 10 5f e7 e9 55 00 00|        .._..U..|      vaddr: 0x55e9e75f1000 0x1d8-0x1df.7 (8)
0x001e0|00 00 00 00 00 00 00 00                        |........        |      paddr: 0x0 0x1e0-0x1e7.7 (8)
0x001e0|                        00 10 00 00 00 00 00 00|        ........|      filesz: 4096 0x1e8-0x1ef.7 (8)
0x001f0|00 10 00 00 00 00 00 00                        |........        |      memsz: 4096 0x1f0-0x1f7.7 (8)
0x001f0|                        00 10 00 00 00 00 00 00|        ........|      align: 4096 0x1f8-0x1ff.7 (8)
0x04000|e2 14 cb 78 67 54 a6 56 00 00 00 00 00 00 00 00|...xgT.V........|      data: raw bits 0x4000-0x4fff.7 (4096)
*      |until 0x4fff.7 (4096)                          |                |
       |                                               |                |    [8]{}: program_header 0x200-0x4fff.7 (19968)
0x00200|01 00 00 00                                    |....            |      type: "load" (1) (Loadable segment) 0x200-0x203.7 (4)
       |                                               |                |      flags{}: 0x204-0x207.7 (4)
0x00200|            04                                 |    .           |        unused0: 0 0x204-0x204.4 (0.5)
0x00200|            04                                 |    .           |        r: true 0x204.5-0x204.5 (0.1)
0x00200|            04                                 |    .           |        w: false 0x204.6-0x204.6 (0.1)
0x00200|            04                                 |    .           |        x: false 0x204.7-0x204.7 (0.1)
0x00200|               00 00 00                        |     ...        |        unused1: 0 0x205-0x207.7 (3)
0x00200|                        00 50 00 00 00 00 00 00|        .P......|      offset: 0x5000 0x208-0x20f.7 (8)
0x00210|00 10 25 0a 2e 7f 00 00                        |..%.....        |      vaddr: 0x7f2e0a251000 0x210-0x217.7 (8)
0x00210|                        00 00 00 00 00 00 00 00|        ........|      paddr: 0x0 0x218-0x21f.7 (8)
0x00220|00 00 00 00 00 00 00 00                        |........        |      filesz: 0 0x220-0x227.7 (8)
0x00220|                        00 50 01 00 00 00 00 00|        .P......|      memsz: 86016 0x228-0x22f.7 (8)
0x00230|00 10 00 00 00 00 00 00                        |........        |      align: 4096 0x230-0x237.7 (8)
       |                                               |                |      data: raw bits 0x5000-NA (0)
       |                                               |                |    [9]{}: program_header 0x238-0x4fff.7 (19912)
0x00230|                        01 00 00 00            |        ....    |      type: "load" (1) (Loadable segment) 0x238-0x23b.7 (4)
       |                                               |                |      flags{}: 0x23c-0x23f.7 (4)
0x00230|                                    05         |            .   |        unused0: 0 0x23c-0x23c.4 (0.5)
0x00230|                                    05         |            .   |        r: true 0x23c.5-0x23c.5 (0.1)
0x00230|                                    05         |            .   |        w: false 0x23c.6-0x23c.6 (0.1)
0x00230|                                    05         |            .   |        x: true 0x23c.7-0x23c.7 (0.1)
0x00230|                                       00 00 00|             ...|        unused1: 0 0x23d-0x23f.7 (3)
0x00240|00 50 00 00 00 00 00 00                        |.P......        |      offset: 0x5000 0x240-0x247.7 (8)
0x00240|                        00 60 26 0a 2e 7f 00 00|        .`&.....|      vaddr: 0x7f2e0a266000 0x248-0x24f.7 (8)
0x00250|00 00 00 00 00 00 00 00                        |........        |      paddr: 0x0 0x250-0x257.7 (8)
0x00250|                        00 00 00 00 00 00 00 00|        ........|      filesz: 0 0x258-0x25f.7 (8)
0x00260|00 80 04 00 00 00 00 00                        |........        |      memsz: 294912 0x260-0x267.7 (8)
0x00260|                        00 10 00 00 00 00 00 00|        ........|      align: 4096 0x268-0x26f.7 (8)
       |                                               |                |      data: raw bits 0x5000-NA (0)
       |                                               |                |    [10]{}: program_header 0x270-0x4fff.7 (19856)
0x00270|01 00 00 00                                    |....            |      type: "load" (1) (Loadable segment) 0x270-0x273.7 (4)
       |                                               |                |      flags{}: 0x274-0x277.7 (4)
0x00270|            04                                 |    .           |        unused0: 0 0x274-0x274.4 (0.5)
0x00270|            04                                 |    .           |        r: true 0x274.5-0x274.5 (0.1)
0x00270|            04                                 |    .           |        w: false 0x274.6-0x274.6 (0.1)
0x00270|            04                                 |    .           |        x: false 0x274.7-0x274.7 (0.1)
0x00270|               00 00 00                        |     ...        |        unused1: 0 0x275-0x277.7 (3)
0x00270|                        00 50 00 00 00 00 00 00|        .P......|      offset: 0x5000 0x278-0x27f.7 (8)
0x00280|00 e0 2a 0a 2e 7f 00 00                        |..*.....        |      vaddr: 0x7f2e0a2ae000 0x280-0x287.7 (8)
0x00280|                        00 00 00 00 00 00 00 00|        ........|      paddr: 0x0 0x288-0x28f.7 (8)
0x00290|00 00 00 00 00 00 00 00                        |........        |      filesz: 0 0x290-0x297.7 (8)
0x00290|                        00 60 03 00 00 00 00 00|        .`......|      memsz: 221184 0x298-0x29f.7 (8)
0x002a0|00 10 00 00 00 00 00 00                        |........        |      align: 4096 0x2a0-0x2a7.7 (8)
       |                                               |                |      data: raw bits 0x5000-NA (0)
       |                                               |                |    [11]{}: program_header 0x2a8-0x5fff.7 (23896)
0x002a0|                        01 00 00 00            |        ....    |      type: "load" (1) (Loadable segment) 0x2a8-0x2ab.7 (4)
       |                                               |                |      flags{}: 0x2ac-0x2af.7 (4)
0x002a0|                                    04         |            .   |        unused0: 0 0x2ac-0x2ac.4 (0.5)
0x002a0|                                    04         |            .   |        r: true 0x2ac.5-0x2ac.5 (0.1)
0x002a0|                                    04         |            .   |        w: false 0x2ac.6-0x2ac.6 (0.1)
0x002a0|                                    04         |            .   |        x: false 0x2ac.7-0x2ac.7 (0.1)
0x002a0|                                       00 00 00|             ...|        unused1: 0 0x2ad-0x2af.7 (3)
0x002b0|00 50 00 00 00 00 00 00                        |.P......        |      offset: 0x5000 0x2b0-0x2b7.7 (8)
0x002b0|                        00 40 2e 0a 2e 7f 00 00|        .@......|      vaddr: 0x7f2e0a2e4000 0x2b8-0x2bf.7 (8)
0x002c0|00 00 00 00 00 00 00 00                        |........        |      paddr: 0x0 0x2c0-0x2c7.7 (8)
0x002c0|                        00 10 00 00 00 00 00 00|        ........|      filesz: 4096 0x2c8-0x2cf.7 (8)
0x002d0|00 10 00 00 00 00 00 00                        |........        |      memsz: 4096 0x2d0-0x2d7.7 (8)
0x002d0|                        00 10 00 00 00 00 00 00|        ........|      align: 4096 0x2d8-0x2df.7 (8)
0x05000|66 2f 65 78 65 00 25 2e 2a 73 2f 65 74 63 2f 6c|f/exe.%.*s/etc/l|      data: raw bits 0x5000-0x5fff.7 (4096)
*      |until 0x5fff.7 (4096)                          |                |
       |                                               |                |    [12]{}: program_header 0x2e0-0x6fff.7 (27936)
0x002e0|01 00 00 00                                    |....            |      type: "load" (1) (Loadable segment) 0x2e0-0x2e3.7 (4)
       |                                               |                |      flags{}: 0x2e4-0x2e7.7 (4)
0x002e0|            06                                 |    .           |        unused0: 0 0x2e4-0x2e4.4 (0.5)
0x002e0|            06                                 |    .           |        r: true 0x2e4.5-0x2e4.5 (0.1)
0x002e0|            06                                 |    .           |        w: true 0x2e4.6-0x2e4.6 (0.1)
0x002e0|            06                                 |    .           |        x: false 0x2e4.7-0x2e4.7 (0.1)
0x002e0|               00 00 00                        |     ...        |        unused1: 0 0x2e5-0x2e7.7 (3)
0x002e0|                        00 60 00 00 00 00 00 00|        .`......|      offset: 0x6000 0x2e8-0x2ef.7 (8)
0x002f0|00 50 2e 0a 2e 7f 00 00                        |.P......        |      vaddr: 0x7f2e0a2e5000 0x2f0-0x2f7.7 (8)
0x002f0|                        00 00 00 00 00 00 00 00|        ........|      paddr: 0x0 0x2f8-0x2ff.7 (8)
0x00300|00 10 00 00 00 00 00 00                        |........        |      filesz: 4096 0x300-0x307.7 (8)
0x00300|                        00 10 00 00 00 00 00 00|        ........|      memsz: 4096 0x308-0x30f.7 (8)
0x00310|00 10 00 00 00 00 00 00                        |........        |      align: 4096 0x310-0x317.7 (8)
0x06000|ca 28 2e 0a 2e 7f 00 00 d0 28 2e 0a 2e 7f 00 00|.(.......(......|      data: raw bits 0x6000-0x6fff.7 (4096)
*      |until 0x6fff.7 (4096)                          |                |
       |                                               |                |    [13]{}: program_header 0x318-0x9fff.7 (40168)
0x00310|                        01 00 00 00            |        ....    |      type: "load" (1) (Loadable segment) 0x318-0x31b.7 (4)
       |                                               |                |      flags{}: 0x31c-0x31f.7 (4)
0x00310|                                    06         |            .   |        unused0: 0 0x31c-0x31c.4 (0.5)
0x00310|                                    06         |            .   |        r: true 0x31c.5-0x31c.5 (0.1)
0x00310|                                    06         |            .   |        w: true 0x31c.6-0x31c.6 (0.1)
0x00310|                                    06         |            .   |        x: false 0x31c.7-0x31c.7 (0.1)
0x00310|                                       00 00 00|             ...|        unused1: 0 0x31d-0x31f.7 (3)
0x00320|00 70 00 00 00 00 00 00                        |.p......        |      offset: 0x7000 0x320-0x327.7 (8)
0x00320|                        00 60 2e 0a 2e 7f 00 00|        .`......|      vaddr: 0x7f2e0a2e6000 0x328-0x32f.7 (8)
0x00330|00 00 00 00 00 00 00 00                        |........        |      paddr: 0x0 0x330-0x337.7 (8)
0x00330|                        00 30 00 00 00 00 00 00|        .0......|      filesz: 12288 0x338-0x33f.7 (8)
0x00340|00 30 00 00 00 00 00 00                        |.0......        |      memsz: 12288 0x340-0x347.7 (8)
0x00340|                        00 10 00 00 00 00 00 00|        ........|      align: 4096 0x348-0x34f.7 (8)
0x07000|00 00 00 00 00 00 00 00 00 00 00 00 00 00 00 00|................|      data: raw bits 0x7000-0x9fff.7 (12288)
*      |until 0x9fff.7 (12288)                         |                |
       |                                               |                |    [14]{}: program_header 0x350-0x2afff.7 (175280)
0x00350|01 00 00 00                                    |....            |      type: "load" (1) (Loadable segment) 0x350-0x353.7 (4)
       |                                               |                |      flags{}: 0x354-0x357.7 (4)
0x00350|            06                                 |    .           |        unused0: 0 0x354-0x354.4 (0.5)
0x00350|            06                                 |    .           |        r: true 0x354.5-0x354.5 (0.1)
0x00350|            06                                 |    .           |        w: true 0x354.6-0x354.6 (0.1)
0x00350|            06                                 |    .           |        x: false 0x354.7-0x354.7 (0.1)
0x00350|               00 00 00                        |     ...        |        unused1: 0 0x355-0x357.7 (3)
0x00350|                        00 a0 00 00 00 00 00 00|        ........|      offset: 0xa000 0x358-0x35f.7 (8)
0x00360|00 20 7e 9e fe 7f 00 00                        |. ~.....        |      vaddr: 0x7ffe9e7e2000 0x360-0x367.7 (8)
0x00360|                        00 00 00 00 00 00 00 00|        ........|      paddr: 0x0 0x368-0x36f.7 (8)
0x00370|00 10 02 00 00 00 00 00                        |........        |      filesz: 135168 0x370-0x377.7 (8)
0x00370|                        00 10 02 00 00 00 00 00|        ........|      memsz: 135168 0x378-0x37f.7 (8)
0x00380|00 10 00 00 00 00 00 00                        |........        |      align: 4096 0x380-0x387.7 (8)
0x0a000|00 00 00 00 00 00 00 00 00 00 00 00 00 00 00 00|................|      data: raw bits 0xa000-0x2afff.7 (135168)
*      |until 0x2afff.7 (135168)                       |                |
       |                                               |                |    [15]{}: program_header 0x388-0x2efff.7 (191608)
0x00380|                        01 00 00 00            |        ....    |      type: "load" (1) (Loadable segment) 0x388-0x38b.7 (4)
       |                                               |                |      flags{}: 0x38c-0x38f.7 (4)
0x00380|                                    04         |            .   |        unused0: 0 0x38c-0x38c.4 (0.5)
0x00380|                                    04         |            .   |        r: true 0x38c.5-0x38c.5 (0.1)
0x00380|                                    04         |            .   |        w: false 0x38c.6-0x38c.6 (0.1)
0x00380|                                    04         |            .   |        x: false 0x38c.7-0x38c.7 (0.1)
0x00380|                                       00 00 00|             ...|        unused1: 0 0x38d-0x38f.7 (3)
0x00390|00 b0 02 00 00 00 00 00                        |........        |      offset: 0x2b000 0x390-0x397.7 (8)
0x00390|                        00 80 87 9e fe 7f 00 00|        ........|      vaddr: 0x7ffe9e878000 0x398-0x39f.7 (8)
0x003a0|00 00 00 00 00 00 00 00                        |........        |      paddr: 0x0 0x3a0-0x3a7.7 (8)
0x003a0|                        00 40 00 00 00 00 00 00|        .@......|      filesz: 16384 0x3a8-0x3af.7 (8)
0x003b0|00 40 00 00 00 00 00 00                        |.@......        |      memsz: 16384 0x3b0-0x3b7.7 (8)
0x003b0|                        00 10 00 00 00 00 00 00|        ........|      align: 4096 0x3b8-0x3bf.7 (8)
0x2b000|00 00 00 00 00 00 00 00 00 00 00 00 00 00 00 00|................|      data: raw bits 0x2b000-0x2efff.7 (16384)
*      |until 0x2efff.7 (16384)                        |                |
       |                                               |                |    [16]{}: program_header 0x3c0-0x30fff.7 (199744)
0x003c0|01 00 00 00                                    |....            |      type: "load" (1) (Loadable segment) 0x3c0-0x3c3.7 (4)
       |                                               |                |      flags{}: 0x3c4-0x3c7.7 (4)
0x003c0|            05                                 |    .           |        unused0: 0 0x3c4-0x3c4.4 (0.5)
0x003c0|            05                                 |    .           |        r: true 0x3c4.5-0x3c4.5 (0.1)
0x003c0|            05                                 |    .           |        w: false 0x3c4.6-0x3c4.6 (0.1)
0x003c0|            05                                 |    .           |        x: true 0x3c4.7-0x3c4.7 (0.1)
0x003c0|               00 00 00                        |     ...        |        unused1: 0 0x3c5-0x3c7.7 (3)
0x003c0|                        00 f0 02 00 00 00 00 00|        ........|      offset: 0x2f000 0x3c8-0x3cf.7 (8)
0x003d0|00 c0 87 9e fe 7f 00 00                        |........        |      vaddr: 0x7ffe9e87c000 0x3d0-0x3d7.7 (8)
0x003d0|                        00 00 00 00 00 00 00 00|        ........|      paddr: 0x0 0x3d8-0x3df.7 (8)
0x003e0|00 20 00 00 00 00 00 00                        |. ......        |      filesz: 8192 0x3e0-0x3e7.7 (8)
0x003e0|                        00 20 00 00 00 00 00 00|        . ......|      memsz: 8192 0x3e8-0x3ef.7 (8)
0x003f0|00 10 00 00 00 00 00 00                        |........        |      align: 4096 0x3f0-0x3f7.7 (8)
0x2f000|7f 45 4c 46 02 01 01 00 00 00 00 00 00 00 00 00|.ELF............|      data: raw bits 0x2f000-0x30fff.7 (8192)
*      |until 0x30fff.7 (8192)                         |                |
       |                                               |                |    [17]{}: program_header 0x3f8-0x31fff.7 (203784)
0x003f0|                        01 00 00 00            |        ....    |      type: "load" (1) (Loadable segment) 0x3f8-0x3fb.7 (4)
       |                                               |                |      flags{}: 0x3fc-0x3ff.7 (4)
0x003f0|                                    05         |            .   |        unused0: 0 0x3fc-0x3fc.4 (0.5)
0x003f0|                                    05         |            .   |        r: true 0x3fc.5-0x3fc.5 (0.1)
0x003f0|                                    05         |            .   |        w: false 0x3fc.6-0x3fc.6 (0.1)
0x003f0|                                    05         |            .   |        x: true 0x3fc.7-0x3fc.7 (0.1)
0x003f0|                                       00 00 00|             ...|        unused1: 0 0x3fd-0x3ff.7 (3)
0x00400|00 10 03 00 00 00 00 00                        |........        |      offset: 0x31000 0x400-0x407.7 (8)
0x00400|                        00 00 60 ff ff ff ff ff|        ..`.....|      vaddr: 0xffffffffff600000 0x408-0x40f.7 (8)
0x00410|00 00 00 00 00 00 00 00                        |........        |      paddr: 0x0 0x410-0x417.7 (8)
0x00410|                        00 10 00 00 00 00 00 00|        ........|      filesz: 4096 0x418-0x41f.7 (8)
0x00420|00 10 00 00 00 00 00 00                        |........        |      memsz: 4096 0x420-0x427.7 (8)
0x00420|                        00 10 00 00 00 00 00 00|        ........|      align: 4096 0x428-0x42f.7 (8)
0x31000|48 c7 c0 60 00 00 00 0f 05 c3 cc cc cc cc cc cc|H..`............|      data: raw bits 0x31000-0x31fff.7 (4096)
*      |until 0x31fff.7 (end) (4096)                   |                |
       |                                               |                |  section_headers[0:0]: 0x430-NA (0)
0x01000|                        00 00 00 00 00 00 00 00|        ........|  gap0: raw bits 0x1008-0x1fff.7 (4088)
0x01010|00 00 00 00 00 00 00 00 00 00 00 00 00 00 00 00|................|
*      |until 0x1fff.7 (4088)                          |                |
