$ fq -d ar dv libbbb.a
     |00 01 02 03 04 05 06 07 08 09 0a 0b 0c 0d 0e 0f|0123456789abcdef|.{}: libbbb.a (ar) 0x0-0x67c (1660)
0x000|21 3c 61 72 63 68 3e 0a                        |!<arch>.        |  signature: "!<arch>\n" (valid) 0x0-0x8 (8)
     |                                               |                |  files[0:2]: 0x8-0x67c (1652)
     |                                               |                |    [0]{}: file 0x8-0x58 (80)
0x000|                        2f 20 20 20 20 20 20 20|        /       |      identifier: "/" 0x8-0x18 (16)
0x010|20 20 20 20 20 20 20 20                        |                |
0x010|                        30 20 20 20 20 20 20 20|        0       |      modification_timestamp: 0 ("0") 0x18-0x24 (12)
0x020|20 20 20 20                                    |                |
0x020|            30 20 20 20 20 20                  |    0           |      owner_id: 0 ("0") 0x24-0x2a (6)
0x020|                              30 20 20 20 20 20|          0     |      group_id: 0 ("0") 0x2a-0x30 (6)
0x030|30 20 20 20 20 20 20 20                        |0               |      file_mode: 0 ("0") 0x30-0x38 (8)
0x030|                        32 30 20 20 20 20 20 20|        20      |      file_size: 20 ("20") 0x38-0x42 (10)
0x040|20 20                                          |                |
0x040|      60 0a                                    |  `.            |      ending_characters: "`\n" 0x42-0x44 (2)
0x040|            00 00 00 01 00 00 00 58 6c 69 62 62|    .......Xlibb|      data: raw bits 0x44-0x58 (20)
0x050|62 62 5f 62 62 62 00 00                        |bb_bbb..        |
     |                                               |                |    [1]{}: file 0x58-0x67c (1572)
0x050|                        6c 69 62 62 62 62 2e 6f|        libbbb.o|      identifier: "libbbb.o/" 0x58-0x68 (16)
0x060|2f 20 20 20 20 20 20 20                        |/               |
0x060|                        30 20 20 20 20 20 20 20|        0       |      modification_timestamp: 0 ("0") 0x68-0x74 (12)
0x070|20 20 20 20                                    |                |
0x070|            30 20 20 20 20 20                  |    0           |      owner_id: 0 ("0") 0x74-0x7a (6)
0x070|                              30 20 20 20 20 20|          0     |      group_id: 0 ("0") 0x7a-0x80 (6)
0x080|36 34 34 20 20 20 20 20                        |644             |      file_mode: 420 ("644") 0x80-0x88 (8)
0x080|                        31 35 31 32 20 20 20 20|        1512    |      file_size: 1512 ("1512") 0x88-0x92 (10)
0x090|20 20                                          |                |
0x090|      60 0a                                    |  `.            |      ending_characters: "`\n" 0x92-0x94 (2)
     |00 01 02 03 04 05 06 07 08 09 0a 0b 0c 0d 0e 0f|0123456789abcdef|      data{}: (elf) 0x94-0x67c (1512)
     |                                               |                |        header{}: 0x94-0xd4 (64)
     |                                               |                |          ident{}: 0x94-0xa4 (16)
0x090|            7f 45 4c 46                        |    .ELF        |            magic: raw bits (valid) 0x94-0x98 (4)
0x090|                        02                     |        .       |            class: 64 (2) 0x98-0x99 (1)
0x090|                           01                  |         .      |            data: "little_endian" (1) 0x99-0x9a (1)
0x090|                              01               |          .     |            version: 1 0x9a-0x9b (1)
0x090|                                 00            |           .    |            os_abi: "sysv" (0) 0x9b-0x9c (1)
0x090|                                    00         |            .   |            abi_version: 0 0x9c-0x9d (1)
0x090|                                       00 00 00|             ...|            pad: raw bits (all zero) 0x9d-0xa4 (7)
0x0a0|00 00 00 00                                    |....            |
0x0a0|            01 00                              |    ..          |          type: "rel" (0x1) 0xa4-0xa6 (2)
0x0a0|                  3e 00                        |      >.        |          machine: "x86_64" (0x3e) (AMD x86-64) 0xa6-0xa8 (2)
0x0a0|                        01 00 00 00            |        ....    |          version: 1 0xa8-0xac (4)
0x0a0|                                    00 00 00 00|            ....|          entry: 0 0xac-0xb4 (8)
0x0b0|00 00 00 00                                    |....            |
0x0b0|            00 00 00 00 00 00 00 00            |    ........    |          phoff: 0 0xb4-0xbc (8)
0x0b0|                                    68 02 00 00|            h...|          shoff: 616 0xbc-0xc4 (8)
0x0c0|00 00 00 00                                    |....            |
0x0c0|            00 00 00 00                        |    ....        |          flags: 0 0xc4-0xc8 (4)
0x0c0|                        40 00                  |        @.      |          ehsize: 64 0xc8-0xca (2)
0x0c0|                              00 00            |          ..    |          phentsize: 0 0xca-0xcc (2)
0x0c0|                                    00 00      |            ..  |          phnum: 0 0xcc-0xce (2)
0x0c0|                                          40 00|              @.|          shentsize: 64 0xce-0xd0 (2)
0x0d0|0e 00                                          |..              |          shnum: 14 0xd0-0xd2 (2)
0x0d0|      0d 00                                    |  ..            |          shstrndx: 13 0xd2-0xd4 (2)
     |                                               |                |        section_headers[0:14]: 0xd4-0x67c (1448)
     |                                               |                |          [0]{}: section_header 0x2fc-0x33c (64)
0x2f0|                                    00 00 00 00|            ....|            name: "" (0) 0x2fc-0x300 (4)
0x300|00 00 00 00                                    |....            |            type: "null" (0x0) (Header inactive) 0x300-0x304 (4)
     |                                               |                |            flags{}: 0x304-0x30c (8)
0x300|            00                                 |    .           |              link_order: false 0x304-0x304.1 (0.1)
0x300|            00                                 |    .           |              info_link: false 0x304.1-0x304.2 (0.1)
0x300|            00                                 |    .           |              strings: false 0x304.2-0x304.3 (0.1)
0x300|            00                                 |    .           |              merge: false 0x304.3-0x304.4 (0.1)
0x300|            00                                 |    .           |              unused0: 0 0x304.4-0x304.5 (0.1)
0x300|            00                                 |    .           |              execinstr: false 0x304.5-0x304.6 (0.1)
0x300|            00                                 |    .           |              alloc: false 0x304.6-0x304.7 (0.1)
0x300|            00                                 |    .           |              write: false 0x304.7-0x305 (0.1)
0x300|               00                              |     .          |              tls: false 0x305-0x305.1 (0.1)
0x300|               00                              |     .          |              group: false 0x305.1-0x305.2 (0.1)
0x300|               00                              |     .          |              os_nonconforming: false 0x305.2-0x305.3 (0.1)
0x300|               00 00                           |     ..         |              unused1: 0 0x305.3-0x306.4 (1.1)
0x300|                  00 00                        |      ..        |              os_specific: 0 0x306.4-0x307.4 (1)
0x300|                     00                        |       .        |              processor_specific: 0 0x307.4-0x308 (0.4)
0x300|                        00 00 00 00            |        ....    |              unused2: 0 0x308-0x30c (4)
0x300|                                    00 00 00 00|            ....|            addr: 0x0 0x30c-0x314 (8)
0x310|00 00 00 00                                    |....            |
0x310|            00 00 00 00 00 00 00 00            |    ........    |            offset: 0x0 0x314-0x31c (8)
0x310|                                    00 00 00 00|            ....|            size: 0 0x31c-0x324 (8)
0x320|00 00 00 00                                    |....            |
0x320|            00 00 00 00                        |    ....        |            link: 0 0x324-0x328 (4)
0x320|                        00 00 00 00            |        ....    |            info: 0 0x328-0x32c (4)
0x320|                                    00 00 00 00|            ....|            addralign: 0 0x32c-0x334 (8)
0x330|00 00 00 00                                    |....            |
0x330|            00 00 00 00 00 00 00 00            |    ........    |            entsize: 0 0x334-0x33c (8)
     |                                               |                |          [1]{}: section_header 0xd4-0x37c (680)
0x0d0|            55 48 89 e5 48 8d 3d 00 00 00 00 e8|    UH..H.=.....|            data: raw bits 0xd4-0xe7 (19)
0x0e0|00 00 00 00 90 5d c3                           |.....].         |
0x330|                                    20 00 00 00|             ...|            name: ".text" (32) 0x33c-0x340 (4)
0x340|01 00 00 00                                    |....            |            type: "progbits" (0x1) (Information defined by the program) 0x340-0x344 (4)
     |                                               |                |            flags{}: 0x344-0x34c (8)
0x340|            06                                 |    .           |              link_order: false 0x344-0x344.1 (0.1)
0x340|            06                                 |    .           |              info_link: false 0x344.1-0x344.2 (0.1)
0x340|            06                                 |    .           |              strings: false 0x344.2-0x344.3 (0.1)
0x340|            06                                 |    .           |              merge: false 0x344.3-0x344.4 (0.1)
0x340|            06                                 |    .           |              unused0: 0 0x344.4-0x344.5 (0.1)
0x340|            06                                 |    .           |              execinstr: true 0x344.5-0x344.6 (0.1)
0x340|            06                                 |    .           |              alloc: true 0x344.6-0x344.7 (0.1)
0x340|            06                                 |    .           |              write: false 0x344.7-0x345 (0.1)
0x340|               00                              |     .          |              tls: false 0x345-0x345.1 (0.1)
0x340|               00                              |     .          |              group: false 0x345.1-0x345.2 (0.1)
0x340|               00                              |     .          |              os_nonconforming: false 0x345.2-0x345.3 (0.1)
0x340|               00 00                           |     ..         |              unused1: 0 0x345.3-0x346.4 (1.1)
0x340|                  00 00                        |      ..        |              os_specific: 0 0x346.4-0x347.4 (1)
0x340|                     00                        |       .        |              processor_specific: 0 0x347.4-0x348 (0.4)
0x340|                        00 00 00 00            |        ....    |              unused2: 0 0x348-0x34c (4)
0x340|                                    00 00 00 00|            ....|            addr: 0x0 0x34c-0x354 (8)
0x350|00 00 00 00                                    |....            |
0x350|            40 00 00 00 00 00 00 00            |    @.......    |            offset: 0x40 0x354-0x35c (8)
0x350|                                    13 00 00 00|            ....|            size: 19 0x35c-0x364 (8)
0x360|00 00 00 00                                    |....            |
0x360|            00 00 00 00                        |    ....        |            link: 0 0x364-0x368 (4)
0x360|                        00 00 00 00            |        ....    |            info: 0 0x368-0x36c (4)
0x360|                                    01 00 00 00|            ....|            addralign: 1 0x36c-0x374 (8)
0x370|00 00 00 00                                    |....            |
0x370|            00 00 00 00 00 00 00 00            |    ........    |            entsize: 0 0x374-0x37c (8)
     |                                               |                |          [2]{}: section_header 0x23c-0x3bc (384)
0x230|                                    07 00 00 00|            ....|            data: raw bits 0x23c-0x26c (48)
0x240|00 00 00 00 02 00 00 00 03 00 00 00 fc ff ff ff|................|
*    |until 0x26b.7 (48)                             |                |
0x370|                                    1b 00 00 00|            ....|            name: ".rela.text" (27) 0x37c-0x380 (4)
0x380|04 00 00 00                                    |....            |            type: "rela" (0x4) (Relocation entries with explicit addends) 0x380-0x384 (4)
     |                                               |                |            flags{}: 0x384-0x38c (8)
0x380|            40                                 |    @           |              link_order: false 0x384-0x384.1 (0.1)
0x380|            40                                 |    @           |              info_link: true 0x384.1-0x384.2 (0.1)
0x380|            40                                 |    @           |              strings: false 0x384.2-0x384.3 (0.1)
0x380|            40                                 |    @           |              merge: false 0x384.3-0x384.4 (0.1)
0x380|            40                                 |    @           |              unused0: 0 0x384.4-0x384.5 (0.1)
0x380|            40                                 |    @           |              execinstr: false 0x384.5-0x384.6 (0.1)
0x380|            40                                 |    @           |              alloc: false 0x384.6-0x384.7 (0.1)
0x380|            40                                 |    @           |              write: false 0x384.7-0x385 (0.1)
0x380|               00                              |     .          |              tls: false 0x385-0x385.1 (0.1)
0x380|               00                              |     .          |              group: false 0x385.1-0x385.2 (0.1)
0x380|               00                              |     .          |              os_nonconforming: false 0x385.2-0x385.3 (0.1)
0x380|               00 00                           |     ..         |              unused1: 0 0x385.3-0x386.4 (1.1)
0x380|                  00 00                        |      ..        |              os_specific: 0 0x386.4-0x387.4 (1)
0x380|                     00                        |       .        |              processor_specific: 0 0x387.4-0x388 (0.4)
0x380|                        00 00 00 00            |        ....    |              unused2: 0 0x388-0x38c (4)
0x380|                                    00 00 00 00|            ....|            addr: 0x0 0x38c-0x394 (8)
0x390|00 00 00 00                                    |....            |
0x390|            a8 01 00 00 00 00 00 00            |    ........    |            offset: 0x1a8 0x394-0x39c (8)
0x390|                                    30 00 00 00|            0...|            size: 48 0x39c-0x3a4 (8)
0x3a0|00 00 00 00                                    |....            |
0x3a0|            0b 00 00 00                        |    ....        |            link: 11 0x3a4-0x3a8 (4)
0x3a0|                        01 00 00 00            |        ....    |            info: 1 0x3a8-0x3ac (4)
0x3a0|                                    08 00 00 00|            ....|            addralign: 8 0x3ac-0x3b4 (8)
0x3b0|00 00 00 00                                    |....            |
0x3b0|            18 00 00 00 00 00 00 00            |    ........    |            entsize: 24 0x3b4-0x3bc (8)
     |                                               |                |          [3]{}: section_header 0xe7-0x3fc (789)
     |                                               |                |            data: raw bits 0xe7-0xe7 (0)
0x3b0|                                    26 00 00 00|            &...|            name: ".data" (38) 0x3bc-0x3c0 (4)
0x3c0|01 00 00 00                                    |....            |            type: "progbits" (0x1) (Information defined by the program) 0x3c0-0x3c4 (4)
     |                                               |                |            flags{}: 0x3c4-0x3cc (8)
0x3c0|            03                                 |    .           |              link_order: false 0x3c4-0x3c4.1 (0.1)
0x3c0|            03                                 |    .           |              info_link: false 0x3c4.1-0x3c4.2 (0.1)
0x3c0|            03                                 |    .           |              strings: false 0x3c4.2-0x3c4.3 (0.1)
0x3c0|            03                                 |    .           |              merge: false 0x3c4.3-0x3c4.4 (0.1)
0x3c0|            03                                 |    .           |              unused0: 0 0x3c4.4-0x3c4.5 (0.1)
0x3c0|            03                                 |    .           |              execinstr: false 0x3c4.5-0x3c4.6 (0.1)
0x3c0|            03                                 |    .           |              alloc: true 0x3c4.6-0x3c4.7 (0.1)
0x3c0|            03                                 |    .           |              write: true 0x3c4.7-0x3c5 (0.1)
0x3c0|               00                              |     .          |              tls: false 0x3c5-0x3c5.1 (0.1)
0x3c0|               00                              |     .          |              group: false 0x3c5.1-0x3c5.2 (0.1)
0x3c0|               00                              |     .          |              os_nonconforming: false 0x3c5.2-0x3c5.3 (0.1)
0x3c0|               00 00                           |     ..         |              unused1: 0 0x3c5.3-0x3c6.4 (1.1)
0x3c0|                  00 00                        |      ..        |              os_specific: 0 0x3c6.4-0x3c7.4 (1)
0x3c0|                     00                        |       .        |              processor_specific: 0 0x3c7.4-0x3c8 (0.4)
0x3c0|                        00 00 00 00            |        ....    |              unused2: 0 0x3c8-0x3cc (4)
0x3c0|                                    00 00 00 00|            ....|            addr: 0x0 0x3cc-0x3d4 (8)
0x3d0|00 00 00 00                                    |....            |
0x3d0|            53 00 00 00 00 00 00 00            |    S.......    |            offset: 0x53 0x3d4-0x3dc (8)
0x3d0|                                    00 00 00 00|            ....|            size: 0 0x3dc-0x3e4 (8)
0x3e0|00 00 00 00                                    |....            |
0x3e0|            00 00 00 00                        |    ....        |            link: 0 0x3e4-0x3e8 (4)
0x3e0|                        00 00 00 00            |        ....    |            info: 0 0x3e8-0x3ec (4)
0x3e0|                                    01 00 00 00|            ....|            addralign: 1 0x3ec-0x3f4 (8)
0x3f0|00 00 00 00                                    |....            |
0x3f0|            00 00 00 00 00 00 00 00            |    ........    |            entsize: 0 0x3f4-0x3fc (8)
     |                                               |                |          [4]{}: section_header 0x3fc-0x43c (64)
0x3f0|                                    2c 00 00 00|            ,...|            name: ".bss" (44) 0x3fc-0x400 (4)
0x400|08 00 00 00                                    |....            |            type: "nobits" (0x8) (No space in the file) 0x400-0x404 (4)
     |                                               |                |            flags{}: 0x404-0x40c (8)
0x400|            03                                 |    .           |              link_order: false 0x404-0x404.1 (0.1)
0x400|            03                                 |    .           |              info_link: false 0x404.1-0x404.2 (0.1)
0x400|            03                                 |    .           |              strings: false 0x404.2-0x404.3 (0.1)
0x400|            03                                 |    .           |              merge: false 0x404.3-0x404.4 (0.1)
0x400|            03                                 |    .           |              unused0: 0 0x404.4-0x404.5 (0.1)
0x400|            03                                 |    .           |              execinstr: false 0x404.5-0x404.6 (0.1)
0x400|            03                                 |    .           |              alloc: true 0x404.6-0x404.7 (0.1)
0x400|            03                                 |    .           |              write: true 0x404.7-0x405 (0.1)
0x400|               00                              |     .          |              tls: false 0x405-0x405.1 (0.1)
0x400|               00                              |     .          |              group: false 0x405.1-0x405.2 (0.1)
0x400|               00                              |     .          |              os_nonconforming: false 0x405.2-0x405.3 (0.1)
0x400|               00 00                           |     ..         |              unused1: 0 0x405.3-0x406.4 (1.1)
0x400|                  00 00                        |      ..        |              os_specific: 0 0x406.4-0x407.4 (1)
0x400|                     00                        |       .        |              processor_specific: 0 0x407.4-0x408 (0.4)
0x400|                        00 00 00 00            |        ....    |              unused2: 0 0x408-0x40c (4)
0x400|                                    00 00 00 00|            ....|            addr: 0x0 0x40c-0x414 (8)
0x410|00 00 00 00                                    |....            |
0x410|            53 00 00 00 00 00 00 00            |    S.......    |            offset: 0x53 0x414-0x41c (8)
0x410|                                    00 00 00 00|            ....|            size: 0 0x41c-0x424 (8)
0x420|00 00 00 00                                    |....            |
0x420|            00 00 00 00                        |    ....        |            link: 0 0x424-0x428 (4)
0x420|                        00 00 00 00            |        ....    |            info: 0 0x428-0x42c (4)
0x420|                                    01 00 00 00|            ....|            addralign: 1 0x42c-0x434 (8)
0x430|00 00 00 00                                    |....            |
0x430|            00 00 00 00 00 00 00 00            |    ........    |            entsize: 0 0x434-0x43c (8)
     |                                               |                |          [5]{}: section_header 0xe7-0x47c (917)
0x0e0|                     6c 69 62 62 62 62 5f 62 62|       libbbb_bb|            data: raw bits 0xe7-0xf2 (11)
0x0f0|62 00                                          |b.              |
0x430|                                    31 00 00 00|            1...|            name: ".rodata" (49) 0x43c-0x440 (4)
0x440|01 00 00 00                                    |....            |            type: "progbits" (0x1) (Information defined by the program) 0x440-0x444 (4)
     |                                               |                |            flags{}: 0x444-0x44c (8)
0x440|            02                                 |    .           |              link_order: false 0x444-0x444.1 (0.1)
0x440|            02                                 |    .           |              info_link: false 0x444.1-0x444.2 (0.1)
0x440|            02                                 |    .           |              strings: false 0x444.2-0x444.3 (0.1)
0x440|            02                                 |    .           |              merge: false 0x444.3-0x444.4 (0.1)
0x440|            02                                 |    .           |              unused0: 0 0x444.4-0x444.5 (0.1)
0x440|            02                                 |    .           |              execinstr: false 0x444.5-0x444.6 (0.1)
0x440|            02                                 |    .           |              alloc: true 0x444.6-0x444.7 (0.1)
0x440|            02                                 |    .           |              write: false 0x444.7-0x445 (0.1)
0x440|               00                              |     .          |              tls: false 0x445-0x445.1 (0.1)
0x440|               00                              |     .          |              group: false 0x445.1-0x445.2 (0.1)
0x440|               00                              |     .          |              os_nonconforming: false 0x445.2-0x445.3 (0.1)
0x440|               00 00                           |     ..         |              unused1: 0 0x445.3-0x446.4 (1.1)
0x440|                  00 00                        |      ..        |              os_specific: 0 0x446.4-0x447.4 (1)
0x440|                     00                        |       .        |              processor_specific: 0 0x447.4-0x448 (0.4)
0x440|                        00 00 00 00            |        ....    |              unused2: 0 0x448-0x44c (4)
0x440|                                    00 00 00 00|            ....|            addr: 0x0 0x44c-0x454 (8)
0x450|00 00 00 00                                    |....            |
0x450|            53 00 00 00 00 00 00 00            |    S.......    |            offset: 0x53 0x454-0x45c (8)
0x450|                                    0b 00 00 00|            ....|            size: 11 0x45c-0x464 (8)
0x460|00 00 00 00                                    |....            |
0x460|            00 00 00 00                        |    ....        |            link: 0 0x464-0x468 (4)
0x460|                        00 00 00 00            |        ....    |            info: 0 0x468-0x46c (4)
0x460|                                    01 00 00 00|            ....|            addralign: 1 0x46c-0x474 (8)
0x470|00 00 00 00                                    |....            |
0x470|            00 00 00 00 00 00 00 00            |    ........    |            entsize: 0 0x474-0x47c (8)
     |                                               |                |          [6]{}: section_header 0xf2-0x4bc (970)
0x0f0|      00 47 43 43 3a 20 28 41 6c 70 69 6e 65 20|  .GCC: (Alpine |            data: raw bits 0xf2-0x124 (50)
0x100|31 30 2e 33 2e 31 5f 67 69 74 32 30 32 31 31 30|10.3.1_git202110|
*    |until 0x123.7 (50)                             |                |
0x470|                                    39 00 00 00|            9...|            name: ".comment" (57) 0x47c-0x480 (4)
0x480|01 00 00 00                                    |....            |            type: "progbits" (0x1) (Information defined by the program) 0x480-0x484 (4)
     |                                               |                |            flags{}: 0x484-0x48c (8)
0x480|            30                                 |    0           |              link_order: false 0x484-0x484.1 (0.1)
0x480|            30                                 |    0           |              info_link: false 0x484.1-0x484.2 (0.1)
0x480|            30                                 |    0           |              strings: true 0x484.2-0x484.3 (0.1)
0x480|            30                                 |    0           |              merge: true 0x484.3-0x484.4 (0.1)
0x480|            30                                 |    0           |              unused0: 0 0x484.4-0x484.5 (0.1)
0x480|            30                                 |    0           |              execinstr: false 0x484.5-0x484.6 (0.1)
0x480|            30                                 |    0           |              alloc: false 0x484.6-0x484.7 (0.1)
0x480|            30                                 |    0           |              write: false 0x484.7-0x485 (0.1)
0x480|               00                              |     .          |              tls: false 0x485-0x485.1 (0.1)
0x480|               00                              |     .          |              group: false 0x485.1-0x485.2 (0.1)
0x480|               00                              |     .          |              os_nonconforming: false 0x485.2-0x485.3 (0.1)
0x480|               00 00                           |     ..         |              unused1: 0 0x485.3-0x486.4 (1.1)
0x480|                  00 00                        |      ..        |              os_specific: 0 0x486.4-0x487.4 (1)
0x480|                     00                        |       .        |              processor_specific: 0 0x487.4-0x488 (0.4)
0x480|                        00 00 00 00            |        ....    |              unused2: 0 0x488-0x48c (4)
0x480|                                    00 00 00 00|            ....|            addr: 0x0 0x48c-0x494 (8)
0x490|00 00 00 00                                    |....            |
0x490|            5e 00 00 00 00 00 00 00            |    ^.......    |            offset: 0x5e 0x494-0x49c (8)
0x490|                                    32 00 00 00|            2...|            size: 50 0x49c-0x4a4 (8)
0x4a0|00 00 00 00                                    |....            |
0x4a0|            00 00 00 00                        |    ....        |            link: 0 0x4a4-0x4a8 (4)
0x4a0|                        00 00 00 00            |        ....    |            info: 0 0x4a8-0x4ac (4)
0x4a0|                                    01 00 00 00|            ....|            addralign: 1 0x4ac-0x4b4 (8)
0x4b0|00 00 00 00                                    |....            |
0x4b0|            01 00 00 00 00 00 00 00            |    ........    |            entsize: 1 0x4b4-0x4bc (8)
     |                                               |                |          [7]{}: section_header 0x124-0x4fc (984)
     |                                               |                |            data: raw bits 0x124-0x124 (0)
0x4b0|                                    42 00 00 00|            B...|            name: ".note.GNU-stack" (66) 0x4bc-0x4c0 (4)
0x4c0|01 00 00 00                                    |....            |            type: "progbits" (0x1) (Information defined by the program) 0x4c0-0x4c4 (4)
     |                                               |                |            flags{}: 0x4c4-0x4cc (8)
0x4c0|            00                                 |    .           |              link_order: false 0x4c4-0x4c4.1 (0.1)
0x4c0|            00                                 |    .           |              info_link: false 0x4c4.1-0x4c4.2 (0.1)
0x4c0|            00                                 |    .           |              strings: false 0x4c4.2-0x4c4.3 (0.1)
0x4c0|            00                                 |    .           |              merge: false 0x4c4.3-0x4c4.4 (0.1)
0x4c0|            00                                 |    .           |              unused0: 0 0x4c4.4-0x4c4.5 (0.1)
0x4c0|            00                                 |    .           |              execinstr: false 0x4c4.5-0x4c4.6 (0.1)
0x4c0|            00                                 |    .           |              alloc: false 0x4c4.6-0x4c4.7 (0.1)
0x4c0|            00                                 |    .           |              write: false 0x4c4.7-0x4c5 (0.1)
0x4c0|               00                              |     .          |              tls: false 0x4c5-0x4c5.1 (0.1)
0x4c0|               00                              |     .          |              group: false 0x4c5.1-0x4c5.2 (0.1)
0x4c0|               00                              |     .          |              os_nonconforming: false 0x4c5.2-0x4c5.3 (0.1)
0x4c0|               00 00                           |     ..         |              unused1: 0 0x4c5.3-0x4c6.4 (1.1)
0x4c0|                  00 00                        |      ..        |              os_specific: 0 0x4c6.4-0x4c7.4 (1)
0x4c0|                     00                        |       .        |              processor_specific: 0 0x4c7.4-0x4c8 (0.4)
0x4c0|                        00 00 00 00            |        ....    |              unused2: 0 0x4c8-0x4cc (4)
0x4c0|                                    00 00 00 00|            ....|            addr: 0x0 0x4cc-0x4d4 (8)
0x4d0|00 00 00 00                                    |....            |
0x4d0|            90 00 00 00 00 00 00 00            |    ........    |            offset: 0x90 0x4d4-0x4dc (8)
0x4d0|                                    00 00 00 00|            ....|            size: 0 0x4dc-0x4e4 (8)
0x4e0|00 00 00 00                                    |....            |
0x4e0|            00 00 00 00                        |    ....        |            link: 0 0x4e4-0x4e8 (4)
0x4e0|                        00 00 00 00            |        ....    |            info: 0 0x4e8-0x4ec (4)
0x4e0|                                    01 00 00 00|            ....|            addralign: 1 0x4ec-0x4f4 (8)
0x4f0|00 00 00 00                                    |....            |
0x4f0|            00 00 00 00 00 00 00 00            |    ........    |            entsize: 0 0x4f4-0x4fc (8)
     |                                               |                |          [8]{}: section_header 0x124-0x53c (1048)
0x120|            04 00 00 00 20 00 00 00 05 00 00 00|    .... .......|            data: raw bits 0x124-0x154 (48)
0x130|47 4e 55 00 02 00 01 c0 04 00 00 00 00 00 00 00|GNU.............|
*    |until 0x153.7 (48)                             |                |
0x4f0|                                    52 00 00 00|            R...|            name: ".note.gnu.property" (82) 0x4fc-0x500 (4)
0x500|07 00 00 00                                    |....            |            type: "note" (0x7) (Information that marks the file in some way) 0x500-0x504 (4)
     |                                               |                |            flags{}: 0x504-0x50c (8)
0x500|            02                                 |    .           |              link_order: false 0x504-0x504.1 (0.1)
0x500|            02                                 |    .           |              info_link: false 0x504.1-0x504.2 (0.1)
0x500|            02                                 |    .           |              strings: false 0x504.2-0x504.3 (0.1)
0x500|            02                                 |    .           |              merge: false 0x504.3-0x504.4 (0.1)
0x500|            02                                 |    .           |              unused0: 0 0x504.4-0x504.5 (0.1)
0x500|            02                                 |    .           |              execinstr: false 0x504.5-0x504.6 (0.1)
0x500|            02                                 |    .           |              alloc: true 0x504.6-0x504.7 (0.1)
0x500|            02                                 |    .           |              write: false 0x504.7-0x505 (0.1)
0x500|               00                              |     .          |              tls: false 0x505-0x505.1 (0.1)
0x500|               00                              |     .          |              group: false 0x505.1-0x505.2 (0.1)
0x500|               00                              |     .          |              os_nonconforming: false 0x505.2-0x505.3 (0.1)
0x500|               00 00                           |     ..         |              unused1: 0 0x505.3-0x506.4 (1.1)
0x500|                  00 00                        |      ..        |              os_specific: 0 0x506.4-0x507.4 (1)
0x500|                     00                        |       .        |              processor_specific: 0 0x507.4-0x508 (0.4)
0x500|                        00 00 00 00            |        ....    |              unused2: 0 0x508-0x50c (4)
0x500|                                    00 00 00 00|            ....|            addr: 0x0 0x50c-0x514 (8)
0x510|00 00 00 00                                    |....            |
0x510|            90 00 00 00 00 00 00 00            |    ........    |            offset: 0x90 0x514-0x51c (8)
0x510|                                    30 00 00 00|            0...|            size: 48 0x51c-0x524 (8)
0x520|00 00 00 00                                    |....            |
0x520|            00 00 00 00                        |    ....        |            link: 0 0x524-0x528 (4)
0x520|                        00 00 00 00            |        ....    |            info: 0 0x528-0x52c (4)
0x520|                                    08 00 00 00|            ....|            addralign: 8 0x52c-0x534 (8)
0x530|00 00 00 00                                    |....            |
0x530|            00 00 00 00 00 00 00 00            |    ........    |            entsize: 0 0x534-0x53c (8)
     |                                               |                |          [9]{}: section_header 0x154-0x57c (1064)
0x150|            14 00 00 00 00 00 00 00 01 7a 52 00|    .........zR.|            data: raw bits 0x154-0x18c (56)
0x160|01 78 10 01 1b 0c 07 08 90 01 00 00 1c 00 00 00|.x..............|
*    |until 0x18b.7 (56)                             |                |
0x530|                                    6a 00 00 00|            j...|            name: ".eh_frame" (106) 0x53c-0x540 (4)
0x540|01 00 00 00                                    |....            |            type: "progbits" (0x1) (Information defined by the program) 0x540-0x544 (4)
     |                                               |                |            flags{}: 0x544-0x54c (8)
0x540|            02                                 |    .           |              link_order: false 0x544-0x544.1 (0.1)
0x540|            02                                 |    .           |              info_link: false 0x544.1-0x544.2 (0.1)
0x540|            02                                 |    .           |              strings: false 0x544.2-0x544.3 (0.1)
0x540|            02                                 |    .           |              merge: false 0x544.3-0x544.4 (0.1)
0x540|            02                                 |    .           |              unused0: 0 0x544.4-0x544.5 (0.1)
0x540|            02                                 |    .           |              execinstr: false 0x544.5-0x544.6 (0.1)
0x540|            02                                 |    .           |              alloc: true 0x544.6-0x544.7 (0.1)
0x540|            02                                 |    .           |              write: false 0x544.7-0x545 (0.1)
0x540|               00                              |     .          |              tls: false 0x545-0x545.1 (0.1)
0x540|               00                              |     .          |              group: false 0x545.1-0x545.2 (0.1)
0x540|               00                              |     .          |              os_nonconforming: false 0x545.2-0x545.3 (0.1)
0x540|               00 00                           |     ..         |              unused1: 0 0x545.3-0x546.4 (1.1)
0x540|                  00 00                        |      ..        |              os_specific: 0 0x546.4-0x547.4 (1)
0x540|                     00                        |       .        |              processor_specific: 0 0x547.4-0x548 (0.4)
0x540|                        00 00 00 00            |        ....    |              unused2: 0 0x548-0x54c (4)
0x540|                                    00 00 00 00|            ....|            addr: 0x0 0x54c-0x554 (8)
0x550|00 00 00 00                                    |....            |
0x550|            c0 00 00 00 00 00 00 00            |    ........    |            offset: 0xc0 0x554-0x55c (8)
0x550|                                    38 00 00 00|            8...|            size: 56 0x55c-0x564 (8)
0x560|00 00 00 00                                    |....            |
0x560|            00 00 00 00                        |    ....        |            link: 0 0x564-0x568 (4)
0x560|                        00 00 00 00            |        ....    |            info: 0 0x568-0x56c (4)
0x560|                                    08 00 00 00|            ....|            addralign: 8 0x56c-0x574 (8)
0x570|00 00 00 00                                    |....            |
0x570|            00 00 00 00 00 00 00 00            |    ........    |            entsize: 0 0x574-0x57c (8)
     |                                               |                |          [10]{}: section_header 0x26c-0x5bc (848)
0x260|                                    20 00 00 00|             ...|            data: raw bits 0x26c-0x284 (24)
0x270|00 00 00 00 02 00 00 00 02 00 00 00 00 00 00 00|................|
0x280|00 00 00 00                                    |....            |
0x570|                                    65 00 00 00|            e...|            name: ".rela.eh_frame" (101) 0x57c-0x580 (4)
0x580|04 00 00 00                                    |....            |            type: "rela" (0x4) (Relocation entries with explicit addends) 0x580-0x584 (4)
     |                                               |                |            flags{}: 0x584-0x58c (8)
0x580|            40                                 |    @           |              link_order: false 0x584-0x584.1 (0.1)
0x580|            40                                 |    @           |              info_link: true 0x584.1-0x584.2 (0.1)
0x580|            40                                 |    @           |              strings: false 0x584.2-0x584.3 (0.1)
0x580|            40                                 |    @           |              merge: false 0x584.3-0x584.4 (0.1)
0x580|            40                                 |    @           |              unused0: 0 0x584.4-0x584.5 (0.1)
0x580|            40                                 |    @           |              execinstr: false 0x584.5-0x584.6 (0.1)
0x580|            40                                 |    @           |              alloc: false 0x584.6-0x584.7 (0.1)
0x580|            40                                 |    @           |              write: false 0x584.7-0x585 (0.1)
0x580|               00                              |     .          |              tls: false 0x585-0x585.1 (0.1)
0x580|               00                              |     .          |              group: false 0x585.1-0x585.2 (0.1)
0x580|               00                              |     .          |              os_nonconforming: false 0x585.2-0x585.3 (0.1)
0x580|               00 00                           |     ..         |              unused1: 0 0x585.3-0x586.4 (1.1)
0x580|                  00 00                        |      ..        |              os_specific: 0 0x586.4-0x587.4 (1)
0x580|                     00                        |       .        |              processor_specific: 0 0x587.4-0x588 (0.4)
0x580|                        00 00 00 00            |        ....    |              unused2: 0 0x588-0x58c (4)
0x580|                                    00 00 00 00|            ....|            addr: 0x0 0x58c-0x594 (8)
0x590|00 00 00 00                                    |....            |
0x590|            d8 01 00 00 00 00 00 00            |    ........    |            offset: 0x1d8 0x594-0x59c (8)
0x590|                                    18 00 00 00|            ....|            size: 24 0x59c-0x5a4 (8)
0x5a0|00 00 00 00                                    |....            |
0x5a0|            0b 00 00 00                        |    ....        |            link: 11 0x5a4-0x5a8 (4)
0x5a0|                        09 00 00 00            |        ....    |            info: 9 0x5a8-0x5ac (4)
0x5a0|                                    08 00 00 00|            ....|            addralign: 8 0x5ac-0x5b4 (8)
0x5b0|00 00 00 00                                    |....            |
0x5b0|            18 00 00 00 00 00 00 00            |    ........    |            entsize: 24 0x5b4-0x5bc (8)
     |                                               |                |          [11]{}: section_header 0x18c-0x5fc (1136)
     |                                               |                |            symbol_table[0:6]: 0x18c-0x21c (144)
     |                                               |                |              [0]{}: symbol 0x18c-0x1a4 (24)
0x180|                                    00 00 00 00|            ....|                name: "" (0) 0x18c-0x190 (4)
0x190|00                                             |.               |                bind: "local" (0) 0x190-0x190.4 (0.4)
0x190|00                                             |.               |                type: "notype" (0) 0x190.4-0x191 (0.4)
0x190|   00                                          | .              |                other_unused: 0 0x191-0x191.6 (0.6)
0x190|   00                                          | .              |                visibility: "default" (0) 0x191.6-0x192 (0.2)
0x190|      00 00                                    |  ..            |                shndx: 0 0x192-0x194 (2)
0x190|            00 00 00 00 00 00 00 00            |    ........    |                value: 0 0x194-0x19c (8)
0x190|                                    00 00 00 00|            ....|                size: 0 0x19c-0x1a4 (8)
0x1a0|00 00 00 00                                    |....            |
     |                                               |                |              [1]{}: symbol 0x1a4-0x1bc (24)
0x1a0|            01 00 00 00                        |    ....        |                name: "libbbb.c" (1) 0x1a4-0x1a8 (4)
0x1a0|                        04                     |        .       |                bind: "local" (0) 0x1a8-0x1a8.4 (0.4)
0x1a0|                        04                     |        .       |                type: "file" (4) 0x1a8.4-0x1a9 (0.4)
0x1a0|                           00                  |         .      |                other_unused: 0 0x1a9-0x1a9.6 (0.6)
0x1a0|                           00                  |         .      |                visibility: "default" (0) 0x1a9.6-0x1aa (0.2)
0x1a0|                              f1 ff            |          ..    |                shndx: 65521 0x1aa-0x1ac (2)
0x1a0|                                    00 00 00 00|            ....|                value: 0 0x1ac-0x1b4 (8)
0x1b0|00 00 00 00                                    |....            |
0x1b0|            00 00 00 00 00 00 00 00            |    ........    |                size: 0 0x1b4-0x1bc (8)
     |                                               |                |              [2]{}: symbol 0x1bc-0x1d4 (24)
0x1b0|                                    00 00 00 00|            ....|                name: "" (0) 0x1bc-0x1c0 (4)
0x1c0|03                                             |.               |                bind: "local" (0) 0x1c0-0x1c0.4 (0.4)
0x1c0|03                                             |.               |                type: "section" (3) 0x1c0.4-0x1c1 (0.4)
0x1c0|   00                                          | .              |                other_unused: 0 0x1c1-0x1c1.6 (0.6)
0x1c0|   00                                          | .              |                visibility: "default" (0) 0x1c1.6-0x1c2 (0.2)
0x1c0|      01 00                                    |  ..            |                shndx: 1 0x1c2-0x1c4 (2)
0x1c0|            00 00 00 00 00 00 00 00            |    ........    |                value: 0 0x1c4-0x1cc (8)
0x1c0|                                    00 00 00 00|            ....|                size: 0 0x1cc-0x1d4 (8)
0x1d0|00 00 00 00                                    |....            |
     |                                               |                |              [3]{}: symbol 0x1d4-0x1ec (24)
0x1d0|            00 00 00 00                        |    ....        |                name: "" (0) 0x1d4-0x1d8 (4)
0x1d0|                        03                     |        .       |                bind: "local" (0) 0x1d8-0x1d8.4 (0.4)
0x1d0|                        03                     |        .       |                type: "section" (3) 0x1d8.4-0x1d9 (0.4)
0x1d0|                           00                  |         .      |                other_unused: 0 0x1d9-0x1d9.6 (0.6)
0x1d0|                           00                  |         .      |                visibility: "default" (0) 0x1d9.6-0x1da (0.2)
0x1d0|                              05 00            |          ..    |                shndx: 5 0x1da-0x1dc (2)
0x1d0|                                    00 00 00 00|            ....|                value: 0 0x1dc-0x1e4 (8)
0x1e0|00 00 00 00                                    |....            |
0x1e0|            00 00 00 00 00 00 00 00            |    ........    |                size: 0 0x1e4-0x1ec (8)
     |                                               |                |              [4]{}: symbol 0x1ec-0x204 (24)
0x1e0|                                    0a 00 00 00|            ....|                name: "libbbb_bbb" (10) 0x1ec-0x1f0 (4)
0x1f0|12                                             |.               |                bind: "global" (1) 0x1f0-0x1f0.4 (0.4)
0x1f0|12                                             |.               |                type: "func" (2) 0x1f0.4-0x1f1 (0.4)
0x1f0|   00                                          | .              |                other_unused: 0 0x1f1-0x1f1.6 (0.6)
0x1f0|   00                                          | .              |                visibility: "default" (0) 0x1f1.6-0x1f2 (0.2)
0x1f0|      01 00                                    |  ..            |                shndx: 1 0x1f2-0x1f4 (2)
0x1f0|            00 00 00 00 00 00 00 00            |    ........    |                value: 0 0x1f4-0x1fc (8)
0x1f0|                                    13 00 00 00|            ....|                size: 19 0x1fc-0x204 (8)
0x200|00 00 00 00                                    |....            |
     |                                               |                |              [5]{}: symbol 0x204-0x21c (24)
0x200|            15 00 00 00                        |    ....        |                name: "puts" (21) 0x204-0x208 (4)
0x200|                        10                     |        .       |                bind: "global" (1) 0x208-0x208.4 (0.4)
0x200|                        10                     |        .       |                type: "notype" (0) 0x208.4-0x209 (0.4)
0x200|                           00                  |         .      |                other_unused: 0 0x209-0x209.6 (0.6)
0x200|                           00                  |         .      |                visibility: "default" (0) 0x209.6-0x20a (0.2)
0x200|                              00 00            |          ..    |                shndx: 0 0x20a-0x20c (2)
0x200|                                    00 00 00 00|            ....|                value: 0 0x20c-0x214 (8)
0x210|00 00 00 00                                    |....            |
0x210|            00 00 00 00 00 00 00 00            |    ........    |                size: 0 0x214-0x21c (8)
0x5b0|                                    01 00 00 00|            ....|            name: ".symtab" (1) 0x5bc-0x5c0 (4)
0x5c0|02 00 00 00                                    |....            |            type: "symtab" (0x2) (Symbol table) 0x5c0-0x5c4 (4)
     |                                               |                |            flags{}: 0x5c4-0x5cc (8)
0x5c0|            00                                 |    .           |              link_order: false 0x5c4-0x5c4.1 (0.1)
0x5c0|            00                                 |    .           |              info_link: false 0x5c4.1-0x5c4.2 (0.1)
0x5c0|            00                                 |    .           |              strings: false 0x5c4.2-0x5c4.3 (0.1)
0x5c0|            00                                 |    .           |              merge: false 0x5c4.3-0x5c4.4 (0.1)
0x5c0|            00                                 |    .           |              unused0: 0 0x5c4.4-0x5c4.5 (0.1)
0x5c0|            00                                 |    .           |              execinstr: false 0x5c4.5-0x5c4.6 (0.1)
0x5c0|            00                                 |    .           |              alloc: false 0x5c4.6-0x5c4.7 (0.1)
0x5c0|            00                                 |    .           |              write: false 0x5c4.7-0x5c5 (0.1)
0x5c0|               00                              |     .          |              tls: false 0x5c5-0x5c5.1 (0.1)
0x5c0|               00                              |     .          |              group: false 0x5c5.1-0x5c5.2 (0.1)
0x5c0|               00                              |     .          |              os_nonconforming: false 0x5c5.2-0x5c5.3 (0.1)
0x5c0|               00 00                           |     ..         |              unused1: 0 0x5c5.3-0x5c6.4 (1.1)
0x5c0|                  00 00                        |      ..        |              os_specific: 0 0x5c6.4-0x5c7.4 (1)
0x5c0|                     00                        |       .        |              processor_specific: 0 0x5c7.4-0x5c8 (0.4)
0x5c0|                        00 00 00 00            |        ....    |              unused2: 0 0x5c8-0x5cc (4)
0x5c0|                                    00 00 00 00|            ....|            addr: 0x0 0x5cc-0x5d4 (8)
0x5d0|00 00 00 00                                    |....            |
0x5d0|            f8 00 00 00 00 00 00 00            |    ........    |            offset: 0xf8 0x5d4-0x5dc (8)
0x5d0|                                    90 00 00 00|            ....|            size: 144 0x5dc-0x5e4 (8)
0x5e0|00 00 00 00                                    |....            |
0x5e0|            0c 00 00 00                        |    ....        |            link: 12 0x5e4-0x5e8 (4)
0x5e0|                        04 00 00 00            |        ....    |            info: 4 0x5e8-0x5ec (4)
0x5e0|                                    08 00 00 00|            ....|            addralign: 8 0x5ec-0x5f4 (8)
0x5f0|00 00 00 00                                    |....            |
0x5f0|            18 00 00 00 00 00 00 00            |    ........    |            entsize: 24 0x5f4-0x5fc (8)
     |                                               |                |          [12]{}: section_header 0x21c-0x63c (1056)
0x210|                                    00 6c 69 62|            .lib|            string: "\x00libbbb.c\x00libbbb_bbb\x00puts\x00" 0x21c-0x236 (26)
0x220|62 62 62 2e 63 00 6c 69 62 62 62 62 5f 62 62 62|bbb.c.libbbb_bbb|
0x230|00 70 75 74 73 00                              |.puts.          |
0x5f0|                                    09 00 00 00|            ....|            name: ".strtab" (9) 0x5fc-0x600 (4)
0x600|03 00 00 00                                    |....            |            type: "strtab" (0x3) (String table) 0x600-0x604 (4)
     |                                               |                |            flags{}: 0x604-0x60c (8)
0x600|            00                                 |    .           |              link_order: false 0x604-0x604.1 (0.1)
0x600|            00                                 |    .           |              info_link: false 0x604.1-0x604.2 (0.1)
0x600|            00                                 |    .           |              strings: false 0x604.2-0x604.3 (0.1)
0x600|            00                                 |    .           |              merge: false 0x604.3-0x604.4 (0.1)
0x600|            00                                 |    .           |              unused0: 0 0x604.4-0x604.5 (0.1)
0x600|            00                                 |    .           |              execinstr: false 0x604.5-0x604.6 (0.1)
0x600|            00                                 |    .           |              alloc: false 0x604.6-0x604.7 (0.1)
0x600|            00                                 |    .           |              write: false 0x604.7-0x605 (0.1)
0x600|               00                              |     .          |              tls: false 0x605-0x605.1 (0.1)
0x600|               00                              |     .          |              group: false 0x605.1-0x605.2 (0.1)
0x600|               00                              |     .          |              os_nonconforming: false 0x605.2-0x605.3 (0.1)
0x600|               00 00                           |     ..         |              unused1: 0 0x605.3-0x606.4 (1.1)
0x600|                  00 00                        |      ..        |              os_specific: 0 0x606.4-0x607.4 (1)
0x600|                     00                        |       .        |              processor_specific: 0 0x607.4-0x608 (0.4)
0x600|                        00 00 00 00            |        ....    |              unused2: 0 0x608-0x60c (4)
0x600|                                    00 00 00 00|            ....|            addr: 0x0 0x60c-0x614 (8)
0x610|00 00 00 00                                    |....            |
0x610|            88 01 00 00 00 00 00 00            |    ........    |            offset: 0x188 0x614-0x61c (8)
0x610|                                    1a 00 00 00|            ....|            size: 26 0x61c-0x624 (8)
0x620|00 00 00 00                                    |....            |
0x620|            00 00 00 00                        |    ....        |            link: 0 0x624-0x628 (4)
0x620|                        00 00 00 00            |        ....    |            info: 0 0x628-0x62c (4)
0x620|                                    01 00 00 00|            ....|            addralign: 1 0x62c-0x634 (8)
0x630|00 00 00 00                                    |....            |
0x630|            00 00 00 00 00 00 00 00            |    ........    |            entsize: 0 0x634-0x63c (8)
     |                                               |                |          [13]{}: section_header 0x284-0x67c (1016)
0x280|            00 2e 73 79 6d 74 61 62 00 2e 73 74|    ..symtab..st|            string: "\x00.symtab\x00.strtab\x00.shstrtab\x00.rela.text\x00.data\x00.bss\x00.rodata\x00.comment\x00.note.GNU-stack\x00.note.gnu.property\x00.rela.eh_frame\x00" 0x284-0x2f8 (116)
0x290|72 74 61 62 00 2e 73 68 73 74 72 74 61 62 00 2e|rtab..shstrtab..|
*    |until 0x2f7.7 (116)                            |                |
0x630|                                    11 00 00 00|            ....|            name: ".shstrtab" (17) 0x63c-0x640 (4)
0x640|03 00 00 00                                    |....            |            type: "strtab" (0x3) (String table) 0x640-0x644 (4)
     |                                               |                |            flags{}: 0x644-0x64c (8)
0x640|            00                                 |    .           |              link_order: false 0x644-0x644.1 (0.1)
0x640|            00                                 |    .           |              info_link: false 0x644.1-0x644.2 (0.1)
0x640|            00                                 |    .           |              strings: false 0x644.2-0x644.3 (0.1)
0x640|            00                                 |    .           |              merge: false 0x644.3-0x644.4 (0.1)
0x640|            00                                 |    .           |              unused0: 0 0x644.4-0x644.5 (0.1)
0x640|            00                                 |    .           |              execinstr: false 0x644.5-0x644.6 (0.1)
0x640|            00                                 |    .           |              alloc: false 0x644.6-0x644.7 (0.1)
0x640|            00                                 |    .           |              write: false 0x644.7-0x645 (0.1)
0x640|               00                              |     .          |              tls: false 0x645-0x645.1 (0.1)
0x640|               00                              |     .          |              group: false 0x645.1-0x645.2 (0.1)
0x640|               00                              |     .          |              os_nonconforming: false 0x645.2-0x645.3 (0.1)
0x640|               00 00                           |     ..         |              unused1: 0 0x645.3-0x646.4 (1.1)
0x640|                  00 00                        |      ..        |              os_specific: 0 0x646.4-0x647.4 (1)
0x640|                     00                        |       .        |              processor_specific: 0 0x647.4-0x648 (0.4)
0x640|                        00 00 00 00            |        ....    |              unused2: 0 0x648-0x64c (4)
0x640|                                    00 00 00 00|            ....|            addr: 0x0 0x64c-0x654 (8)
0x650|00 00 00 00                                    |....            |
0x650|            f0 01 00 00 00 00 00 00            |    ........    |            offset: 0x1f0 0x654-0x65c (8)
0x650|                                    74 00 00 00|            t...|            size: 116 0x65c-0x664 (8)
0x660|00 00 00 00                                    |....            |
0x660|            00 00 00 00                        |    ....        |            link: 0 0x664-0x668 (4)
0x660|                        00 00 00 00            |        ....    |            info: 0 0x668-0x66c (4)
0x660|                                    01 00 00 00|            ....|            addralign: 1 0x66c-0x674 (8)
0x670|00 00 00 00                                    |....            |
0x670|            00 00 00 00 00 00 00 00|           |    ........|   |            entsize: 0 0x674-0x67c (8)
0x230|                  00 00 00 00 00 00            |      ......    |        gap0: raw bits 0x236-0x23c (6)
0x2f0|                        00 00 00 00            |        ....    |        gap1: raw bits 0x2f8-0x2fc (4)
     |                                               |                |        program_headers[0:0]: 0x67c-0x67c (0)
