$ fq -d pg_heap -o flavour=pgproee14 ".[0].pd_linp[0,-1] | dv" 16396
    |00 01 02 03 04 05 06 07 08 09 0a 0b 0c 0d 0e 0f|0123456789abcdef|.[0].pd_linp[0]{}: item_id 0x14-0x18 (4)
0x10|            53 00 01 00                        |    S...        |  item_id_data: 65619 0x14-0x18 (4)
    |                                               |                |  lp_off: 83
    |                                               |                |  lp_flags: "LP_REDIRECT" (2)
    |                                               |                |  lp_len: 0
     |00 01 02 03 04 05 06 07 08 09 0a 0b 0c 0d 0e 0f|0123456789abcdef|.[0].pd_linp[85]{}: item_id 0x168-0x16c (4)
0x160|                        e8 81 f2 00            |        ....    |  item_id_data: 15892968 0x168-0x16c (4)
     |                                               |                |  lp_off: 488
     |                                               |                |  lp_flags: "LP_NORMAL" (1)
     |                                               |                |  lp_len: 121
