$ fq -d pg_heap -o flavour=pgproee14 ".[0].pd_linp[0,-1] | dv" 16396
    |00 01 02 03 04 05 06 07 08 09 0a 0b 0c 0d 0e 0f|0123456789abcdef|.[0].pd_linp[0]{}: item_id 0x14-0x17.7 (4)
0x10|            53 00 01 00                        |    S...        |  lp_off: 83 0x14-0x17.7 (4)
0x10|            53 00 01 00                        |    S...        |  lp_flags: "LP_REDIRECT" (2) 0x14-0x17.7 (4)
0x10|            53 00 01 00                        |    S...        |  lp_len: 0 0x14-0x17.7 (4)
     |00 01 02 03 04 05 06 07 08 09 0a 0b 0c 0d 0e 0f|0123456789abcdef|.[0].pd_linp[85]{}: item_id 0x168-0x16b.7 (4)
0x160|                        e8 81 f2 00            |        ....    |  lp_off: 488 0x168-0x16b.7 (4)
0x160|                        e8 81 f2 00            |        ....    |  lp_flags: "LP_NORMAL" (1) 0x168-0x16b.7 (4)
0x160|                        e8 81 f2 00            |        ....    |  lp_len: 121 0x168-0x16b.7 (4)
