$ fq -d pg_btree ".[1].pd_linp[0,1,2,3,4,5,6,7,8,9] | dv" 16404
      |00 01 02 03 04 05 06 07 08 09 0a 0b 0c 0d 0e 0f|0123456789abcdef|.[1].pd_linp[0]{}: item_id 0x2018-0x201b.7 (4)
0x2010|                        e0 9f 20 00            |        .. .    |  lp_off: 8160 0x2018-0x201b.7 (4)
0x2010|                        e0 9f 20 00            |        .. .    |  lp_flags: "LP_NORMAL" (1) 0x2018-0x201b.7 (4)
0x2010|                        e0 9f 20 00            |        .. .    |  lp_len: 16 0x2018-0x201b.7 (4)
      |00 01 02 03 04 05 06 07 08 09 0a 0b 0c 0d 0e 0f|0123456789abcdef|.[1].pd_linp[1]{}: item_id 0x201c-0x201f.7 (4)
0x2010|                                    d0 9f 20 00|            .. .|  lp_off: 8144 0x201c-0x201f.7 (4)
0x2010|                                    d0 9f 20 00|            .. .|  lp_flags: "LP_NORMAL" (1) 0x201c-0x201f.7 (4)
0x2010|                                    d0 9f 20 00|            .. .|  lp_len: 16 0x201c-0x201f.7 (4)
      |00 01 02 03 04 05 06 07 08 09 0a 0b 0c 0d 0e 0f|0123456789abcdef|.[1].pd_linp[2]{}: item_id 0x2020-0x2023.7 (4)
0x2020|c0 9f 20 00                                    |.. .            |  lp_off: 8128 0x2020-0x2023.7 (4)
0x2020|c0 9f 20 00                                    |.. .            |  lp_flags: "LP_NORMAL" (1) 0x2020-0x2023.7 (4)
0x2020|c0 9f 20 00                                    |.. .            |  lp_len: 16 0x2020-0x2023.7 (4)
      |00 01 02 03 04 05 06 07 08 09 0a 0b 0c 0d 0e 0f|0123456789abcdef|.[1].pd_linp[3]{}: item_id 0x2024-0x2027.7 (4)
0x2020|            b0 9f 20 00                        |    .. .        |  lp_off: 8112 0x2024-0x2027.7 (4)
0x2020|            b0 9f 20 00                        |    .. .        |  lp_flags: "LP_NORMAL" (1) 0x2024-0x2027.7 (4)
0x2020|            b0 9f 20 00                        |    .. .        |  lp_len: 16 0x2024-0x2027.7 (4)
      |00 01 02 03 04 05 06 07 08 09 0a 0b 0c 0d 0e 0f|0123456789abcdef|.[1].pd_linp[4]{}: item_id 0x2028-0x202b.7 (4)
0x2020|                        a0 9f 20 00            |        .. .    |  lp_off: 8096 0x2028-0x202b.7 (4)
0x2020|                        a0 9f 20 00            |        .. .    |  lp_flags: "LP_NORMAL" (1) 0x2028-0x202b.7 (4)
0x2020|                        a0 9f 20 00            |        .. .    |  lp_len: 16 0x2028-0x202b.7 (4)
      |00 01 02 03 04 05 06 07 08 09 0a 0b 0c 0d 0e 0f|0123456789abcdef|.[1].pd_linp[5]{}: item_id 0x202c-0x202f.7 (4)
0x2020|                                    90 9f 20 00|            .. .|  lp_off: 8080 0x202c-0x202f.7 (4)
0x2020|                                    90 9f 20 00|            .. .|  lp_flags: "LP_NORMAL" (1) 0x202c-0x202f.7 (4)
0x2020|                                    90 9f 20 00|            .. .|  lp_len: 16 0x202c-0x202f.7 (4)
      |00 01 02 03 04 05 06 07 08 09 0a 0b 0c 0d 0e 0f|0123456789abcdef|.[1].pd_linp[6]{}: item_id 0x2030-0x2033.7 (4)
0x2030|80 9f 20 00                                    |.. .            |  lp_off: 8064 0x2030-0x2033.7 (4)
0x2030|80 9f 20 00                                    |.. .            |  lp_flags: "LP_NORMAL" (1) 0x2030-0x2033.7 (4)
0x2030|80 9f 20 00                                    |.. .            |  lp_len: 16 0x2030-0x2033.7 (4)
      |00 01 02 03 04 05 06 07 08 09 0a 0b 0c 0d 0e 0f|0123456789abcdef|.[1].pd_linp[7]{}: item_id 0x2034-0x2037.7 (4)
0x2030|            70 9f 20 00                        |    p. .        |  lp_off: 8048 0x2034-0x2037.7 (4)
0x2030|            70 9f 20 00                        |    p. .        |  lp_flags: "LP_NORMAL" (1) 0x2034-0x2037.7 (4)
0x2030|            70 9f 20 00                        |    p. .        |  lp_len: 16 0x2034-0x2037.7 (4)
      |00 01 02 03 04 05 06 07 08 09 0a 0b 0c 0d 0e 0f|0123456789abcdef|.[1].pd_linp[8]{}: item_id 0x2038-0x203b.7 (4)
0x2030|                        60 9f 20 00            |        `. .    |  lp_off: 8032 0x2038-0x203b.7 (4)
0x2030|                        60 9f 20 00            |        `. .    |  lp_flags: "LP_NORMAL" (1) 0x2038-0x203b.7 (4)
0x2030|                        60 9f 20 00            |        `. .    |  lp_len: 16 0x2038-0x203b.7 (4)
      |00 01 02 03 04 05 06 07 08 09 0a 0b 0c 0d 0e 0f|0123456789abcdef|.[1].pd_linp[9]{}: item_id 0x203c-0x203f.7 (4)
0x2030|                                    50 9f 20 00|            P. .|  lp_off: 8016 0x203c-0x203f.7 (4)
0x2030|                                    50 9f 20 00|            P. .|  lp_flags: "LP_NORMAL" (1) 0x203c-0x203f.7 (4)
0x2030|                                    50 9f 20 00|            P. .|  lp_len: 16 0x203c-0x203f.7 (4)
