$ fq -d pg_heap -o flavour=pgproee14 ".[0].tuples[1,2,3] | dv" 16451
      |00 01 02 03 04 05 06 07 08 09 0a 0b 0c 0d 0e 0f|0123456789abcdef|.[0].tuples[1]{}: tuple 0x1f78-0x1fb0 (56)
      |                                               |                |  header{}: 0x1f78-0x1f90 (24)
      |                                               |                |    t_choice{}: 0x1f78-0x1f84 (12)
      |                                               |                |      t_heap{}: 0x1f78-0x1f84 (12)
0x1f70|                        04 00 00 00            |        ....    |        t_xmin: 4 0x1f78-0x1f7c (4)
0x1f70|                                    00 00 00 00|            ....|        t_xmax: 0 0x1f7c-0x1f80 (4)
      |                                               |                |        t_field3{}: 0x1f80-0x1f84 (4)
0x1f80|00 00 00 00                                    |....            |          t_cid: 0 0x1f80-0x1f84 (4)
0x1f80|00 00 00 00                                    |....            |          t_xvac: 0 0x1f80-0x1f84 (4)
      |                                               |                |      t_datum{}: 0x1f78-0x1f84 (12)
0x1f70|                        04 00 00 00            |        ....    |        datum_len_: 4 0x1f78-0x1f7c (4)
0x1f70|                                    00 00 00 00|            ....|        datum_typmod: 0 0x1f7c-0x1f80 (4)
0x1f80|00 00 00 00                                    |....            |        datum_typeid: 0 0x1f80-0x1f84 (4)
      |                                               |                |    t_ctid{}: 0x1f84-0x1f8a (6)
0x1f80|            00 00 00 00                        |    ....        |      ip_blkid: 0 0x1f84-0x1f88 (4)
0x1f80|                        02 00                  |        ..      |      ip_posid: 2 0x1f88-0x1f8a (2)
0x1f80|                              03 00            |          ..    |    t_infomask2: 3 0x1f8a-0x1f8c (2)
      |                                               |                |    infomask2{}: 0x1f8c-0x1f8c (0)
      |                                               |                |      heap_keys_updated: false
      |                                               |                |      heap_hot_updated: false
      |                                               |                |      heap_only_tuple: false
0x1f80|                                    02 09      |            ..  |    t_infomask: 2306 0x1f8c-0x1f8e (2)
      |                                               |                |    infomask{}: 0x1f8e-0x1f8e (0)
      |                                               |                |      heap_hasnull: false
      |                                               |                |      heap_hasvarwidth: true
      |                                               |                |      heap_hasexternal: false
      |                                               |                |      heap_hasoid_old: false
      |                                               |                |      heap_xmax_keyshr_lock: false
      |                                               |                |      heap_combocid: false
      |                                               |                |      heap_xmax_excl_lock: false
      |                                               |                |      heap_xmax_lock_only: false
      |                                               |                |      heap_xmax_shr_lock: false
      |                                               |                |      heap_lock_mask: false
      |                                               |                |      heap_xmin_committed: true
      |                                               |                |      heap_xmin_invalid: false
      |                                               |                |      heap_xmin_frozen: true
      |                                               |                |      heap_xmax_committed: false
      |                                               |                |      heap_xmax_invalid: true
      |                                               |                |      heap_xmax_is_multi: false
      |                                               |                |      heap_updated: false
      |                                               |                |      heap_moved_off: false
      |                                               |                |      heap_moved_in: false
      |                                               |                |      heap_moved: false
0x1f80|                                          18   |              . |    t_hoff: 24 0x1f8e-0x1f8f (1)
0x1f80|                                             00|               .|    padding0: 0 0x1f8f-0x1f90 (1)
0x1f90|02 00 00 00 23 31 31 31 31 31 31 31 31 31 31 31|....#11111111111|  data: "020000002331313131313131313131313131313131000000cefabebaffffffff" (raw bits) 0x1f90-0x1fb0 (32)
0x1fa0|31 31 31 31 31 00 00 00 ce fa be ba ff ff ff ff|11111...........|
      |00 01 02 03 04 05 06 07 08 09 0a 0b 0c 0d 0e 0f|0123456789abcdef|.[0].tuples[2]{}: tuple 0x1f40-0x1f78 (56)
      |                                               |                |  header{}: 0x1f40-0x1f58 (24)
      |                                               |                |    t_choice{}: 0x1f40-0x1f4c (12)
      |                                               |                |      t_heap{}: 0x1f40-0x1f4c (12)
0x1f40|04 00 00 00                                    |....            |        t_xmin: 4 0x1f40-0x1f44 (4)
0x1f40|            00 00 00 00                        |    ....        |        t_xmax: 0 0x1f44-0x1f48 (4)
      |                                               |                |        t_field3{}: 0x1f48-0x1f4c (4)
0x1f40|                        00 00 00 00            |        ....    |          t_cid: 0 0x1f48-0x1f4c (4)
0x1f40|                        00 00 00 00            |        ....    |          t_xvac: 0 0x1f48-0x1f4c (4)
      |                                               |                |      t_datum{}: 0x1f40-0x1f4c (12)
0x1f40|04 00 00 00                                    |....            |        datum_len_: 4 0x1f40-0x1f44 (4)
0x1f40|            00 00 00 00                        |    ....        |        datum_typmod: 0 0x1f44-0x1f48 (4)
0x1f40|                        00 00 00 00            |        ....    |        datum_typeid: 0 0x1f48-0x1f4c (4)
      |                                               |                |    t_ctid{}: 0x1f4c-0x1f52 (6)
0x1f40|                                    00 00 00 00|            ....|      ip_blkid: 0 0x1f4c-0x1f50 (4)
0x1f50|03 00                                          |..              |      ip_posid: 3 0x1f50-0x1f52 (2)
0x1f50|      03 00                                    |  ..            |    t_infomask2: 3 0x1f52-0x1f54 (2)
      |                                               |                |    infomask2{}: 0x1f54-0x1f54 (0)
      |                                               |                |      heap_keys_updated: false
      |                                               |                |      heap_hot_updated: false
      |                                               |                |      heap_only_tuple: false
0x1f50|            02 09                              |    ..          |    t_infomask: 2306 0x1f54-0x1f56 (2)
      |                                               |                |    infomask{}: 0x1f56-0x1f56 (0)
      |                                               |                |      heap_hasnull: false
      |                                               |                |      heap_hasvarwidth: true
      |                                               |                |      heap_hasexternal: false
      |                                               |                |      heap_hasoid_old: false
      |                                               |                |      heap_xmax_keyshr_lock: false
      |                                               |                |      heap_combocid: false
      |                                               |                |      heap_xmax_excl_lock: false
      |                                               |                |      heap_xmax_lock_only: false
      |                                               |                |      heap_xmax_shr_lock: false
      |                                               |                |      heap_lock_mask: false
      |                                               |                |      heap_xmin_committed: true
      |                                               |                |      heap_xmin_invalid: false
      |                                               |                |      heap_xmin_frozen: true
      |                                               |                |      heap_xmax_committed: false
      |                                               |                |      heap_xmax_invalid: true
      |                                               |                |      heap_xmax_is_multi: false
      |                                               |                |      heap_updated: false
      |                                               |                |      heap_moved_off: false
      |                                               |                |      heap_moved_in: false
      |                                               |                |      heap_moved: false
0x1f50|                  18                           |      .         |    t_hoff: 24 0x1f56-0x1f57 (1)
0x1f50|                     00                        |       .        |    padding0: 0 0x1f57-0x1f58 (1)
0x1f50|                        03 00 00 00 23 32 32 32|        ....#222|  data: "030000002332323232323232323232323232323232000000efcdab89ffffffff" (raw bits) 0x1f58-0x1f78 (32)
0x1f60|32 32 32 32 32 32 32 32 32 32 32 32 32 00 00 00|2222222222222...|
0x1f70|ef cd ab 89 ff ff ff ff                        |........        |
      |00 01 02 03 04 05 06 07 08 09 0a 0b 0c 0d 0e 0f|0123456789abcdef|.[0].tuples[3]{}: tuple 0x1f08-0x1f40 (56)
      |                                               |                |  header{}: 0x1f08-0x1f20 (24)
      |                                               |                |    t_choice{}: 0x1f08-0x1f14 (12)
      |                                               |                |      t_heap{}: 0x1f08-0x1f14 (12)
0x1f00|                        04 00 00 00            |        ....    |        t_xmin: 4 0x1f08-0x1f0c (4)
0x1f00|                                    00 00 00 00|            ....|        t_xmax: 0 0x1f0c-0x1f10 (4)
      |                                               |                |        t_field3{}: 0x1f10-0x1f14 (4)
0x1f10|00 00 00 00                                    |....            |          t_cid: 0 0x1f10-0x1f14 (4)
0x1f10|00 00 00 00                                    |....            |          t_xvac: 0 0x1f10-0x1f14 (4)
      |                                               |                |      t_datum{}: 0x1f08-0x1f14 (12)
0x1f00|                        04 00 00 00            |        ....    |        datum_len_: 4 0x1f08-0x1f0c (4)
0x1f00|                                    00 00 00 00|            ....|        datum_typmod: 0 0x1f0c-0x1f10 (4)
0x1f10|00 00 00 00                                    |....            |        datum_typeid: 0 0x1f10-0x1f14 (4)
      |                                               |                |    t_ctid{}: 0x1f14-0x1f1a (6)
0x1f10|            00 00 00 00                        |    ....        |      ip_blkid: 0 0x1f14-0x1f18 (4)
0x1f10|                        04 00                  |        ..      |      ip_posid: 4 0x1f18-0x1f1a (2)
0x1f10|                              03 00            |          ..    |    t_infomask2: 3 0x1f1a-0x1f1c (2)
      |                                               |                |    infomask2{}: 0x1f1c-0x1f1c (0)
      |                                               |                |      heap_keys_updated: false
      |                                               |                |      heap_hot_updated: false
      |                                               |                |      heap_only_tuple: false
0x1f10|                                    02 09      |            ..  |    t_infomask: 2306 0x1f1c-0x1f1e (2)
      |                                               |                |    infomask{}: 0x1f1e-0x1f1e (0)
      |                                               |                |      heap_hasnull: false
      |                                               |                |      heap_hasvarwidth: true
      |                                               |                |      heap_hasexternal: false
      |                                               |                |      heap_hasoid_old: false
      |                                               |                |      heap_xmax_keyshr_lock: false
      |                                               |                |      heap_combocid: false
      |                                               |                |      heap_xmax_excl_lock: false
      |                                               |                |      heap_xmax_lock_only: false
      |                                               |                |      heap_xmax_shr_lock: false
      |                                               |                |      heap_lock_mask: false
      |                                               |                |      heap_xmin_committed: true
      |                                               |                |      heap_xmin_invalid: false
      |                                               |                |      heap_xmin_frozen: true
      |                                               |                |      heap_xmax_committed: false
      |                                               |                |      heap_xmax_invalid: true
      |                                               |                |      heap_xmax_is_multi: false
      |                                               |                |      heap_updated: false
      |                                               |                |      heap_moved_off: false
      |                                               |                |      heap_moved_in: false
      |                                               |                |      heap_moved: false
0x1f10|                                          18   |              . |    t_hoff: 24 0x1f1e-0x1f1f (1)
0x1f10|                                             00|               .|    padding0: 0 0x1f1f-0x1f20 (1)
0x1f20|04 00 00 00 23 33 33 33 33 33 33 33 33 33 33 33|....#33333333333|  data: "040000002333333333333333333333333333333333000000afbeaddeffffffff" (raw bits) 0x1f20-0x1f40 (32)
0x1f30|33 33 33 33 33 00 00 00 af be ad de ff ff ff ff|33333...........|
