$ fq -d av1_obu dv av1_obu_seq_header_film_grain_chrome_sample_pos
    |00 01 02 03 04 05 06 07 08 09 0a 0b 0c 0d 0e 0f|0123456789abcdef|.{}: av1_obu_seq_header_film_grain_chrome_sample_pos (av1_obu) 0x0-0x10 (16)
    |                                               |                |  header{}: 0x0-0x1 (1)
0x00|0a                                             |.               |    forbidden_bit: 0 0x0-0x0.1 (0.1)
0x00|0a                                             |.               |    type: "sequence_header" (1) 0x0.1-0x0.5 (0.4)
0x00|0a                                             |.               |    extension_flag: false 0x0.5-0x0.6 (0.1)
0x00|0a                                             |.               |    has_size_field: true 0x0.6-0x0.7 (0.1)
0x00|0a                                             |.               |    reserved_1bit: 0 0x0.7-0x1 (0.1)
0x00|   0e                                          | .              |  size: 14 0x1-0x2 (1)
0x00|      00                                       |  .             |  seq_profile: "main" (0) 0x2-0x2.3 (0.3)
0x00|      00                                       |  .             |  still_picture: 0 0x2.3-0x2.4 (0.1)
0x00|      00                                       |  .             |  reduced_still_picture_header: 0 0x2.4-0x2.5 (0.1)
0x00|      00                                       |  .             |  timing_info_present_flag: 0 0x2.5-0x2.6 (0.1)
0x00|      00                                       |  .             |  initial_display_delay_present_flag: 0 0x2.6-0x2.7 (0.1)
0x00|      00 00                                    |  ..            |  operating_points_cnt_minus_1: 0 0x2.7-0x3.4 (0.5)
    |                                               |                |  operating_points[0:1]: 0x3.4-0x5.6 (2.2)
    |                                               |                |    [0]{}: operating_point 0x3.4-0x5.6 (2.2)
0x00|         00 00                                 |   ..           |      operating_point_idc: 0 0x3.4-0x5 (1.4)
0x00|               42                              |     B          |      seq_level_idx: 8 0x5-0x5.5 (0.5)
0x00|               42                              |     B          |      seq_tier: 0 0x5.5-0x5.6 (0.1)
0x00|               42 ab                           |     B.         |  frame_width_bits_minus_1: 10 0x5.6-0x6.2 (0.4)
0x00|                  ab                           |      .         |  frame_height_bits_minus_1: 10 0x6.2-0x6.6 (0.4)
0x00|                  ab bf c3                     |      ...       |  max_frame_width_minus_1: 1919 0x6.6-0x8.1 (1.3)
0x00|                        c3 71                  |        .q      |  max_frame_height_minus_1: 1079 0x8.1-0x9.4 (1.3)
    |                                               |                |  frame_width: 1920
    |                                               |                |  frame_height: 1080
0x00|                           71                  |         q      |  frame_id_numbers_present_flag: 0 0x9.4-0x9.5 (0.1)
0x00|                           71                  |         q      |  use_128x128_superblock: 0 0x9.5-0x9.6 (0.1)
0x00|                           71                  |         q      |  enable_filter_intra: 0 0x9.6-0x9.7 (0.1)
0x00|                           71                  |         q      |  enable_intra_edge_filter: 1 0x9.7-0xa (0.1)
0x00|                              ab               |          .     |  enable_interintra_compound: 1 0xa-0xa.1 (0.1)
0x00|                              ab               |          .     |  enable_masked_compound: 0 0xa.1-0xa.2 (0.1)
0x00|                              ab               |          .     |  enable_warped_motion: 1 0xa.2-0xa.3 (0.1)
0x00|                              ab               |          .     |  enable_dual_filter: 0 0xa.3-0xa.4 (0.1)
0x00|                              ab               |          .     |  enable_order_hint: 1 0xa.4-0xa.5 (0.1)
0x00|                              ab               |          .     |  enable_jnt_comp: 0 0xa.5-0xa.6 (0.1)
0x00|                              ab               |          .     |  enable_ref_frame_mvs: 1 0xa.6-0xa.7 (0.1)
0x00|                              ab               |          .     |  seq_choose_screen_content_tools: 1 0xa.7-0xb (0.1)
0x00|                                 e6            |           .    |  seq_choose_integer_mv: 1 0xb-0xb.1 (0.1)
0x00|                                 e6            |           .    |  order_hint_bits_minus_1: 6 0xb.1-0xb.4 (0.3)
0x00|                                 e6            |           .    |  enable_superres: 0 0xb.4-0xb.5 (0.1)
0x00|                                 e6            |           .    |  enable_cdef: 1 0xb.5-0xb.6 (0.1)
0x00|                                 e6            |           .    |  enable_restoration: 1 0xb.6-0xb.7 (0.1)
    |                                               |                |  color_config{}: 0xb.7-0xf.6 (3.7)
0x00|                                 e6            |           .    |    high_bitdepth: 0 0xb.7-0xc (0.1)
    |                                               |                |    bit_depth: 8
0x00|                                    40         |            @   |    mono_chrome: 0 0xc-0xc.1 (0.1)
0x00|                                    40         |            @   |    color_description_present_flag: 1 0xc.1-0xc.2 (0.1)
0x00|                                    40 40      |            @@  |    color_primaries: "bt_709" (1) 0xc.2-0xd.2 (1)
0x00|                                       40 40   |             @@ |    transfer_characteristics: "bt_709" (1) 0xd.2-0xe.2 (1)
0x00|                                          40 43|              @C|    matrix_coefficients: "bt_709" (1) 0xe.2-0xf.2 (1)
0x00|                                             43|               C|    color_range: 0 0xf.2-0xf.3 (0.1)
    |                                               |                |    subsampling_x: 1
    |                                               |                |    subsampling_y: 1
0x00|                                             43|               C|    chroma_sample_position: 0 0xf.3-0xf.5 (0.2)
0x00|                                             43|               C|    separate_uv_delta_q: 0 0xf.5-0xf.6 (0.1)
0x00|                                             43|               C|  film_grain_params_present: 1 0xf.6-0xf.7 (0.1)
0x00|                                             43|               C|  data: raw bits 0xf.7-0x10 (0.1)
