$ fq dv a_dynamic
      |00 01 02 03 04 05 06 07 08 09 0a 0b 0c 0d 0e 0f|0123456789abcdef|.{}: a_dynamic (macho) 0x0-0x8140 (33088)
      |                                               |                |  header{}: 0x0-0x20 (32)
      |                                               |                |    arch_bits: 64
0x0000|cf fa ed fe                                    |....            |    magic: "64le" (0xfeedfacf) (64-bit little endian) 0x0-0x4 (4)
      |                                               |                |    bits: 64
0x0000|            07 00 00 01                        |    ....        |    cputype: "x86_64" (0x1000007) 0x4-0x8 (4)
0x0000|                        03 00 00 00            |        ....    |    cpusubtype: 0x3 0x8-0xc (4)
0x0000|                                    02 00 00 00|            ....|    filetype: "execute" (2) 0xc-0x10 (4)
0x0010|10 00 00 00                                    |....            |    ncdms: 16 0x10-0x14 (4)
0x0010|            28 05 00 00                        |    (...        |    sizeofncdms: 1320 0x14-0x18 (4)
      |                                               |                |    flags{}: 0x18-0x1c (4)
0x0010|                        85                     |        .       |      twolevel: true 0x18-0x18.1 (0.1)
0x0010|                        85                     |        .       |      lazy_init: false 0x18.1-0x18.2 (0.1)
0x0010|                        85                     |        .       |      split_segs: false 0x18.2-0x18.3 (0.1)
0x0010|                        85                     |        .       |      prebound: false 0x18.3-0x18.4 (0.1)
0x0010|                        85                     |        .       |      bindatload: false 0x18.4-0x18.5 (0.1)
0x0010|                        85                     |        .       |      dyldlink: true 0x18.5-0x18.6 (0.1)
0x0010|                        85                     |        .       |      incrlink: false 0x18.6-0x18.7 (0.1)
0x0010|                        85                     |        .       |      noundefs: true 0x18.7-0x19 (0.1)
0x0010|                           00                  |         .      |      weak_defines: false 0x19-0x19.1 (0.1)
0x0010|                           00                  |         .      |      canonical: false 0x19.1-0x19.2 (0.1)
0x0010|                           00                  |         .      |      subsections_via_symbols: false 0x19.2-0x19.3 (0.1)
0x0010|                           00                  |         .      |      allmodsbound: false 0x19.3-0x19.4 (0.1)
0x0010|                           00                  |         .      |      prebindable: false 0x19.4-0x19.5 (0.1)
0x0010|                           00                  |         .      |      nofixprebinding: false 0x19.5-0x19.6 (0.1)
0x0010|                           00                  |         .      |      nomultidefs: false 0x19.6-0x19.7 (0.1)
0x0010|                           00                  |         .      |      force_flat: false 0x19.7-0x1a (0.1)
0x0010|                              20               |                |      has_tlv_descriptors: false 0x1a-0x1a.1 (0.1)
0x0010|                              20               |                |      dead_strippable_dylib: false 0x1a.1-0x1a.2 (0.1)
0x0010|                              20               |                |      pie: true 0x1a.2-0x1a.3 (0.1)
0x0010|                              20               |                |      no_reexported_dylibs: false 0x1a.3-0x1a.4 (0.1)
0x0010|                              20               |                |      setuid_safe: false 0x1a.4-0x1a.5 (0.1)
0x0010|                              20               |                |      root_safe: false 0x1a.5-0x1a.6 (0.1)
0x0010|                              20               |                |      allow_stack_execution: false 0x1a.6-0x1a.7 (0.1)
0x0010|                              20               |                |      binds_to_weak: false 0x1a.7-0x1b (0.1)
0x0010|                                 00            |           .    |      reserved: raw bits 0x1b-0x1b.6 (0.6)
0x0010|                                 00            |           .    |      app_extension_safe: false 0x1b.6-0x1b.7 (0.1)
0x0010|                                 00            |           .    |      no_heap_execution: false 0x1b.7-0x1c (0.1)
0x0010|                                    00 00 00 00|            ....|    reserved: raw bits (all zero) 0x1c-0x20 (4)
      |                                               |                |  load_commands[0:16]: 0x20-0x8140 (33056)
      |                                               |                |    [0]{}: load_command 0x20-0x68 (72)
0x0020|19 00 00 00                                    |....            |      cmd: "segment_64" (0x19) 0x20-0x24 (4)
0x0020|            48 00 00 00                        |    H...        |      cmdsize: 72 0x24-0x28 (4)
      |                                               |                |      segment_command{}: 0x28-0x68 (64)
      |                                               |                |        arch_bits: 64
0x0020|                        5f 5f 50 41 47 45 5a 45|        __PAGEZE|        segname: "__PAGEZERO" 0x28-0x38 (16)
0x0030|52 4f 00 00 00 00 00 00                        |RO......        |
0x0030|                        00 00 00 00 00 00 00 00|        ........|        vmaddr: 0x0 0x38-0x40 (8)
0x0040|00 00 00 00 01 00 00 00                        |........        |        vmsize: 4294967296 0x40-0x48 (8)
0x0040|                        00 00 00 00 00 00 00 00|        ........|        fileoff: 0x0 0x48-0x50 (8)
0x0050|00 00 00 00 00 00 00 00                        |........        |        tfilesize: 0 0x50-0x58 (8)
0x0050|                        00 00 00 00            |        ....    |        initprot: 0 0x58-0x5c (4)
0x0050|                                    00 00 00 00|            ....|        maxprot: 0 0x5c-0x60 (4)
0x0060|00 00 00 00                                    |....            |        nsects: 0 0x60-0x64 (4)
      |                                               |                |        flags{}: 0x64-0x68 (4)
0x0060|            00                                 |    .           |          reserved0: raw bits 0x64-0x64.4 (0.4)
0x0060|            00                                 |    .           |          protected_version_1: false 0x64.4-0x64.5 (0.1)
0x0060|            00                                 |    .           |          noreloc: false 0x64.5-0x64.6 (0.1)
0x0060|            00                                 |    .           |          fvmlib: false 0x64.6-0x64.7 (0.1)
0x0060|            00                                 |    .           |          highvm: false 0x64.7-0x65 (0.1)
0x0060|               00 00 00                        |     ...        |          reserved1: raw bits 0x65-0x68 (3)
      |                                               |                |      sections[0:0]: 0x68-0x68 (0)
      |                                               |                |    [1]{}: load_command 0x68-0x3ff4 (16268)
0x0060|                        19 00 00 00            |        ....    |      cmd: "segment_64" (0x19) 0x68-0x6c (4)
0x0060|                                    d8 01 00 00|            ....|      cmdsize: 472 0x6c-0x70 (4)
      |                                               |                |      segment_command{}: 0x70-0xb0 (64)
      |                                               |                |        arch_bits: 64
0x0070|5f 5f 54 45 58 54 00 00 00 00 00 00 00 00 00 00|__TEXT..........|        segname: "__TEXT" 0x70-0x80 (16)
0x0080|00 00 00 00 01 00 00 00                        |........        |        vmaddr: 0x100000000 0x80-0x88 (8)
0x0080|                        00 40 00 00 00 00 00 00|        .@......|        vmsize: 16384 0x88-0x90 (8)
0x0090|00 00 00 00 00 00 00 00                        |........        |        fileoff: 0x0 0x90-0x98 (8)
0x0090|                        00 40 00 00 00 00 00 00|        .@......|        tfilesize: 16384 0x98-0xa0 (8)
0x00a0|05 00 00 00                                    |....            |        initprot: 5 0xa0-0xa4 (4)
0x00a0|            05 00 00 00                        |    ....        |        maxprot: 5 0xa4-0xa8 (4)
0x00a0|                        05 00 00 00            |        ....    |        nsects: 5 0xa8-0xac (4)
      |                                               |                |        flags{}: 0xac-0xb0 (4)
0x00a0|                                    00         |            .   |          reserved0: raw bits 0xac-0xac.4 (0.4)
0x00a0|                                    00         |            .   |          protected_version_1: false 0xac.4-0xac.5 (0.1)
0x00a0|                                    00         |            .   |          noreloc: false 0xac.5-0xac.6 (0.1)
0x00a0|                                    00         |            .   |          fvmlib: false 0xac.6-0xac.7 (0.1)
0x00a0|                                    00         |            .   |          highvm: false 0xac.7-0xad (0.1)
0x00a0|                                       00 00 00|             ...|          reserved1: raw bits 0xad-0xb0 (3)
      |                                               |                |      sections[0:5]: 0xb0-0x3ff4 (16196)
      |                                               |                |        [0]{}: section 0xb0-0x3f74 (16068)
0x00b0|5f 5f 74 65 78 74 00 00 00 00 00 00 00 00 00 00|__text..........|          sectname: "__text" 0xb0-0xc0 (16)
0x00c0|5f 5f 54 45 58 54 00 00 00 00 00 00 00 00 00 00|__TEXT..........|          segname: "__TEXT" 0xc0-0xd0 (16)
0x00d0|40 3f 00 00 01 00 00 00                        |@?......        |          address: 0x100003f40 0xd0-0xd8 (8)
0x00d0|                        34 00 00 00 00 00 00 00|        4.......|          size: 52 0xd8-0xe0 (8)
0x00e0|40 3f 00 00                                    |@?..            |          offset: 0x3f40 0xe0-0xe4 (4)
0x00e0|            04 00 00 00                        |    ....        |          align: 4 0xe4-0xe8 (4)
0x00e0|                        00 00 00 00            |        ....    |          reloff: 0 0xe8-0xec (4)
0x00e0|                                    00 00 00 00|            ....|          nreloc: 0 0xec-0xf0 (4)
      |                                               |                |          flags{}: 0xf0-0xf4 (4)
0x00f0|00                                             |.               |            type: "regular" (0) 0xf0-0xf1 (1)
0x00f0|   04                                          | .              |            reserved2: raw bits 0xf1-0xf1.5 (0.5)
0x00f0|   04                                          | .              |            attr_some_instructions: true 0xf1.5-0xf1.6 (0.1)
0x00f0|   04                                          | .              |            attr_ext_reloc: false 0xf1.6-0xf1.7 (0.1)
0x00f0|   04                                          | .              |            attr_loc_reloc: false 0xf1.7-0xf2 (0.1)
0x00f0|      00                                       |  .             |            reserved1: raw bits 0xf2-0xf3 (1)
0x00f0|         80                                    |   .            |            attr_pure_instructions: true 0xf3-0xf3.1 (0.1)
0x00f0|         80                                    |   .            |            attr_no_toc: false 0xf3.1-0xf3.2 (0.1)
0x00f0|         80                                    |   .            |            attr_strip_static_syms: false 0xf3.2-0xf3.3 (0.1)
0x00f0|         80                                    |   .            |            attr_no_dead_strip: false 0xf3.3-0xf3.4 (0.1)
0x00f0|         80                                    |   .            |            attr_live_support: false 0xf3.4-0xf3.5 (0.1)
0x00f0|         80                                    |   .            |            attr_self_modifying_code: false 0xf3.5-0xf3.6 (0.1)
0x00f0|         80                                    |   .            |            attr_debug: false 0xf3.6-0xf3.7 (0.1)
0x00f0|         80                                    |   .            |            reserved0: raw bits 0xf3.7-0xf4 (0.1)
0x00f0|            00 00 00 00                        |    ....        |          reserved1: 0 0xf4-0xf8 (4)
0x00f0|                        00 00 00 00            |        ....    |          reserved2: 0 0xf8-0xfc (4)
0x00f0|                                    00 00 00 00|            ....|          reserved3: 0 0xfc-0x100 (4)
0x3f40|55 48 89 e5 48 8d 3d 59 00 00 00 b0 00 e8 28 00|UH..H.=Y......(.|          data: raw bits 0x3f40-0x3f74 (52)
*     |until 0x3f73.7 (52)                            |                |
      |                                               |                |        [1]{}: section 0x100-0x3f80 (16000)
0x0100|5f 5f 73 74 75 62 73 00 00 00 00 00 00 00 00 00|__stubs.........|          sectname: "__stubs" 0x100-0x110 (16)
0x0110|5f 5f 54 45 58 54 00 00 00 00 00 00 00 00 00 00|__TEXT..........|          segname: "__TEXT" 0x110-0x120 (16)
0x0120|74 3f 00 00 01 00 00 00                        |t?......        |          address: 0x100003f74 0x120-0x128 (8)
0x0120|                        0c 00 00 00 00 00 00 00|        ........|          size: 12 0x128-0x130 (8)
0x0130|74 3f 00 00                                    |t?..            |          offset: 0x3f74 0x130-0x134 (4)
0x0130|            01 00 00 00                        |    ....        |          align: 1 0x134-0x138 (4)
0x0130|                        00 00 00 00            |        ....    |          reloff: 0 0x138-0x13c (4)
0x0130|                                    00 00 00 00|            ....|          nreloc: 0 0x13c-0x140 (4)
      |                                               |                |          flags{}: 0x140-0x144 (4)
0x0140|08                                             |.               |            type: "symbol_stubs" (8) 0x140-0x141 (1)
0x0140|   04                                          | .              |            reserved2: raw bits 0x141-0x141.5 (0.5)
0x0140|   04                                          | .              |            attr_some_instructions: true 0x141.5-0x141.6 (0.1)
0x0140|   04                                          | .              |            attr_ext_reloc: false 0x141.6-0x141.7 (0.1)
0x0140|   04                                          | .              |            attr_loc_reloc: false 0x141.7-0x142 (0.1)
0x0140|      00                                       |  .             |            reserved1: raw bits 0x142-0x143 (1)
0x0140|         80                                    |   .            |            attr_pure_instructions: true 0x143-0x143.1 (0.1)
0x0140|         80                                    |   .            |            attr_no_toc: false 0x143.1-0x143.2 (0.1)
0x0140|         80                                    |   .            |            attr_strip_static_syms: false 0x143.2-0x143.3 (0.1)
0x0140|         80                                    |   .            |            attr_no_dead_strip: false 0x143.3-0x143.4 (0.1)
0x0140|         80                                    |   .            |            attr_live_support: false 0x143.4-0x143.5 (0.1)
0x0140|         80                                    |   .            |            attr_self_modifying_code: false 0x143.5-0x143.6 (0.1)
0x0140|         80                                    |   .            |            attr_debug: false 0x143.6-0x143.7 (0.1)
0x0140|         80                                    |   .            |            reserved0: raw bits 0x143.7-0x144 (0.1)
0x0140|            00 00 00 00                        |    ....        |          reserved1: 0 0x144-0x148 (4)
0x0140|                        06 00 00 00            |        ....    |          reserved2: 6 0x148-0x14c (4)
0x0140|                                    00 00 00 00|            ....|          reserved3: 0 0x14c-0x150 (4)
0x3f70|            ff 25 96 00 00 00 ff 25 98 00 00 00|    .%.....%....|          data: raw bits 0x3f74-0x3f80 (12)
      |                                               |                |        [2]{}: section 0x150-0x3fa4 (15956)
0x0150|5f 5f 73 74 75 62 5f 68 65 6c 70 65 72 00 00 00|__stub_helper...|          sectname: "__stub_helper" 0x150-0x160 (16)
0x0160|5f 5f 54 45 58 54 00 00 00 00 00 00 00 00 00 00|__TEXT..........|          segname: "__TEXT" 0x160-0x170 (16)
0x0170|80 3f 00 00 01 00 00 00                        |.?......        |          address: 0x100003f80 0x170-0x178 (8)
0x0170|                        24 00 00 00 00 00 00 00|        $.......|          size: 36 0x178-0x180 (8)
0x0180|80 3f 00 00                                    |.?..            |          offset: 0x3f80 0x180-0x184 (4)
0x0180|            02 00 00 00                        |    ....        |          align: 2 0x184-0x188 (4)
0x0180|                        00 00 00 00            |        ....    |          reloff: 0 0x188-0x18c (4)
0x0180|                                    00 00 00 00|            ....|          nreloc: 0 0x18c-0x190 (4)
      |                                               |                |          flags{}: 0x190-0x194 (4)
0x0190|00                                             |.               |            type: "regular" (0) 0x190-0x191 (1)
0x0190|   04                                          | .              |            reserved2: raw bits 0x191-0x191.5 (0.5)
0x0190|   04                                          | .              |            attr_some_instructions: true 0x191.5-0x191.6 (0.1)
0x0190|   04                                          | .              |            attr_ext_reloc: false 0x191.6-0x191.7 (0.1)
0x0190|   04                                          | .              |            attr_loc_reloc: false 0x191.7-0x192 (0.1)
0x0190|      00                                       |  .             |            reserved1: raw bits 0x192-0x193 (1)
0x0190|         80                                    |   .            |            attr_pure_instructions: true 0x193-0x193.1 (0.1)
0x0190|         80                                    |   .            |            attr_no_toc: false 0x193.1-0x193.2 (0.1)
0x0190|         80                                    |   .            |            attr_strip_static_syms: false 0x193.2-0x193.3 (0.1)
0x0190|         80                                    |   .            |            attr_no_dead_strip: false 0x193.3-0x193.4 (0.1)
0x0190|         80                                    |   .            |            attr_live_support: false 0x193.4-0x193.5 (0.1)
0x0190|         80                                    |   .            |            attr_self_modifying_code: false 0x193.5-0x193.6 (0.1)
0x0190|         80                                    |   .            |            attr_debug: false 0x193.6-0x193.7 (0.1)
0x0190|         80                                    |   .            |            reserved0: raw bits 0x193.7-0x194 (0.1)
0x0190|            00 00 00 00                        |    ....        |          reserved1: 0 0x194-0x198 (4)
0x0190|                        00 00 00 00            |        ....    |          reserved2: 0 0x198-0x19c (4)
0x0190|                                    00 00 00 00|            ....|          reserved3: 0 0x19c-0x1a0 (4)
0x3f80|4c 8d 1d 79 00 00 00 41 53 ff 25 79 00 00 00 90|L..y...AS.%y....|          data: raw bits 0x3f80-0x3fa4 (36)
*     |until 0x3fa3.7 (36)                            |                |
      |                                               |                |        [3]{}: section 0x1a0-0x3fa9 (15881)
0x01a0|5f 5f 63 73 74 72 69 6e 67 00 00 00 00 00 00 00|__cstring.......|          sectname: "__cstring" 0x1a0-0x1b0 (16)
0x01b0|5f 5f 54 45 58 54 00 00 00 00 00 00 00 00 00 00|__TEXT..........|          segname: "__TEXT" 0x1b0-0x1c0 (16)
0x01c0|a4 3f 00 00 01 00 00 00                        |.?......        |          address: 0x100003fa4 0x1c0-0x1c8 (8)
0x01c0|                        05 00 00 00 00 00 00 00|        ........|          size: 5 0x1c8-0x1d0 (8)
0x01d0|a4 3f 00 00                                    |.?..            |          offset: 0x3fa4 0x1d0-0x1d4 (4)
0x01d0|            00 00 00 00                        |    ....        |          align: 0 0x1d4-0x1d8 (4)
0x01d0|                        00 00 00 00            |        ....    |          reloff: 0 0x1d8-0x1dc (4)
0x01d0|                                    00 00 00 00|            ....|          nreloc: 0 0x1dc-0x1e0 (4)
      |                                               |                |          flags{}: 0x1e0-0x1e4 (4)
0x01e0|02                                             |.               |            type: "cstring_literals" (2) 0x1e0-0x1e1 (1)
0x01e0|   00                                          | .              |            reserved2: raw bits 0x1e1-0x1e1.5 (0.5)
0x01e0|   00                                          | .              |            attr_some_instructions: false 0x1e1.5-0x1e1.6 (0.1)
0x01e0|   00                                          | .              |            attr_ext_reloc: false 0x1e1.6-0x1e1.7 (0.1)
0x01e0|   00                                          | .              |            attr_loc_reloc: false 0x1e1.7-0x1e2 (0.1)
0x01e0|      00                                       |  .             |            reserved1: raw bits 0x1e2-0x1e3 (1)
0x01e0|         00                                    |   .            |            attr_pure_instructions: false 0x1e3-0x1e3.1 (0.1)
0x01e0|         00                                    |   .            |            attr_no_toc: false 0x1e3.1-0x1e3.2 (0.1)
0x01e0|         00                                    |   .            |            attr_strip_static_syms: false 0x1e3.2-0x1e3.3 (0.1)
0x01e0|         00                                    |   .            |            attr_no_dead_strip: false 0x1e3.3-0x1e3.4 (0.1)
0x01e0|         00                                    |   .            |            attr_live_support: false 0x1e3.4-0x1e3.5 (0.1)
0x01e0|         00                                    |   .            |            attr_self_modifying_code: false 0x1e3.5-0x1e3.6 (0.1)
0x01e0|         00                                    |   .            |            attr_debug: false 0x1e3.6-0x1e3.7 (0.1)
0x01e0|         00                                    |   .            |            reserved0: raw bits 0x1e3.7-0x1e4 (0.1)
0x01e0|            00 00 00 00                        |    ....        |          reserved1: 0 0x1e4-0x1e8 (4)
0x01e0|                        00 00 00 00            |        ....    |          reserved2: 0 0x1e8-0x1ec (4)
0x01e0|                                    00 00 00 00|            ....|          reserved3: 0 0x1ec-0x1f0 (4)
      |                                               |                |          cstrings[0:1]: 0x3fa4-0x3fa9 (5)
0x3fa0|            61 61 61 0a 00                     |    aaa..       |            [0]: "aaa\n" cstring 0x3fa4-0x3fa9 (5)
      |                                               |                |        [4]{}: section 0x1f0-0x3ff4 (15876)
0x01f0|5f 5f 75 6e 77 69 6e 64 5f 69 6e 66 6f 00 00 00|__unwind_info...|          sectname: "__unwind_info" 0x1f0-0x200 (16)
0x0200|5f 5f 54 45 58 54 00 00 00 00 00 00 00 00 00 00|__TEXT..........|          segname: "__TEXT" 0x200-0x210 (16)
0x0210|ac 3f 00 00 01 00 00 00                        |.?......        |          address: 0x100003fac 0x210-0x218 (8)
0x0210|                        48 00 00 00 00 00 00 00|        H.......|          size: 72 0x218-0x220 (8)
0x0220|ac 3f 00 00                                    |.?..            |          offset: 0x3fac 0x220-0x224 (4)
0x0220|            02 00 00 00                        |    ....        |          align: 2 0x224-0x228 (4)
0x0220|                        00 00 00 00            |        ....    |          reloff: 0 0x228-0x22c (4)
0x0220|                                    00 00 00 00|            ....|          nreloc: 0 0x22c-0x230 (4)
      |                                               |                |          flags{}: 0x230-0x234 (4)
0x0230|00                                             |.               |            type: "regular" (0) 0x230-0x231 (1)
0x0230|   00                                          | .              |            reserved2: raw bits 0x231-0x231.5 (0.5)
0x0230|   00                                          | .              |            attr_some_instructions: false 0x231.5-0x231.6 (0.1)
0x0230|   00                                          | .              |            attr_ext_reloc: false 0x231.6-0x231.7 (0.1)
0x0230|   00                                          | .              |            attr_loc_reloc: false 0x231.7-0x232 (0.1)
0x0230|      00                                       |  .             |            reserved1: raw bits 0x232-0x233 (1)
0x0230|         00                                    |   .            |            attr_pure_instructions: false 0x233-0x233.1 (0.1)
0x0230|         00                                    |   .            |            attr_no_toc: false 0x233.1-0x233.2 (0.1)
0x0230|         00                                    |   .            |            attr_strip_static_syms: false 0x233.2-0x233.3 (0.1)
0x0230|         00                                    |   .            |            attr_no_dead_strip: false 0x233.3-0x233.4 (0.1)
0x0230|         00                                    |   .            |            attr_live_support: false 0x233.4-0x233.5 (0.1)
0x0230|         00                                    |   .            |            attr_self_modifying_code: false 0x233.5-0x233.6 (0.1)
0x0230|         00                                    |   .            |            attr_debug: false 0x233.6-0x233.7 (0.1)
0x0230|         00                                    |   .            |            reserved0: raw bits 0x233.7-0x234 (0.1)
0x0230|            00 00 00 00                        |    ....        |          reserved1: 0 0x234-0x238 (4)
0x0230|                        00 00 00 00            |        ....    |          reserved2: 0 0x238-0x23c (4)
0x0230|                                    00 00 00 00|            ....|          reserved3: 0 0x23c-0x240 (4)
0x3fa0|                                    01 00 00 00|            ....|          data: raw bits 0x3fac-0x3ff4 (72)
0x3fb0|1c 00 00 00 00 00 00 00 1c 00 00 00 00 00 00 00|................|
*     |until 0x3ff3.7 (72)                            |                |
      |                                               |                |    [2]{}: load_command 0x240-0x4020 (15840)
0x0240|19 00 00 00                                    |....            |      cmd: "segment_64" (0x19) 0x240-0x244 (4)
0x0240|            38 01 00 00                        |    8...        |      cmdsize: 312 0x244-0x248 (4)
      |                                               |                |      segment_command{}: 0x248-0x288 (64)
      |                                               |                |        arch_bits: 64
0x0240|                        5f 5f 44 41 54 41 00 00|        __DATA..|        segname: "__DATA" 0x248-0x258 (16)
0x0250|00 00 00 00 00 00 00 00                        |........        |
0x0250|                        00 40 00 00 01 00 00 00|        .@......|        vmaddr: 0x100004000 0x258-0x260 (8)
0x0260|00 40 00 00 00 00 00 00                        |.@......        |        vmsize: 16384 0x260-0x268 (8)
0x0260|                        00 40 00 00 00 00 00 00|        .@......|        fileoff: 0x4000 0x268-0x270 (8)
0x0270|00 40 00 00 00 00 00 00                        |.@......        |        tfilesize: 16384 0x270-0x278 (8)
0x0270|                        03 00 00 00            |        ....    |        initprot: 3 0x278-0x27c (4)
0x0270|                                    03 00 00 00|            ....|        maxprot: 3 0x27c-0x280 (4)
0x0280|03 00 00 00                                    |....            |        nsects: 3 0x280-0x284 (4)
      |                                               |                |        flags{}: 0x284-0x288 (4)
0x0280|            00                                 |    .           |          reserved0: raw bits 0x284-0x284.4 (0.4)
0x0280|            00                                 |    .           |          protected_version_1: false 0x284.4-0x284.5 (0.1)
0x0280|            00                                 |    .           |          noreloc: false 0x284.5-0x284.6 (0.1)
0x0280|            00                                 |    .           |          fvmlib: false 0x284.6-0x284.7 (0.1)
0x0280|            00                                 |    .           |          highvm: false 0x284.7-0x285 (0.1)
0x0280|               00 00 00                        |     ...        |          reserved1: raw bits 0x285-0x288 (3)
      |                                               |                |      sections[0:3]: 0x288-0x4020 (15768)
      |                                               |                |        [0]{}: section 0x288-0x4008 (15744)
0x0280|                        5f 5f 6e 6c 5f 73 79 6d|        __nl_sym|          sectname: "__nl_symbol_ptr" 0x288-0x298 (16)
0x0290|62 6f 6c 5f 70 74 72 00                        |bol_ptr.        |
0x0290|                        5f 5f 44 41 54 41 00 00|        __DATA..|          segname: "__DATA" 0x298-0x2a8 (16)
0x02a0|00 00 00 00 00 00 00 00                        |........        |
0x02a0|                        00 40 00 00 01 00 00 00|        .@......|          address: 0x100004000 0x2a8-0x2b0 (8)
0x02b0|08 00 00 00 00 00 00 00                        |........        |          size: 8 0x2b0-0x2b8 (8)
0x02b0|                        00 40 00 00            |        .@..    |          offset: 0x4000 0x2b8-0x2bc (4)
0x02b0|                                    03 00 00 00|            ....|          align: 3 0x2bc-0x2c0 (4)
0x02c0|00 00 00 00                                    |....            |          reloff: 0 0x2c0-0x2c4 (4)
0x02c0|            00 00 00 00                        |    ....        |          nreloc: 0 0x2c4-0x2c8 (4)
      |                                               |                |          flags{}: 0x2c8-0x2cc (4)
0x02c0|                        06                     |        .       |            type: "non_lazy_symbol_pointers" (6) 0x2c8-0x2c9 (1)
0x02c0|                           00                  |         .      |            reserved2: raw bits 0x2c9-0x2c9.5 (0.5)
0x02c0|                           00                  |         .      |            attr_some_instructions: false 0x2c9.5-0x2c9.6 (0.1)
0x02c0|                           00                  |         .      |            attr_ext_reloc: false 0x2c9.6-0x2c9.7 (0.1)
0x02c0|                           00                  |         .      |            attr_loc_reloc: false 0x2c9.7-0x2ca (0.1)
0x02c0|                              00               |          .     |            reserved1: raw bits 0x2ca-0x2cb (1)
0x02c0|                                 00            |           .    |            attr_pure_instructions: false 0x2cb-0x2cb.1 (0.1)
0x02c0|                                 00            |           .    |            attr_no_toc: false 0x2cb.1-0x2cb.2 (0.1)
0x02c0|                                 00            |           .    |            attr_strip_static_syms: false 0x2cb.2-0x2cb.3 (0.1)
0x02c0|                                 00            |           .    |            attr_no_dead_strip: false 0x2cb.3-0x2cb.4 (0.1)
0x02c0|                                 00            |           .    |            attr_live_support: false 0x2cb.4-0x2cb.5 (0.1)
0x02c0|                                 00            |           .    |            attr_self_modifying_code: false 0x2cb.5-0x2cb.6 (0.1)
0x02c0|                                 00            |           .    |            attr_debug: false 0x2cb.6-0x2cb.7 (0.1)
0x02c0|                                 00            |           .    |            reserved0: raw bits 0x2cb.7-0x2cc (0.1)
0x02c0|                                    02 00 00 00|            ....|          reserved1: 2 0x2cc-0x2d0 (4)
0x02d0|00 00 00 00                                    |....            |          reserved2: 0 0x2d0-0x2d4 (4)
0x02d0|            00 00 00 00                        |    ....        |          reserved3: 0 0x2d4-0x2d8 (4)
0x4000|00 00 00 00 00 00 00 00                        |........        |          data: raw bits 0x4000-0x4008 (8)
      |                                               |                |        [1]{}: section 0x2d8-0x4010 (15672)
0x02d0|                        5f 5f 67 6f 74 00 00 00|        __got...|          sectname: "__got" 0x2d8-0x2e8 (16)
0x02e0|00 00 00 00 00 00 00 00                        |........        |
0x02e0|                        5f 5f 44 41 54 41 00 00|        __DATA..|          segname: "__DATA" 0x2e8-0x2f8 (16)
0x02f0|00 00 00 00 00 00 00 00                        |........        |
0x02f0|                        08 40 00 00 01 00 00 00|        .@......|          address: 0x100004008 0x2f8-0x300 (8)
0x0300|08 00 00 00 00 00 00 00                        |........        |          size: 8 0x300-0x308 (8)
0x0300|                        08 40 00 00            |        .@..    |          offset: 0x4008 0x308-0x30c (4)
0x0300|                                    03 00 00 00|            ....|          align: 3 0x30c-0x310 (4)
0x0310|00 00 00 00                                    |....            |          reloff: 0 0x310-0x314 (4)
0x0310|            00 00 00 00                        |    ....        |          nreloc: 0 0x314-0x318 (4)
      |                                               |                |          flags{}: 0x318-0x31c (4)
0x0310|                        06                     |        .       |            type: "non_lazy_symbol_pointers" (6) 0x318-0x319 (1)
0x0310|                           00                  |         .      |            reserved2: raw bits 0x319-0x319.5 (0.5)
0x0310|                           00                  |         .      |            attr_some_instructions: false 0x319.5-0x319.6 (0.1)
0x0310|                           00                  |         .      |            attr_ext_reloc: false 0x319.6-0x319.7 (0.1)
0x0310|                           00                  |         .      |            attr_loc_reloc: false 0x319.7-0x31a (0.1)
0x0310|                              00               |          .     |            reserved1: raw bits 0x31a-0x31b (1)
0x0310|                                 00            |           .    |            attr_pure_instructions: false 0x31b-0x31b.1 (0.1)
0x0310|                                 00            |           .    |            attr_no_toc: false 0x31b.1-0x31b.2 (0.1)
0x0310|                                 00            |           .    |            attr_strip_static_syms: false 0x31b.2-0x31b.3 (0.1)
0x0310|                                 00            |           .    |            attr_no_dead_strip: false 0x31b.3-0x31b.4 (0.1)
0x0310|                                 00            |           .    |            attr_live_support: false 0x31b.4-0x31b.5 (0.1)
0x0310|                                 00            |           .    |            attr_self_modifying_code: false 0x31b.5-0x31b.6 (0.1)
0x0310|                                 00            |           .    |            attr_debug: false 0x31b.6-0x31b.7 (0.1)
0x0310|                                 00            |           .    |            reserved0: raw bits 0x31b.7-0x31c (0.1)
0x0310|                                    03 00 00 00|            ....|          reserved1: 3 0x31c-0x320 (4)
0x0320|00 00 00 00                                    |....            |          reserved2: 0 0x320-0x324 (4)
0x0320|            00 00 00 00                        |    ....        |          reserved3: 0 0x324-0x328 (4)
0x4000|                        00 00 00 00 00 00 00 00|        ........|          data: raw bits 0x4008-0x4010 (8)
      |                                               |                |        [2]{}: section 0x328-0x4020 (15608)
0x0320|                        5f 5f 6c 61 5f 73 79 6d|        __la_sym|          sectname: "__la_symbol_ptr" 0x328-0x338 (16)
0x0330|62 6f 6c 5f 70 74 72 00                        |bol_ptr.        |
0x0330|                        5f 5f 44 41 54 41 00 00|        __DATA..|          segname: "__DATA" 0x338-0x348 (16)
0x0340|00 00 00 00 00 00 00 00                        |........        |
0x0340|                        10 40 00 00 01 00 00 00|        .@......|          address: 0x100004010 0x348-0x350 (8)
0x0350|10 00 00 00 00 00 00 00                        |........        |          size: 16 0x350-0x358 (8)
0x0350|                        10 40 00 00            |        .@..    |          offset: 0x4010 0x358-0x35c (4)
0x0350|                                    03 00 00 00|            ....|          align: 3 0x35c-0x360 (4)
0x0360|00 00 00 00                                    |....            |          reloff: 0 0x360-0x364 (4)
0x0360|            00 00 00 00                        |    ....        |          nreloc: 0 0x364-0x368 (4)
      |                                               |                |          flags{}: 0x368-0x36c (4)
0x0360|                        07                     |        .       |            type: "lazy_symbol_pointers" (7) 0x368-0x369 (1)
0x0360|                           00                  |         .      |            reserved2: raw bits 0x369-0x369.5 (0.5)
0x0360|                           00                  |         .      |            attr_some_instructions: false 0x369.5-0x369.6 (0.1)
0x0360|                           00                  |         .      |            attr_ext_reloc: false 0x369.6-0x369.7 (0.1)
0x0360|                           00                  |         .      |            attr_loc_reloc: false 0x369.7-0x36a (0.1)
0x0360|                              00               |          .     |            reserved1: raw bits 0x36a-0x36b (1)
0x0360|                                 00            |           .    |            attr_pure_instructions: false 0x36b-0x36b.1 (0.1)
0x0360|                                 00            |           .    |            attr_no_toc: false 0x36b.1-0x36b.2 (0.1)
0x0360|                                 00            |           .    |            attr_strip_static_syms: false 0x36b.2-0x36b.3 (0.1)
0x0360|                                 00            |           .    |            attr_no_dead_strip: false 0x36b.3-0x36b.4 (0.1)
0x0360|                                 00            |           .    |            attr_live_support: false 0x36b.4-0x36b.5 (0.1)
0x0360|                                 00            |           .    |            attr_self_modifying_code: false 0x36b.5-0x36b.6 (0.1)
0x0360|                                 00            |           .    |            attr_debug: false 0x36b.6-0x36b.7 (0.1)
0x0360|                                 00            |           .    |            reserved0: raw bits 0x36b.7-0x36c (0.1)
0x0360|                                    04 00 00 00|            ....|          reserved1: 4 0x36c-0x370 (4)
0x0370|00 00 00 00                                    |....            |          reserved2: 0 0x370-0x374 (4)
0x0370|            00 00 00 00                        |    ....        |          reserved3: 0 0x374-0x378 (4)
0x4010|90 3f 00 00 01 00 00 00 9a 3f 00 00 01 00 00 00|.?.......?......|          data: raw bits 0x4010-0x4020 (16)
      |                                               |                |    [3]{}: load_command 0x378-0x3c0 (72)
0x0370|                        19 00 00 00            |        ....    |      cmd: "segment_64" (0x19) 0x378-0x37c (4)
0x0370|                                    48 00 00 00|            H...|      cmdsize: 72 0x37c-0x380 (4)
      |                                               |                |      segment_command{}: 0x380-0x3c0 (64)
      |                                               |                |        arch_bits: 64
0x0380|5f 5f 4c 49 4e 4b 45 44 49 54 00 00 00 00 00 00|__LINKEDIT......|        segname: "__LINKEDIT" 0x380-0x390 (16)
0x0390|00 80 00 00 01 00 00 00                        |........        |        vmaddr: 0x100008000 0x390-0x398 (8)
0x0390|                        00 40 00 00 00 00 00 00|        .@......|        vmsize: 16384 0x398-0x3a0 (8)
0x03a0|00 80 00 00 00 00 00 00                        |........        |        fileoff: 0x8000 0x3a0-0x3a8 (8)
0x03a0|                        40 01 00 00 00 00 00 00|        @.......|        tfilesize: 320 0x3a8-0x3b0 (8)
0x03b0|01 00 00 00                                    |....            |        initprot: 1 0x3b0-0x3b4 (4)
0x03b0|            01 00 00 00                        |    ....        |        maxprot: 1 0x3b4-0x3b8 (4)
0x03b0|                        00 00 00 00            |        ....    |        nsects: 0 0x3b8-0x3bc (4)
      |                                               |                |        flags{}: 0x3bc-0x3c0 (4)
0x03b0|                                    00         |            .   |          reserved0: raw bits 0x3bc-0x3bc.4 (0.4)
0x03b0|                                    00         |            .   |          protected_version_1: false 0x3bc.4-0x3bc.5 (0.1)
0x03b0|                                    00         |            .   |          noreloc: false 0x3bc.5-0x3bc.6 (0.1)
0x03b0|                                    00         |            .   |          fvmlib: false 0x3bc.6-0x3bc.7 (0.1)
0x03b0|                                    00         |            .   |          highvm: false 0x3bc.7-0x3bd (0.1)
0x03b0|                                       00 00 00|             ...|          reserved1: raw bits 0x3bd-0x3c0 (3)
      |                                               |                |      sections[0:0]: 0x3c0-0x3c0 (0)
      |                                               |                |    [4]{}: load_command 0x3c0-0x3f0 (48)
0x03c0|22 00 00 80                                    |"...            |      cmd: "dyld_info_only" (0x80000022) 0x3c0-0x3c4 (4)
0x03c0|            30 00 00 00                        |    0...        |      cmdsize: 48 0x3c4-0x3c8 (4)
      |                                               |                |      dyld_info{}: 0x3c8-0x3f0 (40)
0x03c0|                        00 80 00 00            |        ....    |        rebase_off: 0x8000 0x3c8-0x3cc (4)
0x03c0|                                    08 00 00 00|            ....|        rebase_size: 8 0x3cc-0x3d0 (4)
0x03d0|08 80 00 00                                    |....            |        bind_off: 0x8008 0x3d0-0x3d4 (4)
0x03d0|            18 00 00 00                        |    ....        |        bind_size: 24 0x3d4-0x3d8 (4)
0x03d0|                        00 00 00 00            |        ....    |        weak_bind_off: 0x0 0x3d8-0x3dc (4)
0x03d0|                                    00 00 00 00|            ....|        weak_bind_size: 0 0x3dc-0x3e0 (4)
0x03e0|20 80 00 00                                    | ...            |        lazy_bind_off: 0x8020 0x3e0-0x3e4 (4)
0x03e0|            20 00 00 00                        |     ...        |        lazy_bind_size: 32 0x3e4-0x3e8 (4)
0x03e0|                        40 80 00 00            |        @...    |        export_off: 0x8040 0x3e8-0x3ec (4)
0x03e0|                                    38 00 00 00|            8...|        export_size: 56 0x3ec-0x3f0 (4)
      |                                               |                |    [5]{}: load_command 0x3f0-0x8140 (32080)
0x03f0|02 00 00 00                                    |....            |      cmd: "symtab" (0x2) 0x3f0-0x3f4 (4)
0x03f0|            18 00 00 00                        |    ....        |      cmdsize: 24 0x3f4-0x3f8 (4)
0x03f0|                        80 80 00 00            |        ....    |      symoff: 32896 0x3f8-0x3fc (4)
0x03f0|                                    06 00 00 00|            ....|      nsyms: 6 0x3fc-0x400 (4)
0x0400|f8 80 00 00                                    |....            |      stroff: 33016 0x400-0x404 (4)
0x0400|            48 00 00 00                        |    H...        |      strsize: 72 0x404-0x408 (4)
      |                                               |                |      symbols[0:6]: 0x8080-0x80e0 (96)
      |                                               |                |        [0]{}: symbol 0x8080-0x8090 (16)
0x8080|02 00 00 00                                    |....            |          strx: "__mh_execute_header" (2) 0x8080-0x8084 (4)
      |                                               |                |          type{}: 0x8084-0x8085 (1)
0x8080|            0f                                 |    .           |            stab: 0 0x8084-0x8084.3 (0.3)
0x8080|            0f                                 |    .           |            pext: 0 0x8084.3-0x8084.4 (0.1)
0x8080|            0f                                 |    .           |            type: "sect" (7) 0x8084.4-0x8084.7 (0.3)
0x8080|            0f                                 |    .           |            ext: 1 0x8084.7-0x8085 (0.1)
0x8080|               01                              |     .          |          sect: 1 0x8085-0x8086 (1)
0x8080|                  10 00                        |      ..        |          desc: 16 0x8086-0x8088 (2)
0x8080|                        00 00 00 00 01 00 00 00|        ........|          value: 0x100000000 0x8088-0x8090 (8)
      |                                               |                |        [1]{}: symbol 0x8090-0x80a0 (16)
0x8090|16 00 00 00                                    |....            |          strx: "_aaa" (22) 0x8090-0x8094 (4)
      |                                               |                |          type{}: 0x8094-0x8095 (1)
0x8090|            0f                                 |    .           |            stab: 0 0x8094-0x8094.3 (0.3)
0x8090|            0f                                 |    .           |            pext: 0 0x8094.3-0x8094.4 (0.1)
0x8090|            0f                                 |    .           |            type: "sect" (7) 0x8094.4-0x8094.7 (0.3)
0x8090|            0f                                 |    .           |            ext: 1 0x8094.7-0x8095 (0.1)
0x8090|               01                              |     .          |          sect: 1 0x8095-0x8096 (1)
0x8090|                  00 00                        |      ..        |          desc: 0 0x8096-0x8098 (2)
0x8090|                        40 3f 00 00 01 00 00 00|        @?......|          value: 0x100003f40 0x8098-0x80a0 (8)
      |                                               |                |        [2]{}: symbol 0x80a0-0x80b0 (16)
0x80a0|1b 00 00 00                                    |....            |          strx: "_main" (27) 0x80a0-0x80a4 (4)
      |                                               |                |          type{}: 0x80a4-0x80a5 (1)
0x80a0|            0f                                 |    .           |            stab: 0 0x80a4-0x80a4.3 (0.3)
0x80a0|            0f                                 |    .           |            pext: 0 0x80a4.3-0x80a4.4 (0.1)
0x80a0|            0f                                 |    .           |            type: "sect" (7) 0x80a4.4-0x80a4.7 (0.3)
0x80a0|            0f                                 |    .           |            ext: 1 0x80a4.7-0x80a5 (0.1)
0x80a0|               01                              |     .          |          sect: 1 0x80a5-0x80a6 (1)
0x80a0|                  00 00                        |      ..        |          desc: 0 0x80a6-0x80a8 (2)
0x80a0|                        60 3f 00 00 01 00 00 00|        `?......|          value: 0x100003f60 0x80a8-0x80b0 (8)
      |                                               |                |        [3]{}: symbol 0x80b0-0x80c0 (16)
0x80b0|21 00 00 00                                    |!...            |          strx: "_libbbb_bbb" (33) 0x80b0-0x80b4 (4)
      |                                               |                |          type{}: 0x80b4-0x80b5 (1)
0x80b0|            01                                 |    .           |            stab: 0 0x80b4-0x80b4.3 (0.3)
0x80b0|            01                                 |    .           |            pext: 0 0x80b4.3-0x80b4.4 (0.1)
0x80b0|            01                                 |    .           |            type: "undef" (0) 0x80b4.4-0x80b4.7 (0.3)
0x80b0|            01                                 |    .           |            ext: 1 0x80b4.7-0x80b5 (0.1)
0x80b0|               00                              |     .          |          sect: 0 0x80b5-0x80b6 (1)
0x80b0|                  00 01                        |      ..        |          desc: 256 0x80b6-0x80b8 (2)
0x80b0|                        00 00 00 00 00 00 00 00|        ........|          value: 0x0 0x80b8-0x80c0 (8)
      |                                               |                |        [4]{}: symbol 0x80c0-0x80d0 (16)
0x80c0|2d 00 00 00                                    |-...            |          strx: "_printf" (45) 0x80c0-0x80c4 (4)
      |                                               |                |          type{}: 0x80c4-0x80c5 (1)
0x80c0|            01                                 |    .           |            stab: 0 0x80c4-0x80c4.3 (0.3)
0x80c0|            01                                 |    .           |            pext: 0 0x80c4.3-0x80c4.4 (0.1)
0x80c0|            01                                 |    .           |            type: "undef" (0) 0x80c4.4-0x80c4.7 (0.3)
0x80c0|            01                                 |    .           |            ext: 1 0x80c4.7-0x80c5 (0.1)
0x80c0|               00                              |     .          |          sect: 0 0x80c5-0x80c6 (1)
0x80c0|                  00 02                        |      ..        |          desc: 512 0x80c6-0x80c8 (2)
0x80c0|                        00 00 00 00 00 00 00 00|        ........|          value: 0x0 0x80c8-0x80d0 (8)
      |                                               |                |        [5]{}: symbol 0x80d0-0x80e0 (16)
0x80d0|35 00 00 00                                    |5...            |          strx: "dyld_stub_binder" (53) 0x80d0-0x80d4 (4)
      |                                               |                |          type{}: 0x80d4-0x80d5 (1)
0x80d0|            01                                 |    .           |            stab: 0 0x80d4-0x80d4.3 (0.3)
0x80d0|            01                                 |    .           |            pext: 0 0x80d4.3-0x80d4.4 (0.1)
0x80d0|            01                                 |    .           |            type: "undef" (0) 0x80d4.4-0x80d4.7 (0.3)
0x80d0|            01                                 |    .           |            ext: 1 0x80d4.7-0x80d5 (0.1)
0x80d0|               00                              |     .          |          sect: 0 0x80d5-0x80d6 (1)
0x80d0|                  00 02                        |      ..        |          desc: 512 0x80d6-0x80d8 (2)
0x80d0|                        00 00 00 00 00 00 00 00|        ........|          value: 0x0 0x80d8-0x80e0 (8)
0x80f0|                        20 00 5f 5f 6d 68 5f 65|         .__mh_e|      str_table: raw bits 0x80f8-0x8140 (72)
0x8100|78 65 63 75 74 65 5f 68 65 61 64 65 72 00 5f 61|xecute_header._a|
*     |until 0x813f.7 (end) (72)                      |                |
      |                                               |                |    [6]{}: load_command 0x408-0x458 (80)
0x0400|                        0b 00 00 00            |        ....    |      cmd: "dysymtab" (0xb) 0x408-0x40c (4)
0x0400|                                    50 00 00 00|            P...|      cmdsize: 80 0x40c-0x410 (4)
0x0410|00 00 00 00                                    |....            |      ilocalsym: 0 0x410-0x414 (4)
0x0410|            00 00 00 00                        |    ....        |      nlocalsym: 0 0x414-0x418 (4)
0x0410|                        00 00 00 00            |        ....    |      iextdefsym: 0 0x418-0x41c (4)
0x0410|                                    03 00 00 00|            ....|      nextdefsym: 3 0x41c-0x420 (4)
0x0420|03 00 00 00                                    |....            |      iundefsym: 3 0x420-0x424 (4)
0x0420|            03 00 00 00                        |    ....        |      nundefsym: 3 0x424-0x428 (4)
0x0420|                        00 00 00 00            |        ....    |      tocoff: 0 0x428-0x42c (4)
0x0420|                                    00 00 00 00|            ....|      ntoc: 0 0x42c-0x430 (4)
0x0430|00 00 00 00                                    |....            |      modtaboff: 0 0x430-0x434 (4)
0x0430|            00 00 00 00                        |    ....        |      nmodtab: 0 0x434-0x438 (4)
0x0430|                        00 00 00 00            |        ....    |      extrefsymoff: 0 0x438-0x43c (4)
0x0430|                                    00 00 00 00|            ....|      nextrefsyms: 0 0x43c-0x440 (4)
0x0440|e0 80 00 00                                    |....            |      indirectsymoff: 32992 0x440-0x444 (4)
0x0440|            06 00 00 00                        |    ....        |      nindirectsyms: 6 0x444-0x448 (4)
0x0440|                        00 00 00 00            |        ....    |      extreloff: 0 0x448-0x44c (4)
0x0440|                                    00 00 00 00|            ....|      nextrel: 0 0x44c-0x450 (4)
0x0450|00 00 00 00                                    |....            |      locreloff: 0 0x450-0x454 (4)
0x0450|            00 00 00 00                        |    ....        |      nlocrel: 0 0x454-0x458 (4)
      |                                               |                |    [7]{}: load_command 0x458-0x478 (32)
0x0450|                        0e 00 00 00            |        ....    |      cmd: "load_dylinker" (0xe) 0x458-0x45c (4)
0x0450|                                    20 00 00 00|             ...|      cmdsize: 32 0x45c-0x460 (4)
0x0460|0c 00 00 00                                    |....            |      offset: 0xc 0x460-0x464 (4)
0x0460|            2f 75 73 72 2f 6c 69 62 2f 64 79 6c|    /usr/lib/dyl|      name: "/usr/lib/dyld" 0x464-0x478 (20)
0x0470|64 00 00 00 00 00 00 00                        |d.......        |
      |                                               |                |    [8]{}: load_command 0x478-0x490 (24)
0x0470|                        1b 00 00 00            |        ....    |      cmd: "uuid" (0x1b) 0x478-0x47c (4)
0x0470|                                    18 00 00 00|            ....|      cmdsize: 24 0x47c-0x480 (4)
      |                                               |                |      uuid_command{}: 0x480-0x490 (16)
0x0480|52 81 b8 a8 8b ed 36 8a 86 12 e7 d3 45 59 0e 48|R.....6.....EY.H|        uuid: raw bits 0x480-0x490 (16)
      |                                               |                |    [9]{}: load_command 0x490-0x4a0 (16)
0x0490|24 00 00 00                                    |$...            |      cmd: "version_min_macosx" (0x24) 0x490-0x494 (4)
0x0490|            10 00 00 00                        |    ....        |      cmdsize: 16 0x494-0x498 (4)
0x0490|                        00 0c 0a 00            |        ....    |      version: 658432 0x498-0x49c (4)
0x0490|                                    00 01 0c 00|            ....|      sdk: 786688 0x49c-0x4a0 (4)
      |                                               |                |    [10]{}: load_command 0x4a0-0x4b0 (16)
0x04a0|2a 00 00 00                                    |*...            |      cmd: "source_version" (0x2a) 0x4a0-0x4a4 (4)
0x04a0|            10 00 00 00                        |    ....        |      cmdsize: 16 0x4a4-0x4a8 (4)
      |                                               |                |      source_version_tag{}: 0x4a8-0x4b0 (8)
0x04a0|                        00 00 00 00 00 00 00 00|        ........|        tag: 0 0x4a8-0x4b0 (8)
      |                                               |                |    [11]{}: load_command 0x4b0-0x4c8 (24)
0x04b0|28 00 00 80                                    |(...            |      cmd: "main" (0x80000028) 0x4b0-0x4b4 (4)
0x04b0|            18 00 00 00                        |    ....        |      cmdsize: 24 0x4b4-0x4b8 (4)
      |                                               |                |      entrypoint{}: 0x4b8-0x4c8 (16)
0x04b0|                        60 3f 00 00 00 00 00 00|        `?......|        entryoff: 0x3f60 0x4b8-0x4c0 (8)
0x04c0|00 00 00 00 00 00 00 00                        |........        |        stacksize: 0 0x4c0-0x4c8 (8)
      |                                               |                |    [12]{}: load_command 0x4c8-0x4f0 (40)
0x04c0|                        0c 00 00 00            |        ....    |      cmd: "load_dylib" (0xc) 0x4c8-0x4cc (4)
0x04c0|                                    28 00 00 00|            (...|      cmdsize: 40 0x4cc-0x4d0 (4)
      |                                               |                |      dylib_command{}: 0x4d0-0x4f0 (32)
0x04d0|18 00 00 00                                    |....            |        offset: 0x18 0x4d0-0x4d4 (4)
0x04d0|            02 00 00 00                        |    ....        |        timestamp: 2 (1970-01-01T00:00:02Z) 0x4d4-0x4d8 (4)
0x04d0|                        00 00 00 00            |        ....    |        current_version: 0 0x4d8-0x4dc (4)
0x04d0|                                    00 00 00 00|            ....|        compatibility_version: 0 0x4dc-0x4e0 (4)
0x04e0|6c 69 62 62 62 62 2e 73 6f 00 00 00 00 00 00 00|libbbb.so.......|        name: "libbbb.so" 0x4e0-0x4f0 (16)
      |                                               |                |    [13]{}: load_command 0x4f0-0x528 (56)
0x04f0|0c 00 00 00                                    |....            |      cmd: "load_dylib" (0xc) 0x4f0-0x4f4 (4)
0x04f0|            38 00 00 00                        |    8...        |      cmdsize: 56 0x4f4-0x4f8 (4)
      |                                               |                |      dylib_command{}: 0x4f8-0x528 (48)
0x04f0|                        18 00 00 00            |        ....    |        offset: 0x18 0x4f8-0x4fc (4)
0x04f0|                                    02 00 00 00|            ....|        timestamp: 2 (1970-01-01T00:00:02Z) 0x4fc-0x500 (4)
0x0500|00 00 1f 05                                    |....            |        current_version: 85917696 0x500-0x504 (4)
0x0500|            00 00 01 00                        |    ....        |        compatibility_version: 65536 0x504-0x508 (4)
0x0500|                        2f 75 73 72 2f 6c 69 62|        /usr/lib|        name: "/usr/lib/libSystem.B.dylib" 0x508-0x528 (32)
0x0510|2f 6c 69 62 53 79 73 74 65 6d 2e 42 2e 64 79 6c|/libSystem.B.dyl|
0x0520|69 62 00 00 00 00 00 00                        |ib......        |
      |                                               |                |    [14]{}: load_command 0x528-0x538 (16)
0x0520|                        26 00 00 00            |        &...    |      cmd: "function_starts" (0x26) 0x528-0x52c (4)
0x0520|                                    10 00 00 00|            ....|      cmdsize: 16 0x52c-0x530 (4)
      |                                               |                |      linkedit_data{}: 0x530-0x538 (8)
0x0530|78 80 00 00                                    |x...            |        off: 32888 0x530-0x534 (4)
0x0530|            08 00 00 00                        |    ....        |        size: 8 0x534-0x538 (4)
      |                                               |                |    [15]{}: load_command 0x538-0x548 (16)
0x0530|                        29 00 00 00            |        )...    |      cmd: "data_in_code" (0x29) 0x538-0x53c (4)
0x0530|                                    10 00 00 00|            ....|      cmdsize: 16 0x53c-0x540 (4)
      |                                               |                |      linkedit_data{}: 0x540-0x548 (8)
0x0540|80 80 00 00                                    |....            |        off: 32896 0x540-0x544 (4)
0x0540|            00 00 00 00                        |    ....        |        size: 0 0x544-0x548 (4)
0x0540|                        00 00 00 00 00 00 00 00|        ........|  gap0: raw bits 0x548-0x3f40 (14840)
0x0550|00 00 00 00 00 00 00 00 00 00 00 00 00 00 00 00|................|
*     |until 0x3f3f.7 (14840)                         |                |
0x3fa0|                           00 00 00            |         ...    |  gap1: raw bits 0x3fa9-0x3fac (3)
0x3ff0|            00 00 00 00 00 00 00 00 00 00 00 00|    ............|  gap2: raw bits 0x3ff4-0x4000 (12)
0x4020|00 00 00 00 00 00 00 00 00 00 00 00 00 00 00 00|................|  gap3: raw bits 0x4020-0x8080 (16480)
*     |until 0x807f.7 (16480)                         |                |
0x80e0|03 00 00 00 04 00 00 00 00 00 00 40 05 00 00 00|...........@....|  gap4: raw bits 0x80e0-0x80f8 (24)
0x80f0|03 00 00 00 04 00 00 00                        |........        |
