$ fq dv libbbb.so
      |00 01 02 03 04 05 06 07 08 09 0a 0b 0c 0d 0e 0f|0123456789abcdef|.{}: libbbb.so (macho) 0x0-0x80b8 (32952)
      |                                               |                |  header{}: 0x0-0x20 (32)
      |                                               |                |    arch_bits: 64
0x0000|cf fa ed fe                                    |....            |    magic: "64le" (0xfeedfacf) (64-bit little endian) 0x0-0x4 (4)
      |                                               |                |    bits: 64
0x0000|            07 00 00 01                        |    ....        |    cputype: "x86_64" (0x1000007) 0x4-0x8 (4)
0x0000|                        03 00 00 00            |        ....    |    cpusubtype: 0x3 0x8-0xc (4)
0x0000|                                    06 00 00 00|            ....|    filetype: "dylib" (6) 0xc-0x10 (4)
0x0010|0d 00 00 00                                    |....            |    ncdms: 13 0x10-0x14 (4)
0x0010|            a8 04 00 00                        |    ....        |    sizeofncdms: 1192 0x14-0x18 (4)
      |                                               |                |    flags{}: 0x18-0x1c (4)
0x0010|                        85                     |        .       |      twolevel: true 0x18-0x18.1 (0.1)
0x0010|                        85                     |        .       |      lazy_init: false 0x18.1-0x18.2 (0.1)
0x0010|                        85                     |        .       |      split_segs: false 0x18.2-0x18.3 (0.1)
0x0010|                        85                     |        .       |      prebound: false 0x18.3-0x18.4 (0.1)
0x0010|                        85                     |        .       |      bindatload: false 0x18.4-0x18.5 (0.1)
0x0010|                        85                     |        .       |      dyldlink: true 0x18.5-0x18.6 (0.1)
0x0010|                        85                     |        .       |      incrlink: false 0x18.6-0x18.7 (0.1)
0x0010|                        85                     |        .       |      noundefs: true 0x18.7-0x19 (0.1)
0x0010|                           00                  |         .      |      weak_defines: false 0x19-0x19.1 (0.1)
0x0010|                           00                  |         .      |      canonical: false 0x19.1-0x19.2 (0.1)
0x0010|                           00                  |         .      |      subsections_via_symbols: false 0x19.2-0x19.3 (0.1)
0x0010|                           00                  |         .      |      allmodsbound: false 0x19.3-0x19.4 (0.1)
0x0010|                           00                  |         .      |      prebindable: false 0x19.4-0x19.5 (0.1)
0x0010|                           00                  |         .      |      nofixprebinding: false 0x19.5-0x19.6 (0.1)
0x0010|                           00                  |         .      |      nomultidefs: false 0x19.6-0x19.7 (0.1)
0x0010|                           00                  |         .      |      force_flat: false 0x19.7-0x1a (0.1)
0x0010|                              10               |          .     |      has_tlv_descriptors: false 0x1a-0x1a.1 (0.1)
0x0010|                              10               |          .     |      dead_strippable_dylib: false 0x1a.1-0x1a.2 (0.1)
0x0010|                              10               |          .     |      pie: false 0x1a.2-0x1a.3 (0.1)
0x0010|                              10               |          .     |      no_reexported_dylibs: true 0x1a.3-0x1a.4 (0.1)
0x0010|                              10               |          .     |      setuid_safe: false 0x1a.4-0x1a.5 (0.1)
0x0010|                              10               |          .     |      root_safe: false 0x1a.5-0x1a.6 (0.1)
0x0010|                              10               |          .     |      allow_stack_execution: false 0x1a.6-0x1a.7 (0.1)
0x0010|                              10               |          .     |      binds_to_weak: false 0x1a.7-0x1b (0.1)
0x0010|                                 00            |           .    |      reserved: raw bits 0x1b-0x1b.6 (0.6)
0x0010|                                 00            |           .    |      app_extension_safe: false 0x1b.6-0x1b.7 (0.1)
0x0010|                                 00            |           .    |      no_heap_execution: false 0x1b.7-0x1c (0.1)
0x0010|                                    00 00 00 00|            ....|    reserved: raw bits (all zero) 0x1c-0x20 (4)
      |                                               |                |  load_commands[0:13]: 0x20-0x80b8 (32920)
      |                                               |                |    [0]{}: load_command 0x20-0x3ffc (16348)
0x0020|19 00 00 00                                    |....            |      cmd: "segment_64" (0x19) 0x20-0x24 (4)
0x0020|            d8 01 00 00                        |    ....        |      cmdsize: 472 0x24-0x28 (4)
      |                                               |                |      segment_command{}: 0x28-0x68 (64)
      |                                               |                |        arch_bits: 64
0x0020|                        5f 5f 54 45 58 54 00 00|        __TEXT..|        segname: "__TEXT" 0x28-0x38 (16)
0x0030|00 00 00 00 00 00 00 00                        |........        |
0x0030|                        00 00 00 00 00 00 00 00|        ........|        vmaddr: 0x0 0x38-0x40 (8)
0x0040|00 40 00 00 00 00 00 00                        |.@......        |        vmsize: 16384 0x40-0x48 (8)
0x0040|                        00 00 00 00 00 00 00 00|        ........|        fileoff: 0x0 0x48-0x50 (8)
0x0050|00 40 00 00 00 00 00 00                        |.@......        |        tfilesize: 16384 0x50-0x58 (8)
0x0050|                        05 00 00 00            |        ....    |        initprot: 5 0x58-0x5c (4)
0x0050|                                    05 00 00 00|            ....|        maxprot: 5 0x5c-0x60 (4)
0x0060|05 00 00 00                                    |....            |        nsects: 5 0x60-0x64 (4)
      |                                               |                |        flags{}: 0x64-0x68 (4)
0x0060|            00                                 |    .           |          reserved0: raw bits 0x64-0x64.4 (0.4)
0x0060|            00                                 |    .           |          protected_version_1: false 0x64.4-0x64.5 (0.1)
0x0060|            00                                 |    .           |          noreloc: false 0x64.5-0x64.6 (0.1)
0x0060|            00                                 |    .           |          fvmlib: false 0x64.6-0x64.7 (0.1)
0x0060|            00                                 |    .           |          highvm: false 0x64.7-0x65 (0.1)
0x0060|               00 00 00                        |     ...        |          reserved1: raw bits 0x65-0x68 (3)
      |                                               |                |      sections[0:5]: 0x68-0x3ffc (16276)
      |                                               |                |        [0]{}: section 0x68-0x3f84 (16156)
0x0060|                        5f 5f 74 65 78 74 00 00|        __text..|          sectname: "__text" 0x68-0x78 (16)
0x0070|00 00 00 00 00 00 00 00                        |........        |
0x0070|                        5f 5f 54 45 58 54 00 00|        __TEXT..|          segname: "__TEXT" 0x78-0x88 (16)
0x0080|00 00 00 00 00 00 00 00                        |........        |
0x0080|                        70 3f 00 00 00 00 00 00|        p?......|          address: 0x3f70 0x88-0x90 (8)
0x0090|14 00 00 00 00 00 00 00                        |........        |          size: 20 0x90-0x98 (8)
0x0090|                        70 3f 00 00            |        p?..    |          offset: 0x3f70 0x98-0x9c (4)
0x0090|                                    04 00 00 00|            ....|          align: 4 0x9c-0xa0 (4)
0x00a0|00 00 00 00                                    |....            |          reloff: 0 0xa0-0xa4 (4)
0x00a0|            00 00 00 00                        |    ....        |          nreloc: 0 0xa4-0xa8 (4)
      |                                               |                |          flags{}: 0xa8-0xac (4)
0x00a0|                        00                     |        .       |            type: "regular" (0) 0xa8-0xa9 (1)
0x00a0|                           04                  |         .      |            reserved2: raw bits 0xa9-0xa9.5 (0.5)
0x00a0|                           04                  |         .      |            attr_some_instructions: true 0xa9.5-0xa9.6 (0.1)
0x00a0|                           04                  |         .      |            attr_ext_reloc: false 0xa9.6-0xa9.7 (0.1)
0x00a0|                           04                  |         .      |            attr_loc_reloc: false 0xa9.7-0xaa (0.1)
0x00a0|                              00               |          .     |            reserved1: raw bits 0xaa-0xab (1)
0x00a0|                                 80            |           .    |            attr_pure_instructions: true 0xab-0xab.1 (0.1)
0x00a0|                                 80            |           .    |            attr_no_toc: false 0xab.1-0xab.2 (0.1)
0x00a0|                                 80            |           .    |            attr_strip_static_syms: false 0xab.2-0xab.3 (0.1)
0x00a0|                                 80            |           .    |            attr_no_dead_strip: false 0xab.3-0xab.4 (0.1)
0x00a0|                                 80            |           .    |            attr_live_support: false 0xab.4-0xab.5 (0.1)
0x00a0|                                 80            |           .    |            attr_self_modifying_code: false 0xab.5-0xab.6 (0.1)
0x00a0|                                 80            |           .    |            attr_debug: false 0xab.6-0xab.7 (0.1)
0x00a0|                                 80            |           .    |            reserved0: raw bits 0xab.7-0xac (0.1)
0x00a0|                                    00 00 00 00|            ....|          reserved1: 0 0xac-0xb0 (4)
0x00b0|00 00 00 00                                    |....            |          reserved2: 0 0xb0-0xb4 (4)
0x00b0|            00 00 00 00                        |    ....        |          reserved3: 0 0xb4-0xb8 (4)
0x3f70|55 48 89 e5 48 8d 3d 2b 00 00 00 b0 00 e8 02 00|UH..H.=+........|          data: raw bits 0x3f70-0x3f84 (20)
0x3f80|00 00 5d c3                                    |..].            |
      |                                               |                |        [1]{}: section 0xb8-0x3f8a (16082)
0x00b0|                        5f 5f 73 74 75 62 73 00|        __stubs.|          sectname: "__stubs" 0xb8-0xc8 (16)
0x00c0|00 00 00 00 00 00 00 00                        |........        |
0x00c0|                        5f 5f 54 45 58 54 00 00|        __TEXT..|          segname: "__TEXT" 0xc8-0xd8 (16)
0x00d0|00 00 00 00 00 00 00 00                        |........        |
0x00d0|                        84 3f 00 00 00 00 00 00|        .?......|          address: 0x3f84 0xd8-0xe0 (8)
0x00e0|06 00 00 00 00 00 00 00                        |........        |          size: 6 0xe0-0xe8 (8)
0x00e0|                        84 3f 00 00            |        .?..    |          offset: 0x3f84 0xe8-0xec (4)
0x00e0|                                    01 00 00 00|            ....|          align: 1 0xec-0xf0 (4)
0x00f0|00 00 00 00                                    |....            |          reloff: 0 0xf0-0xf4 (4)
0x00f0|            00 00 00 00                        |    ....        |          nreloc: 0 0xf4-0xf8 (4)
      |                                               |                |          flags{}: 0xf8-0xfc (4)
0x00f0|                        08                     |        .       |            type: "symbol_stubs" (8) 0xf8-0xf9 (1)
0x00f0|                           04                  |         .      |            reserved2: raw bits 0xf9-0xf9.5 (0.5)
0x00f0|                           04                  |         .      |            attr_some_instructions: true 0xf9.5-0xf9.6 (0.1)
0x00f0|                           04                  |         .      |            attr_ext_reloc: false 0xf9.6-0xf9.7 (0.1)
0x00f0|                           04                  |         .      |            attr_loc_reloc: false 0xf9.7-0xfa (0.1)
0x00f0|                              00               |          .     |            reserved1: raw bits 0xfa-0xfb (1)
0x00f0|                                 80            |           .    |            attr_pure_instructions: true 0xfb-0xfb.1 (0.1)
0x00f0|                                 80            |           .    |            attr_no_toc: false 0xfb.1-0xfb.2 (0.1)
0x00f0|                                 80            |           .    |            attr_strip_static_syms: false 0xfb.2-0xfb.3 (0.1)
0x00f0|                                 80            |           .    |            attr_no_dead_strip: false 0xfb.3-0xfb.4 (0.1)
0x00f0|                                 80            |           .    |            attr_live_support: false 0xfb.4-0xfb.5 (0.1)
0x00f0|                                 80            |           .    |            attr_self_modifying_code: false 0xfb.5-0xfb.6 (0.1)
0x00f0|                                 80            |           .    |            attr_debug: false 0xfb.6-0xfb.7 (0.1)
0x00f0|                                 80            |           .    |            reserved0: raw bits 0xfb.7-0xfc (0.1)
0x00f0|                                    00 00 00 00|            ....|          reserved1: 0 0xfc-0x100 (4)
0x0100|06 00 00 00                                    |....            |          reserved2: 6 0x100-0x104 (4)
0x0100|            00 00 00 00                        |    ....        |          reserved3: 0 0x104-0x108 (4)
0x3f80|            ff 25 86 00 00 00                  |    .%....      |          data: raw bits 0x3f84-0x3f8a (6)
      |                                               |                |        [2]{}: section 0x108-0x3fa6 (16030)
0x0100|                        5f 5f 73 74 75 62 5f 68|        __stub_h|          sectname: "__stub_helper" 0x108-0x118 (16)
0x0110|65 6c 70 65 72 00 00 00                        |elper...        |
0x0110|                        5f 5f 54 45 58 54 00 00|        __TEXT..|          segname: "__TEXT" 0x118-0x128 (16)
0x0120|00 00 00 00 00 00 00 00                        |........        |
0x0120|                        8c 3f 00 00 00 00 00 00|        .?......|          address: 0x3f8c 0x128-0x130 (8)
0x0130|1a 00 00 00 00 00 00 00                        |........        |          size: 26 0x130-0x138 (8)
0x0130|                        8c 3f 00 00            |        .?..    |          offset: 0x3f8c 0x138-0x13c (4)
0x0130|                                    02 00 00 00|            ....|          align: 2 0x13c-0x140 (4)
0x0140|00 00 00 00                                    |....            |          reloff: 0 0x140-0x144 (4)
0x0140|            00 00 00 00                        |    ....        |          nreloc: 0 0x144-0x148 (4)
      |                                               |                |          flags{}: 0x148-0x14c (4)
0x0140|                        00                     |        .       |            type: "regular" (0) 0x148-0x149 (1)
0x0140|                           04                  |         .      |            reserved2: raw bits 0x149-0x149.5 (0.5)
0x0140|                           04                  |         .      |            attr_some_instructions: true 0x149.5-0x149.6 (0.1)
0x0140|                           04                  |         .      |            attr_ext_reloc: false 0x149.6-0x149.7 (0.1)
0x0140|                           04                  |         .      |            attr_loc_reloc: false 0x149.7-0x14a (0.1)
0x0140|                              00               |          .     |            reserved1: raw bits 0x14a-0x14b (1)
0x0140|                                 80            |           .    |            attr_pure_instructions: true 0x14b-0x14b.1 (0.1)
0x0140|                                 80            |           .    |            attr_no_toc: false 0x14b.1-0x14b.2 (0.1)
0x0140|                                 80            |           .    |            attr_strip_static_syms: false 0x14b.2-0x14b.3 (0.1)
0x0140|                                 80            |           .    |            attr_no_dead_strip: false 0x14b.3-0x14b.4 (0.1)
0x0140|                                 80            |           .    |            attr_live_support: false 0x14b.4-0x14b.5 (0.1)
0x0140|                                 80            |           .    |            attr_self_modifying_code: false 0x14b.5-0x14b.6 (0.1)
0x0140|                                 80            |           .    |            attr_debug: false 0x14b.6-0x14b.7 (0.1)
0x0140|                                 80            |           .    |            reserved0: raw bits 0x14b.7-0x14c (0.1)
0x0140|                                    00 00 00 00|            ....|          reserved1: 0 0x14c-0x150 (4)
0x0150|00 00 00 00                                    |....            |          reserved2: 0 0x150-0x154 (4)
0x0150|            00 00 00 00                        |    ....        |          reserved3: 0 0x154-0x158 (4)
0x3f80|                                    4c 8d 1d 6d|            L..m|          data: raw bits 0x3f8c-0x3fa6 (26)
0x3f90|00 00 00 41 53 ff 25 6d 00 00 00 90 68 00 00 00|...AS.%m....h...|
0x3fa0|00 e9 e6 ff ff ff                              |......          |
      |                                               |                |        [3]{}: section 0x158-0x3fb2 (15962)
0x0150|                        5f 5f 63 73 74 72 69 6e|        __cstrin|          sectname: "__cstring" 0x158-0x168 (16)
0x0160|67 00 00 00 00 00 00 00                        |g.......        |
0x0160|                        5f 5f 54 45 58 54 00 00|        __TEXT..|          segname: "__TEXT" 0x168-0x178 (16)
0x0170|00 00 00 00 00 00 00 00                        |........        |
0x0170|                        a6 3f 00 00 00 00 00 00|        .?......|          address: 0x3fa6 0x178-0x180 (8)
0x0180|0c 00 00 00 00 00 00 00                        |........        |          size: 12 0x180-0x188 (8)
0x0180|                        a6 3f 00 00            |        .?..    |          offset: 0x3fa6 0x188-0x18c (4)
0x0180|                                    00 00 00 00|            ....|          align: 0 0x18c-0x190 (4)
0x0190|00 00 00 00                                    |....            |          reloff: 0 0x190-0x194 (4)
0x0190|            00 00 00 00                        |    ....        |          nreloc: 0 0x194-0x198 (4)
      |                                               |                |          flags{}: 0x198-0x19c (4)
0x0190|                        02                     |        .       |            type: "cstring_literals" (2) 0x198-0x199 (1)
0x0190|                           00                  |         .      |            reserved2: raw bits 0x199-0x199.5 (0.5)
0x0190|                           00                  |         .      |            attr_some_instructions: false 0x199.5-0x199.6 (0.1)
0x0190|                           00                  |         .      |            attr_ext_reloc: false 0x199.6-0x199.7 (0.1)
0x0190|                           00                  |         .      |            attr_loc_reloc: false 0x199.7-0x19a (0.1)
0x0190|                              00               |          .     |            reserved1: raw bits 0x19a-0x19b (1)
0x0190|                                 00            |           .    |            attr_pure_instructions: false 0x19b-0x19b.1 (0.1)
0x0190|                                 00            |           .    |            attr_no_toc: false 0x19b.1-0x19b.2 (0.1)
0x0190|                                 00            |           .    |            attr_strip_static_syms: false 0x19b.2-0x19b.3 (0.1)
0x0190|                                 00            |           .    |            attr_no_dead_strip: false 0x19b.3-0x19b.4 (0.1)
0x0190|                                 00            |           .    |            attr_live_support: false 0x19b.4-0x19b.5 (0.1)
0x0190|                                 00            |           .    |            attr_self_modifying_code: false 0x19b.5-0x19b.6 (0.1)
0x0190|                                 00            |           .    |            attr_debug: false 0x19b.6-0x19b.7 (0.1)
0x0190|                                 00            |           .    |            reserved0: raw bits 0x19b.7-0x19c (0.1)
0x0190|                                    00 00 00 00|            ....|          reserved1: 0 0x19c-0x1a0 (4)
0x01a0|00 00 00 00                                    |....            |          reserved2: 0 0x1a0-0x1a4 (4)
0x01a0|            00 00 00 00                        |    ....        |          reserved3: 0 0x1a4-0x1a8 (4)
      |                                               |                |          cstrings[0:1]: 0x3fa6-0x3fb2 (12)
0x3fa0|                  6c 69 62 62 62 62 5f 62 62 62|      libbbb_bbb|            [0]: "libbbb_bbb\n" cstring 0x3fa6-0x3fb2 (12)
0x3fb0|0a 00                                          |..              |
      |                                               |                |        [4]{}: section 0x1a8-0x3ffc (15956)
0x01a0|                        5f 5f 75 6e 77 69 6e 64|        __unwind|          sectname: "__unwind_info" 0x1a8-0x1b8 (16)
0x01b0|5f 69 6e 66 6f 00 00 00                        |_info...        |
0x01b0|                        5f 5f 54 45 58 54 00 00|        __TEXT..|          segname: "__TEXT" 0x1b8-0x1c8 (16)
0x01c0|00 00 00 00 00 00 00 00                        |........        |
0x01c0|                        b4 3f 00 00 00 00 00 00|        .?......|          address: 0x3fb4 0x1c8-0x1d0 (8)
0x01d0|48 00 00 00 00 00 00 00                        |H.......        |          size: 72 0x1d0-0x1d8 (8)
0x01d0|                        b4 3f 00 00            |        .?..    |          offset: 0x3fb4 0x1d8-0x1dc (4)
0x01d0|                                    02 00 00 00|            ....|          align: 2 0x1dc-0x1e0 (4)
0x01e0|00 00 00 00                                    |....            |          reloff: 0 0x1e0-0x1e4 (4)
0x01e0|            00 00 00 00                        |    ....        |          nreloc: 0 0x1e4-0x1e8 (4)
      |                                               |                |          flags{}: 0x1e8-0x1ec (4)
0x01e0|                        00                     |        .       |            type: "regular" (0) 0x1e8-0x1e9 (1)
0x01e0|                           00                  |         .      |            reserved2: raw bits 0x1e9-0x1e9.5 (0.5)
0x01e0|                           00                  |         .      |            attr_some_instructions: false 0x1e9.5-0x1e9.6 (0.1)
0x01e0|                           00                  |         .      |            attr_ext_reloc: false 0x1e9.6-0x1e9.7 (0.1)
0x01e0|                           00                  |         .      |            attr_loc_reloc: false 0x1e9.7-0x1ea (0.1)
0x01e0|                              00               |          .     |            reserved1: raw bits 0x1ea-0x1eb (1)
0x01e0|                                 00            |           .    |            attr_pure_instructions: false 0x1eb-0x1eb.1 (0.1)
0x01e0|                                 00            |           .    |            attr_no_toc: false 0x1eb.1-0x1eb.2 (0.1)
0x01e0|                                 00            |           .    |            attr_strip_static_syms: false 0x1eb.2-0x1eb.3 (0.1)
0x01e0|                                 00            |           .    |            attr_no_dead_strip: false 0x1eb.3-0x1eb.4 (0.1)
0x01e0|                                 00            |           .    |            attr_live_support: false 0x1eb.4-0x1eb.5 (0.1)
0x01e0|                                 00            |           .    |            attr_self_modifying_code: false 0x1eb.5-0x1eb.6 (0.1)
0x01e0|                                 00            |           .    |            attr_debug: false 0x1eb.6-0x1eb.7 (0.1)
0x01e0|                                 00            |           .    |            reserved0: raw bits 0x1eb.7-0x1ec (0.1)
0x01e0|                                    00 00 00 00|            ....|          reserved1: 0 0x1ec-0x1f0 (4)
0x01f0|00 00 00 00                                    |....            |          reserved2: 0 0x1f0-0x1f4 (4)
0x01f0|            00 00 00 00                        |    ....        |          reserved3: 0 0x1f4-0x1f8 (4)
0x3fb0|            01 00 00 00 1c 00 00 00 00 00 00 00|    ............|          data: raw bits 0x3fb4-0x3ffc (72)
0x3fc0|1c 00 00 00 00 00 00 00 1c 00 00 00 02 00 00 00|................|
*     |until 0x3ffb.7 (72)                            |                |
      |                                               |                |    [1]{}: load_command 0x1f8-0x4018 (15904)
0x01f0|                        19 00 00 00            |        ....    |      cmd: "segment_64" (0x19) 0x1f8-0x1fc (4)
0x01f0|                                    38 01 00 00|            8...|      cmdsize: 312 0x1fc-0x200 (4)
      |                                               |                |      segment_command{}: 0x200-0x240 (64)
      |                                               |                |        arch_bits: 64
0x0200|5f 5f 44 41 54 41 00 00 00 00 00 00 00 00 00 00|__DATA..........|        segname: "__DATA" 0x200-0x210 (16)
0x0210|00 40 00 00 00 00 00 00                        |.@......        |        vmaddr: 0x4000 0x210-0x218 (8)
0x0210|                        00 40 00 00 00 00 00 00|        .@......|        vmsize: 16384 0x218-0x220 (8)
0x0220|00 40 00 00 00 00 00 00                        |.@......        |        fileoff: 0x4000 0x220-0x228 (8)
0x0220|                        00 40 00 00 00 00 00 00|        .@......|        tfilesize: 16384 0x228-0x230 (8)
0x0230|03 00 00 00                                    |....            |        initprot: 3 0x230-0x234 (4)
0x0230|            03 00 00 00                        |    ....        |        maxprot: 3 0x234-0x238 (4)
0x0230|                        03 00 00 00            |        ....    |        nsects: 3 0x238-0x23c (4)
      |                                               |                |        flags{}: 0x23c-0x240 (4)
0x0230|                                    00         |            .   |          reserved0: raw bits 0x23c-0x23c.4 (0.4)
0x0230|                                    00         |            .   |          protected_version_1: false 0x23c.4-0x23c.5 (0.1)
0x0230|                                    00         |            .   |          noreloc: false 0x23c.5-0x23c.6 (0.1)
0x0230|                                    00         |            .   |          fvmlib: false 0x23c.6-0x23c.7 (0.1)
0x0230|                                    00         |            .   |          highvm: false 0x23c.7-0x23d (0.1)
0x0230|                                       00 00 00|             ...|          reserved1: raw bits 0x23d-0x240 (3)
      |                                               |                |      sections[0:3]: 0x240-0x4018 (15832)
      |                                               |                |        [0]{}: section 0x240-0x4008 (15816)
0x0240|5f 5f 6e 6c 5f 73 79 6d 62 6f 6c 5f 70 74 72 00|__nl_symbol_ptr.|          sectname: "__nl_symbol_ptr" 0x240-0x250 (16)
0x0250|5f 5f 44 41 54 41 00 00 00 00 00 00 00 00 00 00|__DATA..........|          segname: "__DATA" 0x250-0x260 (16)
0x0260|00 40 00 00 00 00 00 00                        |.@......        |          address: 0x4000 0x260-0x268 (8)
0x0260|                        08 00 00 00 00 00 00 00|        ........|          size: 8 0x268-0x270 (8)
0x0270|00 40 00 00                                    |.@..            |          offset: 0x4000 0x270-0x274 (4)
0x0270|            03 00 00 00                        |    ....        |          align: 3 0x274-0x278 (4)
0x0270|                        00 00 00 00            |        ....    |          reloff: 0 0x278-0x27c (4)
0x0270|                                    00 00 00 00|            ....|          nreloc: 0 0x27c-0x280 (4)
      |                                               |                |          flags{}: 0x280-0x284 (4)
0x0280|06                                             |.               |            type: "non_lazy_symbol_pointers" (6) 0x280-0x281 (1)
0x0280|   00                                          | .              |            reserved2: raw bits 0x281-0x281.5 (0.5)
0x0280|   00                                          | .              |            attr_some_instructions: false 0x281.5-0x281.6 (0.1)
0x0280|   00                                          | .              |            attr_ext_reloc: false 0x281.6-0x281.7 (0.1)
0x0280|   00                                          | .              |            attr_loc_reloc: false 0x281.7-0x282 (0.1)
0x0280|      00                                       |  .             |            reserved1: raw bits 0x282-0x283 (1)
0x0280|         00                                    |   .            |            attr_pure_instructions: false 0x283-0x283.1 (0.1)
0x0280|         00                                    |   .            |            attr_no_toc: false 0x283.1-0x283.2 (0.1)
0x0280|         00                                    |   .            |            attr_strip_static_syms: false 0x283.2-0x283.3 (0.1)
0x0280|         00                                    |   .            |            attr_no_dead_strip: false 0x283.3-0x283.4 (0.1)
0x0280|         00                                    |   .            |            attr_live_support: false 0x283.4-0x283.5 (0.1)
0x0280|         00                                    |   .            |            attr_self_modifying_code: false 0x283.5-0x283.6 (0.1)
0x0280|         00                                    |   .            |            attr_debug: false 0x283.6-0x283.7 (0.1)
0x0280|         00                                    |   .            |            reserved0: raw bits 0x283.7-0x284 (0.1)
0x0280|            01 00 00 00                        |    ....        |          reserved1: 1 0x284-0x288 (4)
0x0280|                        00 00 00 00            |        ....    |          reserved2: 0 0x288-0x28c (4)
0x0280|                                    00 00 00 00|            ....|          reserved3: 0 0x28c-0x290 (4)
0x4000|00 00 00 00 00 00 00 00                        |........        |          data: raw bits 0x4000-0x4008 (8)
      |                                               |                |        [1]{}: section 0x290-0x4010 (15744)
0x0290|5f 5f 67 6f 74 00 00 00 00 00 00 00 00 00 00 00|__got...........|          sectname: "__got" 0x290-0x2a0 (16)
0x02a0|5f 5f 44 41 54 41 00 00 00 00 00 00 00 00 00 00|__DATA..........|          segname: "__DATA" 0x2a0-0x2b0 (16)
0x02b0|08 40 00 00 00 00 00 00                        |.@......        |          address: 0x4008 0x2b0-0x2b8 (8)
0x02b0|                        08 00 00 00 00 00 00 00|        ........|          size: 8 0x2b8-0x2c0 (8)
0x02c0|08 40 00 00                                    |.@..            |          offset: 0x4008 0x2c0-0x2c4 (4)
0x02c0|            03 00 00 00                        |    ....        |          align: 3 0x2c4-0x2c8 (4)
0x02c0|                        00 00 00 00            |        ....    |          reloff: 0 0x2c8-0x2cc (4)
0x02c0|                                    00 00 00 00|            ....|          nreloc: 0 0x2cc-0x2d0 (4)
      |                                               |                |          flags{}: 0x2d0-0x2d4 (4)
0x02d0|06                                             |.               |            type: "non_lazy_symbol_pointers" (6) 0x2d0-0x2d1 (1)
0x02d0|   00                                          | .              |            reserved2: raw bits 0x2d1-0x2d1.5 (0.5)
0x02d0|   00                                          | .              |            attr_some_instructions: false 0x2d1.5-0x2d1.6 (0.1)
0x02d0|   00                                          | .              |            attr_ext_reloc: false 0x2d1.6-0x2d1.7 (0.1)
0x02d0|   00                                          | .              |            attr_loc_reloc: false 0x2d1.7-0x2d2 (0.1)
0x02d0|      00                                       |  .             |            reserved1: raw bits 0x2d2-0x2d3 (1)
0x02d0|         00                                    |   .            |            attr_pure_instructions: false 0x2d3-0x2d3.1 (0.1)
0x02d0|         00                                    |   .            |            attr_no_toc: false 0x2d3.1-0x2d3.2 (0.1)
0x02d0|         00                                    |   .            |            attr_strip_static_syms: false 0x2d3.2-0x2d3.3 (0.1)
0x02d0|         00                                    |   .            |            attr_no_dead_strip: false 0x2d3.3-0x2d3.4 (0.1)
0x02d0|         00                                    |   .            |            attr_live_support: false 0x2d3.4-0x2d3.5 (0.1)
0x02d0|         00                                    |   .            |            attr_self_modifying_code: false 0x2d3.5-0x2d3.6 (0.1)
0x02d0|         00                                    |   .            |            attr_debug: false 0x2d3.6-0x2d3.7 (0.1)
0x02d0|         00                                    |   .            |            reserved0: raw bits 0x2d3.7-0x2d4 (0.1)
0x02d0|            02 00 00 00                        |    ....        |          reserved1: 2 0x2d4-0x2d8 (4)
0x02d0|                        00 00 00 00            |        ....    |          reserved2: 0 0x2d8-0x2dc (4)
0x02d0|                                    00 00 00 00|            ....|          reserved3: 0 0x2dc-0x2e0 (4)
0x4000|                        00 00 00 00 00 00 00 00|        ........|          data: raw bits 0x4008-0x4010 (8)
      |                                               |                |        [2]{}: section 0x2e0-0x4018 (15672)
0x02e0|5f 5f 6c 61 5f 73 79 6d 62 6f 6c 5f 70 74 72 00|__la_symbol_ptr.|          sectname: "__la_symbol_ptr" 0x2e0-0x2f0 (16)
0x02f0|5f 5f 44 41 54 41 00 00 00 00 00 00 00 00 00 00|__DATA..........|          segname: "__DATA" 0x2f0-0x300 (16)
0x0300|10 40 00 00 00 00 00 00                        |.@......        |          address: 0x4010 0x300-0x308 (8)
0x0300|                        08 00 00 00 00 00 00 00|        ........|          size: 8 0x308-0x310 (8)
0x0310|10 40 00 00                                    |.@..            |          offset: 0x4010 0x310-0x314 (4)
0x0310|            03 00 00 00                        |    ....        |          align: 3 0x314-0x318 (4)
0x0310|                        00 00 00 00            |        ....    |          reloff: 0 0x318-0x31c (4)
0x0310|                                    00 00 00 00|            ....|          nreloc: 0 0x31c-0x320 (4)
      |                                               |                |          flags{}: 0x320-0x324 (4)
0x0320|07                                             |.               |            type: "lazy_symbol_pointers" (7) 0x320-0x321 (1)
0x0320|   00                                          | .              |            reserved2: raw bits 0x321-0x321.5 (0.5)
0x0320|   00                                          | .              |            attr_some_instructions: false 0x321.5-0x321.6 (0.1)
0x0320|   00                                          | .              |            attr_ext_reloc: false 0x321.6-0x321.7 (0.1)
0x0320|   00                                          | .              |            attr_loc_reloc: false 0x321.7-0x322 (0.1)
0x0320|      00                                       |  .             |            reserved1: raw bits 0x322-0x323 (1)
0x0320|         00                                    |   .            |            attr_pure_instructions: false 0x323-0x323.1 (0.1)
0x0320|         00                                    |   .            |            attr_no_toc: false 0x323.1-0x323.2 (0.1)
0x0320|         00                                    |   .            |            attr_strip_static_syms: false 0x323.2-0x323.3 (0.1)
0x0320|         00                                    |   .            |            attr_no_dead_strip: false 0x323.3-0x323.4 (0.1)
0x0320|         00                                    |   .            |            attr_live_support: false 0x323.4-0x323.5 (0.1)
0x0320|         00                                    |   .            |            attr_self_modifying_code: false 0x323.5-0x323.6 (0.1)
0x0320|         00                                    |   .            |            attr_debug: false 0x323.6-0x323.7 (0.1)
0x0320|         00                                    |   .            |            reserved0: raw bits 0x323.7-0x324 (0.1)
0x0320|            03 00 00 00                        |    ....        |          reserved1: 3 0x324-0x328 (4)
0x0320|                        00 00 00 00            |        ....    |          reserved2: 0 0x328-0x32c (4)
0x0320|                                    00 00 00 00|            ....|          reserved3: 0 0x32c-0x330 (4)
0x4010|9c 3f 00 00 00 00 00 00                        |.?......        |          data: raw bits 0x4010-0x4018 (8)
      |                                               |                |    [2]{}: load_command 0x330-0x378 (72)
0x0330|19 00 00 00                                    |....            |      cmd: "segment_64" (0x19) 0x330-0x334 (4)
0x0330|            48 00 00 00                        |    H...        |      cmdsize: 72 0x334-0x338 (4)
      |                                               |                |      segment_command{}: 0x338-0x378 (64)
      |                                               |                |        arch_bits: 64
0x0330|                        5f 5f 4c 49 4e 4b 45 44|        __LINKED|        segname: "__LINKEDIT" 0x338-0x348 (16)
0x0340|49 54 00 00 00 00 00 00                        |IT......        |
0x0340|                        00 80 00 00 00 00 00 00|        ........|        vmaddr: 0x8000 0x348-0x350 (8)
0x0350|00 40 00 00 00 00 00 00                        |.@......        |        vmsize: 16384 0x350-0x358 (8)
0x0350|                        00 80 00 00 00 00 00 00|        ........|        fileoff: 0x8000 0x358-0x360 (8)
0x0360|b8 00 00 00 00 00 00 00                        |........        |        tfilesize: 184 0x360-0x368 (8)
0x0360|                        01 00 00 00            |        ....    |        initprot: 1 0x368-0x36c (4)
0x0360|                                    01 00 00 00|            ....|        maxprot: 1 0x36c-0x370 (4)
0x0370|00 00 00 00                                    |....            |        nsects: 0 0x370-0x374 (4)
      |                                               |                |        flags{}: 0x374-0x378 (4)
0x0370|            00                                 |    .           |          reserved0: raw bits 0x374-0x374.4 (0.4)
0x0370|            00                                 |    .           |          protected_version_1: false 0x374.4-0x374.5 (0.1)
0x0370|            00                                 |    .           |          noreloc: false 0x374.5-0x374.6 (0.1)
0x0370|            00                                 |    .           |          fvmlib: false 0x374.6-0x374.7 (0.1)
0x0370|            00                                 |    .           |          highvm: false 0x374.7-0x375 (0.1)
0x0370|               00 00 00                        |     ...        |          reserved1: raw bits 0x375-0x378 (3)
      |                                               |                |      sections[0:0]: 0x378-0x378 (0)
      |                                               |                |    [3]{}: load_command 0x378-0x3a0 (40)
0x0370|                        0d 00 00 00            |        ....    |      cmd: "id_dylib" (0xd) 0x378-0x37c (4)
0x0370|                                    28 00 00 00|            (...|      cmdsize: 40 0x37c-0x380 (4)
      |                                               |                |      dylib_command{}: 0x380-0x3a0 (32)
0x0380|18 00 00 00                                    |....            |        offset: 0x18 0x380-0x384 (4)
0x0380|            01 00 00 00                        |    ....        |        timestamp: 1 (1970-01-01T00:00:01Z) 0x384-0x388 (4)
0x0380|                        00 00 00 00            |        ....    |        current_version: 0 0x388-0x38c (4)
0x0380|                                    00 00 00 00|            ....|        compatibility_version: 0 0x38c-0x390 (4)
0x0390|6c 69 62 62 62 62 2e 73 6f 00 00 00 00 00 00 00|libbbb.so.......|        name: "libbbb.so" 0x390-0x3a0 (16)
      |                                               |                |    [4]{}: load_command 0x3a0-0x3d0 (48)
0x03a0|22 00 00 80                                    |"...            |      cmd: "dyld_info_only" (0x80000022) 0x3a0-0x3a4 (4)
0x03a0|            30 00 00 00                        |    0...        |      cmdsize: 48 0x3a4-0x3a8 (4)
      |                                               |                |      dyld_info{}: 0x3a8-0x3d0 (40)
0x03a0|                        00 80 00 00            |        ....    |        rebase_off: 0x8000 0x3a8-0x3ac (4)
0x03a0|                                    08 00 00 00|            ....|        rebase_size: 8 0x3ac-0x3b0 (4)
0x03b0|08 80 00 00                                    |....            |        bind_off: 0x8008 0x3b0-0x3b4 (4)
0x03b0|            18 00 00 00                        |    ....        |        bind_size: 24 0x3b4-0x3b8 (4)
0x03b0|                        00 00 00 00            |        ....    |        weak_bind_off: 0x0 0x3b8-0x3bc (4)
0x03b0|                                    00 00 00 00|            ....|        weak_bind_size: 0 0x3bc-0x3c0 (4)
0x03c0|20 80 00 00                                    | ...            |        lazy_bind_off: 0x8020 0x3c0-0x3c4 (4)
0x03c0|            10 00 00 00                        |    ....        |        lazy_bind_size: 16 0x3c4-0x3c8 (4)
0x03c0|                        30 80 00 00            |        0...    |        export_off: 0x8030 0x3c8-0x3cc (4)
0x03c0|                                    18 00 00 00|            ....|        export_size: 24 0x3cc-0x3d0 (4)
      |                                               |                |    [5]{}: load_command 0x3d0-0x80b8 (31976)
0x03d0|02 00 00 00                                    |....            |      cmd: "symtab" (0x2) 0x3d0-0x3d4 (4)
0x03d0|            18 00 00 00                        |    ....        |      cmdsize: 24 0x3d4-0x3d8 (4)
0x03d0|                        50 80 00 00            |        P...    |      symoff: 32848 0x3d8-0x3dc (4)
0x03d0|                                    03 00 00 00|            ....|      nsyms: 3 0x3dc-0x3e0 (4)
0x03e0|90 80 00 00                                    |....            |      stroff: 32912 0x3e0-0x3e4 (4)
0x03e0|            28 00 00 00                        |    (...        |      strsize: 40 0x3e4-0x3e8 (4)
      |                                               |                |      symbols[0:3]: 0x8050-0x8080 (48)
      |                                               |                |        [0]{}: symbol 0x8050-0x8060 (16)
0x8050|02 00 00 00                                    |....            |          strx: "_libbbb_bbb" (2) 0x8050-0x8054 (4)
      |                                               |                |          type{}: 0x8054-0x8055 (1)
0x8050|            0f                                 |    .           |            stab: 0 0x8054-0x8054.3 (0.3)
0x8050|            0f                                 |    .           |            pext: 0 0x8054.3-0x8054.4 (0.1)
0x8050|            0f                                 |    .           |            type: "sect" (7) 0x8054.4-0x8054.7 (0.3)
0x8050|            0f                                 |    .           |            ext: 1 0x8054.7-0x8055 (0.1)
0x8050|               01                              |     .          |          sect: 1 0x8055-0x8056 (1)
0x8050|                  00 00                        |      ..        |          desc: 0 0x8056-0x8058 (2)
0x8050|                        70 3f 00 00 00 00 00 00|        p?......|          value: 0x3f70 0x8058-0x8060 (8)
      |                                               |                |        [1]{}: symbol 0x8060-0x8070 (16)
0x8060|0e 00 00 00                                    |....            |          strx: "_printf" (14) 0x8060-0x8064 (4)
      |                                               |                |          type{}: 0x8064-0x8065 (1)
0x8060|            01                                 |    .           |            stab: 0 0x8064-0x8064.3 (0.3)
0x8060|            01                                 |    .           |            pext: 0 0x8064.3-0x8064.4 (0.1)
0x8060|            01                                 |    .           |            type: "undef" (0) 0x8064.4-0x8064.7 (0.3)
0x8060|            01                                 |    .           |            ext: 1 0x8064.7-0x8065 (0.1)
0x8060|               00                              |     .          |          sect: 0 0x8065-0x8066 (1)
0x8060|                  00 01                        |      ..        |          desc: 256 0x8066-0x8068 (2)
0x8060|                        00 00 00 00 00 00 00 00|        ........|          value: 0x0 0x8068-0x8070 (8)
      |                                               |                |        [2]{}: symbol 0x8070-0x8080 (16)
0x8070|16 00 00 00                                    |....            |          strx: "dyld_stub_binder" (22) 0x8070-0x8074 (4)
      |                                               |                |          type{}: 0x8074-0x8075 (1)
0x8070|            01                                 |    .           |            stab: 0 0x8074-0x8074.3 (0.3)
0x8070|            01                                 |    .           |            pext: 0 0x8074.3-0x8074.4 (0.1)
0x8070|            01                                 |    .           |            type: "undef" (0) 0x8074.4-0x8074.7 (0.3)
0x8070|            01                                 |    .           |            ext: 1 0x8074.7-0x8075 (0.1)
0x8070|               00                              |     .          |          sect: 0 0x8075-0x8076 (1)
0x8070|                  00 01                        |      ..        |          desc: 256 0x8076-0x8078 (2)
0x8070|                        00 00 00 00 00 00 00 00|        ........|          value: 0x0 0x8078-0x8080 (8)
0x8090|20 00 5f 6c 69 62 62 62 62 5f 62 62 62 00 5f 70| ._libbbb_bbb._p|      str_table: raw bits 0x8090-0x80b8 (40)
*     |until 0x80b7.7 (end) (40)                      |                |
      |                                               |                |    [6]{}: load_command 0x3e8-0x438 (80)
0x03e0|                        0b 00 00 00            |        ....    |      cmd: "dysymtab" (0xb) 0x3e8-0x3ec (4)
0x03e0|                                    50 00 00 00|            P...|      cmdsize: 80 0x3ec-0x3f0 (4)
0x03f0|00 00 00 00                                    |....            |      ilocalsym: 0 0x3f0-0x3f4 (4)
0x03f0|            00 00 00 00                        |    ....        |      nlocalsym: 0 0x3f4-0x3f8 (4)
0x03f0|                        00 00 00 00            |        ....    |      iextdefsym: 0 0x3f8-0x3fc (4)
0x03f0|                                    01 00 00 00|            ....|      nextdefsym: 1 0x3fc-0x400 (4)
0x0400|01 00 00 00                                    |....            |      iundefsym: 1 0x400-0x404 (4)
0x0400|            02 00 00 00                        |    ....        |      nundefsym: 2 0x404-0x408 (4)
0x0400|                        00 00 00 00            |        ....    |      tocoff: 0 0x408-0x40c (4)
0x0400|                                    00 00 00 00|            ....|      ntoc: 0 0x40c-0x410 (4)
0x0410|00 00 00 00                                    |....            |      modtaboff: 0 0x410-0x414 (4)
0x0410|            00 00 00 00                        |    ....        |      nmodtab: 0 0x414-0x418 (4)
0x0410|                        00 00 00 00            |        ....    |      extrefsymoff: 0 0x418-0x41c (4)
0x0410|                                    00 00 00 00|            ....|      nextrefsyms: 0 0x41c-0x420 (4)
0x0420|80 80 00 00                                    |....            |      indirectsymoff: 32896 0x420-0x424 (4)
0x0420|            04 00 00 00                        |    ....        |      nindirectsyms: 4 0x424-0x428 (4)
0x0420|                        00 00 00 00            |        ....    |      extreloff: 0 0x428-0x42c (4)
0x0420|                                    00 00 00 00|            ....|      nextrel: 0 0x42c-0x430 (4)
0x0430|00 00 00 00                                    |....            |      locreloff: 0 0x430-0x434 (4)
0x0430|            00 00 00 00                        |    ....        |      nlocrel: 0 0x434-0x438 (4)
      |                                               |                |    [7]{}: load_command 0x438-0x450 (24)
0x0430|                        1b 00 00 00            |        ....    |      cmd: "uuid" (0x1b) 0x438-0x43c (4)
0x0430|                                    18 00 00 00|            ....|      cmdsize: 24 0x43c-0x440 (4)
      |                                               |                |      uuid_command{}: 0x440-0x450 (16)
0x0440|ba 44 d8 2a d6 94 39 2a b5 6d 01 5b 7e ab 7f 67|.D.*..9*.m.[~..g|        uuid: raw bits 0x440-0x450 (16)
      |                                               |                |    [8]{}: load_command 0x450-0x460 (16)
0x0450|24 00 00 00                                    |$...            |      cmd: "version_min_macosx" (0x24) 0x450-0x454 (4)
0x0450|            10 00 00 00                        |    ....        |      cmdsize: 16 0x454-0x458 (4)
0x0450|                        00 0c 0a 00            |        ....    |      version: 658432 0x458-0x45c (4)
0x0450|                                    00 01 0c 00|            ....|      sdk: 786688 0x45c-0x460 (4)
      |                                               |                |    [9]{}: load_command 0x460-0x470 (16)
0x0460|2a 00 00 00                                    |*...            |      cmd: "source_version" (0x2a) 0x460-0x464 (4)
0x0460|            10 00 00 00                        |    ....        |      cmdsize: 16 0x464-0x468 (4)
      |                                               |                |      source_version_tag{}: 0x468-0x470 (8)
0x0460|                        00 00 00 00 00 00 00 00|        ........|        tag: 0 0x468-0x470 (8)
      |                                               |                |    [10]{}: load_command 0x470-0x4a8 (56)
0x0470|0c 00 00 00                                    |....            |      cmd: "load_dylib" (0xc) 0x470-0x474 (4)
0x0470|            38 00 00 00                        |    8...        |      cmdsize: 56 0x474-0x478 (4)
      |                                               |                |      dylib_command{}: 0x478-0x4a8 (48)
0x0470|                        18 00 00 00            |        ....    |        offset: 0x18 0x478-0x47c (4)
0x0470|                                    02 00 00 00|            ....|        timestamp: 2 (1970-01-01T00:00:02Z) 0x47c-0x480 (4)
0x0480|00 00 1f 05                                    |....            |        current_version: 85917696 0x480-0x484 (4)
0x0480|            00 00 01 00                        |    ....        |        compatibility_version: 65536 0x484-0x488 (4)
0x0480|                        2f 75 73 72 2f 6c 69 62|        /usr/lib|        name: "/usr/lib/libSystem.B.dylib" 0x488-0x4a8 (32)
0x0490|2f 6c 69 62 53 79 73 74 65 6d 2e 42 2e 64 79 6c|/libSystem.B.dyl|
0x04a0|69 62 00 00 00 00 00 00                        |ib......        |
      |                                               |                |    [11]{}: load_command 0x4a8-0x4b8 (16)
0x04a0|                        26 00 00 00            |        &...    |      cmd: "function_starts" (0x26) 0x4a8-0x4ac (4)
0x04a0|                                    10 00 00 00|            ....|      cmdsize: 16 0x4ac-0x4b0 (4)
      |                                               |                |      linkedit_data{}: 0x4b0-0x4b8 (8)
0x04b0|48 80 00 00                                    |H...            |        off: 32840 0x4b0-0x4b4 (4)
0x04b0|            08 00 00 00                        |    ....        |        size: 8 0x4b4-0x4b8 (4)
      |                                               |                |    [12]{}: load_command 0x4b8-0x4c8 (16)
0x04b0|                        29 00 00 00            |        )...    |      cmd: "data_in_code" (0x29) 0x4b8-0x4bc (4)
0x04b0|                                    10 00 00 00|            ....|      cmdsize: 16 0x4bc-0x4c0 (4)
      |                                               |                |      linkedit_data{}: 0x4c0-0x4c8 (8)
0x04c0|50 80 00 00                                    |P...            |        off: 32848 0x4c0-0x4c4 (4)
0x04c0|            00 00 00 00                        |    ....        |        size: 0 0x4c4-0x4c8 (4)
0x04c0|                        00 00 00 00 00 00 00 00|        ........|  gap0: raw bits 0x4c8-0x3f70 (15016)
0x04d0|00 00 00 00 00 00 00 00 00 00 00 00 00 00 00 00|................|
*     |until 0x3f6f.7 (15016)                         |                |
0x3f80|                              00 00            |          ..    |  gap1: raw bits 0x3f8a-0x3f8c (2)
0x3fb0|      00 00                                    |  ..            |  gap2: raw bits 0x3fb2-0x3fb4 (2)
0x3ff0|                                    00 00 00 00|            ....|  gap3: raw bits 0x3ffc-0x4000 (4)
0x4010|                        00 00 00 00 00 00 00 00|        ........|  gap4: raw bits 0x4018-0x8050 (16440)
0x4020|00 00 00 00 00 00 00 00 00 00 00 00 00 00 00 00|................|
*     |until 0x804f.7 (16440)                         |                |
0x8080|01 00 00 00 00 00 00 40 02 00 00 00 01 00 00 00|.......@........|  gap5: raw bits 0x8080-0x8090 (16)
