$ fq -d pg_heap -o flavour=pgpro10 ".[0].tuples[0,-1] | dv" 16404
      |00 01 02 03 04 05 06 07 08 09 0a 0b 0c 0d 0e 0f|0123456789abcdef|.[0].tuples[0]{}: tuple 0x1fd0-0x2000 (48)
      |                                               |                |  header{}: 0x1fd0-0x1fe8 (24)
      |                                               |                |    t_choice{}: 0x1fd0-0x1fdc (12)
      |                                               |                |      t_heap{}: 0x1fd0-0x1fdc (12)
0x1fd0|45 02 00 00                                    |E...            |        t_xmin: 581 0x1fd0-0x1fd4 (4)
0x1fd0|            00 00 00 00                        |    ....        |        t_xmax: 0 0x1fd4-0x1fd8 (4)
      |                                               |                |        t_field3{}: 0x1fd8-0x1fdc (4)
0x1fd0|                        03 00 00 00            |        ....    |          t_cid: 3 0x1fd8-0x1fdc (4)
0x1fd0|                        03 00 00 00            |        ....    |          t_xvac: 3 0x1fd8-0x1fdc (4)
      |                                               |                |      t_datum{}: 0x1fd0-0x1fdc (12)
0x1fd0|45 02 00 00                                    |E...            |        datum_len_: 581 0x1fd0-0x1fd4 (4)
0x1fd0|            00 00 00 00                        |    ....        |        datum_typmod: 0 0x1fd4-0x1fd8 (4)
0x1fd0|                        03 00 00 00            |        ....    |        datum_typeid: 3 0x1fd8-0x1fdc (4)
      |                                               |                |    t_ctid{}: 0x1fdc-0x1fe2 (6)
0x1fd0|                                    00 00 00 00|            ....|      ip_blkid: 0 0x1fdc-0x1fe0 (4)
0x1fe0|01 00                                          |..              |      ip_posid: 1 0x1fe0-0x1fe2 (2)
0x1fe0|      06 00                                    |  ..            |    t_infomask2: 6 0x1fe2-0x1fe4 (2)
      |                                               |                |    infomask2{}: 0x1fe4-0x1fe4 (0)
      |                                               |                |      heap_keys_updated: false
      |                                               |                |      heap_hot_updated: false
      |                                               |                |      heap_only_tuple: false
0x1fe0|            01 08                              |    ..          |    t_infomask: 2049 0x1fe4-0x1fe6 (2)
      |                                               |                |    infomask{}: 0x1fe6-0x1fe6 (0)
      |                                               |                |      heap_hasnull: true
      |                                               |                |      heap_hasvarwidth: false
      |                                               |                |      heap_hasexternal: false
      |                                               |                |      heap_hasoid_old: false
      |                                               |                |      heap_xmax_keyshr_lock: false
      |                                               |                |      heap_combocid: false
      |                                               |                |      heap_xmax_excl_lock: false
      |                                               |                |      heap_xmax_lock_only: false
      |                                               |                |      heap_xmax_shr_lock: false
      |                                               |                |      heap_lock_mask: false
      |                                               |                |      heap_xmin_committed: false
      |                                               |                |      heap_xmin_invalid: false
      |                                               |                |      heap_xmin_frozen: false
      |                                               |                |      heap_xmax_committed: false
      |                                               |                |      heap_xmax_invalid: true
      |                                               |                |      heap_xmax_is_multi: false
      |                                               |                |      heap_updated: false
      |                                               |                |      heap_moved_off: false
      |                                               |                |      heap_moved_in: false
      |                                               |                |      heap_moved: false
0x1fe0|                  18                           |      .         |    t_hoff: 24 0x1fe6-0x1fe7 (1)
0x1fe0|                     1f                        |       .        |    padding0: 31 0x1fe7-0x1fe8 (1)
0x1fe0|                        05 00 00 00 01 00 00 00|        ........|  data: "0500000001000000033f01005bf5ffff96f592a7438d0200" (raw bits) 0x1fe8-0x2000 (24)
0x1ff0|03 3f 01 00 5b f5 ff ff 96 f5 92 a7 43 8d 02 00|.?..[.......C...|
     |00 01 02 03 04 05 06 07 08 09 0a 0b 0c 0d 0e 0f|0123456789abcdef|.[0].tuples[99]{}: tuple 0xd40-0xd70 (48)
     |                                               |                |  header{}: 0xd40-0xd58 (24)
     |                                               |                |    t_choice{}: 0xd40-0xd4c (12)
     |                                               |                |      t_heap{}: 0xd40-0xd4c (12)
0xd40|a8 02 00 00                                    |....            |        t_xmin: 680 0xd40-0xd44 (4)
0xd40|            00 00 00 00                        |    ....        |        t_xmax: 0 0xd44-0xd48 (4)
     |                                               |                |        t_field3{}: 0xd48-0xd4c (4)
0xd40|                        03 00 00 00            |        ....    |          t_cid: 3 0xd48-0xd4c (4)
0xd40|                        03 00 00 00            |        ....    |          t_xvac: 3 0xd48-0xd4c (4)
     |                                               |                |      t_datum{}: 0xd40-0xd4c (12)
0xd40|a8 02 00 00                                    |....            |        datum_len_: 680 0xd40-0xd44 (4)
0xd40|            00 00 00 00                        |    ....        |        datum_typmod: 0 0xd44-0xd48 (4)
0xd40|                        03 00 00 00            |        ....    |        datum_typeid: 3 0xd48-0xd4c (4)
     |                                               |                |    t_ctid{}: 0xd4c-0xd52 (6)
0xd40|                                    00 00 00 00|            ....|      ip_blkid: 0 0xd4c-0xd50 (4)
0xd50|64 00                                          |d.              |      ip_posid: 100 0xd50-0xd52 (2)
0xd50|      06 00                                    |  ..            |    t_infomask2: 6 0xd52-0xd54 (2)
     |                                               |                |    infomask2{}: 0xd54-0xd54 (0)
     |                                               |                |      heap_keys_updated: false
     |                                               |                |      heap_hot_updated: false
     |                                               |                |      heap_only_tuple: false
0xd50|            01 08                              |    ..          |    t_infomask: 2049 0xd54-0xd56 (2)
     |                                               |                |    infomask{}: 0xd56-0xd56 (0)
     |                                               |                |      heap_hasnull: true
     |                                               |                |      heap_hasvarwidth: false
     |                                               |                |      heap_hasexternal: false
     |                                               |                |      heap_hasoid_old: false
     |                                               |                |      heap_xmax_keyshr_lock: false
     |                                               |                |      heap_combocid: false
     |                                               |                |      heap_xmax_excl_lock: false
     |                                               |                |      heap_xmax_lock_only: false
     |                                               |                |      heap_xmax_shr_lock: false
     |                                               |                |      heap_lock_mask: false
     |                                               |                |      heap_xmin_committed: false
     |                                               |                |      heap_xmin_invalid: false
     |                                               |                |      heap_xmin_frozen: false
     |                                               |                |      heap_xmax_committed: false
     |                                               |                |      heap_xmax_invalid: true
     |                                               |                |      heap_xmax_is_multi: false
     |                                               |                |      heap_updated: false
     |                                               |                |      heap_moved_off: false
     |                                               |                |      heap_moved_in: false
     |                                               |                |      heap_moved: false
0xd50|                  18                           |      .         |    t_hoff: 24 0xd56-0xd57 (1)
0xd50|                     1f                        |       .        |    padding0: 31 0xd57-0xd58 (1)
0xd50|                        02 00 00 00 01 00 00 00|        ........|  data: "0200000001000000eeda0000ccf7ffff9c2097a7438d0200" (raw bits) 0xd58-0xd70 (24)
0xd60|ee da 00 00 cc f7 ff ff 9c 20 97 a7 43 8d 02 00|......... ..C...|
