$ fq -d pg_heap -o flavour=pgpro10 ".[0].pd_linp[0,-1] | dv" 16404
    |00 01 02 03 04 05 06 07 08 09 0a 0b 0c 0d 0e 0f|0123456789abcdef|.[0].pd_linp[0]{}: item_id 0x18-0x1b.7 (4)
0x10|                        d0 9f 60 00            |        ..`.    |  lp_off: 8144 0x18-0x1b.7 (4)
0x10|                        d0 9f 60 00            |        ..`.    |  lp_flags: "LP_NORMAL" (1) 0x18-0x1b.7 (4)
0x10|                        d0 9f 60 00            |        ..`.    |  lp_len: 48 0x18-0x1b.7 (4)
     |00 01 02 03 04 05 06 07 08 09 0a 0b 0c 0d 0e 0f|0123456789abcdef|.[0].pd_linp[99]{}: item_id 0x1a4-0x1a7.7 (4)
0x1a0|            40 8d 60 00                        |    @.`.        |  lp_off: 3392 0x1a4-0x1a7.7 (4)
0x1a0|            40 8d 60 00                        |    @.`.        |  lp_flags: "LP_NORMAL" (1) 0x1a4-0x1a7.7 (4)
0x1a0|            40 8d 60 00                        |    @.`.        |  lp_len: 48 0x1a4-0x1a7.7 (4)
