$ fq -d pg_control dv pg_control
      |00 01 02 03 04 05 06 07 08 09 0a 0b 0c 0d 0e 0f|0123456789abcdef|.{}: pg_control (pg_control) 0x0-0x1fff.7 (8192)
0x0000|5b 89 68 65 ee 35 3d 63                        |[.he.5=c        |  system_identifier: 7150931081354053979 0x0-0x7.7 (8)
0x0000|                        ea 03 50 50            |        ..PP    |  pg_control_version: "Postgres Pro Standard 1002" (1347421162) 0x8-0xb.7 (4)
0x0000|                                    eb d6 05 0c|            ....|  catalog_version_no: 201709291 0xc-0xf.7 (4)
0x0010|06 00 00 00                                    |....            |  state: "DB_IN_PRODUCTION" (6) 0x10-0x13.7 (4)
0x0010|            00 00 00 00                        |    ....        |  hole0: 0 0x14-0x17.7 (4)
0x0010|                        4a 38 3d 63 00 00 00 00|        J8=c....|  time: "Wed, 05 Oct 2022 07:54:50 UTC" (1664956490) 0x18-0x1f.7 (8)
0x0020|d0 54 50 02 00 00 00 00                        |.TP.....        |  check_point: "0/25054D0" (38819024) 0x20-0x27.7 (8)
0x0020|                        28 54 50 02 00 00 00 00|        (TP.....|  prev_check_point: "0/2505428" (38818856) 0x28-0x2f.7 (8)
      |                                               |                |  check_point_copy{}: 0x30-0x7f.7 (80)
0x0030|98 54 50 02 00 00 00 00                        |.TP.....        |    redo: "0/2505498" (38818968) 0x30-0x37.7 (8)
0x0030|                        01 00 00 00            |        ....    |    this_time_line_id: 1 0x38-0x3b.7 (4)
0x0030|                                    01 00 00 00|            ....|    prev_time_line_id: 1 0x3c-0x3f.7 (4)
0x0040|01                                             |.               |    full_page_writes: 1 0x40-0x40.7 (1)
0x0040|   00 00 00                                    | ...            |    hole1: 0 0x41-0x43.7 (3)
0x0040|            00 00 00 00                        |    ....        |    next_xid_epoch: 0 0x44-0x47.7 (4)
0x0040|                        a9 02 00 00            |        ....    |    next_xid: 681 0x48-0x4b.7 (4)
0x0040|                                    00 60 00 00|            .`..|    next_oid: 24576 0x4c-0x4f.7 (4)
0x0050|01 00 00 00                                    |....            |    next_multi: 1 0x50-0x53.7 (4)
0x0050|            00 00 00 00                        |    ....        |    next_multi_offset: 0 0x54-0x57.7 (4)
0x0050|                        26 02 00 00            |        &...    |    oldest_xid: 550 0x58-0x5b.7 (4)
0x0050|                                    01 00 00 00|            ....|    oldest_xid_db: 1 0x5c-0x5f.7 (4)
0x0060|01 00 00 00                                    |....            |    oldest_multi: 1 0x60-0x63.7 (4)
0x0060|            01 00 00 00                        |    ....        |    oldest_multi_db: 1 0x64-0x67.7 (4)
0x0060|                        4a 38 3d 63 00 00 00 00|        J8=c....|    time: "Wed, 05 Oct 2022 07:54:50 UTC" (1664956490) 0x68-0x6f.7 (8)
0x0070|00 00 00 00                                    |....            |    oldest_commit_ts_xid: 0 0x70-0x73.7 (4)
0x0070|            00 00 00 00                        |    ....        |    newest_commit_ts_xid: 0 0x74-0x77.7 (4)
0x0070|                        a9 02 00 00            |        ....    |    oldest_active_xid: 681 0x78-0x7b.7 (4)
0x0070|                                    00 00 00 00|            ....|    padding1: 0 0x7c-0x7f.7 (4)
0x0080|01 00 00 00 00 00 00 00                        |........        |  unlogged_lsn: "0/1" (1) 0x80-0x87.7 (8)
0x0080|                        00 00 00 00 00 00 00 00|        ........|  min_recovery_point: "0/0" (0) 0x88-0x8f.7 (8)
0x0090|00 00 00 00                                    |....            |  min_recovery_point_tli: 0 0x90-0x93.7 (4)
0x0090|            00 00 00 00                        |    ....        |  hole2: 0 0x94-0x97.7 (4)
0x0090|                        00 00 00 00 00 00 00 00|        ........|  backup_start_point: "0/0" (0) 0x98-0x9f.7 (8)
0x00a0|00 00 00 00 00 00 00 00                        |........        |  backup_end_point: "0/0" (0) 0xa0-0xa7.7 (8)
0x00a0|                        00                     |        .       |  backup_end_required: 0 0xa8-0xa8.7 (1)
0x00a0|                           00 00 00            |         ...    |  hole3: 0 0xa9-0xab.7 (3)
0x00a0|                                    01 00 00 00|            ....|  wal_level: "WAL_LEVEL_REPLICA" (1) 0xac-0xaf.7 (4)
0x00b0|00                                             |.               |  wal_log_hints: 0 0xb0-0xb0.7 (1)
0x00b0|   00 00 00                                    | ...            |  hole4: 0 0xb1-0xb3.7 (3)
0x00b0|            5d 00 00 00                        |    ]...        |  max_connections: 93 0xb4-0xb7.7 (4)
0x00b0|                        08 00 00 00            |        ....    |  max_worker_processes: 8 0xb8-0xbb.7 (4)
0x00b0|                                    00 00 00 00|            ....|  max_prepared_xacts: 0 0xbc-0xbf.7 (4)
0x00c0|40 00 00 00                                    |@...            |  max_locks_per_xact: 64 0xc0-0xc3.7 (4)
0x00c0|            00                                 |    .           |  track_commit_timestamp: 0 0xc4-0xc4.7 (1)
0x00c0|               00 00 00                        |     ...        |  hole5: 0 0xc5-0xc7.7 (3)
0x00c0|                        08 00 00 00            |        ....    |  max_align: 8 0xc8-0xcb.7 (4)
0x00c0|                                    00 00 00 00|            ....|  hole6: 0 0xcc-0xcf.7 (4)
0x00d0|00 00 00 00 87 d6 32 41                        |......2A        |  float_format: 1.234567e+06 0xd0-0xd7.7 (8)
0x00d0|                        00 20 00 00            |        . ..    |  blcksz: 8192 0xd8-0xdb.7 (4)
0x00d0|                                    00 00 02 00|            ....|  relseg_size: 131072 0xdc-0xdf.7 (4)
0x00e0|00 20 00 00                                    |. ..            |  xlog_blcksz: 8192 0xe0-0xe3.7 (4)
0x00e0|            00 00 00 01                        |    ....        |  xlog_seg_size: 16777216 0xe4-0xe7.7 (4)
0x00e0|                        40 00 00 00            |        @...    |  name_data_len: 64 0xe8-0xeb.7 (4)
0x00e0|                                    20 00 00 00|             ...|  index_max_keys: 32 0xec-0xef.7 (4)
0x00f0|cc 07 00 00                                    |....            |  toast_max_chunk_size: 1996 0xf0-0xf3.7 (4)
0x00f0|            00 08 00 00                        |    ....        |  loblksize: 2048 0xf4-0xf7.7 (4)
0x00f0|                        01                     |        .       |  float4_by_val: 1 0xf8-0xf8.7 (1)
0x00f0|                           01                  |         .      |  float8_by_val: 1 0xf9-0xf9.7 (1)
0x00f0|                              00 00            |          ..    |  hole7: 0 0xfa-0xfb.7 (2)
0x00f0|                                    01 00 00 00|            ....|  data_checksum_version: 1 0xfc-0xff.7 (4)
0x0100|dd b5 b3 24 2d ff db 10 75 e6 d1 0c 9c d0 92 5d|...$-...u......]|  mock_authentication_nonce: "ddb5b3242dffdb1075e6d10c9cd0925d14db0bd3a1a4b84..." (raw bits) 0x100-0x11f.7 (32)
0x0110|14 db 0b d3 a1 a4 b8 4e 6c fe fd 4d a2 70 10 9b|.......Nl..M.p..|
0x0120|3c 03 00 00                                    |<...            |  icu_version: "60.3.0.0" (828) 0x120-0x123.7 (4)
0x0120|            7d 09 b6 91                        |    }...        |  crc: 2444626301 0x124-0x127.7 (4)
0x0120|                        00 00 00 00 00 00 00 00|        ........|  unused: raw bits 0x128-0x1fff.7 (7896)
0x0130|00 00 00 00 00 00 00 00 00 00 00 00 00 00 00 00|................|
*     |until 0x1fff.7 (end) (7896)                    |                |
