$ fq -d macho dv a_stripped
      |00 01 02 03 04 05 06 07 08 09 0a 0b 0c 0d 0e 0f|0123456789abcdef|.{}: a_stripped (macho) 0x0-0x8137.7 (33080)
      |                                               |                |  header{}: 0x0-0x1f.7 (32)
      |                                               |                |    arch_bits: 64 0x0-NA (0)
0x0000|cf fa ed fe                                    |....            |    magic: 0xfeedfacf (64-bit little endian) 0x0-0x3.7 (4)
      |                                               |                |    bits: 64 0x4-NA (0)
      |                                               |                |    endian: "little_endian" 0x4-NA (0)
0x0000|            07 00 00 01                        |    ....        |    cputype: "cpu_type_x86_64" (16777223) 0x4-0x7.7 (4)
0x0000|                        03 00 00 00            |        ....    |    cpusubtype: 3 0x8-0xb.7 (4)
0x0000|                                    02 00 00 00|            ....|    filetype: "execute" (2) 0xc-0xf.7 (4)
0x0010|10 00 00 00                                    |....            |    ncdms: 16 0x10-0x13.7 (4)
0x0010|            28 05 00 00                        |    (...        |    sizeofncdms: 1320 0x14-0x17.7 (4)
      |                                               |                |    flags{}: 0x18-0x1b.7 (4)
0x0010|                        85                     |        .       |      reserved: raw bits 0x18-0x18.5 (0.6)
0x0010|                        85                     |        .       |      app_extension_safe: false 0x18.6-0x18.6 (0.1)
0x0010|                        85                     |        .       |      no_heap_execution: true 0x18.7-0x18.7 (0.1)
0x0010|                           00                  |         .      |      has_tlv_descriptors: false 0x19-0x19 (0.1)
0x0010|                           00                  |         .      |      dead_strippable_dylib: false 0x19.1-0x19.1 (0.1)
0x0010|                           00                  |         .      |      pie: false 0x19.2-0x19.2 (0.1)
0x0010|                           00                  |         .      |      no_reexported_dylibs: false 0x19.3-0x19.3 (0.1)
0x0010|                           00                  |         .      |      setuid_safe: false 0x19.4-0x19.4 (0.1)
0x0010|                           00                  |         .      |      root_safe: false 0x19.5-0x19.5 (0.1)
0x0010|                           00                  |         .      |      allow_stack_execution: false 0x19.6-0x19.6 (0.1)
0x0010|                           00                  |         .      |      binds_to_weak: false 0x19.7-0x19.7 (0.1)
0x0010|                              20               |                |      weak_defines: false 0x1a-0x1a (0.1)
0x0010|                              20               |                |      canonical: false 0x1a.1-0x1a.1 (0.1)
0x0010|                              20               |                |      subsections_via_symbols: true 0x1a.2-0x1a.2 (0.1)
0x0010|                              20               |                |      allmodsbound: false 0x1a.3-0x1a.3 (0.1)
0x0010|                              20               |                |      prebindable: false 0x1a.4-0x1a.4 (0.1)
0x0010|                              20               |                |      nofixprebinding: false 0x1a.5-0x1a.5 (0.1)
0x0010|                              20               |                |      nomultidefs: false 0x1a.6-0x1a.6 (0.1)
0x0010|                              20               |                |      force_flat: false 0x1a.7-0x1a.7 (0.1)
0x0010|                                 00            |           .    |      twolevel: false 0x1b-0x1b (0.1)
0x0010|                                 00            |           .    |      lazy_init: false 0x1b.1-0x1b.1 (0.1)
0x0010|                                 00            |           .    |      split_segs: false 0x1b.2-0x1b.2 (0.1)
0x0010|                                 00            |           .    |      prebound: false 0x1b.3-0x1b.3 (0.1)
0x0010|                                 00            |           .    |      bindatload: false 0x1b.4-0x1b.4 (0.1)
0x0010|                                 00            |           .    |      dyldlink: false 0x1b.5-0x1b.5 (0.1)
0x0010|                                 00            |           .    |      incrlink: false 0x1b.6-0x1b.6 (0.1)
0x0010|                                 00            |           .    |      noundefs: false 0x1b.7-0x1b.7 (0.1)
0x0010|                                    00 00 00 00|            ....|    reserved: raw bits (all zero) 0x1c-0x1f.7 (4)
      |                                               |                |  load_commands[0:16]: 0x20-0x547.7 (1320)
      |                                               |                |    [0]{}: load_command 0x20-0x67.7 (72)
0x0020|19 00 00 00                                    |....            |      cmd: "segment_64" (0x19) 0x20-0x23.7 (4)
0x0020|            48 00 00 00                        |    H...        |      cmdsize: 72 0x24-0x27.7 (4)
      |                                               |                |      segment_command{}: 0x28-0x67.7 (64)
      |                                               |                |        arch_bits: 64 0x28-NA (0)
0x0020|                        5f 5f 50 41 47 45 5a 45|        __PAGEZE|        segname: "__PAGEZERO" 0x28-0x37.7 (16)
0x0030|52 4f 00 00 00 00 00 00                        |RO......        |
0x0030|                        00 00 00 00 00 00 00 00|        ........|        vmaddr: 0x0 0x38-0x3f.7 (8)
0x0040|00 00 00 00 01 00 00 00                        |........        |        vmsize: 4294967296 0x40-0x47.7 (8)
0x0040|                        00 00 00 00 00 00 00 00|        ........|        fileoff: 0 0x48-0x4f.7 (8)
0x0050|00 00 00 00 00 00 00 00                        |........        |        tfilesize: 0 0x50-0x57.7 (8)
0x0050|                        00 00 00 00            |        ....    |        initprot: 0 0x58-0x5b.7 (4)
0x0050|                                    00 00 00 00|            ....|        maxprot: 0 0x5c-0x5f.7 (4)
0x0060|00 00 00 00                                    |....            |        nsects: 0 0x60-0x63.7 (4)
      |                                               |                |        flags{}: 0x64-0x67.7 (4)
0x0060|            00 00 00 00                        |    ....        |          reserved: raw bits 0x64-0x67.3 (3.4)
0x0060|                     00                        |       .        |          protected_version_1: false 0x67.4-0x67.4 (0.1)
0x0060|                     00                        |       .        |          noreloc: false 0x67.5-0x67.5 (0.1)
0x0060|                     00                        |       .        |          fvmlib: false 0x67.6-0x67.6 (0.1)
0x0060|                     00                        |       .        |          highvm: false 0x67.7-0x67.7 (0.1)
      |                                               |                |      sections[0:0]: 0x68-NA (0)
      |                                               |                |    [1]{}: load_command 0x68-0x23f.7 (472)
0x0060|                        19 00 00 00            |        ....    |      cmd: "segment_64" (0x19) 0x68-0x6b.7 (4)
0x0060|                                    d8 01 00 00|            ....|      cmdsize: 472 0x6c-0x6f.7 (4)
      |                                               |                |      segment_command{}: 0x70-0xaf.7 (64)
      |                                               |                |        arch_bits: 64 0x70-NA (0)
0x0070|5f 5f 54 45 58 54 00 00 00 00 00 00 00 00 00 00|__TEXT..........|        segname: "__TEXT" 0x70-0x7f.7 (16)
0x0080|00 00 00 00 01 00 00 00                        |........        |        vmaddr: 0x100000000 0x80-0x87.7 (8)
0x0080|                        00 40 00 00 00 00 00 00|        .@......|        vmsize: 16384 0x88-0x8f.7 (8)
0x0090|00 00 00 00 00 00 00 00                        |........        |        fileoff: 0 0x90-0x97.7 (8)
0x0090|                        00 40 00 00 00 00 00 00|        .@......|        tfilesize: 16384 0x98-0x9f.7 (8)
0x00a0|05 00 00 00                                    |....            |        initprot: 5 0xa0-0xa3.7 (4)
0x00a0|            05 00 00 00                        |    ....        |        maxprot: 5 0xa4-0xa7.7 (4)
0x00a0|                        05 00 00 00            |        ....    |        nsects: 5 0xa8-0xab.7 (4)
      |                                               |                |        flags{}: 0xac-0xaf.7 (4)
0x00a0|                                    00 00 00 00|            ....|          reserved: raw bits 0xac-0xaf.3 (3.4)
0x00a0|                                             00|               .|          protected_version_1: false 0xaf.4-0xaf.4 (0.1)
0x00a0|                                             00|               .|          noreloc: false 0xaf.5-0xaf.5 (0.1)
0x00a0|                                             00|               .|          fvmlib: false 0xaf.6-0xaf.6 (0.1)
0x00a0|                                             00|               .|          highvm: false 0xaf.7-0xaf.7 (0.1)
      |                                               |                |      sections[0:5]: 0xb0-0x23f.7 (400)
      |                                               |                |        [0]{}: section 0xb0-0xff.7 (80)
0x00b0|5f 5f 74 65 78 74 00 00 00 00 00 00 00 00 00 00|__text..........|          sectname: "__text" 0xb0-0xbf.7 (16)
0x00c0|5f 5f 54 45 58 54 00 00 00 00 00 00 00 00 00 00|__TEXT..........|          segname: "__TEXT" 0xc0-0xcf.7 (16)
0x00d0|40 3f 00 00 01 00 00 00                        |@?......        |          address: 0x100003f40 0xd0-0xd7.7 (8)
0x00d0|                        34 00 00 00 00 00 00 00|        4.......|          size: 52 0xd8-0xdf.7 (8)
0x00e0|40 3f 00 00                                    |@?..            |          offset: 16192 0xe0-0xe3.7 (4)
0x00e0|            04 00 00 00                        |    ....        |          align: 4 0xe4-0xe7.7 (4)
0x00e0|                        00 00 00 00            |        ....    |          reloff: 0 0xe8-0xeb.7 (4)
0x00e0|                                    00 00 00 00|            ....|          nreloc: 0 0xec-0xef.7 (4)
      |                                               |                |          flags{}: 0xf0-0xf2.7 (3)
0x00f0|00                                             |.               |            attr_pure_instructions: false 0xf0-0xf0 (0.1)
0x00f0|00                                             |.               |            attr_no_toc: false 0xf0.1-0xf0.1 (0.1)
0x00f0|00                                             |.               |            attr_strip_static_syms: false 0xf0.2-0xf0.2 (0.1)
0x00f0|00                                             |.               |            attr_no_dead_strip: false 0xf0.3-0xf0.3 (0.1)
0x00f0|00                                             |.               |            attr_live_support: false 0xf0.4-0xf0.4 (0.1)
0x00f0|00                                             |.               |            attr_self_modifying_code: false 0xf0.5-0xf0.5 (0.1)
0x00f0|00                                             |.               |            attr_debug: false 0xf0.6-0xf0.6 (0.1)
0x00f0|00 04 00                                       |...             |            reserved: raw bits 0xf0.7-0xf2.4 (1.6)
0x00f0|      00                                       |  .             |            attr_some_instructions: false 0xf2.5-0xf2.5 (0.1)
0x00f0|      00                                       |  .             |            attr_ext_reloc: false 0xf2.6-0xf2.6 (0.1)
0x00f0|      00                                       |  .             |            attr_loc_reloc: false 0xf2.7-0xf2.7 (0.1)
0x00f0|         80                                    |   .            |          type: 128 0xf3-0xf3.7 (1)
0x00f0|            00 00 00 00                        |    ....        |          reserved1: 0 0xf4-0xf7.7 (4)
0x00f0|                        00 00 00 00            |        ....    |          reserved2: 0 0xf8-0xfb.7 (4)
0x00f0|                                    00 00 00 00|            ....|          reserved3: 0 0xfc-0xff.7 (4)
      |                                               |                |        [1]{}: section 0x100-0x14f.7 (80)
0x0100|5f 5f 73 74 75 62 73 00 00 00 00 00 00 00 00 00|__stubs.........|          sectname: "__stubs" 0x100-0x10f.7 (16)
0x0110|5f 5f 54 45 58 54 00 00 00 00 00 00 00 00 00 00|__TEXT..........|          segname: "__TEXT" 0x110-0x11f.7 (16)
0x0120|74 3f 00 00 01 00 00 00                        |t?......        |          address: 0x100003f74 0x120-0x127.7 (8)
0x0120|                        0c 00 00 00 00 00 00 00|        ........|          size: 12 0x128-0x12f.7 (8)
0x0130|74 3f 00 00                                    |t?..            |          offset: 16244 0x130-0x133.7 (4)
0x0130|            01 00 00 00                        |    ....        |          align: 1 0x134-0x137.7 (4)
0x0130|                        00 00 00 00            |        ....    |          reloff: 0 0x138-0x13b.7 (4)
0x0130|                                    00 00 00 00|            ....|          nreloc: 0 0x13c-0x13f.7 (4)
      |                                               |                |          flags{}: 0x140-0x142.7 (3)
0x0140|08                                             |.               |            attr_pure_instructions: false 0x140-0x140 (0.1)
0x0140|08                                             |.               |            attr_no_toc: false 0x140.1-0x140.1 (0.1)
0x0140|08                                             |.               |            attr_strip_static_syms: false 0x140.2-0x140.2 (0.1)
0x0140|08                                             |.               |            attr_no_dead_strip: false 0x140.3-0x140.3 (0.1)
0x0140|08                                             |.               |            attr_live_support: true 0x140.4-0x140.4 (0.1)
0x0140|08                                             |.               |            attr_self_modifying_code: false 0x140.5-0x140.5 (0.1)
0x0140|08                                             |.               |            attr_debug: false 0x140.6-0x140.6 (0.1)
0x0140|08 04 00                                       |...             |            reserved: raw bits 0x140.7-0x142.4 (1.6)
0x0140|      00                                       |  .             |            attr_some_instructions: false 0x142.5-0x142.5 (0.1)
0x0140|      00                                       |  .             |            attr_ext_reloc: false 0x142.6-0x142.6 (0.1)
0x0140|      00                                       |  .             |            attr_loc_reloc: false 0x142.7-0x142.7 (0.1)
0x0140|         80                                    |   .            |          type: 128 0x143-0x143.7 (1)
0x0140|            00 00 00 00                        |    ....        |          reserved1: 0 0x144-0x147.7 (4)
0x0140|                        06 00 00 00            |        ....    |          reserved2: 6 0x148-0x14b.7 (4)
0x0140|                                    00 00 00 00|            ....|          reserved3: 0 0x14c-0x14f.7 (4)
      |                                               |                |        [2]{}: section 0x150-0x19f.7 (80)
0x0150|5f 5f 73 74 75 62 5f 68 65 6c 70 65 72 00 00 00|__stub_helper...|          sectname: "__stub_helper" 0x150-0x15f.7 (16)
0x0160|5f 5f 54 45 58 54 00 00 00 00 00 00 00 00 00 00|__TEXT..........|          segname: "__TEXT" 0x160-0x16f.7 (16)
0x0170|80 3f 00 00 01 00 00 00                        |.?......        |          address: 0x100003f80 0x170-0x177.7 (8)
0x0170|                        24 00 00 00 00 00 00 00|        $.......|          size: 36 0x178-0x17f.7 (8)
0x0180|80 3f 00 00                                    |.?..            |          offset: 16256 0x180-0x183.7 (4)
0x0180|            02 00 00 00                        |    ....        |          align: 2 0x184-0x187.7 (4)
0x0180|                        00 00 00 00            |        ....    |          reloff: 0 0x188-0x18b.7 (4)
0x0180|                                    00 00 00 00|            ....|          nreloc: 0 0x18c-0x18f.7 (4)
      |                                               |                |          flags{}: 0x190-0x192.7 (3)
0x0190|00                                             |.               |            attr_pure_instructions: false 0x190-0x190 (0.1)
0x0190|00                                             |.               |            attr_no_toc: false 0x190.1-0x190.1 (0.1)
0x0190|00                                             |.               |            attr_strip_static_syms: false 0x190.2-0x190.2 (0.1)
0x0190|00                                             |.               |            attr_no_dead_strip: false 0x190.3-0x190.3 (0.1)
0x0190|00                                             |.               |            attr_live_support: false 0x190.4-0x190.4 (0.1)
0x0190|00                                             |.               |            attr_self_modifying_code: false 0x190.5-0x190.5 (0.1)
0x0190|00                                             |.               |            attr_debug: false 0x190.6-0x190.6 (0.1)
0x0190|00 04 00                                       |...             |            reserved: raw bits 0x190.7-0x192.4 (1.6)
0x0190|      00                                       |  .             |            attr_some_instructions: false 0x192.5-0x192.5 (0.1)
0x0190|      00                                       |  .             |            attr_ext_reloc: false 0x192.6-0x192.6 (0.1)
0x0190|      00                                       |  .             |            attr_loc_reloc: false 0x192.7-0x192.7 (0.1)
0x0190|         80                                    |   .            |          type: 128 0x193-0x193.7 (1)
0x0190|            00 00 00 00                        |    ....        |          reserved1: 0 0x194-0x197.7 (4)
0x0190|                        00 00 00 00            |        ....    |          reserved2: 0 0x198-0x19b.7 (4)
0x0190|                                    00 00 00 00|            ....|          reserved3: 0 0x19c-0x19f.7 (4)
      |                                               |                |        [3]{}: section 0x1a0-0x1ef.7 (80)
0x01a0|5f 5f 63 73 74 72 69 6e 67 00 00 00 00 00 00 00|__cstring.......|          sectname: "__cstring" 0x1a0-0x1af.7 (16)
0x01b0|5f 5f 54 45 58 54 00 00 00 00 00 00 00 00 00 00|__TEXT..........|          segname: "__TEXT" 0x1b0-0x1bf.7 (16)
0x01c0|a4 3f 00 00 01 00 00 00                        |.?......        |          address: 0x100003fa4 0x1c0-0x1c7.7 (8)
0x01c0|                        05 00 00 00 00 00 00 00|        ........|          size: 5 0x1c8-0x1cf.7 (8)
0x01d0|a4 3f 00 00                                    |.?..            |          offset: 16292 0x1d0-0x1d3.7 (4)
0x01d0|            00 00 00 00                        |    ....        |          align: 0 0x1d4-0x1d7.7 (4)
0x01d0|                        00 00 00 00            |        ....    |          reloff: 0 0x1d8-0x1db.7 (4)
0x01d0|                                    00 00 00 00|            ....|          nreloc: 0 0x1dc-0x1df.7 (4)
      |                                               |                |          flags{}: 0x1e0-0x1e2.7 (3)
0x01e0|02                                             |.               |            attr_pure_instructions: false 0x1e0-0x1e0 (0.1)
0x01e0|02                                             |.               |            attr_no_toc: false 0x1e0.1-0x1e0.1 (0.1)
0x01e0|02                                             |.               |            attr_strip_static_syms: false 0x1e0.2-0x1e0.2 (0.1)
0x01e0|02                                             |.               |            attr_no_dead_strip: false 0x1e0.3-0x1e0.3 (0.1)
0x01e0|02                                             |.               |            attr_live_support: false 0x1e0.4-0x1e0.4 (0.1)
0x01e0|02                                             |.               |            attr_self_modifying_code: false 0x1e0.5-0x1e0.5 (0.1)
0x01e0|02                                             |.               |            attr_debug: true 0x1e0.6-0x1e0.6 (0.1)
0x01e0|02 00 00                                       |...             |            reserved: raw bits 0x1e0.7-0x1e2.4 (1.6)
0x01e0|      00                                       |  .             |            attr_some_instructions: false 0x1e2.5-0x1e2.5 (0.1)
0x01e0|      00                                       |  .             |            attr_ext_reloc: false 0x1e2.6-0x1e2.6 (0.1)
0x01e0|      00                                       |  .             |            attr_loc_reloc: false 0x1e2.7-0x1e2.7 (0.1)
0x01e0|         00                                    |   .            |          type: "regular" (0) 0x1e3-0x1e3.7 (1)
0x01e0|            00 00 00 00                        |    ....        |          reserved1: 0 0x1e4-0x1e7.7 (4)
0x01e0|                        00 00 00 00            |        ....    |          reserved2: 0 0x1e8-0x1eb.7 (4)
0x01e0|                                    00 00 00 00|            ....|          reserved3: 0 0x1ec-0x1ef.7 (4)
      |                                               |                |        [4]{}: section 0x1f0-0x23f.7 (80)
0x01f0|5f 5f 75 6e 77 69 6e 64 5f 69 6e 66 6f 00 00 00|__unwind_info...|          sectname: "__unwind_info" 0x1f0-0x1ff.7 (16)
0x0200|5f 5f 54 45 58 54 00 00 00 00 00 00 00 00 00 00|__TEXT..........|          segname: "__TEXT" 0x200-0x20f.7 (16)
0x0210|ac 3f 00 00 01 00 00 00                        |.?......        |          address: 0x100003fac 0x210-0x217.7 (8)
0x0210|                        48 00 00 00 00 00 00 00|        H.......|          size: 72 0x218-0x21f.7 (8)
0x0220|ac 3f 00 00                                    |.?..            |          offset: 16300 0x220-0x223.7 (4)
0x0220|            02 00 00 00                        |    ....        |          align: 2 0x224-0x227.7 (4)
0x0220|                        00 00 00 00            |        ....    |          reloff: 0 0x228-0x22b.7 (4)
0x0220|                                    00 00 00 00|            ....|          nreloc: 0 0x22c-0x22f.7 (4)
      |                                               |                |          flags{}: 0x230-0x232.7 (3)
0x0230|00                                             |.               |            attr_pure_instructions: false 0x230-0x230 (0.1)
0x0230|00                                             |.               |            attr_no_toc: false 0x230.1-0x230.1 (0.1)
0x0230|00                                             |.               |            attr_strip_static_syms: false 0x230.2-0x230.2 (0.1)
0x0230|00                                             |.               |            attr_no_dead_strip: false 0x230.3-0x230.3 (0.1)
0x0230|00                                             |.               |            attr_live_support: false 0x230.4-0x230.4 (0.1)
0x0230|00                                             |.               |            attr_self_modifying_code: false 0x230.5-0x230.5 (0.1)
0x0230|00                                             |.               |            attr_debug: false 0x230.6-0x230.6 (0.1)
0x0230|00 00 00                                       |...             |            reserved: raw bits 0x230.7-0x232.4 (1.6)
0x0230|      00                                       |  .             |            attr_some_instructions: false 0x232.5-0x232.5 (0.1)
0x0230|      00                                       |  .             |            attr_ext_reloc: false 0x232.6-0x232.6 (0.1)
0x0230|      00                                       |  .             |            attr_loc_reloc: false 0x232.7-0x232.7 (0.1)
0x0230|         00                                    |   .            |          type: "regular" (0) 0x233-0x233.7 (1)
0x0230|            00 00 00 00                        |    ....        |          reserved1: 0 0x234-0x237.7 (4)
0x0230|                        00 00 00 00            |        ....    |          reserved2: 0 0x238-0x23b.7 (4)
0x0230|                                    00 00 00 00|            ....|          reserved3: 0 0x23c-0x23f.7 (4)
      |                                               |                |    [2]{}: load_command 0x240-0x377.7 (312)
0x0240|19 00 00 00                                    |....            |      cmd: "segment_64" (0x19) 0x240-0x243.7 (4)
0x0240|            38 01 00 00                        |    8...        |      cmdsize: 312 0x244-0x247.7 (4)
      |                                               |                |      segment_command{}: 0x248-0x287.7 (64)
      |                                               |                |        arch_bits: 64 0x248-NA (0)
0x0240|                        5f 5f 44 41 54 41 00 00|        __DATA..|        segname: "__DATA" 0x248-0x257.7 (16)
0x0250|00 00 00 00 00 00 00 00                        |........        |
0x0250|                        00 40 00 00 01 00 00 00|        .@......|        vmaddr: 0x100004000 0x258-0x25f.7 (8)
0x0260|00 40 00 00 00 00 00 00                        |.@......        |        vmsize: 16384 0x260-0x267.7 (8)
0x0260|                        00 40 00 00 00 00 00 00|        .@......|        fileoff: 16384 0x268-0x26f.7 (8)
0x0270|00 40 00 00 00 00 00 00                        |.@......        |        tfilesize: 16384 0x270-0x277.7 (8)
0x0270|                        03 00 00 00            |        ....    |        initprot: 3 0x278-0x27b.7 (4)
0x0270|                                    03 00 00 00|            ....|        maxprot: 3 0x27c-0x27f.7 (4)
0x0280|03 00 00 00                                    |....            |        nsects: 3 0x280-0x283.7 (4)
      |                                               |                |        flags{}: 0x284-0x287.7 (4)
0x0280|            00 00 00 00                        |    ....        |          reserved: raw bits 0x284-0x287.3 (3.4)
0x0280|                     00                        |       .        |          protected_version_1: false 0x287.4-0x287.4 (0.1)
0x0280|                     00                        |       .        |          noreloc: false 0x287.5-0x287.5 (0.1)
0x0280|                     00                        |       .        |          fvmlib: false 0x287.6-0x287.6 (0.1)
0x0280|                     00                        |       .        |          highvm: false 0x287.7-0x287.7 (0.1)
      |                                               |                |      sections[0:3]: 0x288-0x377.7 (240)
      |                                               |                |        [0]{}: section 0x288-0x2d7.7 (80)
0x0280|                        5f 5f 6e 6c 5f 73 79 6d|        __nl_sym|          sectname: "__nl_symbol_ptr" 0x288-0x297.7 (16)
0x0290|62 6f 6c 5f 70 74 72 00                        |bol_ptr.        |
0x0290|                        5f 5f 44 41 54 41 00 00|        __DATA..|          segname: "__DATA" 0x298-0x2a7.7 (16)
0x02a0|00 00 00 00 00 00 00 00                        |........        |
0x02a0|                        00 40 00 00 01 00 00 00|        .@......|          address: 0x100004000 0x2a8-0x2af.7 (8)
0x02b0|08 00 00 00 00 00 00 00                        |........        |          size: 8 0x2b0-0x2b7.7 (8)
0x02b0|                        00 40 00 00            |        .@..    |          offset: 16384 0x2b8-0x2bb.7 (4)
0x02b0|                                    03 00 00 00|            ....|          align: 3 0x2bc-0x2bf.7 (4)
0x02c0|00 00 00 00                                    |....            |          reloff: 0 0x2c0-0x2c3.7 (4)
0x02c0|            00 00 00 00                        |    ....        |          nreloc: 0 0x2c4-0x2c7.7 (4)
      |                                               |                |          flags{}: 0x2c8-0x2ca.7 (3)
0x02c0|                        06                     |        .       |            attr_pure_instructions: false 0x2c8-0x2c8 (0.1)
0x02c0|                        06                     |        .       |            attr_no_toc: false 0x2c8.1-0x2c8.1 (0.1)
0x02c0|                        06                     |        .       |            attr_strip_static_syms: false 0x2c8.2-0x2c8.2 (0.1)
0x02c0|                        06                     |        .       |            attr_no_dead_strip: false 0x2c8.3-0x2c8.3 (0.1)
0x02c0|                        06                     |        .       |            attr_live_support: false 0x2c8.4-0x2c8.4 (0.1)
0x02c0|                        06                     |        .       |            attr_self_modifying_code: true 0x2c8.5-0x2c8.5 (0.1)
0x02c0|                        06                     |        .       |            attr_debug: true 0x2c8.6-0x2c8.6 (0.1)
0x02c0|                        06 00 00               |        ...     |            reserved: raw bits 0x2c8.7-0x2ca.4 (1.6)
0x02c0|                              00               |          .     |            attr_some_instructions: false 0x2ca.5-0x2ca.5 (0.1)
0x02c0|                              00               |          .     |            attr_ext_reloc: false 0x2ca.6-0x2ca.6 (0.1)
0x02c0|                              00               |          .     |            attr_loc_reloc: false 0x2ca.7-0x2ca.7 (0.1)
0x02c0|                                 00            |           .    |          type: "regular" (0) 0x2cb-0x2cb.7 (1)
0x02c0|                                    02 00 00 00|            ....|          reserved1: 2 0x2cc-0x2cf.7 (4)
0x02d0|00 00 00 00                                    |....            |          reserved2: 0 0x2d0-0x2d3.7 (4)
0x02d0|            00 00 00 00                        |    ....        |          reserved3: 0 0x2d4-0x2d7.7 (4)
      |                                               |                |        [1]{}: section 0x2d8-0x327.7 (80)
0x02d0|                        5f 5f 67 6f 74 00 00 00|        __got...|          sectname: "__got" 0x2d8-0x2e7.7 (16)
0x02e0|00 00 00 00 00 00 00 00                        |........        |
0x02e0|                        5f 5f 44 41 54 41 00 00|        __DATA..|          segname: "__DATA" 0x2e8-0x2f7.7 (16)
0x02f0|00 00 00 00 00 00 00 00                        |........        |
0x02f0|                        08 40 00 00 01 00 00 00|        .@......|          address: 0x100004008 0x2f8-0x2ff.7 (8)
0x0300|08 00 00 00 00 00 00 00                        |........        |          size: 8 0x300-0x307.7 (8)
0x0300|                        08 40 00 00            |        .@..    |          offset: 16392 0x308-0x30b.7 (4)
0x0300|                                    03 00 00 00|            ....|          align: 3 0x30c-0x30f.7 (4)
0x0310|00 00 00 00                                    |....            |          reloff: 0 0x310-0x313.7 (4)
0x0310|            00 00 00 00                        |    ....        |          nreloc: 0 0x314-0x317.7 (4)
      |                                               |                |          flags{}: 0x318-0x31a.7 (3)
0x0310|                        06                     |        .       |            attr_pure_instructions: false 0x318-0x318 (0.1)
0x0310|                        06                     |        .       |            attr_no_toc: false 0x318.1-0x318.1 (0.1)
0x0310|                        06                     |        .       |            attr_strip_static_syms: false 0x318.2-0x318.2 (0.1)
0x0310|                        06                     |        .       |            attr_no_dead_strip: false 0x318.3-0x318.3 (0.1)
0x0310|                        06                     |        .       |            attr_live_support: false 0x318.4-0x318.4 (0.1)
0x0310|                        06                     |        .       |            attr_self_modifying_code: true 0x318.5-0x318.5 (0.1)
0x0310|                        06                     |        .       |            attr_debug: true 0x318.6-0x318.6 (0.1)
0x0310|                        06 00 00               |        ...     |            reserved: raw bits 0x318.7-0x31a.4 (1.6)
0x0310|                              00               |          .     |            attr_some_instructions: false 0x31a.5-0x31a.5 (0.1)
0x0310|                              00               |          .     |            attr_ext_reloc: false 0x31a.6-0x31a.6 (0.1)
0x0310|                              00               |          .     |            attr_loc_reloc: false 0x31a.7-0x31a.7 (0.1)
0x0310|                                 00            |           .    |          type: "regular" (0) 0x31b-0x31b.7 (1)
0x0310|                                    03 00 00 00|            ....|          reserved1: 3 0x31c-0x31f.7 (4)
0x0320|00 00 00 00                                    |....            |          reserved2: 0 0x320-0x323.7 (4)
0x0320|            00 00 00 00                        |    ....        |          reserved3: 0 0x324-0x327.7 (4)
      |                                               |                |        [2]{}: section 0x328-0x377.7 (80)
0x0320|                        5f 5f 6c 61 5f 73 79 6d|        __la_sym|          sectname: "__la_symbol_ptr" 0x328-0x337.7 (16)
0x0330|62 6f 6c 5f 70 74 72 00                        |bol_ptr.        |
0x0330|                        5f 5f 44 41 54 41 00 00|        __DATA..|          segname: "__DATA" 0x338-0x347.7 (16)
0x0340|00 00 00 00 00 00 00 00                        |........        |
0x0340|                        10 40 00 00 01 00 00 00|        .@......|          address: 0x100004010 0x348-0x34f.7 (8)
0x0350|10 00 00 00 00 00 00 00                        |........        |          size: 16 0x350-0x357.7 (8)
0x0350|                        10 40 00 00            |        .@..    |          offset: 16400 0x358-0x35b.7 (4)
0x0350|                                    03 00 00 00|            ....|          align: 3 0x35c-0x35f.7 (4)
0x0360|00 00 00 00                                    |....            |          reloff: 0 0x360-0x363.7 (4)
0x0360|            00 00 00 00                        |    ....        |          nreloc: 0 0x364-0x367.7 (4)
      |                                               |                |          flags{}: 0x368-0x36a.7 (3)
0x0360|                        07                     |        .       |            attr_pure_instructions: false 0x368-0x368 (0.1)
0x0360|                        07                     |        .       |            attr_no_toc: false 0x368.1-0x368.1 (0.1)
0x0360|                        07                     |        .       |            attr_strip_static_syms: false 0x368.2-0x368.2 (0.1)
0x0360|                        07                     |        .       |            attr_no_dead_strip: false 0x368.3-0x368.3 (0.1)
0x0360|                        07                     |        .       |            attr_live_support: false 0x368.4-0x368.4 (0.1)
0x0360|                        07                     |        .       |            attr_self_modifying_code: true 0x368.5-0x368.5 (0.1)
0x0360|                        07                     |        .       |            attr_debug: true 0x368.6-0x368.6 (0.1)
0x0360|                        07 00 00               |        ...     |            reserved: raw bits 0x368.7-0x36a.4 (1.6)
0x0360|                              00               |          .     |            attr_some_instructions: false 0x36a.5-0x36a.5 (0.1)
0x0360|                              00               |          .     |            attr_ext_reloc: false 0x36a.6-0x36a.6 (0.1)
0x0360|                              00               |          .     |            attr_loc_reloc: false 0x36a.7-0x36a.7 (0.1)
0x0360|                                 00            |           .    |          type: "regular" (0) 0x36b-0x36b.7 (1)
0x0360|                                    04 00 00 00|            ....|          reserved1: 4 0x36c-0x36f.7 (4)
0x0370|00 00 00 00                                    |....            |          reserved2: 0 0x370-0x373.7 (4)
0x0370|            00 00 00 00                        |    ....        |          reserved3: 0 0x374-0x377.7 (4)
      |                                               |                |    [3]{}: load_command 0x378-0x3bf.7 (72)
0x0370|                        19 00 00 00            |        ....    |      cmd: "segment_64" (0x19) 0x378-0x37b.7 (4)
0x0370|                                    48 00 00 00|            H...|      cmdsize: 72 0x37c-0x37f.7 (4)
      |                                               |                |      segment_command{}: 0x380-0x3bf.7 (64)
      |                                               |                |        arch_bits: 64 0x380-NA (0)
0x0380|5f 5f 4c 49 4e 4b 45 44 49 54 00 00 00 00 00 00|__LINKEDIT......|        segname: "__LINKEDIT" 0x380-0x38f.7 (16)
0x0390|00 80 00 00 01 00 00 00                        |........        |        vmaddr: 0x100008000 0x390-0x397.7 (8)
0x0390|                        38 01 00 00 00 00 00 00|        8.......|        vmsize: 312 0x398-0x39f.7 (8)
0x03a0|00 80 00 00 00 00 00 00                        |........        |        fileoff: 32768 0x3a0-0x3a7.7 (8)
0x03a0|                        38 01 00 00 00 00 00 00|        8.......|        tfilesize: 312 0x3a8-0x3af.7 (8)
0x03b0|01 00 00 00                                    |....            |        initprot: 1 0x3b0-0x3b3.7 (4)
0x03b0|            01 00 00 00                        |    ....        |        maxprot: 1 0x3b4-0x3b7.7 (4)
0x03b0|                        00 00 00 00            |        ....    |        nsects: 0 0x3b8-0x3bb.7 (4)
      |                                               |                |        flags{}: 0x3bc-0x3bf.7 (4)
0x03b0|                                    00 00 00 00|            ....|          reserved: raw bits 0x3bc-0x3bf.3 (3.4)
0x03b0|                                             00|               .|          protected_version_1: false 0x3bf.4-0x3bf.4 (0.1)
0x03b0|                                             00|               .|          noreloc: false 0x3bf.5-0x3bf.5 (0.1)
0x03b0|                                             00|               .|          fvmlib: false 0x3bf.6-0x3bf.6 (0.1)
0x03b0|                                             00|               .|          highvm: false 0x3bf.7-0x3bf.7 (0.1)
      |                                               |                |      sections[0:0]: 0x3c0-NA (0)
      |                                               |                |    [4]{}: load_command 0x3c0-0x3ef.7 (48)
0x03c0|22 00 00 80                                    |"...            |      cmd: "dyld_info_only" (0x80000022) 0x3c0-0x3c3.7 (4)
0x03c0|            30 00 00 00                        |    0...        |      cmdsize: 48 0x3c4-0x3c7.7 (4)
      |                                               |                |      dyld_info{}: 0x3c8-0x3ef.7 (40)
0x03c0|                        00 80 00 00            |        ....    |        rebase_off: 32768 0x3c8-0x3cb.7 (4)
0x03c0|                                    08 00 00 00|            ....|        rebase_size: 8 0x3cc-0x3cf.7 (4)
0x03d0|08 80 00 00                                    |....            |        bind_off: 32776 0x3d0-0x3d3.7 (4)
0x03d0|            18 00 00 00                        |    ....        |        bind_size: 24 0x3d4-0x3d7.7 (4)
0x03d0|                        00 00 00 00            |        ....    |        weak_bind_off: 0 0x3d8-0x3db.7 (4)
0x03d0|                                    00 00 00 00|            ....|        weak_bind_size: 0 0x3dc-0x3df.7 (4)
0x03e0|20 80 00 00                                    | ...            |        lazy_bind_off: 32800 0x3e0-0x3e3.7 (4)
0x03e0|            20 00 00 00                        |     ...        |        lazy_bind_size: 32 0x3e4-0x3e7.7 (4)
0x03e0|                        40 80 00 00            |        @...    |        export_off: 32832 0x3e8-0x3eb.7 (4)
0x03e0|                                    38 00 00 00|            8...|        export_size: 56 0x3ec-0x3ef.7 (4)
      |                                               |                |    [5]{}: load_command 0x3f0-0x407.7 (24)
0x03f0|02 00 00 00                                    |....            |      cmd: "symtab" (0x2) 0x3f0-0x3f3.7 (4)
0x03f0|            18 00 00 00                        |    ....        |      cmdsize: 24 0x3f4-0x3f7.7 (4)
0x03f0|                        80 80 00 00            |        ....    |      symoff: 32896 0x3f8-0x3fb.7 (4)
0x03f0|                                    05 00 00 00|            ....|      nsyms: 5 0x3fc-0x3ff.7 (4)
0x0400|e8 80 00 00                                    |....            |      stroff: 33000 0x400-0x403.7 (4)
0x0400|            50 00 00 00                        |    P...        |      strsize: 80 0x404-0x407.7 (4)
      |                                               |                |    [6]{}: load_command 0x408-0x457.7 (80)
0x0400|                        0b 00 00 00            |        ....    |      cmd: "dysymtab" (0xb) 0x408-0x40b.7 (4)
0x0400|                                    50 00 00 00|            P...|      cmdsize: 80 0x40c-0x40f.7 (4)
0x0410|00 00 00 00                                    |....            |      ilocalsym: 0 0x410-0x413.7 (4)
0x0410|            01 00 00 00                        |    ....        |      nlocalsym: 1 0x414-0x417.7 (4)
0x0410|                        01 00 00 00            |        ....    |      iextdefsym: 1 0x418-0x41b.7 (4)
0x0410|                                    01 00 00 00|            ....|      nextdefsym: 1 0x41c-0x41f.7 (4)
0x0420|02 00 00 00                                    |....            |      iundefsym: 2 0x420-0x423.7 (4)
0x0420|            03 00 00 00                        |    ....        |      nundefsym: 3 0x424-0x427.7 (4)
0x0420|                        00 00 00 00            |        ....    |      tocoff: 0 0x428-0x42b.7 (4)
0x0420|                                    00 00 00 00|            ....|      ntoc: 0 0x42c-0x42f.7 (4)
0x0430|00 00 00 00                                    |....            |      modtaboff: 0 0x430-0x433.7 (4)
0x0430|            00 00 00 00                        |    ....        |      nmodtab: 0 0x434-0x437.7 (4)
0x0430|                        00 00 00 00            |        ....    |      extrefsymoff: 0 0x438-0x43b.7 (4)
0x0430|                                    00 00 00 00|            ....|      nextrefsyms: 0 0x43c-0x43f.7 (4)
0x0440|d0 80 00 00                                    |....            |      indirectsymoff: 32976 0x440-0x443.7 (4)
0x0440|            06 00 00 00                        |    ....        |      nindirectsyms: 6 0x444-0x447.7 (4)
0x0440|                        00 00 00 00            |        ....    |      extreloff: 0 0x448-0x44b.7 (4)
0x0440|                                    00 00 00 00|            ....|      nextrel: 0 0x44c-0x44f.7 (4)
0x0450|00 00 00 00                                    |....            |      locreloff: 0 0x450-0x453.7 (4)
0x0450|            00 00 00 00                        |    ....        |      nlocrel: 0 0x454-0x457.7 (4)
      |                                               |                |    [7]{}: load_command 0x458-0x477.7 (32)
0x0450|                        0e 00 00 00            |        ....    |      cmd: "load_dylinker" (0xe) 0x458-0x45b.7 (4)
0x0450|                                    20 00 00 00|             ...|      cmdsize: 32 0x45c-0x45f.7 (4)
0x0460|0c 00 00 00                                    |....            |      offset: 12 0x460-0x463.7 (4)
0x0460|            2f 75 73 72 2f 6c 69 62 2f 64 79 6c|    /usr/lib/dyl|      name: "/usr/lib/dyld" 0x464-0x477.7 (20)
0x0470|64 00 00 00 00 00 00 00                        |d.......        |
      |                                               |                |    [8]{}: load_command 0x478-0x48f.7 (24)
0x0470|                        1b 00 00 00            |        ....    |      cmd: "uuid" (0x1b) 0x478-0x47b.7 (4)
0x0470|                                    18 00 00 00|            ....|      cmdsize: 24 0x47c-0x47f.7 (4)
      |                                               |                |      uuid_command{}: 0x480-0x48f.7 (16)
0x0480|52 81 b8 a8 8b ed 36 8a 86 12 e7 d3 45 59 0e 48|R.....6.....EY.H|        uuid: raw bits 0x480-0x48f.7 (16)
      |                                               |                |    [9]{}: load_command 0x490-0x49f.7 (16)
0x0490|24 00 00 00                                    |$...            |      cmd: "version_min_macosx" (0x24) 0x490-0x493.7 (4)
0x0490|            10 00 00 00                        |    ....        |      cmdsize: 16 0x494-0x497.7 (4)
0x0490|                        00 0c 0a 00            |        ....    |      version: 658432 0x498-0x49b.7 (4)
0x0490|                                    00 01 0c 00|            ....|      sdk: 786688 0x49c-0x49f.7 (4)
      |                                               |                |    [10]{}: load_command 0x4a0-0x4af.7 (16)
0x04a0|2a 00 00 00                                    |*...            |      cmd: "source_version" (0x2a) 0x4a0-0x4a3.7 (4)
0x04a0|            10 00 00 00                        |    ....        |      cmdsize: 16 0x4a4-0x4a7.7 (4)
      |                                               |                |      source_version_tag{}: 0x4a8-0x4af.7 (8)
0x04a0|                        00 00 00 00 00 00 00 00|        ........|        tag: 0 0x4a8-0x4af.7 (8)
      |                                               |                |    [11]{}: load_command 0x4b0-0x4c7.7 (24)
0x04b0|28 00 00 80                                    |(...            |      cmd: "main" (0x80000028) 0x4b0-0x4b3.7 (4)
0x04b0|            18 00 00 00                        |    ....        |      cmdsize: 24 0x4b4-0x4b7.7 (4)
      |                                               |                |      entrypoint{}: 0x4b8-0x4c7.7 (16)
0x04b0|                        60 3f 00 00 00 00 00 00|        `?......|        entryoff: 16224 0x4b8-0x4bf.7 (8)
0x04c0|00 00 00 00 00 00 00 00                        |........        |        stacksize: 0 0x4c0-0x4c7.7 (8)
      |                                               |                |    [12]{}: load_command 0x4c8-0x4ef.7 (40)
0x04c0|                        0c 00 00 00            |        ....    |      cmd: "load_dylib" (0xc) 0x4c8-0x4cb.7 (4)
0x04c0|                                    28 00 00 00|            (...|      cmdsize: 40 0x4cc-0x4cf.7 (4)
      |                                               |                |      dylib_command{}: 0x4d0-0x4ef.7 (32)
0x04d0|18 00 00 00                                    |....            |        offset: 24 0x4d0-0x4d3.7 (4)
0x04d0|            02 00 00 00                        |    ....        |        timestamp: "1970-01-01 00:00:00.002 +0000 UTC" (2) 0x4d4-0x4d7.7 (4)
0x04d0|                        00 00 00 00            |        ....    |        current_version: 0 0x4d8-0x4db.7 (4)
0x04d0|                                    00 00 00 00|            ....|        compatibility_version: 0 0x4dc-0x4df.7 (4)
0x04e0|6c 69 62 62 62 62 2e 73 6f 00 00 00 00 00 00 00|libbbb.so.......|        name: "libbbb.so" 0x4e0-0x4ef.7 (16)
      |                                               |                |    [13]{}: load_command 0x4f0-0x527.7 (56)
0x04f0|0c 00 00 00                                    |....            |      cmd: "load_dylib" (0xc) 0x4f0-0x4f3.7 (4)
0x04f0|            38 00 00 00                        |    8...        |      cmdsize: 56 0x4f4-0x4f7.7 (4)
      |                                               |                |      dylib_command{}: 0x4f8-0x527.7 (48)
0x04f0|                        18 00 00 00            |        ....    |        offset: 24 0x4f8-0x4fb.7 (4)
0x04f0|                                    02 00 00 00|            ....|        timestamp: "1970-01-01 00:00:00.002 +0000 UTC" (2) 0x4fc-0x4ff.7 (4)
0x0500|00 00 1f 05                                    |....            |        current_version: 85917696 0x500-0x503.7 (4)
0x0500|            00 00 01 00                        |    ....        |        compatibility_version: 65536 0x504-0x507.7 (4)
0x0500|                        2f 75 73 72 2f 6c 69 62|        /usr/lib|        name: "/usr/lib/libSystem.B.dylib" 0x508-0x527.7 (32)
0x0510|2f 6c 69 62 53 79 73 74 65 6d 2e 42 2e 64 79 6c|/libSystem.B.dyl|
0x0520|69 62 00 00 00 00 00 00                        |ib......        |
      |                                               |                |    [14]{}: load_command 0x528-0x537.7 (16)
0x0520|                        26 00 00 00            |        &...    |      cmd: "function_starts" (0x26) 0x528-0x52b.7 (4)
0x0520|                                    10 00 00 00|            ....|      cmdsize: 16 0x52c-0x52f.7 (4)
      |                                               |                |      linkedit_data{}: 0x530-0x537.7 (8)
0x0530|78 80 00 00                                    |x...            |        off: 32888 0x530-0x533.7 (4)
0x0530|            08 00 00 00                        |    ....        |        size: 8 0x534-0x537.7 (4)
      |                                               |                |    [15]{}: load_command 0x538-0x547.7 (16)
0x0530|                        29 00 00 00            |        )...    |      cmd: "data_in_code" (0x29) 0x538-0x53b.7 (4)
0x0530|                                    10 00 00 00|            ....|      cmdsize: 16 0x53c-0x53f.7 (4)
      |                                               |                |      linkedit_data{}: 0x540-0x547.7 (8)
0x0540|80 80 00 00                                    |....            |        off: 32896 0x540-0x543.7 (4)
0x0540|            00 00 00 00                        |    ....        |        size: 0 0x544-0x547.7 (4)
0x0540|                        00 00 00 00 00 00 00 00|        ........|  unknown0: raw bits 0x548-0x8137.7 (31728)
0x0550|00 00 00 00 00 00 00 00 00 00 00 00 00 00 00 00|................|
*     |until 0x8137.7 (end) (31728)                   |                |
