$ fq -d macho v libbbb.a
     |00 01 02 03 04 05 06 07 08 09 0a 0b 0c 0d 0e 0f|0123456789abcdef|.{}: libbbb.a (macho) 0x0-0x3b7.7 (952)
     |                                               |                |  ar{}: (ar) 0x0-0x3b7.7 (952)
0x000|21 3c 61 72 63 68 3e 0a                        |!<arch>.        |    signature: "!<arch>\n" (valid) 0x0-0x7.7 (8)
     |                                               |                |    files[0:2]: 0x8-0x3b7.7 (944)
     |                                               |                |      [0]{}: file 0x8-0x77.7 (112)
0x000|                        23 31 2f 32 30 20 20 20|        #1/20   |        identifier: "#1/20" 0x8-0x17.7 (16)
0x010|20 20 20 20 20 20 20 20                        |                |
0x010|                        31 36 34 31 38 34 38 31|        16418481|        modification_timestamp: 1641848149 ("1641848149") 0x18-0x23.7 (12)
0x020|34 39 20 20                                    |49              |
0x020|            35 30 33 20 20 20                  |    503         |        owner_id: 503 ("503") 0x24-0x29.7 (6)
0x020|                              32 30 20 20 20 20|          20    |        group_id: 20 ("20") 0x2a-0x2f.7 (6)
0x030|31 30 30 36 34 34 20 20                        |100644          |        file_mode: 33188 ("100644") 0x30-0x37.7 (8)
0x030|                        35 32 20 20 20 20 20 20|        52      |        file_size: 52 ("52") 0x38-0x41.7 (10)
0x040|20 20                                          |                |
0x040|      60 0a                                    |  `.            |        ending_characters: "`\n" 0x42-0x43.7 (2)
0x040|            5f 5f 2e 53 59 4d 44 45 46 20 53 4f|    __.SYMDEF SO|        data: raw bits 0x44-0x77.7 (52)
0x050|52 54 45 44 00 00 00 00 08 00 00 00 00 00 00 00|RTED............|
*    |until 0x77.7 (52)                              |                |
     |                                               |                |      [1]{}: file 0x78-0x3b7.7 (832)
0x070|                        23 31 2f 31 32 20 20 20|        #1/12   |        identifier: "#1/12" 0x78-0x87.7 (16)
0x080|20 20 20 20 20 20 20 20                        |                |
0x080|                        31 36 34 31 38 34 38 31|        16418481|        modification_timestamp: 1641848144 ("1641848144") 0x88-0x93.7 (12)
0x090|34 34 20 20                                    |44              |
0x090|            35 30 33 20 20 20                  |    503         |        owner_id: 503 ("503") 0x94-0x99.7 (6)
0x090|                              32 30 20 20 20 20|          20    |        group_id: 20 ("20") 0x9a-0x9f.7 (6)
0x0a0|31 30 30 36 34 34 20 20                        |100644          |        file_mode: 33188 ("100644") 0xa0-0xa7.7 (8)
0x0a0|                        37 37 32 20 20 20 20 20|        772     |        file_size: 772 ("772") 0xa8-0xb1.7 (10)
0x0b0|20 20                                          |                |
0x0b0|      60 0a                                    |  `.            |        ending_characters: "`\n" 0xb2-0xb3.7 (2)
0x0b0|            6c 69 62 62 62 62 2e 6f 00 00 00 00|    libbbb.o....|        data: raw bits 0xb4-0x3b7.7 (772)
0x0c0|cf fa ed fe 07 00 00 01 03 00 00 00 01 00 00 00|................|
*    |until 0x3b7.7 (end) (772)                      |                |
