/mono16.flac:
> fq -d flac mono16.flac verbose
      |00 01 02 03 04 05 06 07 08 09 0a 0b 0c 0d 0e 0f|                |.: flac 0x0-0x8597.7 (34200)
0x0000|66 4c 61 43                                    |fLaC            |  magic: "fLaC" (Correct) 0x0-0x3.7 (4)
      |                                               |                |  metadatablocks: [4] 0x4-0x206f.7 (8300)
      |                                               |                |    [0]: flac_metadatablock (metadatablock) 0x4-0x29.7 (38)
0x0000|            00                                 |    .           |      last_block: false 0x4-0x4 (0.1)
0x0000|            00                                 |    .           |      type: Streaminfo (0) 0x4.1-0x4.7 (0.7)
0x0000|               00 00 22                        |     .."        |      length: 34 0x5-0x7.7 (3)
0x0000|                        10 00                  |        ..      |      minimum_block_size: 4096 0x8-0x9.7 (2)
0x0000|                              10 00            |          ..    |      maximum_block_size: 4096 0xa-0xb.7 (2)
0x0000|                                    00 00 0b   |            ... |      minimum_frame_size: 11 0xc-0xe.7 (3)
0x0000|                                             00|               .|      maximum_frame_size: 7947 0xf-0x11.7 (3)
0x0010|1f 0b                                          |..              |
0x0010|      0a c4 40                                 |  ..@           |      sample_rate: 44100 0x12-0x14.3 (2.4)
0x0010|            40                                 |    @           |      channels: 1 0x14.4-0x14.6 (0.3)
0x0010|            40 f0                              |    @.          |      bits_per_sample: 16 0x14.7-0x15.3 (0.5)
0x0010|               f0 00 00 56 22                  |     ...V"      |      total_samples_in_stream: 22050 0x15.4-0x19.7 (4.4)
0x0010|                              29 cf 8e b6 22 e9|          )...".|      md5: 29cf8eb622e9be01808ecafe817d17a6 0x1a-0x29.7 (16)
0x0020|be 01 80 8e ca fe 81 7d 17 a6                  |.......}..      |
      |                                               |                |    [1]: flac_metadatablock (metadatablock) 0x2a-0x3f.7 (22)
0x0020|                              03               |          .     |      last_block: false 0x2a-0x2a (0.1)
0x0020|                              03               |          .     |      type: Seektable (3) 0x2a.1-0x2a.7 (0.7)
0x0020|                                 00 00 12      |           ...  |      length: 18 0x2b-0x2d.7 (3)
      |                                               |                |      seekpoints: [1] 0x2e-0x3f.7 (18)
      |                                               |                |        [0]: {} (seekpoint) 0x2e-0x3f.7 (18)
0x0020|                                          00 00|              ..|          sample_number: 0 0x2e-0x35.7 (8)
0x0030|00 00 00 00 00 00                              |......          |
0x0030|                  00 00 00 00 00 00 00 00      |      ........  |          offset: 0 0x36-0x3d.7 (8)
0x0030|                                          10 00|              ..|          number_of_samples: 4096 0x3e-0x3f.7 (2)
      |                                               |                |    [2]: flac_metadatablock (metadatablock) 0x40-0x6b.7 (44)
0x0040|04                                             |.               |      last_block: false 0x40-0x40 (0.1)
0x0040|04                                             |.               |      type: Vorbis comment (4) 0x40.1-0x40.7 (0.7)
0x0040|   00 00 28                                    | ..(            |      length: 40 0x41-0x43.7 (3)
      |                                               |                |      comment: vorbis_comment 0x44-0x6b.7 (40)
0x0040|            20 00 00 00                        |     ...        |        vendor_length: 32 0x44-0x47.7 (4)
0x0040|                        72 65 66 65 72 65 6e 63|        referenc|        vendor: "reference libFLAC 1.3.3 20190804" 0x48-0x67.7 (32)
0x0050|65 20 6c 69 62 46 4c 41 43 20 31 2e 33 2e 33 20|e libFLAC 1.3.3 |
0x0060|32 30 31 39 30 38 30 34                        |20190804        |
0x0060|                        00 00 00 00            |        ....    |        user_comment_list_length: 0 0x68-0x6b.7 (4)
      |                                               |                |        user_comments: [0] 0x6c-NA (0)
      |                                               |                |    [3]: flac_metadatablock (metadatablock) 0x6c-0x206f.7 (8196)
0x0060|                                    81         |            .   |      last_block: true 0x6c-0x6c (0.1)
0x0060|                                    81         |            .   |      type: Padding (1) 0x6c.1-0x6c.7 (0.7)
0x0060|                                       00 20 00|             . .|      length: 8192 0x6d-0x6f.7 (3)
0x0070|00 00 00 00 00 00 00 00 00 00 00 00 00 00 00 00|................|      data: 00000000000000000000000000000000... 0x70-0x206f.7 (8192)
*     |until 0x206f.7 (8192)                          |                |
      |                                               |                |  frames: [6] 0x2070-0x8597.7 (25896)
      |                                               |                |    [0]: flac_frame (frame) 0x2070-0x207a.7 (11)
0x2070|ff f8                                          |..              |      sync: Correct (0x3ffe) 0x2070-0x2071.5 (1.6)
0x2070|   f8                                          | .              |      reserved0: Correct (0x0) 0x2071.6-0x2071.6 (0.1)
0x2070|   f8                                          | .              |      blocking_strategy: Fixed (0) 0x2071.7-0x2071.7 (0.1)
0x2070|      c9                                       |  .             |      block_size: 4096 0x2072-0x2072.3 (0.4)
0x2070|      c9                                       |  .             |      sample_rate: 44100 0x2072.4-0x2072.7 (0.4)
0x2070|         08                                    |   .            |      channel_assignment: mono (1) 0x2073-0x2073.3 (0.4)
0x2070|         08                                    |   .            |      sample_size: 16 0x2073.4-0x2073.6 (0.3)
0x2070|         08                                    |   .            |      reserved1: Correct (0x0) 0x2073.7-0x2073.7 (0.1)
      |                                               |                |      end_of_header: {} 0x2074-0x2074.7 (1)
0x2070|            00                                 |    .           |        frame_number: 0 0x2074-0x2074.7 (1)
0x2070|               95                              |     .          |      crc: Correct (95) 0x2075-0x2075.7 (1)
      |                                               |                |      subframes: [1] 0x2076-0x2078.7 (3)
      |                                               |                |        [0]: {} (subframe) 0x2076-0x2078.7 (3)
0x2070|                  00                           |      .         |          zero_bit: Correct (0x0) 0x2076-0x2076 (0.1)
0x2070|                  00                           |      .         |          subframe_type: Constant (0) 0x2076.1-0x2076.6 (0.6)
      |                                               |                |          lpc_order: 0 0x2076.7-NA (0)
0x2070|                  00                           |      .         |          wasted_bits_flag: 0 0x2076.7-0x2076.7 (0.1)
      |                                               |                |          subframe_sample_size: 16 0x2077-NA (0)
0x2070|                     00 00                     |       ..       |          value: 0 0x2077-0x2078.7 (2)
      |                                               |                |      byte_align: Correct (0x0) 0x2079-NA (0)
0x2070|                           21 bd               |         !.     |      footer_crc: Correct (21bd) 0x2079-0x207a.7 (2)
      |                                               |                |    [1]: flac_frame (frame) 0x207b-0x26d7.7 (1629)
0x2070|                                 ff f8         |           ..   |      sync: Correct (0x3ffe) 0x207b-0x207c.5 (1.6)
0x2070|                                    f8         |            .   |      reserved0: Correct (0x0) 0x207c.6-0x207c.6 (0.1)
0x2070|                                    f8         |            .   |      blocking_strategy: Fixed (0) 0x207c.7-0x207c.7 (0.1)
0x2070|                                       c9      |             .  |      block_size: 4096 0x207d-0x207d.3 (0.4)
0x2070|                                       c9      |             .  |      sample_rate: 44100 0x207d.4-0x207d.7 (0.4)
0x2070|                                          08   |              . |      channel_assignment: mono (1) 0x207e-0x207e.3 (0.4)
0x2070|                                          08   |              . |      sample_size: 16 0x207e.4-0x207e.6 (0.3)
0x2070|                                          08   |              . |      reserved1: Correct (0x0) 0x207e.7-0x207e.7 (0.1)
      |                                               |                |      end_of_header: {} 0x207f-0x207f.7 (1)
0x2070|                                             01|               .|        frame_number: 1 0x207f-0x207f.7 (1)
0x2080|92                                             |.               |      crc: Correct (92) 0x2080-0x2080.7 (1)
      |                                               |                |      subframes: [1] 0x2081-0x26d5.7 (1621)
      |                                               |                |        [0]: {} (subframe) 0x2081-0x26d5.7 (1621)
0x2080|   16                                          | .              |          zero_bit: Correct (0x0) 0x2081-0x2081 (0.1)
0x2080|   16                                          | .              |          subframe_type: Fixed (2) 0x2081.1-0x2081.6 (0.6)
      |                                               |                |          lpc_order: 3 0x2081.7-NA (0)
0x2080|   16                                          | .              |          wasted_bits_flag: 0 0x2081.7-0x2081.7 (0.1)
      |                                               |                |          subframe_sample_size: 16 0x2082-NA (0)
      |                                               |                |          warmup_samples: [3] 0x2082-0x2087.7 (6)
0x2080|      00 00                                    |  ..            |            [0]: 0 (value) 0x2082-0x2083.7 (2)
0x2080|            00 00                              |    ..          |            [1]: 0 (value) 0x2084-0x2085.7 (2)
0x2080|                  00 00                        |      ..        |            [2]: 0 (value) 0x2086-0x2087.7 (2)
0x2080|                        10                     |        .       |          residual_coding_method: rice (4) 0x2088-0x2088.1 (0.2)
0x2080|                        10                     |        .       |          partition_order: 4 0x2088.2-0x2088.5 (0.4)
      |                                               |                |          rice_partitions: 16 0x2088.6-NA (0)
      |                                               |                |          partitions: [16] 0x2088.6-0x26d5.7 (1613.2)
      |                                               |                |            [0]: {} (partition) 0x2088.6-0x20a8.6 (32.1)
0x2080|                        10 3f                  |        .?      |              rice_parameter: 0 0x2088.6-0x2089.1 (0.4)
0x2080|                           3f ff ff ff ff ff ff|         ?......|              samples: ffffffffffffffffffffffffffffffff... 0x2089.2-0x20a8.6 (31.5)
0x2090|ff ff ff ff ff ff ff ff ff ff ff ff ff ff ff ff|................|
0x20a0|ff ff ff ff ff ff ff ff fe                     |.........       |
      |                                               |                |            [1]: {} (partition) 0x20a8.7-0x212b.7 (131.1)
0x20a0|                        fe 52                  |        .R      |              rice_parameter: 2 0x20a8.7-0x20a9.2 (0.4)
0x20a0|                           52 49 24 92 49 24 92|         RI$.I$.|              samples: 92492492492492492492492492492492... 0x20a9.3-0x212b.7 (130.5)
0x20b0|49 24 92 49 24 92 49 24 92 49 24 92 49 24 92 40|I$.I$.I$.I$.I$.@|
*     |until 0x212b.7 (131)                           |                |
      |                                               |                |            [2]: {} (partition) 0x212c-0x2193.3 (103.4)
0x2120|                                    11         |            .   |              rice_parameter: 1 0x212c-0x212c.3 (0.4)
0x2120|                                    11 62 71 38|            .bq8|              samples: 16271388d7df98835b184373f9fcc9b1... 0x212c.4-0x2193.3 (103)
0x2130|8d 7d f9 88 35 b1 84 37 3f 9f cc 9b 11 93 11 84|.}..5..7?.......|
*     |until 0x2193.3 (103)                           |                |
      |                                               |                |            [3]: {} (partition) 0x2193.4-0x21fd (105.5)
0x2190|         f1                                    |   .            |              rice_parameter: 1 0x2193.4-0x2193.7 (0.4)
0x2190|            5b 5a 64 d2 5a 49 45 0a 82 c8 89 88|    [Zd.ZIE.....|              samples: 5b5a64d25a49450a82c88988a44b1691... 0x2194-0x21fd (105.1)
0x21a0|a4 4b 16 91 0c 27 11 ad 3f 43 59 a6 e3 a1 ce 8e|.K...'..?CY.....|
*     |until 0x21fd (106)                             |                |
      |                                               |                |            [4]: {} (partition) 0x21fd.1-0x2261.5 (100.5)
0x21f0|                                       0a      |             .  |              rice_parameter: 1 0x21fd.1-0x21fd.4 (0.4)
0x21f0|                                       0a 61 69|             .ai|              samples: 4c2d308d28d235bbcd67668ff41a9f5e... 0x21fd.5-0x2261.5 (100.1)
0x2200|84 69 46 91 ad de 6b 3b 34 7f a0 d4 fa f2 32 aa|.iF...k;4.....2.|
*     |until 0x2261.5 (101)                           |                |
      |                                               |                |            [5]: {} (partition) 0x2261.6-0x22cb (105.3)
0x2260|   8c 66                                       | .f             |              rice_parameter: 1 0x2261.6-0x2262.1 (0.4)
0x2260|      66 9a 32 f5 65 65 22 c9 16 24 a0 b1 62 4a|  f.2.ee"..$..bJ|              samples: 9a68cbd595948b24589282c589289489... 0x2262.2-0x22cb (104.7)
0x2270|25 22 62 e8 9e 4e 43 21 88 cc 43 f8 e3 43 23 f9|%"b..NC!..C..C#.|
*     |until 0x22cb (105)                             |                |
      |                                               |                |            [6]: {} (partition) 0x22cb.1-0x2330.7 (101.7)
0x22c0|                                 0a            |           .    |              rice_parameter: 1 0x22cb.1-0x22cb.4 (0.4)
0x22c0|                                 0a 2c 96 59 72|           .,.Yr|              samples: 4592cb2e5eb434868d3dc778c8f43598... 0x22cb.5-0x2330.7 (101.3)
0x22d0|f5 a1 a4 34 69 ee 3b c6 47 a1 ac c4 6b 65 31 32|...4i.;.G...ke12|
*     |until 0x2330.7 (102)                           |                |
      |                                               |                |            [7]: {} (partition) 0x2331-0x239a.3 (105.4)
0x2330|   1f                                          | .              |              rice_parameter: 1 0x2331-0x2331.3 (0.4)
0x2330|   1f 9e 9e bc 9a 88 c5 13 12 51 16 24 90 98 4b| .........Q.$..K|              samples: f9e9ebc9a88c5131251162490984b098... 0x2331.4-0x239a.3 (105)
0x2340|09 84 c2 31 62 71 38 8d 7d f9 88 35 b1 84 37 3f|...1bq8.}..5..7?|
*     |until 0x239a.3 (105)                           |                |
      |                                               |                |            [8]: {} (partition) 0x239a.4-0x2401 (102.5)
0x2390|                              b1               |          .     |              rice_parameter: 1 0x239a.4-0x239a.7 (0.4)
0x2390|                                 14 52 49 30 99|           .RI0.|              samples: 1452493099348c4d938d6f8e7bb3b76f... 0x239b-0x2401 (102.1)
0x23a0|34 8c 4d 93 8d 6f 8e 7b b3 b7 6f 5b 5a 64 d2 5a|4.M..o.{..o[Zd.Z|
*     |until 0x2401 (103)                             |                |
      |                                               |                |            [9]: {} (partition) 0x2401.1-0x2467.5 (102.5)
0x2400|   0b                                          | .              |              rice_parameter: 1 0x2401.1-0x2401.4 (0.4)
0x2400|   0b f9 fc c9 b1 19 31 18 4e 22 d1 42 60 99 09| ......1.N".B`..|              samples: 7f3f993623262309c45a284c13212604... 0x2401.5-0x2467.5 (102.1)
0x2410|30 26 2c 4b 12 61 69 84 69 46 91 ad de 6b 3b 34|0&,K.ai.iF...k;4|
*     |until 0x2467.5 (103)                           |                |
      |                                               |                |            [10]: {} (partition) 0x2467.6-0x24d1.3 (105.6)
0x2460|                     88 58                     |       .X       |              rice_parameter: 1 0x2467.6-0x2468.1 (0.4)
0x2460|                        58 8a 44 b1 69 10 c2 71|        X.D.i..q|              samples: 622912c5a44309c46b4fd0d669b8e873... 0x2468.2-0x24d1.3 (105.2)
0x2470|1a d3 f4 35 9a 6e 3a 1c e8 e6 9a 32 f5 65 65 22|...5.n:....2.ee"|
*     |until 0x24d1.3 (106)                           |                |
      |                                               |                |            [11]: {} (partition) 0x24d1.4-0x2535.3 (100)
0x24d0|   31                                          | 1              |              rice_parameter: 1 0x24d1.4-0x24d1.7 (0.4)
0x24d0|      47 fa 0d 4f af 23 2a a4 94 8a 44 b0 5a 12|  G..O.#*...D.Z.|              samples: 47fa0d4faf232aa4948a44b05a12604c... 0x24d2-0x2535.3 (99.4)
0x24e0|60 4c 92 2c 96 59 72 f5 a1 a4 34 69 ee 3b c6 47|`L.,.Yr...4i.;.G|
*     |until 0x2535.3 (100)                           |                |
      |                                               |                |            [12]: {} (partition) 0x2535.4-0x259e.7 (105.4)
0x2530|               a1                              |     .          |              rice_parameter: 1 0x2535.4-0x2535.7 (0.4)
0x2530|                  0b 16 24 a2 52 26 2e 89 e4 e4|      ..$.R&....|              samples: 0b1624a252262e89e4e432188cc43f8e... 0x2536-0x259e.7 (105)
0x2540|32 18 8c c4 3f 8e 34 32 3f 9e 9e bc 9a 88 c5 13|2...?.42?.......|
*     |until 0x259e.7 (105)                           |                |
      |                                               |                |            [13]: {} (partition) 0x259f-0x2604.6 (101.7)
0x2590|                                             13|               .|              rice_parameter: 1 0x259f-0x259f.3 (0.4)
0x2590|                                             13|               .|              samples: 3bc647a1acc46b653132b22d098908c1... 0x259f.4-0x2604.6 (101.3)
0x25a0|bc 64 7a 1a cc 46 b6 53 13 2b 22 d0 98 90 8c 16|.dz..F.S.+".....|
*     |until 0x2604.6 (102)                           |                |
      |                                               |                |            [14]: {} (partition) 0x2604.7-0x266f.1 (106.3)
0x2600|            16 22                              |    ."          |              rice_parameter: 1 0x2604.7-0x2605.2 (0.4)
0x2600|               22 49 09 84 b0 98 4c 23 16 27 13|     "I....L#.'.|              samples: 12484c2584c26118b1389c46befcc41a... 0x2605.3-0x266f.1 (105.7)
0x2610|88 d7 df 98 83 5b 18 43 73 f9 fc c9 b1 19 31 18|.....[.Cs.....1.|
*     |until 0x266f.1 (106)                           |                |
      |                                               |                |            [15]: {} (partition) 0x266f.2-0x26d5.7 (102.6)
0x2660|                                             84|               .|              rice_parameter: 1 0x266f.2-0x266f.5 (0.4)
0x2660|                                             84|               .|              samples: 39eeceddbd6d6993496925142a0b2226... 0x266f.6-0x26d5.7 (102.2)
0x2670|e7 bb 3b 76 f5 b5 a6 4d 25 a4 94 50 a8 2c 88 98|..;v...M%..P.,..|
*     |until 0x26d5.7 (103)                           |                |
      |                                               |                |      byte_align: Correct (0x0) 0x26d6-NA (0)
0x26d0|                  73 a5                        |      s.        |      footer_crc: Correct (73a5) 0x26d6-0x26d7.7 (2)
      |                                               |                |    [2]: flac_frame (frame) 0x26d8-0x45e2.7 (7947)
0x26d0|                        ff f8                  |        ..      |      sync: Correct (0x3ffe) 0x26d8-0x26d9.5 (1.6)
0x26d0|                           f8                  |         .      |      reserved0: Correct (0x0) 0x26d9.6-0x26d9.6 (0.1)
0x26d0|                           f8                  |         .      |      blocking_strategy: Fixed (0) 0x26d9.7-0x26d9.7 (0.1)
0x26d0|                              c9               |          .     |      block_size: 4096 0x26da-0x26da.3 (0.4)
0x26d0|                              c9               |          .     |      sample_rate: 44100 0x26da.4-0x26da.7 (0.4)
0x26d0|                                 08            |           .    |      channel_assignment: mono (1) 0x26db-0x26db.3 (0.4)
0x26d0|                                 08            |           .    |      sample_size: 16 0x26db.4-0x26db.6 (0.3)
0x26d0|                                 08            |           .    |      reserved1: Correct (0x0) 0x26db.7-0x26db.7 (0.1)
      |                                               |                |      end_of_header: {} 0x26dc-0x26dc.7 (1)
0x26d0|                                    02         |            .   |        frame_number: 2 0x26dc-0x26dc.7 (1)
0x26d0|                                       9b      |             .  |      crc: Correct (9b) 0x26dd-0x26dd.7 (1)
      |                                               |                |      subframes: [1] 0x26de-0x45e0.6 (7938.7)
      |                                               |                |        [0]: {} (subframe) 0x26de-0x45e0.6 (7938.7)
0x26d0|                                          10   |              . |          zero_bit: Correct (0x0) 0x26de-0x26de (0.1)
0x26d0|                                          10   |              . |          subframe_type: Fixed (2) 0x26de.1-0x26de.6 (0.6)
      |                                               |                |          lpc_order: 0 0x26de.7-NA (0)
0x26d0|                                          10   |              . |          wasted_bits_flag: 0 0x26de.7-0x26de.7 (0.1)
      |                                               |                |          subframe_sample_size: 16 0x26df-NA (0)
      |                                               |                |          warmup_samples: [0] 0x26df-NA (0)
0x26d0|                                             16|               .|          residual_coding_method: rice (4) 0x26df-0x26df.1 (0.2)
0x26d0|                                             16|               .|          partition_order: 5 0x26df.2-0x26df.5 (0.4)
      |                                               |                |          rice_partitions: 32 0x26df.6-NA (0)
      |                                               |                |          partitions: [32] 0x26df.6-0x45e0.6 (7937.1)
      |                                               |                |            [0]: {} (partition) 0x26df.6-0x27b8.2 (216.5)
0x26d0|                                             16|               .|              rice_parameter: 11 0x26df.6-0x26e0.1 (0.4)
0x26e0|eb                                             |.               |
0x26e0|eb d7 1e f8 27 e6 d2 56 ab 76 21 b7 0d e7 64 52|....'..V.v!...dR|              samples: af5c7be09f9b495aadd886dc379d914a... 0x26e0.2-0x27b8.2 (216.1)
0x26f0|94 06 5a 79 90 e6 d6 9d 76 7d 78 88 d1 29 a2 7c|..Zy....v}x..).||
*     |until 0x27b8.2 (217)                           |                |
      |                                               |                |            [1]: {} (partition) 0x27b8.3-0x2885 (204.6)
0x27b0|                        d7                     |        .       |              rice_parameter: 11 0x27b8.3-0x27b8.6 (0.4)
0x27b0|                        d7 66 97 81 86 19 01 96|        .f......|              samples: b34bc0c30c80cb4ccccc4ca2c62c08b9... 0x27b8.7-0x2885 (204.2)
0x27c0|99 99 98 99 45 8c 58 11 72 96 09 4b 93 41 19 d0|....E.X.r..K.A..|
*     |until 0x2885 (205)                             |                |
      |                                               |                |            [2]: {} (partition) 0x2885.1-0x295d.6 (216.6)
0x2880|               5f                              |     _          |              rice_parameter: 11 0x2885.1-0x2885.4 (0.4)
0x2880|               5f a8 22 e1 45 4b a2 68 e3 a6 08|     _.".EK.h...|              samples: f5045c28a9744d1c74c10204c215e862... 0x2885.5-0x295d.6 (216.2)
0x2890|10 26 10 af 43 16 0d b0 3b e0 41 80 95 81 4d 42|.&..C...;.A...MB|
*     |until 0x295d.6 (217)                           |                |
      |                                               |                |            [3]: {} (partition) 0x295d.7-0x2a2d.1 (207.3)
0x2950|                                       bf 69   |             .i |              rice_parameter: 11 0x295d.7-0x295e.2 (0.4)
0x2950|                                          69 39|              i9|              samples: 49ca7dd536b1f5c3af4d7fec0f601af5... 0x295e.3-0x2a2d.1 (206.7)
0x2960|4f ba a6 d6 3e b8 75 e9 af fd 81 ec 03 5e ba e4|O...>.u......^..|
*     |until 0x2a2d.1 (207)                           |                |
      |                                               |                |            [4]: {} (partition) 0x2a2d.2-0x2b09.6 (220.5)
0x2a20|                                       73      |             s  |              rice_parameter: 12 0x2a2d.2-0x2a2d.5 (0.4)
0x2a20|                                       73 0c 79|             s.y|              samples: c31e68f5dbc3fecdfbdd05546cd30b51... 0x2a2d.6-0x2b09.6 (220.1)
0x2a30|a3 d7 6f 0f fb 37 ef 74 15 51 b3 4c 2d 45 b5 69|..o..7.t.Q.L-E.i|
*     |until 0x2b09.6 (221)                           |                |
      |                                               |                |            [5]: {} (partition) 0x2b09.7-0x2c05.3 (251.5)
0x2b00|                           07 c5               |         ..     |              rice_parameter: 14 0x2b09.7-0x2b0a.2 (0.4)
0x2b00|                              c5 c8 23 cc 14 1f|          ..#...|              samples: 2e411e60a0ff2b9bb640b05df5c9bcaa... 0x2b0a.3-0x2c05.3 (251.1)
0x2b10|e5 73 76 c8 16 0b be b9 37 95 5d 27 e8 97 36 eb|.sv.....7.]'..6.|
*     |until 0x2c05.3 (252)                           |                |
      |                                               |                |            [6]: {} (partition) 0x2c05.4-0x2d04.6 (255.3)
0x2c00|               ce                              |     .          |              rice_parameter: 14 0x2c05.4-0x2c05.7 (0.4)
0x2c00|                  b1 82 ee 75 1d b8 e4 b3 41 a9|      ...u....A.|              samples: b182ee751db8e4b341a91965cdd10182... 0x2c06-0x2d04.6 (254.7)
0x2c10|19 65 cd d1 01 82 5c 3a 76 aa b9 29 77 ea 2f 51|.e....\:v..)w./Q|
*     |until 0x2d04.6 (255)                           |                |
      |                                               |                |            [7]: {} (partition) 0x2d04.7-0x2e03.4 (254.6)
0x2d00|            17 c3                              |    ..          |              rice_parameter: 14 0x2d04.7-0x2d05.2 (0.4)
0x2d00|               c3 28 43 b8 0a d3 7b dd 45 49 c9|     .(C...{.EI.|              samples: 19421dc0569bdeea2a4e4854ef5c8fc1... 0x2d05.3-0x2e03.4 (254.2)
0x2d10|0a 9d eb 91 f8 33 e4 62 1a 4e bd de 96 4f 45 af|.....3.b.N...OE.|
*     |until 0x2e03.4 (255)                           |                |
      |                                               |                |            [8]: {} (partition) 0x2e03.5-0x2f00.3 (252.7)
0x2e00|         4f 4e                                 |   ON           |              rice_parameter: 14 0x2e03.5-0x2e04 (0.4)
0x2e00|            4e 12 8a 82 ea 82 61 e7 d5 fa 77 ab|    N.....a...w.|              samples: 9c251505d504c3cfabf4ef57aef97aab... 0x2e04.1-0x2f00.3 (252.3)
0x2e10|d7 7c bd 55 8f f0 52 29 db 56 58 a0 85 d1 5a a9|.|.U..R).VX...Z.|
*     |until 0x2f00.3 (253)                           |                |
      |                                               |                |            [9]: {} (partition) 0x2f00.4-0x2ffe (253.5)
0x2f00|7e                                             |~               |              rice_parameter: 14 0x2f00.4-0x2f00.7 (0.4)
0x2f00|   e0 c4 f9 9e 64 84 4c 0b 9b 11 d7 02 0e c9 2e| ....d.L........|              samples: e0c4f99e64844c0b9b11d7020ec92eab... 0x2f01-0x2ffe (253.1)
0x2f10|ab ed 71 29 a5 b0 55 40 6c f4 7d 74 aa 30 49 21|..q)..U@l.}t.0I!|
*     |until 0x2ffe (254)                             |                |
      |                                               |                |            [10]: {} (partition) 0x2ffe.1-0x30fd.5 (255.5)
0x2ff0|                                          73   |              s |              rice_parameter: 14 0x2ffe.1-0x2ffe.4 (0.4)
0x2ff0|                                          73 c5|              s.|              samples: 78a04ed7bc5a9d3045f68bb77b30ca45... 0x2ffe.5-0x30fd.5 (255.1)
0x3000|02 76 bd e2 d4 e9 82 2f b4 5d bb d9 86 52 2e 11|.v...../.]...R..|
*     |until 0x30fd.5 (256)                           |                |
      |                                               |                |            [11]: {} (partition) 0x30fd.6-0x31fb.3 (253.6)
0x30f0|                                       cb 93   |             .. |              rice_parameter: 14 0x30fd.6-0x30fe.1 (0.4)
0x30f0|                                          93 e8|              ..|              samples: 4fa3bbc710e4c07a2dce1cee8d75aeaa... 0x30fe.2-0x31fb.3 (253.2)
0x3100|ee f1 c4 39 30 1e 8b 73 87 3b a3 5d 6b aa a3 e5|...90..s.;.]k...|
*     |until 0x31fb.3 (254)                           |                |
      |                                               |                |            [12]: {} (partition) 0x31fb.4-0x32fb.2 (255.7)
0x31f0|                                 ce            |           .    |              rice_parameter: 14 0x31fb.4-0x31fb.7 (0.4)
0x31f0|                                    8f ba c7 ae|            ....|              samples: 8fbac7aefa415a69d795e0f1a6db88ac... 0x31fc-0x32fb.2 (255.3)
0x3200|fa 41 5a 69 d7 95 e0 f1 a6 db 88 ac f2 89 c0 8e|.AZi............|
*     |until 0x32fb.2 (256)                           |                |
      |                                               |                |            [13]: {} (partition) 0x32fb.3-0x33f8.5 (253.3)
0x32f0|                                 5d            |           ]    |              rice_parameter: 14 0x32fb.3-0x32fb.6 (0.4)
0x32f0|                                 5d 5d 1c 8f 7d|           ]]..}|              samples: ae8e47bec8aa72b0943199526289a9b0... 0x32fb.7-0x33f8.5 (252.7)
0x3300|91 54 e5 61 28 63 32 a4 c5 13 53 60 dd af 51 84|.T.a(c2...S`..Q.|
*     |until 0x33f8.5 (253)                           |                |
      |                                               |                |            [14]: {} (partition) 0x33f8.6-0x34f6.5 (254)
0x33f0|                        4f 95                  |        O.      |              rice_parameter: 14 0x33f8.6-0x33f9.1 (0.4)
0x33f0|                           95 28 8e d0 0b 96 0c|         .(.....|              samples: 54a23b402e5833b32b8b196def222586... 0x33f9.2-0x34f6.5 (253.4)
0x3400|ec ca e2 c6 5b 7b c8 89 61 b9 b1 c6 f5 b4 45 63|....[{..a.....Ec|
*     |until 0x34f6.5 (254)                           |                |
      |                                               |                |            [15]: {} (partition) 0x34f6.6-0x35f4.5 (254)
0x34f0|                  a3 b2                        |      ..        |              rice_parameter: 14 0x34f6.6-0x34f7.1 (0.4)
0x34f0|                     b2 9c b5 9e 21 54 a6 d3 54|       ....!T..T|              samples: ca72d67885529b4d50706a8b4627a2b0... 0x34f7.2-0x35f4.5 (253.4)
0x3500|1c 1a a2 d1 89 e8 ac 1e 23 df fd 13 86 89 19 07|........#.......|
*     |until 0x35f4.5 (254)                           |                |
      |                                               |                |            [16]: {} (partition) 0x35f4.6-0x36f1.6 (253.1)
0x35f0|            f3 97                              |    ..          |              rice_parameter: 14 0x35f4.6-0x35f5.1 (0.4)
0x35f0|               97 7f eb f2 c8 3a 34 77 15 e0 95|     .....:4w...|              samples: 5dffafcb20e8d1dc57825716742cae8e... 0x35f5.2-0x36f1.6 (252.5)
0x3600|c5 9d 0b 2b a3 be f4 ca d8 d8 e4 bf 2d 8e 2c 8d|...+........-.,.|
*     |until 0x36f1.6 (253)                           |                |
      |                                               |                |            [17]: {} (partition) 0x36f1.7-0x37ef.6 (254)
0x36f0|   17 c4                                       | ..             |              rice_parameter: 14 0x36f1.7-0x36f2.2 (0.4)
0x36f0|      c4 53 98 12 28 eb 96 da 32 18 a5 89 c1 59|  .S..(...2....Y|              samples: 229cc091475cb6d190c52c4e0acfc5d3... 0x36f2.3-0x37ef.6 (253.4)
0x3700|f8 ba 75 a7 38 30 de 16 36 c3 7a 6c 9a a0 4e fe|..u.80..6.zl..N.|
*     |until 0x37ef.6 (254)                           |                |
      |                                               |                |            [18]: {} (partition) 0x37ef.7-0x38ee.6 (255)
0x37e0|                                             27|               '|              rice_parameter: 14 0x37ef.7-0x37f0.2 (0.4)
0x37f0|ce                                             |.               |
0x37f0|ce 0d 92 32 c5 a5 3c 9a 0c 79 79 0d f8 49 a1 35|...2..<..yy..I.5|              samples: 706c91962d29e4d063cbc86fc24d09ae... 0x37f0.3-0x38ee.6 (254.4)
0x3800|c4 b4 1e 1c e3 67 93 54 70 79 0d d2 92 81 e2 5c|.....g.Tpy.....\|
*     |until 0x38ee.6 (255)                           |                |
      |                                               |                |            [19]: {} (partition) 0x38ee.7-0x39ee (255.2)
0x38e0|                                          37 c8|              7.|              rice_parameter: 14 0x38ee.7-0x38ef.2 (0.4)
0x38e0|                                             c8|               .|              samples: 449714990b1dc246774eabbbf11a2805... 0x38ef.3-0x39ee (254.6)
0x38f0|92 e2 93 21 63 b8 48 ce e9 d5 77 7e 23 45 00 a3|...!c.H...w~#E..|
*     |until 0x39ee (255)                             |                |
      |                                               |                |            [20]: {} (partition) 0x39ee.1-0x3aee (256)
0x39e0|                                          f6   |              . |              rice_parameter: 14 0x39ee.1-0x39ee.4 (0.4)
0x39e0|                                          f6 77|              .w|              samples: cee2aa60916e78d999c2f931245b3a1a... 0x39ee.5-0x3aee (255.4)
0x39f0|15 53 04 8b 73 c6 cc ce 17 c9 89 22 d9 d0 d2 24|.S..s......"...$|
*     |until 0x3aee (256)                             |                |
      |                                               |                |            [21]: {} (partition) 0x3aee.1-0x3bee.3 (256.3)
0x3ae0|                                          f6   |              . |              rice_parameter: 14 0x3aee.1-0x3aee.4 (0.4)
0x3ae0|                                          f6 ef|              ..|              samples: ddfcb2ed17a23389658947a8e07f526c... 0x3aee.5-0x3bee.3 (255.7)
0x3af0|e5 97 68 bd 11 9c 4b 2c 4a 3d 47 03 fa 93 62 14|..h...K,J=G...b.|
*     |until 0x3bee.3 (256)                           |                |
      |                                               |                |            [22]: {} (partition) 0x3bee.4-0x3ced.3 (255)
0x3be0|                                          5e   |              ^ |              rice_parameter: 14 0x3bee.4-0x3bee.7 (0.4)
0x3be0|                                             9a|               .|              samples: 9abec701ee60a42f16e969a4e9355314... 0x3bef-0x3ced.3 (254.4)
0x3bf0|be c7 01 ee 60 a4 2f 16 e9 69 a4 e9 35 53 14 bd|....`./..i..5S..|
*     |until 0x3ced.3 (255)                           |                |
      |                                               |                |            [23]: {} (partition) 0x3ced.4-0x3deb.1 (253.6)
0x3ce0|                                       3e      |             >  |              rice_parameter: 14 0x3ced.4-0x3ced.7 (0.4)
0x3ce0|                                          e8 c8|              ..|              samples: e8c870e04f83320a3d8aa5fcf9992175... 0x3cee-0x3deb.1 (253.2)
0x3cf0|70 e0 4f 83 32 0a 3d 8a a5 fc f9 99 21 75 c9 1c|p.O.2.=.....!u..|
*     |until 0x3deb.1 (254)                           |                |
      |                                               |                |            [24]: {} (partition) 0x3deb.2-0x3eea.2 (255.1)
0x3de0|                                 fb            |           .    |              rice_parameter: 14 0x3deb.2-0x3deb.5 (0.4)
0x3de0|                                 fb be 7e 4c 67|           ..~Lg|              samples: ef9f9319c9d8ac8661b75d852d5f10c8... 0x3deb.6-0x3eea.2 (254.5)
0x3df0|27 62 b2 19 86 dd 76 14 b5 7c 43 21 18 da c4 01|'b....v..|C!....|
*     |until 0x3eea.2 (255)                           |                |
      |                                               |                |            [25]: {} (partition) 0x3eea.3-0x3fe7.6 (253.4)
0x3ee0|                              bd               |          .     |              rice_parameter: 14 0x3eea.3-0x3eea.6 (0.4)
0x3ee0|                              bd 06 86 04 a6 1a|          ......|              samples: 834302530d4a852d71d2d5a9782a2894... 0x3eea.7-0x3fe7.6 (253)
0x3ef0|95 0a 5a e3 a5 ab 52 f0 54 51 29 a6 64 72 3e b1|..Z...R.TQ).dr>.|
*     |until 0x3fe7.6 (253)                           |                |
      |                                               |                |            [26]: {} (partition) 0x3fe7.7-0x40e5.3 (253.5)
0x3fe0|                     c1 c6                     |       ..       |              rice_parameter: 14 0x3fe7.7-0x3fe8.2 (0.4)
0x3fe0|                        c6 90 18 6c ca 4b 6d e7|        ...l.Km.|              samples: 3480c366525b6f3917ed5eef2639bb6c... 0x3fe8.3-0x40e5.3 (253.1)
0x3ff0|22 fd ab dd e4 c7 37 6d 9b fc e2 5b 4b f8 b2 10|".....7m...[K...|
*     |until 0x40e5.3 (254)                           |                |
      |                                               |                |            [27]: {} (partition) 0x40e5.4-0x41e4.2 (254.7)
0x40e0|               5e                              |     ^          |              rice_parameter: 14 0x40e5.4-0x40e5.7 (0.4)
0x40e0|                  81 af dd 83 f9 8c f0 c1 2d 7a|      ........-z|              samples: 81afdd83f98cf0c12d7a1ef3e89c8d81... 0x40e6-0x41e4.2 (254.3)
0x40f0|1e f3 e8 9c 8d 81 70 21 26 31 1e 80 ec a6 d0 e6|......p!&1......|
*     |until 0x41e4.2 (255)                           |                |
      |                                               |                |            [28]: {} (partition) 0x41e4.3-0x42e3.2 (255)
0x41e0|            7d                                 |    }           |              rice_parameter: 14 0x41e4.3-0x41e4.6 (0.4)
0x41e0|            7d d2 2d b6 06 2c de 62 4e 04 cb 9a|    }.-..,.bN...|              samples: e916db03166f31270265cd6d7b861dc2... 0x41e4.7-0x42e3.2 (254.4)
0x41f0|da f7 0c 3b 84 dc b2 e9 8c 4a 31 c0 cf 7e b1 70|...;.....J1..~.p|
*     |until 0x42e3.2 (255)                           |                |
      |                                               |                |            [29]: {} (partition) 0x42e3.3-0x43e3.3 (256.1)
0x42e0|         7d                                    |   }            |              rice_parameter: 14 0x42e3.3-0x42e3.6 (0.4)
0x42e0|         7d d3 81 c6 21 49 0a f8 8e 73 e4 ba b1|   }...!I...s...|              samples: e9c0e310a4857c4739f25d58ac506095... 0x42e3.7-0x43e3.3 (255.5)
0x42f0|58 a0 c1 2a 8c ab 7e f8 fc 8a c9 52 67 6e 45 ee|X..*..~....RgnE.|
*     |until 0x43e3.3 (256)                           |                |
      |                                               |                |            [30]: {} (partition) 0x43e3.4-0x44e3.1 (255.6)
0x43e0|         ee                                    |   .            |              rice_parameter: 14 0x43e3.4-0x43e3.7 (0.4)
0x43e0|            8f 48 26 d2 cb 12 56 77 44 20 1a 80|    .H&...VwD ..|              samples: 8f4826d2cb12567744201a80f1f26b6b... 0x43e4-0x44e3.1 (255.2)
0x43f0|f1 f2 6b 6b 52 15 e0 a4 88 57 23 b4 c3 ce 2e 5f|..kkR....W#...._|
*     |until 0x44e3.1 (256)                           |                |
      |                                               |                |            [31]: {} (partition) 0x44e3.2-0x45e0.6 (253.5)
0x44e0|         3a                                    |   :            |              rice_parameter: 14 0x44e3.2-0x44e3.5 (0.4)
0x44e0|         3a be fc 2d 0f 07 f7 b3 be 0e 4f 56 48|   :..-......OVH|              samples: afbf0b43c1fdecef8393d5922aaa4454... 0x44e3.6-0x45e0.6 (253.1)
0x44f0|aa a9 11 51 18 8b b1 10 64 b0 c5 d6 55 36 61 d0|...Q....d...U6a.|
*     |until 0x45e0.6 (254)                           |                |
0x45e0|a4                                             |.               |      byte_align: Correct (0x0) 0x45e0.7-0x45e0.7 (0.1)
0x45e0|   47 d4                                       | G.             |      footer_crc: Correct (47d4) 0x45e1-0x45e2.7 (2)
      |                                               |                |    [3]: flac_frame (frame) 0x45e3-0x5beb.7 (5641)
0x45e0|         ff f8                                 |   ..           |      sync: Correct (0x3ffe) 0x45e3-0x45e4.5 (1.6)
0x45e0|            f8                                 |    .           |      reserved0: Correct (0x0) 0x45e4.6-0x45e4.6 (0.1)
0x45e0|            f8                                 |    .           |      blocking_strategy: Fixed (0) 0x45e4.7-0x45e4.7 (0.1)
0x45e0|               c9                              |     .          |      block_size: 4096 0x45e5-0x45e5.3 (0.4)
0x45e0|               c9                              |     .          |      sample_rate: 44100 0x45e5.4-0x45e5.7 (0.4)
0x45e0|                  08                           |      .         |      channel_assignment: mono (1) 0x45e6-0x45e6.3 (0.4)
0x45e0|                  08                           |      .         |      sample_size: 16 0x45e6.4-0x45e6.6 (0.3)
0x45e0|                  08                           |      .         |      reserved1: Correct (0x0) 0x45e6.7-0x45e6.7 (0.1)
      |                                               |                |      end_of_header: {} 0x45e7-0x45e7.7 (1)
0x45e0|                     03                        |       .        |        frame_number: 3 0x45e7-0x45e7.7 (1)
0x45e0|                        9c                     |        .       |      crc: Correct (9c) 0x45e8-0x45e8.7 (1)
      |                                               |                |      subframes: [1] 0x45e9-0x5be9.6 (5632.7)
      |                                               |                |        [0]: {} (subframe) 0x45e9-0x5be9.6 (5632.7)
0x45e0|                           12                  |         .      |          zero_bit: Correct (0x0) 0x45e9-0x45e9 (0.1)
0x45e0|                           12                  |         .      |          subframe_type: Fixed (2) 0x45e9.1-0x45e9.6 (0.6)
      |                                               |                |          lpc_order: 1 0x45e9.7-NA (0)
0x45e0|                           12                  |         .      |          wasted_bits_flag: 0 0x45e9.7-0x45e9.7 (0.1)
      |                                               |                |          subframe_sample_size: 16 0x45ea-NA (0)
      |                                               |                |          warmup_samples: [1] 0x45ea-0x45eb.7 (2)
0x45e0|                              e8 31            |          .1    |            [0]: -6095 (value) 0x45ea-0x45eb.7 (2)
0x45e0|                                    0b         |            .   |          residual_coding_method: rice (4) 0x45ec-0x45ec.1 (0.2)
0x45e0|                                    0b         |            .   |          partition_order: 2 0x45ec.2-0x45ec.5 (0.4)
      |                                               |                |          rice_partitions: 4 0x45ec.6-NA (0)
      |                                               |                |          partitions: [4] 0x45ec.6-0x5be9.6 (5629.1)
      |                                               |                |            [0]: {} (partition) 0x45ec.6-0x4e0e.3 (2081.6)
0x45e0|                                    0b ad      |            ..  |              rice_parameter: 14 0x45ec.6-0x45ed.1 (0.4)
0x45e0|                                       ad 41 1b|             .A.|              samples: b5046d9c08b5282d2bab1e04ae60b3d2... 0x45ed.2-0x4e0e.3 (2081.2)
0x45f0|67 02 2d 4a 0b 4a ea c7 81 2b 98 2c f4 90 ea c4|g.-J.J...+.,....|
*     |until 0x4e0e.3 (2082)                          |                |
      |                                               |                |            [1]: {} (partition) 0x4e0e.4-0x52ac.7 (1182.4)
0x4e00|                                          c7   |              . |              rice_parameter: 7 0x4e0e.4-0x4e0e.7 (0.4)
0x4e00|                                             29|               )|              samples: 298947f3999cb44b7d706051434cdbe9... 0x4e0f-0x52ac.7 (1182)
0x4e10|89 47 f3 99 9c b4 4b 7d 70 60 51 43 4c db e9 f7|.G....K}p`QCL...|
*     |until 0x52ac.7 (1182)                          |                |
      |                                               |                |            [2]: {} (partition) 0x52ad-0x574b.2 (1182.3)
0x52a0|                                       73      |             s  |              rice_parameter: 7 0x52ad-0x52ad.3 (0.4)
0x52a0|                                       73 48 ca|             sH.|              samples: 348ca2f8b02788e7d39194b44c7e7162... 0x52ad.4-0x574b.2 (1181.7)
0x52b0|2f 8b 02 78 8e 7d 39 19 4b 44 c7 e7 16 25 34 44|/..x.}9.KD...%4D|
*     |until 0x574b.2 (1182)                          |                |
      |                                               |                |            [3]: {} (partition) 0x574b.3-0x5be9.6 (1182.4)
0x5740|                                 4e            |           N    |              rice_parameter: 7 0x574b.3-0x574b.6 (0.4)
0x5740|                                 4e 60 18 86 11|           N`...|              samples: 300c4308c4300ba2c0a4260867a39198... 0x574b.7-0x5be9.6 (1182)
0x5750|88 60 17 45 81 48 4c 10 cf 47 23 31 68 9a 40 73|.`.E.HL..G#1h.@s|
*     |until 0x5be9.6 (1182)                          |                |
0x5be0|                           e8                  |         .      |      byte_align: Correct (0x0) 0x5be9.7-0x5be9.7 (0.1)
0x5be0|                              82 34            |          .4    |      footer_crc: Correct (8234) 0x5bea-0x5beb.7 (2)
      |                                               |                |    [4]: flac_frame (frame) 0x5bec-0x79a1.7 (7606)
0x5be0|                                    ff f8      |            ..  |      sync: Correct (0x3ffe) 0x5bec-0x5bed.5 (1.6)
0x5be0|                                       f8      |             .  |      reserved0: Correct (0x0) 0x5bed.6-0x5bed.6 (0.1)
0x5be0|                                       f8      |             .  |      blocking_strategy: Fixed (0) 0x5bed.7-0x5bed.7 (0.1)
0x5be0|                                          c9   |              . |      block_size: 4096 0x5bee-0x5bee.3 (0.4)
0x5be0|                                          c9   |              . |      sample_rate: 44100 0x5bee.4-0x5bee.7 (0.4)
0x5be0|                                             08|               .|      channel_assignment: mono (1) 0x5bef-0x5bef.3 (0.4)
0x5be0|                                             08|               .|      sample_size: 16 0x5bef.4-0x5bef.6 (0.3)
0x5be0|                                             08|               .|      reserved1: Correct (0x0) 0x5bef.7-0x5bef.7 (0.1)
      |                                               |                |      end_of_header: {} 0x5bf0-0x5bf0.7 (1)
0x5bf0|04                                             |.               |        frame_number: 4 0x5bf0-0x5bf0.7 (1)
0x5bf0|   89                                          | .              |      crc: Correct (89) 0x5bf1-0x5bf1.7 (1)
      |                                               |                |      subframes: [1] 0x5bf2-0x799f (7597.1)
      |                                               |                |        [0]: {} (subframe) 0x5bf2-0x799f (7597.1)
0x5bf0|      40                                       |  @             |          zero_bit: Correct (0x0) 0x5bf2-0x5bf2 (0.1)
0x5bf0|      40                                       |  @             |          subframe_type: LPC (3) 0x5bf2.1-0x5bf2.6 (0.6)
      |                                               |                |          lpc_order: 1 0x5bf2.7-NA (0)
0x5bf0|      40                                       |  @             |          wasted_bits_flag: 0 0x5bf2.7-0x5bf2.7 (0.1)
      |                                               |                |          subframe_sample_size: 16 0x5bf3-NA (0)
      |                                               |                |          warmup_samples: [1] 0x5bf3-0x5bf4.7 (2)
0x5bf0|         f8 1c                                 |   ..           |            [0]: -2020 (value) 0x5bf3-0x5bf4.7 (2)
0x5bf0|               b7                              |     .          |          precision: 12 0x5bf5-0x5bf5.3 (0.4)
0x5bf0|               b7 a8                           |     ..         |          shift: 15 0x5bf5.4-0x5bf6 (0.5)
      |                                               |                |          coefficients: [1] 0x5bf6.1-0x5bf7.4 (1.4)
0x5bf0|                  a8 98                        |      ..        |            [0]: 1299 (value) 0x5bf6.1-0x5bf7.4 (1.4)
0x5bf0|                     98                        |       .        |          residual_coding_method: rice (4) 0x5bf7.5-0x5bf7.6 (0.2)
0x5bf0|                     98 96                     |       ..       |          partition_order: 4 0x5bf7.7-0x5bf8.2 (0.4)
      |                                               |                |          rice_partitions: 16 0x5bf8.3-NA (0)
      |                                               |                |          partitions: [16] 0x5bf8.3-0x799f (7590.6)
      |                                               |                |            [0]: {} (partition) 0x5bf8.3-0x5d9c.7 (420.5)
0x5bf0|                        96                     |        .       |              rice_parameter: 11 0x5bf8.3-0x5bf8.6 (0.4)
0x5bf0|                        96 e1 16 7a af 4d 54 a9|        ...z.MT.|              samples: 708b3d57a6aa54b8a0efc1773726edb6... 0x5bf8.7-0x5d9c.7 (420.1)
0x5c00|71 41 df 82 ee 6e 4d db 6d 24 c9 6c 10 c6 d4 e3|qA...nM.m$.l....|
*     |until 0x5d9c.7 (421)                           |                |
      |                                               |                |            [1]: {} (partition) 0x5d9d-0x5f3b.7 (415)
0x5d90|                                       ba      |             .  |              rice_parameter: 11 0x5d9d-0x5d9d.3 (0.4)
0x5d90|                                       ba 07 b0|             ...|              samples: a07b07c17d31e57f8745fa7ed66ec736... 0x5d9d.4-0x5f3b.7 (414.4)
0x5da0|7c 17 d3 1e 57 f8 74 5f a7 ed 66 ec 73 6d 5b b7||...W.t_..f.sm[.|
*     |until 0x5f3b.7 (415)                           |                |
      |                                               |                |            [2]: {} (partition) 0x5f3c-0x60e7 (427.1)
0x5f30|                                    ba         |            .   |              rice_parameter: 11 0x5f3c-0x5f3c.3 (0.4)
0x5f30|                                    ba 26 b2 ec|            .&..|              samples: a26b2ec4cd7ceb4ffa4a72a91800d5a7... 0x5f3c.4-0x60e7 (426.5)
0x5f40|4c d7 ce b4 ff a4 a7 2a 91 80 0d 5a 75 d1 02 c4|L......*...Zu...|
*     |until 0x60e7 (427)                             |                |
      |                                               |                |            [3]: {} (partition) 0x60e7.1-0x6288.4 (417.4)
0x60e0|                     59                        |       Y        |              rice_parameter: 11 0x60e7.1-0x60e7.4 (0.4)
0x60e0|                     59 1a 4f d4 76 23 67 98 d0|       Y.O.v#g..|              samples: 2349fa8ec46cf31a164c9d643e78c6d9... 0x60e7.5-0x6288.4 (417)
0x60f0|b2 64 eb 21 f3 c6 36 cb 12 2b 72 5c a0 3a 53 ea|.d.!..6..+r\.:S.|
*     |until 0x6288.4 (417)                           |                |
      |                                               |                |            [4]: {} (partition) 0x6288.5-0x643d.5 (437.1)
0x6280|                        de 38                  |        .8      |              rice_parameter: 12 0x6288.5-0x6289 (0.4)
0x6280|                           38 1e da 5b 4d ec bf|         8..[M..|              samples: 703db4b69bd97f61ed767590d5114f55... 0x6289.1-0x643d.5 (436.5)
0x6290|b0 f6 bb 3a c8 6a 88 a7 aa 94 7a 28 bf f5 f5 2f|...:.j....z(.../|
*     |until 0x643d.5 (437)                           |                |
      |                                               |                |            [5]: {} (partition) 0x643d.6-0x6631.5 (500)
0x6430|                                       cb b6   |             .. |              rice_parameter: 14 0x643d.6-0x643e.1 (0.4)
0x6430|                                          b6 e5|              ..|              samples: db95caf55bc5bccadd460276503d96ee... 0x643e.2-0x6631.5 (499.4)
0x6440|72 bd 56 f1 6f 32 b7 51 80 9d 94 0f 65 bb ae e3|r.V.o2.Q....e...|
*     |until 0x6631.5 (500)                           |                |
      |                                               |                |            [6]: {} (partition) 0x6631.6-0x681e.4 (492.7)
0x6630|   c3 5e                                       | .^             |              rice_parameter: 13 0x6631.6-0x6632.1 (0.4)
0x6630|      5e 78 b7 72 64 d8 26 8a 96 a4 e7 4a 75 73|  ^x.rd.&....Jus|              samples: 79e2ddc993609a2a5a939d29d5cf3fc2... 0x6632.2-0x681e.4 (492.3)
0x6640|cf f0 93 79 11 e9 b5 7e 93 bb f3 12 30 1f 46 1c|...y...~....0.F.|
*     |until 0x681e.4 (493)                           |                |
      |                                               |                |            [7]: {} (partition) 0x681e.5-0x6a0f (496.4)
0x6810|                                          7e b1|              ~.|              rice_parameter: 13 0x681e.5-0x681f (0.4)
0x6810|                                             b1|               .|              samples: 62002cfa280c08b38638387e0aba8a8c... 0x681f.1-0x6a0f (496)
0x6820|00 16 7d 14 06 04 59 c3 1c 1c 3f 05 5d 45 46 52|..}...Y...?.]EFR|
*     |until 0x6a0f (496)                             |                |
      |                                               |                |            [8]: {} (partition) 0x6a0f.1-0x6c01.5 (498.5)
0x6a00|                                             f5|               .|              rice_parameter: 14 0x6a0f.1-0x6a0f.4 (0.4)
0x6a00|                                             f5|               .|              samples: bb42863ba33f3ab211c64664993818ad... 0x6a0f.5-0x6c01.5 (498.1)
0x6a10|da 14 31 dd 19 f9 d5 90 8e 32 33 24 c9 c0 c5 6f|..1......23$...o|
*     |until 0x6c01.5 (499)                           |                |
      |                                               |                |            [9]: {} (partition) 0x6c01.6-0x6df3.2 (497.5)
0x6c00|   17 a8                                       | ..             |              rice_parameter: 14 0x6c01.6-0x6c02.1 (0.4)
0x6c00|      a8 05 37 26 6f cf ae 1b dd 7f 96 9b 1b 33|  ..7&o........3|              samples: a014dc99bf3eb86f75fe5a6c6ccf7f8e... 0x6c02.2-0x6df3.2 (497.1)
0x6c10|df e3 ba 04 95 f6 82 17 58 58 06 72 11 7d 4e 58|........XX.r.}NX|
*     |until 0x6df3.2 (498)                           |                |
      |                                               |                |            [10]: {} (partition) 0x6df3.3-0x6fe5.5 (498.3)
0x6df0|         1c                                    |   .            |              rice_parameter: 14 0x6df3.3-0x6df3.6 (0.4)
0x6df0|         1c 8d ce eb 01 fb f2 1c 62 62 25 99 c5|   ........bb%..|              samples: 46e77580fdf90e313112cce2f13bc802... 0x6df3.7-0x6fe5.5 (497.7)
0x6e00|e2 77 90 04 e0 c4 62 7b 03 93 4a a2 af ef 1a e6|.w....b{..J.....|
*     |until 0x6fe5.5 (498)                           |                |
      |                                               |                |            [11]: {} (partition) 0x6fe5.6-0x71d7.5 (498)
0x6fe0|               eb 96                           |     ..         |              rice_parameter: 14 0x6fe5.6-0x6fe6.1 (0.4)
0x6fe0|                  96 ef b9 6e 13 94 e1 d2 b4 56|      ...n.....V|              samples: 5bbee5b84e53874ad158cd0580f5ab45... 0x6fe6.2-0x71d7.5 (497.4)
0x6ff0|33 41 60 3d 6a d1 73 fc fc 02 8f 22 81 b7 50 75|3A`=j.s...."..Pu|
*     |until 0x71d7.5 (498)                           |                |
      |                                               |                |            [12]: {} (partition) 0x71d7.6-0x73c9.7 (498.2)
0x71d0|                     5b b5                     |       [.       |              rice_parameter: 14 0x71d7.6-0x71d8.1 (0.4)
0x71d0|                        b5 7c 22 b5 a0 2b 12 d6|        .|"..+..|              samples: d5f08ad680ac4b594203e328815da48a... 0x71d8.2-0x73c9.7 (497.6)
0x71e0|50 80 f8 ca 20 57 69 22 9a db c4 a6 cb 87 6d fa|P... Wi"......m.|
*     |until 0x73c9.7 (498)                           |                |
      |                                               |                |            [13]: {} (partition) 0x73ca-0x75ba (496.1)
0x73c0|                              d6               |          .     |              rice_parameter: 13 0x73ca-0x73ca.3 (0.4)
0x73c0|                              d6 16 75 22 37 5b|          ..u"7[|              samples: 6167522375b79b621473e8c184b9d99a... 0x73ca.4-0x75ba (495.5)
0x73d0|79 b6 21 47 3e 8c 18 4b 9d 99 ae a0 e3 58 4b e0|y.!G>..K.....XK.|
*     |until 0x75ba (496)                             |                |
      |                                               |                |            [14]: {} (partition) 0x75ba.1-0x77ac.4 (498.4)
0x75b0|                              77               |          w     |              rice_parameter: 14 0x75ba.1-0x75ba.4 (0.4)
0x75b0|                              77 ff 89 99 5d 95|          w...].|              samples: fff1332bb2ad8becb709e2d30a5c6c30... 0x75ba.5-0x77ac.4 (498)
0x75c0|6c 5f 65 b8 4f 16 98 52 e3 61 83 8a 20 d7 7e 8d|l_e.O..R.a.. .~.|
*     |until 0x77ac.4 (498)                           |                |
      |                                               |                |            [15]: {} (partition) 0x77ac.5-0x799f (498.4)
0x77a0|                                    f7 5d      |            .]  |              rice_parameter: 14 0x77ac.5-0x77ad (0.4)
0x77a0|                                       5d 85 ca|             ]..|              samples: bb0b95c9b13eee1dbcceeeb8d2d931d7... 0x77ad.1-0x799f (498)
0x77b0|e4 d8 9f 77 0e de 67 77 5c 69 6c 98 eb c5 4d 68|...w..gw\il...Mh|
*     |until 0x799f (498)                             |                |
0x7990|                                             00|               .|      byte_align: Correct (0x0) 0x799f.1-0x799f.7 (0.7)
0x79a0|32 53                                          |2S              |      footer_crc: Correct (3253) 0x79a0-0x79a1.7 (2)
      |                                               |                |    [5]: flac_frame (frame) 0x79a2-0x8597.7 (3062)
0x79a0|      ff f8                                    |  ..            |      sync: Correct (0x3ffe) 0x79a2-0x79a3.5 (1.6)
0x79a0|         f8                                    |   .            |      reserved0: Correct (0x0) 0x79a3.6-0x79a3.6 (0.1)
0x79a0|         f8                                    |   .            |      blocking_strategy: Fixed (0) 0x79a3.7-0x79a3.7 (0.1)
0x79a0|            79                                 |    y           |      block_size: end of header (16 bit) (0) 0x79a4-0x79a4.3 (0.4)
0x79a0|            79                                 |    y           |      sample_rate: 44100 0x79a4.4-0x79a4.7 (0.4)
0x79a0|               08                              |     .          |      channel_assignment: mono (1) 0x79a5-0x79a5.3 (0.4)
0x79a0|               08                              |     .          |      sample_size: 16 0x79a5.4-0x79a5.6 (0.3)
0x79a0|               08                              |     .          |      reserved1: Correct (0x0) 0x79a5.7-0x79a5.7 (0.1)
      |                                               |                |      end_of_header: {} 0x79a6-0x79a8.7 (3)
0x79a0|                  05                           |      .         |        frame_number: 5 0x79a6-0x79a6.7 (1)
0x79a0|                     06 21                     |       .!       |        block_size: 1570 0x79a7-0x79a8.7 (2)
0x79a0|                           38                  |         8      |      crc: Correct (38) 0x79a9-0x79a9.7 (1)
      |                                               |                |      subframes: [1] 0x79aa-0x8595.7 (3052)
      |                                               |                |        [0]: {} (subframe) 0x79aa-0x8595.7 (3052)
0x79a0|                              10               |          .     |          zero_bit: Correct (0x0) 0x79aa-0x79aa (0.1)
0x79a0|                              10               |          .     |          subframe_type: Fixed (2) 0x79aa.1-0x79aa.6 (0.6)
      |                                               |                |          lpc_order: 0 0x79aa.7-NA (0)
0x79a0|                              10               |          .     |          wasted_bits_flag: 0 0x79aa.7-0x79aa.7 (0.1)
      |                                               |                |          subframe_sample_size: 16 0x79ab-NA (0)
      |                                               |                |          warmup_samples: [0] 0x79ab-NA (0)
0x79a0|                                 03            |           .    |          residual_coding_method: rice (4) 0x79ab-0x79ab.1 (0.2)
0x79a0|                                 03            |           .    |          partition_order: 0 0x79ab.2-0x79ab.5 (0.4)
      |                                               |                |          rice_partitions: 1 0x79ab.6-NA (0)
      |                                               |                |          partitions: [1] 0x79ab.6-0x8595.7 (3050.2)
      |                                               |                |            [0]: {} (partition) 0x79ab.6-0x8595.7 (3050.2)
0x79a0|                                 03 4b         |           .K   |              rice_parameter: 13 0x79ab.6-0x79ac.1 (0.4)
0x79a0|                                    4b 7e 8d 4a|            K~.J|              samples: 2dfa352a08b789dd8474a5cd68d34540... 0x79ac.2-0x8595.7 (3049.6)
0x79b0|82 2d e2 77 61 1d 29 73 5a 34 d1 50 25 c5 49 94|.-.wa.)sZ4.P%.I.|
*     |until 0x8595.7 (3050)                          |                |
      |                                               |                |      byte_align: Correct (0x0) 0x8596-NA (0)
0x8590|                  ce 60|                       |      .`|       |      footer_crc: Correct (ce60) 0x8596-0x8597.7 (2)
      |                                               |                |  md5_calculated: 29cf8eb622e9be01808ecafe817d17a6 0x8598-NA (0)
      |                                               |                |  decoded_samples: 22050 0x8598-NA (0)
