/stereo24.flac:
> fq -d flac /stereo24.flac verbose
       |00 01 02 03 04 05 06 07 08 09 0a 0b 0c 0d 0e 0f|                |.: {} (flac) 0x0-0x11bcb.7 (72652)
0x00000|66 4c 61 43                                    |fLaC            |  magic: "fLaC" (Correct) 0x0-0x3.7 (4)
       |                                               |                |  metadatablocks: [4] 0x4-0x209b.7 (8344)
       |                                               |                |    [0]: metadatablock {} (flac_metadatablock) 0x4-0x29.7 (38)
0x00000|            00                                 |    .           |      last_block: false 0x4-0x4 (0.1)
0x00000|            00                                 |    .           |      type: Streaminfo (0) 0x4.1-0x4.7 (0.7)
0x00000|               00 00 22                        |     .."        |      length: 34 0x5-0x7.7 (3)
0x00000|                        10 00                  |        ..      |      minimum_block_size: 4096 0x8-0x9.7 (2)
0x00000|                              10 00            |          ..    |      maximum_block_size: 4096 0xa-0xb.7 (2)
0x00000|                                    00 00 10   |            ... |      minimum_frame_size: 16 0xc-0xe.7 (3)
0x00000|                                             00|               .|      maximum_frame_size: 24598 0xf-0x11.7 (3)
0x00010|60 16                                          |`.              |
0x00010|      0a c4 43                                 |  ..C           |      sample_rate: 44100 0x12-0x14.3 (2.4)
0x00010|            43                                 |    C           |      channels: 2 0x14.4-0x14.6 (0.3)
0x00010|            43 70                              |    Cp          |      bits_per_sample: 24 0x14.7-0x15.3 (0.5)
0x00010|               70 00 00 56 22                  |     p..V"      |      total_samples_in_stream: 22050 0x15.4-0x19.7 (4.4)
0x00010|                              bd dd 75 b3 c0 3e|          ..u..>|      md5: bddd75b3c03e05528cc71f65a0774828 0x1a-0x29.7 (16)
0x00020|05 52 8c c7 1f 65 a0 77 48 28                  |.R...e.wH(      |
       |                                               |                |    [1]: metadatablock {} (flac_metadatablock) 0x2a-0x3f.7 (22)
0x00020|                              03               |          .     |      last_block: false 0x2a-0x2a (0.1)
0x00020|                              03               |          .     |      type: Seektable (3) 0x2a.1-0x2a.7 (0.7)
0x00020|                                 00 00 12      |           ...  |      length: 18 0x2b-0x2d.7 (3)
       |                                               |                |      seekpoints: [1] 0x2e-0x3f.7 (18)
       |                                               |                |        [0]: seekpoint {} 0x2e-0x3f.7 (18)
0x00020|                                          00 00|              ..|          sample_number: 0 0x2e-0x35.7 (8)
0x00030|00 00 00 00 00 00                              |......          |
0x00030|                  00 00 00 00 00 00 00 00      |      ........  |          offset: 0 0x36-0x3d.7 (8)
0x00030|                                          10 00|              ..|          number_of_samples: 4096 0x3e-0x3f.7 (2)
       |                                               |                |    [2]: metadatablock {} (flac_metadatablock) 0x40-0x97.7 (88)
0x00040|04                                             |.               |      last_block: false 0x40-0x40 (0.1)
0x00040|04                                             |.               |      type: Vorbis comment (4) 0x40.1-0x40.7 (0.7)
0x00040|   00 00 54                                    | ..T            |      length: 84 0x41-0x43.7 (3)
       |                                               |                |      comment: {} (vorbis_comment) 0x44-0x97.7 (84)
0x00040|            20 00 00 00                        |     ...        |        vendor_length: 32 0x44-0x47.7 (4)
0x00040|                        72 65 66 65 72 65 6e 63|        referenc|        vendor: "reference libFLAC 1.3.3 20190804" 0x48-0x67.7 (32)
0x00050|65 20 6c 69 62 46 4c 41 43 20 31 2e 33 2e 33 20|e libFLAC 1.3.3 |
0x00060|32 30 31 39 30 38 30 34                        |20190804        |
0x00060|                        01 00 00 00            |        ....    |        user_comment_list_length: 1 0x68-0x6b.7 (4)
       |                                               |                |        user_comments: [1] 0x6c-0x97.7 (44)
       |                                               |                |          [0]: user_comment {} 0x6c-0x97.7 (44)
0x00060|                                    28 00 00 00|            (...|            length: 40 0x6c-0x6f.7 (4)
0x00070|57 41 56 45 46 4f 52 4d 41 54 45 58 54 45 4e 53|WAVEFORMATEXTENS|            vendor: "WAVEFORMATEXTENSIBLE_CHANNEL_MASK=0x0003" 0x70-0x97.7 (40)
*      |until 0x97.7 (40)                              |                |
       |                                               |                |    [3]: metadatablock {} (flac_metadatablock) 0x98-0x209b.7 (8196)
0x00090|                        81                     |        .       |      last_block: true 0x98-0x98 (0.1)
0x00090|                        81                     |        .       |      type: Padding (1) 0x98.1-0x98.7 (0.7)
0x00090|                           00 20 00            |         . .    |      length: 8192 0x99-0x9b.7 (3)
0x00090|                                    00 00 00 00|            ....|      data: 00000000000000000000000000000000... 0x9c-0x209b.7 (8192)
0x000a0|00 00 00 00 00 00 00 00 00 00 00 00 00 00 00 00|................|
*      |until 0x209b.7 (8192)                          |                |
       |                                               |                |  frames: [6] 0x209c-0x11bcb.7 (64304)
       |                                               |                |    [0]: frame {} (flac_frame) 0x209c-0x20ab.7 (16)
       |                                               |                |      header: {} 0x209c-0x20a1.7 (6)
0x02090|                                    ff f8      |            ..  |        sync: Correct (0x3ffe) 0x209c-0x209d.5 (1.6)
0x02090|                                       f8      |             .  |        reserved0: Correct (0x0) 0x209d.6-0x209d.6 (0.1)
0x02090|                                       f8      |             .  |        blocking_strategy: Fixed (0) 0x209d.7-0x209d.7 (0.1)
0x02090|                                          c9   |              . |        block_size: 4096 0x209e-0x209e.3 (0.4)
0x02090|                                          c9   |              . |        sample_rate: 44100 0x209e.4-0x209e.7 (0.4)
0x02090|                                             1c|               .|        channel_assignment: left, right (2) 0x209f-0x209f.3 (0.4)
0x02090|                                             1c|               .|        sample_size: 24 0x209f.4-0x209f.6 (0.3)
0x02090|                                             1c|               .|        reserved1: Correct (0x0) 0x209f.7-0x209f.7 (0.1)
       |                                               |                |        end_of_header: {} 0x20a0-0x20a0.7 (1)
0x020a0|00                                             |.               |          frame_number: 0 0x20a0-0x20a0.7 (1)
0x020a0|   96                                          | .              |        crc: Correct (96) 0x20a1-0x20a1.7 (1)
       |                                               |                |      subframes: [2] 0x20a2-0x20a9.7 (8)
       |                                               |                |        [0]: subframe {} 0x20a2-0x20a5.7 (4)
0x020a0|      00                                       |  .             |          zero_bit: Correct (0x0) 0x20a2-0x20a2 (0.1)
0x020a0|      00                                       |  .             |          subframe_type: Constant (0) 0x20a2.1-0x20a2.6 (0.6)
       |                                               |                |          lpc_order: 0 0x20a2.7-NA (0)
0x020a0|      00                                       |  .             |          wasted_bits_flag: 0 0x20a2.7-0x20a2.7 (0.1)
       |                                               |                |          subframe_sample_size: 24 0x20a3-NA (0)
0x020a0|         00 00 00                              |   ...          |          value: 0 0x20a3-0x20a5.7 (3)
       |                                               |                |        [1]: subframe {} 0x20a6-0x20a9.7 (4)
0x020a0|                  00                           |      .         |          zero_bit: Correct (0x0) 0x20a6-0x20a6 (0.1)
0x020a0|                  00                           |      .         |          subframe_type: Constant (0) 0x20a6.1-0x20a6.6 (0.6)
       |                                               |                |          lpc_order: 0 0x20a6.7-NA (0)
0x020a0|                  00                           |      .         |          wasted_bits_flag: 0 0x20a6.7-0x20a6.7 (0.1)
       |                                               |                |          subframe_sample_size: 24 0x20a7-NA (0)
0x020a0|                     00 00 00                  |       ...      |          value: 0 0x20a7-0x20a9.7 (3)
       |                                               |                |      byte_align: Correct (0x0) 0x20aa-NA (0)
0x020a0|                              a0 eb            |          ..    |      footer_crc: Correct (a0eb) 0x20aa-0x20ab.7 (2)
       |                                               |                |    [1]: frame {} (flac_frame) 0x20ac-0x2a7e.7 (2515)
       |                                               |                |      header: {} 0x20ac-0x20b1.7 (6)
0x020a0|                                    ff f8      |            ..  |        sync: Correct (0x3ffe) 0x20ac-0x20ad.5 (1.6)
0x020a0|                                       f8      |             .  |        reserved0: Correct (0x0) 0x20ad.6-0x20ad.6 (0.1)
0x020a0|                                       f8      |             .  |        blocking_strategy: Fixed (0) 0x20ad.7-0x20ad.7 (0.1)
0x020a0|                                          c9   |              . |        block_size: 4096 0x20ae-0x20ae.3 (0.4)
0x020a0|                                          c9   |              . |        sample_rate: 44100 0x20ae.4-0x20ae.7 (0.4)
0x020a0|                                             1c|               .|        channel_assignment: left, right (2) 0x20af-0x20af.3 (0.4)
0x020a0|                                             1c|               .|        sample_size: 24 0x20af.4-0x20af.6 (0.3)
0x020a0|                                             1c|               .|        reserved1: Correct (0x0) 0x20af.7-0x20af.7 (0.1)
       |                                               |                |        end_of_header: {} 0x20b0-0x20b0.7 (1)
0x020b0|01                                             |.               |          frame_number: 1 0x20b0-0x20b0.7 (1)
0x020b0|   91                                          | .              |        crc: Correct (91) 0x20b1-0x20b1.7 (1)
       |                                               |                |      subframes: [2] 0x20b2-0x2a7c (2506.1)
       |                                               |                |        [0]: subframe {} 0x20b2-0x2572.4 (1216.5)
0x020b0|      43                                       |  C             |          zero_bit: Correct (0x0) 0x20b2-0x20b2 (0.1)
0x020b0|      43                                       |  C             |          subframe_type: LPC (3) 0x20b2.1-0x20b2.6 (0.6)
       |                                               |                |          lpc_order: 2 0x20b2.7-NA (0)
0x020b0|      43                                       |  C             |          wasted_bits_flag: 1 0x20b2.7-0x20b2.7 (0.1)
0x020b0|         01                                    |   .            |          wasted_bits_k: 8 0x20b3-0x20b3.7 (1)
       |                                               |                |          subframe_sample_size: 16 0x20b4-NA (0)
       |                                               |                |          warmup_samples: [2] 0x20b4-0x20b7.7 (4)
0x020b0|            00 00                              |    ..          |            [0]: value 0 0x20b4-0x20b5.7 (2)
0x020b0|                  00 00                        |      ..        |            [1]: value 0 0x20b6-0x20b7.7 (2)
0x020b0|                        e6                     |        .       |          precision: 15 0x20b8-0x20b8.3 (0.4)
0x020b0|                        e6 bf                  |        ..      |          shift: 13 0x20b8.4-0x20b9 (0.5)
       |                                               |                |          coefficients: [2] 0x20b9.1-0x20bc.6 (3.6)
0x020b0|                           bf f8               |         ..     |            [0]: value 16376 0x20b9.1-0x20ba.7 (1.7)
0x020b0|                                 c0 0c         |           ..   |            [1]: value -8186 0x20bb-0x20bc.6 (1.7)
0x020b0|                                    0c 08      |            ..  |          residual_coding_method: rice (4) 0x20bc.7-0x20bd (0.2)
0x020b0|                                       08      |             .  |          partition_order: 1 0x20bd.1-0x20bd.4 (0.4)
       |                                               |                |          rice_partitions: 2 0x20bd.5-NA (0)
       |                                               |                |          partitions: [2] 0x20bd.5-0x2572.4 (1205)
       |                                               |                |            [0]: partition {} 0x20bd.5-0x2306.3 (584.7)
0x020b0|                                       08 7f   |             .. |              rice_parameter: 0 0x20bd.5-0x20be (0.4)
0x020b0|                                          7f ff|              ..|              samples: ffffffffffffffffffffffffffffffff... 0x20be.1-0x2306.3 (584.3)
0x020c0|ff ff ff ff ff ff ff ff ff ff ff ff ff ff ff ff|................|
*      |until 0x2306.3 (585)                           |                |
       |                                               |                |            [1]: partition {} 0x2306.4-0x2572.4 (620.1)
0x02300|                  50                           |      P         |              rice_parameter: 0 0x2306.4-0x2306.7 (0.4)
0x02300|                     25 32 85 92 ce 59 fc c8 64|       %2...Y..d|              samples: 25328592ce59fcc864864284990c9866... 0x2307-0x2572.4 (619.5)
0x02310|86 42 84 99 0c 98 66 43 85 0c c3 93 33 0a 61 49|.B....fC....3.aI|
*      |until 0x2572.4 (620)                           |                |
       |                                               |                |        [1]: subframe {} 0x2572.5-0x2a7c (1289.4)
0x02570|      1a                                       |  .             |          zero_bit: Correct (0x0) 0x2572.5-0x2572.5 (0.1)
0x02570|      1a 68                                    |  .h            |          subframe_type: LPC (3) 0x2572.6-0x2573.3 (0.6)
       |                                               |                |          lpc_order: 7 0x2573.4-NA (0)
0x02570|         68                                    |   h            |          wasted_bits_flag: 1 0x2573.4-0x2573.4 (0.1)
0x02570|         68 08                                 |   h.           |          wasted_bits_k: 8 0x2573.5-0x2574.4 (1)
       |                                               |                |          subframe_sample_size: 16 0x2574.5-NA (0)
       |                                               |                |          warmup_samples: [7] 0x2574.5-0x2582.4 (14)
0x02570|            08 00 00                           |    ...         |            [0]: value 0 0x2574.5-0x2576.4 (2)
0x02570|                  00 00 00                     |      ...       |            [1]: value 0 0x2576.5-0x2578.4 (2)
0x02570|                        00 00 00               |        ...     |            [2]: value 0 0x2578.5-0x257a.4 (2)
0x02570|                              00 00 00         |          ...   |            [3]: value 0 0x257a.5-0x257c.4 (2)
0x02570|                                    00 00 00   |            ... |            [4]: value 0 0x257c.5-0x257e.4 (2)
0x02570|                                          00 00|              ..|            [5]: value 0 0x257e.5-0x2580.4 (2)
0x02580|00                                             |.               |
0x02580|00 00 06                                       |...             |            [6]: value 0 0x2580.5-0x2582.4 (2)
0x02580|      06 b1                                    |  ..            |          precision: 14 0x2582.5-0x2583 (0.4)
0x02580|         b1                                    |   .            |          shift: 12 0x2583.1-0x2583.5 (0.5)
       |                                               |                |          coefficients: [7] 0x2583.6-0x258f.7 (12.2)
0x02580|         b1 3e df                              |   .>.          |            [0]: value 5101 0x2583.6-0x2585.3 (1.6)
0x02580|               df cc 7d                        |     ..}        |            [1]: value -207 0x2585.4-0x2587.1 (1.6)
0x02580|                     7d 24                     |       }$       |            [2]: value -732 0x2587.2-0x2588.7 (1.6)
0x02580|                           f3 c7               |         ..     |            [3]: value -783 0x2589-0x258a.5 (1.6)
0x02580|                              c7 de f4         |          ...   |            [4]: value -529 0x258a.6-0x258c.3 (1.6)
0x02580|                                    f4 d9 f0   |            ... |            [5]: value 4967 0x258c.4-0x258e.1 (1.6)
0x02580|                                          f0 f3|              ..|            [6]: value -3853 0x258e.2-0x258f.7 (1.6)
0x02590|14                                             |.               |          residual_coding_method: rice (4) 0x2590-0x2590.1 (0.2)
0x02590|14                                             |.               |          partition_order: 5 0x2590.2-0x2590.5 (0.4)
       |                                               |                |          rice_partitions: 32 0x2590.6-NA (0)
       |                                               |                |          partitions: [32] 0x2590.6-0x2a7c (1259.3)
       |                                               |                |            [0]: partition {} 0x2590.6-0x25a0.2 (15.5)
0x02590|14 3f                                          |.?              |              rice_parameter: 0 0x2590.6-0x2591.1 (0.4)
0x02590|   3f ff ff ff ff ff ff ff ff ff ff ff ff ff ff| ?..............|              samples: ffffffffffffffffffffffffffffff80 0x2591.2-0x25a0.2 (15.1)
0x025a0|e1                                             |.               |
       |                                               |                |            [1]: partition {} 0x25a0.3-0x25b0.6 (16.4)
0x025a0|e1                                             |.               |              rice_parameter: 0 0x25a0.3-0x25a0.6 (0.4)
0x025a0|e1 ff ff ff ff ff ff ff ff ff ff ff ff ff ff ff|................|              samples: ffffffffffffffffffffffffffffffff 0x25a0.7-0x25b0.6 (16)
0x025b0|fe                                             |.               |
       |                                               |                |            [2]: partition {} 0x25b0.7-0x2618.7 (104.1)
0x025b0|fe 90                                          |..              |              rice_parameter: 4 0x25b0.7-0x25b1.2 (0.4)
0x025b0|   90 84 21 08 42 10 84 21 08 42 10 84 21 08 42| ..!.B..!.B..!.B|              samples: 84210842108421084210842108421084... 0x25b1.3-0x2618.7 (103.5)
0x025c0|10 84 21 08 42 10 84 21 08 42 10 84 21 08 42 10|..!.B..!.B..!.B.|
*      |until 0x2618.7 (104)                           |                |
       |                                               |                |            [3]: partition {} 0x2619-0x2640.6 (39.7)
0x02610|                           04                  |         .      |              rice_parameter: 0 0x2619-0x2619.3 (0.4)
0x02610|                           04 bc e8 73 32 12 49|         ...s2.I|              samples: 4bce87332124921309261924924c93c3... 0x2619.4-0x2640.6 (39.3)
0x02620|21 30 92 61 92 49 24 c9 3c 3a 4e 86 d3 e5 96 4d|!0.a.I$.<:N....M|
*      |until 0x2640.6 (40)                            |                |
       |                                               |                |            [4]: partition {} 0x2640.7-0x2666.7 (38.1)
0x02640|92 16                                          |..              |              rice_parameter: 0 0x2640.7-0x2641.2 (0.4)
0x02640|   16 17 3c f3 12 97 9d 0e 66 42 49 24 26 12 4c| ..<.....fBI$&.L|              samples: b0b9e79894bce8733212492130926192... 0x2641.3-0x2666.7 (37.5)
0x02650|32 49 24 99 27 87 49 d0 da 7c b2 c9 a1 33 32 64|2I$.'.I..|...32d|
0x02660|92 64 92 61 24 92 49                           |.d.a$.I         |
       |                                               |                |            [5]: partition {} 0x2667-0x268c.3 (37.4)
0x02660|                     02                        |       .        |              rice_parameter: 0 0x2667-0x2667.3 (0.4)
0x02660|                     02 43 26 43 32 65 26 c2 e7|       .C&C2e&..|              samples: 2432643326526c2e79e6252f3a1ccc84... 0x2667.4-0x268c.3 (37)
0x02670|9e 62 52 f3 a1 cc c8 49 24 84 c2 49 86 49 24 93|.bR....I$..I.I$.|
0x02680|24 f0 e9 3a 1b 4f 96 59 34 26 66 4c 90         |$..:.O.Y4&fL.   |
       |                                               |                |            [6]: partition {} 0x268c.4-0x26b3.1 (38.6)
0x02680|                                    90         |            .   |              rice_parameter: 0 0x268c.4-0x268c.7 (0.4)
0x02680|                                       24 c9 24|             $.$|              samples: 24c924c24924924864c8664ca4d85cf3... 0x268d-0x26b3.1 (38.2)
0x02690|c2 49 24 92 48 64 c8 66 4c a4 d8 5c f3 cc 4a 5e|.I$.Hd.fL..\..J^|
*      |until 0x26b3.1 (39)                            |                |
       |                                               |                |            [7]: partition {} 0x26b3.2-0x26db (39.7)
0x026b0|         c0                                    |   .            |              rice_parameter: 0 0x26b3.2-0x26b3.5 (0.4)
0x026b0|         c0 b2 68 4c cc 99 24 99 24 98 49 24 92|   ..hL..$.$.I$.|              samples: 2c9a1333264926492612492492432643... 0x26b3.6-0x26db (39.3)
0x026c0|49 0c 99 0c c9 94 9b 0b 9e 79 89 4b ce 87 33 21|I........y.K..3!|
0x026d0|24 92 13 09 26 19 24 92 4c 93 c3 82            |$...&.$.L...    |
       |                                               |                |            [8]: partition {} 0x26db.1-0x2701.6 (38.6)
0x026d0|                                 82            |           .    |              rice_parameter: 0 0x26db.1-0x26db.4 (0.4)
0x026d0|                                 82 4e 86 d3 e5|           .N...|              samples: 49d0da7cb2c9a1333264926492612492... 0x26db.5-0x2701.6 (38.2)
0x026e0|96 4d 09 99 93 24 93 24 93 09 24 92 49 21 93 21|.M...$.$..$.I!.!|
*      |until 0x2701.6 (39)                            |                |
       |                                               |                |            [9]: partition {} 0x2701.7-0x2727 (37.2)
0x02700|   c2 12                                       | ..             |              rice_parameter: 0 0x2701.7-0x2702.2 (0.4)
0x02700|      12 49 24 99 27 87 49 d0 da 7c b2 c9 a1 33|  .I$.'.I..|...3|              samples: 924924c93c3a4e86d3e5964d09999324... 0x2702.3-0x2727 (36.6)
0x02710|32 64 92 64 92 61 24 92 49 24 32 64 33 26 52 6c|2d.d.a$.I$2d3&Rl|
0x02720|2e 79 e6 25 2f 3a 1c 84                        |.y.%/:..        |
       |                                               |                |            [10]: partition {} 0x2727.1-0x274e.4 (39.4)
0x02720|                     84                        |       .        |              rice_parameter: 0 0x2727.1-0x2727.4 (0.4)
0x02720|                     84 c8 49 24 84 c2 49 86 49|       ..I$..I.I|              samples: 99092490984930c92492649e1d274369... 0x2727.5-0x274e.4 (39)
0x02730|24 93 24 f0 e9 3a 1b 4f 96 59 34 26 66 4c 92 4c|$.$..:.O.Y4&fL.L|
0x02740|92 4c 24 92 49 24 86 4c 86 64 ca 4d 85 cf 38   |.L$.I$.L.d.M..8 |
       |                                               |                |            [11]: partition {} 0x274e.5-0x2776.3 (39.7)
0x02740|                                          38 4c|              8L|              rice_parameter: 0 0x274e.5-0x274f (0.4)
0x02740|                                             4c|               L|              samples: 9894bce87332124921309261924924c9... 0x274f.1-0x2776.3 (39.3)
0x02750|4a 5e 74 39 99 09 24 90 98 49 30 c9 24 92 64 9e|J^t9..$..I0.$.d.|
*      |until 0x2776.3 (40)                            |                |
       |                                               |                |            [12]: partition {} 0x2776.4-0x279c.1 (37.6)
0x02770|                  90                           |      .         |              rice_parameter: 0 0x2776.4-0x2776.7 (0.4)
0x02770|                     94 9b 0b 9e 79 89 4b ce 87|       ....y.K..|              samples: 949b0b9e79894bce8733212492130926... 0x2777-0x279c.1 (37.2)
0x02780|33 21 24 92 13 09 26 19 24 92 4c 93 c3 a4 e8 6d|3!$...&.$.L....m|
0x02790|3e 59 64 d0 99 99 32 49 32 49 30 92 40         |>Yd...2I2I0.@   |
       |                                               |                |            [13]: partition {} 0x279c.2-0x27c1.7 (37.6)
0x02790|                                    40         |            @   |              rice_parameter: 0 0x279c.2-0x279c.5 (0.4)
0x02790|                                    40 92 49 21|            @.I!|              samples: 24924864c8664ca4d85cf3cc4a5e7439... 0x279c.6-0x27c1.7 (37.2)
0x027a0|93 21 99 32 93 61 73 cf 31 29 79 d0 e6 64 24 92|.!.2.as.1)y..d$.|
*      |until 0x27c1.7 (38)                            |                |
       |                                               |                |            [14]: partition {} 0x27c2-0x27e9.2 (39.3)
0x027c0|      02                                       |  .             |              rice_parameter: 0 0x27c2-0x27c2.3 (0.4)
0x027c0|      02 64 92 64 92 61 24 92 49 24 32 64 33 26|  .d.d.a$.I$2d3&|              samples: 264926492612492492432643326526c2... 0x27c2.4-0x27e9.2 (38.7)
0x027d0|52 6c 2e 79 e6 25 2f 3a 1c cc 84 92 48 4c 24 98|Rl.y.%/:....HL$.|
0x027e0|64 92 49 32 4f 0e 93 a1 b4 e1                  |d.I2O.....      |
       |                                               |                |            [15]: partition {} 0x27e9.3-0x2811 (39.6)
0x027e0|                           e1                  |         .      |              rice_parameter: 0 0x27e9.3-0x27e9.6 (0.4)
0x027e0|                           e1 96 59 34 26 66 4c|         ..Y4&fL|              samples: cb2c9a13332649264926124924924326... 0x27e9.7-0x2811 (39.2)
0x027f0|92 4c 92 4c 24 92 49 24 86 4c 86 64 ca 4d 85 cf|.L.L$.I$.L.d.M..|
*      |until 0x2811 (40)                              |                |
       |                                               |                |            [16]: partition {} 0x2811.1-0x2837 (38)
0x02810|   86                                          | .              |              rice_parameter: 0 0x2811.1-0x2811.4 (0.4)
0x02810|   86 1d 27 43 69 f2 cb 26 84 cc c9 92 49 92 49| ..'Ci..&....I.I|              samples: c3a4e86d3e5964d09999324932493092... 0x2811.5-0x2837 (37.4)
0x02820|84 92 49 24 90 c9 90 cc 99 49 b0 b9 e7 98 94 bc|..I$.....I......|
0x02830|e8 73 32 12 49 21 30 81                        |.s2.I!0.        |
       |                                               |                |            [17]: partition {} 0x2837.1-0x285c.5 (37.5)
0x02830|                     81                        |       .        |              rice_parameter: 0 0x2837.1-0x2837.4 (0.4)
0x02830|                     81 26 19 24 92 4c 93 c3 a4|       .&.$.L...|              samples: 24c32492499278749d0da7cb2c9a1333... 0x2837.5-0x285c.5 (37.1)
0x02840|e8 6d 3e 59 64 d0 99 99 32 49 32 49 30 92 49 24|.m>Yd...2I2I0.I$|
0x02850|92 19 32 19 93 29 36 17 3c f3 12 97 9c         |..2..)6.<....   |
       |                                               |                |            [18]: partition {} 0x285c.6-0x2884.6 (40.1)
0x02850|                                    9c 10      |            ..  |              rice_parameter: 0 0x285c.6-0x285d.1 (0.4)
0x02850|                                       10 e6 64|             ..d|              samples: 43999092490984930c92492649e1d274... 0x285d.2-0x2884.6 (39.5)
0x02860|24 92 42 61 24 c3 24 92 49 92 78 74 9d 0d a7 cb|$.Ba$.$.I.xt....|
*      |until 0x2884.6 (40)                            |                |
       |                                               |                |            [19]: partition {} 0x2884.7-0x28ac.1 (39.3)
0x02880|            e6 19                              |    ..          |              rice_parameter: 0 0x2884.7-0x2885.2 (0.4)
0x02880|               19 e6 25 2f 3a 1c cc 84 92 48 4c|     ..%/:....HL|              samples: cf312979d0e6642492426124c3249249... 0x2885.3-0x28ac.1 (38.7)
0x02890|24 98 64 92 49 32 4f 0e 93 a1 b4 f9 65 93 42 66|$.d.I2O.....e.Bf|
0x028a0|64 c9 24 c9 24 c2 49 24 92 48 64 c8 42         |d.$.$.I$.Hd.B   |
       |                                               |                |            [20]: partition {} 0x28ac.2-0x28d1.3 (37.2)
0x028a0|                                    42         |            B   |              rice_parameter: 0 0x28ac.2-0x28ac.5 (0.4)
0x028a0|                                    42 64 ca 4d|            Bd.M|              samples: 9932936173cf312979d0e66424924261... 0x28ac.6-0x28d1.3 (36.6)
0x028b0|85 cf 3c c4 a5 e7 43 99 90 92 49 09 84 93 0c 92|..<...C...I.....|
*      |until 0x28d1.3 (37)                            |                |
       |                                               |                |            [21]: partition {} 0x28d1.4-0x28f7.7 (38.4)
0x028d0|   90                                          | .              |              rice_parameter: 0 0x28d1.4-0x28d1.7 (0.4)
0x028d0|      84 92 49 24 90 c9 90 cc 99 49 b0 b9 e7 98|  ..I$.....I....|              samples: 8492492490c990cc9949b0b9e79894bc... 0x28d2-0x28f7.7 (38)
0x028e0|94 bc e8 73 32 12 49 21 30 92 61 92 49 24 c9 3c|...s2.I!0.a.I$.<|
0x028f0|3a 4e 86 d3 e5 96 4d 09                        |:N....M.        |
       |                                               |                |            [22]: partition {} 0x28f8-0x291f.3 (39.4)
0x028f0|                        09                     |        .       |              rice_parameter: 0 0x28f8-0x28f8.3 (0.4)
0x028f0|                        09 99 32 49 32 49 30 92|        ..2I2I0.|              samples: 99932493249309249249219321993293... 0x28f8.4-0x291f.3 (39)
0x02900|49 24 92 19 32 19 93 29 36 17 3c f3 12 97 9d 0e|I$..2..)6.<.....|
0x02910|66 42 49 24 26 12 4c 32 49 24 99 27 87 49 d0 d0|fBI$&.L2I$.'.I..|
       |                                               |                |            [23]: partition {} 0x291f.4-0x2946.6 (39.3)
0x02910|                                             d0|               .|              rice_parameter: 0 0x291f.4-0x291f.7 (0.4)
0x02920|a7 cb 2c 9a 13 33 26 49 26 49 26 12 49 24 92 43|..,..3&I&I&.I$.C|              samples: a7cb2c9a133326492649261249249243... 0x2920-0x2946.6 (38.7)
*      |until 0x2946.6 (39)                            |                |
       |                                               |                |            [24]: partition {} 0x2946.7-0x296c (37.2)
0x02940|                  92 12                        |      ..        |              rice_parameter: 0 0x2946.7-0x2947.2 (0.4)
0x02940|                     12 4f 0e 93 a1 b4 f9 65 93|       .O.....e.|              samples: 9278749d0da7cb2c9a13332649264926... 0x2947.3-0x296c (36.6)
0x02950|42 66 64 c9 24 c9 24 c2 49 24 92 48 64 c8 66 4c|Bfd.$.$.I$.Hd.fL|
0x02960|a4 d8 5c f3 cc 4a 5e 74 39 99 09 24 81         |..\..J^t9..$.   |
       |                                               |                |            [25]: partition {} 0x296c.1-0x2992.7 (38.7)
0x02960|                                    81         |            .   |              rice_parameter: 0 0x296c.1-0x296c.4 (0.4)
0x02960|                                    81 09 84 93|            ....|              samples: 21309261924924c93c3a4e86d3e5964d... 0x296c.5-0x2992.7 (38.3)
0x02970|0c 92 49 26 49 e1 d2 74 36 9f 2c b2 68 4c cc 99|..I&I..t6.,.hL..|
*      |until 0x2992.7 (39)                            |                |
       |                                               |                |            [26]: partition {} 0x2993-0x29ba.7 (40)
0x02990|         0c                                    |   .            |              rice_parameter: 0 0x2993-0x2993.3 (0.4)
0x02990|         0c e8 73 32 12 49 21 30 92 61 92 49 24|   ..s2.I!0.a.I$|              samples: ce87332124921309261924924c93c3a4... 0x2993.4-0x29ba.7 (39.4)
0x029a0|c9 3c 3a 4e 86 d3 e5 96 4d 09 99 93 24 93 24 93|.<:N....M...$.$.|
0x029b0|09 24 92 49 21 93 21 99 32 93 61               |.$.I!.!.2.a     |
       |                                               |                |            [27]: partition {} 0x29bb-0x29e1.3 (38.4)
0x029b0|                                 07            |           .    |              rice_parameter: 0 0x29bb-0x29bb.3 (0.4)
0x029b0|                                 07 3c f3 12 97|           .<...|              samples: 73cf312979d0e6642492426124c32492... 0x29bb.4-0x29e1.3 (38)
0x029c0|9d 0e 66 42 49 24 26 12 4c 32 49 24 99 27 87 49|..fBI$&.L2I$.'.I|
*      |until 0x29e1.3 (38)                            |                |
       |                                               |                |            [28]: partition {} 0x29e1.4-0x2a06.5 (37.2)
0x029e0|   30                                          | 0              |              rice_parameter: 0 0x29e1.4-0x29e1.7 (0.4)
0x029e0|      26 43 32 65 26 c2 e7 9e 62 52 f3 a1 cc c8|  &C2e&...bR....|              samples: 2643326526c2e79e6252f3a1ccc84924... 0x29e2-0x2a06.5 (36.6)
0x029f0|49 24 84 c2 49 86 49 24 93 24 f0 e9 3a 1b 4f 96|I$..I.I$.$..:.O.|
0x02a00|59 34 26 66 4c 92 4c                           |Y4&fL.L         |
       |                                               |                |            [29]: partition {} 0x2a06.6-0x2a2d.2 (38.5)
0x02a00|                  4c 09                        |      L.        |              rice_parameter: 0 0x2a06.6-0x2a07.1 (0.4)
0x02a00|                     09 24 c2 49 24 92 48 64 c8|       .$.I$.Hd.|              samples: 2493092492492193219932936173cf31... 0x2a07.2-0x2a2d.2 (38.1)
0x02a10|66 4c a4 d8 5c f3 cc 4a 5e 74 39 99 09 24 90 98|fL..\..J^t9..$..|
0x02a20|49 30 c9 24 92 64 9e 1d 27 43 69 f2 cb 20      |I0.$.d..'Ci..   |
       |                                               |                |            [30]: partition {} 0x2a2d.3-0x2a55.1 (39.7)
0x02a20|                                       20      |                |              rice_parameter: 0 0x2a2d.3-0x2a2d.6 (0.4)
0x02a20|                                       20 68 4c|              hL|              samples: 3426664c924c924c24924924864c8664... 0x2a2d.7-0x2a55.1 (39.3)
0x02a30|cc 99 24 99 24 98 49 24 92 49 0c 99 0c c9 94 9b|..$.$.I$.I......|
*      |until 0x2a55.1 (40)                            |                |
       |                                               |                |            [31]: partition {} 0x2a55.2-0x2a7c (38.7)
0x02a50|               c2                              |     .          |              rice_parameter: 0 0x2a55.2-0x2a55.5 (0.4)
0x02a50|               c2 86 d3 e5 96 4d 09 99 93 24 93|     .....M...$.|              samples: a1b4f96593426664c924c924c2492492... 0x2a55.6-0x2a7c (38.3)
0x02a60|24 93 09 24 92 49 21 93 21 99 32 93 61 73 cf 31|$..$.I!.!.2.as.1|
0x02a70|29 79 d0 e6 64 24 92 42 61 24 c3 24 80         |)y..d$.Ba$.$.   |
0x02a70|                                    80         |            .   |      byte_align: Correct (0x0) 0x2a7c.1-0x2a7c.7 (0.7)
0x02a70|                                       3c 50   |             <P |      footer_crc: Correct (3c50) 0x2a7d-0x2a7e.7 (2)
       |                                               |                |    [2]: frame {} (flac_frame) 0x2a7f-0x8a94.7 (24598)
       |                                               |                |      header: {} 0x2a7f-0x2a84.7 (6)
0x02a70|                                             ff|               .|        sync: Correct (0x3ffe) 0x2a7f-0x2a80.5 (1.6)
0x02a80|f8                                             |.               |
0x02a80|f8                                             |.               |        reserved0: Correct (0x0) 0x2a80.6-0x2a80.6 (0.1)
0x02a80|f8                                             |.               |        blocking_strategy: Fixed (0) 0x2a80.7-0x2a80.7 (0.1)
0x02a80|   c9                                          | .              |        block_size: 4096 0x2a81-0x2a81.3 (0.4)
0x02a80|   c9                                          | .              |        sample_rate: 44100 0x2a81.4-0x2a81.7 (0.4)
0x02a80|      ac                                       |  .             |        channel_assignment: mid/side (2) 0x2a82-0x2a82.3 (0.4)
0x02a80|      ac                                       |  .             |        sample_size: 24 0x2a82.4-0x2a82.6 (0.3)
0x02a80|      ac                                       |  .             |        reserved1: Correct (0x0) 0x2a82.7-0x2a82.7 (0.1)
       |                                               |                |        end_of_header: {} 0x2a83-0x2a83.7 (1)
0x02a80|         02                                    |   .            |          frame_number: 2 0x2a83-0x2a83.7 (1)
0x02a80|            d7                                 |    .           |        crc: Correct (d7) 0x2a84-0x2a84.7 (1)
       |                                               |                |      subframes: [2] 0x2a85-0x8a92.7 (24590)
       |                                               |                |        [0]: subframe {} 0x2a85-0x598b.6 (12038.7)
0x02a80|               10                              |     .          |          zero_bit: Correct (0x0) 0x2a85-0x2a85 (0.1)
0x02a80|               10                              |     .          |          subframe_type: Fixed (2) 0x2a85.1-0x2a85.6 (0.6)
       |                                               |                |          lpc_order: 0 0x2a85.7-NA (0)
0x02a80|               10                              |     .          |          wasted_bits_flag: 0 0x2a85.7-0x2a85.7 (0.1)
       |                                               |                |          subframe_sample_size: 24 0x2a86-NA (0)
       |                                               |                |          warmup_samples: [0] 0x2a86-NA (0)
0x02a80|                  56                           |      V         |          residual_coding_method: rice2 (5) 0x2a86-0x2a86.1 (0.2)
0x02a80|                  56                           |      V         |          partition_order: 5 0x2a86.2-0x2a86.5 (0.4)
       |                                               |                |          rice_partitions: 32 0x2a86.6-NA (0)
       |                                               |                |          partitions: [32] 0x2a86.6-0x598b.6 (12037.1)
       |                                               |                |            [0]: partition {} 0x2a86.6-0x2bdf.3 (344.6)
0x02a80|                  56 75                        |      Vu        |              rice_parameter: 19 0x2a86.6-0x2a87.2 (0.5)
0x02a80|                     75 eb ff 8f 9f fc 13 ff f3|       u........|              samples: af5ffc7cffe09fff9aff4957faae3fd8... 0x2a87.3-0x2bdf.3 (344.1)
0x02a90|5f e9 2a ff 55 c7 fb 10 bf db 87 fe f3 af f2 29|_.*.U..........)|
*      |until 0x2bdf.3 (345)                           |                |
       |                                               |                |            [1]: partition {} 0x2bdf.4-0x2d2c.2 (332.7)
0x02bd0|                                             09|               .|              rice_parameter: 19 0x2bdf.4-0x2be0 (0.5)
0x02be0|d9                                             |.               |
0x02be0|d9 a8 05 e0 00 61 78 06 40 00 65 a0 06 65 80 66|.....ax.@.e..e.f|              samples: b3500bc000c2f00c8000cb400ccb00cc... 0x2be0.1-0x2d2c.2 (332.2)
0x02bf0|28                                             |(               |
*      |until 0x2d2c.2 (333)                           |                |
       |                                               |                |            [2]: partition {} 0x2d2c.3-0x2e85.1 (344.7)
0x02d20|                                    13         |            .   |              rice_parameter: 19 0x2d2c.3-0x2d2c.7 (0.5)
0x02d20|                                       f4 f0 04|             ...|              samples: f4f0045c0028a80174400d1d0074b801... 0x2d2d-0x2e85.1 (344.2)
0x02d30|5c 00 28 a8 01 74 40 0d 1d 00 74 b8 01 02 00 04|\.(..t@...t.....|
*      |until 0x2e85.1 (345)                           |                |
       |                                               |                |            [3]: partition {} 0x2e85.2-0x2fd4.5 (335.4)
0x02e80|               e6                              |     .          |              rice_parameter: 19 0x2e85.2-0x2e85.6 (0.5)
0x02e80|               e6 93 9f f4 fb ff aa 6b fd 63 ff|     .......k.c.|              samples: 49cffa7dffd535feb1fff5c47faf4ffd... 0x2e85.7-0x2fd4.5 (334.7)
0x02e90|eb 88 ff 5e 9f fb 00 3f d8 1f fe c0 2f f5 ec 7f|...^...?..../...|
*      |until 0x2fd4.5 (335)                           |                |
       |                                               |                |            [4]: partition {} 0x2fd4.6-0x3131.3 (348.6)
0x02fd0|            fe 98                              |    ..          |              rice_parameter: 20 0x2fd4.6-0x2fd5.2 (0.5)
0x02fd0|               98 63 ff cd 1f fe bb 7f f8 81 ff|     .c.........|              samples: c31ffe68fff5dbffc40ffecd7ffbdffd... 0x2fd5.3-0x3131.3 (348.1)
0x02fe0|d9 af ff 7b ff a0 ab fe 8d 97 fa 61 7f ea 2e 7f|...{.......a....|
*      |until 0x3131.3 (349)                           |                |
       |                                               |                |            [5]: partition {} 0x3131.4-0x32ad.1 (379.6)
0x03130|   1b 17                                       | ..             |              rice_parameter: 22 0x3131.4-0x3132 (0.5)
0x03130|      17 20 47 0f 30 57 90 7f 80 15 cd df db 20|  . G.0W....... |              samples: 2e408e1e60af20ff002b9bbfb64095b0... 0x3132.1-0x32ad.1 (379.1)
0x03140|4a d8 2f 21 fa e4 c2 de 56 7f 74 a0 99 a2 5b 1c|J./!....V.t...[.|
*      |until 0x32ad.1 (380)                           |                |
       |                                               |                |            [6]: partition {} 0x32ad.2-0x342c.5 (383.4)
0x032a0|                                       2d      |             -  |              rice_parameter: 22 0x32ad.2-0x32ad.6 (0.5)
0x032a0|                                       2d 63 0b|             -c.|              samples: b185f2ee726d1dba80e4b44341a81919... 0x32ad.7-0x342c.5 (382.7)
0x032b0|e5 dc e4 da 3b 75 01 c9 68 86 83 50 32 32 cd cb|....;u..h..P22..|
*      |until 0x342c.5 (383)                           |                |
       |                                               |                |            [7]: partition {} 0x342c.6-0x35ab.4 (382.7)
0x03420|                                    6e c3      |            n.  |              rice_parameter: 22 0x342c.6-0x342d.2 (0.5)
0x03420|                                       c3 28 44|             .(D|              samples: 1942201dc05f569bc55ee9c9aa4e4e48... 0x342d.3-0x35ab.4 (382.2)
0x03430|03 b8 0b ea d3 78 ab dd 39 35 49 c9 c9 0a 77 9d|.....x..95I...w.|
*      |until 0x35ab.4 (383)                           |                |
       |                                               |                |            [8]: partition {} 0x35ab.5-0x3728.4 (381)
0x035a0|                                 fd a7         |           ..   |              rice_parameter: 22 0x35ab.5-0x35ac.1 (0.5)
0x035a0|                                    a7 08 86 45|            ...E|              samples: 9c2219150b9dd50abcc3d127abf774ef... 0x35ac.2-0x3728.4 (380.3)
0x035b0|42 e7 75 42 af 30 f4 49 ea fd dd 3b d6 5f eb bd|B.uB.0.I...;._..|
*      |until 0x3728.4 (381)                           |                |
       |                                               |                |            [9]: partition {} 0x3728.5-0x38a6.2 (381.6)
0x03720|                        0d b8                  |        ..      |              rice_parameter: 22 0x3728.5-0x3729.1 (0.5)
0x03720|                           b8 31 72 3e 67 bd 99|         .1r>g..|              samples: e0c5c8f99ef66483bc4c0b179b11d9d6... 0x3729.2-0x38a6.2 (381.1)
0x03730|20 ef 13 02 c5 e6 c4 76 75 bf 9a 83 b4 4e 4b aa| ......vu....NK.|
*      |until 0x38a6.2 (382)                           |                |
       |                                               |                |            [10]: partition {} 0x38a6.3-0x3a26 (383.6)
0x038a0|                  56                           |      V         |              rice_parameter: 22 0x38a6.3-0x38a6.7 (0.5)
0x038a0|                     78 9f 52 4e d7 51 bc 5d 02|       x.RN.Q.].|              samples: 789f524ed751bc5d029d318845f5c88b... 0x38a7-0x3a26 (383.1)
0x038b0|9d 31 88 45 f5 c8 8b b7 c7 7b 33 30 ca 42 a9 c2|.1.E.....{30.B..|
*      |until 0x3a26 (384)                             |                |
       |                                               |                |            [11]: partition {} 0x3a26.1-0x3ba3.7 (381.7)
0x03a20|                  59                           |      Y         |              rice_parameter: 22 0x3a26.1-0x3a26.5 (0.5)
0x03a20|                  59 3e 8e a6 ef 21 4c 43 a3 b3|      Y>...!LC..|              samples: 4fa3a9bbc85310e8ecc07dfe2dcdc71c... 0x3a26.6-0x3ba3.7 (381.2)
0x03a30|01 f7 f8 b7 37 1c 73 ba 48 35 d7 0c ba a9 e2 3e|....7.s.H5.....>|
*      |until 0x3ba3.7 (382)                           |                |
       |                                               |                |            [12]: partition {} 0x3ba4-0x3d23.7 (384)
0x03ba0|            b4                                 |    .           |              rice_parameter: 22 0x3ba4-0x3ba4.4 (0.5)
0x03ba0|            b4 7d e0 76 3d 75 b7 d2 02 8a d3 22|    .}.v=u....."|              samples: 8fbc0ec7aeb6fa40515a6451d797ede0... 0x3ba4.5-0x3d23.7 (383.3)
0x03bb0|8e bc bf 6f 07 85 0d 36 b7 9c 45 54 e7 93 a6 4e|...o...6..ET...N|
*      |until 0x3d23.7 (384)                           |                |
       |                                               |                |            [13]: partition {} 0x3d24-0x3ea1.3 (381.4)
0x03d20|            b5                                 |    .           |              rice_parameter: 22 0x3d24-0x3d24.4 (0.5)
0x03d20|            b5 74 8d 12 3d eb 46 45 57 d3 95 78|    .t..=.FEW..x|              samples: ae91a247bd68c8aafa72af00942fb599... 0x3d24.5-0x3ea1.3 (380.7)
0x03d30|04 a1 7d ac ca 83 d3 14 44 cd 4d 99 43 76 bc 5d|..}.....D.M.Cv.]|
*      |until 0x3ea1.3 (381)                           |                |
       |                                               |                |            [14]: partition {} 0x3ea1.4-0x401f.4 (382.1)
0x03ea0|   5b 2a                                       | [*             |              rice_parameter: 22 0x3ea1.4-0x3ea2 (0.5)
0x03ea0|      2a 51 1c 1d a0 1e 17 2c 13 19 d9 90 15 c5|  *Q.....,......|              samples: 54a2383b403c2e582633b3202b8ab819... 0x3ea2.1-0x401f.4 (381.4)
0x03eb0|5c 0c b6 e0 f7 91 1d 12 c3 51 f3 64 30 8d eb 83|\........Q.d0...|
*      |until 0x401f.4 (382)                           |                |
       |                                               |                |            [15]: partition {} 0x401f.5-0x419d.5 (382.1)
0x04010|                                             15|               .|              rice_parameter: 22 0x401f.5-0x4020.1 (0.5)
0x04020|b2                                             |.               |
0x04020|b2 9d 13 b5 9d b3 21 54 c2 a6 d3 3d 54 1c 02 1a|......!T...=T...|              samples: ca744ed676cc85530a9b4cf55070086a... 0x4020.2-0x419d.5 (381.4)
0x04030|a3 19 51 8a 14 68 ac 4b 1e 24 0d df fc e1 13 86|..Q..h.K.$......|
*      |until 0x419d.5 (382)                           |                |
       |                                               |                |            [16]: partition {} 0x419d.6-0x431a.7 (381.2)
0x04190|                                       a2 cb   |             .. |              rice_parameter: 22 0x419d.6-0x419e.2 (0.5)
0x04190|                                          cb c0|              ..|              samples: 5e00dfafcdcb20ea50d1da6057814657... 0x419e.3-0x431a.7 (380.5)
0x041a0|1b f5 f9 b9 64 1d 4a 1a 3b 4c 0a f0 28 ca e2 ad|....d.J.;L..(...|
*      |until 0x431a.7 (381)                           |                |
       |                                               |                |            [17]: partition {} 0x431b-0x4499 (382.1)
0x04310|                                 b1            |           .    |              rice_parameter: 22 0x431b-0x431b.4 (0.5)
0x04310|                                 b1 14 e6 2e 04|           .....|              samples: 229cc5c091ff475c54b6d03990c5752c... 0x431b.5-0x4499 (381.4)
0x04320|8f fa 3a e2 a5 b6 81 cc 86 2b a9 62 83 30 56 b2|..:......+.b.0V.|
*      |until 0x4499 (382)                             |                |
       |                                               |                |            [18]: partition {} 0x4499.1-0x4618.1 (383.1)
0x04490|                           d9                  |         .      |              rice_parameter: 22 0x4499.1-0x4499.5 (0.5)
0x04490|                           d9 c1 ae d2 46 58 48|         ....FXH|              samples: 706bb49196122d2a5ce4d04663cc29c8... 0x4499.6-0x4618.1 (382.4)
0x044a0|b4 a9 73 93 41 19 8f 30 a7 21 bd ef 09 37 b4 26|..s.A..0.!...7.&|
*      |until 0x4618.1 (383)                           |                |
       |                                               |                |            [19]: partition {} 0x4618.2-0x4797.4 (383.3)
0x04610|                        6c                     |        l       |              rice_parameter: 22 0x4618.2-0x4618.6 (0.5)
0x04610|                        6c 89 31 2a 29 31 fd 16|        l.1*)1..|              samples: 4498951498fe8b1dc8424673974e9d0b... 0x4618.7-0x4797.4 (382.6)
0x04620|3b 90 84 8c e7 2e 9d 3a 17 77 d0 62 33 ab 50 0a|;......:.w.b3.P.|
*      |until 0x4797.4 (383)                           |                |
       |                                               |                |            [20]: partition {} 0x4797.5-0x4917.5 (384.1)
0x04790|                     4d b3                     |       M.       |              rice_parameter: 22 0x4797.5-0x4798.1 (0.5)
0x04790|                        b3 b9 56 aa 98 6a 24 5b|        ..V..j$[|              samples: cee55aaa61a8916ece78d9e799c37ef9... 0x4798.2-0x4917.5 (383.4)
0x047a0|b3 9e 36 79 e6 70 df be 4b c9 49 15 3e ce 86 ee|..6y.p..K.I.>...|
*      |until 0x4917.5 (384)                           |                |
       |                                               |                |            [21]: partition {} 0x4917.6-0x4a98.1 (384.4)
0x04910|                     a6 db                     |       ..       |              rice_parameter: 22 0x4917.6-0x4918.2 (0.5)
0x04910|                        db bf b1 16 5d 5d a2 f4|        ....]]..|              samples: ddfd88b2eaed17a1fa338e796584b147... 0x4918.3-0x4a98.1 (383.7)
0x04920|3f 46 71 cf 2c b0 96 28 f4 83 1c 0f cb 6a 4d 8d|?Fq.,..(.....jM.|
*      |until 0x4a98.1 (384)                           |                |
       |                                               |                |            [22]: partition {} 0x4a98.2-0x4c17.2 (383.1)
0x04a90|                        ed                     |        .       |              rice_parameter: 22 0x4a98.2-0x4a98.6 (0.5)
0x04a90|                        ed 35 83 9d 8d fc 6b dc|        .5....k.|              samples: 9ac1cec6fe35ee5d08a4307316e7a169... 0x4a98.7-0x4c17.2 (382.4)
0x04aa0|ba 11 48 60 e6 2d cf 42 d3 4b f9 d2 6b 02 a6 31|..H`.-.B.K..k..1|
*      |until 0x4c17.2 (383)                           |                |
       |                                               |                |            [23]: partition {} 0x4c17.3-0x4d95.1 (381.7)
0x04c10|                     76                        |       v        |              rice_parameter: 22 0x4c17.3-0x4c17.7 (0.5)
0x04c10|                        e8 c6 e4 70 e0 aa 4f 84|        ...p..O.|              samples: e8c6e470e0aa4f84f9320a0e3d8b1fa5... 0x4c18-0x4d95.1 (381.2)
0x04c20|f9 32 0a 0e 3d 8b 1f a5 fd 52 f9 9a 3d 21 76 07|.2..=....R..=!v.|
*      |until 0x4d95.1 (382)                           |                |
       |                                               |                |            [24]: partition {} 0x4d95.2-0x4f14.3 (383.2)
0x04d90|               6d                              |     m          |              rice_parameter: 22 0x4d95.2-0x4d95.6 (0.5)
0x04d90|               6d df 40 77 26 2a e3 93 b0 51 59|     m.@w&*...QY|              samples: efa03b931571c9d828ac865661b7bd5d... 0x4d95.7-0x4f14.3 (382.5)
0x04da0|0c ac c3 6f 7a bb 0d 1e 5a be a0 21 91 22 8c 6d|...oz...Z..!.".m|
*      |until 0x4f14.3 (383)                           |                |
       |                                               |                |            [25]: partition {} 0x4f14.4-0x5092 (381.5)
0x04f10|            db 41                              |    .A          |              rice_parameter: 22 0x4f14.4-0x4f15 (0.5)
0x04f10|               41 a1 db 81 26 61 86 a4 ad 42 96|     A...&a...B.|              samples: 8343b7024cc30d495a852d2d71ea52d5... 0x4f15.1-0x5092 (381)
0x04f20|96 b8 f5 29 6a d5 2c bc 12 49 14 4a 72 69 9e 29|...)j.,..I.Jri.)|
*      |until 0x5092 (381)                             |                |
       |                                               |                |            [26]: partition {} 0x5092.1-0x520f.6 (381.6)
0x05090|      58                                       |  X             |              rice_parameter: 22 0x5092.1-0x5092.5 (0.5)
0x05090|      58 d2 02 87 0d 98 b9 49 70 25 bc e8 64 5f|  X......Ip%..d_|              samples: 3480a1c3662e525c096f3a1917ed47de... 0x5092.6-0x520f.6 (381.1)
0x050a0|b5 1f 7b bb 7c 98 e8 8e ed b4 17 7f a1 3c 4b 69|..{.|........<Ki|
*      |until 0x520f.6 (382)                           |                |
       |                                               |                |            [27]: partition {} 0x520f.7-0x538e.6 (383)
0x05200|                                             6b|               k|              rice_parameter: 22 0x520f.7-0x5210.3 (0.5)
0x05210|68                                             |h               |
0x05210|68 1a ef bd d7 d8 bf 98 9d cf 0b 0a 12 d7 bb 21|h..............!|              samples: 81aefbdd7d8bf989dcf0b0a12d7bb21e... 0x5210.4-0x538e.6 (382.3)
0x05220|ef 2d 3e 8a 3f c8 d8 84 17 01 ef 12 63 39 11 e8|.->.?.......c9..|
*      |until 0x538e.6 (383)                           |                |
       |                                               |                |            [28]: partition {} 0x538e.7-0x550d.7 (383.1)
0x05380|                                          93 6e|              .n|              rice_parameter: 22 0x538e.7-0x538f.3 (0.5)
0x05380|                                             6e|               n|              samples: e91776db036b167207311f470257e5cd... 0x538f.4-0x550d.7 (382.4)
0x05390|91 77 6d b0 36 b1 67 20 73 11 f4 70 25 7e 5c d5|.wm.6.g s..p%~\.|
*      |until 0x550d.7 (383)                           |                |
       |                                               |                |            [29]: partition {} 0x550e-0x568e.1 (384.2)
0x05500|                                          b7   |              . |              rice_parameter: 22 0x550e-0x550e.4 (0.5)
0x05500|                                          b7 4e|              .N|              samples: e9c1e8e311f4a484157c4ad739ebc25d... 0x550e.5-0x568e.1 (383.5)
0x05510|0f 47 18 8f a5 24 20 ab e2 56 b9 cf 5e 12 eb 0e|.G...$ ..V..^...|
*      |until 0x568e.1 (384)                           |                |
       |                                               |                |            [30]: partition {} 0x568e.2-0x580e (383.7)
0x05680|                                          ad   |              . |              rice_parameter: 22 0x568e.2-0x568e.6 (0.5)
0x05680|                                          ad 1e|              ..|              samples: 8f46f026d284cb11985677714420001a... 0x568e.7-0x580e (383.2)
0x05690|8d e0 4d a5 09 96 23 30 ac ee e2 88 40 00 35 01|..M...#0....@.5.|
*      |until 0x580e (384)                             |                |
       |                                               |                |            [31]: partition {} 0x580e.1-0x598b.6 (381.6)
0x05800|                                          5a   |              Z |              rice_parameter: 22 0x580e.1-0x580e.5 (0.5)
0x05800|                                          5a bf|              Z.|              samples: afc1fb0b3e7bc1ff9decef8f836813d5... 0x580e.6-0x598b.6 (381.1)
0x05810|07 ec 2c f9 ef 07 fe 77 b3 be 3e 0d a0 4f 55 c8|..,....w..>..OU.|
*      |until 0x598b.6 (382)                           |                |
       |                                               |                |        [1]: subframe {} 0x598b.7-0x8a92.7 (12551.1)
0x05980|                                 e8            |           .    |          zero_bit: Correct (0x0) 0x598b.7-0x598b.7 (0.1)
0x05980|                                    20         |                |          subframe_type: Fixed (2) 0x598c-0x598c.5 (0.6)
       |                                               |                |          lpc_order: 0 0x598c.6-NA (0)
0x05980|                                    20         |                |          wasted_bits_flag: 0 0x598c.6-0x598c.6 (0.1)
       |                                               |                |          subframe_sample_size: 25 0x598c.7-NA (0)
       |                                               |                |          warmup_samples: [0] 0x598c.7-NA (0)
0x05980|                                    20 ad      |             .  |          residual_coding_method: rice2 (5) 0x598c.7-0x598d (0.2)
0x05980|                                       ad      |             .  |          partition_order: 5 0x598d.1-0x598d.4 (0.4)
       |                                               |                |          rice_partitions: 32 0x598d.5-NA (0)
       |                                               |                |          partitions: [32] 0x598d.5-0x8a92.7 (12549.3)
       |                                               |                |            [0]: partition {} 0x598d.5-0x5af0.2 (354.6)
0x05980|                                       ad 17   |             .. |              rice_parameter: 20 0x598d.5-0x598e.1 (0.5)
0x05980|                                          17 77|              .w|              samples: 5ddffd535ff4b9ffd095fff1effefa7f... 0x598e.2-0x5af0.2 (354.1)
0x05990|ff 54 d7 fd 2e 7f f4 25 7f fc 7b ff be 9f fc ce|.T.....%..{.....|
*      |until 0x5af0.2 (355)                           |                |
       |                                               |                |            [1]: partition {} 0x5af0.3-0x5c54.6 (356.4)
0x05af0|f4                                             |.               |              rice_parameter: 20 0x5af0.3-0x5af0.7 (0.5)
0x05af0|   16 15 ff 16 8f ff 16 cd ff 16 cf ff 16 93 ff| ...............|              samples: 1615ff168fff16cdff16cfff1693ff16... 0x5af1-0x5c54.6 (355.7)
0x05b00|16 19 ff 15 65 ff 14 73 ff 13 47 ff 11 e3 ff 10|....e..s..G.....|
*      |until 0x5c54.6 (356)                           |                |
       |                                               |                |            [2]: partition {} 0x5c54.7-0x5db6.3 (353.5)
0x05c50|            01 42                              |    .B          |              rice_parameter: 20 0x5c54.7-0x5c55.3 (0.5)
0x05c50|               42 d4 40 05 14 00 08 f4 00 3e e8|     B.@......>.|              samples: 2d44005140008f4003ee800e7b0034ec... 0x5c55.4-0x5db6.3 (353)
0x05c60|00 e7 b0 03 4e c0 0b fa 00 2a f4 00 98 50 02 15|....N....*...P..|
*      |until 0x5db6.3 (353)                           |                |
       |                                               |                |            [3]: partition {} 0x5db6.4-0x5f1b.7 (357.4)
0x05db0|                  0a 17                        |      ..        |              rice_parameter: 20 0x5db6.4-0x5db7 (0.5)
0x05db0|                     17 7c 00 30 38 00 62 08 00|       .|.08.b..|              samples: 2ef800607000c410018b000313c00615... 0x5db7.1-0x5f1b.7 (356.7)
0x05dc0|c5 80 01 89 e0 03 0a 80 05 f3 80 0b 86 00 16 0a|................|
*      |until 0x5f1b.7 (357)                           |                |
       |                                               |                |            [4]: partition {} 0x5f1c-0x6089.3 (365.4)
0x05f10|                                    aa         |            .   |              rice_parameter: 21 0x5f1c-0x5f1c.4 (0.5)
0x05f10|                                    aa ef bf f5|            ....|              samples: 5df7feb23ffd503ffa76dff4983fe882... 0x5f1c.5-0x6089.3 (364.7)
0x05f20|91 ff ea 81 ff d3 b6 ff a4 c1 ff 44 17 ff fa 7f|...........D....|
*      |until 0x6089.3 (365)                           |                |
       |                                               |                |            [5]: partition {} 0x6089.4-0x6217.5 (398.2)
0x06080|                           9b f9               |         ..     |              rice_parameter: 23 0x6089.4-0x608a (0.5)
0x06080|                              f9 a3 11 f6 fc 05|          ......|              samples: f34623edf80bf045b49e2d4af61a60dc... 0x608a.1-0x6217.5 (397.5)
0x06090|f8 22 da 4f 16 a5 7b 0d 30 6e 61 80 dd c8 14 3a|.".O..{.0na....:|
*      |until 0x6217.5 (398)                           |                |
       |                                               |                |            [6]: partition {} 0x6217.6-0x63a5.7 (398.2)
0x06210|                     26 e5                     |       &.       |              rice_parameter: 23 0x6217.6-0x6218.2 (0.5)
0x06210|                        e5 77 fd 12 44 c9 eb 1d|        .w..D...|              samples: 2bbfe892264f58ea8a14d472834a87a4... 0x6218.3-0x63a5.7 (397.5)
0x06220|51 42 9a 8e 50 69 50 f4 91 9b 58 c9 65 f0 02 d9|QB..PiP...X.e...|
*      |until 0x63a5.7 (398)                           |                |
       |                                               |                |            [7]: partition {} 0x63a6-0x6534.1 (398.2)
0x063a0|                  bd                           |      .         |              rice_parameter: 23 0x63a6-0x63a6.4 (0.5)
0x063a0|                  bd af 56 db fc 19 d2 88 4f b1|      ..V.....O.|              samples: b5eadb7f833a5109f62ef7bb85c0c160... 0x63a6.5-0x6534.1 (397.5)
0x063b0|77 bd dc 2e 06 0b 06 92 46 e9 30 7c ea d4 ed 02|w.......F.0|....|
*      |until 0x6534.1 (398)                           |                |
       |                                               |                |            [8]: partition {} 0x6534.2-0x66c3.6 (399.5)
0x06530|            6e                                 |    n           |              rice_parameter: 23 0x6534.2-0x6534.6 (0.5)
0x06530|            6e 63 8c a9 8b c2 87 67 e0 d4 df 25|    nc.....g...%|              samples: 31c654c5e143b3f06a6f928bb5b41a57... 0x6534.7-0x66c3.6 (399)
0x06540|17 6b 68 34 af 21 ef f6 81 83 9c 87 83 dc 35 ad|.kh4.!........5.|
*      |until 0x66c3.6 (399)                           |                |
       |                                               |                |            [9]: partition {} 0x66c3.7-0x6852.6 (399)
0x066c0|         7b 7e                                 |   {~           |              rice_parameter: 23 0x66c3.7-0x66c4.3 (0.5)
0x066c0|            7e ed aa af 35 c4 18 ff 57 35 4a 48|    ~...5...W5JH|              samples: eedaaaf35c418ff57354a48bf9e033c4... 0x66c4.4-0x6852.6 (398.3)
0x066d0|bf 9e 03 3c 4f 6b 9f 4b 0a 64 36 cf 7c e5 4d 84|...<Ok.K.d6.|.M.|
*      |until 0x6852.6 (399)                           |                |
       |                                               |                |            [10]: partition {} 0x6852.7-0x69e1.5 (398.7)
0x06850|      2b 76                                    |  +v            |              rice_parameter: 23 0x6852.7-0x6853.3 (0.5)
0x06850|         76 bc 04 69 18 68 b6 43 67 9c bb 25 fa|   v..i.h.Cg..%.|              samples: 6bc04691868b643679cbb25fa76ff225... 0x6853.4-0x69e1.5 (398.2)
0x06860|76 ff 22 5f 09 47 89 b2 dc 44 05 74 a5 a7 fb 9b|v."_.G...D.t....|
*      |until 0x69e1.5 (399)                           |                |
       |                                               |                |            [11]: partition {} 0x69e1.6-0x6b6f.6 (398.1)
0x069e0|   36 f7                                       | 6.             |              rice_parameter: 23 0x69e1.6-0x69e2.2 (0.5)
0x069e0|      f7 88 ba ac 73 55 ab e8 82 0a 79 de da 1f|  ....sU....y...|              samples: bc45d5639aad5f441053cef6d0fa625a... 0x69e2.3-0x6b6f.6 (397.4)
0x069f0|4c 4b 5f ee 18 8f 05 55 02 27 7a 55 ac 38 4f 06|LK_....U.'zU.8O.|
*      |until 0x6b6f.6 (398)                           |                |
       |                                               |                |            [12]: partition {} 0x6b6f.7-0x6cfd.5 (397.7)
0x06b60|                                             2f|               /|              rice_parameter: 23 0x6b6f.7-0x6b70.3 (0.5)
0x06b70|7d                                             |}               |
0x06b70|7d 51 2f 67 84 d5 52 c7 01 5e 94 6a e3 9b 7e 15|}Q/g..R..^.j..~.|              samples: d512f6784d552c7015e946ae39b7e15b... 0x6b70.4-0x6cfd.5 (397.2)
0x06b80|b8 36 ef eb 1d 83 36 c7 3e 45 bb 46 60 2b 65 65|.6....6.>E.F`+ee|
*      |until 0x6cfd.5 (398)                           |                |
       |                                               |                |            [13]: partition {} 0x6cfd.6-0x6e8c.3 (398.6)
0x06cf0|                                       66 f1   |             f. |              rice_parameter: 23 0x6cfd.6-0x6cfe.2 (0.5)
0x06cf0|                                          f1 64|              .d|              samples: 8b23ad697d140a66ffae0d84f70ea889... 0x6cfe.3-0x6e8c.3 (398.1)
0x06d00|75 ad 2f a2 81 4c df f5 c1 b0 9e e1 d5 11 22 42|u./..L........"B|
*      |until 0x6e8c.3 (399)                           |                |
       |                                               |                |            [14]: partition {} 0x6e8c.4-0x701b.4 (399.1)
0x06e80|                                    ab ab      |            ..  |              rice_parameter: 23 0x6e8c.4-0x6e8d (0.5)
0x06e80|                                       ab 92 5a|             ..Z|              samples: 5724b4f6c0c8cb3bde9098e04a7d2229... 0x6e8d.1-0x701b.4 (398.4)
0x06e90|7b 60 64 65 9d ef 48 4c 70 25 3e 91 14 9a fd ba|{`de..HLp%>.....|
*      |until 0x701b.4 (399)                           |                |
       |                                               |                |            [15]: partition {} 0x701b.5-0x71aa.5 (399.1)
0x07010|                                 7d d3         |           }.   |              rice_parameter: 23 0x701b.5-0x701c.1 (0.5)
0x07010|                                    d3 7e 77 59|            .~wY|              samples: 4df9dd645e2f59d7791932e04230b3d6... 0x701c.2-0x71aa.5 (398.4)
0x07020|17 8b d6 75 de 46 4c b8 10 8c 2c f5 89 0c 55 2f|...u.FL...,...U/|
*      |until 0x71aa.5 (399)                           |                |
       |                                               |                |            [16]: partition {} 0x71aa.6-0x733b.4 (400.7)
0x071a0|                              46 ff            |          F.    |              rice_parameter: 23 0x71aa.6-0x71ab.2 (0.5)
0x071a0|                                 ff e3 76 04 61|           ..v.a|              samples: ff1bb0230b120c5a42d4c51732feb763... 0x71ab.3-0x733b.4 (400.2)
0x071b0|62 41 8b 48 5a 98 a2 e6 5f d6 ec 62 69 d4 a7 eb|bA.HZ..._..bi...|
*      |until 0x733b.4 (401)                           |                |
       |                                               |                |            [17]: partition {} 0x733b.5-0x74c9.3 (397.7)
0x07330|                                 9d d7         |           ..   |              rice_parameter: 23 0x733b.5-0x733c.1 (0.5)
0x07330|                                    d7 00 ba 47|            ...G|              samples: 5c02e91d5e7b596ec24f001c0d0f7768... 0x733c.2-0x74c9.3 (397.2)
0x07340|57 9e d6 5b b0 93 c0 07 03 43 dd da 06 47 2d 3d|W..[.....C...G-=|
*      |until 0x74c9.3 (398)                           |                |
       |                                               |                |            [18]: partition {} 0x74c9.4-0x7657.7 (398.4)
0x074c0|                           0b bb               |         ..     |              rice_parameter: 23 0x74c9.4-0x74ca (0.5)
0x074c0|                              bb 3b 30 06 35 83|          .;0.5.|              samples: 7676600c6b0618a2e9f2be70854d4cba... 0x74ca.1-0x7657.7 (397.7)
0x074d0|0c 51 74 f9 5f 38 42 a6 a6 5d 5a 37 a8 48 76 b4|.Qt._8B..]Z7.Hv.|
*      |until 0x7657.7 (398)                           |                |
       |                                               |                |            [19]: partition {} 0x7658-0x77e6.7 (399)
0x07650|                        bb                     |        .       |              rice_parameter: 23 0x7658-0x7658.4 (0.5)
0x07650|                        bb 33 7f ef 1e e5 2d 3c|        .3....-<|              samples: 666ffde3dca5a79444bb3e6c17dc6547... 0x7658.5-0x77e6.7 (398.3)
0x07660|a2 25 d9 f3 60 be e3 2a 39 8b c2 dc 2e 3c 83 0f|.%..`..*9....<..|
*      |until 0x77e6.7 (399)                           |                |
       |                                               |                |            [20]: partition {} 0x77e7-0x7975.5 (398.6)
0x077e0|                     be                        |       .        |              rice_parameter: 23 0x77e7-0x77e7.4 (0.5)
0x077e0|                     be 2d 2f 4a ef 9b 87 b5 0b|       .-/J.....|              samples: c5a5e95df370f6a17577fe38c0e72e31... 0x77e7.5-0x7975.5 (398.1)
0x077f0|ab bf f1 c6 07 39 71 8f 41 92 2f b6 01 c5 3d 67|.....9q.A./...=g|
*      |until 0x7975.5 (399)                           |                |
       |                                               |                |            [21]: partition {} 0x7975.6-0x7b05 (399.3)
0x07970|               22 e4                           |     ".         |              rice_parameter: 23 0x7975.6-0x7976.2 (0.5)
0x07970|                  e4 3e 29 43 38 6d a4 71 72 c6|      .>)C8m.qr.|              samples: 21f14a19c36d238b9635429a51ba7db4... 0x7976.3-0x7b05 (398.6)
0x07980|a8 53 4a 37 4f b6 8b bf 7e 1a 73 20 e9 b0 94 9d|.SJ7O...~.s ....|
*      |until 0x7b05 (399)                             |                |
       |                                               |                |            [22]: partition {} 0x7b05.1-0x7c94.2 (399.2)
0x07b00|               dd                              |     .          |              rice_parameter: 23 0x7b05.1-0x7b05.5 (0.5)
0x07b00|               dd a4 0a 15 c7 0b 3e ad 12 1c d3|     ......>....|              samples: 69028571c2cfab448734dd3086d06433... 0x7b05.6-0x7c94.2 (398.5)
0x07b10|74 c2 1b 41 90 ce fd a6 2d 3c 85 83 68 09 d5 41|t..A....-<..h..A|
*      |until 0x7c94.2 (399)                           |                |
       |                                               |                |            [23]: partition {} 0x7c94.3-0x7e21.5 (397.3)
0x07c90|            b7                                 |    .           |              rice_parameter: 23 0x7c94.3-0x7c94.7 (0.5)
0x07c90|               5f df c7 67 81 d3 f3 cc 8e ab 8a|     _..g.......|              samples: 5fdfc76781d3f3cc8eab8a2e99ed91f8... 0x7c95-0x7e21.5 (396.6)
0x07ca0|2e 99 ed 91 f8 23 ba 26 28 18 e7 8b 22 bb 28 6c|.....#.&(...".(l|
*      |until 0x7e21.5 (397)                           |                |
       |                                               |                |            [24]: partition {} 0x7e21.6-0x7fb0.1 (398.4)
0x07e20|   f2 e4                                       | ..             |              rice_parameter: 23 0x7e21.6-0x7e22.2 (0.5)
0x07e20|      e4 80 2b e9 17 94 a2 d7 bb f1 5d 1e 90 ee|  ..+.......]...|              samples: 24015f48bca516bddf8ae8f48772ff5f... 0x7e22.3-0x7fb0.1 (397.7)
0x07e30|5f eb ec 29 aa d4 fe 11 5f af 21 46 d3 37 e1 57|_..)...._.!F.7.W|
*      |until 0x7fb0.1 (398)                           |                |
       |                                               |                |            [25]: partition {} 0x7fb0.2-0x813f.7 (399.6)
0x07fb0|2f                                             |/               |              rice_parameter: 23 0x7fb0.2-0x7fb0.6 (0.5)
0x07fb0|2f e3 e9 32 52 18 46 19 d9 c6 08 6c 1c a3 fd 68|/..2R.F....l...h|              samples: f1f499290c230cece304360e51feb43f... 0x7fb0.7-0x813f.7 (399.1)
0x07fc0|7f 71 1e 4e 8a 69 08 64 51 bb 10 f6 59 cb 91 29|.q.N.i.dQ...Y..)|
*      |until 0x813f.7 (400)                           |                |
       |                                               |                |            [26]: partition {} 0x8140-0x82ce.6 (398.7)
0x08140|bd                                             |.               |              rice_parameter: 23 0x8140-0x8140.4 (0.5)
0x08140|bd bc ee 69 c0 a7 13 84 57 09 c4 ac 2f 36 b5 9e|...i....W.../6..|              samples: b79dcd3814e2708ae1389585e6d6b3d7... 0x8140.5-0x82ce.6 (398.2)
0x08150|bf 14 1a 76 d8 41 d6 63 b4 24 1d 4e 78 ee da 65|...v.A.c.$.Nx..e|
*      |until 0x82ce.6 (399)                           |                |
       |                                               |                |            [27]: partition {} 0x82ce.7-0x845d.5 (398.7)
0x082c0|                                          d9 72|              .r|              rice_parameter: 23 0x82ce.7-0x82cf.3 (0.5)
0x082c0|                                             72|               r|              samples: 26f23f5c1ea986d7dbbf98651cb0fa4b... 0x82cf.4-0x845d.5 (398.2)
0x082d0|6f 23 f5 c1 ea 98 6d 7d bb f9 86 51 cb 0f a4 b1|o#....m}...Q....|
*      |until 0x845d.5 (399)                           |                |
       |                                               |                |            [28]: partition {} 0x845d.6-0x85eb (397.3)
0x08450|                                       52 ff   |             R. |              rice_parameter: 23 0x845d.6-0x845e.2 (0.5)
0x08450|                                          ff e6|              ..|              samples: ff339aec9b5b1511ebfaed0dbf300a56... 0x845e.3-0x85eb (396.6)
0x08460|73 5d 93 6b 62 a2 3d 7f 5d a1 b7 e6 01 4a db 23|s].kb.=.]....J.#|
*      |until 0x85eb (397)                             |                |
       |                                               |                |            [29]: partition {} 0x85eb.1-0x8776.3 (395.3)
0x085e0|                                 5f            |           _    |              rice_parameter: 23 0x85eb.1-0x85eb.5 (0.5)
0x085e0|                                 5f 52 19 c9 fe|           _R...|              samples: d486727f84cb359c7f1d5d46c721e741... 0x85eb.6-0x8776.3 (394.6)
0x085f0|13 2c d6 71 fc 75 75 1b 1c 87 9d 04 ed d6 ec 0f|.,.q.uu.........|
*      |until 0x8776.3 (395)                           |                |
       |                                               |                |            [30]: partition {} 0x8776.4-0x8904.3 (398)
0x08770|                  db 8c                        |      ..        |              rice_parameter: 23 0x8776.4-0x8777 (0.5)
0x08770|                     8c 6e c0 0d 7b dc 3e e9 54|       .n..{.>.T|              samples: 18dd801af7b87dd2a99680c9247fdcb4... 0x8777.1-0x8904.3 (397.3)
0x08780|cb 40 64 92 3f ee 5a 0e b9 27 be c1 32 b9 00 11|.@d.?.Z..'..2...|
*      |until 0x8904.3 (398)                           |                |
       |                                               |                |            [31]: partition {} 0x8904.4-0x8a92.7 (398.4)
0x08900|            4b ee                              |    K.          |              rice_parameter: 23 0x8904.4-0x8905 (0.5)
0x08900|               ee 04 17 18 0c 26 37 32 c3 3a fc|     .....&72.:.|              samples: dc082e30184c6e658675f8510beb06dc... 0x8905.1-0x8a92.7 (397.7)
0x08910|28 85 f5 83 6e 10 95 01 bd e9 44 6a 62 4b 6e 79|(...n.....DjbKny|
*      |until 0x8a92.7 (398)                           |                |
       |                                               |                |      byte_align: Correct (0x0) 0x8a93-NA (0)
0x08a90|         e5 bf                                 |   ..           |      footer_crc: Correct (e5bf) 0x8a93-0x8a94.7 (2)
       |                                               |                |    [3]: frame {} (flac_frame) 0x8a95-0xd479.7 (18917)
       |                                               |                |      header: {} 0x8a95-0x8a9a.7 (6)
0x08a90|               ff f8                           |     ..         |        sync: Correct (0x3ffe) 0x8a95-0x8a96.5 (1.6)
0x08a90|                  f8                           |      .         |        reserved0: Correct (0x0) 0x8a96.6-0x8a96.6 (0.1)
0x08a90|                  f8                           |      .         |        blocking_strategy: Fixed (0) 0x8a96.7-0x8a96.7 (0.1)
0x08a90|                     c9                        |       .        |        block_size: 4096 0x8a97-0x8a97.3 (0.4)
0x08a90|                     c9                        |       .        |        sample_rate: 44100 0x8a97.4-0x8a97.7 (0.4)
0x08a90|                        1c                     |        .       |        channel_assignment: left, right (2) 0x8a98-0x8a98.3 (0.4)
0x08a90|                        1c                     |        .       |        sample_size: 24 0x8a98.4-0x8a98.6 (0.3)
0x08a90|                        1c                     |        .       |        reserved1: Correct (0x0) 0x8a98.7-0x8a98.7 (0.1)
       |                                               |                |        end_of_header: {} 0x8a99-0x8a99.7 (1)
0x08a90|                           03                  |         .      |          frame_number: 3 0x8a99-0x8a99.7 (1)
0x08a90|                              9f               |          .     |        crc: Correct (9f) 0x8a9a-0x8a9a.7 (1)
       |                                               |                |      subframes: [2] 0x8a9b-0xd477.3 (18908.4)
       |                                               |                |        [0]: subframe {} 0x8a9b-0xb260.1 (10181.2)
0x08a90|                                 12            |           .    |          zero_bit: Correct (0x0) 0x8a9b-0x8a9b (0.1)
0x08a90|                                 12            |           .    |          subframe_type: Fixed (2) 0x8a9b.1-0x8a9b.6 (0.6)
       |                                               |                |          lpc_order: 1 0x8a9b.7-NA (0)
0x08a90|                                 12            |           .    |          wasted_bits_flag: 0 0x8a9b.7-0x8a9b.7 (0.1)
       |                                               |                |          subframe_sample_size: 24 0x8a9c-NA (0)
       |                                               |                |          warmup_samples: [1] 0x8a9c-0x8a9e.7 (3)
0x08a90|                                    14 b1 40   |            ..@ |            [0]: value 1356096 0x8a9c-0x8a9e.7 (3)
0x08a90|                                             56|               V|          residual_coding_method: rice2 (5) 0x8a9f-0x8a9f.1 (0.2)
0x08a90|                                             56|               V|          partition_order: 5 0x8a9f.2-0x8a9f.5 (0.4)
       |                                               |                |          rice_partitions: 32 0x8a9f.6-NA (0)
       |                                               |                |          partitions: [32] 0x8a9f.6-0xb260.1 (10176.4)
       |                                               |                |            [0]: partition {} 0x8a9f.6-0x8c2a.5 (395)
0x08a90|                                             56|               V|              rice_parameter: 23 0x8a9f.6-0x8aa0.2 (0.5)
0x08aa0|ea                                             |.               |
0x08aa0|ea 6b 47 a9 09 4d 62 97 e6 3f 4d 13 3f 45 4d e4|.kG..Mb..?M.?EM.|              samples: 535a3d484a6b14bf31fa6899fa2a6f22... 0x8aa0.3-0x8c2a.5 (394.3)
0x08ab0|53 9c 7b 18 3c 24 26 87 ab 41 3b 77 0f 11 73 bf|S.{.<$&..A;w..s.|
*      |until 0x8c2a.5 (395)                           |                |
       |                                               |                |            [1]: partition {} 0x8c2a.6-0x8dbb.5 (401)
0x08c20|                              d2 e3            |          ..    |              rice_parameter: 23 0x8c2a.6-0x8c2b.2 (0.5)
0x08c20|                                 e3 15 c6 d6 ab|           .....|              samples: 18ae36b559c402956ce9881e72c4f8f2... 0x8c2b.3-0x8dbb.5 (400.3)
0x08c30|38 80 52 ad 9d 31 03 ce 58 9f 1e 45 fd d8 59 c4|8.R..1..X..E..Y.|
*      |until 0x8dbb.5 (401)                           |                |
       |                                               |                |            [2]: partition {} 0x8dbb.6-0x8f4a.3 (398.6)
0x08db0|                                 8e e5         |           ..   |              rice_parameter: 23 0x8dbb.6-0x8dbc.2 (0.5)
0x08db0|                                    e5 62 58 c1|            .bX.|              samples: 2b12c60b145e7d8fa8870c1d2c2fd0ab... 0x8dbc.3-0x8f4a.3 (398.1)
0x08dc0|62 8b cf b1 f5 10 e1 83 a5 85 fa 15 63 30 bd 49|b...........c0.I|
*      |until 0x8f4a.3 (399)                           |                |
       |                                               |                |            [3]: partition {} 0x8f4a.4-0x90d9.2 (398.7)
0x08f40|                              9b 9f            |          ..    |              rice_parameter: 23 0x8f4a.4-0x8f4b (0.5)
0x08f40|                                 9f 9c 31 c7 32|           ..1.2|              samples: 3f38638e653a51aa4160638f48ddd0b3... 0x8f4b.1-0x90d9.2 (398.2)
0x08f50|9d 28 d5 20 b0 31 c7 a4 6e e8 59 f0 b9 f2 55 68|.(. .1..n.Y...Uh|
*      |until 0x90d9.2 (399)                           |                |
       |                                               |                |            [4]: partition {} 0x90d9.3-0x9265.4 (396.2)
0x090d0|                           d7                  |         .      |              rice_parameter: 23 0x90d9.3-0x90d9.7 (0.5)
0x090d0|                              c4 e7 30 58 eb 1e|          ..0X..|              samples: c4e73058eb1ebb57d34ac6e60561f5d7... 0x90da-0x9265.4 (395.5)
0x090e0|bb 57 d3 4a c6 e6 05 61 f5 d7 22 b0 98 87 2a e1|.W.J...a.."...*.|
*      |until 0x9265.4 (396)                           |                |
       |                                               |                |            [5]: partition {} 0x9265.5-0x93f4 (398.4)
0x09260|               3d fd                           |     =.         |              rice_parameter: 23 0x9265.5-0x9266.1 (0.5)
0x09260|                  fd f9 e8 bc 07 8c 9b 4c 38 31|      .......L81|              samples: f7e7a2f01e326d30e0c4faf42c5e0798... 0x9266.2-0x93f4 (397.7)
0x09270|3e bd 0b 17 81 e6 35 a7 2a 26 db 51 39 a9 12 ee|>.....5.*&.Q9...|
*      |until 0x93f4 (398)                             |                |
       |                                               |                |            [6]: partition {} 0x93f4.1-0x9580.5 (396.5)
0x093f0|            5d                                 |    ]           |              rice_parameter: 23 0x93f4.1-0x93f4.5 (0.5)
0x093f0|            5d ca 03 da ec f9 fc 77 e8 7a f8 d0|    ]......w.z..|              samples: 7280f6bb3e7f1dfa1ebe341d8adc1d29... 0x93f4.6-0x9580.5 (396)
0x09400|76 2b 70 74 a6 ea 81 cd 51 8a 78 c7 72 93 02 d1|v+pt....Q.x.r...|
*      |until 0x9580.5 (396)                           |                |
       |                                               |                |            [7]: partition {} 0x9580.6-0x96f7.1 (374.4)
0x09580|aa a6                                          |..              |              rice_parameter: 21 0x9580.6-0x9581.2 (0.5)
0x09580|   a6 0f 66 e0 0f b8 1b 42 a8 1e 82 61 a0 f0 01| ..f....B...a...|              samples: 307b37007dc0da1540f4130d07800faa... 0x9581.3-0x96f7.1 (373.7)
0x09590|f5 5f f1 f7 cf fa 0f 10 13 3f ef 41 10 04 f8 b7|._.......?.A....|
*      |until 0x96f7.1 (374)                           |                |
       |                                               |                |            [8]: partition {} 0x96f7.2-0x981a.1 (291)
0x096f0|                     20                        |                |              rice_parameter: 16 0x96f7.2-0x96f7.6 (0.5)
0x096f0|                     20 47 80 1f 80 07 30 01 9c|        G....0..|              samples: 23c00fc0039800ce002d4009b0020001... 0x96f7.7-0x981a.1 (290.3)
0x09700|00 5a 80 13 60 04 00 03 90 01 8e 00 a9 00 45 80|.Z..`.........E.|
*      |until 0x981a.1 (291)                           |                |
       |                                               |                |            [9]: partition {} 0x981a.2-0x993f.7 (293.6)
0x09810|                              20               |                |              rice_parameter: 16 0x981a.2-0x981a.6 (0.5)
0x09810|                              20 ce 00 39 80 0f|           ..9..|              samples: 67001cc007d8009000142002c0005f80... 0x981a.7-0x993f.7 (293.1)
0x09820|b0 01 20 00 28 40 05 80 00 bf 00 19 20 03 4c 00|.. .(@...... .L.|
*      |until 0x993f.7 (294)                           |                |
       |                                               |                |            [10]: partition {} 0x9940-0x9a63 (291.1)
0x09940|81                                             |.               |              rice_parameter: 16 0x9940-0x9940.4 (0.5)
0x09940|81 4b ff 24 ff ef ff fb ab fe d4 ff ae bf ea 1f|.K.$............|              samples: 297fe49ffdffff757fda9ff5d7fd43ff... 0x9940.5-0x9a63 (290.4)
0x09950|fa 1b ff d5 ff cd ff d7 ff e4 bf f1 60 0a 90 06|............`...|
*      |until 0x9a63 (291)                             |                |
       |                                               |                |            [11]: partition {} 0x9a63.1-0x9b88.5 (293.5)
0x09a60|         c1                                    |   .            |              rice_parameter: 16 0x9a63.1-0x9a63.5 (0.5)
0x09a60|         c1 5d ff 63 ff db ff f7 b7 fc 89 ff 93|   .].c.........|              samples: 577fd8fff6fffdedff227fe4e7fcacff... 0x9a63.6-0x9b88.5 (293)
0x09a70|9f f2 b3 fe 5d 7f cc 6f f9 9f ff 35 ff e6 df fc|....]..o...5....|
*      |until 0x9b88.5 (293)                           |                |
       |                                               |                |            [12]: partition {} 0x9b88.6-0x9cab.7 (291.2)
0x09b80|                        02 05                  |        ..      |              rice_parameter: 16 0x9b88.6-0x9b89.2 (0.5)
0x09b80|                           05 c0 00 a9 00 13 20|         ...... |              samples: 2e00054800990010c0078801b4006100... 0x9b89.3-0x9cab.7 (290.5)
0x09b90|02 18 00 f1 00 36 80 0c 20 02 a0 00 8e 00 79 00|.....6.. .....y.|
*      |until 0x9cab.7 (291)                           |                |
       |                                               |                |            [13]: partition {} 0x9cac-0x9dd1.3 (293.4)
0x09ca0|                                    82         |            .   |              rice_parameter: 16 0x9cac-0x9cac.4 (0.5)
0x09ca0|                                    82 38 00 a8|            .8..|              samples: 47001500061001b40078800850013200... 0x9cac.5-0x9dd1.3 (292.7)
0x09cb0|00 30 80 0d a0 03 c4 00 42 80 09 90 01 54 00 2d|.0......B....T.-|
*      |until 0x9dd1.3 (293)                           |                |
       |                                               |                |            [14]: partition {} 0x9dd1.4-0x9ef5 (291.5)
0x09dd0|   f8 18                                       | ..             |              rice_parameter: 16 0x9dd1.4-0x9dd2 (0.5)
0x09dd0|      18 df f2 eb fe 56 ff c9 cf f9 13 ff 7a ff|  .....V......z.|              samples: 31bfe5d7fcadff939ff227fef5ffb7ff... 0x9dd2.1-0x9ef5 (291)
0x09de0|db ff f6 47 fd 5d ff 49 ff fe 3f fb 7f fb ff fd|...G.].I..?.....|
*      |until 0x9ef5 (291)                             |                |
       |                                               |                |            [15]: partition {} 0x9ef5.1-0xa01a.1 (293.1)
0x09ef0|               c3                              |     .          |              rice_parameter: 16 0x9ef5.1-0x9ef5.5 (0.5)
0x09ef0|               c3 ab fe 85 ff a8 7f eb bf fb 4f|     ..........O|              samples: eaffa17fea1ffaeffed3ffbaffeffff9... 0x9ef5.6-0xa01a.1 (292.4)
0x09f00|fe eb ff bf ff e4 9f fc a4 ff 96 9f f3 03 fe 66|...............f|
*      |until 0xa01a.1 (293)                           |                |
       |                                               |                |            [16]: partition {} 0xa01a.2-0xa13e (291.7)
0x0a010|                              20               |                |              rice_parameter: 16 0xa01a.2-0xa01a.6 (0.5)
0x0a010|                              20 69 80 0c a0 01|           i....|              samples: 34c0065000be00162002840047801f80... 0xa01a.7-0xa13e (291.2)
0x0a020|7c 00 2c 40 05 08 00 8f 00 3f 00 0e 60 03 38 00||.,@.....?..`.8.|
*      |until 0xa13e (292)                             |                |
       |                                               |                |            [17]: partition {} 0xa13e.1-0xa262.7 (292.7)
0x0a130|                                          43   |              C |              rice_parameter: 16 0xa13e.1-0xa13e.5 (0.5)
0x0a130|                                          43 1c|              C.|              samples: c7007180100004d8016c0067001cc007... 0xa13e.6-0xa262.7 (292.2)
0x0a140|01 c6 00 40 00 13 60 05 b0 01 9c 00 73 00 1f 60|...@..`.....s..`|
*      |until 0xa262.7 (293)                           |                |
       |                                               |                |            [18]: partition {} 0xa263-0xa387.1 (292.2)
0x0a260|         81                                    |   .            |              rice_parameter: 16 0xa263-0xa263.4 (0.5)
0x0a260|         81 b3 ff 34 bf e6 67 fc c0 ff 96 9f f2|   ...4..g......|              samples: 367fe697fcccff981ff2d3fe52ffc93f... 0xa263.5-0xa387.1 (291.5)
0x0a270|97 fe 49 ff df ff f7 57 fd a9 ff 5d 7f d4 3f f4|..I....W...]..?.|
*      |until 0xa387.1 (292)                           |                |
       |                                               |                |            [19]: partition {} 0xa387.2-0xa4ab.5 (292.4)
0x0a380|                     e1                        |       .        |              rice_parameter: 16 0xa387.2-0xa387.6 (0.5)
0x0a380|                     e1 41 ff be ff ee 7f fd ff|       .A.......|              samples: a0ffdf7ff73ffefff4a7fd5dff63ffdb... 0xa387.7-0xa4ab.5 (291.7)
0x0a390|e9 4f fa bb fe c7 ff b7 ff ef 6f f9 13 ff 27 3f|.O........o...'?|
*      |until 0xa4ab.5 (292)                           |                |
       |                                               |                |            [20]: partition {} 0xa4ab.6-0xa5d0.1 (292.4)
0x0a4a0|                                 02 06         |           ..   |              rice_parameter: 16 0xa4ab.6-0xa4ac.2 (0.5)
0x0a4a0|                                    06 f0 00 db|            ....|              samples: 378006d800d60019e00310005c000a90... 0xa4ac.3-0xa5d0.1 (291.7)
0x0a4b0|00 1a c0 03 3c 00 62 00 0b 80 01 52 00 26 40 04|....<.b....R.&@.|
*      |until 0xa5d0.1 (292)                           |                |
       |                                               |                |            [21]: partition {} 0xa5d0.2-0xa6f4.3 (292.2)
0x0a5d0|e1                                             |.               |              rice_parameter: 16 0xa5d0.2-0xa5d0.6 (0.5)
0x0a5d0|e1 07 ff 9a 00 5c 00 35 40 1e 40 04 70 01 50 00|.....\.5@.@.p.P.|              samples: 83ffcd002e001aa00f20023800a80030... 0xa5d0.7-0xa6f4.3 (291.5)
0x0a5e0|61 00 1b 40 07 88 00 85 00 13 20 02 a8 00 5b 80|a..@...... ...[.|
*      |until 0xa6f4.3 (292)                           |                |
       |                                               |                |            [22]: partition {} 0xa6f4.4-0xa819.2 (292.7)
0x0a6f0|            f8 1b                              |    ..          |              rice_parameter: 16 0xa6f4.4-0xa6f5 (0.5)
0x0a6f0|               1b 9f f3 77 fe 6d ff cd 7f f9 9f|     ...w.m.....|              samples: 373fe6effcdbff9afff33ffe637fcbaf... 0xa6f5.1-0xa819.2 (292.2)
0x0a700|ff 31 bf e5 d7 fc ad ff 93 9f f2 27 fe f5 ff b7|.1.........'....|
*      |until 0xa819.2 (293)                           |                |
       |                                               |                |            [23]: partition {} 0xa819.3-0xa93d.1 (291.7)
0x0a810|                           10                  |         .      |              rice_parameter: 16 0xa819.3-0xa819.7 (0.5)
0x0a810|                              a9 00 45 80 24 bf|          ..E.$.|              samples: a900458024bff5fffcdfff57fd0bff50... 0xa81a-0xa93d.1 (291.2)
0x0a820|f5 ff fc df ff 57 fd 0b ff 50 ff d7 7f f6 9f fd|.....W...P......|
*      |until 0xa93d.1 (292)                           |                |
       |                                               |                |            [24]: partition {} 0xa93d.2-0xaa62.2 (293.1)
0x0a930|                                       20      |                |              rice_parameter: 16 0xa93d.2-0xa93d.6 (0.5)
0x0a930|                                       20 6c 80|              l.|              samples: 364006e800dd001ba003640069800ca0... 0xa93d.7-0xaa62.2 (292.4)
0x0a940|0d d0 01 ba 00 37 40 06 c8 00 d3 00 19 40 02 f8|.....7@......@..|
*      |until 0xaa62.2 (293)                           |                |
       |                                               |                |            [25]: partition {} 0xaa62.3-0xab85.7 (291.5)
0x0aa60|      f0                                       |  .             |              rice_parameter: 16 0xaa62.3-0xaa62.7 (0.5)
0x0aa60|         cd ff d7 ff e4 bf f1 60 0a 90 06 38 03|   .......`...8.|              samples: cdffd7ffe4bff1600a900638038c0080... 0xaa63-0xab85.7 (291)
0x0aa70|8c 00 80 00 26 c0 0b 60 03 38 00 e6 00 3e c0 04|....&..`.8...>..|
*      |until 0xab85.7 (291)                           |                |
       |                                               |                |            [26]: partition {} 0xab86-0xacab.3 (293.4)
0x0ab80|                  81                           |      .         |              rice_parameter: 16 0xab86-0xab86.4 (0.5)
0x0ab80|                  81 9f ff 35 ff e6 df fc dd ff|      ...5......|              samples: 33ffe6bffcdbff9bbff377fe6cffcd2f... 0xab86.5-0xacab.3 (292.7)
0x0ab90|9b bf f3 67 fe 69 7f cc cf f9 81 ff 2d 3f e5 2f|...g.i......-?./|
*      |until 0xacab.3 (293)                           |                |
       |                                               |                |            [27]: partition {} 0xacab.4-0xadce.5 (291.2)
0x0aca0|                                 08 79         |           .y   |              rice_parameter: 16 0xacab.4-0xacac (0.5)
0x0aca0|                                    79 00 35 40|            y.5@|              samples: f2006a802e001340083ffd07fefbffb9... 0xacac.1-0xadce.5 (290.5)
0x0acb0|17 00 09 a0 04 1f fe 83 ff 7d ff dc ff fb ff d2|.........}......|
*      |until 0xadce.5 (291)                           |                |
       |                                               |                |            [28]: partition {} 0xadce.6-0xaef4.2 (293.5)
0x0adc0|                                          02 06|              ..|              rice_parameter: 16 0xadce.6-0xadcf.2 (0.5)
0x0adc0|                                             06|               .|              samples: 3100067800d6001b600374006f000db0... 0xadcf.3-0xaef4.2 (293)
0x0add0|20 00 cf 00 1a c0 03 6c 00 6e 80 0d e0 01 b6 00| ......l.n......|
*      |until 0xaef4.2 (293)                           |                |
       |                                               |                |            [29]: partition {} 0xaef4.3-0xb017.3 (291.1)
0x0aef0|            f0                                 |    .           |              rice_parameter: 16 0xaef4.3-0xaef4.7 (0.5)
0x0aef0|               49 ff fe 3f fb 7f fb ff fd 07 fe|     I..?.......|              samples: 49fffe3ffb7ffbfffd07fe0fff3400b8... 0xaef5-0xb017.3 (290.4)
0x0af00|0f ff 34 00 b8 00 6a 80 3c 80 08 e0 02 a0 00 c2|..4...j.<.......|
*      |until 0xb017.3 (291)                           |                |
       |                                               |                |            [30]: partition {} 0xb017.4-0xb13d.1 (293.6)
0x0b010|                     f8 16                     |       ..       |              rice_parameter: 16 0xb017.4-0xb018 (0.5)
0x0b010|                        16 9f f3 03 fe 66 7f cd|        .....f..|              samples: 2d3fe607fcccff9a7ff367fe6e7fcddf... 0xb018.1-0xb13d.1 (293.1)
0x0b020|3f f9 b3 ff 37 3f e6 ef fc db ff 9a ff f3 3f fe|?...7?........?.|
*      |until 0xb13d.1 (294)                           |                |
       |                                               |                |            [31]: partition {} 0xb13d.2-0xb260.1 (291)
0x0b130|                                       20      |                |              rice_parameter: 16 0xb13d.2-0xb13d.6 (0.5)
0x0b130|                                       20 b5 00|              ..|              samples: 5a80136004000390018e00a900458024... 0xb13d.7-0xb260.1 (290.3)
0x0b140|26 c0 08 00 07 20 03 1c 01 52 00 8b 00 49 7f eb|&.... ...R...I..|
*      |until 0xb260.1 (291)                           |                |
       |                                               |                |        [1]: subframe {} 0xb260.2-0xd477.3 (8727.2)
0x0b260|04                                             |.               |          zero_bit: Correct (0x0) 0xb260.2-0xb260.2 (0.1)
0x0b260|04 ae                                          |..              |          subframe_type: Fixed (2) 0xb260.3-0xb261 (0.6)
       |                                               |                |          lpc_order: 1 0xb261.1-NA (0)
0x0b260|   ae                                          | .              |          wasted_bits_flag: 0 0xb261.1-0xb261.1 (0.1)
       |                                               |                |          subframe_sample_size: 24 0xb261.2-NA (0)
       |                                               |                |          warmup_samples: [1] 0xb261.2-0xb264.1 (3)
0x0b260|   ae ec 60 d5                                 | ..`.           |            [0]: value -4476541 0xb261.2-0xb264.1 (3)
0x0b260|            d5                                 |    .           |          residual_coding_method: rice2 (5) 0xb264.2-0xb264.3 (0.2)
0x0b260|            d5                                 |    .           |          partition_order: 5 0xb264.4-0xb264.7 (0.4)
       |                                               |                |          rice_partitions: 32 0xb265-NA (0)
       |                                               |                |          partitions: [32] 0xb265-0xd477.3 (8722.4)
       |                                               |                |            [0]: partition {} 0xb265-0xb3f0.6 (395.7)
0x0b260|               bf                              |     .          |              rice_parameter: 23 0xb265-0xb265.4 (0.5)
0x0b260|               bf 8d 86 c9 95 44 fc e5 5a 1f af|     .....D..Z..|              samples: f1b0d932a89f9cab43f5f234e4601f81... 0xb265.5-0xb3f0.6 (395.2)
0x0b270|91 a7 23 00 fc 0b 71 30 32 21 73 31 03 5c 8e 4b|..#...q02!s1.\.K|
*      |until 0xb3f0.6 (396)                           |                |
       |                                               |                |            [1]: partition {} 0xb3f0.7-0xb57e.2 (397.4)
0x0b3f0|8f 74                                          |.t              |              rice_parameter: 23 0xb3f0.7-0xb3f1.3 (0.5)
0x0b3f0|   74 66 de 04 6f 71 ba a8 2f 36 c9 b4 98 cc 98| tf..oq../6.....|              samples: 466de046f71baa82f36c9b498cc9890d... 0xb3f1.4-0xb57e.2 (396.7)
0x0b400|90 d9 df 0b 95 dd bd 4d d6 d2 97 76 e1 d6 5b 16|.......M...v..[.|
*      |until 0xb57e.2 (397)                           |                |
       |                                               |                |            [2]: partition {} 0xb57e.3-0xb70f.7 (401.5)
0x0b570|                                          f7   |              . |              rice_parameter: 23 0xb57e.3-0xb57e.7 (0.5)
0x0b570|                                             dd|               .|              samples: dd889c4100f46f474aae729e74c5e68a... 0xb57f-0xb70f.7 (401)
0x0b580|88 9c 41 00 f4 6f 47 4a ae 72 9e 74 c5 e6 8a 30|..A..oGJ.r.t...0|
*      |until 0xb70f.7 (401)                           |                |
       |                                               |                |            [3]: partition {} 0xb710-0xb89d.5 (397.6)
0x0b710|b9                                             |.               |              rice_parameter: 23 0xb710-0xb710.4 (0.5)
0x0b710|b9 60 57 0e b9 00 86 92 4f 4f 27 41 f8 51 df 7b|.`W.....OO'A.Q.{|              samples: 2c0ae1d72010d249e9e4e83f0a3bef7a... 0xb710.5-0xb89d.5 (397.1)
0x0b720|d3 93 e3 25 7f 2e 10 b0 b8 5b 20 8f 4e 1f 00 53|...%.....[ .N..S|
*      |until 0xb89d.5 (398)                           |                |
       |                                               |                |            [4]: partition {} 0xb89d.6-0xba2d.1 (399.4)
0x0b890|                                       2a ef   |             *. |              rice_parameter: 23 0xb89d.6-0xb89e.2 (0.5)
0x0b890|                                          ef 18|              ..|              samples: 78c5fdf10671f9d8da6d150ac09b90d0... 0xb89e.3-0xba2d.1 (398.7)
0x0b8a0|bf be 20 ce 3f 3b 1b 4d a2 a1 58 13 72 1a 03 74|.. .?;.M..X.r..t|
*      |until 0xba2d.1 (399)                           |                |
       |                                               |                |            [5]: partition {} 0xba2d.2-0xbbb9.6 (396.5)
0x0ba20|                                       af      |             .  |              rice_parameter: 23 0xba2d.2-0xba2d.6 (0.5)
0x0ba20|                                       af 81 91|             ...|              samples: c0c8968e7d0dd5ef4f529cf6c258e7e7... 0xba2d.7-0xbbb9.6 (396)
0x0ba30|2d 1c fa 1b ab de 9e a5 39 ed 84 b1 cf cf 22 c0|-.......9.....".|
*      |until 0xbbb9.6 (396)                           |                |
       |                                               |                |            [6]: partition {} 0xbbb9.7-0xbd47.5 (397.7)
0x0bbb0|                           e9 72               |         .r     |              rice_parameter: 23 0xbbb9.7-0xbbba.3 (0.5)
0x0bbb0|                              72 df 3f cd 70 9d|          r.?.p.|              samples: 2df3fcd709da5fa855d33788877c0b1e... 0xbbba.4-0xbd47.5 (397.2)
0x0bbc0|a5 fa 85 5d 33 78 88 77 c0 b1 eb 4c 46 62 a3 1e|...]3x.w...LFb..|
*      |until 0xbd47.5 (398)                           |                |
       |                                               |                |            [7]: partition {} 0xbd47.6-0xbebf.5 (376)
0x0bd40|                     e2 a0                     |       ..       |              rice_parameter: 21 0xbd47.6-0xbd48.2 (0.5)
0x0bd40|                        a0 17 b4 97 90 9e d7 66|        .......f|              samples: 00bda4bc84f6bb35c4d02bc8dc0040b3... 0xbd48.3-0xbebf.5 (375.3)
0x0bd50|b8 9a 05 79 1b 80 08 16 6b 40 16 30 29 35 c9 72|...y....k@.0)5.r|
*      |until 0xbebf.5 (376)                           |                |
       |                                               |                |            [8]: partition {} 0xbebf.6-0xbfa5.6 (230.1)
0x0beb0|                                             01|               .|              rice_parameter: 12 0xbebf.6-0xbec0.2 (0.5)
0x0bec0|82                                             |.               |
0x0bec0|82 00 02 00 02 00 02 00 02 40 02 00 07 80 0f 00|.........@......|              samples: 1000100010001000120010003c007800... 0xbec0.3-0xbfa5.6 (229.4)
0x0bed0|08 00 1e 00 3c 00 20 00 78 00 e0 01 e0 03 80 07|....<. .x.......|
*      |until 0xbfa5.6 (230)                           |                |
       |                                               |                |            [9]: partition {} 0xbfa5.7-0xc083.7 (222.1)
0x0bfa0|               00 cb                           |     ..         |              rice_parameter: 12 0xbfa5.7-0xbfa6.3 (0.5)
0x0bfa0|                  cb 00 50 02 80 12 00 a0 04 80|      ..P.......|              samples: b005002801200a004802401200800480... 0xbfa6.4-0xc083.7 (221.4)
0x0bfb0|24 01 20 08 00 48 02 00 10 00 80 04 7f e0 01 1f|$. ..H..........|
*      |until 0xc083.7 (222)                           |                |
       |                                               |                |            [10]: partition {} 0xc084-0xc174.4 (240.5)
0x0c080|            6a                                 |    j           |              rice_parameter: 13 0xc084-0xc084.4 (0.5)
0x0c080|            6a bf f5 3f ea ff d5 ff ab ff 5b fe|    j..?......[.|              samples: 57fea7fd5ffabff57feb7fd5ffabff5b... 0xc084.5-0xc174.4 (240)
0x0c090|af fd 5f fa df f5 bf eb 7f d6 ff ad ff 5f fe b7|.._.........._..|
*      |until 0xc174.4 (240)                           |                |
       |                                               |                |            [11]: partition {} 0xc174.5-0xc263.1 (238.5)
0x0c170|            fb 5c                              |    .\          |              rice_parameter: 13 0xc174.5-0xc175.1 (0.5)
0x0c170|               5c ff b7 ff 77 fe df fd cf fb 7f|     \...w......|              samples: 73fedffddffb7ff73fedffdbffb9ff73... 0xc175.2-0xc263.1 (238)
0x0c180|f6 ff ee 7f dc ff b7 ff 6f fe df fd bf fb 9f f6|........o.......|
*      |until 0xc263.1 (238)                           |                |
       |                                               |                |            [12]: partition {} 0xc263.2-0xc336.3 (211.2)
0x0c260|         d6                                    |   .            |              rice_parameter: 11 0xc263.2-0xc263.6 (0.5)
0x0c260|         d6 2f fc 4f f8 9f f1 3f e2 7f c4 ff 9f|   ./.O...?.....|              samples: 17fe27fc4ff89ff13fe27fcfff13fe7f... 0xc263.7-0xc336.3 (210.5)
0x0c270|fe 27 fc ff f3 7f cf ff 3f fc df f3 7f cd ff 37|.'......?......7|
*      |until 0xc336.3 (211)                           |                |
       |                                               |                |            [13]: partition {} 0xc336.4-0xc424.4 (238.1)
0x0c330|                  06 f0                        |      ..        |              rice_parameter: 13 0xc336.4-0xc337 (0.5)
0x0c330|                     f0 01 c0 07 40 1d 00 74 01|       ....@..t.|              samples: e003800e803a00e803800f003a00f003... 0xc337.1-0xc424.4 (237.4)
0x0c340|c0 07 80 1d 00 78 01 e0 07 40 1f 00 78 01 e0 07|.....x...@..x...|
*      |until 0xc424.4 (238)                           |                |
       |                                               |                |            [14]: partition {} 0xc424.5-0xc515.1 (240.5)
0x0c420|            03 5d                              |    .]          |              rice_parameter: 13 0xc424.5-0xc425.1 (0.5)
0x0c420|               5d 00 3a 00 70 00 e8 01 c0 03 a0|     ].:.p......|              samples: 7400e801c003a007000e801d00380074... 0xc425.2-0xc515.1 (240)
0x0c430|07 40 0e 00 1d 00 3a 00 70 00 e8 01 d0 03 a0 07|.@....:.p.......|
*      |until 0xc515.1 (240)                           |                |
       |                                               |                |            [15]: partition {} 0xc515.2-0xc5f6.6 (225.5)
0x0c510|               18                              |     .          |              rice_parameter: 12 0xc515.2-0xc515.6 (0.5)
0x0c510|               18 78 00 e0 01 e0 03 c0 07 00 0e|     .x.........|              samples: 3c007000f001e0038007000d001c0034... 0xc515.7-0xc5f6.6 (225)
0x0c520|00 1a 00 38 00 68 00 e0 01 c0 03 40 06 80 0c 00|...8.h.....@....|
*      |until 0xc5f6.6 (225)                           |                |
       |                                               |                |            [16]: partition {} 0xc5f6.7-0xc6d8.3 (225.5)
0x0c5f0|                  fe c8                        |      ..        |              rice_parameter: 12 0xc5f6.7-0xc5f7.3 (0.5)
0x0c5f0|                     c8 00 47 fe 3f f1 ff 9f fc|       ..G.?....|              samples: 80047fe3ff1ff9ffc7fe7ff3ffaffcff... 0xc5f7.4-0xc6d8.3 (225)
0x0c600|7f e7 ff 3f fa ff cf fe bf f5 ff af fd 7f ef ff|...?............|
*      |until 0xc6d8.3 (225)                           |                |
       |                                               |                |            [17]: partition {} 0xc6d8.4-0xc7c9 (240.5)
0x0c6d0|                        f6 ad                  |        ..      |              rice_parameter: 13 0xc6d8.4-0xc6d9 (0.5)
0x0c6d0|                           ad ff 5b fe bf fd 7f|         ..[....|              samples: 5bfeb7fd7ffafff5ffebffd7ffafff63... 0xc6d9.1-0xc7c9 (240)
0x0c6e0|fa ff f5 ff eb ff d7 ff b1 ff 5f fe bf fd 9f fb|.........._.....|
*      |until 0xc7c9 (240)                             |                |
       |                                               |                |            [18]: partition {} 0xc7c9.1-0xc8b5.7 (236.7)
0x0c7c0|                           b5                  |         .      |              rice_parameter: 13 0xc7c9.1-0xc7c9.5 (0.5)
0x0c7c0|                           b5 af fb 9f f6 ff ed|         .......|              samples: 6bfee7fdbffb7ff6ffed7fdbffb5ff6f... 0xc7c9.6-0xc8b5.7 (236.2)
0x0c7d0|ff db ff b5 ff 6f fe d7 fd bf fb 7f f6 bf ed ff|.....o..........|
*      |until 0xc8b5.7 (237)                           |                |
       |                                               |                |            [19]: partition {} 0xc8b6-0xc98a (212.1)
0x0c8b0|                  59                           |      Y         |              rice_parameter: 11 0xc8b6-0xc8b6.4 (0.5)
0x0c8b0|                  59 bf e6 ff 97 fe 6f f9 7f e5|      Y.....o...|              samples: 37fcdff2ffcdff2ffcbff2ffc9ff2ffc... 0xc8b6.5-0xc98a (211.4)
0x0c8c0|ff 97 fe 4f f9 7f e4 ff 93 fe 4f fb ff c9 ff 7f|...O......O.....|
*      |until 0xc98a (212)                             |                |
       |                                               |                |            [20]: partition {} 0xc98a.1-0xca79.7 (239.7)
0x0c980|                              37               |          7     |              rice_parameter: 13 0xc98a.1-0xc98a.5 (0.5)
0x0c980|                              37 e0 0f 80 3e 00|          7...>.|              samples: f803e00f803e004001f002000f801100... 0xc98a.6-0xca79.7 (239.2)
0x0c990|f8 01 00 07 c0 08 00 3e 00 44 00 80 01 00 02 20|.......>.D..... |
*      |until 0xca79.7 (240)                           |                |
       |                                               |                |            [21]: partition {} 0xca7a-0xcb6a.4 (240.5)
0x0ca70|                              6b               |          k     |              rice_parameter: 13 0xca7a-0xca7a.4 (0.5)
0x0ca70|                              6b a0 07 40 0e 80|          k..@..|              samples: 7400e801d003a007400e801d003a0074... 0xca7a.5-0xcb6a.4 (240)
0x0ca80|1d 00 3a 00 74 00 e8 01 d0 03 a0 07 40 0e 80 1d|..:.t.......@...|
*      |until 0xcb6a.4 (240)                           |                |
       |                                               |                |            [22]: partition {} 0xcb6a.5-0xcc48.5 (222.1)
0x0cb60|                              03 0d            |          ..    |              rice_parameter: 12 0xcb6a.5-0xcb6b.1 (0.5)
0x0cb60|                                 0d 00 1a 00 34|           ....4|              samples: 34006800d00180030006000c00160030... 0xcb6b.2-0xcc48.5 (221.4)
0x0cb70|00 60 00 c0 01 80 03 00 05 80 0c 00 16 00 30 00|.`............0.|
*      |until 0xcc48.5 (222)                           |                |
       |                                               |                |            [23]: partition {} 0xcc48.6-0xcd2e.1 (229.4)
0x0cc40|                        fd 97                  |        ..      |              rice_parameter: 12 0xcc48.6-0xcc49.2 (0.5)
0x0cc40|                           97 ff af fd ff ef ff|         .......|              samples: bffd7fefff7ffcffdfff3ff9ffcffeff... 0xcc49.3-0xcd2e.1 (228.7)
0x0cc50|9f fb ff e7 ff 3f f9 ff df fe 7f f7 ff bf fd ff|.....?..........|
*      |until 0xcd2e.1 (229)                           |                |
       |                                               |                |            [24]: partition {} 0xcd2e.2-0xce1e.6 (240.5)
0x0cd20|                                          da   |              . |              rice_parameter: 13 0xcd2e.2-0xcd2e.6 (0.5)
0x0cd20|                                          da c7|              ..|              samples: 63fec7fd9ffb3ff63fec7fd9ffb3ff63... 0xcd2e.7-0xce1e.6 (240)
0x0cd30|fd 8f fb 3f f6 7f ec 7f d8 ff b3 ff 67 fe c7 fd|...?........g...|
*      |until 0xce1e.6 (240)                           |                |
       |                                               |                |            [25]: partition {} 0xce1e.7-0xcf09.7 (235.1)
0x0ce10|                                          fe d6|              ..|              rice_parameter: 13 0xce1e.7-0xce1f.3 (0.5)
0x0ce10|                                             d6|               .|              samples: 6ffed7fd9ffb5ff6bfed7fd9ffb5ff6b... 0xce1f.4-0xcf09.7 (234.4)
0x0ce20|ff ed 7f d9 ff b5 ff 6b fe d7 fd 9f fb 5f f6 bf|.......k....._..|
*      |until 0xcf09.7 (235)                           |                |
       |                                               |                |            [26]: partition {} 0xcf0a-0xcfe0.7 (215)
0x0cf00|                              5b               |          [     |              rice_parameter: 11 0xcf0a-0xcf0a.4 (0.5)
0x0cf00|                              5b ff df fe ff f6|          [.....|              samples: 7ffbffdffedff7ffb7fdbfedff5ffb7f... 0xcf0a.5-0xcfe0.7 (214.3)
0x0cf10|ff bf fd bf ed ff 6f fa ff db fe bf f5 ff af fd|......o.........|
*      |until 0xcfe0.7 (215)                           |                |
       |                                               |                |            [27]: partition {} 0xcfe1-0xd0d1.4 (240.5)
0x0cfe0|   6a                                          | j              |              rice_parameter: 13 0xcfe1-0xcfe1.4 (0.5)
0x0cfe0|   6a 20 04 40 09 00 11 00 24 00 48 00 90 01 30| j .@....$.H...0|              samples: 44008801200220048009001200260048... 0xcfe1.5-0xd0d1.4 (240)
0x0cff0|02 40 04 80 09 80 13 00 26 00 4c 00 a0 01 30 02|.@......&.L...0.|
*      |until 0xd0d1.4 (240)                           |                |
       |                                               |                |            [28]: partition {} 0xd0d1.5-0xd1c2.1 (240.5)
0x0d0d0|   03 5d                                       | .]             |              rice_parameter: 13 0xd0d1.5-0xd0d2.1 (0.5)
0x0d0d0|      5d 00 3a 00 74 00 e8 01 d0 03 c0 07 40 0e|  ].:.t.......@.|              samples: 7400e801d003a007400f001d003a0074... 0xd0d2.2-0xd1c2.1 (240)
0x0d0e0|80 1d 00 3a 00 74 00 f0 01 d0 03 a0 07 40 0e 80|...:.t.......@..|
*      |until 0xd1c2.1 (240)                           |                |
       |                                               |                |            [29]: partition {} 0xd1c2.2-0xd29c.6 (218.5)
0x0d1c0|      18                                       |  .             |              rice_parameter: 12 0xd1c2.2-0xd1c2.6 (0.5)
0x0d1c0|      18 58 00 a0 01 60 02 80 05 00 09 00 14 00|  .X...`........|              samples: 2c005000b00140028004800a00120028... 0xd1c2.7-0xd29c.6 (218)
0x0d1d0|24 00 50 00 90 01 20 02 40 04 00 08 00 12 00 20|$.P... .@...... |
*      |until 0xd29c.6 (218)                           |                |
       |                                               |                |            [30]: partition {} 0xd29c.7-0xd386.6 (234)
0x0d290|                                    fe da      |            ..  |              rice_parameter: 13 0xd29c.7-0xd29d.3 (0.5)
0x0d290|                                       da ff ed|             ...|              samples: affedffb7fedffb7fefffb7fefffbffe... 0xd29d.4-0xd386.6 (233.3)
0x0d2a0|ff b7 fe df fb 7f ef ff b7 fe ff fb ff ef ff bf|................|
*      |until 0xd386.6 (234)                           |                |
       |                                               |                |            [31]: partition {} 0xd386.7-0xd477.3 (240.5)
0x0d380|                  fe d6                        |      ..        |              rice_parameter: 13 0xd386.7-0xd387.3 (0.5)
0x0d380|                     d6 7f ed 7f da ff b5 ff 67|       ........g|              samples: 67fed7fdaffb5ff67fed7fdaffb5ff6b... 0xd387.4-0xd477.3 (240)
0x0d390|fe d7 fd af fb 5f f6 bf ed 7f da ff b7 ff 6b fe|....._........k.|
*      |until 0xd477.3 (240)                           |                |
0x0d470|                     f0                        |       .        |      byte_align: Correct (0x0) 0xd477.4-0xd477.7 (0.4)
0x0d470|                        ab 69                  |        .i      |      footer_crc: Correct (ab69) 0xd478-0xd479.7 (2)
       |                                               |                |    [4]: frame {} (flac_frame) 0xd47a-0x1078f.7 (13078)
       |                                               |                |      header: {} 0xd47a-0xd47f.7 (6)
0x0d470|                              ff f8            |          ..    |        sync: Correct (0x3ffe) 0xd47a-0xd47b.5 (1.6)
0x0d470|                                 f8            |           .    |        reserved0: Correct (0x0) 0xd47b.6-0xd47b.6 (0.1)
0x0d470|                                 f8            |           .    |        blocking_strategy: Fixed (0) 0xd47b.7-0xd47b.7 (0.1)
0x0d470|                                    c9         |            .   |        block_size: 4096 0xd47c-0xd47c.3 (0.4)
0x0d470|                                    c9         |            .   |        sample_rate: 44100 0xd47c.4-0xd47c.7 (0.4)
0x0d470|                                       1c      |             .  |        channel_assignment: left, right (2) 0xd47d-0xd47d.3 (0.4)
0x0d470|                                       1c      |             .  |        sample_size: 24 0xd47d.4-0xd47d.6 (0.3)
0x0d470|                                       1c      |             .  |        reserved1: Correct (0x0) 0xd47d.7-0xd47d.7 (0.1)
       |                                               |                |        end_of_header: {} 0xd47e-0xd47e.7 (1)
0x0d470|                                          04   |              . |          frame_number: 4 0xd47e-0xd47e.7 (1)
0x0d470|                                             8a|               .|        crc: Correct (8a) 0xd47f-0xd47f.7 (1)
       |                                               |                |      subframes: [2] 0xd480-0x1078d.1 (13069.2)
       |                                               |                |        [0]: subframe {} 0xd480-0x103d6.7 (12119)
0x0d480|10                                             |.               |          zero_bit: Correct (0x0) 0xd480-0xd480 (0.1)
0x0d480|10                                             |.               |          subframe_type: Fixed (2) 0xd480.1-0xd480.6 (0.6)
       |                                               |                |          lpc_order: 0 0xd480.7-NA (0)
0x0d480|10                                             |.               |          wasted_bits_flag: 0 0xd480.7-0xd480.7 (0.1)
       |                                               |                |          subframe_sample_size: 24 0xd481-NA (0)
       |                                               |                |          warmup_samples: [0] 0xd481-NA (0)
0x0d480|   52                                          | R              |          residual_coding_method: rice2 (5) 0xd481-0xd481.1 (0.2)
0x0d480|   52                                          | R              |          partition_order: 4 0xd481.2-0xd481.5 (0.4)
       |                                               |                |          rice_partitions: 16 0xd481.6-NA (0)
       |                                               |                |          partitions: [16] 0xd481.6-0x103d6.7 (12117.2)
       |                                               |                |            [0]: partition {} 0xd481.6-0xd737.4 (693.7)
0x0d480|   52 88                                       | R.             |              rice_parameter: 20 0xd481.6-0xd482.2 (0.5)
0x0d480|      88 6f ff f9 ff ff 80 3f f9 6f ff b6 4f fd|  .o.....?.o..O.|              samples: 437fffcffffc01ffcb7ffdb27fe82fff... 0xd482.3-0xd737.4 (693.2)
0x0d490|05 ff e2 bb ff 15 c0 0a 0b 00 5b 20 03 2d c0 1c|..........[ .-..|
*      |until 0xd737.4 (694)                           |                |
       |                                               |                |            [1]: partition {} 0xd737.5-0xd9ed.4 (694)
0x0d730|                     05 13                     |       ..       |              rice_parameter: 20 0xd737.5-0xd738.1 (0.5)
0x0d730|                        13 ae 00 45 d0 03 e3 40|        ...E...@|              samples: 4eb80117400f8d0072900342c0177600... 0xd738.2-0xd9ed.4 (693.3)
0x0d740|1c a4 00 d0 b0 05 dd 80 29 8c 01 20 e0 08 56 ff|........).. ..V.|
*      |until 0xd9ed.4 (694)                           |                |
       |                                               |                |            [2]: partition {} 0xd9ed.5-0xdca3.3 (693.7)
0x0d9e0|                                       fd 16   |             .. |              rice_parameter: 20 0xd9ed.5-0xd9ee.1 (0.5)
0x0d9e0|                                          16 41|              .A|              samples: 5907fd437ff4817fff63ffd43ffd5dff... 0xd9ee.2-0xdca3.3 (693.2)
0x0d9f0|ff 50 df fd 20 5f ff d8 ff f5 0f ff 57 7f f8 1d|.P.. _......W...|
*      |until 0xdca3.3 (694)                           |                |
       |                                               |                |            [3]: partition {} 0xdca3.4-0xdf59.2 (693.7)
0x0dca0|         0a 31                                 |   .1           |              rice_parameter: 20 0xdca3.4-0xdca4 (0.5)
0x0dca0|            31 2c 00 b5 f0 02 97 c0 09 4b 00 20|    1,.......K. |              samples: 6258016be0052f80129600413003bc40... 0xdca4.1-0xdf59.2 (693.2)
0x0dcb0|98 01 de 20 0d b0 00 63 18 02 c3 c0 13 6a 00 85|... ...c.....j..|
*      |until 0xdf59.2 (694)                           |                |
       |                                               |                |            [4]: partition {} 0xdf59.3-0xe222.6 (713.4)
0x0df50|                           f4                  |         .      |              rice_parameter: 20 0xdf59.3-0xdf59.7 (0.5)
0x0df50|                              6a 7f fd 90 3f f5|          j...?.|              samples: 6a7ffd903ff5cdffd541ff4c87fd0dff... 0xdf5a-0xe222.6 (712.7)
0x0df60|cd ff d5 41 ff 4c 87 fd 0d ff ff 3f ff f0 07 ff|...A.L.....?....|
*      |until 0xe222.6 (713)                           |                |
       |                                               |                |            [5]: partition {} 0xe222.7-0xe534.7 (786.1)
0x0e220|      e5 7e                                    |  .~            |              rice_parameter: 23 0xe222.7-0xe223.3 (0.5)
0x0e220|         7e 06 5e 2e 3d 98 d5 a1 0e eb 53 74 da|   ~.^.=.....St.|              samples: e065e2e3d98d5a10eeb5374daf534fb0... 0xe223.4-0xe534.7 (785.4)
0x0e230|f5 34 fb 01 ba 95 9e 6b 67 c8 bf 36 e4 ef cc 7c|.4.....kg..6...||
*      |until 0xe534.7 (786)                           |                |
       |                                               |                |            [6]: partition {} 0xe535-0xe841.2 (780.3)
0x0e530|               b1                              |     .          |              rice_parameter: 22 0xe535-0xe535.4 (0.5)
0x0e530|               b1 27 94 5d 4d 79 c9 48 1d e8 f4|     .'.]My.H...|              samples: 24f28ba9af392903bd1e8923ad19c197... 0xe535.5-0xe841.2 (779.6)
0x0e540|49 1d 68 ce 0c b8 97 e9 7b 6d fc 51 a8 53 1a bc|I.h.....{m.Q.S..|
*      |until 0xe841.2 (780)                           |                |
       |                                               |                |            [7]: partition {} 0xe841.3-0xeb4f.6 (782.4)
0x0e840|   b6                                          | .              |              rice_parameter: 22 0xe841.3-0xe841.7 (0.5)
0x0e840|      fc a1 54 7d b9 7e 78 e6 ca 1a eb 46 07 8e|  ..T}.~x....F..|              samples: fca1547db97e78e6ca1aeb46078e2fd8... 0xe842-0xeb4f.6 (781.7)
0x0e850|2f d8 d3 99 e7 6d 96 07 ce b5 ea 11 32 a8 cf 33|/....m......2..3|
*      |until 0xeb4f.6 (782)                           |                |
       |                                               |                |            [8]: partition {} 0xeb4f.7-0xee61.1 (785.3)
0x0eb40|                                             af|               .|              rice_parameter: 23 0xeb4f.7-0xeb50.3 (0.5)
0x0eb50|7d                                             |}               |
0x0eb50|7d 41 61 55 0a 59 3f 7d 82 0d 95 19 a7 77 02 05|}AaU.Y?}.....w..|              samples: d4161550a593f7d820d9519a7770205a... 0xeb50.4-0xee61.1 (784.6)
0x0eb60|ad 96 d2 a1 e1 9e 7e 7c dd ee 09 9f 3c 67 64 c5|......~|....<gd.|
*      |until 0xee61.1 (785)                           |                |
       |                                               |                |            [9]: partition {} 0xee61.2-0xf172.5 (785.4)
0x0ee60|   6f                                          | o              |              rice_parameter: 23 0xee61.2-0xee61.6 (0.5)
0x0ee60|   6f 2d 55 48 d8 d2 1c db 9c cf b6 3f 17 f5 4f| o-UH.......?..O|              samples: 96aaa46c690e6dce67db1f8bfaa7f4f7... 0xee61.7-0xf172.5 (784.7)
0x0ee70|e9 ee 9f 95 5f 15 6f 3e d6 79 9e 8c 40 11 a1 b3|...._.o>.y..@...|
*      |until 0xf172.5 (785)                           |                |
       |                                               |                |            [10]: partition {} 0xf172.6-0xf483.4 (784.7)
0x0f170|      c2 ff                                    |  ..            |              rice_parameter: 23 0xf172.6-0xf173.2 (0.5)
0x0f170|         ff 84 3d 6f 6d 5f 84 c4 a6 84 f0 42 72|   ..=om_.....Br|              samples: fc21eb7b6afc262534278213955623d9... 0xf173.3-0xf483.4 (784.2)
0x0f180|aa c4 7b 2c 22 a1 50 6e 8a fc 82 04 5b b0 25 79|..{,".Pn....[.%y|
*      |until 0xf483.4 (785)                           |                |
       |                                               |                |            [11]: partition {} 0xf483.5-0xf793.7 (784.3)
0x0f480|         25 85                                 |   %.           |              rice_parameter: 22 0xf483.5-0xf484.1 (0.5)
0x0f480|            85 9a 22 02 5f fb 50 f2 e2 fb 32 0d|    .."._.P...2.|              samples: 166888097fed43cb8becc83581be3c20... 0xf484.2-0xf793.7 (783.6)
0x0f490|60 6f 8f 08 1d 10 37 2c 84 d3 9e 37 08 47 e7 08|`o....7,...7.G..|
*      |until 0xf793.7 (784)                           |                |
       |                                               |                |            [12]: partition {} 0xf794-0xfaa4.6 (784.7)
0x0f790|            bf                                 |    .           |              rice_parameter: 23 0xf794-0xf794.4 (0.5)
0x0f790|            bf bf ca c7 55 16 1a 5f 6f 69 ea 9e|    ....U.._oi..|              samples: f7f958eaa2c34beded3d53c3fc9b4e7e... 0xf794.5-0xfaa4.6 (784.2)
0x0f7a0|1f e4 da 73 f3 d0 cc a1 74 04 f3 e1 2a 84 e8 b2|...s....t...*...|
*      |until 0xfaa4.6 (785)                           |                |
       |                                               |                |            [13]: partition {} 0xfaa4.7-0xfdb4.5 (783.7)
0x0faa0|            b7 65                              |    .e          |              rice_parameter: 22 0xfaa4.7-0xfaa5.3 (0.5)
0x0faa0|               65 bf b8 fb 84 d3 0c 4d 28 6e 50|     e......M(nP|              samples: 5bfb8fb84d30c4d286e506c27c114710... 0xfaa5.4-0xfdb4.5 (783.2)
0x0fab0|6c 27 c1 14 71 02 53 28 4e ae 73 39 e9 bb b0 6a|l'..q.S(N.s9...j|
*      |until 0xfdb4.5 (784)                           |                |
       |                                               |                |            [14]: partition {} 0xfdb4.6-0x100c5.2 (784.5)
0x0fdb0|            92 ff                              |    ..          |              rice_parameter: 23 0xfdb4.6-0xfdb5.2 (0.5)
0x0fdb0|               ff d1 b3 52 7e 88 5e d3 b5 34 3f|     ...R~.^..4?|              samples: fe8d9a93f442f69da9a1fae8c1e5444a... 0xfdb5.3-0x100c5.2 (784)
0x0fdc0|5d 18 3c a8 89 5c c1 69 d6 fd 56 b8 95 b5 f8 a3|].<..\.i..V.....|
*      |until 0x100c5.2 (784)                          |                |
       |                                               |                |            [15]: partition {} 0x100c5.3-0x103d6.7 (785.5)
0x100c0|               57                              |     W          |              rice_parameter: 23 0x100c5.3-0x100c5.7 (0.5)
0x100c0|                  cd d5 db ac ab ce 79 04 bd f0|      ......y...|              samples: cdd5dbacabce7904bdf02d5ccc400722... 0x100c6-0x103d6.7 (785)
0x100d0|2d 5c cc 40 07 22 50 3b f9 d8 ad dd 21 de 69 7a|-\.@."P;....!.iz|
*      |until 0x103d6.7 (785)                          |                |
       |                                               |                |        [1]: subframe {} 0x103d7-0x1078d.1 (950.2)
0x103d0|                     15                        |       .        |          zero_bit: Correct (0x0) 0x103d7-0x103d7 (0.1)
0x103d0|                     15                        |       .        |          subframe_type: Fixed (2) 0x103d7.1-0x103d7.6 (0.6)
       |                                               |                |          lpc_order: 2 0x103d7.7-NA (0)
0x103d0|                     15                        |       .        |          wasted_bits_flag: 1 0x103d7.7-0x103d7.7 (0.1)
0x103d0|                        01                     |        .       |          wasted_bits_k: 8 0x103d8-0x103d8.7 (1)
       |                                               |                |          subframe_sample_size: 16 0x103d9-NA (0)
       |                                               |                |          warmup_samples: [2] 0x103d9-0x103dc.7 (4)
0x103d0|                           f8 a7               |         ..     |            [0]: value -1881 0x103d9-0x103da.7 (2)
0x103d0|                                 f8 8d         |           ..   |            [1]: value -1907 0x103db-0x103dc.7 (2)
0x103d0|                                       04      |             .  |          residual_coding_method: rice (4) 0x103dd-0x103dd.1 (0.2)
0x103d0|                                       04      |             .  |          partition_order: 1 0x103dd.2-0x103dd.5 (0.4)
       |                                               |                |          rice_partitions: 2 0x103dd.6-NA (0)
       |                                               |                |          partitions: [2] 0x103dd.6-0x1078d.1 (943.4)
       |                                               |                |            [0]: partition {} 0x103dd.6-0x105b3.2 (469.5)
0x103d0|                                       04 0a   |             .. |              rice_parameter: 0 0x103dd.6-0x103de.1 (0.4)
0x103d0|                                          0a 59|              .Y|              samples: 2967cb3d269a4a5994b32e794a4b2994... 0x103de.2-0x105b3.2 (469.1)
0x103e0|f2 cf 49 a6 92 96 65 2c cb 9e 52 92 ca 65 29 cd|..I...e,..R..e).|
*      |until 0x105b3.2 (470)                          |                |
       |                                               |                |            [1]: partition {} 0x105b3.3-0x1078d.1 (473.7)
0x105b0|         20                                    |                |              rice_parameter: 0 0x105b3.3-0x105b3.6 (0.4)
0x105b0|         20 25 2c d9 65 97 fe 44 f4 22 52 9d 29|    %,.e..D."R.)|              samples: 12966cb2cbff227a11294e94b37297e5... 0x105b3.7-0x1078d.1 (473.3)
0x105c0|66 e5 2f cb ff a7 d3 4e 94 d9 66 cb 97 2c b4 22|f./....N..f..,."|
*      |until 0x1078d.1 (474)                          |                |
0x10780|                                       40      |             @  |      byte_align: Correct (0x0) 0x1078d.2-0x1078d.7 (0.6)
0x10780|                                          aa 52|              .R|      footer_crc: Correct (aa52) 0x1078e-0x1078f.7 (2)
       |                                               |                |    [5]: frame {} (flac_frame) 0x10790-0x11bcb.7 (5180)
       |                                               |                |      header: {} 0x10790-0x10797.7 (8)
0x10790|ff f8                                          |..              |        sync: Correct (0x3ffe) 0x10790-0x10791.5 (1.6)
0x10790|   f8                                          | .              |        reserved0: Correct (0x0) 0x10791.6-0x10791.6 (0.1)
0x10790|   f8                                          | .              |        blocking_strategy: Fixed (0) 0x10791.7-0x10791.7 (0.1)
0x10790|      79                                       |  y             |        block_size: end of header (16 bit) (0) 0x10792-0x10792.3 (0.4)
0x10790|      79                                       |  y             |        sample_rate: 44100 0x10792.4-0x10792.7 (0.4)
0x10790|         1c                                    |   .            |        channel_assignment: left, right (2) 0x10793-0x10793.3 (0.4)
0x10790|         1c                                    |   .            |        sample_size: 24 0x10793.4-0x10793.6 (0.3)
0x10790|         1c                                    |   .            |        reserved1: Correct (0x0) 0x10793.7-0x10793.7 (0.1)
       |                                               |                |        end_of_header: {} 0x10794-0x10796.7 (3)
0x10790|            05                                 |    .           |          frame_number: 5 0x10794-0x10794.7 (1)
0x10790|               06 21                           |     .!         |          block_size: 1570 0x10795-0x10796.7 (2)
0x10790|                     07                        |       .        |        crc: Correct (07) 0x10797-0x10797.7 (1)
       |                                               |                |      subframes: [2] 0x10798-0x11bc9.1 (5169.2)
       |                                               |                |        [0]: subframe {} 0x10798-0x119fe.7 (4711)
0x10790|                        02                     |        .       |          zero_bit: Correct (0x0) 0x10798-0x10798 (0.1)
0x10790|                        02                     |        .       |          subframe_type: Verbatim (1) 0x10798.1-0x10798.6 (0.6)
       |                                               |                |          lpc_order: 0 0x10798.7-NA (0)
0x10790|                        02                     |        .       |          wasted_bits_flag: 0 0x10798.7-0x10798.7 (0.1)
       |                                               |                |          subframe_sample_size: 24 0x10799-NA (0)
0x10790|                           3e 6f eb 45 a2 72 73|         >o.E.rs|          samples: 3e6feb45a27273585f37f3928cda86a2... 0x10799-0x119fe.7 (4710)
0x107a0|58 5f 37 f3 92 8c da 86 a2 16 30 cd 38 ac 5a 8c|X_7.......0.8.Z.|
*      |until 0x119fe.7 (4710)                         |                |
       |                                               |                |        [1]: subframe {} 0x119ff-0x11bc9.1 (458.2)
0x119f0|                                             15|               .|          zero_bit: Correct (0x0) 0x119ff-0x119ff (0.1)
0x119f0|                                             15|               .|          subframe_type: Fixed (2) 0x119ff.1-0x119ff.6 (0.6)
       |                                               |                |          lpc_order: 2 0x119ff.7-NA (0)
0x119f0|                                             15|               .|          wasted_bits_flag: 1 0x119ff.7-0x119ff.7 (0.1)
0x11a00|01                                             |.               |          wasted_bits_k: 8 0x11a00-0x11a00.7 (1)
       |                                               |                |          subframe_sample_size: 16 0x11a01-NA (0)
       |                                               |                |          warmup_samples: [2] 0x11a01-0x11a04.7 (4)
0x11a00|   0f 8b                                       | ..             |            [0]: value 3979 0x11a01-0x11a02.7 (2)
0x11a00|         0f 88                                 |   ..           |            [1]: value 3976 0x11a03-0x11a04.7 (2)
0x11a00|               00                              |     .          |          residual_coding_method: rice (4) 0x11a05-0x11a05.1 (0.2)
0x11a00|               00                              |     .          |          partition_order: 0 0x11a05.2-0x11a05.5 (0.4)
       |                                               |                |          rice_partitions: 1 0x11a05.6-NA (0)
       |                                               |                |          partitions: [1] 0x11a05.6-0x11bc9.1 (451.4)
       |                                               |                |            [0]: partition {} 0x11a05.6-0x11bc9.1 (451.4)
0x11a00|               00 65                           |     .e         |              rice_parameter: 1 0x11a05.6-0x11a06.1 (0.4)
0x11a00|                  65 d5 55 5a ad 5a d6 b9 74 ba|      e.UZ.Z..t.|              samples: 9755556ab56b5ae5d2eaaaaad56ad5cb... 0x11a06.2-0x11bc9.1 (451)
0x11a10|aa aa b5 5a b5 72 e5 cb a9 75 6a aa d6 ab 5c ae|...Z.r...uj...\.|
*      |until 0x11bc9.1 (451)                          |                |
0x11bc0|                           80                  |         .      |      byte_align: Correct (0x0) 0x11bc9.2-0x11bc9.7 (0.6)
0x11bc0|                              fa 69|           |          .i|   |      footer_crc: Correct (fa69) 0x11bca-0x11bcb.7 (2)
       |                                               |                |  md5_calculated: bddd75b3c03e05528cc71f65a0774828 0x11bcc-NA (0)
       |                                               |                |  decoded_samples: 22050 0x11bcc-NA (0)
