# ffmpeg -f lavfi -i anoisesrc -t 10ms -ac 2 pkg/format/flac/testdata/test.flac
/test.flac:
> -f flac test.flac verbose
      |                                               |                |.: flac 0x0-0x2617+7 (9752)
0x0000|66 4c 61 43                                    |fLaC            |  magic: Correct ("fLaC") 0x0-0x3+7 (4)
      |                                               |                |  metadatablocks[3]: 0x4-0x205f+7 (8284)
      |                                               |                |   -[0]: flac_metadatablock (metadatablock) 0x4-0x29+7 (38)
0x0000|            00                                 |    .           |      last_block: false 0x4-0x4 (0+1)
0x0000|            00                                 |    .           |      type: Streaminfo (0) 0x4+1-0x4+7 (0+7)
0x0000|               00 00 22                        |     .."        |      length: 34 0x5-0x7+7 (3)
0x0000|                        12 00                  |        ..      |      minimum_block_size: 4608 0x8-0x9+7 (2)
0x0000|                              12 00            |          ..    |      maximum_block_size: 4608 0xa-0xb+7 (2)
0x0000|                                    00 05 b8   |            ... |      minimum_frame_size: 1464 0xc-0xe+7 (3)
0x0000|                                             00|               .|      maximum_frame_size: 1464 0xf-0x11+7 (3)
0x0010|05 b8                                          |..              |
0x0010|      0b b8 03                                 |  ...           |      sample_rate: 48000 0x12-0x14+3 (2+4)
0x0010|            03                                 |    .           |      channels: 2 0x14+4-0x14+6 (0+3)
0x0010|            03 70                              |    .p          |      bits_per_sample: 24 0x14+7-0x15+3 (0+5)
0x0010|               70 00 00 01 e0                  |     p....      |      total_samples_in_steam: 480 0x15+4-0x19+7 (4+4)
0x0010|                              1f aa 55 47 20 3c|          ..UG <|      md5: 1faa5547203c52df96986d3880a77f9b 0x1a-0x29+7 (16)
0x0020|52 df 96 98 6d 38 80 a7 7f 9b                  |R...m8....      |
      |                                               |                |   -[1]: flac_metadatablock (metadatablock) 0x2a-0x5b+7 (50)
0x0020|                              04               |          .     |      last_block: false 0x2a-0x2a (0+1)
0x0020|                              04               |          .     |      type: Vorbis comment (4) 0x2a+1-0x2a+7 (0+7)
0x0020|                                 00 00 2e      |           ...  |      length: 46 0x2b-0x2d+7 (3)
      |                                               |                |     -comment: vorbis_comment 0x2e-0x5b+7 (46)
0x0020|                                          0d 00|              ..|        vendor_length: 13 0x2e-0x31+7 (4)
0x0030|00 00                                          |..              |
0x0030|      4c 61 76 66 35 38 2e 34 35 2e 31 30 30   |  Lavf58.45.100 |        vendor: "Lavf58.45.100" 0x32-0x3e+7 (13)
0x0030|                                             01|               .|        user_comment_list_length: 1 0x3f-0x42+7 (4)
0x0040|00 00 00                                       |...             |
      |                                               |                |        user_comments[1]: 0x43-0x5b+7 (25)
      |                                               |                |         -[0]: (user_comment) 0x43-0x5b+7 (25)
0x0040|         15 00 00 00                           |   ....         |            length: 21 0x43-0x46+7 (4)
0x0040|                     65 6e 63 6f 64 65 72 3d 4c|       encoder=L|            vendor: "encoder=Lavf58.45.100" 0x47-0x5b+7 (21)
0x0050|61 76 66 35 38 2e 34 35 2e 31 30 30            |avf58.45.100    |
      |                                               |                |   -[2]: flac_metadatablock (metadatablock) 0x5c-0x205f+7 (8196)
0x0050|                                    81         |            .   |      last_block: true 0x5c-0x5c (0+1)
0x0050|                                    81         |            .   |      type: Padding (1) 0x5c+1-0x5c+7 (0+7)
0x0050|                                       00 20 00|             . .|      length: 8192 0x5d-0x5f+7 (3)
0x0060|00 00 00 00 00 00 00 00 00 00 00 00 00 00 00 00|................|      data: 00000000000000000000000000000000... 0x60-0x205f+7 (8192)
*     |8176 bytes more until 0x205f+7                 |                |
      |                                               |                |  frames[1]: 0x2060-0x2617+7 (1464)
      |                                               |                |   -[0]: flac_frame (frame) 0x2060-0x2617+7 (1464)
0x2060|ff f8                                          |..              |      sync: Correct (3ffe) 0x2060-0x2061+5 (1+6)
0x2060|   f8                                          | .              |      reserved0: Correct (0) 0x2061+6-0x2061+6 (0+1)
0x2060|   f8                                          | .              |      blocking_strategy: Fixed (0) 0x2061+7-0x2061+7 (0+1)
0x2060|      7a                                       |  z             |      block_size: end of header (16 bit) (0) 0x2062-0x2062+3 (0+4)
0x2060|      7a                                       |  z             |      sample_rate: 48000 0x2062+4-0x2062+7 (0+4)
0x2060|         8c                                    |   .            |      channel_assignment: left/side (2) 0x2063-0x2063+3 (0+4)
0x2060|         8c                                    |   .            |      sample_size: 24 0x2063+4-0x2063+6 (0+3)
0x2060|         8c                                    |   .            |      reserved1: Correct (0) 0x2063+7-0x2063+7 (0+1)
      |                                               |                |     -end_of_header: 0x2064-0x2066+7 (3)
0x2060|            00                                 |    .           |        frame_number: 0 0x2064-0x2064+7 (1)
0x2060|               01 df                           |     ..         |        block_size: 480 0x2065-0x2066+7 (2)
0x2060|                     a8                        |       .        |      crc: Correct (a8) 0x2067-0x2067+7 (1)
      |                                               |                |      subframes[2]: 0x2068-0x2615+5 (1453+6)
      |                                               |                |       -[0]: (subframe) 0x2068-0x2611+4 (1449+5)
0x2060|                        4c                     |        L       |          zero_bit: Correct (0) 0x2068-0x2068 (0+1)
0x2060|                        4c                     |        L       |          subframe_type: LPC (3) 0x2068+1-0x2068+6 (0+6)
      |                                               |                |          lpc_order: 7 0x2068+7-NA (0)
0x2060|                        4c                     |        L       |          wasted_bits_flag: 0 0x2068+7-0x2068+7 (0+1)
      |                                               |                |          subframe_sample_size: 24 0x2069-NA (0)
      |                                               |                |          warmup_samples[7]: 0x2069-0x207d+7 (21)
0x2060|                           1f bb 63            |         ..c    |            [0]: 2079587 (value) 0x2069-0x206b+7 (3)
0x2060|                                    0a 25 c9   |            .%. |            [1]: 665033 (value) 0x206c-0x206e+7 (3)
0x2060|                                             04|               .|            [2]: 319007 (value) 0x206f-0x2071+7 (3)
0x2070|de 1f                                          |..              |
0x2070|      04 0d a5                                 |  ...           |            [3]: 265637 (value) 0x2072-0x2074+7 (3)
0x2070|               b8 fa fa                        |     ...        |            [4]: -4654342 (value) 0x2075-0x2077+7 (3)
0x2070|                        1b 88 e2               |        ...     |            [5]: 1804514 (value) 0x2078-0x207a+7 (3)
0x2070|                                 36 cb 92      |           6..  |            [6]: 3591058 (value) 0x207b-0x207d+7 (3)
0x2070|                                          e7   |              . |          precision: 15 0x207e-0x207e+3 (0+4)
0x2070|                                          e7 8a|              ..|          shift: 15 0x207e+4-0x207f (0+5)
      |                                               |                |          coefficients[7]: 0x207f+1-0x208c+1 (13+1)
0x2070|                                             8a|               .|            [0]: 2603 (value) 0x207f+1-0x2080+7 (1+7)
0x2080|2b                                             |+               |
0x2080|   f7 df                                       | ..             |            [1]: -1041 (value) 0x2081-0x2082+6 (1+7)
0x2080|      df f6 40                                 |  ..@           |            [2]: -624 (value) 0x2082+7-0x2084+5 (1+7)
0x2080|            40 11 07                           |    @..         |            [3]: 544 (value) 0x2084+6-0x2086+4 (1+7)
0x2080|                  07 65 a0                     |      .e.       |            [4]: -2470 (value) 0x2086+5-0x2088+3 (1+7)
0x2080|                        a0 62 bb               |        .b.     |            [5]: 789 (value) 0x2088+4-0x208a+2 (1+7)
0x2080|                              bb f2 90         |          ...   |            [6]: -4150 (value) 0x208a+3-0x208c+1 (1+7)
0x2080|                                    90         |            .   |          residual_coding_method: rice2 (5) 0x208c+2-0x208c+3 (0+2)
0x2080|                                    90         |            .   |          partition_order: 0 0x208c+4-0x208c+7 (0+4)
      |                                               |                |          rice_partitions: 1 0x208d-NA (0)
      |                                               |                |          partitions[1]: 0x208d-0x2611+4 (1412+5)
      |                                               |                |           -[0]: (partition) 0x208d-0x2611+4 (1412+5)
0x2080|                                       b3      |             .  |              rice_parameter: 22 0x208d-0x208d+4 (0+5)
0x2080|                                       b3 52 21|             .R!|              samples: 6a4430351171b4d02a2871949099f939... 0x208d+5-0x2611+4 (1412)
0x2090|81 a8 8b 8d a6 81 51 43 8c a4 84 cf c9 cd 23 2d|......QC......#-|
*     |1394 bytes more until 0x2611+4                 |                |
      |                                               |                |       -[1]: (subframe) 0x2611+5-0x2615+5 (4+1)
0x2610|   80                                          | .              |          zero_bit: Correct (0) 0x2611+5-0x2611+5 (0+1)
0x2610|   80 00                                       | ..             |          subframe_type: Constant (0) 0x2611+6-0x2612+3 (0+6)
      |                                               |                |          lpc_order: 0 0x2612+4-NA (0)
0x2610|      00                                       |  .             |          wasted_bits_flag: 0 0x2612+4-0x2612+4 (0+1)
      |                                               |                |          subframe_sample_size: 25 0x2612+5-NA (0)
0x2610|      00 00 00 00                              |  ....          |          value: 0 0x2612+5-0x2615+5 (3+1)
0x2610|               00                              |     .          |      byte_align: Correct (0) 0x2615+6-0x2615+7 (0+2)
0x2610|                  c7 50|                       |      .P|       |      footer_crc: Correct (c750) 0x2616-0x2617+7 (2)
