# ffmpeg -f lavfi -i sine -t 50ms -c:a libopus opus.ogg
$ fq -d ogg dv opus.ogg
       |00 01 02 03 04 05 06 07 08 09 0a 0b 0c 0d 0e 0f|0123456789abcdef|.{}: opus.ogg (ogg) 0x0-0x3b1 (945)
       |                                               |                |  pages[0:3]: 0x0-0x3b1 (945)
       |00 01 02 03 04 05 06 07 08 09 0a 0b 0c 0d 0e 0f|0123456789abcdef|    [0]{}: page (ogg_page) 0x0-0x2f (47)
0x00000|4f 67 67 53                                    |OggS            |      capture_pattern: "OggS" (valid) 0x0-0x4 (4)
0x00000|            00                                 |    .           |      version: 0 (valid) 0x4-0x5 (1)
0x00000|               02                              |     .          |      unused_flags: 0 0x5-0x5.5 (0.5)
0x00000|               02                              |     .          |      last_page: false 0x5.5-0x5.6 (0.1)
0x00000|               02                              |     .          |      first_page: true 0x5.6-0x5.7 (0.1)
0x00000|               02                              |     .          |      continued_packet: false 0x5.7-0x6 (0.1)
0x00000|                  00 00 00 00 00 00 00 00      |      ........  |      granule_position: 0 0x6-0xe (8)
0x00000|                                          47 20|              G |      bitstream_serial_number: 1949835335 0xe-0x12 (4)
0x00010|38 74                                          |8t              |
0x00010|      00 00 00 00                              |  ....          |      page_sequence_no: 0 0x12-0x16 (4)
0x00010|                  f6 b1 cb 8b                  |      ....      |      crc: 0x8bcbb1f6 (valid) 0x16-0x1a (4)
0x00010|                              01               |          .     |      page_segments: 1 0x1a-0x1b (1)
       |                                               |                |      segment_table[0:1]: 0x1b-0x1c (1)
0x00010|                                 13            |           .    |        [0]: 19 segment_size 0x1b-0x1c (1)
       |                                               |                |      segments[0:1]: 0x1c-0x2f (19)
0x00010|                                    4f 70 75 73|            Opus|        [0]: raw bits segment 0x1c-0x2f (19)
0x00020|48 65 61 64 01 01 38 01 80 bb 00 00 00 00 00   |Head..8........ |
       |00 01 02 03 04 05 06 07 08 09 0a 0b 0c 0d 0e 0f|0123456789abcdef|    [1]{}: page (ogg_page) 0x2f-0x8a (91)
0x00020|                                             4f|               O|      capture_pattern: "OggS" (valid) 0x2f-0x33 (4)
0x00030|67 67 53                                       |ggS             |
0x00030|         00                                    |   .            |      version: 0 (valid) 0x33-0x34 (1)
0x00030|            00                                 |    .           |      unused_flags: 0 0x34-0x34.5 (0.5)
0x00030|            00                                 |    .           |      last_page: false 0x34.5-0x34.6 (0.1)
0x00030|            00                                 |    .           |      first_page: false 0x34.6-0x34.7 (0.1)
0x00030|            00                                 |    .           |      continued_packet: false 0x34.7-0x35 (0.1)
0x00030|               00 00 00 00 00 00 00 00         |     ........   |      granule_position: 0 0x35-0x3d (8)
0x00030|                                       47 20 38|             G 8|      bitstream_serial_number: 1949835335 0x3d-0x41 (4)
0x00040|74                                             |t               |
0x00040|   01 00 00 00                                 | ....           |      page_sequence_no: 1 0x41-0x45 (4)
0x00040|               97 6c ad c0                     |     .l..       |      crc: 0xc0ad6c97 (valid) 0x45-0x49 (4)
0x00040|                           01                  |         .      |      page_segments: 1 0x49-0x4a (1)
       |                                               |                |      segment_table[0:1]: 0x4a-0x4b (1)
0x00040|                              3f               |          ?     |        [0]: 63 segment_size 0x4a-0x4b (1)
       |                                               |                |      segments[0:1]: 0x4b-0x8a (63)
0x00040|                                 4f 70 75 73 54|           OpusT|        [0]: raw bits segment 0x4b-0x8a (63)
0x00050|61 67 73 0d 00 00 00 4c 61 76 66 35 38 2e 37 36|ags....Lavf58.76|
*      |until 0x89.7 (63)                              |                |
       |00 01 02 03 04 05 06 07 08 09 0a 0b 0c 0d 0e 0f|0123456789abcdef|    [2]{}: page (ogg_page) 0x8a-0x3b1 (807)
0x00080|                              4f 67 67 53      |          OggS  |      capture_pattern: "OggS" (valid) 0x8a-0x8e (4)
0x00080|                                          00   |              . |      version: 0 (valid) 0x8e-0x8f (1)
0x00080|                                             04|               .|      unused_flags: 0 0x8f-0x8f.5 (0.5)
0x00080|                                             04|               .|      last_page: true 0x8f.5-0x8f.6 (0.1)
0x00080|                                             04|               .|      first_page: false 0x8f.6-0x8f.7 (0.1)
0x00080|                                             04|               .|      continued_packet: false 0x8f.7-0x90 (0.1)
0x00090|98 0a 00 00 00 00 00 00                        |........        |      granule_position: 2712 0x90-0x98 (8)
0x00090|                        47 20 38 74            |        G 8t    |      bitstream_serial_number: 1949835335 0x98-0x9c (4)
0x00090|                                    02 00 00 00|            ....|      page_sequence_no: 2 0x9c-0xa0 (4)
0x000a0|e9 35 fc 5b                                    |.5.[            |      crc: 0x5bfc35e9 (valid) 0xa0-0xa4 (4)
0x000a0|            05                                 |    .           |      page_segments: 5 0xa4-0xa5 (1)
       |                                               |                |      segment_table[0:5]: 0xa5-0xaa (5)
0x000a0|               ff                              |     .          |        [0]: 255 segment_size 0xa5-0xa6 (1)
0x000a0|                  2d                           |      -         |        [1]: 45 segment_size 0xa6-0xa7 (1)
0x000a0|                     a0                        |       .        |        [2]: 160 segment_size 0xa7-0xa8 (1)
0x000a0|                        ff                     |        .       |        [3]: 255 segment_size 0xa8-0xa9 (1)
0x000a0|                           3c                  |         <      |        [4]: 60 segment_size 0xa9-0xaa (1)
       |                                               |                |      segments[0:5]: 0xaa-0x3b1 (775)
0x000a0|                              f8 b4 af ca aa e5|          ......|        [0]: raw bits segment 0xaa-0x1a9 (255)
0x000b0|b5 b0 a6 1c b1 7a e9 fe 3a d0 06 85 51 4c e9 29|.....z..:...QL.)|
*      |until 0x1a8.7 (255)                            |                |
0x001a0|                           01 76 27 bd cd 58 7f|         .v'..X.|        [1]: raw bits segment 0x1a9-0x1d6 (45)
0x001b0|c4 99 43 d2 c5 0e 2e 7c 37 cd 37 e0 94 5b 20 5b|..C....|7.7..[ [|
*      |until 0x1d5.7 (45)                             |                |
0x001d0|                  f8 b1 72 9a 6a 33 7d 6f 9d d8|      ..r.j3}o..|        [2]: raw bits segment 0x1d6-0x276 (160)
0x001e0|6d d7 fb c5 f3 d9 31 eb 29 39 95 09 9a de b2 79|m.....1.)9.....y|
*      |until 0x275.7 (160)                            |                |
0x00270|                  f8 b4 ef 60 f5 8c 7a 50 f2 b5|      ...`..zP..|        [3]: raw bits segment 0x276-0x375 (255)
0x00280|91 66 50 88 48 f2 6c 1d f3 e0 c6 20 5d b4 bf b8|.fP.H.l.... ]...|
*      |until 0x374.7 (255)                            |                |
0x00370|               c3 f9 91 7c d6 41 c9 4d 38 47 db|     ...|.A.M8G.|        [4]: raw bits segment 0x375-0x3b1 (60)
0x00380|0b dc 29 f9 5a 19 ec a3 53 f2 fe 3c a2 75 a2 72|..).Z...S..<.u.r|
*      |until 0x3b0.7 (end) (60)                       |                |
       |                                               |                |  streams[0:1]: 0x2f-0x2f (0)
       |                                               |                |    [0]{}: stream 0x2f-0x2f (0)
       |                                               |                |      serial_number: 1949835335
       |                                               |                |      packets[0:5]: 0x2f-0x2f (0)
       |00 01 02 03 04 05 06 07 08 09 0a 0b 0c 0d 0e 0f|0123456789abcdef|        [0]{}: packet (opus_packet) 0x0-0x13 (19)
       |                                               |                |          type: "head"
  0x000|4f 70 75 73 48 65 61 64                        |OpusHead        |          prefix: "OpusHead" 0x0-0x8 (8)
  0x000|                        01                     |        .       |          version: 1 0x8-0x9 (1)
  0x000|                           01                  |         .      |          channel_count: 1 0x9-0xa (1)
  0x000|                              38 01            |          8.    |          pre_skip: 312 0xa-0xc (2)
  0x000|                                    80 bb 00 00|            ....|          sample_rate: 48000 0xc-0x10 (4)
  0x001|00 00                                          |..              |          output_gain: 0 0x10-0x12 (2)
  0x001|      00|                                      |  .|            |          map_family: 0 0x12-0x13 (1)
       |00 01 02 03 04 05 06 07 08 09 0a 0b 0c 0d 0e 0f|0123456789abcdef|        [1]{}: packet (opus_packet) 0x0-0x3f (63)
       |                                               |                |          type: "tags"
  0x000|4f 70 75 73 54 61 67 73                        |OpusTags        |          prefix: "OpusTags" 0x0-0x8 (8)
       |00 01 02 03 04 05 06 07 08 09 0a 0b 0c 0d 0e 0f|0123456789abcdef|          comment{}: (vorbis_comment) 0x8-0x3f (55)
  0x000|                        0d 00 00 00            |        ....    |            vendor_length: 13 0x8-0xc (4)
  0x000|                                    4c 61 76 66|            Lavf|            vendor: "Lavf58.76.100" 0xc-0x19 (13)
  0x001|35 38 2e 37 36 2e 31 30 30                     |58.76.100       |
  0x001|                           01 00 00 00         |         ....   |            user_comment_list_length: 1 0x19-0x1d (4)
       |                                               |                |            user_comments[0:1]: 0x1d-0x3f (34)
       |                                               |                |              [0]{}: user_comment 0x1d-0x3f (34)
  0x001|                                       1e 00 00|             ...|                length: 30 0x1d-0x21 (4)
  0x002|00                                             |.               |
  0x002|   65 6e 63 6f 64 65 72 3d 4c 61 76 63 35 38 2e| encoder=Lavc58.|                comment: "encoder=Lavc58.134.100 libopus" 0x21-0x3f (30)
  0x003|31 33 34 2e 31 30 30 20 6c 69 62 6f 70 75 73|  |134.100 libopus||
       |00 01 02 03 04 05 06 07 08 09 0a 0b 0c 0d 0e 0f|0123456789abcdef|        [2]{}: packet (opus_packet) 0x0-0x12c (300)
       |                                               |                |          type: "audio"
       |                                               |                |          toc{}: 0x0-0x12c (300)
       |                                               |                |            config{}: 0x0-0x0.5 (0.5)
  0x000|f8                                             |.               |              config: 31 0x0-0x0.5 (0.5)
       |                                               |                |              mode: "celt_only"
       |                                               |                |              bandwidth: "fb"
       |                                               |                |              frame_size: 20
  0x000|f8                                             |.               |            stereo: false 0x0.5-0x0.6 (0.1)
       |                                               |                |            frames_per_packet{}: 0x0.6-0x1 (0.2)
  0x000|f8                                             |.               |              config: 0 0x0.6-0x1 (0.2)
       |                                               |                |              frames: 1
       |                                               |                |              mode: "1 frame"
  0x000|   b4 af ca aa e5 b5 b0 a6 1c b1 7a e9 fe 3a d0| ..........z..:.|            data: raw bits 0x1-0x12c (299)
  0x001|06 85 51 4c e9 29 01 cf 97 74 f4 80 4d 5b 0b 4a|..QL.)...t..M[.J|
  *    |until 0x12b.7 (end) (299)                      |                |
       |00 01 02 03 04 05 06 07 08 09 0a 0b 0c 0d 0e 0f|0123456789abcdef|        [3]{}: packet (opus_packet) 0x0-0xa0 (160)
       |                                               |                |          type: "audio"
       |                                               |                |          toc{}: 0x0-0xa0 (160)
       |                                               |                |            config{}: 0x0-0x0.5 (0.5)
  0x000|f8                                             |.               |              config: 31 0x0-0x0.5 (0.5)
       |                                               |                |              mode: "celt_only"
       |                                               |                |              bandwidth: "fb"
       |                                               |                |              frame_size: 20
  0x000|f8                                             |.               |            stereo: false 0x0.5-0x0.6 (0.1)
       |                                               |                |            frames_per_packet{}: 0x0.6-0x1 (0.2)
  0x000|f8                                             |.               |              config: 0 0x0.6-0x1 (0.2)
       |                                               |                |              frames: 1
       |                                               |                |              mode: "1 frame"
  0x000|   b1 72 9a 6a 33 7d 6f 9d d8 6d d7 fb c5 f3 d9| .r.j3}o..m.....|            data: raw bits 0x1-0xa0 (159)
  0x001|31 eb 29 39 95 09 9a de b2 79 ef 2b 26 f1 ed fa|1.)9.....y.+&...|
  *    |until 0x9f.7 (end) (159)                       |                |
       |00 01 02 03 04 05 06 07 08 09 0a 0b 0c 0d 0e 0f|0123456789abcdef|        [4]{}: packet (opus_packet) 0x0-0x13b (315)
       |                                               |                |          type: "audio"
       |                                               |                |          toc{}: 0x0-0x13b (315)
       |                                               |                |            config{}: 0x0-0x0.5 (0.5)
  0x000|f8                                             |.               |              config: 31 0x0-0x0.5 (0.5)
       |                                               |                |              mode: "celt_only"
       |                                               |                |              bandwidth: "fb"
       |                                               |                |              frame_size: 20
  0x000|f8                                             |.               |            stereo: false 0x0.5-0x0.6 (0.1)
       |                                               |                |            frames_per_packet{}: 0x0.6-0x1 (0.2)
  0x000|f8                                             |.               |              config: 0 0x0.6-0x1 (0.2)
       |                                               |                |              frames: 1
       |                                               |                |              mode: "1 frame"
  0x000|   b4 ef 60 f5 8c 7a 50 f2 b5 91 66 50 88 48 f2| ..`..zP...fP.H.|            data: raw bits 0x1-0x13b (314)
  0x001|6c 1d f3 e0 c6 20 5d b4 bf b8 28 54 9a c2 be 26|l.... ]...(T...&|
  *    |until 0x13a.7 (end) (314)                      |                |
