# fq -n '[(0,1,4,8,16,17) as $s | [range($s) as $k | {key: ($k | tostring), value: "a"}] | from_entries]' | json2msgpack > objects.msgpack
$ fq -d msgpack 'dv,torepr' objects.msgpack
    |00 01 02 03 04 05 06 07 08 09 0a 0b 0c 0d 0e 0f|0123456789abcdef|.{}: objects.msgpack (msgpack) 0x0-0xd0 (208)
0x00|96                                             |.               |  type: "fixarray" (0x96) 0x0-0x1 (1)
0x00|96                                             |.               |  length: 6 0x0.4-0x1 (0.4)
    |                                               |                |  elements[0:6]: 0x1-0xd0 (207)
    |                                               |                |    [0]{}: element 0x1-0x2 (1)
0x00|   80                                          | .              |      type: "fixmap" (0x80) 0x1-0x2 (1)
0x00|   80                                          | .              |      length: 0 0x1.4-0x2 (0.4)
    |                                               |                |      pairs[0:0]: 0x2-0x2 (0)
    |                                               |                |    [1]{}: element 0x2-0x7 (5)
0x00|      81                                       |  .             |      type: "fixmap" (0x81) 0x2-0x3 (1)
0x00|      81                                       |  .             |      length: 1 0x2.4-0x3 (0.4)
    |                                               |                |      pairs[0:1]: 0x3-0x7 (4)
    |                                               |                |        [0]{}: pair 0x3-0x7 (4)
    |                                               |                |          key{}: 0x3-0x5 (2)
0x00|         a1                                    |   .            |            type: "fixstr" (0xa1) 0x3-0x4 (1)
0x00|         a1                                    |   .            |            length: 1 0x3.3-0x4 (0.5)
0x00|            30                                 |    0           |            value: "0" 0x4-0x5 (1)
    |                                               |                |          value{}: 0x5-0x7 (2)
0x00|               a1                              |     .          |            type: "fixstr" (0xa1) 0x5-0x6 (1)
0x00|               a1                              |     .          |            length: 1 0x5.3-0x6 (0.5)
0x00|                  61                           |      a         |            value: "a" 0x6-0x7 (1)
    |                                               |                |    [2]{}: element 0x7-0x18 (17)
0x00|                     84                        |       .        |      type: "fixmap" (0x84) 0x7-0x8 (1)
0x00|                     84                        |       .        |      length: 4 0x7.4-0x8 (0.4)
    |                                               |                |      pairs[0:4]: 0x8-0x18 (16)
    |                                               |                |        [0]{}: pair 0x8-0xc (4)
    |                                               |                |          key{}: 0x8-0xa (2)
0x00|                        a1                     |        .       |            type: "fixstr" (0xa1) 0x8-0x9 (1)
0x00|                        a1                     |        .       |            length: 1 0x8.3-0x9 (0.5)
0x00|                           30                  |         0      |            value: "0" 0x9-0xa (1)
    |                                               |                |          value{}: 0xa-0xc (2)
0x00|                              a1               |          .     |            type: "fixstr" (0xa1) 0xa-0xb (1)
0x00|                              a1               |          .     |            length: 1 0xa.3-0xb (0.5)
0x00|                                 61            |           a    |            value: "a" 0xb-0xc (1)
    |                                               |                |        [1]{}: pair 0xc-0x10 (4)
    |                                               |                |          key{}: 0xc-0xe (2)
0x00|                                    a1         |            .   |            type: "fixstr" (0xa1) 0xc-0xd (1)
0x00|                                    a1         |            .   |            length: 1 0xc.3-0xd (0.5)
0x00|                                       31      |             1  |            value: "1" 0xd-0xe (1)
    |                                               |                |          value{}: 0xe-0x10 (2)
0x00|                                          a1   |              . |            type: "fixstr" (0xa1) 0xe-0xf (1)
0x00|                                          a1   |              . |            length: 1 0xe.3-0xf (0.5)
0x00|                                             61|               a|            value: "a" 0xf-0x10 (1)
    |                                               |                |        [2]{}: pair 0x10-0x14 (4)
    |                                               |                |          key{}: 0x10-0x12 (2)
0x10|a1                                             |.               |            type: "fixstr" (0xa1) 0x10-0x11 (1)
0x10|a1                                             |.               |            length: 1 0x10.3-0x11 (0.5)
0x10|   32                                          | 2              |            value: "2" 0x11-0x12 (1)
    |                                               |                |          value{}: 0x12-0x14 (2)
0x10|      a1                                       |  .             |            type: "fixstr" (0xa1) 0x12-0x13 (1)
0x10|      a1                                       |  .             |            length: 1 0x12.3-0x13 (0.5)
0x10|         61                                    |   a            |            value: "a" 0x13-0x14 (1)
    |                                               |                |        [3]{}: pair 0x14-0x18 (4)
    |                                               |                |          key{}: 0x14-0x16 (2)
0x10|            a1                                 |    .           |            type: "fixstr" (0xa1) 0x14-0x15 (1)
0x10|            a1                                 |    .           |            length: 1 0x14.3-0x15 (0.5)
0x10|               33                              |     3          |            value: "3" 0x15-0x16 (1)
    |                                               |                |          value{}: 0x16-0x18 (2)
0x10|                  a1                           |      .         |            type: "fixstr" (0xa1) 0x16-0x17 (1)
0x10|                  a1                           |      .         |            length: 1 0x16.3-0x17 (0.5)
0x10|                     61                        |       a        |            value: "a" 0x17-0x18 (1)
    |                                               |                |    [3]{}: element 0x18-0x39 (33)
0x10|                        88                     |        .       |      type: "fixmap" (0x88) 0x18-0x19 (1)
0x10|                        88                     |        .       |      length: 8 0x18.4-0x19 (0.4)
    |                                               |                |      pairs[0:8]: 0x19-0x39 (32)
    |                                               |                |        [0]{}: pair 0x19-0x1d (4)
    |                                               |                |          key{}: 0x19-0x1b (2)
0x10|                           a1                  |         .      |            type: "fixstr" (0xa1) 0x19-0x1a (1)
0x10|                           a1                  |         .      |            length: 1 0x19.3-0x1a (0.5)
0x10|                              30               |          0     |            value: "0" 0x1a-0x1b (1)
    |                                               |                |          value{}: 0x1b-0x1d (2)
0x10|                                 a1            |           .    |            type: "fixstr" (0xa1) 0x1b-0x1c (1)
0x10|                                 a1            |           .    |            length: 1 0x1b.3-0x1c (0.5)
0x10|                                    61         |            a   |            value: "a" 0x1c-0x1d (1)
    |                                               |                |        [1]{}: pair 0x1d-0x21 (4)
    |                                               |                |          key{}: 0x1d-0x1f (2)
0x10|                                       a1      |             .  |            type: "fixstr" (0xa1) 0x1d-0x1e (1)
0x10|                                       a1      |             .  |            length: 1 0x1d.3-0x1e (0.5)
0x10|                                          31   |              1 |            value: "1" 0x1e-0x1f (1)
    |                                               |                |          value{}: 0x1f-0x21 (2)
0x10|                                             a1|               .|            type: "fixstr" (0xa1) 0x1f-0x20 (1)
0x10|                                             a1|               .|            length: 1 0x1f.3-0x20 (0.5)
0x20|61                                             |a               |            value: "a" 0x20-0x21 (1)
    |                                               |                |        [2]{}: pair 0x21-0x25 (4)
    |                                               |                |          key{}: 0x21-0x23 (2)
0x20|   a1                                          | .              |            type: "fixstr" (0xa1) 0x21-0x22 (1)
0x20|   a1                                          | .              |            length: 1 0x21.3-0x22 (0.5)
0x20|      32                                       |  2             |            value: "2" 0x22-0x23 (1)
    |                                               |                |          value{}: 0x23-0x25 (2)
0x20|         a1                                    |   .            |            type: "fixstr" (0xa1) 0x23-0x24 (1)
0x20|         a1                                    |   .            |            length: 1 0x23.3-0x24 (0.5)
0x20|            61                                 |    a           |            value: "a" 0x24-0x25 (1)
    |                                               |                |        [3]{}: pair 0x25-0x29 (4)
    |                                               |                |          key{}: 0x25-0x27 (2)
0x20|               a1                              |     .          |            type: "fixstr" (0xa1) 0x25-0x26 (1)
0x20|               a1                              |     .          |            length: 1 0x25.3-0x26 (0.5)
0x20|                  33                           |      3         |            value: "3" 0x26-0x27 (1)
    |                                               |                |          value{}: 0x27-0x29 (2)
0x20|                     a1                        |       .        |            type: "fixstr" (0xa1) 0x27-0x28 (1)
0x20|                     a1                        |       .        |            length: 1 0x27.3-0x28 (0.5)
0x20|                        61                     |        a       |            value: "a" 0x28-0x29 (1)
    |                                               |                |        [4]{}: pair 0x29-0x2d (4)
    |                                               |                |          key{}: 0x29-0x2b (2)
0x20|                           a1                  |         .      |            type: "fixstr" (0xa1) 0x29-0x2a (1)
0x20|                           a1                  |         .      |            length: 1 0x29.3-0x2a (0.5)
0x20|                              34               |          4     |            value: "4" 0x2a-0x2b (1)
    |                                               |                |          value{}: 0x2b-0x2d (2)
0x20|                                 a1            |           .    |            type: "fixstr" (0xa1) 0x2b-0x2c (1)
0x20|                                 a1            |           .    |            length: 1 0x2b.3-0x2c (0.5)
0x20|                                    61         |            a   |            value: "a" 0x2c-0x2d (1)
    |                                               |                |        [5]{}: pair 0x2d-0x31 (4)
    |                                               |                |          key{}: 0x2d-0x2f (2)
0x20|                                       a1      |             .  |            type: "fixstr" (0xa1) 0x2d-0x2e (1)
0x20|                                       a1      |             .  |            length: 1 0x2d.3-0x2e (0.5)
0x20|                                          35   |              5 |            value: "5" 0x2e-0x2f (1)
    |                                               |                |          value{}: 0x2f-0x31 (2)
0x20|                                             a1|               .|            type: "fixstr" (0xa1) 0x2f-0x30 (1)
0x20|                                             a1|               .|            length: 1 0x2f.3-0x30 (0.5)
0x30|61                                             |a               |            value: "a" 0x30-0x31 (1)
    |                                               |                |        [6]{}: pair 0x31-0x35 (4)
    |                                               |                |          key{}: 0x31-0x33 (2)
0x30|   a1                                          | .              |            type: "fixstr" (0xa1) 0x31-0x32 (1)
0x30|   a1                                          | .              |            length: 1 0x31.3-0x32 (0.5)
0x30|      36                                       |  6             |            value: "6" 0x32-0x33 (1)
    |                                               |                |          value{}: 0x33-0x35 (2)
0x30|         a1                                    |   .            |            type: "fixstr" (0xa1) 0x33-0x34 (1)
0x30|         a1                                    |   .            |            length: 1 0x33.3-0x34 (0.5)
0x30|            61                                 |    a           |            value: "a" 0x34-0x35 (1)
    |                                               |                |        [7]{}: pair 0x35-0x39 (4)
    |                                               |                |          key{}: 0x35-0x37 (2)
0x30|               a1                              |     .          |            type: "fixstr" (0xa1) 0x35-0x36 (1)
0x30|               a1                              |     .          |            length: 1 0x35.3-0x36 (0.5)
0x30|                  37                           |      7         |            value: "7" 0x36-0x37 (1)
    |                                               |                |          value{}: 0x37-0x39 (2)
0x30|                     a1                        |       .        |            type: "fixstr" (0xa1) 0x37-0x38 (1)
0x30|                     a1                        |       .        |            length: 1 0x37.3-0x38 (0.5)
0x30|                        61                     |        a       |            value: "a" 0x38-0x39 (1)
    |                                               |                |    [4]{}: element 0x39-0x82 (73)
0x30|                           de                  |         .      |      type: "map16" (0xde) 0x39-0x3a (1)
0x30|                              00 10            |          ..    |      length: 16 0x3a-0x3c (2)
    |                                               |                |      pairs[0:16]: 0x3c-0x82 (70)
    |                                               |                |        [0]{}: pair 0x3c-0x40 (4)
    |                                               |                |          key{}: 0x3c-0x3e (2)
0x30|                                    a1         |            .   |            type: "fixstr" (0xa1) 0x3c-0x3d (1)
0x30|                                    a1         |            .   |            length: 1 0x3c.3-0x3d (0.5)
0x30|                                       30      |             0  |            value: "0" 0x3d-0x3e (1)
    |                                               |                |          value{}: 0x3e-0x40 (2)
0x30|                                          a1   |              . |            type: "fixstr" (0xa1) 0x3e-0x3f (1)
0x30|                                          a1   |              . |            length: 1 0x3e.3-0x3f (0.5)
0x30|                                             61|               a|            value: "a" 0x3f-0x40 (1)
    |                                               |                |        [1]{}: pair 0x40-0x44 (4)
    |                                               |                |          key{}: 0x40-0x42 (2)
0x40|a1                                             |.               |            type: "fixstr" (0xa1) 0x40-0x41 (1)
0x40|a1                                             |.               |            length: 1 0x40.3-0x41 (0.5)
0x40|   31                                          | 1              |            value: "1" 0x41-0x42 (1)
    |                                               |                |          value{}: 0x42-0x44 (2)
0x40|      a1                                       |  .             |            type: "fixstr" (0xa1) 0x42-0x43 (1)
0x40|      a1                                       |  .             |            length: 1 0x42.3-0x43 (0.5)
0x40|         61                                    |   a            |            value: "a" 0x43-0x44 (1)
    |                                               |                |        [2]{}: pair 0x44-0x49 (5)
    |                                               |                |          key{}: 0x44-0x47 (3)
0x40|            a2                                 |    .           |            type: "fixstr" (0xa2) 0x44-0x45 (1)
0x40|            a2                                 |    .           |            length: 2 0x44.3-0x45 (0.5)
0x40|               31 30                           |     10         |            value: "10" 0x45-0x47 (2)
    |                                               |                |          value{}: 0x47-0x49 (2)
0x40|                     a1                        |       .        |            type: "fixstr" (0xa1) 0x47-0x48 (1)
0x40|                     a1                        |       .        |            length: 1 0x47.3-0x48 (0.5)
0x40|                        61                     |        a       |            value: "a" 0x48-0x49 (1)
    |                                               |                |        [3]{}: pair 0x49-0x4e (5)
    |                                               |                |          key{}: 0x49-0x4c (3)
0x40|                           a2                  |         .      |            type: "fixstr" (0xa2) 0x49-0x4a (1)
0x40|                           a2                  |         .      |            length: 2 0x49.3-0x4a (0.5)
0x40|                              31 31            |          11    |            value: "11" 0x4a-0x4c (2)
    |                                               |                |          value{}: 0x4c-0x4e (2)
0x40|                                    a1         |            .   |            type: "fixstr" (0xa1) 0x4c-0x4d (1)
0x40|                                    a1         |            .   |            length: 1 0x4c.3-0x4d (0.5)
0x40|                                       61      |             a  |            value: "a" 0x4d-0x4e (1)
    |                                               |                |        [4]{}: pair 0x4e-0x53 (5)
    |                                               |                |          key{}: 0x4e-0x51 (3)
0x40|                                          a2   |              . |            type: "fixstr" (0xa2) 0x4e-0x4f (1)
0x40|                                          a2   |              . |            length: 2 0x4e.3-0x4f (0.5)
0x40|                                             31|               1|            value: "12" 0x4f-0x51 (2)
0x50|32                                             |2               |
    |                                               |                |          value{}: 0x51-0x53 (2)
0x50|   a1                                          | .              |            type: "fixstr" (0xa1) 0x51-0x52 (1)
0x50|   a1                                          | .              |            length: 1 0x51.3-0x52 (0.5)
0x50|      61                                       |  a             |            value: "a" 0x52-0x53 (1)
    |                                               |                |        [5]{}: pair 0x53-0x58 (5)
    |                                               |                |          key{}: 0x53-0x56 (3)
0x50|         a2                                    |   .            |            type: "fixstr" (0xa2) 0x53-0x54 (1)
0x50|         a2                                    |   .            |            length: 2 0x53.3-0x54 (0.5)
0x50|            31 33                              |    13          |            value: "13" 0x54-0x56 (2)
    |                                               |                |          value{}: 0x56-0x58 (2)
0x50|                  a1                           |      .         |            type: "fixstr" (0xa1) 0x56-0x57 (1)
0x50|                  a1                           |      .         |            length: 1 0x56.3-0x57 (0.5)
0x50|                     61                        |       a        |            value: "a" 0x57-0x58 (1)
    |                                               |                |        [6]{}: pair 0x58-0x5d (5)
    |                                               |                |          key{}: 0x58-0x5b (3)
0x50|                        a2                     |        .       |            type: "fixstr" (0xa2) 0x58-0x59 (1)
0x50|                        a2                     |        .       |            length: 2 0x58.3-0x59 (0.5)
0x50|                           31 34               |         14     |            value: "14" 0x59-0x5b (2)
    |                                               |                |          value{}: 0x5b-0x5d (2)
0x50|                                 a1            |           .    |            type: "fixstr" (0xa1) 0x5b-0x5c (1)
0x50|                                 a1            |           .    |            length: 1 0x5b.3-0x5c (0.5)
0x50|                                    61         |            a   |            value: "a" 0x5c-0x5d (1)
    |                                               |                |        [7]{}: pair 0x5d-0x62 (5)
    |                                               |                |          key{}: 0x5d-0x60 (3)
0x50|                                       a2      |             .  |            type: "fixstr" (0xa2) 0x5d-0x5e (1)
0x50|                                       a2      |             .  |            length: 2 0x5d.3-0x5e (0.5)
0x50|                                          31 35|              15|            value: "15" 0x5e-0x60 (2)
    |                                               |                |          value{}: 0x60-0x62 (2)
0x60|a1                                             |.               |            type: "fixstr" (0xa1) 0x60-0x61 (1)
0x60|a1                                             |.               |            length: 1 0x60.3-0x61 (0.5)
0x60|   61                                          | a              |            value: "a" 0x61-0x62 (1)
    |                                               |                |        [8]{}: pair 0x62-0x66 (4)
    |                                               |                |          key{}: 0x62-0x64 (2)
0x60|      a1                                       |  .             |            type: "fixstr" (0xa1) 0x62-0x63 (1)
0x60|      a1                                       |  .             |            length: 1 0x62.3-0x63 (0.5)
0x60|         32                                    |   2            |            value: "2" 0x63-0x64 (1)
    |                                               |                |          value{}: 0x64-0x66 (2)
0x60|            a1                                 |    .           |            type: "fixstr" (0xa1) 0x64-0x65 (1)
0x60|            a1                                 |    .           |            length: 1 0x64.3-0x65 (0.5)
0x60|               61                              |     a          |            value: "a" 0x65-0x66 (1)
    |                                               |                |        [9]{}: pair 0x66-0x6a (4)
    |                                               |                |          key{}: 0x66-0x68 (2)
0x60|                  a1                           |      .         |            type: "fixstr" (0xa1) 0x66-0x67 (1)
0x60|                  a1                           |      .         |            length: 1 0x66.3-0x67 (0.5)
0x60|                     33                        |       3        |            value: "3" 0x67-0x68 (1)
    |                                               |                |          value{}: 0x68-0x6a (2)
0x60|                        a1                     |        .       |            type: "fixstr" (0xa1) 0x68-0x69 (1)
0x60|                        a1                     |        .       |            length: 1 0x68.3-0x69 (0.5)
0x60|                           61                  |         a      |            value: "a" 0x69-0x6a (1)
    |                                               |                |        [10]{}: pair 0x6a-0x6e (4)
    |                                               |                |          key{}: 0x6a-0x6c (2)
0x60|                              a1               |          .     |            type: "fixstr" (0xa1) 0x6a-0x6b (1)
0x60|                              a1               |          .     |            length: 1 0x6a.3-0x6b (0.5)
0x60|                                 34            |           4    |            value: "4" 0x6b-0x6c (1)
    |                                               |                |          value{}: 0x6c-0x6e (2)
0x60|                                    a1         |            .   |            type: "fixstr" (0xa1) 0x6c-0x6d (1)
0x60|                                    a1         |            .   |            length: 1 0x6c.3-0x6d (0.5)
0x60|                                       61      |             a  |            value: "a" 0x6d-0x6e (1)
    |                                               |                |        [11]{}: pair 0x6e-0x72 (4)
    |                                               |                |          key{}: 0x6e-0x70 (2)
0x60|                                          a1   |              . |            type: "fixstr" (0xa1) 0x6e-0x6f (1)
0x60|                                          a1   |              . |            length: 1 0x6e.3-0x6f (0.5)
0x60|                                             35|               5|            value: "5" 0x6f-0x70 (1)
    |                                               |                |          value{}: 0x70-0x72 (2)
0x70|a1                                             |.               |            type: "fixstr" (0xa1) 0x70-0x71 (1)
0x70|a1                                             |.               |            length: 1 0x70.3-0x71 (0.5)
0x70|   61                                          | a              |            value: "a" 0x71-0x72 (1)
    |                                               |                |        [12]{}: pair 0x72-0x76 (4)
    |                                               |                |          key{}: 0x72-0x74 (2)
0x70|      a1                                       |  .             |            type: "fixstr" (0xa1) 0x72-0x73 (1)
0x70|      a1                                       |  .             |            length: 1 0x72.3-0x73 (0.5)
0x70|         36                                    |   6            |            value: "6" 0x73-0x74 (1)
    |                                               |                |          value{}: 0x74-0x76 (2)
0x70|            a1                                 |    .           |            type: "fixstr" (0xa1) 0x74-0x75 (1)
0x70|            a1                                 |    .           |            length: 1 0x74.3-0x75 (0.5)
0x70|               61                              |     a          |            value: "a" 0x75-0x76 (1)
    |                                               |                |        [13]{}: pair 0x76-0x7a (4)
    |                                               |                |          key{}: 0x76-0x78 (2)
0x70|                  a1                           |      .         |            type: "fixstr" (0xa1) 0x76-0x77 (1)
0x70|                  a1                           |      .         |            length: 1 0x76.3-0x77 (0.5)
0x70|                     37                        |       7        |            value: "7" 0x77-0x78 (1)
    |                                               |                |          value{}: 0x78-0x7a (2)
0x70|                        a1                     |        .       |            type: "fixstr" (0xa1) 0x78-0x79 (1)
0x70|                        a1                     |        .       |            length: 1 0x78.3-0x79 (0.5)
0x70|                           61                  |         a      |            value: "a" 0x79-0x7a (1)
    |                                               |                |        [14]{}: pair 0x7a-0x7e (4)
    |                                               |                |          key{}: 0x7a-0x7c (2)
0x70|                              a1               |          .     |            type: "fixstr" (0xa1) 0x7a-0x7b (1)
0x70|                              a1               |          .     |            length: 1 0x7a.3-0x7b (0.5)
0x70|                                 38            |           8    |            value: "8" 0x7b-0x7c (1)
    |                                               |                |          value{}: 0x7c-0x7e (2)
0x70|                                    a1         |            .   |            type: "fixstr" (0xa1) 0x7c-0x7d (1)
0x70|                                    a1         |            .   |            length: 1 0x7c.3-0x7d (0.5)
0x70|                                       61      |             a  |            value: "a" 0x7d-0x7e (1)
    |                                               |                |        [15]{}: pair 0x7e-0x82 (4)
    |                                               |                |          key{}: 0x7e-0x80 (2)
0x70|                                          a1   |              . |            type: "fixstr" (0xa1) 0x7e-0x7f (1)
0x70|                                          a1   |              . |            length: 1 0x7e.3-0x7f (0.5)
0x70|                                             39|               9|            value: "9" 0x7f-0x80 (1)
    |                                               |                |          value{}: 0x80-0x82 (2)
0x80|a1                                             |.               |            type: "fixstr" (0xa1) 0x80-0x81 (1)
0x80|a1                                             |.               |            length: 1 0x80.3-0x81 (0.5)
0x80|   61                                          | a              |            value: "a" 0x81-0x82 (1)
    |                                               |                |    [5]{}: element 0x82-0xd0 (78)
0x80|      de                                       |  .             |      type: "map16" (0xde) 0x82-0x83 (1)
0x80|         00 11                                 |   ..           |      length: 17 0x83-0x85 (2)
    |                                               |                |      pairs[0:17]: 0x85-0xd0 (75)
    |                                               |                |        [0]{}: pair 0x85-0x89 (4)
    |                                               |                |          key{}: 0x85-0x87 (2)
0x80|               a1                              |     .          |            type: "fixstr" (0xa1) 0x85-0x86 (1)
0x80|               a1                              |     .          |            length: 1 0x85.3-0x86 (0.5)
0x80|                  30                           |      0         |            value: "0" 0x86-0x87 (1)
    |                                               |                |          value{}: 0x87-0x89 (2)
0x80|                     a1                        |       .        |            type: "fixstr" (0xa1) 0x87-0x88 (1)
0x80|                     a1                        |       .        |            length: 1 0x87.3-0x88 (0.5)
0x80|                        61                     |        a       |            value: "a" 0x88-0x89 (1)
    |                                               |                |        [1]{}: pair 0x89-0x8d (4)
    |                                               |                |          key{}: 0x89-0x8b (2)
0x80|                           a1                  |         .      |            type: "fixstr" (0xa1) 0x89-0x8a (1)
0x80|                           a1                  |         .      |            length: 1 0x89.3-0x8a (0.5)
0x80|                              31               |          1     |            value: "1" 0x8a-0x8b (1)
    |                                               |                |          value{}: 0x8b-0x8d (2)
0x80|                                 a1            |           .    |            type: "fixstr" (0xa1) 0x8b-0x8c (1)
0x80|                                 a1            |           .    |            length: 1 0x8b.3-0x8c (0.5)
0x80|                                    61         |            a   |            value: "a" 0x8c-0x8d (1)
    |                                               |                |        [2]{}: pair 0x8d-0x92 (5)
    |                                               |                |          key{}: 0x8d-0x90 (3)
0x80|                                       a2      |             .  |            type: "fixstr" (0xa2) 0x8d-0x8e (1)
0x80|                                       a2      |             .  |            length: 2 0x8d.3-0x8e (0.5)
0x80|                                          31 30|              10|            value: "10" 0x8e-0x90 (2)
    |                                               |                |          value{}: 0x90-0x92 (2)
0x90|a1                                             |.               |            type: "fixstr" (0xa1) 0x90-0x91 (1)
0x90|a1                                             |.               |            length: 1 0x90.3-0x91 (0.5)
0x90|   61                                          | a              |            value: "a" 0x91-0x92 (1)
    |                                               |                |        [3]{}: pair 0x92-0x97 (5)
    |                                               |                |          key{}: 0x92-0x95 (3)
0x90|      a2                                       |  .             |            type: "fixstr" (0xa2) 0x92-0x93 (1)
0x90|      a2                                       |  .             |            length: 2 0x92.3-0x93 (0.5)
0x90|         31 31                                 |   11           |            value: "11" 0x93-0x95 (2)
    |                                               |                |          value{}: 0x95-0x97 (2)
0x90|               a1                              |     .          |            type: "fixstr" (0xa1) 0x95-0x96 (1)
0x90|               a1                              |     .          |            length: 1 0x95.3-0x96 (0.5)
0x90|                  61                           |      a         |            value: "a" 0x96-0x97 (1)
    |                                               |                |        [4]{}: pair 0x97-0x9c (5)
    |                                               |                |          key{}: 0x97-0x9a (3)
0x90|                     a2                        |       .        |            type: "fixstr" (0xa2) 0x97-0x98 (1)
0x90|                     a2                        |       .        |            length: 2 0x97.3-0x98 (0.5)
0x90|                        31 32                  |        12      |            value: "12" 0x98-0x9a (2)
    |                                               |                |          value{}: 0x9a-0x9c (2)
0x90|                              a1               |          .     |            type: "fixstr" (0xa1) 0x9a-0x9b (1)
0x90|                              a1               |          .     |            length: 1 0x9a.3-0x9b (0.5)
0x90|                                 61            |           a    |            value: "a" 0x9b-0x9c (1)
    |                                               |                |        [5]{}: pair 0x9c-0xa1 (5)
    |                                               |                |          key{}: 0x9c-0x9f (3)
0x90|                                    a2         |            .   |            type: "fixstr" (0xa2) 0x9c-0x9d (1)
0x90|                                    a2         |            .   |            length: 2 0x9c.3-0x9d (0.5)
0x90|                                       31 33   |             13 |            value: "13" 0x9d-0x9f (2)
    |                                               |                |          value{}: 0x9f-0xa1 (2)
0x90|                                             a1|               .|            type: "fixstr" (0xa1) 0x9f-0xa0 (1)
0x90|                                             a1|               .|            length: 1 0x9f.3-0xa0 (0.5)
0xa0|61                                             |a               |            value: "a" 0xa0-0xa1 (1)
    |                                               |                |        [6]{}: pair 0xa1-0xa6 (5)
    |                                               |                |          key{}: 0xa1-0xa4 (3)
0xa0|   a2                                          | .              |            type: "fixstr" (0xa2) 0xa1-0xa2 (1)
0xa0|   a2                                          | .              |            length: 2 0xa1.3-0xa2 (0.5)
0xa0|      31 34                                    |  14            |            value: "14" 0xa2-0xa4 (2)
    |                                               |                |          value{}: 0xa4-0xa6 (2)
0xa0|            a1                                 |    .           |            type: "fixstr" (0xa1) 0xa4-0xa5 (1)
0xa0|            a1                                 |    .           |            length: 1 0xa4.3-0xa5 (0.5)
0xa0|               61                              |     a          |            value: "a" 0xa5-0xa6 (1)
    |                                               |                |        [7]{}: pair 0xa6-0xab (5)
    |                                               |                |          key{}: 0xa6-0xa9 (3)
0xa0|                  a2                           |      .         |            type: "fixstr" (0xa2) 0xa6-0xa7 (1)
0xa0|                  a2                           |      .         |            length: 2 0xa6.3-0xa7 (0.5)
0xa0|                     31 35                     |       15       |            value: "15" 0xa7-0xa9 (2)
    |                                               |                |          value{}: 0xa9-0xab (2)
0xa0|                           a1                  |         .      |            type: "fixstr" (0xa1) 0xa9-0xaa (1)
0xa0|                           a1                  |         .      |            length: 1 0xa9.3-0xaa (0.5)
0xa0|                              61               |          a     |            value: "a" 0xaa-0xab (1)
    |                                               |                |        [8]{}: pair 0xab-0xb0 (5)
    |                                               |                |          key{}: 0xab-0xae (3)
0xa0|                                 a2            |           .    |            type: "fixstr" (0xa2) 0xab-0xac (1)
0xa0|                                 a2            |           .    |            length: 2 0xab.3-0xac (0.5)
0xa0|                                    31 36      |            16  |            value: "16" 0xac-0xae (2)
    |                                               |                |          value{}: 0xae-0xb0 (2)
0xa0|                                          a1   |              . |            type: "fixstr" (0xa1) 0xae-0xaf (1)
0xa0|                                          a1   |              . |            length: 1 0xae.3-0xaf (0.5)
0xa0|                                             61|               a|            value: "a" 0xaf-0xb0 (1)
    |                                               |                |        [9]{}: pair 0xb0-0xb4 (4)
    |                                               |                |          key{}: 0xb0-0xb2 (2)
0xb0|a1                                             |.               |            type: "fixstr" (0xa1) 0xb0-0xb1 (1)
0xb0|a1                                             |.               |            length: 1 0xb0.3-0xb1 (0.5)
0xb0|   32                                          | 2              |            value: "2" 0xb1-0xb2 (1)
    |                                               |                |          value{}: 0xb2-0xb4 (2)
0xb0|      a1                                       |  .             |            type: "fixstr" (0xa1) 0xb2-0xb3 (1)
0xb0|      a1                                       |  .             |            length: 1 0xb2.3-0xb3 (0.5)
0xb0|         61                                    |   a            |            value: "a" 0xb3-0xb4 (1)
    |                                               |                |        [10]{}: pair 0xb4-0xb8 (4)
    |                                               |                |          key{}: 0xb4-0xb6 (2)
0xb0|            a1                                 |    .           |            type: "fixstr" (0xa1) 0xb4-0xb5 (1)
0xb0|            a1                                 |    .           |            length: 1 0xb4.3-0xb5 (0.5)
0xb0|               33                              |     3          |            value: "3" 0xb5-0xb6 (1)
    |                                               |                |          value{}: 0xb6-0xb8 (2)
0xb0|                  a1                           |      .         |            type: "fixstr" (0xa1) 0xb6-0xb7 (1)
0xb0|                  a1                           |      .         |            length: 1 0xb6.3-0xb7 (0.5)
0xb0|                     61                        |       a        |            value: "a" 0xb7-0xb8 (1)
    |                                               |                |        [11]{}: pair 0xb8-0xbc (4)
    |                                               |                |          key{}: 0xb8-0xba (2)
0xb0|                        a1                     |        .       |            type: "fixstr" (0xa1) 0xb8-0xb9 (1)
0xb0|                        a1                     |        .       |            length: 1 0xb8.3-0xb9 (0.5)
0xb0|                           34                  |         4      |            value: "4" 0xb9-0xba (1)
    |                                               |                |          value{}: 0xba-0xbc (2)
0xb0|                              a1               |          .     |            type: "fixstr" (0xa1) 0xba-0xbb (1)
0xb0|                              a1               |          .     |            length: 1 0xba.3-0xbb (0.5)
0xb0|                                 61            |           a    |            value: "a" 0xbb-0xbc (1)
    |                                               |                |        [12]{}: pair 0xbc-0xc0 (4)
    |                                               |                |          key{}: 0xbc-0xbe (2)
0xb0|                                    a1         |            .   |            type: "fixstr" (0xa1) 0xbc-0xbd (1)
0xb0|                                    a1         |            .   |            length: 1 0xbc.3-0xbd (0.5)
0xb0|                                       35      |             5  |            value: "5" 0xbd-0xbe (1)
    |                                               |                |          value{}: 0xbe-0xc0 (2)
0xb0|                                          a1   |              . |            type: "fixstr" (0xa1) 0xbe-0xbf (1)
0xb0|                                          a1   |              . |            length: 1 0xbe.3-0xbf (0.5)
0xb0|                                             61|               a|            value: "a" 0xbf-0xc0 (1)
    |                                               |                |        [13]{}: pair 0xc0-0xc4 (4)
    |                                               |                |          key{}: 0xc0-0xc2 (2)
0xc0|a1                                             |.               |            type: "fixstr" (0xa1) 0xc0-0xc1 (1)
0xc0|a1                                             |.               |            length: 1 0xc0.3-0xc1 (0.5)
0xc0|   36                                          | 6              |            value: "6" 0xc1-0xc2 (1)
    |                                               |                |          value{}: 0xc2-0xc4 (2)
0xc0|      a1                                       |  .             |            type: "fixstr" (0xa1) 0xc2-0xc3 (1)
0xc0|      a1                                       |  .             |            length: 1 0xc2.3-0xc3 (0.5)
0xc0|         61                                    |   a            |            value: "a" 0xc3-0xc4 (1)
    |                                               |                |        [14]{}: pair 0xc4-0xc8 (4)
    |                                               |                |          key{}: 0xc4-0xc6 (2)
0xc0|            a1                                 |    .           |            type: "fixstr" (0xa1) 0xc4-0xc5 (1)
0xc0|            a1                                 |    .           |            length: 1 0xc4.3-0xc5 (0.5)
0xc0|               37                              |     7          |            value: "7" 0xc5-0xc6 (1)
    |                                               |                |          value{}: 0xc6-0xc8 (2)
0xc0|                  a1                           |      .         |            type: "fixstr" (0xa1) 0xc6-0xc7 (1)
0xc0|                  a1                           |      .         |            length: 1 0xc6.3-0xc7 (0.5)
0xc0|                     61                        |       a        |            value: "a" 0xc7-0xc8 (1)
    |                                               |                |        [15]{}: pair 0xc8-0xcc (4)
    |                                               |                |          key{}: 0xc8-0xca (2)
0xc0|                        a1                     |        .       |            type: "fixstr" (0xa1) 0xc8-0xc9 (1)
0xc0|                        a1                     |        .       |            length: 1 0xc8.3-0xc9 (0.5)
0xc0|                           38                  |         8      |            value: "8" 0xc9-0xca (1)
    |                                               |                |          value{}: 0xca-0xcc (2)
0xc0|                              a1               |          .     |            type: "fixstr" (0xa1) 0xca-0xcb (1)
0xc0|                              a1               |          .     |            length: 1 0xca.3-0xcb (0.5)
0xc0|                                 61            |           a    |            value: "a" 0xcb-0xcc (1)
    |                                               |                |        [16]{}: pair 0xcc-0xd0 (4)
    |                                               |                |          key{}: 0xcc-0xce (2)
0xc0|                                    a1         |            .   |            type: "fixstr" (0xa1) 0xcc-0xcd (1)
0xc0|                                    a1         |            .   |            length: 1 0xcc.3-0xcd (0.5)
0xc0|                                       39      |             9  |            value: "9" 0xcd-0xce (1)
    |                                               |                |          value{}: 0xce-0xd0 (2)
0xc0|                                          a1   |              . |            type: "fixstr" (0xa1) 0xce-0xcf (1)
0xc0|                                          a1   |              . |            length: 1 0xce.3-0xcf (0.5)
0xc0|                                             61|               a|            value: "a" 0xcf-0xd0 (1)
[
  {},
  {
    "0": "a"
  },
  {
    "0": "a",
    "1": "a",
    "2": "a",
    "3": "a"
  },
  {
    "0": "a",
    "1": "a",
    "2": "a",
    "3": "a",
    "4": "a",
    "5": "a",
    "6": "a",
    "7": "a"
  },
  {
    "0": "a",
    "1": "a",
    "10": "a",
    "11": "a",
    "12": "a",
    "13": "a",
    "14": "a",
    "15": "a",
    "2": "a",
    "3": "a",
    "4": "a",
    "5": "a",
    "6": "a",
    "7": "a",
    "8": "a",
    "9": "a"
  },
  {
    "0": "a",
    "1": "a",
    "10": "a",
    "11": "a",
    "12": "a",
    "13": "a",
    "14": "a",
    "15": "a",
    "16": "a",
    "2": "a",
    "3": "a",
    "4": "a",
    "5": "a",
    "6": "a",
    "7": "a",
    "8": "a",
    "9": "a"
  }
]
