$ fq dv sample3.book 
     |00 01 02 03 04 05 06 07 08 09 0a 0b 0c 0d 0e 0f|0123456789abcdef|.{}: sample3.book (apple_bookmark) 0x0-0x333.7 (820)
     |                                               |                |  header{}: 0x0-0x2f.7 (48)
0x000|62 6f 6f 6b                                    |book            |    magic: "book" (valid) 0x0-0x3.7 (4)
0x000|            34 03 00 00                        |    4...        |    total_size: 820 0x4-0x7.7 (4)
0x000|                        00 00 04 10            |        ....    |    unknown: 268697600 0x8-0xb.7 (4)
0x000|                                    30 00 00 00|            0...|    header_size: 48 (valid) 0xc-0xf.7 (4)
0x010|00 00 00 00 00 00 00 00 00 00 00 00 00 00 00 00|................|    reserved: raw bits 0x10-0x2f.7 (32)
0x020|00 00 00 00 00 00 00 00 00 00 00 00 00 00 00 00|................|
0x030|18 02 00 00                                    |....            |  first_toc_offset: 536 0x30-0x33.7 (4)
     |                                               |                |  bookmark_entries[0:18]: 0x34-0x333.7 (768)
     |                                               |                |    [0]{}: entry 0x40-0x267.7 (552)
     |                                               |                |      record{}: 0x40-0xd7.7 (152)
     |                                               |                |        data[0:6]: 0x40-0xd7.7 (152)
     |                                               |                |          [0]{}: element 0x40-0xc3.7 (132)
     |                                               |                |            record{}: 0x40-0x4f.7 (16)
0x040|05 00 00 00                                    |....            |              length: 5 0x40-0x43.7 (4)
0x040|            01 01 00 00                        |    ....        |              type: "string" (257) (UTF-8 String) 0x44-0x47.7 (4)
0x040|                        55 73 65 72 73         |        Users   |              data: "Users" 0x48-0x4c.7 (5)
0x040|                                       00 00 00|             ...|              alignment_bytes: raw bits 0x4d-0x4f.7 (3)
0x0c0|10 00 00 00                                    |....            |            offset: 16 0xc0-0xc3.7 (4)
     |                                               |                |          [1]{}: element 0x50-0xc7.7 (120)
     |                                               |                |            record{}: 0x50-0x67.7 (24)
0x050|0d 00 00 00                                    |....            |              length: 13 0x50-0x53.7 (4)
0x050|            01 01 00 00                        |    ....        |              type: "string" (257) (UTF-8 String) 0x54-0x57.7 (4)
0x050|                        64 61 76 69 64 6d 63 64|        davidmcd|              data: "davidmcdonald" 0x58-0x64.7 (13)
0x060|6f 6e 61 6c 64                                 |onald           |
0x060|               00 00 00                        |     ...        |              alignment_bytes: raw bits 0x65-0x67.7 (3)
0x0c0|            20 00 00 00                        |     ...        |            offset: 32 0xc4-0xc7.7 (4)
     |                                               |                |          [2]{}: element 0x68-0xcb.7 (100)
     |                                               |                |            record{}: 0x68-0x7b.7 (20)
0x060|                        09 00 00 00            |        ....    |              length: 9 0x68-0x6b.7 (4)
0x060|                                    01 01 00 00|            ....|              type: "string" (257) (UTF-8 String) 0x6c-0x6f.7 (4)
0x070|44 6f 63 75 6d 65 6e 74 73                     |Documents       |              data: "Documents" 0x70-0x78.7 (9)
0x070|                           00 00 00            |         ...    |              alignment_bytes: raw bits 0x79-0x7b.7 (3)
0x0c0|                        38 00 00 00            |        8...    |            offset: 56 0xc8-0xcb.7 (4)
     |                                               |                |          [3]{}: element 0x7c-0xcf.7 (84)
     |                                               |                |            record{}: 0x7c-0x8b.7 (16)
0x070|                                    07 00 00 00|            ....|              length: 7 0x7c-0x7f.7 (4)
0x080|01 01 00 00                                    |....            |              type: "string" (257) (UTF-8 String) 0x80-0x83.7 (4)
0x080|            41 72 64 75 69 6e 6f               |    Arduino     |              data: "Arduino" 0x84-0x8a.7 (7)
0x080|                                 00            |           .    |              alignment_bytes: raw bits 0x8b-0x8b.7 (1)
0x0c0|                                    4c 00 00 00|            L...|            offset: 76 0xcc-0xcf.7 (4)
     |                                               |                |          [4]{}: element 0x8c-0xd3.7 (72)
     |                                               |                |            record{}: 0x8c-0xa7.7 (28)
0x080|                                    12 00 00 00|            ....|              length: 18 0x8c-0x8f.7 (4)
0x090|01 01 00 00                                    |....            |              type: "string" (257) (UTF-8 String) 0x90-0x93.7 (4)
0x090|            67 65 6e 65 72 61 74 65 64 5f 65 78|    generated_ex|              data: "generated_examples" 0x94-0xa5.7 (18)
0x0a0|61 6d 70 6c 65 73                              |amples          |
0x0a0|                  00 00                        |      ..        |              alignment_bytes: raw bits 0xa6-0xa7.7 (2)
0x0d0|5c 00 00 00                                    |\...            |            offset: 92 0xd0-0xd3.7 (4)
     |                                               |                |          [5]{}: element 0xa8-0xd7.7 (48)
     |                                               |                |            record{}: 0xa8-0xb7.7 (16)
0x0a0|                        05 00 00 00            |        ....    |              length: 5 0xa8-0xab.7 (4)
0x0a0|                                    01 01 00 00|            ....|              type: "string" (257) (UTF-8 String) 0xac-0xaf.7 (4)
0x0b0|42 6c 69 6e 6b                                 |Blink           |              data: "Blink" 0xb0-0xb4.7 (5)
0x0b0|               00 00 00                        |     ...        |              alignment_bytes: raw bits 0xb5-0xb7.7 (3)
0x0d0|            78 00 00 00                        |    x...        |            offset: 120 0xd4-0xd7.7 (4)
0x0b0|                        18 00 00 00            |        ....    |        length: 24 0xb8-0xbb.7 (4)
0x0b0|                                    01 06 00 00|            ....|        type: "array" (1537) (Array of 4-byte offsets to data items) 0xbc-0xbf.7 (4)
0x250|                                    04 10 00 00|            ....|      key: "target_path" (4100) (Array of individual path components) 0x25c-0x25f.7 (4)
0x260|88 00 00 00                                    |....            |      offset_to_record: 136 0x260-0x263.7 (4)
0x260|            00 00 00 00                        |    ....        |      unused: 0 0x264-0x267.7 (4)
     |                                               |                |    [1]{}: entry 0xd8-0x273.7 (412)
     |                                               |                |      record{}: 0xd8-0x157.7 (128)
     |                                               |                |        data[0:6]: 0xd8-0x157.7 (128)
     |                                               |                |          [0]{}: element 0xd8-0x143.7 (108)
     |                                               |                |            record{}: 0xd8-0xe7.7 (16)
0x0d0|                        08 00 00 00            |        ....    |              length: 8 0xd8-0xdb.7 (4)
0x0d0|                                    04 03 00 00|            ....|              type: "long" (772) ((signed 64-bit) 8-byte number) 0xdc-0xdf.7 (4)
0x0e0|0b 5b 00 00 00 00 00 00                        |.[......        |              data: 23307 0xe0-0xe7.7 (8)
0x140|a8 00 00 00                                    |....            |            offset: 168 0x140-0x143.7 (4)
     |                                               |                |          [1]{}: element 0xe8-0x147.7 (96)
     |                                               |                |            record{}: 0xe8-0xf7.7 (16)
0x0e0|                        08 00 00 00            |        ....    |              length: 8 0xe8-0xeb.7 (4)
0x0e0|                                    04 03 00 00|            ....|              type: "long" (772) ((signed 64-bit) 8-byte number) 0xec-0xef.7 (4)
0x0f0|1c 9e 08 00 00 00 00 00                        |........        |              data: 564764 0xf0-0xf7.7 (8)
0x140|            b8 00 00 00                        |    ....        |            offset: 184 0x144-0x147.7 (4)
     |                                               |                |          [2]{}: element 0xf8-0x14b.7 (84)
     |                                               |                |            record{}: 0xf8-0x107.7 (16)
0x0f0|                        08 00 00 00            |        ....    |              length: 8 0xf8-0xfb.7 (4)
0x0f0|                                    04 03 00 00|            ....|              type: "long" (772) ((signed 64-bit) 8-byte number) 0xfc-0xff.7 (4)
0x100|52 e1 0d 00 00 00 00 00                        |R.......        |              data: 909650 0x100-0x107.7 (8)
0x140|                        c8 00 00 00            |        ....    |            offset: 200 0x148-0x14b.7 (4)
     |                                               |                |          [3]{}: element 0x108-0x14f.7 (72)
     |                                               |                |            record{}: 0x108-0x117.7 (16)
0x100|                        08 00 00 00            |        ....    |              length: 8 0x108-0x10b.7 (4)
0x100|                                    04 03 00 00|            ....|              type: "long" (772) ((signed 64-bit) 8-byte number) 0x10c-0x10f.7 (4)
0x110|b0 1f 0e 00 00 00 00 00                        |........        |              data: 925616 0x110-0x117.7 (8)
0x140|                                    d8 00 00 00|            ....|            offset: 216 0x14c-0x14f.7 (4)
     |                                               |                |          [4]{}: element 0x118-0x153.7 (60)
     |                                               |                |            record{}: 0x118-0x127.7 (16)
0x110|                        08 00 00 00            |        ....    |              length: 8 0x118-0x11b.7 (4)
0x110|                                    04 03 00 00|            ....|              type: "long" (772) ((signed 64-bit) 8-byte number) 0x11c-0x11f.7 (4)
0x120|91 2b 2d 02 00 00 00 00                        |.+-.....        |              data: 36514705 0x120-0x127.7 (8)
0x150|e8 00 00 00                                    |....            |            offset: 232 0x150-0x153.7 (4)
     |                                               |                |          [5]{}: element 0x128-0x157.7 (48)
     |                                               |                |            record{}: 0x128-0x137.7 (16)
0x120|                        08 00 00 00            |        ....    |              length: 8 0x128-0x12b.7 (4)
0x120|                                    04 03 00 00|            ....|              type: "long" (772) ((signed 64-bit) 8-byte number) 0x12c-0x12f.7 (4)
0x130|92 2b 2d 02 00 00 00 00                        |.+-.....        |              data: 36514706 0x130-0x137.7 (8)
0x150|            f8 00 00 00                        |    ....        |            offset: 248 0x154-0x157.7 (4)
0x130|                        18 00 00 00            |        ....    |        length: 24 0x138-0x13b.7 (4)
0x130|                                    01 06 00 00|            ....|        type: "array" (1537) (Array of 4-byte offsets to data items) 0x13c-0x13f.7 (4)
0x260|                        05 10 00 00            |        ....    |      key: "target_cnid_path" (4101) (Array of CNIDs) 0x268-0x26b.7 (4)
0x260|                                    08 01 00 00|            ....|      offset_to_record: 264 0x26c-0x26f.7 (4)
0x270|00 00 00 00                                    |....            |      unused: 0 0x270-0x273.7 (4)
     |                                               |                |    [2]{}: entry 0x168-0x27f.7 (280)
     |                                               |                |      record{}: 0x168-0x187.7 (32)
0x160|                        18 00 00 00            |        ....    |        length: 24 (valid) 0x168-0x16b.7 (4)
0x160|                                    01 02 00 00|            ....|        raw_type: "data" (513) (valid) 0x16c-0x16f.7 (4)
     |                                               |                |        type: "flag_data" 0x170-NA (0)
     |                                               |                |        property_flags{}: 0x170-0x172 (2.1)
0x170|02                                             |.               |          is_regular_file: false 0x170-0x170 (0.1)
0x170|02                                             |.               |          is_directory: false 0x170.1-0x170.1 (0.1)
0x170|02                                             |.               |          is_symbolic_link: false 0x170.2-0x170.2 (0.1)
0x170|02                                             |.               |          is_volume: false 0x170.3-0x170.3 (0.1)
0x170|02                                             |.               |          is_package: false 0x170.4-0x170.4 (0.1)
0x170|02                                             |.               |          is_system_immutable: false 0x170.5-0x170.5 (0.1)
0x170|02                                             |.               |          is_user_immutable: true 0x170.6-0x170.6 (0.1)
0x170|02                                             |.               |          is_hidden: false 0x170.7-0x170.7 (0.1)
0x170|   00                                          | .              |          has_hidden_extension: false 0x171-0x171 (0.1)
0x170|   00                                          | .              |          is_application: false 0x171.1-0x171.1 (0.1)
0x170|   00                                          | .              |          is_compressed: false 0x171.2-0x171.2 (0.1)
0x170|   00                                          | .              |          can_set_hidden_extension: false 0x171.3-0x171.3 (0.1)
0x170|   00                                          | .              |          is_readable: false 0x171.4-0x171.4 (0.1)
0x170|   00                                          | .              |          is_writeable: false 0x171.5-0x171.5 (0.1)
0x170|   00                                          | .              |          is_executable: false 0x171.6-0x171.6 (0.1)
0x170|   00                                          | .              |          is_alias_file: false 0x171.7-0x171.7 (0.1)
0x170|      00                                       |  .             |          is_mount_trigger: false 0x172-0x172 (0.1)
0x170|      00 00 00 00 00 00                        |  ......        |        unused_property_bits: raw bits 0x172.1-0x177.7 (5.7)
     |                                               |                |        enabled_property_flags{}: 0x178-0x17a (2.1)
0x170|                        1f                     |        .       |          is_regular_file: false 0x178-0x178 (0.1)
0x170|                        1f                     |        .       |          is_directory: false 0x178.1-0x178.1 (0.1)
0x170|                        1f                     |        .       |          is_symbolic_link: false 0x178.2-0x178.2 (0.1)
0x170|                        1f                     |        .       |          is_volume: true 0x178.3-0x178.3 (0.1)
0x170|                        1f                     |        .       |          is_package: true 0x178.4-0x178.4 (0.1)
0x170|                        1f                     |        .       |          is_system_immutable: true 0x178.5-0x178.5 (0.1)
0x170|                        1f                     |        .       |          is_user_immutable: true 0x178.6-0x178.6 (0.1)
0x170|                        1f                     |        .       |          is_hidden: true 0x178.7-0x178.7 (0.1)
0x170|                           02                  |         .      |          has_hidden_extension: false 0x179-0x179 (0.1)
0x170|                           02                  |         .      |          is_application: false 0x179.1-0x179.1 (0.1)
0x170|                           02                  |         .      |          is_compressed: false 0x179.2-0x179.2 (0.1)
0x170|                           02                  |         .      |          can_set_hidden_extension: false 0x179.3-0x179.3 (0.1)
0x170|                           02                  |         .      |          is_readable: false 0x179.4-0x179.4 (0.1)
0x170|                           02                  |         .      |          is_writeable: false 0x179.5-0x179.5 (0.1)
0x170|                           02                  |         .      |          is_executable: true 0x179.6-0x179.6 (0.1)
0x170|                           02                  |         .      |          is_alias_file: false 0x179.7-0x179.7 (0.1)
0x170|                              00               |          .     |          is_mount_trigger: false 0x17a-0x17a (0.1)
0x170|                              00 00 00 00 00 00|          ......|        unused_indicator_bits: raw bits 0x17a.1-0x17f.7 (5.7)
0x180|1a 02 00 00 00 00 00 00                        |........        |        reserved: raw bits 0x180-0x187.7 (8)
0x270|            10 10 00 00                        |    ....        |      key: "target_flags" (4112) (flag bitfield) 0x274-0x277.7 (4)
0x270|                        38 01 00 00            |        8...    |      offset_to_record: 312 0x278-0x27b.7 (4)
0x270|                                    00 00 00 00|            ....|      unused: 0 0x27c-0x27f.7 (4)
     |                                               |                |    [3]{}: entry 0x158-0x28b.7 (308)
     |                                               |                |      record{}: 0x158-0x167.7 (16)
0x150|                        08 00 00 00            |        ....    |        length: 8 0x158-0x15b.7 (4)
0x150|                                    00 04 00 00|            ....|        type: "date" (1024) (Big-endian IEEE double precision seconds since 2001-01-01 00:00:00 UTC) 0x15c-0x15f.7 (4)
0x160|41 c4 11 9d 61 74 66 30                        |A...atf0        |        data: 6.733974429093685e+08 (2022-05-04T22:50:42Z) 0x160-0x167.7 (8)
0x280|40 10 00 00                                    |@...            |      key: "target_creation_date" (4160) (Date) 0x280-0x283.7 (4)
0x280|            28 01 00 00                        |    (...        |      offset_to_record: 296 0x284-0x287.7 (4)
0x280|                        00 00 00 00            |        ....    |      unused: 0 0x288-0x28b.7 (4)
     |                                               |                |    [4]{}: entry 0x234-0x297.7 (100)
     |                                               |                |      record{}: 0x234-0x23f.7 (12)
0x230|            01 00 00 00                        |    ....        |        length: 1 0x234-0x237.7 (4)
0x230|                        01 01 00 00            |        ....    |        type: "string" (257) (UTF-8 String) 0x238-0x23b.7 (4)
0x230|                                    2f         |            /   |        data: "/" 0x23c-0x23c.7 (1)
0x230|                                       00 00 00|             ...|        alignment_bytes: raw bits 0x23d-0x23f.7 (3)
0x280|                                    02 20 00 00|            . ..|      key: "volume_path" (8194) (Array of individual path components) 0x28c-0x28f.7 (4)
0x290|04 02 00 00                                    |....            |      offset_to_record: 516 0x290-0x293.7 (4)
0x290|            00 00 00 00                        |    ....        |      unused: 0 0x294-0x297.7 (4)
     |                                               |                |    [5]{}: entry 0x1a4-0x2a3.7 (256)
     |                                               |                |      record{}: 0x1a4-0x1b3.7 (16)
0x1a0|            08 00 00 00                        |    ....        |        length: 8 0x1a4-0x1a7.7 (4)
0x1a0|                        01 09 00 00            |        ....    |        type: "url" (2305) (UTF-8 string) 0x1a8-0x1ab.7 (4)
0x1a0|                                    66 69 6c 65|            file|        data: "file:///" 0x1ac-0x1b3.7 (8)
0x1b0|3a 2f 2f 2f                                    |:///            |
0x290|                        05 20 00 00            |        . ..    |      key: "volume_url" (8197) (URL of volume root) 0x298-0x29b.7 (4)
0x290|                                    74 01 00 00|            t...|      offset_to_record: 372 0x29c-0x29f.7 (4)
0x2a0|00 00 00 00                                    |....            |      unused: 0 0x2a0-0x2a3.7 (4)
     |                                               |                |    [6]{}: entry 0x1b4-0x2af.7 (252)
     |                                               |                |      record{}: 0x1b4-0x1cb.7 (24)
0x1b0|            0c 00 00 00                        |    ....        |        length: 12 0x1b4-0x1b7.7 (4)
0x1b0|                        01 01 00 00            |        ....    |        type: "string" (257) (UTF-8 String) 0x1b8-0x1bb.7 (4)
0x1b0|                                    4d 61 63 69|            Maci|        data: "Macintosh HD" 0x1bc-0x1c7.7 (12)
0x1c0|6e 74 6f 73 68 20 48 44                        |ntosh HD        |
0x1c0|                        08 00 00 00            |        ....    |        alignment_bytes: raw bits 0x1c8-0x1cb.7 (4)
0x2a0|            10 20 00 00                        |    . ..        |      key: "volume_name" (8208) (String) 0x2a4-0x2a7.7 (4)
0x2a0|                        84 01 00 00            |        ....    |      offset_to_record: 388 0x2a8-0x2ab.7 (4)
0x2a0|                                    00 00 00 00|            ....|      unused: 0 0x2ac-0x2af.7 (4)
     |                                               |                |    [7]{}: entry 0x1e8-0x2bb.7 (212)
     |                                               |                |      record{}: 0x1e8-0x217.7 (48)
0x1e0|                        24 00 00 00            |        $...    |        length: 36 0x1e8-0x1eb.7 (4)
0x1e0|                                    01 01 00 00|            ....|        type: "string" (257) (UTF-8 String) 0x1ec-0x1ef.7 (4)
0x1f0|38 41 38 32 39 41 30 33 2d 39 42 32 34 2d 34 30|8A829A03-9B24-40|        data: "8A829A03-9B24-4085-8051-18978712E4BE" 0x1f0-0x213.7 (36)
*    |until 0x213.7 (36)                             |                |
0x210|            18 00 00 00                        |    ....        |        alignment_bytes: raw bits 0x214-0x217.7 (4)
0x2b0|11 20 00 00                                    |. ..            |      key: "volume_uuid" (8209) (String UUID) 0x2b0-0x2b3.7 (4)
0x2b0|            b8 01 00 00                        |    ....        |      offset_to_record: 440 0x2b4-0x2b7.7 (4)
0x2b0|                        00 00 00 00            |        ....    |      unused: 0 0x2b8-0x2bb.7 (4)
     |                                               |                |    [8]{}: entry 0x1c8-0x2c7.7 (256)
     |                                               |                |      record{}: 0x1c8-0x1d7.7 (16)
0x1c0|                        08 00 00 00            |        ....    |        length: 8 0x1c8-0x1cb.7 (4)
0x1c0|                                    04 03 00 00|            ....|        type: "long" (772) ((signed 64-bit) 8-byte number) 0x1cc-0x1cf.7 (4)
0x1d0|00 a0 20 68 74 00 00 00                        |.. ht...        |        data: 499963174912 0x1d0-0x1d7.7 (8)
0x2b0|                                    12 20 00 00|            . ..|      key: "volume_size" (8210) (8-byte integer) 0x2bc-0x2bf.7 (4)
0x2c0|98 01 00 00                                    |....            |      offset_to_record: 408 0x2c0-0x2c3.7 (4)
0x2c0|            00 00 00 00                        |    ....        |      unused: 0 0x2c4-0x2c7.7 (4)
     |                                               |                |    [9]{}: entry 0x1d8-0x2d3.7 (252)
     |                                               |                |      record{}: 0x1d8-0x1e7.7 (16)
0x1d0|                        08 00 00 00            |        ....    |        length: 8 0x1d8-0x1db.7 (4)
0x1d0|                                    00 04 00 00|            ....|        type: "date" (1024) (Big-endian IEEE double precision seconds since 2001-01-01 00:00:00 UTC) 0x1dc-0x1df.7 (4)
0x1e0|41 c1 de 44 80 00 00 00                        |A..D....        |        data: 5.995584e+08 (2020-01-01T08:00:00Z) 0x1e0-0x1e7.7 (8)
0x2c0|                        13 20 00 00            |        . ..    |      key: "volume_creation_date" (8211) (Date) 0x2c8-0x2cb.7 (4)
0x2c0|                                    a8 01 00 00|            ....|      offset_to_record: 424 0x2cc-0x2cf.7 (4)
0x2d0|00 00 00 00                                    |....            |      unused: 0 0x2d0-0x2d3.7 (4)
     |                                               |                |    [10]{}: entry 0x214-0x2df.7 (204)
     |                                               |                |      record{}: 0x214-0x233.7 (32)
0x210|            18 00 00 00                        |    ....        |        length: 24 (valid) 0x214-0x217.7 (4)
0x210|                        01 02 00 00            |        ....    |        raw_type: "data" (513) (valid) 0x218-0x21b.7 (4)
     |                                               |                |        type: "flag_data" 0x21c-NA (0)
     |                                               |                |        property_flags{}: 0x21c-0x221.6 (5.7)
0x210|                                    81         |            .   |          is_local: true 0x21c-0x21c (0.1)
0x210|                                    81         |            .   |          is_automount: false 0x21c.1-0x21c.1 (0.1)
0x210|                                    81         |            .   |          dont_browse: false 0x21c.2-0x21c.2 (0.1)
0x210|                                    81         |            .   |          is_read_only: false 0x21c.3-0x21c.3 (0.1)
0x210|                                    81         |            .   |          is_quarantined: false 0x21c.4-0x21c.4 (0.1)
0x210|                                    81         |            .   |          is_ejectable: false 0x21c.5-0x21c.5 (0.1)
0x210|                                    81         |            .   |          is_removable: false 0x21c.6-0x21c.6 (0.1)
0x210|                                    81         |            .   |          is_internal: true 0x21c.7-0x21c.7 (0.1)
0x210|                                       00      |             .  |          is_external: false 0x21d-0x21d (0.1)
0x210|                                       00      |             .  |          is_disk_image: false 0x21d.1-0x21d.1 (0.1)
0x210|                                       00      |             .  |          is_file_vault: false 0x21d.2-0x21d.2 (0.1)
0x210|                                       00      |             .  |          is_local_idisk_mirror: false 0x21d.3-0x21d.3 (0.1)
0x210|                                       00      |             .  |          is_ipod: false 0x21d.4-0x21d.4 (0.1)
0x210|                                       00      |             .  |          is_idisk: false 0x21d.5-0x21d.5 (0.1)
0x210|                                       00      |             .  |          is_cd: false 0x21d.6-0x21d.6 (0.1)
0x210|                                       00      |             .  |          is_dvd: false 0x21d.7-0x21d.7 (0.1)
0x210|                                          00   |              . |          is_device_file_system: false 0x21e-0x21e (0.1)
0x210|                                          00   |              . |          supports_persistent_ids: false 0x21e.1-0x21e.1 (0.1)
0x210|                                          00   |              . |          supports_search_fs: false 0x21e.2-0x21e.2 (0.1)
0x210|                                          00   |              . |          supports_exchange: false 0x21e.3-0x21e.3 (0.1)
0x210|                                          00   |              . |          reserved_0: false 0x21e.4-0x21e.4 (0.1)
0x210|                                          00   |              . |          supports_symbolic_links: false 0x21e.5-0x21e.5 (0.1)
0x210|                                          00   |              . |          supports_deny_modes: false 0x21e.6-0x21e.6 (0.1)
0x210|                                          00   |              . |          supports_copy_file: false 0x21e.7-0x21e.7 (0.1)
0x210|                                             00|               .|          supports_read_dir_attr: false 0x21f-0x21f (0.1)
0x210|                                             00|               .|          supports_journaling: false 0x21f.1-0x21f.1 (0.1)
0x210|                                             00|               .|          supports_rename: false 0x21f.2-0x21f.2 (0.1)
0x210|                                             00|               .|          supports_fast_stat_fs: false 0x21f.3-0x21f.3 (0.1)
0x210|                                             00|               .|          supports_case_sensitive_names: false 0x21f.4-0x21f.4 (0.1)
0x210|                                             00|               .|          supports_case_preserved_names: false 0x21f.5-0x21f.5 (0.1)
0x210|                                             00|               .|          supports_flock: false 0x21f.6-0x21f.6 (0.1)
0x210|                                             00|               .|          has_no_root_directory_times: false 0x21f.7-0x21f.7 (0.1)
0x220|01                                             |.               |          supports_extended_security: false 0x220-0x220 (0.1)
0x220|01                                             |.               |          supports_2_tb_file_size: false 0x220.1-0x220.1 (0.1)
0x220|01                                             |.               |          supports_hard_links: false 0x220.2-0x220.2 (0.1)
0x220|01                                             |.               |          supports_mandatory_byte_range_locks: false 0x220.3-0x220.3 (0.1)
0x220|01                                             |.               |          supports_path_from_id: false 0x220.4-0x220.4 (0.1)
0x220|01                                             |.               |          reserved_1: false 0x220.5-0x220.5 (0.1)
0x220|01                                             |.               |          is_journaling: false 0x220.6-0x220.6 (0.1)
0x220|01                                             |.               |          supports_sparse_files: true 0x220.7-0x220.7 (0.1)
0x220|   00                                          | .              |          supports_zero_runs: false 0x221-0x221 (0.1)
0x220|   00                                          | .              |          supports_volume_sizes: false 0x221.1-0x221.1 (0.1)
0x220|   00                                          | .              |          supports_remote_events: false 0x221.2-0x221.2 (0.1)
0x220|   00                                          | .              |          supports_hidden_files: false 0x221.3-0x221.3 (0.1)
0x220|   00                                          | .              |          supports_decmp_fs_compression: false 0x221.4-0x221.4 (0.1)
0x220|   00                                          | .              |          has64_bit_object_ids: false 0x221.5-0x221.5 (0.1)
0x220|   00                                          | .              |          property_flags_all: false 0x221.6-0x221.6 (0.1)
0x220|   00 00 00                                    | ...            |        unused_property_bits: raw bits 0x221.7-0x223.7 (2.1)
     |                                               |                |        enabled_property_flags{}: 0x224-0x229.6 (5.7)
0x220|            ef                                 |    .           |          is_local: true 0x224-0x224 (0.1)
0x220|            ef                                 |    .           |          is_automount: true 0x224.1-0x224.1 (0.1)
0x220|            ef                                 |    .           |          dont_browse: true 0x224.2-0x224.2 (0.1)
0x220|            ef                                 |    .           |          is_read_only: false 0x224.3-0x224.3 (0.1)
0x220|            ef                                 |    .           |          is_quarantined: true 0x224.4-0x224.4 (0.1)
0x220|            ef                                 |    .           |          is_ejectable: true 0x224.5-0x224.5 (0.1)
0x220|            ef                                 |    .           |          is_removable: true 0x224.6-0x224.6 (0.1)
0x220|            ef                                 |    .           |          is_internal: true 0x224.7-0x224.7 (0.1)
0x220|               13                              |     .          |          is_external: false 0x225-0x225 (0.1)
0x220|               13                              |     .          |          is_disk_image: false 0x225.1-0x225.1 (0.1)
0x220|               13                              |     .          |          is_file_vault: false 0x225.2-0x225.2 (0.1)
0x220|               13                              |     .          |          is_local_idisk_mirror: true 0x225.3-0x225.3 (0.1)
0x220|               13                              |     .          |          is_ipod: false 0x225.4-0x225.4 (0.1)
0x220|               13                              |     .          |          is_idisk: false 0x225.5-0x225.5 (0.1)
0x220|               13                              |     .          |          is_cd: true 0x225.6-0x225.6 (0.1)
0x220|               13                              |     .          |          is_dvd: true 0x225.7-0x225.7 (0.1)
0x220|                  00                           |      .         |          is_device_file_system: false 0x226-0x226 (0.1)
0x220|                  00                           |      .         |          supports_persistent_ids: false 0x226.1-0x226.1 (0.1)
0x220|                  00                           |      .         |          supports_search_fs: false 0x226.2-0x226.2 (0.1)
0x220|                  00                           |      .         |          supports_exchange: false 0x226.3-0x226.3 (0.1)
0x220|                  00                           |      .         |          reserved_0: false 0x226.4-0x226.4 (0.1)
0x220|                  00                           |      .         |          supports_symbolic_links: false 0x226.5-0x226.5 (0.1)
0x220|                  00                           |      .         |          supports_deny_modes: false 0x226.6-0x226.6 (0.1)
0x220|                  00                           |      .         |          supports_copy_file: false 0x226.7-0x226.7 (0.1)
0x220|                     00                        |       .        |          supports_read_dir_attr: false 0x227-0x227 (0.1)
0x220|                     00                        |       .        |          supports_journaling: false 0x227.1-0x227.1 (0.1)
0x220|                     00                        |       .        |          supports_rename: false 0x227.2-0x227.2 (0.1)
0x220|                     00                        |       .        |          supports_fast_stat_fs: false 0x227.3-0x227.3 (0.1)
0x220|                     00                        |       .        |          supports_case_sensitive_names: false 0x227.4-0x227.4 (0.1)
0x220|                     00                        |       .        |          supports_case_preserved_names: false 0x227.5-0x227.5 (0.1)
0x220|                     00                        |       .        |          supports_flock: false 0x227.6-0x227.6 (0.1)
0x220|                     00                        |       .        |          has_no_root_directory_times: false 0x227.7-0x227.7 (0.1)
0x220|                        01                     |        .       |          supports_extended_security: false 0x228-0x228 (0.1)
0x220|                        01                     |        .       |          supports_2_tb_file_size: false 0x228.1-0x228.1 (0.1)
0x220|                        01                     |        .       |          supports_hard_links: false 0x228.2-0x228.2 (0.1)
0x220|                        01                     |        .       |          supports_mandatory_byte_range_locks: false 0x228.3-0x228.3 (0.1)
0x220|                        01                     |        .       |          supports_path_from_id: false 0x228.4-0x228.4 (0.1)
0x220|                        01                     |        .       |          reserved_1: false 0x228.5-0x228.5 (0.1)
0x220|                        01                     |        .       |          is_journaling: false 0x228.6-0x228.6 (0.1)
0x220|                        01                     |        .       |          supports_sparse_files: true 0x228.7-0x228.7 (0.1)
0x220|                           00                  |         .      |          supports_zero_runs: false 0x229-0x229 (0.1)
0x220|                           00                  |         .      |          supports_volume_sizes: false 0x229.1-0x229.1 (0.1)
0x220|                           00                  |         .      |          supports_remote_events: false 0x229.2-0x229.2 (0.1)
0x220|                           00                  |         .      |          supports_hidden_files: false 0x229.3-0x229.3 (0.1)
0x220|                           00                  |         .      |          supports_decmp_fs_compression: false 0x229.4-0x229.4 (0.1)
0x220|                           00                  |         .      |          has64_bit_object_ids: false 0x229.5-0x229.5 (0.1)
0x220|                           00                  |         .      |          property_flags_all: false 0x229.6-0x229.6 (0.1)
0x220|                           00 00 00            |         ...    |        unused_indicator_bits: raw bits 0x229.7-0x22b.7 (2.1)
0x220|                                    00 00 00 00|            ....|        reserved: raw bits 0x22c-0x233.7 (8)
0x230|00 00 00 00                                    |....            |
0x2d0|            20 20 00 00                        |      ..        |      key: "volume_flags" (8224) (flag bitfield) 0x2d4-0x2d7.7 (4)
0x2d0|                        e4 01 00 00            |        ....    |      offset_to_record: 484 0x2d8-0x2db.7 (4)
0x2d0|                                    00 00 00 00|            ....|      unused: 0 0x2dc-0x2df.7 (4)
     |                                               |                |    [11]{}: entry 0x240-0x2eb.7 (172)
     |                                               |                |      record{}: 0x240-0x247.7 (8)
0x240|00 00 00 00                                    |....            |        length: 0 0x240-0x243.7 (4)
0x240|            01 05 00 00                        |    ....        |        type: "boolean_true" (1281) (True) 0x244-0x247.7 (4)
0x2e0|30 20 00 00                                    |0 ..            |      key: "volume_is_root" (8240) (True if the volume was the filesystem root) 0x2e0-0x2e3.7 (4)
0x2e0|            10 02 00 00                        |    ....        |      offset_to_record: 528 0x2e4-0x2e7.7 (4)
0x2e0|                        00 00 00 00            |        ....    |      unused: 0 0x2e8-0x2eb.7 (4)
     |                                               |                |    [12]{}: entry 0x188-0x2f7.7 (368)
     |                                               |                |      record{}: 0x188-0x197.7 (16)
0x180|                        08 00 00 00            |        ....    |        length: 8 0x188-0x18b.7 (4)
0x180|                                    04 03 00 00|            ....|        type: "long" (772) ((signed 64-bit) 8-byte number) 0x18c-0x18f.7 (4)
0x190|04 00 00 00 00 00 00 00                        |........        |        data: 4 0x190-0x197.7 (8)
0x2e0|                                    01 c0 00 00|            ....|      key: "containing_folder_index" (49153) (Integer index of containing folder in target path array) 0x2ec-0x2ef.7 (4)
0x2f0|58 01 00 00                                    |X...            |      offset_to_record: 344 0x2f0-0x2f3.7 (4)
0x2f0|            00 00 00 00                        |    ....        |      unused: 0 0x2f4-0x2f7.7 (4)
     |                                               |                |    [13]{}: entry 0x50-0x303.7 (692)
     |                                               |                |      record{}: 0x50-0x67.7 (24)
0x050|0d 00 00 00                                    |....            |        length: 13 0x50-0x53.7 (4)
0x050|            01 01 00 00                        |    ....        |        type: "string" (257) (UTF-8 String) 0x54-0x57.7 (4)
0x050|                        64 61 76 69 64 6d 63 64|        davidmcd|        data: "davidmcdonald" 0x58-0x64.7 (13)
0x060|6f 6e 61 6c 64                                 |onald           |
0x060|               00 00 00                        |     ...        |        alignment_bytes: raw bits 0x65-0x67.7 (3)
0x2f0|                        11 c0 00 00            |        ....    |      key: "creator_username" (49169) (Name of user that created bookmark) 0x2f8-0x2fb.7 (4)
0x2f0|                                    20 00 00 00|             ...|      offset_to_record: 32 0x2fc-0x2ff.7 (4)
0x300|00 00 00 00                                    |....            |      unused: 0 0x300-0x303.7 (4)
     |                                               |                |    [14]{}: entry 0x198-0x30f.7 (376)
     |                                               |                |      record{}: 0x198-0x1a3.7 (12)
0x190|                        04 00 00 00            |        ....    |        length: 4 0x198-0x19b.7 (4)
0x190|                                    03 03 00 00|            ....|        type: "int" (771) ((signed 32-bit) 4-byte number) 0x19c-0x19f.7 (4)
0x1a0|f5 01 00 00                                    |....            |        data: 501 0x1a0-0x1a3.7 (4)
0x300|            12 c0 00 00                        |    ....        |      key: "creator_uid" (49170) (UID of user that created bookmark) 0x304-0x307.7 (4)
0x300|                        68 01 00 00            |        h...    |      offset_to_record: 360 0x308-0x30b.7 (4)
0x300|                                    00 00 00 00|            ....|      unused: 0 0x30c-0x30f.7 (4)
     |                                               |                |    [15]{}: entry 0x34-0x31b.7 (744)
     |                                               |                |      record{}: 0x34-0x3f.7 (12)
0x030|            04 00 00 00                        |    ....        |        length: 4 0x34-0x37.7 (4)
0x030|                        03 03 00 00            |        ....    |        type: "int" (771) ((signed 32-bit) 4-byte number) 0x38-0x3b.7 (4)
0x030|                                    00 00 00 20|            ... |        data: 536870912 0x3c-0x3f.7 (4)
0x310|10 d0 00 00                                    |....            |      key: "creation_options" (53264) (Integer containing flags passed to CFURLCreateBookmarkData) 0x310-0x313.7 (4)
0x310|            04 00 00 00                        |    ....        |      offset_to_record: 4 0x314-0x317.7 (4)
0x310|                        00 00 00 00            |        ....    |      unused: 0 0x318-0x31b.7 (4)
     |                                               |                |    [16]{}: entry 0xa8-0x327.7 (640)
     |                                               |                |      record{}: 0xa8-0xb7.7 (16)
0x0a0|                        05 00 00 00            |        ....    |        length: 5 0xa8-0xab.7 (4)
0x0a0|                                    01 01 00 00|            ....|        type: "string" (257) (UTF-8 String) 0xac-0xaf.7 (4)
0x0b0|42 6c 69 6e 6b                                 |Blink           |        data: "Blink" 0xb0-0xb4.7 (5)
0x0b0|               00 00 00                        |     ...        |        alignment_bytes: raw bits 0xb5-0xb7.7 (3)
0x310|                                    17 f0 00 00|            ....|      key: "display_name" (61463) (String) 0x31c-0x31f.7 (4)
0x320|78 00 00 00                                    |x...            |      offset_to_record: 120 0x320-0x323.7 (4)
0x320|            00 00 00 00                        |    ....        |      unused: 0 0x324-0x327.7 (4)
     |                                               |                |    [17]{}: entry 0x240-0x333.7 (244)
     |                                               |                |      record{}: 0x240-0x247.7 (8)
0x240|00 00 00 00                                    |....            |        length: 0 0x240-0x243.7 (4)
0x240|            01 05 00 00                        |    ....        |        type: "boolean_true" (1281) (True) 0x244-0x247.7 (4)
0x320|                        0f 00 0f 00            |        ....    |      key: 983055 0x328-0x32b.7 (4)
0x320|                                    10 02 00 00|            ....|      offset_to_record: 528 0x32c-0x32f.7 (4)
0x330|00 00 00 00|                                   |....|           |      unused: 0 0x330-0x333.7 (4)
     |                                               |                |  toc_headers[0:1]: 0x248-0x25b.7 (20)
     |                                               |                |    [0]{}: toc_header 0x248-0x25b.7 (20)
0x240|                        e4 00 00 00            |        ....    |      toc_size: 228 0x248-0x24b.7 (4)
0x240|                                    fe ff ff ff|            ....|      magic: 4294967294 (valid) 0x24c-0x24f.7 (4)
0x250|01 00 00 00                                    |....            |      identifier: 1 0x250-0x253.7 (4)
0x250|            00 00 00 00                        |    ....        |      next_toc_offset: 0 0x254-0x257.7 (4)
0x250|                        12 00 00 00            |        ....    |      num_entries_in_toc: 18 0x258-0x25b.7 (4)
$ fq torepr sample3.book
{
  "983055": true,
  "containing_folder_index": 4,
  "creation_options": 536870912,
  "creator_uid": 501,
  "creator_username": "davidmcdonald",
  "display_name": "Blink",
  "target_cnid_path": [
    23307,
    564764,
    909650,
    925616,
    36514705,
    36514706
  ],
  "target_creation_date": 673397442.9093685,
  "target_flags": {
    "is_executable": false,
    "is_hidden": false,
    "is_package": false,
    "is_system_immutable": false,
    "is_user_immutable": true,
    "is_volume": false
  },
  "target_path": [
    "Users",
    "davidmcdonald",
    "Documents",
    "Arduino",
    "generated_examples",
    "Blink"
  ],
  "volume_creation_date": 599558400,
  "volume_flags": {
    "dont_browse": false,
    "is_automount": false,
    "is_cd": false,
    "is_dvd": false,
    "is_ejectable": false,
    "is_internal": true,
    "is_local": true,
    "is_local_idisk_mirror": false,
    "is_quarantined": false,
    "is_removable": false,
    "supports_sparse_files": true
  },
  "volume_is_root": true,
  "volume_name": "Macintosh HD",
  "volume_path": "/",
  "volume_size": 499963174912,
  "volume_url": "file:///",
  "volume_uuid": "8A829A03-9B24-4085-8051-18978712E4BE"
}
