$ fq dv sample4.book 
     |00 01 02 03 04 05 06 07 08 09 0a 0b 0c 0d 0e 0f|0123456789abcdef|.{}: sample4.book (apple_bookmark) 0x0-0x2f3.7 (756)
     |                                               |                |  header{}: 0x0-0x2f.7 (48)
0x000|62 6f 6f 6b                                    |book            |    magic: "book" (valid) 0x0-0x3.7 (4)
0x000|            f4 02 00 00                        |    ....        |    total_size: 756 0x4-0x7.7 (4)
0x000|                        00 00 04 10            |        ....    |    unknown: 268697600 0x8-0xb.7 (4)
0x000|                                    30 00 00 00|            0...|    header_size: 48 (valid) 0xc-0xf.7 (4)
0x010|00 00 00 00 00 00 00 00 00 00 00 00 00 00 00 00|................|    reserved: raw bits 0x10-0x2f.7 (32)
0x020|00 00 00 00 00 00 00 00 00 00 00 00 00 00 00 00|................|
0x030|d8 01 00 00                                    |....            |  first_toc_offset: 472 0x30-0x33.7 (4)
     |                                               |                |  bookmark_entries[0:18]: 0x34-0x2ef.7 (700)
     |                                               |                |    [0]{}: entry 0x40-0x223.7 (484)
     |                                               |                |      record{}: 0x40-0xab.7 (108)
     |                                               |                |        data[0:5]: 0x40-0xab.7 (108)
     |                                               |                |          [0]{}: element 0x40-0x9b.7 (92)
     |                                               |                |            record{}: 0x40-0x4c.7 (13)
0x040|05 00 00 00                                    |....            |              length: 5 0x40-0x43.7 (4)
0x040|            01 01 00 00                        |    ....        |              type: "string" (257) (UTF-8 String) 0x44-0x47.7 (4)
0x040|                        55 73 65 72 73         |        Users   |              data: "Users" 0x48-0x4c.7 (5)
0x090|                        10 00 00 00            |        ....    |            offset: 16 0x98-0x9b.7 (4)
     |                                               |                |          [1]{}: element 0x50-0x9f.7 (80)
     |                                               |                |            record{}: 0x50-0x64.7 (21)
0x050|0d 00 00 00                                    |....            |              length: 13 0x50-0x53.7 (4)
0x050|            01 01 00 00                        |    ....        |              type: "string" (257) (UTF-8 String) 0x54-0x57.7 (4)
0x050|                        64 61 76 69 64 6d 63 64|        davidmcd|              data: "davidmcdonald" 0x58-0x64.7 (13)
0x060|6f 6e 61 6c 64                                 |onald           |
0x090|                                    20 00 00 00|             ...|            offset: 32 0x9c-0x9f.7 (4)
     |                                               |                |          [2]{}: element 0x68-0xa3.7 (60)
     |                                               |                |            record{}: 0x68-0x71.7 (10)
0x060|                        02 00 00 00            |        ....    |              length: 2 0x68-0x6b.7 (4)
0x060|                                    01 01 00 00|            ....|              type: "string" (257) (UTF-8 String) 0x6c-0x6f.7 (4)
0x070|67 6f                                          |go              |              data: "go" 0x70-0x71.7 (2)
0x0a0|38 00 00 00                                    |8...            |            offset: 56 0xa0-0xa3.7 (4)
     |                                               |                |          [3]{}: element 0x74-0xa7.7 (52)
     |                                               |                |            record{}: 0x74-0x7e.7 (11)
0x070|            03 00 00 00                        |    ....        |              length: 3 0x74-0x77.7 (4)
0x070|                        01 01 00 00            |        ....    |              type: "string" (257) (UTF-8 String) 0x78-0x7b.7 (4)
0x070|                                    73 72 63   |            src |              data: "src" 0x7c-0x7e.7 (3)
0x0a0|            44 00 00 00                        |    D...        |            offset: 68 0xa4-0xa7.7 (4)
     |                                               |                |          [4]{}: element 0x80-0xab.7 (44)
     |                                               |                |            record{}: 0x80-0x8d.7 (14)
0x080|06 00 00 00                                    |....            |              length: 6 0x80-0x83.7 (4)
0x080|            01 01 00 00                        |    ....        |              type: "string" (257) (UTF-8 String) 0x84-0x87.7 (4)
0x080|                        74 68 65 73 69 73      |        thesis  |              data: "thesis" 0x88-0x8d.7 (6)
0x0a0|                        50 00 00 00            |        P...    |            offset: 80 0xa8-0xab.7 (4)
0x090|14 00 00 00                                    |....            |        length: 20 0x90-0x93.7 (4)
0x090|            01 06 00 00                        |    ....        |        type: "array" (1537) (Array of 4-byte offsets to data items) 0x94-0x97.7 (4)
0x210|                                    04 10 00 00|            ....|      key: "target_path" (4100) (Array of individual path components) 0x21c-0x21f.7 (4)
0x220|60 00 00 00                                    |`...            |      offset_to_record: 96 0x220-0x223.7 (4)
     |                                               |                |    [1]{}: entry 0xac-0x22f.7 (388)
     |                                               |                |      record{}: 0xac-0x117.7 (108)
     |                                               |                |        data[0:5]: 0xac-0x117.7 (108)
     |                                               |                |          [0]{}: element 0xac-0x107.7 (92)
     |                                               |                |            record{}: 0xac-0xbb.7 (16)
0x0a0|                                    08 00 00 00|            ....|              length: 8 0xac-0xaf.7 (4)
0x0b0|04 03 00 00                                    |....            |              type: "long" (772) ((signed 64-bit) 8-byte number) 0xb0-0xb3.7 (4)
0x0b0|            0b 5b 00 00 00 00 00 00            |    .[......    |              data: 23307 0xb4-0xbb.7 (8)
0x100|            7c 00 00 00                        |    |...        |            offset: 124 0x104-0x107.7 (4)
     |                                               |                |          [1]{}: element 0xbc-0x10b.7 (80)
     |                                               |                |            record{}: 0xbc-0xcb.7 (16)
0x0b0|                                    08 00 00 00|            ....|              length: 8 0xbc-0xbf.7 (4)
0x0c0|04 03 00 00                                    |....            |              type: "long" (772) ((signed 64-bit) 8-byte number) 0xc0-0xc3.7 (4)
0x0c0|            1c 9e 08 00 00 00 00 00            |    ........    |              data: 564764 0xc4-0xcb.7 (8)
0x100|                        8c 00 00 00            |        ....    |            offset: 140 0x108-0x10b.7 (4)
     |                                               |                |          [2]{}: element 0xcc-0x10f.7 (68)
     |                                               |                |            record{}: 0xcc-0xdb.7 (16)
0x0c0|                                    08 00 00 00|            ....|              length: 8 0xcc-0xcf.7 (4)
0x0d0|04 03 00 00                                    |....            |              type: "long" (772) ((signed 64-bit) 8-byte number) 0xd0-0xd3.7 (4)
0x0d0|            44 37 12 00 00 00 00 00            |    D7......    |              data: 1193796 0xd4-0xdb.7 (8)
0x100|                                    9c 00 00 00|            ....|            offset: 156 0x10c-0x10f.7 (4)
     |                                               |                |          [3]{}: element 0xdc-0x113.7 (56)
     |                                               |                |            record{}: 0xdc-0xeb.7 (16)
0x0d0|                                    08 00 00 00|            ....|              length: 8 0xdc-0xdf.7 (4)
0x0e0|04 03 00 00                                    |....            |              type: "long" (772) ((signed 64-bit) 8-byte number) 0xe0-0xe3.7 (4)
0x0e0|            9f 15 15 00 00 00 00 00            |    ........    |              data: 1381791 0xe4-0xeb.7 (8)
0x110|ac 00 00 00                                    |....            |            offset: 172 0x110-0x113.7 (4)
     |                                               |                |          [4]{}: element 0xec-0x117.7 (44)
     |                                               |                |            record{}: 0xec-0xfb.7 (16)
0x0e0|                                    08 00 00 00|            ....|              length: 8 0xec-0xef.7 (4)
0x0f0|04 03 00 00                                    |....            |              type: "long" (772) ((signed 64-bit) 8-byte number) 0xf0-0xf3.7 (4)
0x0f0|            53 f0 f9 01 00 00 00 00            |    S.......    |              data: 33157203 0xf4-0xfb.7 (8)
0x110|            bc 00 00 00                        |    ....        |            offset: 188 0x114-0x117.7 (4)
0x0f0|                                    14 00 00 00|            ....|        length: 20 0xfc-0xff.7 (4)
0x100|01 06 00 00                                    |....            |        type: "array" (1537) (Array of 4-byte offsets to data items) 0x100-0x103.7 (4)
0x220|                        05 10 00 00            |        ....    |      key: "target_cnid_path" (4101) (Array of CNIDs) 0x228-0x22b.7 (4)
0x220|                                    cc 00 00 00|            ....|      offset_to_record: 204 0x22c-0x22f.7 (4)
     |                                               |                |    [2]{}: entry 0x128-0x23b.7 (276)
     |                                               |                |      record{}: 0x128-0x147.7 (32)
0x120|                        18 00 00 00            |        ....    |        length: 24 (valid) 0x128-0x12b.7 (4)
0x120|                                    01 02 00 00|            ....|        raw_type: "data" (513) (valid) 0x12c-0x12f.7 (4)
     |                                               |                |        type: "flag_data" 0x130-NA (0)
     |                                               |                |        property_flags{}: 0x130-0x132 (2.1)
0x130|02                                             |.               |          is_regular_file: false 0x130-0x130 (0.1)
0x130|02                                             |.               |          is_directory: false 0x130.1-0x130.1 (0.1)
0x130|02                                             |.               |          is_symbolic_link: false 0x130.2-0x130.2 (0.1)
0x130|02                                             |.               |          is_volume: false 0x130.3-0x130.3 (0.1)
0x130|02                                             |.               |          is_package: false 0x130.4-0x130.4 (0.1)
0x130|02                                             |.               |          is_system_immutable: false 0x130.5-0x130.5 (0.1)
0x130|02                                             |.               |          is_user_immutable: true 0x130.6-0x130.6 (0.1)
0x130|02                                             |.               |          is_hidden: false 0x130.7-0x130.7 (0.1)
0x130|   00                                          | .              |          has_hidden_extension: false 0x131-0x131 (0.1)
0x130|   00                                          | .              |          is_application: false 0x131.1-0x131.1 (0.1)
0x130|   00                                          | .              |          is_compressed: false 0x131.2-0x131.2 (0.1)
0x130|   00                                          | .              |          can_set_hidden_extension: false 0x131.3-0x131.3 (0.1)
0x130|   00                                          | .              |          is_readable: false 0x131.4-0x131.4 (0.1)
0x130|   00                                          | .              |          is_writeable: false 0x131.5-0x131.5 (0.1)
0x130|   00                                          | .              |          is_executable: false 0x131.6-0x131.6 (0.1)
0x130|   00                                          | .              |          is_alias_file: false 0x131.7-0x131.7 (0.1)
0x130|      00                                       |  .             |          is_mount_trigger: false 0x132-0x132 (0.1)
     |                                               |                |        enabled_property_flags{}: 0x138-0x13a (2.1)
0x130|                        1f                     |        .       |          is_regular_file: false 0x138-0x138 (0.1)
0x130|                        1f                     |        .       |          is_directory: false 0x138.1-0x138.1 (0.1)
0x130|                        1f                     |        .       |          is_symbolic_link: false 0x138.2-0x138.2 (0.1)
0x130|                        1f                     |        .       |          is_volume: true 0x138.3-0x138.3 (0.1)
0x130|                        1f                     |        .       |          is_package: true 0x138.4-0x138.4 (0.1)
0x130|                        1f                     |        .       |          is_system_immutable: true 0x138.5-0x138.5 (0.1)
0x130|                        1f                     |        .       |          is_user_immutable: true 0x138.6-0x138.6 (0.1)
0x130|                        1f                     |        .       |          is_hidden: true 0x138.7-0x138.7 (0.1)
0x130|                           02                  |         .      |          has_hidden_extension: false 0x139-0x139 (0.1)
0x130|                           02                  |         .      |          is_application: false 0x139.1-0x139.1 (0.1)
0x130|                           02                  |         .      |          is_compressed: false 0x139.2-0x139.2 (0.1)
0x130|                           02                  |         .      |          can_set_hidden_extension: false 0x139.3-0x139.3 (0.1)
0x130|                           02                  |         .      |          is_readable: false 0x139.4-0x139.4 (0.1)
0x130|                           02                  |         .      |          is_writeable: false 0x139.5-0x139.5 (0.1)
0x130|                           02                  |         .      |          is_executable: true 0x139.6-0x139.6 (0.1)
0x130|                           02                  |         .      |          is_alias_file: false 0x139.7-0x139.7 (0.1)
0x130|                              00               |          .     |          is_mount_trigger: false 0x13a-0x13a (0.1)
0x140|1a 02 00 00 00 00 00 00                        |........        |        reserved: raw bits 0x140-0x147.7 (8)
0x230|            10 10 00 00                        |    ....        |      key: "target_flags" (4112) (flag bitfield) 0x234-0x237.7 (4)
0x230|                        f8 00 00 00            |        ....    |      offset_to_record: 248 0x238-0x23b.7 (4)
     |                                               |                |    [3]{}: entry 0x118-0x247.7 (304)
     |                                               |                |      record{}: 0x118-0x127.7 (16)
0x110|                        08 00 00 00            |        ....    |        length: 8 0x118-0x11b.7 (4)
0x110|                                    00 04 00 00|            ....|        type: "date" (1024) (Big-endian IEEE double precision seconds since 2001-01-01 00:00:00 UTC) 0x11c-0x11f.7 (4)
0x120|41 c3 ff 97 6f 07 8e 98                        |A...o...        |        data: 6.710351020590391e+08 (2022-04-07T14:38:22Z) 0x120-0x127.7 (8)
0x240|40 10 00 00                                    |@...            |      key: "target_creation_date" (4160) (Date) 0x240-0x243.7 (4)
0x240|            e8 00 00 00                        |    ....        |      offset_to_record: 232 0x244-0x247.7 (4)
     |                                               |                |    [4]{}: entry 0x1f4-0x253.7 (96)
     |                                               |                |      record{}: 0x1f4-0x1fc.7 (9)
0x1f0|            01 00 00 00                        |    ....        |        length: 1 0x1f4-0x1f7.7 (4)
0x1f0|                        01 01 00 00            |        ....    |        type: "string" (257) (UTF-8 String) 0x1f8-0x1fb.7 (4)
0x1f0|                                    2f         |            /   |        data: "/" 0x1fc-0x1fc.7 (1)
0x240|                                    02 20 00 00|            . ..|      key: "volume_path" (8194) (Array of individual path components) 0x24c-0x24f.7 (4)
0x250|c4 01 00 00                                    |....            |      offset_to_record: 452 0x250-0x253.7 (4)
     |                                               |                |    [5]{}: entry 0x164-0x25f.7 (252)
     |                                               |                |      record{}: 0x164-0x173.7 (16)
0x160|            08 00 00 00                        |    ....        |        length: 8 0x164-0x167.7 (4)
0x160|                        01 09 00 00            |        ....    |        type: "url" (2305) (UTF-8 string) 0x168-0x16b.7 (4)
0x160|                                    66 69 6c 65|            file|        data: "file:///" 0x16c-0x173.7 (8)
0x170|3a 2f 2f 2f                                    |:///            |
0x250|                        05 20 00 00            |        . ..    |      key: "volume_url" (8197) (URL of volume root) 0x258-0x25b.7 (4)
0x250|                                    34 01 00 00|            4...|      offset_to_record: 308 0x25c-0x25f.7 (4)
     |                                               |                |    [6]{}: entry 0x174-0x26b.7 (248)
     |                                               |                |      record{}: 0x174-0x187.7 (20)
0x170|            0c 00 00 00                        |    ....        |        length: 12 0x174-0x177.7 (4)
0x170|                        01 01 00 00            |        ....    |        type: "string" (257) (UTF-8 String) 0x178-0x17b.7 (4)
0x170|                                    4d 61 63 69|            Maci|        data: "Macintosh HD" 0x17c-0x187.7 (12)
0x180|6e 74 6f 73 68 20 48 44                        |ntosh HD        |
0x260|            10 20 00 00                        |    . ..        |      key: "volume_name" (8208) (String) 0x264-0x267.7 (4)
0x260|                        44 01 00 00            |        D...    |      offset_to_record: 324 0x268-0x26b.7 (4)
     |                                               |                |    [7]{}: entry 0x1a8-0x277.7 (208)
     |                                               |                |      record{}: 0x1a8-0x1d3.7 (44)
0x1a0|                        24 00 00 00            |        $...    |        length: 36 0x1a8-0x1ab.7 (4)
0x1a0|                                    01 01 00 00|            ....|        type: "string" (257) (UTF-8 String) 0x1ac-0x1af.7 (4)
0x1b0|38 41 38 32 39 41 30 33 2d 39 42 32 34 2d 34 30|8A829A03-9B24-40|        data: "8A829A03-9B24-4085-8051-18978712E4BE" 0x1b0-0x1d3.7 (36)
*    |until 0x1d3.7 (36)                             |                |
0x270|11 20 00 00                                    |. ..            |      key: "volume_uuid" (8209) (String UUID) 0x270-0x273.7 (4)
0x270|            78 01 00 00                        |    x...        |      offset_to_record: 376 0x274-0x277.7 (4)
     |                                               |                |    [8]{}: entry 0x188-0x283.7 (252)
     |                                               |                |      record{}: 0x188-0x197.7 (16)
0x180|                        08 00 00 00            |        ....    |        length: 8 0x188-0x18b.7 (4)
0x180|                                    04 03 00 00|            ....|        type: "long" (772) ((signed 64-bit) 8-byte number) 0x18c-0x18f.7 (4)
0x190|00 a0 20 68 74 00 00 00                        |.. ht...        |        data: 499963174912 0x190-0x197.7 (8)
0x270|                                    12 20 00 00|            . ..|      key: "volume_size" (8210) (8-byte integer) 0x27c-0x27f.7 (4)
0x280|58 01 00 00                                    |X...            |      offset_to_record: 344 0x280-0x283.7 (4)
     |                                               |                |    [9]{}: entry 0x198-0x28f.7 (248)
     |                                               |                |      record{}: 0x198-0x1a7.7 (16)
0x190|                        08 00 00 00            |        ....    |        length: 8 0x198-0x19b.7 (4)
0x190|                                    00 04 00 00|            ....|        type: "date" (1024) (Big-endian IEEE double precision seconds since 2001-01-01 00:00:00 UTC) 0x19c-0x19f.7 (4)
0x1a0|41 c1 de 44 80 00 00 00                        |A..D....        |        data: 5.995584e+08 (2020-01-01T08:00:00Z) 0x1a0-0x1a7.7 (8)
0x280|                        13 20 00 00            |        . ..    |      key: "volume_creation_date" (8211) (Date) 0x288-0x28b.7 (4)
0x280|                                    68 01 00 00|            h...|      offset_to_record: 360 0x28c-0x28f.7 (4)
     |                                               |                |    [10]{}: entry 0x1d4-0x29b.7 (200)
     |                                               |                |      record{}: 0x1d4-0x1f3.7 (32)
0x1d0|            18 00 00 00                        |    ....        |        length: 24 (valid) 0x1d4-0x1d7.7 (4)
0x1d0|                        01 02 00 00            |        ....    |        raw_type: "data" (513) (valid) 0x1d8-0x1db.7 (4)
     |                                               |                |        type: "flag_data" 0x1dc-NA (0)
     |                                               |                |        property_flags{}: 0x1dc-0x1e1.6 (5.7)
0x1d0|                                    81         |            .   |          is_local: true 0x1dc-0x1dc (0.1)
0x1d0|                                    81         |            .   |          is_automount: false 0x1dc.1-0x1dc.1 (0.1)
0x1d0|                                    81         |            .   |          dont_browse: false 0x1dc.2-0x1dc.2 (0.1)
0x1d0|                                    81         |            .   |          is_read_only: false 0x1dc.3-0x1dc.3 (0.1)
0x1d0|                                    81         |            .   |          is_quarantined: false 0x1dc.4-0x1dc.4 (0.1)
0x1d0|                                    81         |            .   |          is_ejectable: false 0x1dc.5-0x1dc.5 (0.1)
0x1d0|                                    81         |            .   |          is_removable: false 0x1dc.6-0x1dc.6 (0.1)
0x1d0|                                    81         |            .   |          is_internal: true 0x1dc.7-0x1dc.7 (0.1)
0x1d0|                                       00      |             .  |          is_external: false 0x1dd-0x1dd (0.1)
0x1d0|                                       00      |             .  |          is_disk_image: false 0x1dd.1-0x1dd.1 (0.1)
0x1d0|                                       00      |             .  |          is_file_vault: false 0x1dd.2-0x1dd.2 (0.1)
0x1d0|                                       00      |             .  |          is_local_idisk_mirror: false 0x1dd.3-0x1dd.3 (0.1)
0x1d0|                                       00      |             .  |          is_ipod: false 0x1dd.4-0x1dd.4 (0.1)
0x1d0|                                       00      |             .  |          is_idisk: false 0x1dd.5-0x1dd.5 (0.1)
0x1d0|                                       00      |             .  |          is_cd: false 0x1dd.6-0x1dd.6 (0.1)
0x1d0|                                       00      |             .  |          is_dvd: false 0x1dd.7-0x1dd.7 (0.1)
0x1d0|                                          00   |              . |          is_device_file_system: false 0x1de-0x1de (0.1)
0x1d0|                                          00   |              . |          supports_persistent_ids: false 0x1de.1-0x1de.1 (0.1)
0x1d0|                                          00   |              . |          supports_search_fs: false 0x1de.2-0x1de.2 (0.1)
0x1d0|                                          00   |              . |          supports_exchange: false 0x1de.3-0x1de.3 (0.1)
0x1d0|                                          00   |              . |          reserved_0: false 0x1de.4-0x1de.4 (0.1)
0x1d0|                                          00   |              . |          supports_symbolic_links: false 0x1de.5-0x1de.5 (0.1)
0x1d0|                                          00   |              . |          supports_deny_modes: false 0x1de.6-0x1de.6 (0.1)
0x1d0|                                          00   |              . |          supports_copy_file: false 0x1de.7-0x1de.7 (0.1)
0x1d0|                                             00|               .|          supports_read_dir_attr: false 0x1df-0x1df (0.1)
0x1d0|                                             00|               .|          supports_journaling: false 0x1df.1-0x1df.1 (0.1)
0x1d0|                                             00|               .|          supports_rename: false 0x1df.2-0x1df.2 (0.1)
0x1d0|                                             00|               .|          supports_fast_stat_fs: false 0x1df.3-0x1df.3 (0.1)
0x1d0|                                             00|               .|          supports_case_sensitive_names: false 0x1df.4-0x1df.4 (0.1)
0x1d0|                                             00|               .|          supports_case_preserved_names: false 0x1df.5-0x1df.5 (0.1)
0x1d0|                                             00|               .|          supports_flock: false 0x1df.6-0x1df.6 (0.1)
0x1d0|                                             00|               .|          has_no_root_directory_times: false 0x1df.7-0x1df.7 (0.1)
0x1e0|01                                             |.               |          supports_extended_security: false 0x1e0-0x1e0 (0.1)
0x1e0|01                                             |.               |          supports_2_tb_file_size: false 0x1e0.1-0x1e0.1 (0.1)
0x1e0|01                                             |.               |          supports_hard_links: false 0x1e0.2-0x1e0.2 (0.1)
0x1e0|01                                             |.               |          supports_mandatory_byte_range_locks: false 0x1e0.3-0x1e0.3 (0.1)
0x1e0|01                                             |.               |          supports_path_from_id: false 0x1e0.4-0x1e0.4 (0.1)
0x1e0|01                                             |.               |          reserved_1: false 0x1e0.5-0x1e0.5 (0.1)
0x1e0|01                                             |.               |          is_journaling: false 0x1e0.6-0x1e0.6 (0.1)
0x1e0|01                                             |.               |          supports_sparse_files: true 0x1e0.7-0x1e0.7 (0.1)
0x1e0|   00                                          | .              |          supports_zero_runs: false 0x1e1-0x1e1 (0.1)
0x1e0|   00                                          | .              |          supports_volume_sizes: false 0x1e1.1-0x1e1.1 (0.1)
0x1e0|   00                                          | .              |          supports_remote_events: false 0x1e1.2-0x1e1.2 (0.1)
0x1e0|   00                                          | .              |          supports_hidden_files: false 0x1e1.3-0x1e1.3 (0.1)
0x1e0|   00                                          | .              |          supports_decmp_fs_compression: false 0x1e1.4-0x1e1.4 (0.1)
0x1e0|   00                                          | .              |          has64_bit_object_ids: false 0x1e1.5-0x1e1.5 (0.1)
0x1e0|   00                                          | .              |          property_flags_all: false 0x1e1.6-0x1e1.6 (0.1)
     |                                               |                |        enabled_property_flags{}: 0x1e4-0x1e9.6 (5.7)
0x1e0|            ef                                 |    .           |          is_local: true 0x1e4-0x1e4 (0.1)
0x1e0|            ef                                 |    .           |          is_automount: true 0x1e4.1-0x1e4.1 (0.1)
0x1e0|            ef                                 |    .           |          dont_browse: true 0x1e4.2-0x1e4.2 (0.1)
0x1e0|            ef                                 |    .           |          is_read_only: false 0x1e4.3-0x1e4.3 (0.1)
0x1e0|            ef                                 |    .           |          is_quarantined: true 0x1e4.4-0x1e4.4 (0.1)
0x1e0|            ef                                 |    .           |          is_ejectable: true 0x1e4.5-0x1e4.5 (0.1)
0x1e0|            ef                                 |    .           |          is_removable: true 0x1e4.6-0x1e4.6 (0.1)
0x1e0|            ef                                 |    .           |          is_internal: true 0x1e4.7-0x1e4.7 (0.1)
0x1e0|               13                              |     .          |          is_external: false 0x1e5-0x1e5 (0.1)
0x1e0|               13                              |     .          |          is_disk_image: false 0x1e5.1-0x1e5.1 (0.1)
0x1e0|               13                              |     .          |          is_file_vault: false 0x1e5.2-0x1e5.2 (0.1)
0x1e0|               13                              |     .          |          is_local_idisk_mirror: true 0x1e5.3-0x1e5.3 (0.1)
0x1e0|               13                              |     .          |          is_ipod: false 0x1e5.4-0x1e5.4 (0.1)
0x1e0|               13                              |     .          |          is_idisk: false 0x1e5.5-0x1e5.5 (0.1)
0x1e0|               13                              |     .          |          is_cd: true 0x1e5.6-0x1e5.6 (0.1)
0x1e0|               13                              |     .          |          is_dvd: true 0x1e5.7-0x1e5.7 (0.1)
0x1e0|                  00                           |      .         |          is_device_file_system: false 0x1e6-0x1e6 (0.1)
0x1e0|                  00                           |      .         |          supports_persistent_ids: false 0x1e6.1-0x1e6.1 (0.1)
0x1e0|                  00                           |      .         |          supports_search_fs: false 0x1e6.2-0x1e6.2 (0.1)
0x1e0|                  00                           |      .         |          supports_exchange: false 0x1e6.3-0x1e6.3 (0.1)
0x1e0|                  00                           |      .         |          reserved_0: false 0x1e6.4-0x1e6.4 (0.1)
0x1e0|                  00                           |      .         |          supports_symbolic_links: false 0x1e6.5-0x1e6.5 (0.1)
0x1e0|                  00                           |      .         |          supports_deny_modes: false 0x1e6.6-0x1e6.6 (0.1)
0x1e0|                  00                           |      .         |          supports_copy_file: false 0x1e6.7-0x1e6.7 (0.1)
0x1e0|                     00                        |       .        |          supports_read_dir_attr: false 0x1e7-0x1e7 (0.1)
0x1e0|                     00                        |       .        |          supports_journaling: false 0x1e7.1-0x1e7.1 (0.1)
0x1e0|                     00                        |       .        |          supports_rename: false 0x1e7.2-0x1e7.2 (0.1)
0x1e0|                     00                        |       .        |          supports_fast_stat_fs: false 0x1e7.3-0x1e7.3 (0.1)
0x1e0|                     00                        |       .        |          supports_case_sensitive_names: false 0x1e7.4-0x1e7.4 (0.1)
0x1e0|                     00                        |       .        |          supports_case_preserved_names: false 0x1e7.5-0x1e7.5 (0.1)
0x1e0|                     00                        |       .        |          supports_flock: false 0x1e7.6-0x1e7.6 (0.1)
0x1e0|                     00                        |       .        |          has_no_root_directory_times: false 0x1e7.7-0x1e7.7 (0.1)
0x1e0|                        01                     |        .       |          supports_extended_security: false 0x1e8-0x1e8 (0.1)
0x1e0|                        01                     |        .       |          supports_2_tb_file_size: false 0x1e8.1-0x1e8.1 (0.1)
0x1e0|                        01                     |        .       |          supports_hard_links: false 0x1e8.2-0x1e8.2 (0.1)
0x1e0|                        01                     |        .       |          supports_mandatory_byte_range_locks: false 0x1e8.3-0x1e8.3 (0.1)
0x1e0|                        01                     |        .       |          supports_path_from_id: false 0x1e8.4-0x1e8.4 (0.1)
0x1e0|                        01                     |        .       |          reserved_1: false 0x1e8.5-0x1e8.5 (0.1)
0x1e0|                        01                     |        .       |          is_journaling: false 0x1e8.6-0x1e8.6 (0.1)
0x1e0|                        01                     |        .       |          supports_sparse_files: true 0x1e8.7-0x1e8.7 (0.1)
0x1e0|                           00                  |         .      |          supports_zero_runs: false 0x1e9-0x1e9 (0.1)
0x1e0|                           00                  |         .      |          supports_volume_sizes: false 0x1e9.1-0x1e9.1 (0.1)
0x1e0|                           00                  |         .      |          supports_remote_events: false 0x1e9.2-0x1e9.2 (0.1)
0x1e0|                           00                  |         .      |          supports_hidden_files: false 0x1e9.3-0x1e9.3 (0.1)
0x1e0|                           00                  |         .      |          supports_decmp_fs_compression: false 0x1e9.4-0x1e9.4 (0.1)
0x1e0|                           00                  |         .      |          has64_bit_object_ids: false 0x1e9.5-0x1e9.5 (0.1)
0x1e0|                           00                  |         .      |          property_flags_all: false 0x1e9.6-0x1e9.6 (0.1)
0x1e0|                                    00 00 00 00|            ....|        reserved: raw bits 0x1ec-0x1f3.7 (8)
0x1f0|00 00 00 00                                    |....            |
0x290|            20 20 00 00                        |      ..        |      key: "volume_flags" (8224) (flag bitfield) 0x294-0x297.7 (4)
0x290|                        a4 01 00 00            |        ....    |      offset_to_record: 420 0x298-0x29b.7 (4)
     |                                               |                |    [11]{}: entry 0x200-0x2a7.7 (168)
     |                                               |                |      record{}: 0x200-0x207.7 (8)
0x200|00 00 00 00                                    |....            |        length: 0 0x200-0x203.7 (4)
0x200|            01 05 00 00                        |    ....        |        type: "boolean_true" (1281) (True) 0x204-0x207.7 (4)
0x2a0|30 20 00 00                                    |0 ..            |      key: "volume_is_root" (8240) (True if the volume was the filesystem root) 0x2a0-0x2a3.7 (4)
0x2a0|            d0 01 00 00                        |    ....        |      offset_to_record: 464 0x2a4-0x2a7.7 (4)
     |                                               |                |    [12]{}: entry 0x148-0x2b3.7 (364)
     |                                               |                |      record{}: 0x148-0x157.7 (16)
0x140|                        08 00 00 00            |        ....    |        length: 8 0x148-0x14b.7 (4)
0x140|                                    04 03 00 00|            ....|        type: "long" (772) ((signed 64-bit) 8-byte number) 0x14c-0x14f.7 (4)
0x150|03 00 00 00 00 00 00 00                        |........        |        data: 3 0x150-0x157.7 (8)
0x2a0|                                    01 c0 00 00|            ....|      key: "containing_folder_index" (49153) (Integer index of containing folder in target path array) 0x2ac-0x2af.7 (4)
0x2b0|18 01 00 00                                    |....            |      offset_to_record: 280 0x2b0-0x2b3.7 (4)
     |                                               |                |    [13]{}: entry 0x50-0x2bf.7 (624)
     |                                               |                |      record{}: 0x50-0x64.7 (21)
0x050|0d 00 00 00                                    |....            |        length: 13 0x50-0x53.7 (4)
0x050|            01 01 00 00                        |    ....        |        type: "string" (257) (UTF-8 String) 0x54-0x57.7 (4)
0x050|                        64 61 76 69 64 6d 63 64|        davidmcd|        data: "davidmcdonald" 0x58-0x64.7 (13)
0x060|6f 6e 61 6c 64                                 |onald           |
0x2b0|                        11 c0 00 00            |        ....    |      key: "creator_username" (49169) (Name of user that created bookmark) 0x2b8-0x2bb.7 (4)
0x2b0|                                    20 00 00 00|             ...|      offset_to_record: 32 0x2bc-0x2bf.7 (4)
     |                                               |                |    [14]{}: entry 0x158-0x2cb.7 (372)
     |                                               |                |      record{}: 0x158-0x163.7 (12)
0x150|                        04 00 00 00            |        ....    |        length: 4 0x158-0x15b.7 (4)
0x150|                                    03 03 00 00|            ....|        type: "int" (771) ((signed 32-bit) 4-byte number) 0x15c-0x15f.7 (4)
0x160|f5 01 00 00                                    |....            |        data: 501 0x160-0x163.7 (4)
0x2c0|            12 c0 00 00                        |    ....        |      key: "creator_uid" (49170) (UID of user that created bookmark) 0x2c4-0x2c7.7 (4)
0x2c0|                        28 01 00 00            |        (...    |      offset_to_record: 296 0x2c8-0x2cb.7 (4)
     |                                               |                |    [15]{}: entry 0x34-0x2d7.7 (676)
     |                                               |                |      record{}: 0x34-0x3f.7 (12)
0x030|            04 00 00 00                        |    ....        |        length: 4 0x34-0x37.7 (4)
0x030|                        03 03 00 00            |        ....    |        type: "int" (771) ((signed 32-bit) 4-byte number) 0x38-0x3b.7 (4)
0x030|                                    00 00 00 20|            ... |        data: 536870912 0x3c-0x3f.7 (4)
0x2d0|10 d0 00 00                                    |....            |      key: "creation_options" (53264) (Integer containing flags passed to CFURLCreateBookmarkData) 0x2d0-0x2d3.7 (4)
0x2d0|            04 00 00 00                        |    ....        |      offset_to_record: 4 0x2d4-0x2d7.7 (4)
     |                                               |                |    [16]{}: entry 0x80-0x2e3.7 (612)
     |                                               |                |      record{}: 0x80-0x8d.7 (14)
0x080|06 00 00 00                                    |....            |        length: 6 0x80-0x83.7 (4)
0x080|            01 01 00 00                        |    ....        |        type: "string" (257) (UTF-8 String) 0x84-0x87.7 (4)
0x080|                        74 68 65 73 69 73      |        thesis  |        data: "thesis" 0x88-0x8d.7 (6)
0x2d0|                                    17 f0 00 00|            ....|      key: "display_name" (61463) (String) 0x2dc-0x2df.7 (4)
0x2e0|50 00 00 00                                    |P...            |      offset_to_record: 80 0x2e0-0x2e3.7 (4)
     |                                               |                |    [17]{}: entry 0x200-0x2ef.7 (240)
     |                                               |                |      record{}: 0x200-0x207.7 (8)
0x200|00 00 00 00                                    |....            |        length: 0 0x200-0x203.7 (4)
0x200|            01 05 00 00                        |    ....        |        type: "boolean_true" (1281) (True) 0x204-0x207.7 (4)
0x2e0|                        0f 00 0f 00            |        ....    |      key: 983055 0x2e8-0x2eb.7 (4)
0x2e0|                                    d0 01 00 00|            ....|      offset_to_record: 464 0x2ec-0x2ef.7 (4)
0x040|                                       00 00 00|             ...|  unknown0: raw bits 0x4d-0x4f.7 (3)
0x060|               00 00 00                        |     ...        |  unknown1: raw bits 0x65-0x67.7 (3)
0x070|      00 00                                    |  ..            |  unknown2: raw bits 0x72-0x73.7 (2)
0x070|                                             00|               .|  unknown3: raw bits 0x7f-0x7f.7 (1)
0x080|                                          00 00|              ..|  unknown4: raw bits 0x8e-0x8f.7 (2)
0x130|      00 00 00 00 00 00                        |  ......        |  unknown5: raw bits 0x132.1-0x137.7 (5.7)
0x130|                              00 00 00 00 00 00|          ......|  unknown6: raw bits 0x13a.1-0x13f.7 (5.7)
0x1e0|   00 00 00                                    | ...            |  unknown7: raw bits 0x1e1.7-0x1e3.7 (2.1)
0x1e0|                           00 00 00            |         ...    |  unknown8: raw bits 0x1e9.7-0x1eb.7 (2.1)
0x1f0|                                       00 00 00|             ...|  unknown9: raw bits 0x1fd-0x1ff.7 (3)
     |                                               |                |  toc_headers[0:1]: 0x208-0x21b.7 (20)
     |                                               |                |    [0]{}: toc_header 0x208-0x21b.7 (20)
0x200|                        e4 00 00 00            |        ....    |      toc_size: 228 0x208-0x20b.7 (4)
0x200|                                    fe ff ff ff|            ....|      magic: 4294967294 (valid) 0x20c-0x20f.7 (4)
0x210|01 00 00 00                                    |....            |      identifier: 1 0x210-0x213.7 (4)
0x210|            00 00 00 00                        |    ....        |      next_toc_offset: 0 0x214-0x217.7 (4)
0x210|                        12 00 00 00            |        ....    |      num_entries_in_toc: 18 0x218-0x21b.7 (4)
0x220|            00 00 00 00                        |    ....        |  unknown10: raw bits 0x224-0x227.7 (4)
0x230|00 00 00 00                                    |....            |  unknown11: raw bits 0x230-0x233.7 (4)
0x230|                                    00 00 00 00|            ....|  unknown12: raw bits 0x23c-0x23f.7 (4)
0x240|                        00 00 00 00            |        ....    |  unknown13: raw bits 0x248-0x24b.7 (4)
0x250|            00 00 00 00                        |    ....        |  unknown14: raw bits 0x254-0x257.7 (4)
0x260|00 00 00 00                                    |....            |  unknown15: raw bits 0x260-0x263.7 (4)
0x260|                                    00 00 00 00|            ....|  unknown16: raw bits 0x26c-0x26f.7 (4)
0x270|                        00 00 00 00            |        ....    |  unknown17: raw bits 0x278-0x27b.7 (4)
0x280|            00 00 00 00                        |    ....        |  unknown18: raw bits 0x284-0x287.7 (4)
0x290|00 00 00 00                                    |....            |  unknown19: raw bits 0x290-0x293.7 (4)
0x290|                                    00 00 00 00|            ....|  unknown20: raw bits 0x29c-0x29f.7 (4)
0x2a0|                        00 00 00 00            |        ....    |  unknown21: raw bits 0x2a8-0x2ab.7 (4)
0x2b0|            00 00 00 00                        |    ....        |  unknown22: raw bits 0x2b4-0x2b7.7 (4)
0x2c0|00 00 00 00                                    |....            |  unknown23: raw bits 0x2c0-0x2c3.7 (4)
0x2c0|                                    00 00 00 00|            ....|  unknown24: raw bits 0x2cc-0x2cf.7 (4)
0x2d0|                        00 00 00 00            |        ....    |  unknown25: raw bits 0x2d8-0x2db.7 (4)
0x2e0|            00 00 00 00                        |    ....        |  unknown26: raw bits 0x2e4-0x2e7.7 (4)
0x2f0|00 00 00 00|                                   |....|           |  unknown27: raw bits 0x2f0-0x2f3.7 (4)
$ fq torepr sample4.book
{
  "983055": true,
  "containing_folder_index": 3,
  "creation_options": 536870912,
  "creator_uid": 501,
  "creator_username": "davidmcdonald",
  "display_name": "thesis",
  "target_cnid_path": [
    23307,
    564764,
    1193796,
    1381791,
    33157203
  ],
  "target_creation_date": 671035102.0590391,
  "target_flags": {
    "is_executable": false,
    "is_hidden": false,
    "is_package": false,
    "is_system_immutable": false,
    "is_user_immutable": true,
    "is_volume": false
  },
  "target_path": [
    "Users",
    "davidmcdonald",
    "go",
    "src",
    "thesis"
  ],
  "volume_creation_date": 599558400,
  "volume_flags": {
    "dont_browse": false,
    "is_automount": false,
    "is_cd": false,
    "is_dvd": false,
    "is_ejectable": false,
    "is_internal": true,
    "is_local": true,
    "is_local_idisk_mirror": false,
    "is_quarantined": false,
    "is_removable": false,
    "supports_sparse_files": true
  },
  "volume_is_root": true,
  "volume_name": "Macintosh HD",
  "volume_path": "/",
  "volume_size": 499963174912,
  "volume_url": "file:///",
  "volume_uuid": "8A829A03-9B24-4085-8051-18978712E4BE"
}
