$ fq dv sample2.book 
     |00 01 02 03 04 05 06 07 08 09 0a 0b 0c 0d 0e 0f|0123456789abcdef|.{}: sample2.book (apple_bookmark) 0x0-0x2ab.7 (684)
     |                                               |                |  header{}: 0x0-0x2f.7 (48)
0x000|62 6f 6f 6b                                    |book            |    magic: "book" (valid) 0x0-0x3.7 (4)
0x000|            ac 02 00 00                        |    ....        |    total_size: 684 0x4-0x7.7 (4)
0x000|                        00 00 04 10            |        ....    |    unknown: 268697600 0x8-0xb.7 (4)
0x000|                                    30 00 00 00|            0...|    header_size: 48 (valid) 0xc-0xf.7 (4)
0x010|00 00 00 00 00 00 00 00 00 00 00 00 00 00 00 00|................|    reserved: raw bits 0x10-0x2f.7 (32)
0x020|00 00 00 00 00 00 00 00 00 00 00 00 00 00 00 00|................|
0x030|90 01 00 00                                    |....            |  first_toc_offset: 400 0x30-0x33.7 (4)
     |                                               |                |  bookmark_entries[0:18]: 0x34-0x2a7.7 (628)
     |                                               |                |    [0]{}: entry 0x40-0x1db.7 (412)
     |                                               |                |      record{}: 0x40-0x8b.7 (76)
     |                                               |                |        data[0:3]: 0x40-0x8b.7 (76)
     |                                               |                |          [0]{}: element 0x40-0x83.7 (68)
     |                                               |                |            record{}: 0x40-0x4c.7 (13)
0x040|05 00 00 00                                    |....            |              length: 5 0x40-0x43.7 (4)
0x040|            01 01 00 00                        |    ....        |              type: "string" (257) (UTF-8 String) 0x44-0x47.7 (4)
0x040|                        55 73 65 72 73         |        Users   |              data: "Users" 0x48-0x4c.7 (5)
0x080|10 00 00 00                                    |....            |            offset: 16 0x80-0x83.7 (4)
     |                                               |                |          [1]{}: element 0x50-0x87.7 (56)
     |                                               |                |            record{}: 0x50-0x64.7 (21)
0x050|0d 00 00 00                                    |....            |              length: 13 0x50-0x53.7 (4)
0x050|            01 01 00 00                        |    ....        |              type: "string" (257) (UTF-8 String) 0x54-0x57.7 (4)
0x050|                        64 61 76 69 64 6d 63 64|        davidmcd|              data: "davidmcdonald" 0x58-0x64.7 (13)
0x060|6f 6e 61 6c 64                                 |onald           |
0x080|            20 00 00 00                        |     ...        |            offset: 32 0x84-0x87.7 (4)
     |                                               |                |          [2]{}: element 0x68-0x8b.7 (36)
     |                                               |                |            record{}: 0x68-0x76.7 (15)
0x060|                        07 00 00 00            |        ....    |              length: 7 0x68-0x6b.7 (4)
0x060|                                    01 01 00 00|            ....|              type: "string" (257) (UTF-8 String) 0x6c-0x6f.7 (4)
0x070|68 78 73 74 6f 72 65                           |hxstore         |              data: "hxstore" 0x70-0x76.7 (7)
0x080|                        38 00 00 00            |        8...    |            offset: 56 0x88-0x8b.7 (4)
0x070|                        0c 00 00 00            |        ....    |        length: 12 0x78-0x7b.7 (4)
0x070|                                    01 06 00 00|            ....|        type: "array" (1537) (Array of 4-byte offsets to data items) 0x7c-0x7f.7 (4)
0x1d0|            04 10 00 00                        |    ....        |      key: "target_path" (4100) (Array of individual path components) 0x1d4-0x1d7.7 (4)
0x1d0|                        48 00 00 00            |        H...    |      offset_to_record: 72 0x1d8-0x1db.7 (4)
     |                                               |                |    [1]{}: entry 0x8c-0x1e7.7 (348)
     |                                               |                |      record{}: 0x8c-0xcf.7 (68)
     |                                               |                |        data[0:3]: 0x8c-0xcf.7 (68)
     |                                               |                |          [0]{}: element 0x8c-0xc7.7 (60)
     |                                               |                |            record{}: 0x8c-0x9b.7 (16)
0x080|                                    08 00 00 00|            ....|              length: 8 0x8c-0x8f.7 (4)
0x090|04 03 00 00                                    |....            |              type: "long" (772) ((signed 64-bit) 8-byte number) 0x90-0x93.7 (4)
0x090|            0b 5b 00 00 00 00 00 00            |    .[......    |              data: 23307 0x94-0x9b.7 (8)
0x0c0|            5c 00 00 00                        |    \...        |            offset: 92 0xc4-0xc7.7 (4)
     |                                               |                |          [1]{}: element 0x9c-0xcb.7 (48)
     |                                               |                |            record{}: 0x9c-0xab.7 (16)
0x090|                                    08 00 00 00|            ....|              length: 8 0x9c-0x9f.7 (4)
0x0a0|04 03 00 00                                    |....            |              type: "long" (772) ((signed 64-bit) 8-byte number) 0xa0-0xa3.7 (4)
0x0a0|            1c 9e 08 00 00 00 00 00            |    ........    |              data: 564764 0xa4-0xab.7 (8)
0x0c0|                        6c 00 00 00            |        l...    |            offset: 108 0xc8-0xcb.7 (4)
     |                                               |                |          [2]{}: element 0xac-0xcf.7 (36)
     |                                               |                |            record{}: 0xac-0xbb.7 (16)
0x0a0|                                    08 00 00 00|            ....|              length: 8 0xac-0xaf.7 (4)
0x0b0|04 03 00 00                                    |....            |              type: "long" (772) ((signed 64-bit) 8-byte number) 0xb0-0xb3.7 (4)
0x0b0|            c7 c5 44 03 00 00 00 00            |    ..D.....    |              data: 54838727 0xb4-0xbb.7 (8)
0x0c0|                                    7c 00 00 00|            |...|            offset: 124 0xcc-0xcf.7 (4)
0x0b0|                                    0c 00 00 00|            ....|        length: 12 0xbc-0xbf.7 (4)
0x0c0|01 06 00 00                                    |....            |        type: "array" (1537) (Array of 4-byte offsets to data items) 0xc0-0xc3.7 (4)
0x1e0|05 10 00 00                                    |....            |      key: "target_cnid_path" (4101) (Array of CNIDs) 0x1e0-0x1e3.7 (4)
0x1e0|            8c 00 00 00                        |    ....        |      offset_to_record: 140 0x1e4-0x1e7.7 (4)
     |                                               |                |    [2]{}: entry 0xe0-0x1f3.7 (276)
     |                                               |                |      record{}: 0xe0-0xff.7 (32)
0x0e0|18 00 00 00                                    |....            |        length: 24 (valid) 0xe0-0xe3.7 (4)
0x0e0|            01 02 00 00                        |    ....        |        raw_type: "data" (513) (valid) 0xe4-0xe7.7 (4)
     |                                               |                |        type: "flag_data" 0xe8-NA (0)
     |                                               |                |        property_flags{}: 0xe8-0xea (2.1)
0x0e0|                        02                     |        .       |          is_regular_file: false 0xe8-0xe8 (0.1)
0x0e0|                        02                     |        .       |          is_directory: false 0xe8.1-0xe8.1 (0.1)
0x0e0|                        02                     |        .       |          is_symbolic_link: false 0xe8.2-0xe8.2 (0.1)
0x0e0|                        02                     |        .       |          is_volume: false 0xe8.3-0xe8.3 (0.1)
0x0e0|                        02                     |        .       |          is_package: false 0xe8.4-0xe8.4 (0.1)
0x0e0|                        02                     |        .       |          is_system_immutable: false 0xe8.5-0xe8.5 (0.1)
0x0e0|                        02                     |        .       |          is_user_immutable: true 0xe8.6-0xe8.6 (0.1)
0x0e0|                        02                     |        .       |          is_hidden: false 0xe8.7-0xe8.7 (0.1)
0x0e0|                           00                  |         .      |          has_hidden_extension: false 0xe9-0xe9 (0.1)
0x0e0|                           00                  |         .      |          is_application: false 0xe9.1-0xe9.1 (0.1)
0x0e0|                           00                  |         .      |          is_compressed: false 0xe9.2-0xe9.2 (0.1)
0x0e0|                           00                  |         .      |          can_set_hidden_extension: false 0xe9.3-0xe9.3 (0.1)
0x0e0|                           00                  |         .      |          is_readable: false 0xe9.4-0xe9.4 (0.1)
0x0e0|                           00                  |         .      |          is_writeable: false 0xe9.5-0xe9.5 (0.1)
0x0e0|                           00                  |         .      |          is_executable: false 0xe9.6-0xe9.6 (0.1)
0x0e0|                           00                  |         .      |          is_alias_file: false 0xe9.7-0xe9.7 (0.1)
0x0e0|                              00               |          .     |          is_mount_trigger: false 0xea-0xea (0.1)
     |                                               |                |        enabled_property_flags{}: 0xf0-0xf2 (2.1)
0x0f0|1f                                             |.               |          is_regular_file: false 0xf0-0xf0 (0.1)
0x0f0|1f                                             |.               |          is_directory: false 0xf0.1-0xf0.1 (0.1)
0x0f0|1f                                             |.               |          is_symbolic_link: false 0xf0.2-0xf0.2 (0.1)
0x0f0|1f                                             |.               |          is_volume: true 0xf0.3-0xf0.3 (0.1)
0x0f0|1f                                             |.               |          is_package: true 0xf0.4-0xf0.4 (0.1)
0x0f0|1f                                             |.               |          is_system_immutable: true 0xf0.5-0xf0.5 (0.1)
0x0f0|1f                                             |.               |          is_user_immutable: true 0xf0.6-0xf0.6 (0.1)
0x0f0|1f                                             |.               |          is_hidden: true 0xf0.7-0xf0.7 (0.1)
0x0f0|   02                                          | .              |          has_hidden_extension: false 0xf1-0xf1 (0.1)
0x0f0|   02                                          | .              |          is_application: false 0xf1.1-0xf1.1 (0.1)
0x0f0|   02                                          | .              |          is_compressed: false 0xf1.2-0xf1.2 (0.1)
0x0f0|   02                                          | .              |          can_set_hidden_extension: false 0xf1.3-0xf1.3 (0.1)
0x0f0|   02                                          | .              |          is_readable: false 0xf1.4-0xf1.4 (0.1)
0x0f0|   02                                          | .              |          is_writeable: false 0xf1.5-0xf1.5 (0.1)
0x0f0|   02                                          | .              |          is_executable: true 0xf1.6-0xf1.6 (0.1)
0x0f0|   02                                          | .              |          is_alias_file: false 0xf1.7-0xf1.7 (0.1)
0x0f0|      00                                       |  .             |          is_mount_trigger: false 0xf2-0xf2 (0.1)
0x0f0|                        1a 02 00 00 00 00 00 00|        ........|        reserved: raw bits 0xf8-0xff.7 (8)
0x1e0|                                    10 10 00 00|            ....|      key: "target_flags" (4112) (flag bitfield) 0x1ec-0x1ef.7 (4)
0x1f0|b0 00 00 00                                    |....            |      offset_to_record: 176 0x1f0-0x1f3.7 (4)
     |                                               |                |    [3]{}: entry 0xd0-0x1ff.7 (304)
     |                                               |                |      record{}: 0xd0-0xdf.7 (16)
0x0d0|08 00 00 00                                    |....            |        length: 8 0xd0-0xd3.7 (4)
0x0d0|            00 04 00 00                        |    ....        |        type: "date" (1024) (Big-endian IEEE double precision seconds since 2001-01-01 00:00:00 UTC) 0xd4-0xd7.7 (4)
0x0d0|                        41 c4 8a 17 83 4d f0 44|        A....M.D|        data: 6.891886146088948e+08 (2022-11-03T17:16:54Z) 0xd8-0xdf.7 (8)
0x1f0|                        40 10 00 00            |        @...    |      key: "target_creation_date" (4160) (Date) 0x1f8-0x1fb.7 (4)
0x1f0|                                    a0 00 00 00|            ....|      offset_to_record: 160 0x1fc-0x1ff.7 (4)
     |                                               |                |    [4]{}: entry 0x1ac-0x20b.7 (96)
     |                                               |                |      record{}: 0x1ac-0x1b4.7 (9)
0x1a0|                                    01 00 00 00|            ....|        length: 1 0x1ac-0x1af.7 (4)
0x1b0|01 01 00 00                                    |....            |        type: "string" (257) (UTF-8 String) 0x1b0-0x1b3.7 (4)
0x1b0|            2f                                 |    /           |        data: "/" 0x1b4-0x1b4.7 (1)
0x200|            02 20 00 00                        |    . ..        |      key: "volume_path" (8194) (Array of individual path components) 0x204-0x207.7 (4)
0x200|                        7c 01 00 00            |        |...    |      offset_to_record: 380 0x208-0x20b.7 (4)
     |                                               |                |    [5]{}: entry 0x11c-0x217.7 (252)
     |                                               |                |      record{}: 0x11c-0x12b.7 (16)
0x110|                                    08 00 00 00|            ....|        length: 8 0x11c-0x11f.7 (4)
0x120|01 09 00 00                                    |....            |        type: "url" (2305) (UTF-8 string) 0x120-0x123.7 (4)
0x120|            66 69 6c 65 3a 2f 2f 2f            |    file:///    |        data: "file:///" 0x124-0x12b.7 (8)
0x210|05 20 00 00                                    |. ..            |      key: "volume_url" (8197) (URL of volume root) 0x210-0x213.7 (4)
0x210|            ec 00 00 00                        |    ....        |      offset_to_record: 236 0x214-0x217.7 (4)
     |                                               |                |    [6]{}: entry 0x12c-0x223.7 (248)
     |                                               |                |      record{}: 0x12c-0x13f.7 (20)
0x120|                                    0c 00 00 00|            ....|        length: 12 0x12c-0x12f.7 (4)
0x130|01 01 00 00                                    |....            |        type: "string" (257) (UTF-8 String) 0x130-0x133.7 (4)
0x130|            4d 61 63 69 6e 74 6f 73 68 20 48 44|    Macintosh HD|        data: "Macintosh HD" 0x134-0x13f.7 (12)
0x210|                                    10 20 00 00|            . ..|      key: "volume_name" (8208) (String) 0x21c-0x21f.7 (4)
0x220|fc 00 00 00                                    |....            |      offset_to_record: 252 0x220-0x223.7 (4)
     |                                               |                |    [7]{}: entry 0x160-0x22f.7 (208)
     |                                               |                |      record{}: 0x160-0x18b.7 (44)
0x160|24 00 00 00                                    |$...            |        length: 36 0x160-0x163.7 (4)
0x160|            01 01 00 00                        |    ....        |        type: "string" (257) (UTF-8 String) 0x164-0x167.7 (4)
0x160|                        38 41 38 32 39 41 30 33|        8A829A03|        data: "8A829A03-9B24-4085-8051-18978712E4BE" 0x168-0x18b.7 (36)
0x170|2d 39 42 32 34 2d 34 30 38 35 2d 38 30 35 31 2d|-9B24-4085-8051-|
0x180|31 38 39 37 38 37 31 32 45 34 42 45            |18978712E4BE    |
0x220|                        11 20 00 00            |        . ..    |      key: "volume_uuid" (8209) (String UUID) 0x228-0x22b.7 (4)
0x220|                                    30 01 00 00|            0...|      offset_to_record: 304 0x22c-0x22f.7 (4)
     |                                               |                |    [8]{}: entry 0x140-0x23b.7 (252)
     |                                               |                |      record{}: 0x140-0x14f.7 (16)
0x140|08 00 00 00                                    |....            |        length: 8 0x140-0x143.7 (4)
0x140|            04 03 00 00                        |    ....        |        type: "long" (772) ((signed 64-bit) 8-byte number) 0x144-0x147.7 (4)
0x140|                        00 a0 20 68 74 00 00 00|        .. ht...|        data: 499963174912 0x148-0x14f.7 (8)
0x230|            12 20 00 00                        |    . ..        |      key: "volume_size" (8210) (8-byte integer) 0x234-0x237.7 (4)
0x230|                        10 01 00 00            |        ....    |      offset_to_record: 272 0x238-0x23b.7 (4)
     |                                               |                |    [9]{}: entry 0x150-0x247.7 (248)
     |                                               |                |      record{}: 0x150-0x15f.7 (16)
0x150|08 00 00 00                                    |....            |        length: 8 0x150-0x153.7 (4)
0x150|            00 04 00 00                        |    ....        |        type: "date" (1024) (Big-endian IEEE double precision seconds since 2001-01-01 00:00:00 UTC) 0x154-0x157.7 (4)
0x150|                        41 c1 de 44 80 00 00 00|        A..D....|        data: 5.995584e+08 (2020-01-01T08:00:00Z) 0x158-0x15f.7 (8)
0x240|13 20 00 00                                    |. ..            |      key: "volume_creation_date" (8211) (Date) 0x240-0x243.7 (4)
0x240|            20 01 00 00                        |     ...        |      offset_to_record: 288 0x244-0x247.7 (4)
     |                                               |                |    [10]{}: entry 0x18c-0x253.7 (200)
     |                                               |                |      record{}: 0x18c-0x1ab.7 (32)
0x180|                                    18 00 00 00|            ....|        length: 24 (valid) 0x18c-0x18f.7 (4)
0x190|01 02 00 00                                    |....            |        raw_type: "data" (513) (valid) 0x190-0x193.7 (4)
     |                                               |                |        type: "flag_data" 0x194-NA (0)
     |                                               |                |        property_flags{}: 0x194-0x199.6 (5.7)
0x190|            81                                 |    .           |          is_local: true 0x194-0x194 (0.1)
0x190|            81                                 |    .           |          is_automount: false 0x194.1-0x194.1 (0.1)
0x190|            81                                 |    .           |          dont_browse: false 0x194.2-0x194.2 (0.1)
0x190|            81                                 |    .           |          is_read_only: false 0x194.3-0x194.3 (0.1)
0x190|            81                                 |    .           |          is_quarantined: false 0x194.4-0x194.4 (0.1)
0x190|            81                                 |    .           |          is_ejectable: false 0x194.5-0x194.5 (0.1)
0x190|            81                                 |    .           |          is_removable: false 0x194.6-0x194.6 (0.1)
0x190|            81                                 |    .           |          is_internal: true 0x194.7-0x194.7 (0.1)
0x190|               00                              |     .          |          is_external: false 0x195-0x195 (0.1)
0x190|               00                              |     .          |          is_disk_image: false 0x195.1-0x195.1 (0.1)
0x190|               00                              |     .          |          is_file_vault: false 0x195.2-0x195.2 (0.1)
0x190|               00                              |     .          |          is_local_idisk_mirror: false 0x195.3-0x195.3 (0.1)
0x190|               00                              |     .          |          is_ipod: false 0x195.4-0x195.4 (0.1)
0x190|               00                              |     .          |          is_idisk: false 0x195.5-0x195.5 (0.1)
0x190|               00                              |     .          |          is_cd: false 0x195.6-0x195.6 (0.1)
0x190|               00                              |     .          |          is_dvd: false 0x195.7-0x195.7 (0.1)
0x190|                  00                           |      .         |          is_device_file_system: false 0x196-0x196 (0.1)
0x190|                  00                           |      .         |          supports_persistent_ids: false 0x196.1-0x196.1 (0.1)
0x190|                  00                           |      .         |          supports_search_fs: false 0x196.2-0x196.2 (0.1)
0x190|                  00                           |      .         |          supports_exchange: false 0x196.3-0x196.3 (0.1)
0x190|                  00                           |      .         |          reserved_0: false 0x196.4-0x196.4 (0.1)
0x190|                  00                           |      .         |          supports_symbolic_links: false 0x196.5-0x196.5 (0.1)
0x190|                  00                           |      .         |          supports_deny_modes: false 0x196.6-0x196.6 (0.1)
0x190|                  00                           |      .         |          supports_copy_file: false 0x196.7-0x196.7 (0.1)
0x190|                     00                        |       .        |          supports_read_dir_attr: false 0x197-0x197 (0.1)
0x190|                     00                        |       .        |          supports_journaling: false 0x197.1-0x197.1 (0.1)
0x190|                     00                        |       .        |          supports_rename: false 0x197.2-0x197.2 (0.1)
0x190|                     00                        |       .        |          supports_fast_stat_fs: false 0x197.3-0x197.3 (0.1)
0x190|                     00                        |       .        |          supports_case_sensitive_names: false 0x197.4-0x197.4 (0.1)
0x190|                     00                        |       .        |          supports_case_preserved_names: false 0x197.5-0x197.5 (0.1)
0x190|                     00                        |       .        |          supports_flock: false 0x197.6-0x197.6 (0.1)
0x190|                     00                        |       .        |          has_no_root_directory_times: false 0x197.7-0x197.7 (0.1)
0x190|                        01                     |        .       |          supports_extended_security: false 0x198-0x198 (0.1)
0x190|                        01                     |        .       |          supports_2_tb_file_size: false 0x198.1-0x198.1 (0.1)
0x190|                        01                     |        .       |          supports_hard_links: false 0x198.2-0x198.2 (0.1)
0x190|                        01                     |        .       |          supports_mandatory_byte_range_locks: false 0x198.3-0x198.3 (0.1)
0x190|                        01                     |        .       |          supports_path_from_id: false 0x198.4-0x198.4 (0.1)
0x190|                        01                     |        .       |          reserved_1: false 0x198.5-0x198.5 (0.1)
0x190|                        01                     |        .       |          is_journaling: false 0x198.6-0x198.6 (0.1)
0x190|                        01                     |        .       |          supports_sparse_files: true 0x198.7-0x198.7 (0.1)
0x190|                           00                  |         .      |          supports_zero_runs: false 0x199-0x199 (0.1)
0x190|                           00                  |         .      |          supports_volume_sizes: false 0x199.1-0x199.1 (0.1)
0x190|                           00                  |         .      |          supports_remote_events: false 0x199.2-0x199.2 (0.1)
0x190|                           00                  |         .      |          supports_hidden_files: false 0x199.3-0x199.3 (0.1)
0x190|                           00                  |         .      |          supports_decmp_fs_compression: false 0x199.4-0x199.4 (0.1)
0x190|                           00                  |         .      |          has64_bit_object_ids: false 0x199.5-0x199.5 (0.1)
0x190|                           00                  |         .      |          property_flags_all: false 0x199.6-0x199.6 (0.1)
     |                                               |                |        enabled_property_flags{}: 0x19c-0x1a1.6 (5.7)
0x190|                                    ef         |            .   |          is_local: true 0x19c-0x19c (0.1)
0x190|                                    ef         |            .   |          is_automount: true 0x19c.1-0x19c.1 (0.1)
0x190|                                    ef         |            .   |          dont_browse: true 0x19c.2-0x19c.2 (0.1)
0x190|                                    ef         |            .   |          is_read_only: false 0x19c.3-0x19c.3 (0.1)
0x190|                                    ef         |            .   |          is_quarantined: true 0x19c.4-0x19c.4 (0.1)
0x190|                                    ef         |            .   |          is_ejectable: true 0x19c.5-0x19c.5 (0.1)
0x190|                                    ef         |            .   |          is_removable: true 0x19c.6-0x19c.6 (0.1)
0x190|                                    ef         |            .   |          is_internal: true 0x19c.7-0x19c.7 (0.1)
0x190|                                       13      |             .  |          is_external: false 0x19d-0x19d (0.1)
0x190|                                       13      |             .  |          is_disk_image: false 0x19d.1-0x19d.1 (0.1)
0x190|                                       13      |             .  |          is_file_vault: false 0x19d.2-0x19d.2 (0.1)
0x190|                                       13      |             .  |          is_local_idisk_mirror: true 0x19d.3-0x19d.3 (0.1)
0x190|                                       13      |             .  |          is_ipod: false 0x19d.4-0x19d.4 (0.1)
0x190|                                       13      |             .  |          is_idisk: false 0x19d.5-0x19d.5 (0.1)
0x190|                                       13      |             .  |          is_cd: true 0x19d.6-0x19d.6 (0.1)
0x190|                                       13      |             .  |          is_dvd: true 0x19d.7-0x19d.7 (0.1)
0x190|                                          00   |              . |          is_device_file_system: false 0x19e-0x19e (0.1)
0x190|                                          00   |              . |          supports_persistent_ids: false 0x19e.1-0x19e.1 (0.1)
0x190|                                          00   |              . |          supports_search_fs: false 0x19e.2-0x19e.2 (0.1)
0x190|                                          00   |              . |          supports_exchange: false 0x19e.3-0x19e.3 (0.1)
0x190|                                          00   |              . |          reserved_0: false 0x19e.4-0x19e.4 (0.1)
0x190|                                          00   |              . |          supports_symbolic_links: false 0x19e.5-0x19e.5 (0.1)
0x190|                                          00   |              . |          supports_deny_modes: false 0x19e.6-0x19e.6 (0.1)
0x190|                                          00   |              . |          supports_copy_file: false 0x19e.7-0x19e.7 (0.1)
0x190|                                             00|               .|          supports_read_dir_attr: false 0x19f-0x19f (0.1)
0x190|                                             00|               .|          supports_journaling: false 0x19f.1-0x19f.1 (0.1)
0x190|                                             00|               .|          supports_rename: false 0x19f.2-0x19f.2 (0.1)
0x190|                                             00|               .|          supports_fast_stat_fs: false 0x19f.3-0x19f.3 (0.1)
0x190|                                             00|               .|          supports_case_sensitive_names: false 0x19f.4-0x19f.4 (0.1)
0x190|                                             00|               .|          supports_case_preserved_names: false 0x19f.5-0x19f.5 (0.1)
0x190|                                             00|               .|          supports_flock: false 0x19f.6-0x19f.6 (0.1)
0x190|                                             00|               .|          has_no_root_directory_times: false 0x19f.7-0x19f.7 (0.1)
0x1a0|01                                             |.               |          supports_extended_security: false 0x1a0-0x1a0 (0.1)
0x1a0|01                                             |.               |          supports_2_tb_file_size: false 0x1a0.1-0x1a0.1 (0.1)
0x1a0|01                                             |.               |          supports_hard_links: false 0x1a0.2-0x1a0.2 (0.1)
0x1a0|01                                             |.               |          supports_mandatory_byte_range_locks: false 0x1a0.3-0x1a0.3 (0.1)
0x1a0|01                                             |.               |          supports_path_from_id: false 0x1a0.4-0x1a0.4 (0.1)
0x1a0|01                                             |.               |          reserved_1: false 0x1a0.5-0x1a0.5 (0.1)
0x1a0|01                                             |.               |          is_journaling: false 0x1a0.6-0x1a0.6 (0.1)
0x1a0|01                                             |.               |          supports_sparse_files: true 0x1a0.7-0x1a0.7 (0.1)
0x1a0|   00                                          | .              |          supports_zero_runs: false 0x1a1-0x1a1 (0.1)
0x1a0|   00                                          | .              |          supports_volume_sizes: false 0x1a1.1-0x1a1.1 (0.1)
0x1a0|   00                                          | .              |          supports_remote_events: false 0x1a1.2-0x1a1.2 (0.1)
0x1a0|   00                                          | .              |          supports_hidden_files: false 0x1a1.3-0x1a1.3 (0.1)
0x1a0|   00                                          | .              |          supports_decmp_fs_compression: false 0x1a1.4-0x1a1.4 (0.1)
0x1a0|   00                                          | .              |          has64_bit_object_ids: false 0x1a1.5-0x1a1.5 (0.1)
0x1a0|   00                                          | .              |          property_flags_all: false 0x1a1.6-0x1a1.6 (0.1)
0x1a0|            00 00 00 00 00 00 00 00            |    ........    |        reserved: raw bits 0x1a4-0x1ab.7 (8)
0x240|                                    20 20 00 00|              ..|      key: "volume_flags" (8224) (flag bitfield) 0x24c-0x24f.7 (4)
0x250|5c 01 00 00                                    |\...            |      offset_to_record: 348 0x250-0x253.7 (4)
     |                                               |                |    [11]{}: entry 0x1b8-0x25f.7 (168)
     |                                               |                |      record{}: 0x1b8-0x1bf.7 (8)
0x1b0|                        00 00 00 00            |        ....    |        length: 0 0x1b8-0x1bb.7 (4)
0x1b0|                                    01 05 00 00|            ....|        type: "boolean_true" (1281) (True) 0x1bc-0x1bf.7 (4)
0x250|                        30 20 00 00            |        0 ..    |      key: "volume_is_root" (8240) (True if the volume was the filesystem root) 0x258-0x25b.7 (4)
0x250|                                    88 01 00 00|            ....|      offset_to_record: 392 0x25c-0x25f.7 (4)
     |                                               |                |    [12]{}: entry 0x100-0x26b.7 (364)
     |                                               |                |      record{}: 0x100-0x10f.7 (16)
0x100|08 00 00 00                                    |....            |        length: 8 0x100-0x103.7 (4)
0x100|            04 03 00 00                        |    ....        |        type: "long" (772) ((signed 64-bit) 8-byte number) 0x104-0x107.7 (4)
0x100|                        01 00 00 00 00 00 00 00|        ........|        data: 1 0x108-0x10f.7 (8)
0x260|            01 c0 00 00                        |    ....        |      key: "containing_folder_index" (49153) (Integer index of containing folder in target path array) 0x264-0x267.7 (4)
0x260|                        d0 00 00 00            |        ....    |      offset_to_record: 208 0x268-0x26b.7 (4)
     |                                               |                |    [13]{}: entry 0x50-0x277.7 (552)
     |                                               |                |      record{}: 0x50-0x64.7 (21)
0x050|0d 00 00 00                                    |....            |        length: 13 0x50-0x53.7 (4)
0x050|            01 01 00 00                        |    ....        |        type: "string" (257) (UTF-8 String) 0x54-0x57.7 (4)
0x050|                        64 61 76 69 64 6d 63 64|        davidmcd|        data: "davidmcdonald" 0x58-0x64.7 (13)
0x060|6f 6e 61 6c 64                                 |onald           |
0x270|11 c0 00 00                                    |....            |      key: "creator_username" (49169) (Name of user that created bookmark) 0x270-0x273.7 (4)
0x270|            20 00 00 00                        |     ...        |      offset_to_record: 32 0x274-0x277.7 (4)
     |                                               |                |    [14]{}: entry 0x110-0x283.7 (372)
     |                                               |                |      record{}: 0x110-0x11b.7 (12)
0x110|04 00 00 00                                    |....            |        length: 4 0x110-0x113.7 (4)
0x110|            03 03 00 00                        |    ....        |        type: "int" (771) ((signed 32-bit) 4-byte number) 0x114-0x117.7 (4)
0x110|                        f5 01 00 00            |        ....    |        data: 501 0x118-0x11b.7 (4)
0x270|                                    12 c0 00 00|            ....|      key: "creator_uid" (49170) (UID of user that created bookmark) 0x27c-0x27f.7 (4)
0x280|e0 00 00 00                                    |....            |      offset_to_record: 224 0x280-0x283.7 (4)
     |                                               |                |    [15]{}: entry 0x34-0x28f.7 (604)
     |                                               |                |      record{}: 0x34-0x3f.7 (12)
0x030|            04 00 00 00                        |    ....        |        length: 4 0x34-0x37.7 (4)
0x030|                        03 03 00 00            |        ....    |        type: "int" (771) ((signed 32-bit) 4-byte number) 0x38-0x3b.7 (4)
0x030|                                    00 00 00 20|            ... |        data: 536870912 0x3c-0x3f.7 (4)
0x280|                        10 d0 00 00            |        ....    |      key: "creation_options" (53264) (Integer containing flags passed to CFURLCreateBookmarkData) 0x288-0x28b.7 (4)
0x280|                                    04 00 00 00|            ....|      offset_to_record: 4 0x28c-0x28f.7 (4)
     |                                               |                |    [16]{}: entry 0x68-0x29b.7 (564)
     |                                               |                |      record{}: 0x68-0x76.7 (15)
0x060|                        07 00 00 00            |        ....    |        length: 7 0x68-0x6b.7 (4)
0x060|                                    01 01 00 00|            ....|        type: "string" (257) (UTF-8 String) 0x6c-0x6f.7 (4)
0x070|68 78 73 74 6f 72 65                           |hxstore         |        data: "hxstore" 0x70-0x76.7 (7)
0x290|            17 f0 00 00                        |    ....        |      key: "display_name" (61463) (String) 0x294-0x297.7 (4)
0x290|                        38 00 00 00            |        8...    |      offset_to_record: 56 0x298-0x29b.7 (4)
     |                                               |                |    [17]{}: entry 0x1b8-0x2a7.7 (240)
     |                                               |                |      record{}: 0x1b8-0x1bf.7 (8)
0x1b0|                        00 00 00 00            |        ....    |        length: 0 0x1b8-0x1bb.7 (4)
0x1b0|                                    01 05 00 00|            ....|        type: "boolean_true" (1281) (True) 0x1bc-0x1bf.7 (4)
0x2a0|0f 00 0f 00                                    |....            |      key: 983055 0x2a0-0x2a3.7 (4)
0x2a0|            88 01 00 00                        |    ....        |      offset_to_record: 392 0x2a4-0x2a7.7 (4)
0x040|                                       00 00 00|             ...|  unknown0: raw bits 0x4d-0x4f.7 (3)
0x060|               00 00 00                        |     ...        |  unknown1: raw bits 0x65-0x67.7 (3)
0x070|                     00                        |       .        |  unknown2: raw bits 0x77-0x77.7 (1)
0x0e0|                              00 00 00 00 00 00|          ......|  unknown3: raw bits 0xea.1-0xef.7 (5.7)
0x0f0|      00 00 00 00 00 00                        |  ......        |  unknown4: raw bits 0xf2.1-0xf7.7 (5.7)
0x190|                           00 00 00            |         ...    |  unknown5: raw bits 0x199.7-0x19b.7 (2.1)
0x1a0|   00 00 00                                    | ...            |  unknown6: raw bits 0x1a1.7-0x1a3.7 (2.1)
0x1b0|               00 00 00                        |     ...        |  unknown7: raw bits 0x1b5-0x1b7.7 (3)
     |                                               |                |  toc_headers[0:1]: 0x1c0-0x1d3.7 (20)
     |                                               |                |    [0]{}: toc_header 0x1c0-0x1d3.7 (20)
0x1c0|e4 00 00 00                                    |....            |      toc_size: 228 0x1c0-0x1c3.7 (4)
0x1c0|            fe ff ff ff                        |    ....        |      magic: 4294967294 (valid) 0x1c4-0x1c7.7 (4)
0x1c0|                        01 00 00 00            |        ....    |      identifier: 1 0x1c8-0x1cb.7 (4)
0x1c0|                                    00 00 00 00|            ....|      next_toc_offset: 0 0x1cc-0x1cf.7 (4)
0x1d0|12 00 00 00                                    |....            |      num_entries_in_toc: 18 0x1d0-0x1d3.7 (4)
0x1d0|                                    00 00 00 00|            ....|  unknown8: raw bits 0x1dc-0x1df.7 (4)
0x1e0|                        00 00 00 00            |        ....    |  unknown9: raw bits 0x1e8-0x1eb.7 (4)
0x1f0|            00 00 00 00                        |    ....        |  unknown10: raw bits 0x1f4-0x1f7.7 (4)
0x200|00 00 00 00                                    |....            |  unknown11: raw bits 0x200-0x203.7 (4)
0x200|                                    00 00 00 00|            ....|  unknown12: raw bits 0x20c-0x20f.7 (4)
0x210|                        00 00 00 00            |        ....    |  unknown13: raw bits 0x218-0x21b.7 (4)
0x220|            00 00 00 00                        |    ....        |  unknown14: raw bits 0x224-0x227.7 (4)
0x230|00 00 00 00                                    |....            |  unknown15: raw bits 0x230-0x233.7 (4)
0x230|                                    00 00 00 00|            ....|  unknown16: raw bits 0x23c-0x23f.7 (4)
0x240|                        00 00 00 00            |        ....    |  unknown17: raw bits 0x248-0x24b.7 (4)
0x250|            00 00 00 00                        |    ....        |  unknown18: raw bits 0x254-0x257.7 (4)
0x260|00 00 00 00                                    |....            |  unknown19: raw bits 0x260-0x263.7 (4)
0x260|                                    00 00 00 00|            ....|  unknown20: raw bits 0x26c-0x26f.7 (4)
0x270|                        00 00 00 00            |        ....    |  unknown21: raw bits 0x278-0x27b.7 (4)
0x280|            00 00 00 00                        |    ....        |  unknown22: raw bits 0x284-0x287.7 (4)
0x290|00 00 00 00                                    |....            |  unknown23: raw bits 0x290-0x293.7 (4)
0x290|                                    00 00 00 00|            ....|  unknown24: raw bits 0x29c-0x29f.7 (4)
0x2a0|                        00 00 00 00|           |        ....|   |  unknown25: raw bits 0x2a8-0x2ab.7 (4)
$ fq torepr sample2.book
{
  "983055": true,
  "containing_folder_index": 1,
  "creation_options": 536870912,
  "creator_uid": 501,
  "creator_username": "davidmcdonald",
  "display_name": "hxstore",
  "target_cnid_path": [
    23307,
    564764,
    54838727
  ],
  "target_creation_date": 689188614.6088948,
  "target_flags": {
    "is_executable": false,
    "is_hidden": false,
    "is_package": false,
    "is_system_immutable": false,
    "is_user_immutable": true,
    "is_volume": false
  },
  "target_path": [
    "Users",
    "davidmcdonald",
    "hxstore"
  ],
  "volume_creation_date": 599558400,
  "volume_flags": {
    "dont_browse": false,
    "is_automount": false,
    "is_cd": false,
    "is_dvd": false,
    "is_ejectable": false,
    "is_internal": true,
    "is_local": true,
    "is_local_idisk_mirror": false,
    "is_quarantined": false,
    "is_removable": false,
    "supports_sparse_files": true
  },
  "volume_is_root": true,
  "volume_name": "Macintosh HD",
  "volume_path": "/",
  "volume_size": 499963174912,
  "volume_url": "file:///",
  "volume_uuid": "8A829A03-9B24-4085-8051-18978712E4BE"
}
