$ fq dv a_static
       |00 01 02 03 04 05 06 07 08 09 0a 0b 0c 0d 0e 0f|0123456789abcdef|.{}: a_static (macho_fat) 0x0-0x1c374.7 (115573)
       |                                               |                |  fat_header{}: 0x0-0x2f.7 (48)
0x00000|ca fe ba be                                    |....            |    magic: 0xcafebabe (valid) 0x0-0x3.7 (4)
0x00000|            00 00 00 02                        |    ....        |    narchs: 2 0x4-0x7.7 (4)
       |                                               |                |    archs[0:2]: 0x8-0x2f.7 (40)
       |                                               |                |      [0]{}: arch 0x8-0x1b.7 (20)
0x00000|                        01 00 00 07            |        ....    |        cputype: "x86_64" (0x1000007) 0x8-0xb.7 (4)
0x00000|                                    00 00 00 03|            ....|        cpusubtype: 0x3 0xc-0xf.7 (4)
0x00010|00 00 40 00                                    |..@.            |        offset: 0x4000 0x10-0x13.7 (4)
0x00010|            00 00 81 38                        |    ...8        |        size: 33080 0x14-0x17.7 (4)
0x00010|                        00 00 00 0e            |        ....    |        align: 14 0x18-0x1b.7 (4)
       |                                               |                |      [1]{}: arch 0x1c-0x2f.7 (20)
0x00010|                                    01 00 00 0c|            ....|        cputype: "arm64" (0x100000c) 0x1c-0x1f.7 (4)
0x00020|00 00 00 00                                    |....            |        cpusubtype: 0x0 0x20-0x23.7 (4)
0x00020|            00 01 00 00                        |    ....        |        offset: 0x10000 0x24-0x27.7 (4)
0x00020|                        00 00 c3 75            |        ...u    |        size: 50037 0x28-0x2b.7 (4)
0x00020|                                    00 00 00 0e|            ....|        align: 14 0x2c-0x2f.7 (4)
0x00030|00 00 00 00 00 00 00 00 00 00 00 00 00 00 00 00|................|  unknown0: raw bits 0x30-0x3fff.7 (16336)
*      |until 0x3fff.7 (16336)                         |                |
       |                                               |                |  files[0:2]: 0x4000-0x1c157.7 (98648)
       |00 01 02 03 04 05 06 07 08 09 0a 0b 0c 0d 0e 0f|0123456789abcdef|    [0]{}: file (macho) 0x4000-0xc137.7 (33080)
       |                                               |                |      header{}: 0x4000-0x401f.7 (32)
       |                                               |                |        arch_bits: 64 0x4000-NA (0)
0x04000|cf fa ed fe                                    |....            |        magic: "64le" (0xfeedfacf) (64-bit little endian) 0x4000-0x4003.7 (4)
       |                                               |                |        bits: 64 0x4004-NA (0)
0x04000|            07 00 00 01                        |    ....        |        cputype: "x86_64" (0x1000007) 0x4004-0x4007.7 (4)
0x04000|                        03 00 00 00            |        ....    |        cpusubtype: 0x3 0x4008-0x400b.7 (4)
0x04000|                                    02 00 00 00|            ....|        filetype: "execute" (2) 0x400c-0x400f.7 (4)
0x04010|0f 00 00 00                                    |....            |        ncdms: 15 0x4010-0x4013.7 (4)
0x04010|            00 05 00 00                        |    ....        |        sizeofncdms: 1280 0x4014-0x4017.7 (4)
       |                                               |                |        flags{}: 0x4018-0x401b.7 (4)
0x04010|                        85                     |        .       |          reserved: raw bits 0x4018-0x4018.5 (0.6)
0x04010|                        85                     |        .       |          app_extension_safe: false 0x4018.6-0x4018.6 (0.1)
0x04010|                        85                     |        .       |          no_heap_execution: true 0x4018.7-0x4018.7 (0.1)
0x04010|                           00                  |         .      |          has_tlv_descriptors: false 0x4019-0x4019 (0.1)
0x04010|                           00                  |         .      |          dead_strippable_dylib: false 0x4019.1-0x4019.1 (0.1)
0x04010|                           00                  |         .      |          pie: false 0x4019.2-0x4019.2 (0.1)
0x04010|                           00                  |         .      |          no_reexported_dylibs: false 0x4019.3-0x4019.3 (0.1)
0x04010|                           00                  |         .      |          setuid_safe: false 0x4019.4-0x4019.4 (0.1)
0x04010|                           00                  |         .      |          root_safe: false 0x4019.5-0x4019.5 (0.1)
0x04010|                           00                  |         .      |          allow_stack_execution: false 0x4019.6-0x4019.6 (0.1)
0x04010|                           00                  |         .      |          binds_to_weak: false 0x4019.7-0x4019.7 (0.1)
0x04010|                              20               |                |          weak_defines: false 0x401a-0x401a (0.1)
0x04010|                              20               |                |          canonical: false 0x401a.1-0x401a.1 (0.1)
0x04010|                              20               |                |          subsections_via_symbols: true 0x401a.2-0x401a.2 (0.1)
0x04010|                              20               |                |          allmodsbound: false 0x401a.3-0x401a.3 (0.1)
0x04010|                              20               |                |          prebindable: false 0x401a.4-0x401a.4 (0.1)
0x04010|                              20               |                |          nofixprebinding: false 0x401a.5-0x401a.5 (0.1)
0x04010|                              20               |                |          nomultidefs: false 0x401a.6-0x401a.6 (0.1)
0x04010|                              20               |                |          force_flat: false 0x401a.7-0x401a.7 (0.1)
0x04010|                                 00            |           .    |          twolevel: false 0x401b-0x401b (0.1)
0x04010|                                 00            |           .    |          lazy_init: false 0x401b.1-0x401b.1 (0.1)
0x04010|                                 00            |           .    |          split_segs: false 0x401b.2-0x401b.2 (0.1)
0x04010|                                 00            |           .    |          prebound: false 0x401b.3-0x401b.3 (0.1)
0x04010|                                 00            |           .    |          bindatload: false 0x401b.4-0x401b.4 (0.1)
0x04010|                                 00            |           .    |          dyldlink: false 0x401b.5-0x401b.5 (0.1)
0x04010|                                 00            |           .    |          incrlink: false 0x401b.6-0x401b.6 (0.1)
0x04010|                                 00            |           .    |          noundefs: false 0x401b.7-0x401b.7 (0.1)
0x04010|                                    00 00 00 00|            ....|        reserved: raw bits (all zero) 0x401c-0x401f.7 (4)
       |                                               |                |      load_commands[0:15]: 0x4020-0xc137.7 (33048)
       |                                               |                |        [0]{}: load_command 0x4020-0x4067.7 (72)
0x04020|19 00 00 00                                    |....            |          cmd: "segment_64" (0x19) 0x4020-0x4023.7 (4)
0x04020|            48 00 00 00                        |    H...        |          cmdsize: 72 0x4024-0x4027.7 (4)
       |                                               |                |          segment_command{}: 0x4028-0x4067.7 (64)
       |                                               |                |            arch_bits: 64 0x4028-NA (0)
0x04020|                        5f 5f 50 41 47 45 5a 45|        __PAGEZE|            segname: "__PAGEZERO" 0x4028-0x4037.7 (16)
0x04030|52 4f 00 00 00 00 00 00                        |RO......        |
0x04030|                        00 00 00 00 00 00 00 00|        ........|            vmaddr: 0x0 0x4038-0x403f.7 (8)
0x04040|00 00 00 00 01 00 00 00                        |........        |            vmsize: 4294967296 0x4040-0x4047.7 (8)
0x04040|                        00 00 00 00 00 00 00 00|        ........|            fileoff: 0x0 0x4048-0x404f.7 (8)
0x04050|00 00 00 00 00 00 00 00                        |........        |            tfilesize: 0 0x4050-0x4057.7 (8)
0x04050|                        00 00 00 00            |        ....    |            initprot: 0 0x4058-0x405b.7 (4)
0x04050|                                    00 00 00 00|            ....|            maxprot: 0 0x405c-0x405f.7 (4)
0x04060|00 00 00 00                                    |....            |            nsects: 0 0x4060-0x4063.7 (4)
       |                                               |                |            flags{}: 0x4064-0x4067.7 (4)
0x04060|            00 00 00 00                        |    ....        |              reserved: raw bits 0x4064-0x4067.3 (3.4)
0x04060|                     00                        |       .        |              protected_version_1: false 0x4067.4-0x4067.4 (0.1)
0x04060|                     00                        |       .        |              noreloc: false 0x4067.5-0x4067.5 (0.1)
0x04060|                     00                        |       .        |              fvmlib: false 0x4067.6-0x4067.6 (0.1)
0x04060|                     00                        |       .        |              highvm: false 0x4067.7-0x4067.7 (0.1)
       |                                               |                |          sections[0:0]: 0x4068-NA (0)
       |                                               |                |        [1]{}: load_command 0x4068-0x7fff.7 (16280)
0x04060|                        19 00 00 00            |        ....    |          cmd: "segment_64" (0x19) 0x4068-0x406b.7 (4)
0x04060|                                    d8 01 00 00|            ....|          cmdsize: 472 0x406c-0x406f.7 (4)
       |                                               |                |          segment_command{}: 0x4070-0x40af.7 (64)
       |                                               |                |            arch_bits: 64 0x4070-NA (0)
0x04070|5f 5f 54 45 58 54 00 00 00 00 00 00 00 00 00 00|__TEXT..........|            segname: "__TEXT" 0x4070-0x407f.7 (16)
0x04080|00 00 00 00 01 00 00 00                        |........        |            vmaddr: 0x100000000 0x4080-0x4087.7 (8)
0x04080|                        00 40 00 00 00 00 00 00|        .@......|            vmsize: 16384 0x4088-0x408f.7 (8)
0x04090|00 00 00 00 00 00 00 00                        |........        |            fileoff: 0x0 0x4090-0x4097.7 (8)
0x04090|                        00 40 00 00 00 00 00 00|        .@......|            tfilesize: 16384 0x4098-0x409f.7 (8)
0x040a0|05 00 00 00                                    |....            |            initprot: 5 0x40a0-0x40a3.7 (4)
0x040a0|            05 00 00 00                        |    ....        |            maxprot: 5 0x40a4-0x40a7.7 (4)
0x040a0|                        05 00 00 00            |        ....    |            nsects: 5 0x40a8-0x40ab.7 (4)
       |                                               |                |            flags{}: 0x40ac-0x40af.7 (4)
0x040a0|                                    00 00 00 00|            ....|              reserved: raw bits 0x40ac-0x40af.3 (3.4)
0x040a0|                                             00|               .|              protected_version_1: false 0x40af.4-0x40af.4 (0.1)
0x040a0|                                             00|               .|              noreloc: false 0x40af.5-0x40af.5 (0.1)
0x040a0|                                             00|               .|              fvmlib: false 0x40af.6-0x40af.6 (0.1)
0x040a0|                                             00|               .|              highvm: false 0x40af.7-0x40af.7 (0.1)
       |                                               |                |          sections[0:5]: 0x40b0-0x7fff.7 (16208)
       |                                               |                |            [0]{}: section 0x40b0-0x7f83.7 (16084)
0x040b0|5f 5f 74 65 78 74 00 00 00 00 00 00 00 00 00 00|__text..........|              sectname: "__text" 0x40b0-0x40bf.7 (16)
0x040c0|5f 5f 54 45 58 54 00 00 00 00 00 00 00 00 00 00|__TEXT..........|              segname: "__TEXT" 0x40c0-0x40cf.7 (16)
0x040d0|30 3f 00 00 01 00 00 00                        |0?......        |              address: 0x100003f30 0x40d0-0x40d7.7 (8)
0x040d0|                        54 00 00 00 00 00 00 00|        T.......|              size: 84 0x40d8-0x40df.7 (8)
0x040e0|30 3f 00 00                                    |0?..            |              offset: 0x3f30 0x40e0-0x40e3.7 (4)
0x040e0|            04 00 00 00                        |    ....        |              align: 4 0x40e4-0x40e7.7 (4)
0x040e0|                        00 00 00 00            |        ....    |              reloff: 0 0x40e8-0x40eb.7 (4)
0x040e0|                                    00 00 00 00|            ....|              nreloc: 0 0x40ec-0x40ef.7 (4)
       |                                               |                |              flags{}: 0x40f0-0x40f2.7 (3)
0x040f0|00                                             |.               |                attr_pure_instructions: false 0x40f0-0x40f0 (0.1)
0x040f0|00                                             |.               |                attr_no_toc: false 0x40f0.1-0x40f0.1 (0.1)
0x040f0|00                                             |.               |                attr_strip_static_syms: false 0x40f0.2-0x40f0.2 (0.1)
0x040f0|00                                             |.               |                attr_no_dead_strip: false 0x40f0.3-0x40f0.3 (0.1)
0x040f0|00                                             |.               |                attr_live_support: false 0x40f0.4-0x40f0.4 (0.1)
0x040f0|00                                             |.               |                attr_self_modifying_code: false 0x40f0.5-0x40f0.5 (0.1)
0x040f0|00                                             |.               |                attr_debug: false 0x40f0.6-0x40f0.6 (0.1)
0x040f0|00 04 00                                       |...             |                reserved: raw bits 0x40f0.7-0x40f2.4 (1.6)
0x040f0|      00                                       |  .             |                attr_some_instructions: false 0x40f2.5-0x40f2.5 (0.1)
0x040f0|      00                                       |  .             |                attr_ext_reloc: false 0x40f2.6-0x40f2.6 (0.1)
0x040f0|      00                                       |  .             |                attr_loc_reloc: false 0x40f2.7-0x40f2.7 (0.1)
0x040f0|         80                                    |   .            |              type: 128 0x40f3-0x40f3.7 (1)
0x040f0|            00 00 00 00                        |    ....        |              reserved1: 0 0x40f4-0x40f7.7 (4)
0x040f0|                        00 00 00 00            |        ....    |              reserved2: 0 0x40f8-0x40fb.7 (4)
0x040f0|                                    00 00 00 00|            ....|              reserved3: 0 0x40fc-0x40ff.7 (4)
0x07f30|55 48 89 e5 48 8d 3d 6b 00 00 00 b0 00 e8 42 00|UH..H.=k......B.|              data: raw bits 0x7f30-0x7f83.7 (84)
*      |until 0x7f83.7 (84)                            |                |
       |                                               |                |            [1]{}: section 0x4100-0x7f89.7 (16010)
0x04100|5f 5f 73 74 75 62 73 00 00 00 00 00 00 00 00 00|__stubs.........|              sectname: "__stubs" 0x4100-0x410f.7 (16)
0x04110|5f 5f 54 45 58 54 00 00 00 00 00 00 00 00 00 00|__TEXT..........|              segname: "__TEXT" 0x4110-0x411f.7 (16)
0x04120|84 3f 00 00 01 00 00 00                        |.?......        |              address: 0x100003f84 0x4120-0x4127.7 (8)
0x04120|                        06 00 00 00 00 00 00 00|        ........|              size: 6 0x4128-0x412f.7 (8)
0x04130|84 3f 00 00                                    |.?..            |              offset: 0x3f84 0x4130-0x4133.7 (4)
0x04130|            01 00 00 00                        |    ....        |              align: 1 0x4134-0x4137.7 (4)
0x04130|                        00 00 00 00            |        ....    |              reloff: 0 0x4138-0x413b.7 (4)
0x04130|                                    00 00 00 00|            ....|              nreloc: 0 0x413c-0x413f.7 (4)
       |                                               |                |              flags{}: 0x4140-0x4142.7 (3)
0x04140|08                                             |.               |                attr_pure_instructions: false 0x4140-0x4140 (0.1)
0x04140|08                                             |.               |                attr_no_toc: false 0x4140.1-0x4140.1 (0.1)
0x04140|08                                             |.               |                attr_strip_static_syms: false 0x4140.2-0x4140.2 (0.1)
0x04140|08                                             |.               |                attr_no_dead_strip: false 0x4140.3-0x4140.3 (0.1)
0x04140|08                                             |.               |                attr_live_support: true 0x4140.4-0x4140.4 (0.1)
0x04140|08                                             |.               |                attr_self_modifying_code: false 0x4140.5-0x4140.5 (0.1)
0x04140|08                                             |.               |                attr_debug: false 0x4140.6-0x4140.6 (0.1)
0x04140|08 04 00                                       |...             |                reserved: raw bits 0x4140.7-0x4142.4 (1.6)
0x04140|      00                                       |  .             |                attr_some_instructions: false 0x4142.5-0x4142.5 (0.1)
0x04140|      00                                       |  .             |                attr_ext_reloc: false 0x4142.6-0x4142.6 (0.1)
0x04140|      00                                       |  .             |                attr_loc_reloc: false 0x4142.7-0x4142.7 (0.1)
0x04140|         80                                    |   .            |              type: 128 0x4143-0x4143.7 (1)
0x04140|            00 00 00 00                        |    ....        |              reserved1: 0 0x4144-0x4147.7 (4)
0x04140|                        06 00 00 00            |        ....    |              reserved2: 6 0x4148-0x414b.7 (4)
0x04140|                                    00 00 00 00|            ....|              reserved3: 0 0x414c-0x414f.7 (4)
0x07f80|            ff 25 86 00 00 00                  |    .%....      |              data: raw bits 0x7f84-0x7f89.7 (6)
       |                                               |                |            [2]{}: section 0x4150-0x7fa5.7 (15958)
0x04150|5f 5f 73 74 75 62 5f 68 65 6c 70 65 72 00 00 00|__stub_helper...|              sectname: "__stub_helper" 0x4150-0x415f.7 (16)
0x04160|5f 5f 54 45 58 54 00 00 00 00 00 00 00 00 00 00|__TEXT..........|              segname: "__TEXT" 0x4160-0x416f.7 (16)
0x04170|8c 3f 00 00 01 00 00 00                        |.?......        |              address: 0x100003f8c 0x4170-0x4177.7 (8)
0x04170|                        1a 00 00 00 00 00 00 00|        ........|              size: 26 0x4178-0x417f.7 (8)
0x04180|8c 3f 00 00                                    |.?..            |              offset: 0x3f8c 0x4180-0x4183.7 (4)
0x04180|            02 00 00 00                        |    ....        |              align: 2 0x4184-0x4187.7 (4)
0x04180|                        00 00 00 00            |        ....    |              reloff: 0 0x4188-0x418b.7 (4)
0x04180|                                    00 00 00 00|            ....|              nreloc: 0 0x418c-0x418f.7 (4)
       |                                               |                |              flags{}: 0x4190-0x4192.7 (3)
0x04190|00                                             |.               |                attr_pure_instructions: false 0x4190-0x4190 (0.1)
0x04190|00                                             |.               |                attr_no_toc: false 0x4190.1-0x4190.1 (0.1)
0x04190|00                                             |.               |                attr_strip_static_syms: false 0x4190.2-0x4190.2 (0.1)
0x04190|00                                             |.               |                attr_no_dead_strip: false 0x4190.3-0x4190.3 (0.1)
0x04190|00                                             |.               |                attr_live_support: false 0x4190.4-0x4190.4 (0.1)
0x04190|00                                             |.               |                attr_self_modifying_code: false 0x4190.5-0x4190.5 (0.1)
0x04190|00                                             |.               |                attr_debug: false 0x4190.6-0x4190.6 (0.1)
0x04190|00 04 00                                       |...             |                reserved: raw bits 0x4190.7-0x4192.4 (1.6)
0x04190|      00                                       |  .             |                attr_some_instructions: false 0x4192.5-0x4192.5 (0.1)
0x04190|      00                                       |  .             |                attr_ext_reloc: false 0x4192.6-0x4192.6 (0.1)
0x04190|      00                                       |  .             |                attr_loc_reloc: false 0x4192.7-0x4192.7 (0.1)
0x04190|         80                                    |   .            |              type: 128 0x4193-0x4193.7 (1)
0x04190|            00 00 00 00                        |    ....        |              reserved1: 0 0x4194-0x4197.7 (4)
0x04190|                        00 00 00 00            |        ....    |              reserved2: 0 0x4198-0x419b.7 (4)
0x04190|                                    00 00 00 00|            ....|              reserved3: 0 0x419c-0x419f.7 (4)
0x07f80|                                    4c 8d 1d 6d|            L..m|              data: raw bits 0x7f8c-0x7fa5.7 (26)
0x07f90|00 00 00 41 53 ff 25 6d 00 00 00 90 68 00 00 00|...AS.%m....h...|
0x07fa0|00 e9 e6 ff ff ff                              |......          |
       |                                               |                |            [3]{}: section 0x41a0-0x7fb6.7 (15895)
0x041a0|5f 5f 63 73 74 72 69 6e 67 00 00 00 00 00 00 00|__cstring.......|              sectname: "__cstring" 0x41a0-0x41af.7 (16)
0x041b0|5f 5f 54 45 58 54 00 00 00 00 00 00 00 00 00 00|__TEXT..........|              segname: "__TEXT" 0x41b0-0x41bf.7 (16)
0x041c0|a6 3f 00 00 01 00 00 00                        |.?......        |              address: 0x100003fa6 0x41c0-0x41c7.7 (8)
0x041c0|                        11 00 00 00 00 00 00 00|        ........|              size: 17 0x41c8-0x41cf.7 (8)
0x041d0|a6 3f 00 00                                    |.?..            |              offset: 0x3fa6 0x41d0-0x41d3.7 (4)
0x041d0|            00 00 00 00                        |    ....        |              align: 0 0x41d4-0x41d7.7 (4)
0x041d0|                        00 00 00 00            |        ....    |              reloff: 0 0x41d8-0x41db.7 (4)
0x041d0|                                    00 00 00 00|            ....|              nreloc: 0 0x41dc-0x41df.7 (4)
       |                                               |                |              flags{}: 0x41e0-0x41e2.7 (3)
0x041e0|02                                             |.               |                attr_pure_instructions: false 0x41e0-0x41e0 (0.1)
0x041e0|02                                             |.               |                attr_no_toc: false 0x41e0.1-0x41e0.1 (0.1)
0x041e0|02                                             |.               |                attr_strip_static_syms: false 0x41e0.2-0x41e0.2 (0.1)
0x041e0|02                                             |.               |                attr_no_dead_strip: false 0x41e0.3-0x41e0.3 (0.1)
0x041e0|02                                             |.               |                attr_live_support: false 0x41e0.4-0x41e0.4 (0.1)
0x041e0|02                                             |.               |                attr_self_modifying_code: false 0x41e0.5-0x41e0.5 (0.1)
0x041e0|02                                             |.               |                attr_debug: true 0x41e0.6-0x41e0.6 (0.1)
0x041e0|02 00 00                                       |...             |                reserved: raw bits 0x41e0.7-0x41e2.4 (1.6)
0x041e0|      00                                       |  .             |                attr_some_instructions: false 0x41e2.5-0x41e2.5 (0.1)
0x041e0|      00                                       |  .             |                attr_ext_reloc: false 0x41e2.6-0x41e2.6 (0.1)
0x041e0|      00                                       |  .             |                attr_loc_reloc: false 0x41e2.7-0x41e2.7 (0.1)
0x041e0|         00                                    |   .            |              type: "regular" (0) 0x41e3-0x41e3.7 (1)
0x041e0|            00 00 00 00                        |    ....        |              reserved1: 0 0x41e4-0x41e7.7 (4)
0x041e0|                        00 00 00 00            |        ....    |              reserved2: 0 0x41e8-0x41eb.7 (4)
0x041e0|                                    00 00 00 00|            ....|              reserved3: 0 0x41ec-0x41ef.7 (4)
       |                                               |                |              cstrings[0:2]: 0x7fa6-0x7fb6.7 (17)
0x07fa0|                  61 61 61 0a 00               |      aaa..     |                [0]: "aaa\n" cstring 0x7fa6-0x7faa.7 (5)
0x07fa0|                                 6c 69 62 62 62|           libbb|                [1]: "libbbb_bbb\n" cstring 0x7fab-0x7fb6.7 (12)
0x07fb0|62 5f 62 62 62 0a 00                           |b_bbb..         |
       |                                               |                |            [4]{}: section 0x41f0-0x7fff.7 (15888)
0x041f0|5f 5f 75 6e 77 69 6e 64 5f 69 6e 66 6f 00 00 00|__unwind_info...|              sectname: "__unwind_info" 0x41f0-0x41ff.7 (16)
0x04200|5f 5f 54 45 58 54 00 00 00 00 00 00 00 00 00 00|__TEXT..........|              segname: "__TEXT" 0x4200-0x420f.7 (16)
0x04210|b8 3f 00 00 01 00 00 00                        |.?......        |              address: 0x100003fb8 0x4210-0x4217.7 (8)
0x04210|                        48 00 00 00 00 00 00 00|        H.......|              size: 72 0x4218-0x421f.7 (8)
0x04220|b8 3f 00 00                                    |.?..            |              offset: 0x3fb8 0x4220-0x4223.7 (4)
0x04220|            02 00 00 00                        |    ....        |              align: 2 0x4224-0x4227.7 (4)
0x04220|                        00 00 00 00            |        ....    |              reloff: 0 0x4228-0x422b.7 (4)
0x04220|                                    00 00 00 00|            ....|              nreloc: 0 0x422c-0x422f.7 (4)
       |                                               |                |              flags{}: 0x4230-0x4232.7 (3)
0x04230|00                                             |.               |                attr_pure_instructions: false 0x4230-0x4230 (0.1)
0x04230|00                                             |.               |                attr_no_toc: false 0x4230.1-0x4230.1 (0.1)
0x04230|00                                             |.               |                attr_strip_static_syms: false 0x4230.2-0x4230.2 (0.1)
0x04230|00                                             |.               |                attr_no_dead_strip: false 0x4230.3-0x4230.3 (0.1)
0x04230|00                                             |.               |                attr_live_support: false 0x4230.4-0x4230.4 (0.1)
0x04230|00                                             |.               |                attr_self_modifying_code: false 0x4230.5-0x4230.5 (0.1)
0x04230|00                                             |.               |                attr_debug: false 0x4230.6-0x4230.6 (0.1)
0x04230|00 00 00                                       |...             |                reserved: raw bits 0x4230.7-0x4232.4 (1.6)
0x04230|      00                                       |  .             |                attr_some_instructions: false 0x4232.5-0x4232.5 (0.1)
0x04230|      00                                       |  .             |                attr_ext_reloc: false 0x4232.6-0x4232.6 (0.1)
0x04230|      00                                       |  .             |                attr_loc_reloc: false 0x4232.7-0x4232.7 (0.1)
0x04230|         00                                    |   .            |              type: "regular" (0) 0x4233-0x4233.7 (1)
0x04230|            00 00 00 00                        |    ....        |              reserved1: 0 0x4234-0x4237.7 (4)
0x04230|                        00 00 00 00            |        ....    |              reserved2: 0 0x4238-0x423b.7 (4)
0x04230|                                    00 00 00 00|            ....|              reserved3: 0 0x423c-0x423f.7 (4)
0x07fb0|                        01 00 00 00 1c 00 00 00|        ........|              data: raw bits 0x7fb8-0x7fff.7 (72)
0x07fc0|00 00 00 00 1c 00 00 00 00 00 00 00 1c 00 00 00|................|
*      |until 0x7fff.7 (72)                            |                |
       |                                               |                |        [2]{}: load_command 0x4240-0x8017.7 (15832)
0x04240|19 00 00 00                                    |....            |          cmd: "segment_64" (0x19) 0x4240-0x4243.7 (4)
0x04240|            38 01 00 00                        |    8...        |          cmdsize: 312 0x4244-0x4247.7 (4)
       |                                               |                |          segment_command{}: 0x4248-0x4287.7 (64)
       |                                               |                |            arch_bits: 64 0x4248-NA (0)
0x04240|                        5f 5f 44 41 54 41 00 00|        __DATA..|            segname: "__DATA" 0x4248-0x4257.7 (16)
0x04250|00 00 00 00 00 00 00 00                        |........        |
0x04250|                        00 40 00 00 01 00 00 00|        .@......|            vmaddr: 0x100004000 0x4258-0x425f.7 (8)
0x04260|00 40 00 00 00 00 00 00                        |.@......        |            vmsize: 16384 0x4260-0x4267.7 (8)
0x04260|                        00 40 00 00 00 00 00 00|        .@......|            fileoff: 0x4000 0x4268-0x426f.7 (8)
0x04270|00 40 00 00 00 00 00 00                        |.@......        |            tfilesize: 16384 0x4270-0x4277.7 (8)
0x04270|                        03 00 00 00            |        ....    |            initprot: 3 0x4278-0x427b.7 (4)
0x04270|                                    03 00 00 00|            ....|            maxprot: 3 0x427c-0x427f.7 (4)
0x04280|03 00 00 00                                    |....            |            nsects: 3 0x4280-0x4283.7 (4)
       |                                               |                |            flags{}: 0x4284-0x4287.7 (4)
0x04280|            00 00 00 00                        |    ....        |              reserved: raw bits 0x4284-0x4287.3 (3.4)
0x04280|                     00                        |       .        |              protected_version_1: false 0x4287.4-0x4287.4 (0.1)
0x04280|                     00                        |       .        |              noreloc: false 0x4287.5-0x4287.5 (0.1)
0x04280|                     00                        |       .        |              fvmlib: false 0x4287.6-0x4287.6 (0.1)
0x04280|                     00                        |       .        |              highvm: false 0x4287.7-0x4287.7 (0.1)
       |                                               |                |          sections[0:3]: 0x4288-0x8017.7 (15760)
       |                                               |                |            [0]{}: section 0x4288-0x8007.7 (15744)
0x04280|                        5f 5f 6e 6c 5f 73 79 6d|        __nl_sym|              sectname: "__nl_symbol_ptr" 0x4288-0x4297.7 (16)
0x04290|62 6f 6c 5f 70 74 72 00                        |bol_ptr.        |
0x04290|                        5f 5f 44 41 54 41 00 00|        __DATA..|              segname: "__DATA" 0x4298-0x42a7.7 (16)
0x042a0|00 00 00 00 00 00 00 00                        |........        |
0x042a0|                        00 40 00 00 01 00 00 00|        .@......|              address: 0x100004000 0x42a8-0x42af.7 (8)
0x042b0|08 00 00 00 00 00 00 00                        |........        |              size: 8 0x42b0-0x42b7.7 (8)
0x042b0|                        00 40 00 00            |        .@..    |              offset: 0x4000 0x42b8-0x42bb.7 (4)
0x042b0|                                    03 00 00 00|            ....|              align: 3 0x42bc-0x42bf.7 (4)
0x042c0|00 00 00 00                                    |....            |              reloff: 0 0x42c0-0x42c3.7 (4)
0x042c0|            00 00 00 00                        |    ....        |              nreloc: 0 0x42c4-0x42c7.7 (4)
       |                                               |                |              flags{}: 0x42c8-0x42ca.7 (3)
0x042c0|                        06                     |        .       |                attr_pure_instructions: false 0x42c8-0x42c8 (0.1)
0x042c0|                        06                     |        .       |                attr_no_toc: false 0x42c8.1-0x42c8.1 (0.1)
0x042c0|                        06                     |        .       |                attr_strip_static_syms: false 0x42c8.2-0x42c8.2 (0.1)
0x042c0|                        06                     |        .       |                attr_no_dead_strip: false 0x42c8.3-0x42c8.3 (0.1)
0x042c0|                        06                     |        .       |                attr_live_support: false 0x42c8.4-0x42c8.4 (0.1)
0x042c0|                        06                     |        .       |                attr_self_modifying_code: true 0x42c8.5-0x42c8.5 (0.1)
0x042c0|                        06                     |        .       |                attr_debug: true 0x42c8.6-0x42c8.6 (0.1)
0x042c0|                        06 00 00               |        ...     |                reserved: raw bits 0x42c8.7-0x42ca.4 (1.6)
0x042c0|                              00               |          .     |                attr_some_instructions: false 0x42ca.5-0x42ca.5 (0.1)
0x042c0|                              00               |          .     |                attr_ext_reloc: false 0x42ca.6-0x42ca.6 (0.1)
0x042c0|                              00               |          .     |                attr_loc_reloc: false 0x42ca.7-0x42ca.7 (0.1)
0x042c0|                                 00            |           .    |              type: "regular" (0) 0x42cb-0x42cb.7 (1)
0x042c0|                                    01 00 00 00|            ....|              reserved1: 1 0x42cc-0x42cf.7 (4)
0x042d0|00 00 00 00                                    |....            |              reserved2: 0 0x42d0-0x42d3.7 (4)
0x042d0|            00 00 00 00                        |    ....        |              reserved3: 0 0x42d4-0x42d7.7 (4)
0x08000|00 00 00 00 00 00 00 00                        |........        |              data: raw bits 0x8000-0x8007.7 (8)
       |                                               |                |            [1]{}: section 0x42d8-0x800f.7 (15672)
0x042d0|                        5f 5f 67 6f 74 00 00 00|        __got...|              sectname: "__got" 0x42d8-0x42e7.7 (16)
0x042e0|00 00 00 00 00 00 00 00                        |........        |
0x042e0|                        5f 5f 44 41 54 41 00 00|        __DATA..|              segname: "__DATA" 0x42e8-0x42f7.7 (16)
0x042f0|00 00 00 00 00 00 00 00                        |........        |
0x042f0|                        08 40 00 00 01 00 00 00|        .@......|              address: 0x100004008 0x42f8-0x42ff.7 (8)
0x04300|08 00 00 00 00 00 00 00                        |........        |              size: 8 0x4300-0x4307.7 (8)
0x04300|                        08 40 00 00            |        .@..    |              offset: 0x4008 0x4308-0x430b.7 (4)
0x04300|                                    03 00 00 00|            ....|              align: 3 0x430c-0x430f.7 (4)
0x04310|00 00 00 00                                    |....            |              reloff: 0 0x4310-0x4313.7 (4)
0x04310|            00 00 00 00                        |    ....        |              nreloc: 0 0x4314-0x4317.7 (4)
       |                                               |                |              flags{}: 0x4318-0x431a.7 (3)
0x04310|                        06                     |        .       |                attr_pure_instructions: false 0x4318-0x4318 (0.1)
0x04310|                        06                     |        .       |                attr_no_toc: false 0x4318.1-0x4318.1 (0.1)
0x04310|                        06                     |        .       |                attr_strip_static_syms: false 0x4318.2-0x4318.2 (0.1)
0x04310|                        06                     |        .       |                attr_no_dead_strip: false 0x4318.3-0x4318.3 (0.1)
0x04310|                        06                     |        .       |                attr_live_support: false 0x4318.4-0x4318.4 (0.1)
0x04310|                        06                     |        .       |                attr_self_modifying_code: true 0x4318.5-0x4318.5 (0.1)
0x04310|                        06                     |        .       |                attr_debug: true 0x4318.6-0x4318.6 (0.1)
0x04310|                        06 00 00               |        ...     |                reserved: raw bits 0x4318.7-0x431a.4 (1.6)
0x04310|                              00               |          .     |                attr_some_instructions: false 0x431a.5-0x431a.5 (0.1)
0x04310|                              00               |          .     |                attr_ext_reloc: false 0x431a.6-0x431a.6 (0.1)
0x04310|                              00               |          .     |                attr_loc_reloc: false 0x431a.7-0x431a.7 (0.1)
0x04310|                                 00            |           .    |              type: "regular" (0) 0x431b-0x431b.7 (1)
0x04310|                                    02 00 00 00|            ....|              reserved1: 2 0x431c-0x431f.7 (4)
0x04320|00 00 00 00                                    |....            |              reserved2: 0 0x4320-0x4323.7 (4)
0x04320|            00 00 00 00                        |    ....        |              reserved3: 0 0x4324-0x4327.7 (4)
0x08000|                        00 00 00 00 00 00 00 00|        ........|              data: raw bits 0x8008-0x800f.7 (8)
       |                                               |                |            [2]{}: section 0x4328-0x8017.7 (15600)
0x04320|                        5f 5f 6c 61 5f 73 79 6d|        __la_sym|              sectname: "__la_symbol_ptr" 0x4328-0x4337.7 (16)
0x04330|62 6f 6c 5f 70 74 72 00                        |bol_ptr.        |
0x04330|                        5f 5f 44 41 54 41 00 00|        __DATA..|              segname: "__DATA" 0x4338-0x4347.7 (16)
0x04340|00 00 00 00 00 00 00 00                        |........        |
0x04340|                        10 40 00 00 01 00 00 00|        .@......|              address: 0x100004010 0x4348-0x434f.7 (8)
0x04350|08 00 00 00 00 00 00 00                        |........        |              size: 8 0x4350-0x4357.7 (8)
0x04350|                        10 40 00 00            |        .@..    |              offset: 0x4010 0x4358-0x435b.7 (4)
0x04350|                                    03 00 00 00|            ....|              align: 3 0x435c-0x435f.7 (4)
0x04360|00 00 00 00                                    |....            |              reloff: 0 0x4360-0x4363.7 (4)
0x04360|            00 00 00 00                        |    ....        |              nreloc: 0 0x4364-0x4367.7 (4)
       |                                               |                |              flags{}: 0x4368-0x436a.7 (3)
0x04360|                        07                     |        .       |                attr_pure_instructions: false 0x4368-0x4368 (0.1)
0x04360|                        07                     |        .       |                attr_no_toc: false 0x4368.1-0x4368.1 (0.1)
0x04360|                        07                     |        .       |                attr_strip_static_syms: false 0x4368.2-0x4368.2 (0.1)
0x04360|                        07                     |        .       |                attr_no_dead_strip: false 0x4368.3-0x4368.3 (0.1)
0x04360|                        07                     |        .       |                attr_live_support: false 0x4368.4-0x4368.4 (0.1)
0x04360|                        07                     |        .       |                attr_self_modifying_code: true 0x4368.5-0x4368.5 (0.1)
0x04360|                        07                     |        .       |                attr_debug: true 0x4368.6-0x4368.6 (0.1)
0x04360|                        07 00 00               |        ...     |                reserved: raw bits 0x4368.7-0x436a.4 (1.6)
0x04360|                              00               |          .     |                attr_some_instructions: false 0x436a.5-0x436a.5 (0.1)
0x04360|                              00               |          .     |                attr_ext_reloc: false 0x436a.6-0x436a.6 (0.1)
0x04360|                              00               |          .     |                attr_loc_reloc: false 0x436a.7-0x436a.7 (0.1)
0x04360|                                 00            |           .    |              type: "regular" (0) 0x436b-0x436b.7 (1)
0x04360|                                    03 00 00 00|            ....|              reserved1: 3 0x436c-0x436f.7 (4)
0x04370|00 00 00 00                                    |....            |              reserved2: 0 0x4370-0x4373.7 (4)
0x04370|            00 00 00 00                        |    ....        |              reserved3: 0 0x4374-0x4377.7 (4)
0x08010|9c 3f 00 00 01 00 00 00                        |.?......        |              data: raw bits 0x8010-0x8017.7 (8)
       |                                               |                |        [3]{}: load_command 0x4378-0x43bf.7 (72)
0x04370|                        19 00 00 00            |        ....    |          cmd: "segment_64" (0x19) 0x4378-0x437b.7 (4)
0x04370|                                    48 00 00 00|            H...|          cmdsize: 72 0x437c-0x437f.7 (4)
       |                                               |                |          segment_command{}: 0x4380-0x43bf.7 (64)
       |                                               |                |            arch_bits: 64 0x4380-NA (0)
0x04380|5f 5f 4c 49 4e 4b 45 44 49 54 00 00 00 00 00 00|__LINKEDIT......|            segname: "__LINKEDIT" 0x4380-0x438f.7 (16)
0x04390|00 80 00 00 01 00 00 00                        |........        |            vmaddr: 0x100008000 0x4390-0x4397.7 (8)
0x04390|                        00 40 00 00 00 00 00 00|        .@......|            vmsize: 16384 0x4398-0x439f.7 (8)
0x043a0|00 80 00 00 00 00 00 00                        |........        |            fileoff: 0x8000 0x43a0-0x43a7.7 (8)
0x043a0|                        38 01 00 00 00 00 00 00|        8.......|            tfilesize: 312 0x43a8-0x43af.7 (8)
0x043b0|01 00 00 00                                    |....            |            initprot: 1 0x43b0-0x43b3.7 (4)
0x043b0|            01 00 00 00                        |    ....        |            maxprot: 1 0x43b4-0x43b7.7 (4)
0x043b0|                        00 00 00 00            |        ....    |            nsects: 0 0x43b8-0x43bb.7 (4)
       |                                               |                |            flags{}: 0x43bc-0x43bf.7 (4)
0x043b0|                                    00 00 00 00|            ....|              reserved: raw bits 0x43bc-0x43bf.3 (3.4)
0x043b0|                                             00|               .|              protected_version_1: false 0x43bf.4-0x43bf.4 (0.1)
0x043b0|                                             00|               .|              noreloc: false 0x43bf.5-0x43bf.5 (0.1)
0x043b0|                                             00|               .|              fvmlib: false 0x43bf.6-0x43bf.6 (0.1)
0x043b0|                                             00|               .|              highvm: false 0x43bf.7-0x43bf.7 (0.1)
       |                                               |                |          sections[0:0]: 0x43c0-NA (0)
       |                                               |                |        [4]{}: load_command 0x43c0-0x43ef.7 (48)
0x043c0|22 00 00 80                                    |"...            |          cmd: "dyld_info_only" (0x80000022) 0x43c0-0x43c3.7 (4)
0x043c0|            30 00 00 00                        |    0...        |          cmdsize: 48 0x43c4-0x43c7.7 (4)
       |                                               |                |          dyld_info{}: 0x43c8-0x43ef.7 (40)
0x043c0|                        00 80 00 00            |        ....    |            rebase_off: 0x8000 0x43c8-0x43cb.7 (4)
0x043c0|                                    08 00 00 00|            ....|            rebase_size: 8 0x43cc-0x43cf.7 (4)
0x043d0|08 80 00 00                                    |....            |            bind_off: 0x8008 0x43d0-0x43d3.7 (4)
0x043d0|            18 00 00 00                        |    ....        |            bind_size: 24 0x43d4-0x43d7.7 (4)
0x043d0|                        00 00 00 00            |        ....    |            weak_bind_off: 0x0 0x43d8-0x43db.7 (4)
0x043d0|                                    00 00 00 00|            ....|            weak_bind_size: 0 0x43dc-0x43df.7 (4)
0x043e0|20 80 00 00                                    | ...            |            lazy_bind_off: 0x8020 0x43e0-0x43e3.7 (4)
0x043e0|            10 00 00 00                        |    ....        |            lazy_bind_size: 16 0x43e4-0x43e7.7 (4)
0x043e0|                        30 80 00 00            |        0...    |            export_off: 0x8030 0x43e8-0x43eb.7 (4)
0x043e0|                                    48 00 00 00|            H...|            export_size: 72 0x43ec-0x43ef.7 (4)
       |                                               |                |        [5]{}: load_command 0x43f0-0xc137.7 (32072)
0x043f0|02 00 00 00                                    |....            |          cmd: "symtab" (0x2) 0x43f0-0x43f3.7 (4)
0x043f0|            18 00 00 00                        |    ....        |          cmdsize: 24 0x43f4-0x43f7.7 (4)
0x043f0|                        80 80 00 00            |        ....    |          symoff: 32896 0x43f8-0x43fb.7 (4)
0x043f0|                                    06 00 00 00|            ....|          nsyms: 6 0x43fc-0x43ff.7 (4)
0x04400|f0 80 00 00                                    |....            |          stroff: 33008 0x4400-0x4403.7 (4)
0x04400|            48 00 00 00                        |    H...        |          strsize: 72 0x4404-0x4407.7 (4)
       |                                               |                |          symbols[0:6]: 0xc080-0xc0df.7 (96)
       |                                               |                |            [0]{}: symbol 0xc080-0xc08f.7 (16)
0x0c080|02 00 00 00                                    |....            |              strx: "__mh_execute_header" (2) 0xc080-0xc083.7 (4)
       |                                               |                |              type{}: 0xc084-0xc084.7 (1)
0x0c080|            0f                                 |    .           |                stab: 0 0xc084-0xc084.2 (0.3)
0x0c080|            0f                                 |    .           |                pext: 0 0xc084.3-0xc084.3 (0.1)
0x0c080|            0f                                 |    .           |                type: "sect" (7) 0xc084.4-0xc084.6 (0.3)
0x0c080|            0f                                 |    .           |                ext: 1 0xc084.7-0xc084.7 (0.1)
0x0c080|               01                              |     .          |              sect: 1 0xc085-0xc085.7 (1)
0x0c080|                  10 00                        |      ..        |              desc: 16 0xc086-0xc087.7 (2)
0x0c080|                        00 00 00 00 01 00 00 00|        ........|              value: 0x100000000 0xc088-0xc08f.7 (8)
       |                                               |                |            [1]{}: symbol 0xc090-0xc09f.7 (16)
0x0c090|16 00 00 00                                    |....            |              strx: "_aaa" (22) 0xc090-0xc093.7 (4)
       |                                               |                |              type{}: 0xc094-0xc094.7 (1)
0x0c090|            0f                                 |    .           |                stab: 0 0xc094-0xc094.2 (0.3)
0x0c090|            0f                                 |    .           |                pext: 0 0xc094.3-0xc094.3 (0.1)
0x0c090|            0f                                 |    .           |                type: "sect" (7) 0xc094.4-0xc094.6 (0.3)
0x0c090|            0f                                 |    .           |                ext: 1 0xc094.7-0xc094.7 (0.1)
0x0c090|               01                              |     .          |              sect: 1 0xc095-0xc095.7 (1)
0x0c090|                  00 00                        |      ..        |              desc: 0 0xc096-0xc097.7 (2)
0x0c090|                        30 3f 00 00 01 00 00 00|        0?......|              value: 0x100003f30 0xc098-0xc09f.7 (8)
       |                                               |                |            [2]{}: symbol 0xc0a0-0xc0af.7 (16)
0x0c0a0|1b 00 00 00                                    |....            |              strx: "_libbbb_bbb" (27) 0xc0a0-0xc0a3.7 (4)
       |                                               |                |              type{}: 0xc0a4-0xc0a4.7 (1)
0x0c0a0|            0f                                 |    .           |                stab: 0 0xc0a4-0xc0a4.2 (0.3)
0x0c0a0|            0f                                 |    .           |                pext: 0 0xc0a4.3-0xc0a4.3 (0.1)
0x0c0a0|            0f                                 |    .           |                type: "sect" (7) 0xc0a4.4-0xc0a4.6 (0.3)
0x0c0a0|            0f                                 |    .           |                ext: 1 0xc0a4.7-0xc0a4.7 (0.1)
0x0c0a0|               01                              |     .          |              sect: 1 0xc0a5-0xc0a5.7 (1)
0x0c0a0|                  00 00                        |      ..        |              desc: 0 0xc0a6-0xc0a7.7 (2)
0x0c0a0|                        70 3f 00 00 01 00 00 00|        p?......|              value: 0x100003f70 0xc0a8-0xc0af.7 (8)
       |                                               |                |            [3]{}: symbol 0xc0b0-0xc0bf.7 (16)
0x0c0b0|27 00 00 00                                    |'...            |              strx: "_main" (39) 0xc0b0-0xc0b3.7 (4)
       |                                               |                |              type{}: 0xc0b4-0xc0b4.7 (1)
0x0c0b0|            0f                                 |    .           |                stab: 0 0xc0b4-0xc0b4.2 (0.3)
0x0c0b0|            0f                                 |    .           |                pext: 0 0xc0b4.3-0xc0b4.3 (0.1)
0x0c0b0|            0f                                 |    .           |                type: "sect" (7) 0xc0b4.4-0xc0b4.6 (0.3)
0x0c0b0|            0f                                 |    .           |                ext: 1 0xc0b4.7-0xc0b4.7 (0.1)
0x0c0b0|               01                              |     .          |              sect: 1 0xc0b5-0xc0b5.7 (1)
0x0c0b0|                  00 00                        |      ..        |              desc: 0 0xc0b6-0xc0b7.7 (2)
0x0c0b0|                        50 3f 00 00 01 00 00 00|        P?......|              value: 0x100003f50 0xc0b8-0xc0bf.7 (8)
       |                                               |                |            [4]{}: symbol 0xc0c0-0xc0cf.7 (16)
0x0c0c0|2d 00 00 00                                    |-...            |              strx: "_printf" (45) 0xc0c0-0xc0c3.7 (4)
       |                                               |                |              type{}: 0xc0c4-0xc0c4.7 (1)
0x0c0c0|            01                                 |    .           |                stab: 0 0xc0c4-0xc0c4.2 (0.3)
0x0c0c0|            01                                 |    .           |                pext: 0 0xc0c4.3-0xc0c4.3 (0.1)
0x0c0c0|            01                                 |    .           |                type: "undef" (0) 0xc0c4.4-0xc0c4.6 (0.3)
0x0c0c0|            01                                 |    .           |                ext: 1 0xc0c4.7-0xc0c4.7 (0.1)
0x0c0c0|               00                              |     .          |              sect: 0 0xc0c5-0xc0c5.7 (1)
0x0c0c0|                  00 01                        |      ..        |              desc: 256 0xc0c6-0xc0c7.7 (2)
0x0c0c0|                        00 00 00 00 00 00 00 00|        ........|              value: 0x0 0xc0c8-0xc0cf.7 (8)
       |                                               |                |            [5]{}: symbol 0xc0d0-0xc0df.7 (16)
0x0c0d0|35 00 00 00                                    |5...            |              strx: "dyld_stub_binder" (53) 0xc0d0-0xc0d3.7 (4)
       |                                               |                |              type{}: 0xc0d4-0xc0d4.7 (1)
0x0c0d0|            01                                 |    .           |                stab: 0 0xc0d4-0xc0d4.2 (0.3)
0x0c0d0|            01                                 |    .           |                pext: 0 0xc0d4.3-0xc0d4.3 (0.1)
0x0c0d0|            01                                 |    .           |                type: "undef" (0) 0xc0d4.4-0xc0d4.6 (0.3)
0x0c0d0|            01                                 |    .           |                ext: 1 0xc0d4.7-0xc0d4.7 (0.1)
0x0c0d0|               00                              |     .          |              sect: 0 0xc0d5-0xc0d5.7 (1)
0x0c0d0|                  00 01                        |      ..        |              desc: 256 0xc0d6-0xc0d7.7 (2)
0x0c0d0|                        00 00 00 00 00 00 00 00|        ........|              value: 0x0 0xc0d8-0xc0df.7 (8)
0x0c0f0|20 00 5f 5f 6d 68 5f 65 78 65 63 75 74 65 5f 68| .__mh_execute_h|          str_table: raw bits 0xc0f0-0xc137.7 (72)
*      |until 0xc137.7 (72)                            |                |
       |                                               |                |        [6]{}: load_command 0x4408-0x4457.7 (80)
0x04400|                        0b 00 00 00            |        ....    |          cmd: "dysymtab" (0xb) 0x4408-0x440b.7 (4)
0x04400|                                    50 00 00 00|            P...|          cmdsize: 80 0x440c-0x440f.7 (4)
0x04410|00 00 00 00                                    |....            |          ilocalsym: 0 0x4410-0x4413.7 (4)
0x04410|            00 00 00 00                        |    ....        |          nlocalsym: 0 0x4414-0x4417.7 (4)
0x04410|                        00 00 00 00            |        ....    |          iextdefsym: 0 0x4418-0x441b.7 (4)
0x04410|                                    04 00 00 00|            ....|          nextdefsym: 4 0x441c-0x441f.7 (4)
0x04420|04 00 00 00                                    |....            |          iundefsym: 4 0x4420-0x4423.7 (4)
0x04420|            02 00 00 00                        |    ....        |          nundefsym: 2 0x4424-0x4427.7 (4)
0x04420|                        00 00 00 00            |        ....    |          tocoff: 0 0x4428-0x442b.7 (4)
0x04420|                                    00 00 00 00|            ....|          ntoc: 0 0x442c-0x442f.7 (4)
0x04430|00 00 00 00                                    |....            |          modtaboff: 0 0x4430-0x4433.7 (4)
0x04430|            00 00 00 00                        |    ....        |          nmodtab: 0 0x4434-0x4437.7 (4)
0x04430|                        00 00 00 00            |        ....    |          extrefsymoff: 0 0x4438-0x443b.7 (4)
0x04430|                                    00 00 00 00|            ....|          nextrefsyms: 0 0x443c-0x443f.7 (4)
0x04440|e0 80 00 00                                    |....            |          indirectsymoff: 32992 0x4440-0x4443.7 (4)
0x04440|            04 00 00 00                        |    ....        |          nindirectsyms: 4 0x4444-0x4447.7 (4)
0x04440|                        00 00 00 00            |        ....    |          extreloff: 0 0x4448-0x444b.7 (4)
0x04440|                                    00 00 00 00|            ....|          nextrel: 0 0x444c-0x444f.7 (4)
0x04450|00 00 00 00                                    |....            |          locreloff: 0 0x4450-0x4453.7 (4)
0x04450|            00 00 00 00                        |    ....        |          nlocrel: 0 0x4454-0x4457.7 (4)
       |                                               |                |        [7]{}: load_command 0x4458-0x4477.7 (32)
0x04450|                        0e 00 00 00            |        ....    |          cmd: "load_dylinker" (0xe) 0x4458-0x445b.7 (4)
0x04450|                                    20 00 00 00|             ...|          cmdsize: 32 0x445c-0x445f.7 (4)
0x04460|0c 00 00 00                                    |....            |          offset: 0xc 0x4460-0x4463.7 (4)
0x04460|            2f 75 73 72 2f 6c 69 62 2f 64 79 6c|    /usr/lib/dyl|          name: "/usr/lib/dyld" 0x4464-0x4477.7 (20)
0x04470|64 00 00 00 00 00 00 00                        |d.......        |
       |                                               |                |        [8]{}: load_command 0x4478-0x448f.7 (24)
0x04470|                        1b 00 00 00            |        ....    |          cmd: "uuid" (0x1b) 0x4478-0x447b.7 (4)
0x04470|                                    18 00 00 00|            ....|          cmdsize: 24 0x447c-0x447f.7 (4)
       |                                               |                |          uuid_command{}: 0x4480-0x448f.7 (16)
0x04480|fb af d5 be 09 f4 34 7e ae 30 62 38 f2 3d 65 83|......4~.0b8.=e.|            uuid: raw bits 0x4480-0x448f.7 (16)
       |                                               |                |        [9]{}: load_command 0x4490-0x449f.7 (16)
0x04490|24 00 00 00                                    |$...            |          cmd: "version_min_macosx" (0x24) 0x4490-0x4493.7 (4)
0x04490|            10 00 00 00                        |    ....        |          cmdsize: 16 0x4494-0x4497.7 (4)
0x04490|                        00 0c 0a 00            |        ....    |          version: 658432 0x4498-0x449b.7 (4)
0x04490|                                    00 01 0c 00|            ....|          sdk: 786688 0x449c-0x449f.7 (4)
       |                                               |                |        [10]{}: load_command 0x44a0-0x44af.7 (16)
0x044a0|2a 00 00 00                                    |*...            |          cmd: "source_version" (0x2a) 0x44a0-0x44a3.7 (4)
0x044a0|            10 00 00 00                        |    ....        |          cmdsize: 16 0x44a4-0x44a7.7 (4)
       |                                               |                |          source_version_tag{}: 0x44a8-0x44af.7 (8)
0x044a0|                        00 00 00 00 00 00 00 00|        ........|            tag: 0 0x44a8-0x44af.7 (8)
       |                                               |                |        [11]{}: load_command 0x44b0-0x44c7.7 (24)
0x044b0|28 00 00 80                                    |(...            |          cmd: "main" (0x80000028) 0x44b0-0x44b3.7 (4)
0x044b0|            18 00 00 00                        |    ....        |          cmdsize: 24 0x44b4-0x44b7.7 (4)
       |                                               |                |          entrypoint{}: 0x44b8-0x44c7.7 (16)
0x044b0|                        50 3f 00 00 00 00 00 00|        P?......|            entryoff: 0x3f50 0x44b8-0x44bf.7 (8)
0x044c0|00 00 00 00 00 00 00 00                        |........        |            stacksize: 0 0x44c0-0x44c7.7 (8)
       |                                               |                |        [12]{}: load_command 0x44c8-0x44ff.7 (56)
0x044c0|                        0c 00 00 00            |        ....    |          cmd: "load_dylib" (0xc) 0x44c8-0x44cb.7 (4)
0x044c0|                                    38 00 00 00|            8...|          cmdsize: 56 0x44cc-0x44cf.7 (4)
       |                                               |                |          dylib_command{}: 0x44d0-0x44ff.7 (48)
0x044d0|18 00 00 00                                    |....            |            offset: 0x18 0x44d0-0x44d3.7 (4)
0x044d0|            02 00 00 00                        |    ....        |            timestamp: "1970-01-01 00:00:00.002 +0000 UTC" (2) 0x44d4-0x44d7.7 (4)
0x044d0|                        00 00 1f 05            |        ....    |            current_version: 85917696 0x44d8-0x44db.7 (4)
0x044d0|                                    00 00 01 00|            ....|            compatibility_version: 65536 0x44dc-0x44df.7 (4)
0x044e0|2f 75 73 72 2f 6c 69 62 2f 6c 69 62 53 79 73 74|/usr/lib/libSyst|            name: "/usr/lib/libSystem.B.dylib" 0x44e0-0x44ff.7 (32)
0x044f0|65 6d 2e 42 2e 64 79 6c 69 62 00 00 00 00 00 00|em.B.dylib......|
       |                                               |                |        [13]{}: load_command 0x4500-0x450f.7 (16)
0x04500|26 00 00 00                                    |&...            |          cmd: "function_starts" (0x26) 0x4500-0x4503.7 (4)
0x04500|            10 00 00 00                        |    ....        |          cmdsize: 16 0x4504-0x4507.7 (4)
       |                                               |                |          linkedit_data{}: 0x4508-0x450f.7 (8)
0x04500|                        78 80 00 00            |        x...    |            off: 32888 0x4508-0x450b.7 (4)
0x04500|                                    08 00 00 00|            ....|            size: 8 0x450c-0x450f.7 (4)
       |                                               |                |        [14]{}: load_command 0x4510-0x451f.7 (16)
0x04510|29 00 00 00                                    |)...            |          cmd: "data_in_code" (0x29) 0x4510-0x4513.7 (4)
0x04510|            10 00 00 00                        |    ....        |          cmdsize: 16 0x4514-0x4517.7 (4)
       |                                               |                |          linkedit_data{}: 0x4518-0x451f.7 (8)
0x04510|                        80 80 00 00            |        ....    |            off: 32896 0x4518-0x451b.7 (4)
0x04510|                                    00 00 00 00|            ....|            size: 0 0x451c-0x451f.7 (4)
       |00 01 02 03 04 05 06 07 08 09 0a 0b 0c 0d 0e 0f|0123456789abcdef|    [1]{}: file (macho) 0x10000-0x1c157.7 (49496)
       |                                               |                |      header{}: 0x10000-0x1001f.7 (32)
       |                                               |                |        arch_bits: 64 0x10000-NA (0)
0x10000|cf fa ed fe                                    |....            |        magic: "64le" (0xfeedfacf) (64-bit little endian) 0x10000-0x10003.7 (4)
       |                                               |                |        bits: 64 0x10004-NA (0)
0x10000|            0c 00 00 01                        |    ....        |        cputype: "arm64" (0x100000c) 0x10004-0x10007.7 (4)
0x10000|                        00 00 00 00            |        ....    |        cpusubtype: 0x0 0x10008-0x1000b.7 (4)
0x10000|                                    02 00 00 00|            ....|        filetype: "execute" (2) 0x1000c-0x1000f.7 (4)
0x10010|11 00 00 00                                    |....            |        ncdms: 17 0x10010-0x10013.7 (4)
0x10010|            68 05 00 00                        |    h...        |        sizeofncdms: 1384 0x10014-0x10017.7 (4)
       |                                               |                |        flags{}: 0x10018-0x1001b.7 (4)
0x10010|                        85                     |        .       |          reserved: raw bits 0x10018-0x10018.5 (0.6)
0x10010|                        85                     |        .       |          app_extension_safe: false 0x10018.6-0x10018.6 (0.1)
0x10010|                        85                     |        .       |          no_heap_execution: true 0x10018.7-0x10018.7 (0.1)
0x10010|                           00                  |         .      |          has_tlv_descriptors: false 0x10019-0x10019 (0.1)
0x10010|                           00                  |         .      |          dead_strippable_dylib: false 0x10019.1-0x10019.1 (0.1)
0x10010|                           00                  |         .      |          pie: false 0x10019.2-0x10019.2 (0.1)
0x10010|                           00                  |         .      |          no_reexported_dylibs: false 0x10019.3-0x10019.3 (0.1)
0x10010|                           00                  |         .      |          setuid_safe: false 0x10019.4-0x10019.4 (0.1)
0x10010|                           00                  |         .      |          root_safe: false 0x10019.5-0x10019.5 (0.1)
0x10010|                           00                  |         .      |          allow_stack_execution: false 0x10019.6-0x10019.6 (0.1)
0x10010|                           00                  |         .      |          binds_to_weak: false 0x10019.7-0x10019.7 (0.1)
0x10010|                              20               |                |          weak_defines: false 0x1001a-0x1001a (0.1)
0x10010|                              20               |                |          canonical: false 0x1001a.1-0x1001a.1 (0.1)
0x10010|                              20               |                |          subsections_via_symbols: true 0x1001a.2-0x1001a.2 (0.1)
0x10010|                              20               |                |          allmodsbound: false 0x1001a.3-0x1001a.3 (0.1)
0x10010|                              20               |                |          prebindable: false 0x1001a.4-0x1001a.4 (0.1)
0x10010|                              20               |                |          nofixprebinding: false 0x1001a.5-0x1001a.5 (0.1)
0x10010|                              20               |                |          nomultidefs: false 0x1001a.6-0x1001a.6 (0.1)
0x10010|                              20               |                |          force_flat: false 0x1001a.7-0x1001a.7 (0.1)
0x10010|                                 00            |           .    |          twolevel: false 0x1001b-0x1001b (0.1)
0x10010|                                 00            |           .    |          lazy_init: false 0x1001b.1-0x1001b.1 (0.1)
0x10010|                                 00            |           .    |          split_segs: false 0x1001b.2-0x1001b.2 (0.1)
0x10010|                                 00            |           .    |          prebound: false 0x1001b.3-0x1001b.3 (0.1)
0x10010|                                 00            |           .    |          bindatload: false 0x1001b.4-0x1001b.4 (0.1)
0x10010|                                 00            |           .    |          dyldlink: false 0x1001b.5-0x1001b.5 (0.1)
0x10010|                                 00            |           .    |          incrlink: false 0x1001b.6-0x1001b.6 (0.1)
0x10010|                                 00            |           .    |          noundefs: false 0x1001b.7-0x1001b.7 (0.1)
0x10010|                                    00 00 00 00|            ....|        reserved: raw bits (all zero) 0x1001c-0x1001f.7 (4)
       |                                               |                |      load_commands[0:17]: 0x10020-0x1c157.7 (49464)
       |                                               |                |        [0]{}: load_command 0x10020-0x10067.7 (72)
0x10020|19 00 00 00                                    |....            |          cmd: "segment_64" (0x19) 0x10020-0x10023.7 (4)
0x10020|            48 00 00 00                        |    H...        |          cmdsize: 72 0x10024-0x10027.7 (4)
       |                                               |                |          segment_command{}: 0x10028-0x10067.7 (64)
       |                                               |                |            arch_bits: 64 0x10028-NA (0)
0x10020|                        5f 5f 50 41 47 45 5a 45|        __PAGEZE|            segname: "__PAGEZERO" 0x10028-0x10037.7 (16)
0x10030|52 4f 00 00 00 00 00 00                        |RO......        |
0x10030|                        00 00 00 00 00 00 00 00|        ........|            vmaddr: 0x0 0x10038-0x1003f.7 (8)
0x10040|00 00 00 00 01 00 00 00                        |........        |            vmsize: 4294967296 0x10040-0x10047.7 (8)
0x10040|                        00 00 00 00 00 00 00 00|        ........|            fileoff: 0x0 0x10048-0x1004f.7 (8)
0x10050|00 00 00 00 00 00 00 00                        |........        |            tfilesize: 0 0x10050-0x10057.7 (8)
0x10050|                        00 00 00 00            |        ....    |            initprot: 0 0x10058-0x1005b.7 (4)
0x10050|                                    00 00 00 00|            ....|            maxprot: 0 0x1005c-0x1005f.7 (4)
0x10060|00 00 00 00                                    |....            |            nsects: 0 0x10060-0x10063.7 (4)
       |                                               |                |            flags{}: 0x10064-0x10067.7 (4)
0x10060|            00 00 00 00                        |    ....        |              reserved: raw bits 0x10064-0x10067.3 (3.4)
0x10060|                     00                        |       .        |              protected_version_1: false 0x10067.4-0x10067.4 (0.1)
0x10060|                     00                        |       .        |              noreloc: false 0x10067.5-0x10067.5 (0.1)
0x10060|                     00                        |       .        |              fvmlib: false 0x10067.6-0x10067.6 (0.1)
0x10060|                     00                        |       .        |              highvm: false 0x10067.7-0x10067.7 (0.1)
       |                                               |                |          sections[0:0]: 0x10068-NA (0)
       |                                               |                |        [1]{}: load_command 0x10068-0x13fff.7 (16280)
0x10060|                        19 00 00 00            |        ....    |          cmd: "segment_64" (0x19) 0x10068-0x1006b.7 (4)
0x10060|                                    d8 01 00 00|            ....|          cmdsize: 472 0x1006c-0x1006f.7 (4)
       |                                               |                |          segment_command{}: 0x10070-0x100af.7 (64)
       |                                               |                |            arch_bits: 64 0x10070-NA (0)
0x10070|5f 5f 54 45 58 54 00 00 00 00 00 00 00 00 00 00|__TEXT..........|            segname: "__TEXT" 0x10070-0x1007f.7 (16)
0x10080|00 00 00 00 01 00 00 00                        |........        |            vmaddr: 0x100000000 0x10080-0x10087.7 (8)
0x10080|                        00 40 00 00 00 00 00 00|        .@......|            vmsize: 16384 0x10088-0x1008f.7 (8)
0x10090|00 00 00 00 00 00 00 00                        |........        |            fileoff: 0x0 0x10090-0x10097.7 (8)
0x10090|                        00 40 00 00 00 00 00 00|        .@......|            tfilesize: 16384 0x10098-0x1009f.7 (8)
0x100a0|05 00 00 00                                    |....            |            initprot: 5 0x100a0-0x100a3.7 (4)
0x100a0|            05 00 00 00                        |    ....        |            maxprot: 5 0x100a4-0x100a7.7 (4)
0x100a0|                        05 00 00 00            |        ....    |            nsects: 5 0x100a8-0x100ab.7 (4)
       |                                               |                |            flags{}: 0x100ac-0x100af.7 (4)
0x100a0|                                    00 00 00 00|            ....|              reserved: raw bits 0x100ac-0x100af.3 (3.4)
0x100a0|                                             00|               .|              protected_version_1: false 0x100af.4-0x100af.4 (0.1)
0x100a0|                                             00|               .|              noreloc: false 0x100af.5-0x100af.5 (0.1)
0x100a0|                                             00|               .|              fvmlib: false 0x100af.6-0x100af.6 (0.1)
0x100a0|                                             00|               .|              highvm: false 0x100af.7-0x100af.7 (0.1)
       |                                               |                |          sections[0:5]: 0x100b0-0x13fff.7 (16208)
       |                                               |                |            [0]{}: section 0x100b0-0x13f73.7 (16068)
0x100b0|5f 5f 74 65 78 74 00 00 00 00 00 00 00 00 00 00|__text..........|              sectname: "__text" 0x100b0-0x100bf.7 (16)
0x100c0|5f 5f 54 45 58 54 00 00 00 00 00 00 00 00 00 00|__TEXT..........|              segname: "__TEXT" 0x100c0-0x100cf.7 (16)
0x100d0|20 3f 00 00 01 00 00 00                        | ?......        |              address: 0x100003f20 0x100d0-0x100d7.7 (8)
0x100d0|                        54 00 00 00 00 00 00 00|        T.......|              size: 84 0x100d8-0x100df.7 (8)
0x100e0|20 3f 00 00                                    | ?..            |              offset: 0x3f20 0x100e0-0x100e3.7 (4)
0x100e0|            02 00 00 00                        |    ....        |              align: 2 0x100e4-0x100e7.7 (4)
0x100e0|                        00 00 00 00            |        ....    |              reloff: 0 0x100e8-0x100eb.7 (4)
0x100e0|                                    00 00 00 00|            ....|              nreloc: 0 0x100ec-0x100ef.7 (4)
       |                                               |                |              flags{}: 0x100f0-0x100f2.7 (3)
0x100f0|00                                             |.               |                attr_pure_instructions: false 0x100f0-0x100f0 (0.1)
0x100f0|00                                             |.               |                attr_no_toc: false 0x100f0.1-0x100f0.1 (0.1)
0x100f0|00                                             |.               |                attr_strip_static_syms: false 0x100f0.2-0x100f0.2 (0.1)
0x100f0|00                                             |.               |                attr_no_dead_strip: false 0x100f0.3-0x100f0.3 (0.1)
0x100f0|00                                             |.               |                attr_live_support: false 0x100f0.4-0x100f0.4 (0.1)
0x100f0|00                                             |.               |                attr_self_modifying_code: false 0x100f0.5-0x100f0.5 (0.1)
0x100f0|00                                             |.               |                attr_debug: false 0x100f0.6-0x100f0.6 (0.1)
0x100f0|00 04 00                                       |...             |                reserved: raw bits 0x100f0.7-0x100f2.4 (1.6)
0x100f0|      00                                       |  .             |                attr_some_instructions: false 0x100f2.5-0x100f2.5 (0.1)
0x100f0|      00                                       |  .             |                attr_ext_reloc: false 0x100f2.6-0x100f2.6 (0.1)
0x100f0|      00                                       |  .             |                attr_loc_reloc: false 0x100f2.7-0x100f2.7 (0.1)
0x100f0|         80                                    |   .            |              type: 128 0x100f3-0x100f3.7 (1)
0x100f0|            00 00 00 00                        |    ....        |              reserved1: 0 0x100f4-0x100f7.7 (4)
0x100f0|                        00 00 00 00            |        ....    |              reserved2: 0 0x100f8-0x100fb.7 (4)
0x100f0|                                    00 00 00 00|            ....|              reserved3: 0 0x100fc-0x100ff.7 (4)
0x13f20|fd 7b bf a9 fd 03 00 91 00 00 00 90 00 90 3e 91|.{............>.|              data: raw bits 0x13f20-0x13f73.7 (84)
*      |until 0x13f73.7 (84)                           |                |
       |                                               |                |            [1]{}: section 0x10100-0x13f7f.7 (16000)
0x10100|5f 5f 73 74 75 62 73 00 00 00 00 00 00 00 00 00|__stubs.........|              sectname: "__stubs" 0x10100-0x1010f.7 (16)
0x10110|5f 5f 54 45 58 54 00 00 00 00 00 00 00 00 00 00|__TEXT..........|              segname: "__TEXT" 0x10110-0x1011f.7 (16)
0x10120|74 3f 00 00 01 00 00 00                        |t?......        |              address: 0x100003f74 0x10120-0x10127.7 (8)
0x10120|                        0c 00 00 00 00 00 00 00|        ........|              size: 12 0x10128-0x1012f.7 (8)
0x10130|74 3f 00 00                                    |t?..            |              offset: 0x3f74 0x10130-0x10133.7 (4)
0x10130|            02 00 00 00                        |    ....        |              align: 2 0x10134-0x10137.7 (4)
0x10130|                        00 00 00 00            |        ....    |              reloff: 0 0x10138-0x1013b.7 (4)
0x10130|                                    00 00 00 00|            ....|              nreloc: 0 0x1013c-0x1013f.7 (4)
       |                                               |                |              flags{}: 0x10140-0x10142.7 (3)
0x10140|08                                             |.               |                attr_pure_instructions: false 0x10140-0x10140 (0.1)
0x10140|08                                             |.               |                attr_no_toc: false 0x10140.1-0x10140.1 (0.1)
0x10140|08                                             |.               |                attr_strip_static_syms: false 0x10140.2-0x10140.2 (0.1)
0x10140|08                                             |.               |                attr_no_dead_strip: false 0x10140.3-0x10140.3 (0.1)
0x10140|08                                             |.               |                attr_live_support: true 0x10140.4-0x10140.4 (0.1)
0x10140|08                                             |.               |                attr_self_modifying_code: false 0x10140.5-0x10140.5 (0.1)
0x10140|08                                             |.               |                attr_debug: false 0x10140.6-0x10140.6 (0.1)
0x10140|08 04 00                                       |...             |                reserved: raw bits 0x10140.7-0x10142.4 (1.6)
0x10140|      00                                       |  .             |                attr_some_instructions: false 0x10142.5-0x10142.5 (0.1)
0x10140|      00                                       |  .             |                attr_ext_reloc: false 0x10142.6-0x10142.6 (0.1)
0x10140|      00                                       |  .             |                attr_loc_reloc: false 0x10142.7-0x10142.7 (0.1)
0x10140|         80                                    |   .            |              type: 128 0x10143-0x10143.7 (1)
0x10140|            00 00 00 00                        |    ....        |              reserved1: 0 0x10144-0x10147.7 (4)
0x10140|                        0c 00 00 00            |        ....    |              reserved2: 12 0x10148-0x1014b.7 (4)
0x10140|                                    00 00 00 00|            ....|              reserved3: 0 0x1014c-0x1014f.7 (4)
0x13f70|            1f 20 03 d5 50 04 02 58 00 02 1f d6|    . ..P..X....|              data: raw bits 0x13f74-0x13f7f.7 (12)
       |                                               |                |            [2]{}: section 0x10150-0x13fa3.7 (15956)
0x10150|5f 5f 73 74 75 62 5f 68 65 6c 70 65 72 00 00 00|__stub_helper...|              sectname: "__stub_helper" 0x10150-0x1015f.7 (16)
0x10160|5f 5f 54 45 58 54 00 00 00 00 00 00 00 00 00 00|__TEXT..........|              segname: "__TEXT" 0x10160-0x1016f.7 (16)
0x10170|80 3f 00 00 01 00 00 00                        |.?......        |              address: 0x100003f80 0x10170-0x10177.7 (8)
0x10170|                        24 00 00 00 00 00 00 00|        $.......|              size: 36 0x10178-0x1017f.7 (8)
0x10180|80 3f 00 00                                    |.?..            |              offset: 0x3f80 0x10180-0x10183.7 (4)
0x10180|            02 00 00 00                        |    ....        |              align: 2 0x10184-0x10187.7 (4)
0x10180|                        00 00 00 00            |        ....    |              reloff: 0 0x10188-0x1018b.7 (4)
0x10180|                                    00 00 00 00|            ....|              nreloc: 0 0x1018c-0x1018f.7 (4)
       |                                               |                |              flags{}: 0x10190-0x10192.7 (3)
0x10190|00                                             |.               |                attr_pure_instructions: false 0x10190-0x10190 (0.1)
0x10190|00                                             |.               |                attr_no_toc: false 0x10190.1-0x10190.1 (0.1)
0x10190|00                                             |.               |                attr_strip_static_syms: false 0x10190.2-0x10190.2 (0.1)
0x10190|00                                             |.               |                attr_no_dead_strip: false 0x10190.3-0x10190.3 (0.1)
0x10190|00                                             |.               |                attr_live_support: false 0x10190.4-0x10190.4 (0.1)
0x10190|00                                             |.               |                attr_self_modifying_code: false 0x10190.5-0x10190.5 (0.1)
0x10190|00                                             |.               |                attr_debug: false 0x10190.6-0x10190.6 (0.1)
0x10190|00 04 00                                       |...             |                reserved: raw bits 0x10190.7-0x10192.4 (1.6)
0x10190|      00                                       |  .             |                attr_some_instructions: false 0x10192.5-0x10192.5 (0.1)
0x10190|      00                                       |  .             |                attr_ext_reloc: false 0x10192.6-0x10192.6 (0.1)
0x10190|      00                                       |  .             |                attr_loc_reloc: false 0x10192.7-0x10192.7 (0.1)
0x10190|         80                                    |   .            |              type: 128 0x10193-0x10193.7 (1)
0x10190|            00 00 00 00                        |    ....        |              reserved1: 0 0x10194-0x10197.7 (4)
0x10190|                        00 00 00 00            |        ....    |              reserved2: 0 0x10198-0x1019b.7 (4)
0x10190|                                    00 00 00 00|            ....|              reserved3: 0 0x1019c-0x1019f.7 (4)
0x13f80|51 04 02 10 1f 20 03 d5 f0 47 bf a9 1f 20 03 d5|Q.... ...G... ..|              data: raw bits 0x13f80-0x13fa3.7 (36)
*      |until 0x13fa3.7 (36)                           |                |
       |                                               |                |            [3]{}: section 0x101a0-0x13fb4.7 (15893)
0x101a0|5f 5f 63 73 74 72 69 6e 67 00 00 00 00 00 00 00|__cstring.......|              sectname: "__cstring" 0x101a0-0x101af.7 (16)
0x101b0|5f 5f 54 45 58 54 00 00 00 00 00 00 00 00 00 00|__TEXT..........|              segname: "__TEXT" 0x101b0-0x101bf.7 (16)
0x101c0|a4 3f 00 00 01 00 00 00                        |.?......        |              address: 0x100003fa4 0x101c0-0x101c7.7 (8)
0x101c0|                        11 00 00 00 00 00 00 00|        ........|              size: 17 0x101c8-0x101cf.7 (8)
0x101d0|a4 3f 00 00                                    |.?..            |              offset: 0x3fa4 0x101d0-0x101d3.7 (4)
0x101d0|            00 00 00 00                        |    ....        |              align: 0 0x101d4-0x101d7.7 (4)
0x101d0|                        00 00 00 00            |        ....    |              reloff: 0 0x101d8-0x101db.7 (4)
0x101d0|                                    00 00 00 00|            ....|              nreloc: 0 0x101dc-0x101df.7 (4)
       |                                               |                |              flags{}: 0x101e0-0x101e2.7 (3)
0x101e0|02                                             |.               |                attr_pure_instructions: false 0x101e0-0x101e0 (0.1)
0x101e0|02                                             |.               |                attr_no_toc: false 0x101e0.1-0x101e0.1 (0.1)
0x101e0|02                                             |.               |                attr_strip_static_syms: false 0x101e0.2-0x101e0.2 (0.1)
0x101e0|02                                             |.               |                attr_no_dead_strip: false 0x101e0.3-0x101e0.3 (0.1)
0x101e0|02                                             |.               |                attr_live_support: false 0x101e0.4-0x101e0.4 (0.1)
0x101e0|02                                             |.               |                attr_self_modifying_code: false 0x101e0.5-0x101e0.5 (0.1)
0x101e0|02                                             |.               |                attr_debug: true 0x101e0.6-0x101e0.6 (0.1)
0x101e0|02 00 00                                       |...             |                reserved: raw bits 0x101e0.7-0x101e2.4 (1.6)
0x101e0|      00                                       |  .             |                attr_some_instructions: false 0x101e2.5-0x101e2.5 (0.1)
0x101e0|      00                                       |  .             |                attr_ext_reloc: false 0x101e2.6-0x101e2.6 (0.1)
0x101e0|      00                                       |  .             |                attr_loc_reloc: false 0x101e2.7-0x101e2.7 (0.1)
0x101e0|         00                                    |   .            |              type: "regular" (0) 0x101e3-0x101e3.7 (1)
0x101e0|            00 00 00 00                        |    ....        |              reserved1: 0 0x101e4-0x101e7.7 (4)
0x101e0|                        00 00 00 00            |        ....    |              reserved2: 0 0x101e8-0x101eb.7 (4)
0x101e0|                                    00 00 00 00|            ....|              reserved3: 0 0x101ec-0x101ef.7 (4)
       |                                               |                |              cstrings[0:2]: 0x13fa4-0x13fb4.7 (17)
0x13fa0|            61 61 61 0a 00                     |    aaa..       |                [0]: "aaa\n" cstring 0x13fa4-0x13fa8.7 (5)
0x13fa0|                           6c 69 62 62 62 62 5f|         libbbb_|                [1]: "libbbb_bbb\n" cstring 0x13fa9-0x13fb4.7 (12)
0x13fb0|62 62 62 0a 00                                 |bbb..           |
       |                                               |                |            [4]{}: section 0x101f0-0x13fff.7 (15888)
0x101f0|5f 5f 75 6e 77 69 6e 64 5f 69 6e 66 6f 00 00 00|__unwind_info...|              sectname: "__unwind_info" 0x101f0-0x101ff.7 (16)
0x10200|5f 5f 54 45 58 54 00 00 00 00 00 00 00 00 00 00|__TEXT..........|              segname: "__TEXT" 0x10200-0x1020f.7 (16)
0x10210|b8 3f 00 00 01 00 00 00                        |.?......        |              address: 0x100003fb8 0x10210-0x10217.7 (8)
0x10210|                        48 00 00 00 00 00 00 00|        H.......|              size: 72 0x10218-0x1021f.7 (8)
0x10220|b8 3f 00 00                                    |.?..            |              offset: 0x3fb8 0x10220-0x10223.7 (4)
0x10220|            02 00 00 00                        |    ....        |              align: 2 0x10224-0x10227.7 (4)
0x10220|                        00 00 00 00            |        ....    |              reloff: 0 0x10228-0x1022b.7 (4)
0x10220|                                    00 00 00 00|            ....|              nreloc: 0 0x1022c-0x1022f.7 (4)
       |                                               |                |              flags{}: 0x10230-0x10232.7 (3)
0x10230|00                                             |.               |                attr_pure_instructions: false 0x10230-0x10230 (0.1)
0x10230|00                                             |.               |                attr_no_toc: false 0x10230.1-0x10230.1 (0.1)
0x10230|00                                             |.               |                attr_strip_static_syms: false 0x10230.2-0x10230.2 (0.1)
0x10230|00                                             |.               |                attr_no_dead_strip: false 0x10230.3-0x10230.3 (0.1)
0x10230|00                                             |.               |                attr_live_support: false 0x10230.4-0x10230.4 (0.1)
0x10230|00                                             |.               |                attr_self_modifying_code: false 0x10230.5-0x10230.5 (0.1)
0x10230|00                                             |.               |                attr_debug: false 0x10230.6-0x10230.6 (0.1)
0x10230|00 00 00                                       |...             |                reserved: raw bits 0x10230.7-0x10232.4 (1.6)
0x10230|      00                                       |  .             |                attr_some_instructions: false 0x10232.5-0x10232.5 (0.1)
0x10230|      00                                       |  .             |                attr_ext_reloc: false 0x10232.6-0x10232.6 (0.1)
0x10230|      00                                       |  .             |                attr_loc_reloc: false 0x10232.7-0x10232.7 (0.1)
0x10230|         00                                    |   .            |              type: "regular" (0) 0x10233-0x10233.7 (1)
0x10230|            00 00 00 00                        |    ....        |              reserved1: 0 0x10234-0x10237.7 (4)
0x10230|                        00 00 00 00            |        ....    |              reserved2: 0 0x10238-0x1023b.7 (4)
0x10230|                                    00 00 00 00|            ....|              reserved3: 0 0x1023c-0x1023f.7 (4)
0x13fb0|                        01 00 00 00 1c 00 00 00|        ........|              data: raw bits 0x13fb8-0x13fff.7 (72)
0x13fc0|00 00 00 00 1c 00 00 00 00 00 00 00 1c 00 00 00|................|
*      |until 0x13fff.7 (72)                           |                |
       |                                               |                |        [2]{}: load_command 0x10240-0x14007.7 (15816)
0x10240|19 00 00 00                                    |....            |          cmd: "segment_64" (0x19) 0x10240-0x10243.7 (4)
0x10240|            98 00 00 00                        |    ....        |          cmdsize: 152 0x10244-0x10247.7 (4)
       |                                               |                |          segment_command{}: 0x10248-0x10287.7 (64)
       |                                               |                |            arch_bits: 64 0x10248-NA (0)
0x10240|                        5f 5f 44 41 54 41 5f 43|        __DATA_C|            segname: "__DATA_CONST" 0x10248-0x10257.7 (16)
0x10250|4f 4e 53 54 00 00 00 00                        |ONST....        |
0x10250|                        00 40 00 00 01 00 00 00|        .@......|            vmaddr: 0x100004000 0x10258-0x1025f.7 (8)
0x10260|00 40 00 00 00 00 00 00                        |.@......        |            vmsize: 16384 0x10260-0x10267.7 (8)
0x10260|                        00 40 00 00 00 00 00 00|        .@......|            fileoff: 0x4000 0x10268-0x1026f.7 (8)
0x10270|00 40 00 00 00 00 00 00                        |.@......        |            tfilesize: 16384 0x10270-0x10277.7 (8)
0x10270|                        03 00 00 00            |        ....    |            initprot: 3 0x10278-0x1027b.7 (4)
0x10270|                                    03 00 00 00|            ....|            maxprot: 3 0x1027c-0x1027f.7 (4)
0x10280|01 00 00 00                                    |....            |            nsects: 1 0x10280-0x10283.7 (4)
       |                                               |                |            flags{}: 0x10284-0x10287.7 (4)
0x10280|            10 00 00 00                        |    ....        |              reserved: raw bits 0x10284-0x10287.3 (3.4)
0x10280|                     00                        |       .        |              protected_version_1: false 0x10287.4-0x10287.4 (0.1)
0x10280|                     00                        |       .        |              noreloc: false 0x10287.5-0x10287.5 (0.1)
0x10280|                     00                        |       .        |              fvmlib: false 0x10287.6-0x10287.6 (0.1)
0x10280|                     00                        |       .        |              highvm: false 0x10287.7-0x10287.7 (0.1)
       |                                               |                |          sections[0:1]: 0x10288-0x14007.7 (15744)
       |                                               |                |            [0]{}: section 0x10288-0x14007.7 (15744)
0x10280|                        5f 5f 67 6f 74 00 00 00|        __got...|              sectname: "__got" 0x10288-0x10297.7 (16)
0x10290|00 00 00 00 00 00 00 00                        |........        |
0x10290|                        5f 5f 44 41 54 41 5f 43|        __DATA_C|              segname: "__DATA_CONST" 0x10298-0x102a7.7 (16)
0x102a0|4f 4e 53 54 00 00 00 00                        |ONST....        |
0x102a0|                        00 40 00 00 01 00 00 00|        .@......|              address: 0x100004000 0x102a8-0x102af.7 (8)
0x102b0|08 00 00 00 00 00 00 00                        |........        |              size: 8 0x102b0-0x102b7.7 (8)
0x102b0|                        00 40 00 00            |        .@..    |              offset: 0x4000 0x102b8-0x102bb.7 (4)
0x102b0|                                    03 00 00 00|            ....|              align: 3 0x102bc-0x102bf.7 (4)
0x102c0|00 00 00 00                                    |....            |              reloff: 0 0x102c0-0x102c3.7 (4)
0x102c0|            00 00 00 00                        |    ....        |              nreloc: 0 0x102c4-0x102c7.7 (4)
       |                                               |                |              flags{}: 0x102c8-0x102ca.7 (3)
0x102c0|                        06                     |        .       |                attr_pure_instructions: false 0x102c8-0x102c8 (0.1)
0x102c0|                        06                     |        .       |                attr_no_toc: false 0x102c8.1-0x102c8.1 (0.1)
0x102c0|                        06                     |        .       |                attr_strip_static_syms: false 0x102c8.2-0x102c8.2 (0.1)
0x102c0|                        06                     |        .       |                attr_no_dead_strip: false 0x102c8.3-0x102c8.3 (0.1)
0x102c0|                        06                     |        .       |                attr_live_support: false 0x102c8.4-0x102c8.4 (0.1)
0x102c0|                        06                     |        .       |                attr_self_modifying_code: true 0x102c8.5-0x102c8.5 (0.1)
0x102c0|                        06                     |        .       |                attr_debug: true 0x102c8.6-0x102c8.6 (0.1)
0x102c0|                        06 00 00               |        ...     |                reserved: raw bits 0x102c8.7-0x102ca.4 (1.6)
0x102c0|                              00               |          .     |                attr_some_instructions: false 0x102ca.5-0x102ca.5 (0.1)
0x102c0|                              00               |          .     |                attr_ext_reloc: false 0x102ca.6-0x102ca.6 (0.1)
0x102c0|                              00               |          .     |                attr_loc_reloc: false 0x102ca.7-0x102ca.7 (0.1)
0x102c0|                                 00            |           .    |              type: "regular" (0) 0x102cb-0x102cb.7 (1)
0x102c0|                                    01 00 00 00|            ....|              reserved1: 1 0x102cc-0x102cf.7 (4)
0x102d0|00 00 00 00                                    |....            |              reserved2: 0 0x102d0-0x102d3.7 (4)
0x102d0|            00 00 00 00                        |    ....        |              reserved3: 0 0x102d4-0x102d7.7 (4)
0x14000|00 00 00 00 00 00 00 00                        |........        |              data: raw bits 0x14000-0x14007.7 (8)
       |                                               |                |        [3]{}: load_command 0x102d8-0x1800f.7 (32056)
0x102d0|                        19 00 00 00            |        ....    |          cmd: "segment_64" (0x19) 0x102d8-0x102db.7 (4)
0x102d0|                                    e8 00 00 00|            ....|          cmdsize: 232 0x102dc-0x102df.7 (4)
       |                                               |                |          segment_command{}: 0x102e0-0x1031f.7 (64)
       |                                               |                |            arch_bits: 64 0x102e0-NA (0)
0x102e0|5f 5f 44 41 54 41 00 00 00 00 00 00 00 00 00 00|__DATA..........|            segname: "__DATA" 0x102e0-0x102ef.7 (16)
0x102f0|00 80 00 00 01 00 00 00                        |........        |            vmaddr: 0x100008000 0x102f0-0x102f7.7 (8)
0x102f0|                        00 40 00 00 00 00 00 00|        .@......|            vmsize: 16384 0x102f8-0x102ff.7 (8)
0x10300|00 80 00 00 00 00 00 00                        |........        |            fileoff: 0x8000 0x10300-0x10307.7 (8)
0x10300|                        00 40 00 00 00 00 00 00|        .@......|            tfilesize: 16384 0x10308-0x1030f.7 (8)
0x10310|03 00 00 00                                    |....            |            initprot: 3 0x10310-0x10313.7 (4)
0x10310|            03 00 00 00                        |    ....        |            maxprot: 3 0x10314-0x10317.7 (4)
0x10310|                        02 00 00 00            |        ....    |            nsects: 2 0x10318-0x1031b.7 (4)
       |                                               |                |            flags{}: 0x1031c-0x1031f.7 (4)
0x10310|                                    00 00 00 00|            ....|              reserved: raw bits 0x1031c-0x1031f.3 (3.4)
0x10310|                                             00|               .|              protected_version_1: false 0x1031f.4-0x1031f.4 (0.1)
0x10310|                                             00|               .|              noreloc: false 0x1031f.5-0x1031f.5 (0.1)
0x10310|                                             00|               .|              fvmlib: false 0x1031f.6-0x1031f.6 (0.1)
0x10310|                                             00|               .|              highvm: false 0x1031f.7-0x1031f.7 (0.1)
       |                                               |                |          sections[0:2]: 0x10320-0x1800f.7 (31984)
       |                                               |                |            [0]{}: section 0x10320-0x18007.7 (31976)
0x10320|5f 5f 6c 61 5f 73 79 6d 62 6f 6c 5f 70 74 72 00|__la_symbol_ptr.|              sectname: "__la_symbol_ptr" 0x10320-0x1032f.7 (16)
0x10330|5f 5f 44 41 54 41 00 00 00 00 00 00 00 00 00 00|__DATA..........|              segname: "__DATA" 0x10330-0x1033f.7 (16)
0x10340|00 80 00 00 01 00 00 00                        |........        |              address: 0x100008000 0x10340-0x10347.7 (8)
0x10340|                        08 00 00 00 00 00 00 00|        ........|              size: 8 0x10348-0x1034f.7 (8)
0x10350|00 80 00 00                                    |....            |              offset: 0x8000 0x10350-0x10353.7 (4)
0x10350|            03 00 00 00                        |    ....        |              align: 3 0x10354-0x10357.7 (4)
0x10350|                        00 00 00 00            |        ....    |              reloff: 0 0x10358-0x1035b.7 (4)
0x10350|                                    00 00 00 00|            ....|              nreloc: 0 0x1035c-0x1035f.7 (4)
       |                                               |                |              flags{}: 0x10360-0x10362.7 (3)
0x10360|07                                             |.               |                attr_pure_instructions: false 0x10360-0x10360 (0.1)
0x10360|07                                             |.               |                attr_no_toc: false 0x10360.1-0x10360.1 (0.1)
0x10360|07                                             |.               |                attr_strip_static_syms: false 0x10360.2-0x10360.2 (0.1)
0x10360|07                                             |.               |                attr_no_dead_strip: false 0x10360.3-0x10360.3 (0.1)
0x10360|07                                             |.               |                attr_live_support: false 0x10360.4-0x10360.4 (0.1)
0x10360|07                                             |.               |                attr_self_modifying_code: true 0x10360.5-0x10360.5 (0.1)
0x10360|07                                             |.               |                attr_debug: true 0x10360.6-0x10360.6 (0.1)
0x10360|07 00 00                                       |...             |                reserved: raw bits 0x10360.7-0x10362.4 (1.6)
0x10360|      00                                       |  .             |                attr_some_instructions: false 0x10362.5-0x10362.5 (0.1)
0x10360|      00                                       |  .             |                attr_ext_reloc: false 0x10362.6-0x10362.6 (0.1)
0x10360|      00                                       |  .             |                attr_loc_reloc: false 0x10362.7-0x10362.7 (0.1)
0x10360|         00                                    |   .            |              type: "regular" (0) 0x10363-0x10363.7 (1)
0x10360|            02 00 00 00                        |    ....        |              reserved1: 2 0x10364-0x10367.7 (4)
0x10360|                        00 00 00 00            |        ....    |              reserved2: 0 0x10368-0x1036b.7 (4)
0x10360|                                    00 00 00 00|            ....|              reserved3: 0 0x1036c-0x1036f.7 (4)
0x18000|98 3f 00 00 01 00 00 00                        |.?......        |              data: raw bits 0x18000-0x18007.7 (8)
       |                                               |                |            [1]{}: section 0x10370-0x1800f.7 (31904)
0x10370|5f 5f 64 61 74 61 00 00 00 00 00 00 00 00 00 00|__data..........|              sectname: "__data" 0x10370-0x1037f.7 (16)
0x10380|5f 5f 44 41 54 41 00 00 00 00 00 00 00 00 00 00|__DATA..........|              segname: "__DATA" 0x10380-0x1038f.7 (16)
0x10390|08 80 00 00 01 00 00 00                        |........        |              address: 0x100008008 0x10390-0x10397.7 (8)
0x10390|                        08 00 00 00 00 00 00 00|        ........|              size: 8 0x10398-0x1039f.7 (8)
0x103a0|08 80 00 00                                    |....            |              offset: 0x8008 0x103a0-0x103a3.7 (4)
0x103a0|            03 00 00 00                        |    ....        |              align: 3 0x103a4-0x103a7.7 (4)
0x103a0|                        00 00 00 00            |        ....    |              reloff: 0 0x103a8-0x103ab.7 (4)
0x103a0|                                    00 00 00 00|            ....|              nreloc: 0 0x103ac-0x103af.7 (4)
       |                                               |                |              flags{}: 0x103b0-0x103b2.7 (3)
0x103b0|00                                             |.               |                attr_pure_instructions: false 0x103b0-0x103b0 (0.1)
0x103b0|00                                             |.               |                attr_no_toc: false 0x103b0.1-0x103b0.1 (0.1)
0x103b0|00                                             |.               |                attr_strip_static_syms: false 0x103b0.2-0x103b0.2 (0.1)
0x103b0|00                                             |.               |                attr_no_dead_strip: false 0x103b0.3-0x103b0.3 (0.1)
0x103b0|00                                             |.               |                attr_live_support: false 0x103b0.4-0x103b0.4 (0.1)
0x103b0|00                                             |.               |                attr_self_modifying_code: false 0x103b0.5-0x103b0.5 (0.1)
0x103b0|00                                             |.               |                attr_debug: false 0x103b0.6-0x103b0.6 (0.1)
0x103b0|00 00 00                                       |...             |                reserved: raw bits 0x103b0.7-0x103b2.4 (1.6)
0x103b0|      00                                       |  .             |                attr_some_instructions: false 0x103b2.5-0x103b2.5 (0.1)
0x103b0|      00                                       |  .             |                attr_ext_reloc: false 0x103b2.6-0x103b2.6 (0.1)
0x103b0|      00                                       |  .             |                attr_loc_reloc: false 0x103b2.7-0x103b2.7 (0.1)
0x103b0|         00                                    |   .            |              type: "regular" (0) 0x103b3-0x103b3.7 (1)
0x103b0|            00 00 00 00                        |    ....        |              reserved1: 0 0x103b4-0x103b7.7 (4)
0x103b0|                        00 00 00 00            |        ....    |              reserved2: 0 0x103b8-0x103bb.7 (4)
0x103b0|                                    00 00 00 00|            ....|              reserved3: 0 0x103bc-0x103bf.7 (4)
0x18000|                        00 00 00 00 00 00 00 00|        ........|              data: raw bits 0x18008-0x1800f.7 (8)
       |                                               |                |        [4]{}: load_command 0x103c0-0x10407.7 (72)
0x103c0|19 00 00 00                                    |....            |          cmd: "segment_64" (0x19) 0x103c0-0x103c3.7 (4)
0x103c0|            48 00 00 00                        |    H...        |          cmdsize: 72 0x103c4-0x103c7.7 (4)
       |                                               |                |          segment_command{}: 0x103c8-0x10407.7 (64)
       |                                               |                |            arch_bits: 64 0x103c8-NA (0)
0x103c0|                        5f 5f 4c 49 4e 4b 45 44|        __LINKED|            segname: "__LINKEDIT" 0x103c8-0x103d7.7 (16)
0x103d0|49 54 00 00 00 00 00 00                        |IT......        |
0x103d0|                        00 c0 00 00 01 00 00 00|        ........|            vmaddr: 0x10000c000 0x103d8-0x103df.7 (8)
0x103e0|00 40 00 00 00 00 00 00                        |.@......        |            vmsize: 16384 0x103e0-0x103e7.7 (8)
0x103e0|                        00 c0 00 00 00 00 00 00|        ........|            fileoff: 0xc000 0x103e8-0x103ef.7 (8)
0x103f0|75 03 00 00 00 00 00 00                        |u.......        |            tfilesize: 885 0x103f0-0x103f7.7 (8)
0x103f0|                        01 00 00 00            |        ....    |            initprot: 1 0x103f8-0x103fb.7 (4)
0x103f0|                                    01 00 00 00|            ....|            maxprot: 1 0x103fc-0x103ff.7 (4)
0x10400|00 00 00 00                                    |....            |            nsects: 0 0x10400-0x10403.7 (4)
       |                                               |                |            flags{}: 0x10404-0x10407.7 (4)
0x10400|            00 00 00 00                        |    ....        |              reserved: raw bits 0x10404-0x10407.3 (3.4)
0x10400|                     00                        |       .        |              protected_version_1: false 0x10407.4-0x10407.4 (0.1)
0x10400|                     00                        |       .        |              noreloc: false 0x10407.5-0x10407.5 (0.1)
0x10400|                     00                        |       .        |              fvmlib: false 0x10407.6-0x10407.6 (0.1)
0x10400|                     00                        |       .        |              highvm: false 0x10407.7-0x10407.7 (0.1)
       |                                               |                |          sections[0:0]: 0x10408-NA (0)
       |                                               |                |        [5]{}: load_command 0x10408-0x10437.7 (48)
0x10400|                        22 00 00 80            |        "...    |          cmd: "dyld_info_only" (0x80000022) 0x10408-0x1040b.7 (4)
0x10400|                                    30 00 00 00|            0...|          cmdsize: 48 0x1040c-0x1040f.7 (4)
       |                                               |                |          dyld_info{}: 0x10410-0x10437.7 (40)
0x10410|00 c0 00 00                                    |....            |            rebase_off: 0xc000 0x10410-0x10413.7 (4)
0x10410|            08 00 00 00                        |    ....        |            rebase_size: 8 0x10414-0x10417.7 (4)
0x10410|                        08 c0 00 00            |        ....    |            bind_off: 0xc008 0x10418-0x1041b.7 (4)
0x10410|                                    18 00 00 00|            ....|            bind_size: 24 0x1041c-0x1041f.7 (4)
0x10420|00 00 00 00                                    |....            |            weak_bind_off: 0x0 0x10420-0x10423.7 (4)
0x10420|            00 00 00 00                        |    ....        |            weak_bind_size: 0 0x10424-0x10427.7 (4)
0x10420|                        20 c0 00 00            |         ...    |            lazy_bind_off: 0xc020 0x10428-0x1042b.7 (4)
0x10420|                                    10 00 00 00|            ....|            lazy_bind_size: 16 0x1042c-0x1042f.7 (4)
0x10430|30 c0 00 00                                    |0...            |            export_off: 0xc030 0x10430-0x10433.7 (4)
0x10430|            48 00 00 00                        |    H...        |            export_size: 72 0x10434-0x10437.7 (4)
       |                                               |                |        [6]{}: load_command 0x10438-0x1c157.7 (48416)
0x10430|                        02 00 00 00            |        ....    |          cmd: "symtab" (0x2) 0x10438-0x1043b.7 (4)
0x10430|                                    18 00 00 00|            ....|          cmdsize: 24 0x1043c-0x1043f.7 (4)
0x10440|80 c0 00 00                                    |....            |          symoff: 49280 0x10440-0x10443.7 (4)
0x10440|            07 00 00 00                        |    ....        |          nsyms: 7 0x10444-0x10447.7 (4)
0x10440|                        00 c1 00 00            |        ....    |          stroff: 49408 0x10448-0x1044b.7 (4)
0x10440|                                    58 00 00 00|            X...|          strsize: 88 0x1044c-0x1044f.7 (4)
       |                                               |                |          symbols[0:7]: 0x1c080-0x1c0ef.7 (112)
       |                                               |                |            [0]{}: symbol 0x1c080-0x1c08f.7 (16)
0x1c080|46 00 00 00                                    |F...            |              strx: "__dyld_private" (70) 0x1c080-0x1c083.7 (4)
       |                                               |                |              type{}: 0x1c084-0x1c084.7 (1)
0x1c080|            0e                                 |    .           |                stab: 0 0x1c084-0x1c084.2 (0.3)
0x1c080|            0e                                 |    .           |                pext: 0 0x1c084.3-0x1c084.3 (0.1)
0x1c080|            0e                                 |    .           |                type: "sect" (7) 0x1c084.4-0x1c084.6 (0.3)
0x1c080|            0e                                 |    .           |                ext: 0 0x1c084.7-0x1c084.7 (0.1)
0x1c080|               08                              |     .          |              sect: 8 0x1c085-0x1c085.7 (1)
0x1c080|                  00 00                        |      ..        |              desc: 0 0x1c086-0x1c087.7 (2)
0x1c080|                        08 80 00 00 01 00 00 00|        ........|              value: 0x100008008 0x1c088-0x1c08f.7 (8)
       |                                               |                |            [1]{}: symbol 0x1c090-0x1c09f.7 (16)
0x1c090|02 00 00 00                                    |....            |              strx: "__mh_execute_header" (2) 0x1c090-0x1c093.7 (4)
       |                                               |                |              type{}: 0x1c094-0x1c094.7 (1)
0x1c090|            0f                                 |    .           |                stab: 0 0x1c094-0x1c094.2 (0.3)
0x1c090|            0f                                 |    .           |                pext: 0 0x1c094.3-0x1c094.3 (0.1)
0x1c090|            0f                                 |    .           |                type: "sect" (7) 0x1c094.4-0x1c094.6 (0.3)
0x1c090|            0f                                 |    .           |                ext: 1 0x1c094.7-0x1c094.7 (0.1)
0x1c090|               01                              |     .          |              sect: 1 0x1c095-0x1c095.7 (1)
0x1c090|                  10 00                        |      ..        |              desc: 16 0x1c096-0x1c097.7 (2)
0x1c090|                        00 00 00 00 01 00 00 00|        ........|              value: 0x100000000 0x1c098-0x1c09f.7 (8)
       |                                               |                |            [2]{}: symbol 0x1c0a0-0x1c0af.7 (16)
0x1c0a0|16 00 00 00                                    |....            |              strx: "_aaa" (22) 0x1c0a0-0x1c0a3.7 (4)
       |                                               |                |              type{}: 0x1c0a4-0x1c0a4.7 (1)
0x1c0a0|            0f                                 |    .           |                stab: 0 0x1c0a4-0x1c0a4.2 (0.3)
0x1c0a0|            0f                                 |    .           |                pext: 0 0x1c0a4.3-0x1c0a4.3 (0.1)
0x1c0a0|            0f                                 |    .           |                type: "sect" (7) 0x1c0a4.4-0x1c0a4.6 (0.3)
0x1c0a0|            0f                                 |    .           |                ext: 1 0x1c0a4.7-0x1c0a4.7 (0.1)
0x1c0a0|               01                              |     .          |              sect: 1 0x1c0a5-0x1c0a5.7 (1)
0x1c0a0|                  00 00                        |      ..        |              desc: 0 0x1c0a6-0x1c0a7.7 (2)
0x1c0a0|                        20 3f 00 00 01 00 00 00|         ?......|              value: 0x100003f20 0x1c0a8-0x1c0af.7 (8)
       |                                               |                |            [3]{}: symbol 0x1c0b0-0x1c0bf.7 (16)
0x1c0b0|1b 00 00 00                                    |....            |              strx: "_libbbb_bbb" (27) 0x1c0b0-0x1c0b3.7 (4)
       |                                               |                |              type{}: 0x1c0b4-0x1c0b4.7 (1)
0x1c0b0|            0f                                 |    .           |                stab: 0 0x1c0b4-0x1c0b4.2 (0.3)
0x1c0b0|            0f                                 |    .           |                pext: 0 0x1c0b4.3-0x1c0b4.3 (0.1)
0x1c0b0|            0f                                 |    .           |                type: "sect" (7) 0x1c0b4.4-0x1c0b4.6 (0.3)
0x1c0b0|            0f                                 |    .           |                ext: 1 0x1c0b4.7-0x1c0b4.7 (0.1)
0x1c0b0|               01                              |     .          |              sect: 1 0x1c0b5-0x1c0b5.7 (1)
0x1c0b0|                  00 00                        |      ..        |              desc: 0 0x1c0b6-0x1c0b7.7 (2)
0x1c0b0|                        58 3f 00 00 01 00 00 00|        X?......|              value: 0x100003f58 0x1c0b8-0x1c0bf.7 (8)
       |                                               |                |            [4]{}: symbol 0x1c0c0-0x1c0cf.7 (16)
0x1c0c0|27 00 00 00                                    |'...            |              strx: "_main" (39) 0x1c0c0-0x1c0c3.7 (4)
       |                                               |                |              type{}: 0x1c0c4-0x1c0c4.7 (1)
0x1c0c0|            0f                                 |    .           |                stab: 0 0x1c0c4-0x1c0c4.2 (0.3)
0x1c0c0|            0f                                 |    .           |                pext: 0 0x1c0c4.3-0x1c0c4.3 (0.1)
0x1c0c0|            0f                                 |    .           |                type: "sect" (7) 0x1c0c4.4-0x1c0c4.6 (0.3)
0x1c0c0|            0f                                 |    .           |                ext: 1 0x1c0c4.7-0x1c0c4.7 (0.1)
0x1c0c0|               01                              |     .          |              sect: 1 0x1c0c5-0x1c0c5.7 (1)
0x1c0c0|                  00 00                        |      ..        |              desc: 0 0x1c0c6-0x1c0c7.7 (2)
0x1c0c0|                        3c 3f 00 00 01 00 00 00|        <?......|              value: 0x100003f3c 0x1c0c8-0x1c0cf.7 (8)
       |                                               |                |            [5]{}: symbol 0x1c0d0-0x1c0df.7 (16)
0x1c0d0|2d 00 00 00                                    |-...            |              strx: "_printf" (45) 0x1c0d0-0x1c0d3.7 (4)
       |                                               |                |              type{}: 0x1c0d4-0x1c0d4.7 (1)
0x1c0d0|            01                                 |    .           |                stab: 0 0x1c0d4-0x1c0d4.2 (0.3)
0x1c0d0|            01                                 |    .           |                pext: 0 0x1c0d4.3-0x1c0d4.3 (0.1)
0x1c0d0|            01                                 |    .           |                type: "undef" (0) 0x1c0d4.4-0x1c0d4.6 (0.3)
0x1c0d0|            01                                 |    .           |                ext: 1 0x1c0d4.7-0x1c0d4.7 (0.1)
0x1c0d0|               00                              |     .          |              sect: 0 0x1c0d5-0x1c0d5.7 (1)
0x1c0d0|                  00 01                        |      ..        |              desc: 256 0x1c0d6-0x1c0d7.7 (2)
0x1c0d0|                        00 00 00 00 00 00 00 00|        ........|              value: 0x0 0x1c0d8-0x1c0df.7 (8)
       |                                               |                |            [6]{}: symbol 0x1c0e0-0x1c0ef.7 (16)
0x1c0e0|35 00 00 00                                    |5...            |              strx: "dyld_stub_binder" (53) 0x1c0e0-0x1c0e3.7 (4)
       |                                               |                |              type{}: 0x1c0e4-0x1c0e4.7 (1)
0x1c0e0|            01                                 |    .           |                stab: 0 0x1c0e4-0x1c0e4.2 (0.3)
0x1c0e0|            01                                 |    .           |                pext: 0 0x1c0e4.3-0x1c0e4.3 (0.1)
0x1c0e0|            01                                 |    .           |                type: "undef" (0) 0x1c0e4.4-0x1c0e4.6 (0.3)
0x1c0e0|            01                                 |    .           |                ext: 1 0x1c0e4.7-0x1c0e4.7 (0.1)
0x1c0e0|               00                              |     .          |              sect: 0 0x1c0e5-0x1c0e5.7 (1)
0x1c0e0|                  00 01                        |      ..        |              desc: 256 0x1c0e6-0x1c0e7.7 (2)
0x1c0e0|                        00 00 00 00 00 00 00 00|        ........|              value: 0x0 0x1c0e8-0x1c0ef.7 (8)
0x1c100|20 00 5f 5f 6d 68 5f 65 78 65 63 75 74 65 5f 68| .__mh_execute_h|          str_table: raw bits 0x1c100-0x1c157.7 (88)
*      |until 0x1c157.7 (88)                           |                |
       |                                               |                |        [7]{}: load_command 0x10450-0x1049f.7 (80)
0x10450|0b 00 00 00                                    |....            |          cmd: "dysymtab" (0xb) 0x10450-0x10453.7 (4)
0x10450|            50 00 00 00                        |    P...        |          cmdsize: 80 0x10454-0x10457.7 (4)
0x10450|                        00 00 00 00            |        ....    |          ilocalsym: 0 0x10458-0x1045b.7 (4)
0x10450|                                    01 00 00 00|            ....|          nlocalsym: 1 0x1045c-0x1045f.7 (4)
0x10460|01 00 00 00                                    |....            |          iextdefsym: 1 0x10460-0x10463.7 (4)
0x10460|            04 00 00 00                        |    ....        |          nextdefsym: 4 0x10464-0x10467.7 (4)
0x10460|                        05 00 00 00            |        ....    |          iundefsym: 5 0x10468-0x1046b.7 (4)
0x10460|                                    02 00 00 00|            ....|          nundefsym: 2 0x1046c-0x1046f.7 (4)
0x10470|00 00 00 00                                    |....            |          tocoff: 0 0x10470-0x10473.7 (4)
0x10470|            00 00 00 00                        |    ....        |          ntoc: 0 0x10474-0x10477.7 (4)
0x10470|                        00 00 00 00            |        ....    |          modtaboff: 0 0x10478-0x1047b.7 (4)
0x10470|                                    00 00 00 00|            ....|          nmodtab: 0 0x1047c-0x1047f.7 (4)
0x10480|00 00 00 00                                    |....            |          extrefsymoff: 0 0x10480-0x10483.7 (4)
0x10480|            00 00 00 00                        |    ....        |          nextrefsyms: 0 0x10484-0x10487.7 (4)
0x10480|                        f0 c0 00 00            |        ....    |          indirectsymoff: 49392 0x10488-0x1048b.7 (4)
0x10480|                                    03 00 00 00|            ....|          nindirectsyms: 3 0x1048c-0x1048f.7 (4)
0x10490|00 00 00 00                                    |....            |          extreloff: 0 0x10490-0x10493.7 (4)
0x10490|            00 00 00 00                        |    ....        |          nextrel: 0 0x10494-0x10497.7 (4)
0x10490|                        00 00 00 00            |        ....    |          locreloff: 0 0x10498-0x1049b.7 (4)
0x10490|                                    00 00 00 00|            ....|          nlocrel: 0 0x1049c-0x1049f.7 (4)
       |                                               |                |        [8]{}: load_command 0x104a0-0x104bf.7 (32)
0x104a0|0e 00 00 00                                    |....            |          cmd: "load_dylinker" (0xe) 0x104a0-0x104a3.7 (4)
0x104a0|            20 00 00 00                        |     ...        |          cmdsize: 32 0x104a4-0x104a7.7 (4)
0x104a0|                        0c 00 00 00            |        ....    |          offset: 0xc 0x104a8-0x104ab.7 (4)
0x104a0|                                    2f 75 73 72|            /usr|          name: "/usr/lib/dyld" 0x104ac-0x104bf.7 (20)
0x104b0|2f 6c 69 62 2f 64 79 6c 64 00 00 00 00 00 00 00|/lib/dyld.......|
       |                                               |                |        [9]{}: load_command 0x104c0-0x104d7.7 (24)
0x104c0|1b 00 00 00                                    |....            |          cmd: "uuid" (0x1b) 0x104c0-0x104c3.7 (4)
0x104c0|            18 00 00 00                        |    ....        |          cmdsize: 24 0x104c4-0x104c7.7 (4)
       |                                               |                |          uuid_command{}: 0x104c8-0x104d7.7 (16)
0x104c0|                        a8 20 9f ff 52 b7 35 f9|        . ..R.5.|            uuid: raw bits 0x104c8-0x104d7.7 (16)
0x104d0|bb c4 e4 cd 80 88 20 6e                        |...... n        |
       |                                               |                |        [10]{}: load_command 0x104d8-0x104f7.7 (32)
0x104d0|                        32 00 00 00            |        2...    |          cmd: "build_version" (0x32) 0x104d8-0x104db.7 (4)
0x104d0|                                    20 00 00 00|             ...|          cmdsize: 32 0x104dc-0x104df.7 (4)
0x104e0|01 00 00 00                                    |....            |          platform: 1 0x104e0-0x104e3.7 (4)
0x104e0|            00 00 0b 00                        |    ....        |          minos: 720896 0x104e4-0x104e7.7 (4)
0x104e0|                        00 00 0b 00            |        ....    |          sdk: 720896 0x104e8-0x104eb.7 (4)
0x104e0|                                    01 00 00 00|            ....|          ntools: 1 0x104ec-0x104ef.7 (4)
       |                                               |                |          tools[0:1]: 0x104f0-0x104f7.7 (8)
       |                                               |                |            [0]{}: tool 0x104f0-0x104f7.7 (8)
0x104f0|03 00 00 00                                    |....            |              tool: 3 0x104f0-0x104f3.7 (4)
0x104f0|            00 00 c7 02                        |    ....        |              version: 46596096 0x104f4-0x104f7.7 (4)
       |                                               |                |        [11]{}: load_command 0x104f8-0x10507.7 (16)
0x104f0|                        2a 00 00 00            |        *...    |          cmd: "source_version" (0x2a) 0x104f8-0x104fb.7 (4)
0x104f0|                                    10 00 00 00|            ....|          cmdsize: 16 0x104fc-0x104ff.7 (4)
       |                                               |                |          source_version_tag{}: 0x10500-0x10507.7 (8)
0x10500|00 00 00 00 00 00 00 00                        |........        |            tag: 0 0x10500-0x10507.7 (8)
       |                                               |                |        [12]{}: load_command 0x10508-0x1051f.7 (24)
0x10500|                        28 00 00 80            |        (...    |          cmd: "main" (0x80000028) 0x10508-0x1050b.7 (4)
0x10500|                                    18 00 00 00|            ....|          cmdsize: 24 0x1050c-0x1050f.7 (4)
       |                                               |                |          entrypoint{}: 0x10510-0x1051f.7 (16)
0x10510|3c 3f 00 00 00 00 00 00                        |<?......        |            entryoff: 0x3f3c 0x10510-0x10517.7 (8)
0x10510|                        00 00 00 00 00 00 00 00|        ........|            stacksize: 0 0x10518-0x1051f.7 (8)
       |                                               |                |        [13]{}: load_command 0x10520-0x10557.7 (56)
0x10520|0c 00 00 00                                    |....            |          cmd: "load_dylib" (0xc) 0x10520-0x10523.7 (4)
0x10520|            38 00 00 00                        |    8...        |          cmdsize: 56 0x10524-0x10527.7 (4)
       |                                               |                |          dylib_command{}: 0x10528-0x10557.7 (48)
0x10520|                        18 00 00 00            |        ....    |            offset: 0x18 0x10528-0x1052b.7 (4)
0x10520|                                    02 00 00 00|            ....|            timestamp: "1970-01-01 00:00:00.002 +0000 UTC" (2) 0x1052c-0x1052f.7 (4)
0x10530|05 64 0c 05                                    |.d..            |            current_version: 84698117 0x10530-0x10533.7 (4)
0x10530|            00 00 01 00                        |    ....        |            compatibility_version: 65536 0x10534-0x10537.7 (4)
0x10530|                        2f 75 73 72 2f 6c 69 62|        /usr/lib|            name: "/usr/lib/libSystem.B.dylib" 0x10538-0x10557.7 (32)
0x10540|2f 6c 69 62 53 79 73 74 65 6d 2e 42 2e 64 79 6c|/libSystem.B.dyl|
0x10550|69 62 00 00 00 00 00 00                        |ib......        |
       |                                               |                |        [14]{}: load_command 0x10558-0x10567.7 (16)
0x10550|                        26 00 00 00            |        &...    |          cmd: "function_starts" (0x26) 0x10558-0x1055b.7 (4)
0x10550|                                    10 00 00 00|            ....|          cmdsize: 16 0x1055c-0x1055f.7 (4)
       |                                               |                |          linkedit_data{}: 0x10560-0x10567.7 (8)
0x10560|78 c0 00 00                                    |x...            |            off: 49272 0x10560-0x10563.7 (4)
0x10560|            08 00 00 00                        |    ....        |            size: 8 0x10564-0x10567.7 (4)
       |                                               |                |        [15]{}: load_command 0x10568-0x10577.7 (16)
0x10560|                        29 00 00 00            |        )...    |          cmd: "data_in_code" (0x29) 0x10568-0x1056b.7 (4)
0x10560|                                    10 00 00 00|            ....|          cmdsize: 16 0x1056c-0x1056f.7 (4)
       |                                               |                |          linkedit_data{}: 0x10570-0x10577.7 (8)
0x10570|80 c0 00 00                                    |....            |            off: 49280 0x10570-0x10573.7 (4)
0x10570|            00 00 00 00                        |    ....        |            size: 0 0x10574-0x10577.7 (4)
       |                                               |                |        [16]{}: load_command 0x10578-0x10587.7 (16)
0x10570|                        1d 00 00 00            |        ....    |          cmd: "code_signature" (0x1d) 0x10578-0x1057b.7 (4)
0x10570|                                    10 00 00 00|            ....|          cmdsize: 16 0x1057c-0x1057f.7 (4)
       |                                               |                |          linkedit_data{}: 0x10580-0x10587.7 (8)
0x10580|60 c1 00 00                                    |`...            |            off: 49504 0x10580-0x10583.7 (4)
0x10580|            15 02 00 00                        |    ....        |            size: 533 0x10584-0x10587.7 (4)
0x04520|00 00 00 00 00 00 00 00 00 00 00 00 00 00 00 00|................|  unknown1: raw bits 0x4520-0x7f2f.7 (14864)
*      |until 0x7f2f.7 (14864)                         |                |
0x07f80|                              00 00            |          ..    |  unknown2: raw bits 0x7f8a-0x7f8b.7 (2)
0x07fb0|                     00                        |       .        |  unknown3: raw bits 0x7fb7-0x7fb7.7 (1)
0x08010|                        00 00 00 00 00 00 00 00|        ........|  unknown4: raw bits 0x8018-0xc07f.7 (16488)
0x08020|00 00 00 00 00 00 00 00 00 00 00 00 00 00 00 00|................|
*      |until 0xc07f.7 (16488)                         |                |
0x0c0e0|04 00 00 00 00 00 00 40 05 00 00 00 04 00 00 00|.......@........|  unknown5: raw bits 0xc0e0-0xc0ef.7 (16)
0x0c130|                        00 00 00 00 00 00 00 00|        ........|  unknown6: raw bits 0xc138-0xffff.7 (16072)
0x0c140|00 00 00 00 00 00 00 00 00 00 00 00 00 00 00 00|................|
*      |until 0xffff.7 (16072)                         |                |
0x10580|                        00 00 00 00 00 00 00 00|        ........|  unknown7: raw bits 0x10588-0x13f1f.7 (14744)
0x10590|00 00 00 00 00 00 00 00 00 00 00 00 00 00 00 00|................|
*      |until 0x13f1f.7 (14744)                        |                |
0x13fb0|               00 00 00                        |     ...        |  unknown8: raw bits 0x13fb5-0x13fb7.7 (3)
0x14000|                        00 00 00 00 00 00 00 00|        ........|  unknown9: raw bits 0x14008-0x17fff.7 (16376)
0x14010|00 00 00 00 00 00 00 00 00 00 00 00 00 00 00 00|................|
*      |until 0x17fff.7 (16376)                        |                |
0x18010|00 00 00 00 00 00 00 00 00 00 00 00 00 00 00 00|................|  unknown10: raw bits 0x18010-0x1c07f.7 (16496)
*      |until 0x1c07f.7 (16496)                        |                |
0x1c0f0|05 00 00 00 06 00 00 00 05 00 00 00 00 00 00 00|................|  unknown11: raw bits 0x1c0f0-0x1c0ff.7 (16)
0x1c150|                        00 00 00 00 00 00 00 00|        ........|  unknown12: raw bits 0x1c158-0x1c374.7 (541)
0x1c160|fa de 0c c0 00 00 02 15 00 00 00 01 00 00 00 00|................|
*      |until 0x1c374.7 (end) (541)                    |                |
