$ fq -d macho dv libbbb.so
       |00 01 02 03 04 05 06 07 08 09 0a 0b 0c 0d 0e 0f|0123456789abcdef|.{}: libbbb.so (macho) 0x0-0x1c2f5.7 (115446)
       |                                               |                |  fat_header{}: 0x0-0x2f.7 (48)
0x00000|ca fe ba be                                    |....            |    magic: 0xcafebabe 0x0-0x3.7 (4)
0x00000|            00 00 00 02                        |    ....        |    narchs: 2 0x4-0x7.7 (4)
       |                                               |                |    archs[0:2]: 0x8-0x2f.7 (40)
       |                                               |                |      [0]{}: fat_arch 0x8-0x1b.7 (20)
0x00000|                        01 00 00 07            |        ....    |        cputype: "x86_64" (0x1000007) 0x8-0xb.7 (4)
0x00000|                                    00 00 00 03|            ....|        cpusubtype: 0x3 0xc-0xf.7 (4)
0x00010|00 00 40 00                                    |..@.            |        offset: 16384 0x10-0x13.7 (4)
0x00010|            00 00 80 b8                        |    ....        |        size: 32952 0x14-0x17.7 (4)
0x00010|                        00 00 00 0e            |        ....    |        align: 14 0x18-0x1b.7 (4)
       |                                               |                |      [1]{}: fat_arch 0x1c-0x2f.7 (20)
0x00010|                                    01 00 00 0c|            ....|        cputype: "arm64" (0x100000c) 0x1c-0x1f.7 (4)
0x00020|00 00 00 00                                    |....            |        cpusubtype: 0x0 0x20-0x23.7 (4)
0x00020|            00 01 00 00                        |    ....        |        offset: 65536 0x24-0x27.7 (4)
0x00020|                        00 00 c2 f6            |        ....    |        size: 49910 0x28-0x2b.7 (4)
0x00020|                                    00 00 00 0e|            ....|        align: 14 0x2c-0x2f.7 (4)
0x00030|00 00 00 00 00 00 00 00 00 00 00 00 00 00 00 00|................|  unknown0: raw bits 0x30-0x3f5f.7 (16176)
*      |until 0x3f5f.7 (16176)                         |                |
       |                                               |                |  files[0:2]: 0x3f60-0x1052f.7 (50640)
       |                                               |                |    [0]{}: file 0x3f70-0x44c7.7 (1368)
       |                                               |                |      load_commands[0:13]: 0x3f70-0x44c7.7 (1368)
       |                                               |                |        [0]{}: load_command 0x3f70-0x41f7.7 (648)
       |                                               |                |          sections[0:5]: 0x3f70-0x41f7.7 (648)
       |                                               |                |            [0]{}: section 0x3f70-0x40b7.7 (328)
0x03f70|00 00 00 00 00 00 00 00 00 00 00 00 00 00 00 00|................|              data: raw bits 0x3f70-0x3f83.7 (20)
0x03f80|00 00 00 00                                    |....            |
0x04060|                        5f 5f 74 65 78 74 00 00|        __text..|              sectname: "__text" 0x4068-0x4077.7 (16)
0x04070|00 00 00 00 00 00 00 00                        |........        |
0x04070|                        5f 5f 54 45 58 54 00 00|        __TEXT..|              segname: "__TEXT" 0x4078-0x4087.7 (16)
0x04080|00 00 00 00 00 00 00 00                        |........        |
0x04080|                        70 3f 00 00 00 00 00 00|        p?......|              address: 0x3f70 0x4088-0x408f.7 (8)
0x04090|14 00 00 00 00 00 00 00                        |........        |              size: 20 0x4090-0x4097.7 (8)
0x04090|                        70 3f 00 00            |        p?..    |              offset: 16240 0x4098-0x409b.7 (4)
0x04090|                                    04 00 00 00|            ....|              align: 4 0x409c-0x409f.7 (4)
0x040a0|00 00 00 00                                    |....            |              reloff: 0 0x40a0-0x40a3.7 (4)
0x040a0|            00 00 00 00                        |    ....        |              nreloc: 0 0x40a4-0x40a7.7 (4)
       |                                               |                |              flags{}: 0x40a8-0x40aa.7 (3)
0x040a0|                        00                     |        .       |                attr_pure_instructions: false 0x40a8-0x40a8 (0.1)
0x040a0|                        00                     |        .       |                attr_no_toc: false 0x40a8.1-0x40a8.1 (0.1)
0x040a0|                        00                     |        .       |                attr_strip_static_syms: false 0x40a8.2-0x40a8.2 (0.1)
0x040a0|                        00                     |        .       |                attr_no_dead_strip: false 0x40a8.3-0x40a8.3 (0.1)
0x040a0|                        00                     |        .       |                attr_live_support: false 0x40a8.4-0x40a8.4 (0.1)
0x040a0|                        00                     |        .       |                attr_self_modifying_code: false 0x40a8.5-0x40a8.5 (0.1)
0x040a0|                        00                     |        .       |                attr_debug: false 0x40a8.6-0x40a8.6 (0.1)
0x040a0|                        00 04 00               |        ...     |                reserved: raw bits 0x40a8.7-0x40aa.4 (1.6)
0x040a0|                              00               |          .     |                attr_some_instructions: false 0x40aa.5-0x40aa.5 (0.1)
0x040a0|                              00               |          .     |                attr_ext_reloc: false 0x40aa.6-0x40aa.6 (0.1)
0x040a0|                              00               |          .     |                attr_loc_reloc: false 0x40aa.7-0x40aa.7 (0.1)
0x040a0|                                 80            |           .    |              type: 128 0x40ab-0x40ab.7 (1)
0x040a0|                                    00 00 00 00|            ....|              reserved1: 0 0x40ac-0x40af.7 (4)
0x040b0|00 00 00 00                                    |....            |              reserved2: 0 0x40b0-0x40b3.7 (4)
0x040b0|            00 00 00 00                        |    ....        |              reserved3: 0 0x40b4-0x40b7.7 (4)
       |                                               |                |            [1]{}: section 0x3f84-0x4107.7 (388)
0x03f80|            00 00 00 00 00 00                  |    ......      |              data: raw bits 0x3f84-0x3f89.7 (6)
0x040b0|                        5f 5f 73 74 75 62 73 00|        __stubs.|              sectname: "__stubs" 0x40b8-0x40c7.7 (16)
0x040c0|00 00 00 00 00 00 00 00                        |........        |
0x040c0|                        5f 5f 54 45 58 54 00 00|        __TEXT..|              segname: "__TEXT" 0x40c8-0x40d7.7 (16)
0x040d0|00 00 00 00 00 00 00 00                        |........        |
0x040d0|                        84 3f 00 00 00 00 00 00|        .?......|              address: 0x3f84 0x40d8-0x40df.7 (8)
0x040e0|06 00 00 00 00 00 00 00                        |........        |              size: 6 0x40e0-0x40e7.7 (8)
0x040e0|                        84 3f 00 00            |        .?..    |              offset: 16260 0x40e8-0x40eb.7 (4)
0x040e0|                                    01 00 00 00|            ....|              align: 1 0x40ec-0x40ef.7 (4)
0x040f0|00 00 00 00                                    |....            |              reloff: 0 0x40f0-0x40f3.7 (4)
0x040f0|            00 00 00 00                        |    ....        |              nreloc: 0 0x40f4-0x40f7.7 (4)
       |                                               |                |              flags{}: 0x40f8-0x40fa.7 (3)
0x040f0|                        08                     |        .       |                attr_pure_instructions: false 0x40f8-0x40f8 (0.1)
0x040f0|                        08                     |        .       |                attr_no_toc: false 0x40f8.1-0x40f8.1 (0.1)
0x040f0|                        08                     |        .       |                attr_strip_static_syms: false 0x40f8.2-0x40f8.2 (0.1)
0x040f0|                        08                     |        .       |                attr_no_dead_strip: false 0x40f8.3-0x40f8.3 (0.1)
0x040f0|                        08                     |        .       |                attr_live_support: true 0x40f8.4-0x40f8.4 (0.1)
0x040f0|                        08                     |        .       |                attr_self_modifying_code: false 0x40f8.5-0x40f8.5 (0.1)
0x040f0|                        08                     |        .       |                attr_debug: false 0x40f8.6-0x40f8.6 (0.1)
0x040f0|                        08 04 00               |        ...     |                reserved: raw bits 0x40f8.7-0x40fa.4 (1.6)
0x040f0|                              00               |          .     |                attr_some_instructions: false 0x40fa.5-0x40fa.5 (0.1)
0x040f0|                              00               |          .     |                attr_ext_reloc: false 0x40fa.6-0x40fa.6 (0.1)
0x040f0|                              00               |          .     |                attr_loc_reloc: false 0x40fa.7-0x40fa.7 (0.1)
0x040f0|                                 80            |           .    |              type: 128 0x40fb-0x40fb.7 (1)
0x040f0|                                    00 00 00 00|            ....|              reserved1: 0 0x40fc-0x40ff.7 (4)
0x04100|06 00 00 00                                    |....            |              reserved2: 6 0x4100-0x4103.7 (4)
0x04100|            00 00 00 00                        |    ....        |              reserved3: 0 0x4104-0x4107.7 (4)
       |                                               |                |            [2]{}: section 0x3f8c-0x4157.7 (460)
0x03f80|                                    00 00 00 00|            ....|              data: raw bits 0x3f8c-0x3fa5.7 (26)
0x03f90|00 00 00 00 00 00 00 00 00 00 00 00 00 00 00 00|................|
0x03fa0|00 00 00 00 00 00                              |......          |
0x04100|                        5f 5f 73 74 75 62 5f 68|        __stub_h|              sectname: "__stub_helper" 0x4108-0x4117.7 (16)
0x04110|65 6c 70 65 72 00 00 00                        |elper...        |
0x04110|                        5f 5f 54 45 58 54 00 00|        __TEXT..|              segname: "__TEXT" 0x4118-0x4127.7 (16)
0x04120|00 00 00 00 00 00 00 00                        |........        |
0x04120|                        8c 3f 00 00 00 00 00 00|        .?......|              address: 0x3f8c 0x4128-0x412f.7 (8)
0x04130|1a 00 00 00 00 00 00 00                        |........        |              size: 26 0x4130-0x4137.7 (8)
0x04130|                        8c 3f 00 00            |        .?..    |              offset: 16268 0x4138-0x413b.7 (4)
0x04130|                                    02 00 00 00|            ....|              align: 2 0x413c-0x413f.7 (4)
0x04140|00 00 00 00                                    |....            |              reloff: 0 0x4140-0x4143.7 (4)
0x04140|            00 00 00 00                        |    ....        |              nreloc: 0 0x4144-0x4147.7 (4)
       |                                               |                |              flags{}: 0x4148-0x414a.7 (3)
0x04140|                        00                     |        .       |                attr_pure_instructions: false 0x4148-0x4148 (0.1)
0x04140|                        00                     |        .       |                attr_no_toc: false 0x4148.1-0x4148.1 (0.1)
0x04140|                        00                     |        .       |                attr_strip_static_syms: false 0x4148.2-0x4148.2 (0.1)
0x04140|                        00                     |        .       |                attr_no_dead_strip: false 0x4148.3-0x4148.3 (0.1)
0x04140|                        00                     |        .       |                attr_live_support: false 0x4148.4-0x4148.4 (0.1)
0x04140|                        00                     |        .       |                attr_self_modifying_code: false 0x4148.5-0x4148.5 (0.1)
0x04140|                        00                     |        .       |                attr_debug: false 0x4148.6-0x4148.6 (0.1)
0x04140|                        00 04 00               |        ...     |                reserved: raw bits 0x4148.7-0x414a.4 (1.6)
0x04140|                              00               |          .     |                attr_some_instructions: false 0x414a.5-0x414a.5 (0.1)
0x04140|                              00               |          .     |                attr_ext_reloc: false 0x414a.6-0x414a.6 (0.1)
0x04140|                              00               |          .     |                attr_loc_reloc: false 0x414a.7-0x414a.7 (0.1)
0x04140|                                 80            |           .    |              type: 128 0x414b-0x414b.7 (1)
0x04140|                                    00 00 00 00|            ....|              reserved1: 0 0x414c-0x414f.7 (4)
0x04150|00 00 00 00                                    |....            |              reserved2: 0 0x4150-0x4153.7 (4)
0x04150|            00 00 00 00                        |    ....        |              reserved3: 0 0x4154-0x4157.7 (4)
       |                                               |                |            [3]{}: section 0x3fa6-0x41a7.7 (514)
0x03fa0|                  00 00 00 00 00 00 00 00 00 00|      ..........|              data: raw bits 0x3fa6-0x3fb1.7 (12)
0x03fb0|00 00                                          |..              |
0x04150|                        5f 5f 63 73 74 72 69 6e|        __cstrin|              sectname: "__cstring" 0x4158-0x4167.7 (16)
0x04160|67 00 00 00 00 00 00 00                        |g.......        |
0x04160|                        5f 5f 54 45 58 54 00 00|        __TEXT..|              segname: "__TEXT" 0x4168-0x4177.7 (16)
0x04170|00 00 00 00 00 00 00 00                        |........        |
0x04170|                        a6 3f 00 00 00 00 00 00|        .?......|              address: 0x3fa6 0x4178-0x417f.7 (8)
0x04180|0c 00 00 00 00 00 00 00                        |........        |              size: 12 0x4180-0x4187.7 (8)
0x04180|                        a6 3f 00 00            |        .?..    |              offset: 16294 0x4188-0x418b.7 (4)
0x04180|                                    00 00 00 00|            ....|              align: 0 0x418c-0x418f.7 (4)
0x04190|00 00 00 00                                    |....            |              reloff: 0 0x4190-0x4193.7 (4)
0x04190|            00 00 00 00                        |    ....        |              nreloc: 0 0x4194-0x4197.7 (4)
       |                                               |                |              flags{}: 0x4198-0x419a.7 (3)
0x04190|                        02                     |        .       |                attr_pure_instructions: false 0x4198-0x4198 (0.1)
0x04190|                        02                     |        .       |                attr_no_toc: false 0x4198.1-0x4198.1 (0.1)
0x04190|                        02                     |        .       |                attr_strip_static_syms: false 0x4198.2-0x4198.2 (0.1)
0x04190|                        02                     |        .       |                attr_no_dead_strip: false 0x4198.3-0x4198.3 (0.1)
0x04190|                        02                     |        .       |                attr_live_support: false 0x4198.4-0x4198.4 (0.1)
0x04190|                        02                     |        .       |                attr_self_modifying_code: false 0x4198.5-0x4198.5 (0.1)
0x04190|                        02                     |        .       |                attr_debug: true 0x4198.6-0x4198.6 (0.1)
0x04190|                        02 00 00               |        ...     |                reserved: raw bits 0x4198.7-0x419a.4 (1.6)
0x04190|                              00               |          .     |                attr_some_instructions: false 0x419a.5-0x419a.5 (0.1)
0x04190|                              00               |          .     |                attr_ext_reloc: false 0x419a.6-0x419a.6 (0.1)
0x04190|                              00               |          .     |                attr_loc_reloc: false 0x419a.7-0x419a.7 (0.1)
0x04190|                                 00            |           .    |              type: "regular" (0) 0x419b-0x419b.7 (1)
0x04190|                                    00 00 00 00|            ....|              reserved1: 0 0x419c-0x419f.7 (4)
0x041a0|00 00 00 00                                    |....            |              reserved2: 0 0x41a0-0x41a3.7 (4)
0x041a0|            00 00 00 00                        |    ....        |              reserved3: 0 0x41a4-0x41a7.7 (4)
       |                                               |                |            [4]{}: section 0x3fb4-0x41f7.7 (580)
0x03fb0|            00 00 00 00 00 00 00 00 00 00 00 00|    ............|              data: raw bits 0x3fb4-0x3ffb.7 (72)
0x03fc0|00 00 00 00 00 00 00 00 00 00 00 00 00 00 00 00|................|
*      |until 0x3ffb.7 (72)                            |                |
0x041a0|                        5f 5f 75 6e 77 69 6e 64|        __unwind|              sectname: "__unwind_info" 0x41a8-0x41b7.7 (16)
0x041b0|5f 69 6e 66 6f 00 00 00                        |_info...        |
0x041b0|                        5f 5f 54 45 58 54 00 00|        __TEXT..|              segname: "__TEXT" 0x41b8-0x41c7.7 (16)
0x041c0|00 00 00 00 00 00 00 00                        |........        |
0x041c0|                        b4 3f 00 00 00 00 00 00|        .?......|              address: 0x3fb4 0x41c8-0x41cf.7 (8)
0x041d0|48 00 00 00 00 00 00 00                        |H.......        |              size: 72 0x41d0-0x41d7.7 (8)
0x041d0|                        b4 3f 00 00            |        .?..    |              offset: 16308 0x41d8-0x41db.7 (4)
0x041d0|                                    02 00 00 00|            ....|              align: 2 0x41dc-0x41df.7 (4)
0x041e0|00 00 00 00                                    |....            |              reloff: 0 0x41e0-0x41e3.7 (4)
0x041e0|            00 00 00 00                        |    ....        |              nreloc: 0 0x41e4-0x41e7.7 (4)
       |                                               |                |              flags{}: 0x41e8-0x41ea.7 (3)
0x041e0|                        00                     |        .       |                attr_pure_instructions: false 0x41e8-0x41e8 (0.1)
0x041e0|                        00                     |        .       |                attr_no_toc: false 0x41e8.1-0x41e8.1 (0.1)
0x041e0|                        00                     |        .       |                attr_strip_static_syms: false 0x41e8.2-0x41e8.2 (0.1)
0x041e0|                        00                     |        .       |                attr_no_dead_strip: false 0x41e8.3-0x41e8.3 (0.1)
0x041e0|                        00                     |        .       |                attr_live_support: false 0x41e8.4-0x41e8.4 (0.1)
0x041e0|                        00                     |        .       |                attr_self_modifying_code: false 0x41e8.5-0x41e8.5 (0.1)
0x041e0|                        00                     |        .       |                attr_debug: false 0x41e8.6-0x41e8.6 (0.1)
0x041e0|                        00 00 00               |        ...     |                reserved: raw bits 0x41e8.7-0x41ea.4 (1.6)
0x041e0|                              00               |          .     |                attr_some_instructions: false 0x41ea.5-0x41ea.5 (0.1)
0x041e0|                              00               |          .     |                attr_ext_reloc: false 0x41ea.6-0x41ea.6 (0.1)
0x041e0|                              00               |          .     |                attr_loc_reloc: false 0x41ea.7-0x41ea.7 (0.1)
0x041e0|                                 00            |           .    |              type: "regular" (0) 0x41eb-0x41eb.7 (1)
0x041e0|                                    00 00 00 00|            ....|              reserved1: 0 0x41ec-0x41ef.7 (4)
0x041f0|00 00 00 00                                    |....            |              reserved2: 0 0x41f0-0x41f3.7 (4)
0x041f0|            00 00 00 00                        |    ....        |              reserved3: 0 0x41f4-0x41f7.7 (4)
0x04020|19 00 00 00                                    |....            |          cmd: "segment_64" (0x19) 0x4020-0x4023.7 (4)
0x04020|            d8 01 00 00                        |    ....        |          cmdsize: 472 0x4024-0x4027.7 (4)
       |                                               |                |          segment_command{}: 0x4028-0x4067.7 (64)
       |                                               |                |            arch_bits: 64 0x4028-NA (0)
0x04020|                        5f 5f 54 45 58 54 00 00|        __TEXT..|            segname: "__TEXT" 0x4028-0x4037.7 (16)
0x04030|00 00 00 00 00 00 00 00                        |........        |
0x04030|                        00 00 00 00 00 00 00 00|        ........|            vmaddr: 0x0 0x4038-0x403f.7 (8)
0x04040|00 40 00 00 00 00 00 00                        |.@......        |            vmsize: 16384 0x4040-0x4047.7 (8)
0x04040|                        00 00 00 00 00 00 00 00|        ........|            fileoff: 0 0x4048-0x404f.7 (8)
0x04050|00 40 00 00 00 00 00 00                        |.@......        |            tfilesize: 16384 0x4050-0x4057.7 (8)
0x04050|                        05 00 00 00            |        ....    |            initprot: 5 0x4058-0x405b.7 (4)
0x04050|                                    05 00 00 00|            ....|            maxprot: 5 0x405c-0x405f.7 (4)
0x04060|05 00 00 00                                    |....            |            nsects: 5 0x4060-0x4063.7 (4)
       |                                               |                |            flags{}: 0x4064-0x4067.7 (4)
0x04060|            00 00 00 00                        |    ....        |              reserved: raw bits 0x4064-0x4067.3 (3.4)
0x04060|                     00                        |       .        |              protected_version_1: false 0x4067.4-0x4067.4 (0.1)
0x04060|                     00                        |       .        |              noreloc: false 0x4067.5-0x4067.5 (0.1)
0x04060|                     00                        |       .        |              fvmlib: false 0x4067.6-0x4067.6 (0.1)
0x04060|                     00                        |       .        |              highvm: false 0x4067.7-0x4067.7 (0.1)
       |                                               |                |        [1]{}: load_command 0x4000-0x432f.7 (816)
       |                                               |                |          sections[0:3]: 0x4000-0x432f.7 (816)
       |                                               |                |            [0]{}: section 0x4000-0x428f.7 (656)
0x04000|cf fa ed fe 07 00 00 01                        |........        |              data: raw bits 0x4000-0x4007.7 (8)
0x04240|5f 5f 6e 6c 5f 73 79 6d 62 6f 6c 5f 70 74 72 00|__nl_symbol_ptr.|              sectname: "__nl_symbol_ptr" 0x4240-0x424f.7 (16)
0x04250|5f 5f 44 41 54 41 00 00 00 00 00 00 00 00 00 00|__DATA..........|              segname: "__DATA" 0x4250-0x425f.7 (16)
0x04260|00 40 00 00 00 00 00 00                        |.@......        |              address: 0x4000 0x4260-0x4267.7 (8)
0x04260|                        08 00 00 00 00 00 00 00|        ........|              size: 8 0x4268-0x426f.7 (8)
0x04270|00 40 00 00                                    |.@..            |              offset: 16384 0x4270-0x4273.7 (4)
0x04270|            03 00 00 00                        |    ....        |              align: 3 0x4274-0x4277.7 (4)
0x04270|                        00 00 00 00            |        ....    |              reloff: 0 0x4278-0x427b.7 (4)
0x04270|                                    00 00 00 00|            ....|              nreloc: 0 0x427c-0x427f.7 (4)
       |                                               |                |              flags{}: 0x4280-0x4282.7 (3)
0x04280|06                                             |.               |                attr_pure_instructions: false 0x4280-0x4280 (0.1)
0x04280|06                                             |.               |                attr_no_toc: false 0x4280.1-0x4280.1 (0.1)
0x04280|06                                             |.               |                attr_strip_static_syms: false 0x4280.2-0x4280.2 (0.1)
0x04280|06                                             |.               |                attr_no_dead_strip: false 0x4280.3-0x4280.3 (0.1)
0x04280|06                                             |.               |                attr_live_support: false 0x4280.4-0x4280.4 (0.1)
0x04280|06                                             |.               |                attr_self_modifying_code: true 0x4280.5-0x4280.5 (0.1)
0x04280|06                                             |.               |                attr_debug: true 0x4280.6-0x4280.6 (0.1)
0x04280|06 00 00                                       |...             |                reserved: raw bits 0x4280.7-0x4282.4 (1.6)
0x04280|      00                                       |  .             |                attr_some_instructions: false 0x4282.5-0x4282.5 (0.1)
0x04280|      00                                       |  .             |                attr_ext_reloc: false 0x4282.6-0x4282.6 (0.1)
0x04280|      00                                       |  .             |                attr_loc_reloc: false 0x4282.7-0x4282.7 (0.1)
0x04280|         00                                    |   .            |              type: "regular" (0) 0x4283-0x4283.7 (1)
0x04280|            01 00 00 00                        |    ....        |              reserved1: 1 0x4284-0x4287.7 (4)
0x04280|                        00 00 00 00            |        ....    |              reserved2: 0 0x4288-0x428b.7 (4)
0x04280|                                    00 00 00 00|            ....|              reserved3: 0 0x428c-0x428f.7 (4)
       |                                               |                |            [1]{}: section 0x4008-0x42df.7 (728)
0x04000|                        03 00 00 00 06 00 00 00|        ........|              data: raw bits 0x4008-0x400f.7 (8)
0x04290|5f 5f 67 6f 74 00 00 00 00 00 00 00 00 00 00 00|__got...........|              sectname: "__got" 0x4290-0x429f.7 (16)
0x042a0|5f 5f 44 41 54 41 00 00 00 00 00 00 00 00 00 00|__DATA..........|              segname: "__DATA" 0x42a0-0x42af.7 (16)
0x042b0|08 40 00 00 00 00 00 00                        |.@......        |              address: 0x4008 0x42b0-0x42b7.7 (8)
0x042b0|                        08 00 00 00 00 00 00 00|        ........|              size: 8 0x42b8-0x42bf.7 (8)
0x042c0|08 40 00 00                                    |.@..            |              offset: 16392 0x42c0-0x42c3.7 (4)
0x042c0|            03 00 00 00                        |    ....        |              align: 3 0x42c4-0x42c7.7 (4)
0x042c0|                        00 00 00 00            |        ....    |              reloff: 0 0x42c8-0x42cb.7 (4)
0x042c0|                                    00 00 00 00|            ....|              nreloc: 0 0x42cc-0x42cf.7 (4)
       |                                               |                |              flags{}: 0x42d0-0x42d2.7 (3)
0x042d0|06                                             |.               |                attr_pure_instructions: false 0x42d0-0x42d0 (0.1)
0x042d0|06                                             |.               |                attr_no_toc: false 0x42d0.1-0x42d0.1 (0.1)
0x042d0|06                                             |.               |                attr_strip_static_syms: false 0x42d0.2-0x42d0.2 (0.1)
0x042d0|06                                             |.               |                attr_no_dead_strip: false 0x42d0.3-0x42d0.3 (0.1)
0x042d0|06                                             |.               |                attr_live_support: false 0x42d0.4-0x42d0.4 (0.1)
0x042d0|06                                             |.               |                attr_self_modifying_code: true 0x42d0.5-0x42d0.5 (0.1)
0x042d0|06                                             |.               |                attr_debug: true 0x42d0.6-0x42d0.6 (0.1)
0x042d0|06 00 00                                       |...             |                reserved: raw bits 0x42d0.7-0x42d2.4 (1.6)
0x042d0|      00                                       |  .             |                attr_some_instructions: false 0x42d2.5-0x42d2.5 (0.1)
0x042d0|      00                                       |  .             |                attr_ext_reloc: false 0x42d2.6-0x42d2.6 (0.1)
0x042d0|      00                                       |  .             |                attr_loc_reloc: false 0x42d2.7-0x42d2.7 (0.1)
0x042d0|         00                                    |   .            |              type: "regular" (0) 0x42d3-0x42d3.7 (1)
0x042d0|            02 00 00 00                        |    ....        |              reserved1: 2 0x42d4-0x42d7.7 (4)
0x042d0|                        00 00 00 00            |        ....    |              reserved2: 0 0x42d8-0x42db.7 (4)
0x042d0|                                    00 00 00 00|            ....|              reserved3: 0 0x42dc-0x42df.7 (4)
       |                                               |                |            [2]{}: section 0x4010-0x432f.7 (800)
0x04010|0d 00 00 00 a8 04 00 00                        |........        |              data: raw bits 0x4010-0x4017.7 (8)
0x042e0|5f 5f 6c 61 5f 73 79 6d 62 6f 6c 5f 70 74 72 00|__la_symbol_ptr.|              sectname: "__la_symbol_ptr" 0x42e0-0x42ef.7 (16)
0x042f0|5f 5f 44 41 54 41 00 00 00 00 00 00 00 00 00 00|__DATA..........|              segname: "__DATA" 0x42f0-0x42ff.7 (16)
0x04300|10 40 00 00 00 00 00 00                        |.@......        |              address: 0x4010 0x4300-0x4307.7 (8)
0x04300|                        08 00 00 00 00 00 00 00|        ........|              size: 8 0x4308-0x430f.7 (8)
0x04310|10 40 00 00                                    |.@..            |              offset: 16400 0x4310-0x4313.7 (4)
0x04310|            03 00 00 00                        |    ....        |              align: 3 0x4314-0x4317.7 (4)
0x04310|                        00 00 00 00            |        ....    |              reloff: 0 0x4318-0x431b.7 (4)
0x04310|                                    00 00 00 00|            ....|              nreloc: 0 0x431c-0x431f.7 (4)
       |                                               |                |              flags{}: 0x4320-0x4322.7 (3)
0x04320|07                                             |.               |                attr_pure_instructions: false 0x4320-0x4320 (0.1)
0x04320|07                                             |.               |                attr_no_toc: false 0x4320.1-0x4320.1 (0.1)
0x04320|07                                             |.               |                attr_strip_static_syms: false 0x4320.2-0x4320.2 (0.1)
0x04320|07                                             |.               |                attr_no_dead_strip: false 0x4320.3-0x4320.3 (0.1)
0x04320|07                                             |.               |                attr_live_support: false 0x4320.4-0x4320.4 (0.1)
0x04320|07                                             |.               |                attr_self_modifying_code: true 0x4320.5-0x4320.5 (0.1)
0x04320|07                                             |.               |                attr_debug: true 0x4320.6-0x4320.6 (0.1)
0x04320|07 00 00                                       |...             |                reserved: raw bits 0x4320.7-0x4322.4 (1.6)
0x04320|      00                                       |  .             |                attr_some_instructions: false 0x4322.5-0x4322.5 (0.1)
0x04320|      00                                       |  .             |                attr_ext_reloc: false 0x4322.6-0x4322.6 (0.1)
0x04320|      00                                       |  .             |                attr_loc_reloc: false 0x4322.7-0x4322.7 (0.1)
0x04320|         00                                    |   .            |              type: "regular" (0) 0x4323-0x4323.7 (1)
0x04320|            03 00 00 00                        |    ....        |              reserved1: 3 0x4324-0x4327.7 (4)
0x04320|                        00 00 00 00            |        ....    |              reserved2: 0 0x4328-0x432b.7 (4)
0x04320|                                    00 00 00 00|            ....|              reserved3: 0 0x432c-0x432f.7 (4)
0x041f0|                        19 00 00 00            |        ....    |          cmd: "segment_64" (0x19) 0x41f8-0x41fb.7 (4)
0x041f0|                                    38 01 00 00|            8...|          cmdsize: 312 0x41fc-0x41ff.7 (4)
       |                                               |                |          segment_command{}: 0x4200-0x423f.7 (64)
       |                                               |                |            arch_bits: 64 0x4200-NA (0)
0x04200|5f 5f 44 41 54 41 00 00 00 00 00 00 00 00 00 00|__DATA..........|            segname: "__DATA" 0x4200-0x420f.7 (16)
0x04210|00 40 00 00 00 00 00 00                        |.@......        |            vmaddr: 0x4000 0x4210-0x4217.7 (8)
0x04210|                        00 40 00 00 00 00 00 00|        .@......|            vmsize: 16384 0x4218-0x421f.7 (8)
0x04220|00 40 00 00 00 00 00 00                        |.@......        |            fileoff: 16384 0x4220-0x4227.7 (8)
0x04220|                        00 40 00 00 00 00 00 00|        .@......|            tfilesize: 16384 0x4228-0x422f.7 (8)
0x04230|03 00 00 00                                    |....            |            initprot: 3 0x4230-0x4233.7 (4)
0x04230|            03 00 00 00                        |    ....        |            maxprot: 3 0x4234-0x4237.7 (4)
0x04230|                        03 00 00 00            |        ....    |            nsects: 3 0x4238-0x423b.7 (4)
       |                                               |                |            flags{}: 0x423c-0x423f.7 (4)
0x04230|                                    00 00 00 00|            ....|              reserved: raw bits 0x423c-0x423f.3 (3.4)
0x04230|                                             00|               .|              protected_version_1: false 0x423f.4-0x423f.4 (0.1)
0x04230|                                             00|               .|              noreloc: false 0x423f.5-0x423f.5 (0.1)
0x04230|                                             00|               .|              fvmlib: false 0x423f.6-0x423f.6 (0.1)
0x04230|                                             00|               .|              highvm: false 0x423f.7-0x423f.7 (0.1)
       |                                               |                |        [2]{}: load_command 0x4330-0x4377.7 (72)
0x04330|19 00 00 00                                    |....            |          cmd: "segment_64" (0x19) 0x4330-0x4333.7 (4)
0x04330|            48 00 00 00                        |    H...        |          cmdsize: 72 0x4334-0x4337.7 (4)
       |                                               |                |          segment_command{}: 0x4338-0x4377.7 (64)
       |                                               |                |            arch_bits: 64 0x4338-NA (0)
0x04330|                        5f 5f 4c 49 4e 4b 45 44|        __LINKED|            segname: "__LINKEDIT" 0x4338-0x4347.7 (16)
0x04340|49 54 00 00 00 00 00 00                        |IT......        |
0x04340|                        00 80 00 00 00 00 00 00|        ........|            vmaddr: 0x8000 0x4348-0x434f.7 (8)
0x04350|00 40 00 00 00 00 00 00                        |.@......        |            vmsize: 16384 0x4350-0x4357.7 (8)
0x04350|                        00 80 00 00 00 00 00 00|        ........|            fileoff: 32768 0x4358-0x435f.7 (8)
0x04360|b8 00 00 00 00 00 00 00                        |........        |            tfilesize: 184 0x4360-0x4367.7 (8)
0x04360|                        01 00 00 00            |        ....    |            initprot: 1 0x4368-0x436b.7 (4)
0x04360|                                    01 00 00 00|            ....|            maxprot: 1 0x436c-0x436f.7 (4)
0x04370|00 00 00 00                                    |....            |            nsects: 0 0x4370-0x4373.7 (4)
       |                                               |                |            flags{}: 0x4374-0x4377.7 (4)
0x04370|            00 00 00 00                        |    ....        |              reserved: raw bits 0x4374-0x4377.3 (3.4)
0x04370|                     00                        |       .        |              protected_version_1: false 0x4377.4-0x4377.4 (0.1)
0x04370|                     00                        |       .        |              noreloc: false 0x4377.5-0x4377.5 (0.1)
0x04370|                     00                        |       .        |              fvmlib: false 0x4377.6-0x4377.6 (0.1)
0x04370|                     00                        |       .        |              highvm: false 0x4377.7-0x4377.7 (0.1)
       |                                               |                |          sections[0:0]: 0x4378-NA (0)
       |                                               |                |        [3]{}: load_command 0x4378-0x439f.7 (40)
0x04370|                        0d 00 00 00            |        ....    |          cmd: "id_dylib" (0xd) 0x4378-0x437b.7 (4)
0x04370|                                    28 00 00 00|            (...|          cmdsize: 40 0x437c-0x437f.7 (4)
       |                                               |                |          dylib_command{}: 0x4380-0x439f.7 (32)
0x04380|18 00 00 00                                    |....            |            offset: 24 0x4380-0x4383.7 (4)
0x04380|            01 00 00 00                        |    ....        |            timestamp: "1970-01-01 00:00:00.001 +0000 UTC" (1) 0x4384-0x4387.7 (4)
0x04380|                        00 00 00 00            |        ....    |            current_version: 0 0x4388-0x438b.7 (4)
0x04380|                                    00 00 00 00|            ....|            compatibility_version: 0 0x438c-0x438f.7 (4)
0x04390|6c 69 62 62 62 62 2e 73 6f 00 00 00 00 00 00 00|libbbb.so.......|            name: "libbbb.so" 0x4390-0x439f.7 (16)
       |                                               |                |        [4]{}: load_command 0x43a0-0x43cf.7 (48)
0x043a0|22 00 00 80                                    |"...            |          cmd: "dyld_info_only" (0x80000022) 0x43a0-0x43a3.7 (4)
0x043a0|            30 00 00 00                        |    0...        |          cmdsize: 48 0x43a4-0x43a7.7 (4)
       |                                               |                |          dyld_info{}: 0x43a8-0x43cf.7 (40)
0x043a0|                        00 80 00 00            |        ....    |            rebase_off: 32768 0x43a8-0x43ab.7 (4)
0x043a0|                                    08 00 00 00|            ....|            rebase_size: 8 0x43ac-0x43af.7 (4)
0x043b0|08 80 00 00                                    |....            |            bind_off: 32776 0x43b0-0x43b3.7 (4)
0x043b0|            18 00 00 00                        |    ....        |            bind_size: 24 0x43b4-0x43b7.7 (4)
0x043b0|                        00 00 00 00            |        ....    |            weak_bind_off: 0 0x43b8-0x43bb.7 (4)
0x043b0|                                    00 00 00 00|            ....|            weak_bind_size: 0 0x43bc-0x43bf.7 (4)
0x043c0|20 80 00 00                                    | ...            |            lazy_bind_off: 32800 0x43c0-0x43c3.7 (4)
0x043c0|            10 00 00 00                        |    ....        |            lazy_bind_size: 16 0x43c4-0x43c7.7 (4)
0x043c0|                        30 80 00 00            |        0...    |            export_off: 32816 0x43c8-0x43cb.7 (4)
0x043c0|                                    18 00 00 00|            ....|            export_size: 24 0x43cc-0x43cf.7 (4)
       |                                               |                |        [5]{}: load_command 0x43d0-0x43e7.7 (24)
0x043d0|02 00 00 00                                    |....            |          cmd: "symtab" (0x2) 0x43d0-0x43d3.7 (4)
0x043d0|            18 00 00 00                        |    ....        |          cmdsize: 24 0x43d4-0x43d7.7 (4)
0x043d0|                        50 80 00 00            |        P...    |          symoff: 32848 0x43d8-0x43db.7 (4)
0x043d0|                                    03 00 00 00|            ....|          nsyms: 3 0x43dc-0x43df.7 (4)
0x043e0|90 80 00 00                                    |....            |          stroff: 32912 0x43e0-0x43e3.7 (4)
0x043e0|            28 00 00 00                        |    (...        |          strsize: 40 0x43e4-0x43e7.7 (4)
       |                                               |                |        [6]{}: load_command 0x43e8-0x4437.7 (80)
0x043e0|                        0b 00 00 00            |        ....    |          cmd: "dysymtab" (0xb) 0x43e8-0x43eb.7 (4)
0x043e0|                                    50 00 00 00|            P...|          cmdsize: 80 0x43ec-0x43ef.7 (4)
0x043f0|00 00 00 00                                    |....            |          ilocalsym: 0 0x43f0-0x43f3.7 (4)
0x043f0|            00 00 00 00                        |    ....        |          nlocalsym: 0 0x43f4-0x43f7.7 (4)
0x043f0|                        00 00 00 00            |        ....    |          iextdefsym: 0 0x43f8-0x43fb.7 (4)
0x043f0|                                    01 00 00 00|            ....|          nextdefsym: 1 0x43fc-0x43ff.7 (4)
0x04400|01 00 00 00                                    |....            |          iundefsym: 1 0x4400-0x4403.7 (4)
0x04400|            02 00 00 00                        |    ....        |          nundefsym: 2 0x4404-0x4407.7 (4)
0x04400|                        00 00 00 00            |        ....    |          tocoff: 0 0x4408-0x440b.7 (4)
0x04400|                                    00 00 00 00|            ....|          ntoc: 0 0x440c-0x440f.7 (4)
0x04410|00 00 00 00                                    |....            |          modtaboff: 0 0x4410-0x4413.7 (4)
0x04410|            00 00 00 00                        |    ....        |          nmodtab: 0 0x4414-0x4417.7 (4)
0x04410|                        00 00 00 00            |        ....    |          extrefsymoff: 0 0x4418-0x441b.7 (4)
0x04410|                                    00 00 00 00|            ....|          nextrefsyms: 0 0x441c-0x441f.7 (4)
0x04420|80 80 00 00                                    |....            |          indirectsymoff: 32896 0x4420-0x4423.7 (4)
0x04420|            04 00 00 00                        |    ....        |          nindirectsyms: 4 0x4424-0x4427.7 (4)
0x04420|                        00 00 00 00            |        ....    |          extreloff: 0 0x4428-0x442b.7 (4)
0x04420|                                    00 00 00 00|            ....|          nextrel: 0 0x442c-0x442f.7 (4)
0x04430|00 00 00 00                                    |....            |          locreloff: 0 0x4430-0x4433.7 (4)
0x04430|            00 00 00 00                        |    ....        |          nlocrel: 0 0x4434-0x4437.7 (4)
       |                                               |                |        [7]{}: load_command 0x4438-0x444f.7 (24)
0x04430|                        1b 00 00 00            |        ....    |          cmd: "uuid" (0x1b) 0x4438-0x443b.7 (4)
0x04430|                                    18 00 00 00|            ....|          cmdsize: 24 0x443c-0x443f.7 (4)
       |                                               |                |          uuid_command{}: 0x4440-0x444f.7 (16)
0x04440|ba 44 d8 2a d6 94 39 2a b5 6d 01 5b 7e ab 7f 67|.D.*..9*.m.[~..g|            uuid: raw bits 0x4440-0x444f.7 (16)
       |                                               |                |        [8]{}: load_command 0x4450-0x445f.7 (16)
0x04450|24 00 00 00                                    |$...            |          cmd: "version_min_macosx" (0x24) 0x4450-0x4453.7 (4)
0x04450|            10 00 00 00                        |    ....        |          cmdsize: 16 0x4454-0x4457.7 (4)
0x04450|                        00 0c 0a 00            |        ....    |          version: 658432 0x4458-0x445b.7 (4)
0x04450|                                    00 01 0c 00|            ....|          sdk: 786688 0x445c-0x445f.7 (4)
       |                                               |                |        [9]{}: load_command 0x4460-0x446f.7 (16)
0x04460|2a 00 00 00                                    |*...            |          cmd: "source_version" (0x2a) 0x4460-0x4463.7 (4)
0x04460|            10 00 00 00                        |    ....        |          cmdsize: 16 0x4464-0x4467.7 (4)
       |                                               |                |          source_version_tag{}: 0x4468-0x446f.7 (8)
0x04460|                        00 00 00 00 00 00 00 00|        ........|            tag: 0 0x4468-0x446f.7 (8)
       |                                               |                |        [10]{}: load_command 0x4470-0x44a7.7 (56)
0x04470|0c 00 00 00                                    |....            |          cmd: "load_dylib" (0xc) 0x4470-0x4473.7 (4)
0x04470|            38 00 00 00                        |    8...        |          cmdsize: 56 0x4474-0x4477.7 (4)
       |                                               |                |          dylib_command{}: 0x4478-0x44a7.7 (48)
0x04470|                        18 00 00 00            |        ....    |            offset: 24 0x4478-0x447b.7 (4)
0x04470|                                    02 00 00 00|            ....|            timestamp: "1970-01-01 00:00:00.002 +0000 UTC" (2) 0x447c-0x447f.7 (4)
0x04480|00 00 1f 05                                    |....            |            current_version: 85917696 0x4480-0x4483.7 (4)
0x04480|            00 00 01 00                        |    ....        |            compatibility_version: 65536 0x4484-0x4487.7 (4)
0x04480|                        2f 75 73 72 2f 6c 69 62|        /usr/lib|            name: "/usr/lib/libSystem.B.dylib" 0x4488-0x44a7.7 (32)
0x04490|2f 6c 69 62 53 79 73 74 65 6d 2e 42 2e 64 79 6c|/libSystem.B.dyl|
0x044a0|69 62 00 00 00 00 00 00                        |ib......        |
       |                                               |                |        [11]{}: load_command 0x44a8-0x44b7.7 (16)
0x044a0|                        26 00 00 00            |        &...    |          cmd: "function_starts" (0x26) 0x44a8-0x44ab.7 (4)
0x044a0|                                    10 00 00 00|            ....|          cmdsize: 16 0x44ac-0x44af.7 (4)
       |                                               |                |          linkedit_data{}: 0x44b0-0x44b7.7 (8)
0x044b0|48 80 00 00                                    |H...            |            off: 32840 0x44b0-0x44b3.7 (4)
0x044b0|            08 00 00 00                        |    ....        |            size: 8 0x44b4-0x44b7.7 (4)
       |                                               |                |        [12]{}: load_command 0x44b8-0x44c7.7 (16)
0x044b0|                        29 00 00 00            |        )...    |          cmd: "data_in_code" (0x29) 0x44b8-0x44bb.7 (4)
0x044b0|                                    10 00 00 00|            ....|          cmdsize: 16 0x44bc-0x44bf.7 (4)
       |                                               |                |          linkedit_data{}: 0x44c0-0x44c7.7 (8)
0x044c0|50 80 00 00                                    |P...            |            off: 32848 0x44c0-0x44c3.7 (4)
0x044c0|            00 00 00 00                        |    ....        |            size: 0 0x44c4-0x44c7.7 (4)
       |                                               |                |      header{}: 0x4000-0x401f.7 (32)
       |                                               |                |        arch_bits: 64 0x4000-NA (0)
0x04000|cf fa ed fe                                    |....            |        magic: 0xfeedfacf (64-bit little endian) 0x4000-0x4003.7 (4)
       |                                               |                |        bits: 64 0x4004-NA (0)
       |                                               |                |        endian: "little_endian" 0x4004-NA (0)
0x04000|            07 00 00 01                        |    ....        |        cputype: "x86_64" (0x1000007) 0x4004-0x4007.7 (4)
0x04000|                        03 00 00 00            |        ....    |        cpusubtype: 0x3 0x4008-0x400b.7 (4)
0x04000|                                    06 00 00 00|            ....|        filetype: "dylib" (6) 0x400c-0x400f.7 (4)
0x04010|0d 00 00 00                                    |....            |        ncdms: 13 0x4010-0x4013.7 (4)
0x04010|            a8 04 00 00                        |    ....        |        sizeofncdms: 1192 0x4014-0x4017.7 (4)
       |                                               |                |        flags{}: 0x4018-0x401b.7 (4)
0x04010|                        85                     |        .       |          reserved: raw bits 0x4018-0x4018.5 (0.6)
0x04010|                        85                     |        .       |          app_extension_safe: false 0x4018.6-0x4018.6 (0.1)
0x04010|                        85                     |        .       |          no_heap_execution: true 0x4018.7-0x4018.7 (0.1)
0x04010|                           00                  |         .      |          has_tlv_descriptors: false 0x4019-0x4019 (0.1)
0x04010|                           00                  |         .      |          dead_strippable_dylib: false 0x4019.1-0x4019.1 (0.1)
0x04010|                           00                  |         .      |          pie: false 0x4019.2-0x4019.2 (0.1)
0x04010|                           00                  |         .      |          no_reexported_dylibs: false 0x4019.3-0x4019.3 (0.1)
0x04010|                           00                  |         .      |          setuid_safe: false 0x4019.4-0x4019.4 (0.1)
0x04010|                           00                  |         .      |          root_safe: false 0x4019.5-0x4019.5 (0.1)
0x04010|                           00                  |         .      |          allow_stack_execution: false 0x4019.6-0x4019.6 (0.1)
0x04010|                           00                  |         .      |          binds_to_weak: false 0x4019.7-0x4019.7 (0.1)
0x04010|                              10               |          .     |          weak_defines: false 0x401a-0x401a (0.1)
0x04010|                              10               |          .     |          canonical: false 0x401a.1-0x401a.1 (0.1)
0x04010|                              10               |          .     |          subsections_via_symbols: false 0x401a.2-0x401a.2 (0.1)
0x04010|                              10               |          .     |          allmodsbound: true 0x401a.3-0x401a.3 (0.1)
0x04010|                              10               |          .     |          prebindable: false 0x401a.4-0x401a.4 (0.1)
0x04010|                              10               |          .     |          nofixprebinding: false 0x401a.5-0x401a.5 (0.1)
0x04010|                              10               |          .     |          nomultidefs: false 0x401a.6-0x401a.6 (0.1)
0x04010|                              10               |          .     |          force_flat: false 0x401a.7-0x401a.7 (0.1)
0x04010|                                 00            |           .    |          twolevel: false 0x401b-0x401b (0.1)
0x04010|                                 00            |           .    |          lazy_init: false 0x401b.1-0x401b.1 (0.1)
0x04010|                                 00            |           .    |          split_segs: false 0x401b.2-0x401b.2 (0.1)
0x04010|                                 00            |           .    |          prebound: false 0x401b.3-0x401b.3 (0.1)
0x04010|                                 00            |           .    |          bindatload: false 0x401b.4-0x401b.4 (0.1)
0x04010|                                 00            |           .    |          dyldlink: false 0x401b.5-0x401b.5 (0.1)
0x04010|                                 00            |           .    |          incrlink: false 0x401b.6-0x401b.6 (0.1)
0x04010|                                 00            |           .    |          noundefs: false 0x401b.7-0x401b.7 (0.1)
0x04010|                                    00 00 00 00|            ....|        reserved: raw bits (all zero) 0x401c-0x401f.7 (4)
       |                                               |                |    [1]{}: file 0x3f60-0x1052f.7 (50640)
       |                                               |                |      load_commands[0:15]: 0x3f60-0x1052f.7 (50640)
       |                                               |                |        [0]{}: load_command 0x3f60-0x101f7.7 (49816)
       |                                               |                |          sections[0:5]: 0x3f60-0x101f7.7 (49816)
       |                                               |                |            [0]{}: section 0x3f60-0x100b7.7 (49496)
0x03f60|00 00 00 00 00 00 00 00 00 00 00 00 00 00 00 00|................|              data: raw bits 0x3f60-0x3f7b.7 (28)
0x03f70|00 00 00 00 00 00 00 00 00 00 00 00            |............    |
0x10060|                        5f 5f 74 65 78 74 00 00|        __text..|              sectname: "__text" 0x10068-0x10077.7 (16)
0x10070|00 00 00 00 00 00 00 00                        |........        |
0x10070|                        5f 5f 54 45 58 54 00 00|        __TEXT..|              segname: "__TEXT" 0x10078-0x10087.7 (16)
0x10080|00 00 00 00 00 00 00 00                        |........        |
0x10080|                        60 3f 00 00 00 00 00 00|        `?......|              address: 0x3f60 0x10088-0x1008f.7 (8)
0x10090|1c 00 00 00 00 00 00 00                        |........        |              size: 28 0x10090-0x10097.7 (8)
0x10090|                        60 3f 00 00            |        `?..    |              offset: 16224 0x10098-0x1009b.7 (4)
0x10090|                                    02 00 00 00|            ....|              align: 2 0x1009c-0x1009f.7 (4)
0x100a0|00 00 00 00                                    |....            |              reloff: 0 0x100a0-0x100a3.7 (4)
0x100a0|            00 00 00 00                        |    ....        |              nreloc: 0 0x100a4-0x100a7.7 (4)
       |                                               |                |              flags{}: 0x100a8-0x100aa.7 (3)
0x100a0|                        00                     |        .       |                attr_pure_instructions: false 0x100a8-0x100a8 (0.1)
0x100a0|                        00                     |        .       |                attr_no_toc: false 0x100a8.1-0x100a8.1 (0.1)
0x100a0|                        00                     |        .       |                attr_strip_static_syms: false 0x100a8.2-0x100a8.2 (0.1)
0x100a0|                        00                     |        .       |                attr_no_dead_strip: false 0x100a8.3-0x100a8.3 (0.1)
0x100a0|                        00                     |        .       |                attr_live_support: false 0x100a8.4-0x100a8.4 (0.1)
0x100a0|                        00                     |        .       |                attr_self_modifying_code: false 0x100a8.5-0x100a8.5 (0.1)
0x100a0|                        00                     |        .       |                attr_debug: false 0x100a8.6-0x100a8.6 (0.1)
0x100a0|                        00 04 00               |        ...     |                reserved: raw bits 0x100a8.7-0x100aa.4 (1.6)
0x100a0|                              00               |          .     |                attr_some_instructions: false 0x100aa.5-0x100aa.5 (0.1)
0x100a0|                              00               |          .     |                attr_ext_reloc: false 0x100aa.6-0x100aa.6 (0.1)
0x100a0|                              00               |          .     |                attr_loc_reloc: false 0x100aa.7-0x100aa.7 (0.1)
0x100a0|                                 80            |           .    |              type: 128 0x100ab-0x100ab.7 (1)
0x100a0|                                    00 00 00 00|            ....|              reserved1: 0 0x100ac-0x100af.7 (4)
0x100b0|00 00 00 00                                    |....            |              reserved2: 0 0x100b0-0x100b3.7 (4)
0x100b0|            00 00 00 00                        |    ....        |              reserved3: 0 0x100b4-0x100b7.7 (4)
       |                                               |                |            [1]{}: section 0x3f7c-0x10107.7 (49548)
0x03f70|                                    00 00 00 00|            ....|              data: raw bits 0x3f7c-0x3f87.7 (12)
0x03f80|00 00 00 00 00 00 00 00                        |........        |
0x100b0|                        5f 5f 73 74 75 62 73 00|        __stubs.|              sectname: "__stubs" 0x100b8-0x100c7.7 (16)
0x100c0|00 00 00 00 00 00 00 00                        |........        |
0x100c0|                        5f 5f 54 45 58 54 00 00|        __TEXT..|              segname: "__TEXT" 0x100c8-0x100d7.7 (16)
0x100d0|00 00 00 00 00 00 00 00                        |........        |
0x100d0|                        7c 3f 00 00 00 00 00 00|        |?......|              address: 0x3f7c 0x100d8-0x100df.7 (8)
0x100e0|0c 00 00 00 00 00 00 00                        |........        |              size: 12 0x100e0-0x100e7.7 (8)
0x100e0|                        7c 3f 00 00            |        |?..    |              offset: 16252 0x100e8-0x100eb.7 (4)
0x100e0|                                    02 00 00 00|            ....|              align: 2 0x100ec-0x100ef.7 (4)
0x100f0|00 00 00 00                                    |....            |              reloff: 0 0x100f0-0x100f3.7 (4)
0x100f0|            00 00 00 00                        |    ....        |              nreloc: 0 0x100f4-0x100f7.7 (4)
       |                                               |                |              flags{}: 0x100f8-0x100fa.7 (3)
0x100f0|                        08                     |        .       |                attr_pure_instructions: false 0x100f8-0x100f8 (0.1)
0x100f0|                        08                     |        .       |                attr_no_toc: false 0x100f8.1-0x100f8.1 (0.1)
0x100f0|                        08                     |        .       |                attr_strip_static_syms: false 0x100f8.2-0x100f8.2 (0.1)
0x100f0|                        08                     |        .       |                attr_no_dead_strip: false 0x100f8.3-0x100f8.3 (0.1)
0x100f0|                        08                     |        .       |                attr_live_support: true 0x100f8.4-0x100f8.4 (0.1)
0x100f0|                        08                     |        .       |                attr_self_modifying_code: false 0x100f8.5-0x100f8.5 (0.1)
0x100f0|                        08                     |        .       |                attr_debug: false 0x100f8.6-0x100f8.6 (0.1)
0x100f0|                        08 04 00               |        ...     |                reserved: raw bits 0x100f8.7-0x100fa.4 (1.6)
0x100f0|                              00               |          .     |                attr_some_instructions: false 0x100fa.5-0x100fa.5 (0.1)
0x100f0|                              00               |          .     |                attr_ext_reloc: false 0x100fa.6-0x100fa.6 (0.1)
0x100f0|                              00               |          .     |                attr_loc_reloc: false 0x100fa.7-0x100fa.7 (0.1)
0x100f0|                                 80            |           .    |              type: 128 0x100fb-0x100fb.7 (1)
0x100f0|                                    00 00 00 00|            ....|              reserved1: 0 0x100fc-0x100ff.7 (4)
0x10100|0c 00 00 00                                    |....            |              reserved2: 12 0x10100-0x10103.7 (4)
0x10100|            00 00 00 00                        |    ....        |              reserved3: 0 0x10104-0x10107.7 (4)
       |                                               |                |            [2]{}: section 0x3f88-0x10157.7 (49616)
0x03f80|                        00 00 00 00 00 00 00 00|        ........|              data: raw bits 0x3f88-0x3fab.7 (36)
0x03f90|00 00 00 00 00 00 00 00 00 00 00 00 00 00 00 00|................|
0x03fa0|00 00 00 00 00 00 00 00 00 00 00 00            |............    |
0x10100|                        5f 5f 73 74 75 62 5f 68|        __stub_h|              sectname: "__stub_helper" 0x10108-0x10117.7 (16)
0x10110|65 6c 70 65 72 00 00 00                        |elper...        |
0x10110|                        5f 5f 54 45 58 54 00 00|        __TEXT..|              segname: "__TEXT" 0x10118-0x10127.7 (16)
0x10120|00 00 00 00 00 00 00 00                        |........        |
0x10120|                        88 3f 00 00 00 00 00 00|        .?......|              address: 0x3f88 0x10128-0x1012f.7 (8)
0x10130|24 00 00 00 00 00 00 00                        |$.......        |              size: 36 0x10130-0x10137.7 (8)
0x10130|                        88 3f 00 00            |        .?..    |              offset: 16264 0x10138-0x1013b.7 (4)
0x10130|                                    02 00 00 00|            ....|              align: 2 0x1013c-0x1013f.7 (4)
0x10140|00 00 00 00                                    |....            |              reloff: 0 0x10140-0x10143.7 (4)
0x10140|            00 00 00 00                        |    ....        |              nreloc: 0 0x10144-0x10147.7 (4)
       |                                               |                |              flags{}: 0x10148-0x1014a.7 (3)
0x10140|                        00                     |        .       |                attr_pure_instructions: false 0x10148-0x10148 (0.1)
0x10140|                        00                     |        .       |                attr_no_toc: false 0x10148.1-0x10148.1 (0.1)
0x10140|                        00                     |        .       |                attr_strip_static_syms: false 0x10148.2-0x10148.2 (0.1)
0x10140|                        00                     |        .       |                attr_no_dead_strip: false 0x10148.3-0x10148.3 (0.1)
0x10140|                        00                     |        .       |                attr_live_support: false 0x10148.4-0x10148.4 (0.1)
0x10140|                        00                     |        .       |                attr_self_modifying_code: false 0x10148.5-0x10148.5 (0.1)
0x10140|                        00                     |        .       |                attr_debug: false 0x10148.6-0x10148.6 (0.1)
0x10140|                        00 04 00               |        ...     |                reserved: raw bits 0x10148.7-0x1014a.4 (1.6)
0x10140|                              00               |          .     |                attr_some_instructions: false 0x1014a.5-0x1014a.5 (0.1)
0x10140|                              00               |          .     |                attr_ext_reloc: false 0x1014a.6-0x1014a.6 (0.1)
0x10140|                              00               |          .     |                attr_loc_reloc: false 0x1014a.7-0x1014a.7 (0.1)
0x10140|                                 80            |           .    |              type: 128 0x1014b-0x1014b.7 (1)
0x10140|                                    00 00 00 00|            ....|              reserved1: 0 0x1014c-0x1014f.7 (4)
0x10150|00 00 00 00                                    |....            |              reserved2: 0 0x10150-0x10153.7 (4)
0x10150|            00 00 00 00                        |    ....        |              reserved3: 0 0x10154-0x10157.7 (4)
       |                                               |                |            [3]{}: section 0x3fac-0x101a7.7 (49660)
0x03fa0|                                    00 00 00 00|            ....|              data: raw bits 0x3fac-0x3fb7.7 (12)
0x03fb0|00 00 00 00 00 00 00 00                        |........        |
0x10150|                        5f 5f 63 73 74 72 69 6e|        __cstrin|              sectname: "__cstring" 0x10158-0x10167.7 (16)
0x10160|67 00 00 00 00 00 00 00                        |g.......        |
0x10160|                        5f 5f 54 45 58 54 00 00|        __TEXT..|              segname: "__TEXT" 0x10168-0x10177.7 (16)
0x10170|00 00 00 00 00 00 00 00                        |........        |
0x10170|                        ac 3f 00 00 00 00 00 00|        .?......|              address: 0x3fac 0x10178-0x1017f.7 (8)
0x10180|0c 00 00 00 00 00 00 00                        |........        |              size: 12 0x10180-0x10187.7 (8)
0x10180|                        ac 3f 00 00            |        .?..    |              offset: 16300 0x10188-0x1018b.7 (4)
0x10180|                                    00 00 00 00|            ....|              align: 0 0x1018c-0x1018f.7 (4)
0x10190|00 00 00 00                                    |....            |              reloff: 0 0x10190-0x10193.7 (4)
0x10190|            00 00 00 00                        |    ....        |              nreloc: 0 0x10194-0x10197.7 (4)
       |                                               |                |              flags{}: 0x10198-0x1019a.7 (3)
0x10190|                        02                     |        .       |                attr_pure_instructions: false 0x10198-0x10198 (0.1)
0x10190|                        02                     |        .       |                attr_no_toc: false 0x10198.1-0x10198.1 (0.1)
0x10190|                        02                     |        .       |                attr_strip_static_syms: false 0x10198.2-0x10198.2 (0.1)
0x10190|                        02                     |        .       |                attr_no_dead_strip: false 0x10198.3-0x10198.3 (0.1)
0x10190|                        02                     |        .       |                attr_live_support: false 0x10198.4-0x10198.4 (0.1)
0x10190|                        02                     |        .       |                attr_self_modifying_code: false 0x10198.5-0x10198.5 (0.1)
0x10190|                        02                     |        .       |                attr_debug: true 0x10198.6-0x10198.6 (0.1)
0x10190|                        02 00 00               |        ...     |                reserved: raw bits 0x10198.7-0x1019a.4 (1.6)
0x10190|                              00               |          .     |                attr_some_instructions: false 0x1019a.5-0x1019a.5 (0.1)
0x10190|                              00               |          .     |                attr_ext_reloc: false 0x1019a.6-0x1019a.6 (0.1)
0x10190|                              00               |          .     |                attr_loc_reloc: false 0x1019a.7-0x1019a.7 (0.1)
0x10190|                                 00            |           .    |              type: "regular" (0) 0x1019b-0x1019b.7 (1)
0x10190|                                    00 00 00 00|            ....|              reserved1: 0 0x1019c-0x1019f.7 (4)
0x101a0|00 00 00 00                                    |....            |              reserved2: 0 0x101a0-0x101a3.7 (4)
0x101a0|            00 00 00 00                        |    ....        |              reserved3: 0 0x101a4-0x101a7.7 (4)
       |                                               |                |            [4]{}: section 0x3fb8-0x101f7.7 (49728)
0x03fb0|                        00 00 00 00 00 00 00 00|        ........|              data: raw bits 0x3fb8-0x3fff.7 (72)
0x03fc0|00 00 00 00 00 00 00 00 00 00 00 00 00 00 00 00|................|
*      |until 0x3fff.7 (72)                            |                |
0x101a0|                        5f 5f 75 6e 77 69 6e 64|        __unwind|              sectname: "__unwind_info" 0x101a8-0x101b7.7 (16)
0x101b0|5f 69 6e 66 6f 00 00 00                        |_info...        |
0x101b0|                        5f 5f 54 45 58 54 00 00|        __TEXT..|              segname: "__TEXT" 0x101b8-0x101c7.7 (16)
0x101c0|00 00 00 00 00 00 00 00                        |........        |
0x101c0|                        b8 3f 00 00 00 00 00 00|        .?......|              address: 0x3fb8 0x101c8-0x101cf.7 (8)
0x101d0|48 00 00 00 00 00 00 00                        |H.......        |              size: 72 0x101d0-0x101d7.7 (8)
0x101d0|                        b8 3f 00 00            |        .?..    |              offset: 16312 0x101d8-0x101db.7 (4)
0x101d0|                                    02 00 00 00|            ....|              align: 2 0x101dc-0x101df.7 (4)
0x101e0|00 00 00 00                                    |....            |              reloff: 0 0x101e0-0x101e3.7 (4)
0x101e0|            00 00 00 00                        |    ....        |              nreloc: 0 0x101e4-0x101e7.7 (4)
       |                                               |                |              flags{}: 0x101e8-0x101ea.7 (3)
0x101e0|                        00                     |        .       |                attr_pure_instructions: false 0x101e8-0x101e8 (0.1)
0x101e0|                        00                     |        .       |                attr_no_toc: false 0x101e8.1-0x101e8.1 (0.1)
0x101e0|                        00                     |        .       |                attr_strip_static_syms: false 0x101e8.2-0x101e8.2 (0.1)
0x101e0|                        00                     |        .       |                attr_no_dead_strip: false 0x101e8.3-0x101e8.3 (0.1)
0x101e0|                        00                     |        .       |                attr_live_support: false 0x101e8.4-0x101e8.4 (0.1)
0x101e0|                        00                     |        .       |                attr_self_modifying_code: false 0x101e8.5-0x101e8.5 (0.1)
0x101e0|                        00                     |        .       |                attr_debug: false 0x101e8.6-0x101e8.6 (0.1)
0x101e0|                        00 00 00               |        ...     |                reserved: raw bits 0x101e8.7-0x101ea.4 (1.6)
0x101e0|                              00               |          .     |                attr_some_instructions: false 0x101ea.5-0x101ea.5 (0.1)
0x101e0|                              00               |          .     |                attr_ext_reloc: false 0x101ea.6-0x101ea.6 (0.1)
0x101e0|                              00               |          .     |                attr_loc_reloc: false 0x101ea.7-0x101ea.7 (0.1)
0x101e0|                                 00            |           .    |              type: "regular" (0) 0x101eb-0x101eb.7 (1)
0x101e0|                                    00 00 00 00|            ....|              reserved1: 0 0x101ec-0x101ef.7 (4)
0x101f0|00 00 00 00                                    |....            |              reserved2: 0 0x101f0-0x101f3.7 (4)
0x101f0|            00 00 00 00                        |    ....        |              reserved3: 0 0x101f4-0x101f7.7 (4)
0x10020|19 00 00 00                                    |....            |          cmd: "segment_64" (0x19) 0x10020-0x10023.7 (4)
0x10020|            d8 01 00 00                        |    ....        |          cmdsize: 472 0x10024-0x10027.7 (4)
       |                                               |                |          segment_command{}: 0x10028-0x10067.7 (64)
       |                                               |                |            arch_bits: 64 0x10028-NA (0)
0x10020|                        5f 5f 54 45 58 54 00 00|        __TEXT..|            segname: "__TEXT" 0x10028-0x10037.7 (16)
0x10030|00 00 00 00 00 00 00 00                        |........        |
0x10030|                        00 00 00 00 00 00 00 00|        ........|            vmaddr: 0x0 0x10038-0x1003f.7 (8)
0x10040|00 40 00 00 00 00 00 00                        |.@......        |            vmsize: 16384 0x10040-0x10047.7 (8)
0x10040|                        00 00 00 00 00 00 00 00|        ........|            fileoff: 0 0x10048-0x1004f.7 (8)
0x10050|00 40 00 00 00 00 00 00                        |.@......        |            tfilesize: 16384 0x10050-0x10057.7 (8)
0x10050|                        05 00 00 00            |        ....    |            initprot: 5 0x10058-0x1005b.7 (4)
0x10050|                                    05 00 00 00|            ....|            maxprot: 5 0x1005c-0x1005f.7 (4)
0x10060|05 00 00 00                                    |....            |            nsects: 5 0x10060-0x10063.7 (4)
       |                                               |                |            flags{}: 0x10064-0x10067.7 (4)
0x10060|            00 00 00 00                        |    ....        |              reserved: raw bits 0x10064-0x10067.3 (3.4)
0x10060|                     00                        |       .        |              protected_version_1: false 0x10067.4-0x10067.4 (0.1)
0x10060|                     00                        |       .        |              noreloc: false 0x10067.5-0x10067.5 (0.1)
0x10060|                     00                        |       .        |              fvmlib: false 0x10067.6-0x10067.6 (0.1)
0x10060|                     00                        |       .        |              highvm: false 0x10067.7-0x10067.7 (0.1)
       |                                               |                |        [1]{}: load_command 0x4000-0x1028f.7 (49808)
       |                                               |                |          sections[0:1]: 0x4000-0x1028f.7 (49808)
       |                                               |                |            [0]{}: section 0x4000-0x1028f.7 (49808)
0x04000|cf fa ed fe 07 00 00 01                        |........        |              data: raw bits 0x4000-0x4007.7 (8)
0x10240|5f 5f 67 6f 74 00 00 00 00 00 00 00 00 00 00 00|__got...........|              sectname: "__got" 0x10240-0x1024f.7 (16)
0x10250|5f 5f 44 41 54 41 5f 43 4f 4e 53 54 00 00 00 00|__DATA_CONST....|              segname: "__DATA_CONST" 0x10250-0x1025f.7 (16)
0x10260|00 40 00 00 00 00 00 00                        |.@......        |              address: 0x4000 0x10260-0x10267.7 (8)
0x10260|                        08 00 00 00 00 00 00 00|        ........|              size: 8 0x10268-0x1026f.7 (8)
0x10270|00 40 00 00                                    |.@..            |              offset: 16384 0x10270-0x10273.7 (4)
0x10270|            03 00 00 00                        |    ....        |              align: 3 0x10274-0x10277.7 (4)
0x10270|                        00 00 00 00            |        ....    |              reloff: 0 0x10278-0x1027b.7 (4)
0x10270|                                    00 00 00 00|            ....|              nreloc: 0 0x1027c-0x1027f.7 (4)
       |                                               |                |              flags{}: 0x10280-0x10282.7 (3)
0x10280|06                                             |.               |                attr_pure_instructions: false 0x10280-0x10280 (0.1)
0x10280|06                                             |.               |                attr_no_toc: false 0x10280.1-0x10280.1 (0.1)
0x10280|06                                             |.               |                attr_strip_static_syms: false 0x10280.2-0x10280.2 (0.1)
0x10280|06                                             |.               |                attr_no_dead_strip: false 0x10280.3-0x10280.3 (0.1)
0x10280|06                                             |.               |                attr_live_support: false 0x10280.4-0x10280.4 (0.1)
0x10280|06                                             |.               |                attr_self_modifying_code: true 0x10280.5-0x10280.5 (0.1)
0x10280|06                                             |.               |                attr_debug: true 0x10280.6-0x10280.6 (0.1)
0x10280|06 00 00                                       |...             |                reserved: raw bits 0x10280.7-0x10282.4 (1.6)
0x10280|      00                                       |  .             |                attr_some_instructions: false 0x10282.5-0x10282.5 (0.1)
0x10280|      00                                       |  .             |                attr_ext_reloc: false 0x10282.6-0x10282.6 (0.1)
0x10280|      00                                       |  .             |                attr_loc_reloc: false 0x10282.7-0x10282.7 (0.1)
0x10280|         00                                    |   .            |              type: "regular" (0) 0x10283-0x10283.7 (1)
0x10280|            01 00 00 00                        |    ....        |              reserved1: 1 0x10284-0x10287.7 (4)
0x10280|                        00 00 00 00            |        ....    |              reserved2: 0 0x10288-0x1028b.7 (4)
0x10280|                                    00 00 00 00|            ....|              reserved3: 0 0x1028c-0x1028f.7 (4)
0x101f0|                        19 00 00 00            |        ....    |          cmd: "segment_64" (0x19) 0x101f8-0x101fb.7 (4)
0x101f0|                                    98 00 00 00|            ....|          cmdsize: 152 0x101fc-0x101ff.7 (4)
       |                                               |                |          segment_command{}: 0x10200-0x1023f.7 (64)
       |                                               |                |            arch_bits: 64 0x10200-NA (0)
0x10200|5f 5f 44 41 54 41 5f 43 4f 4e 53 54 00 00 00 00|__DATA_CONST....|            segname: "__DATA_CONST" 0x10200-0x1020f.7 (16)
0x10210|00 40 00 00 00 00 00 00                        |.@......        |            vmaddr: 0x4000 0x10210-0x10217.7 (8)
0x10210|                        00 40 00 00 00 00 00 00|        .@......|            vmsize: 16384 0x10218-0x1021f.7 (8)
0x10220|00 40 00 00 00 00 00 00                        |.@......        |            fileoff: 16384 0x10220-0x10227.7 (8)
0x10220|                        00 40 00 00 00 00 00 00|        .@......|            tfilesize: 16384 0x10228-0x1022f.7 (8)
0x10230|03 00 00 00                                    |....            |            initprot: 3 0x10230-0x10233.7 (4)
0x10230|            03 00 00 00                        |    ....        |            maxprot: 3 0x10234-0x10237.7 (4)
0x10230|                        01 00 00 00            |        ....    |            nsects: 1 0x10238-0x1023b.7 (4)
       |                                               |                |            flags{}: 0x1023c-0x1023f.7 (4)
0x10230|                                    10 00 00 00|            ....|              reserved: raw bits 0x1023c-0x1023f.3 (3.4)
0x10230|                                             00|               .|              protected_version_1: false 0x1023f.4-0x1023f.4 (0.1)
0x10230|                                             00|               .|              noreloc: false 0x1023f.5-0x1023f.5 (0.1)
0x10230|                                             00|               .|              fvmlib: false 0x1023f.6-0x1023f.6 (0.1)
0x10230|                                             00|               .|              highvm: false 0x1023f.7-0x1023f.7 (0.1)
       |                                               |                |        [2]{}: load_command 0x8000-0x10377.7 (33656)
       |                                               |                |          sections[0:2]: 0x8000-0x10377.7 (33656)
       |                                               |                |            [0]{}: section 0x8000-0x10327.7 (33576)
0x08000|00 00 00 00 00 00 00 00                        |........        |              data: raw bits 0x8000-0x8007.7 (8)
0x102d0|                        5f 5f 6c 61 5f 73 79 6d|        __la_sym|              sectname: "__la_symbol_ptr" 0x102d8-0x102e7.7 (16)
0x102e0|62 6f 6c 5f 70 74 72 00                        |bol_ptr.        |
0x102e0|                        5f 5f 44 41 54 41 00 00|        __DATA..|              segname: "__DATA" 0x102e8-0x102f7.7 (16)
0x102f0|00 00 00 00 00 00 00 00                        |........        |
0x102f0|                        00 80 00 00 00 00 00 00|        ........|              address: 0x8000 0x102f8-0x102ff.7 (8)
0x10300|08 00 00 00 00 00 00 00                        |........        |              size: 8 0x10300-0x10307.7 (8)
0x10300|                        00 80 00 00            |        ....    |              offset: 32768 0x10308-0x1030b.7 (4)
0x10300|                                    03 00 00 00|            ....|              align: 3 0x1030c-0x1030f.7 (4)
0x10310|00 00 00 00                                    |....            |              reloff: 0 0x10310-0x10313.7 (4)
0x10310|            00 00 00 00                        |    ....        |              nreloc: 0 0x10314-0x10317.7 (4)
       |                                               |                |              flags{}: 0x10318-0x1031a.7 (3)
0x10310|                        07                     |        .       |                attr_pure_instructions: false 0x10318-0x10318 (0.1)
0x10310|                        07                     |        .       |                attr_no_toc: false 0x10318.1-0x10318.1 (0.1)
0x10310|                        07                     |        .       |                attr_strip_static_syms: false 0x10318.2-0x10318.2 (0.1)
0x10310|                        07                     |        .       |                attr_no_dead_strip: false 0x10318.3-0x10318.3 (0.1)
0x10310|                        07                     |        .       |                attr_live_support: false 0x10318.4-0x10318.4 (0.1)
0x10310|                        07                     |        .       |                attr_self_modifying_code: true 0x10318.5-0x10318.5 (0.1)
0x10310|                        07                     |        .       |                attr_debug: true 0x10318.6-0x10318.6 (0.1)
0x10310|                        07 00 00               |        ...     |                reserved: raw bits 0x10318.7-0x1031a.4 (1.6)
0x10310|                              00               |          .     |                attr_some_instructions: false 0x1031a.5-0x1031a.5 (0.1)
0x10310|                              00               |          .     |                attr_ext_reloc: false 0x1031a.6-0x1031a.6 (0.1)
0x10310|                              00               |          .     |                attr_loc_reloc: false 0x1031a.7-0x1031a.7 (0.1)
0x10310|                                 00            |           .    |              type: "regular" (0) 0x1031b-0x1031b.7 (1)
0x10310|                                    02 00 00 00|            ....|              reserved1: 2 0x1031c-0x1031f.7 (4)
0x10320|00 00 00 00                                    |....            |              reserved2: 0 0x10320-0x10323.7 (4)
0x10320|            00 00 00 00                        |    ....        |              reserved3: 0 0x10324-0x10327.7 (4)
       |                                               |                |            [1]{}: section 0x8008-0x10377.7 (33648)
0x08000|                        00 00 00 00 00 00 00 00|        ........|              data: raw bits 0x8008-0x800f.7 (8)
0x10320|                        5f 5f 64 61 74 61 00 00|        __data..|              sectname: "__data" 0x10328-0x10337.7 (16)
0x10330|00 00 00 00 00 00 00 00                        |........        |
0x10330|                        5f 5f 44 41 54 41 00 00|        __DATA..|              segname: "__DATA" 0x10338-0x10347.7 (16)
0x10340|00 00 00 00 00 00 00 00                        |........        |
0x10340|                        08 80 00 00 00 00 00 00|        ........|              address: 0x8008 0x10348-0x1034f.7 (8)
0x10350|08 00 00 00 00 00 00 00                        |........        |              size: 8 0x10350-0x10357.7 (8)
0x10350|                        08 80 00 00            |        ....    |              offset: 32776 0x10358-0x1035b.7 (4)
0x10350|                                    03 00 00 00|            ....|              align: 3 0x1035c-0x1035f.7 (4)
0x10360|00 00 00 00                                    |....            |              reloff: 0 0x10360-0x10363.7 (4)
0x10360|            00 00 00 00                        |    ....        |              nreloc: 0 0x10364-0x10367.7 (4)
       |                                               |                |              flags{}: 0x10368-0x1036a.7 (3)
0x10360|                        00                     |        .       |                attr_pure_instructions: false 0x10368-0x10368 (0.1)
0x10360|                        00                     |        .       |                attr_no_toc: false 0x10368.1-0x10368.1 (0.1)
0x10360|                        00                     |        .       |                attr_strip_static_syms: false 0x10368.2-0x10368.2 (0.1)
0x10360|                        00                     |        .       |                attr_no_dead_strip: false 0x10368.3-0x10368.3 (0.1)
0x10360|                        00                     |        .       |                attr_live_support: false 0x10368.4-0x10368.4 (0.1)
0x10360|                        00                     |        .       |                attr_self_modifying_code: false 0x10368.5-0x10368.5 (0.1)
0x10360|                        00                     |        .       |                attr_debug: false 0x10368.6-0x10368.6 (0.1)
0x10360|                        00 00 00               |        ...     |                reserved: raw bits 0x10368.7-0x1036a.4 (1.6)
0x10360|                              00               |          .     |                attr_some_instructions: false 0x1036a.5-0x1036a.5 (0.1)
0x10360|                              00               |          .     |                attr_ext_reloc: false 0x1036a.6-0x1036a.6 (0.1)
0x10360|                              00               |          .     |                attr_loc_reloc: false 0x1036a.7-0x1036a.7 (0.1)
0x10360|                                 00            |           .    |              type: "regular" (0) 0x1036b-0x1036b.7 (1)
0x10360|                                    00 00 00 00|            ....|              reserved1: 0 0x1036c-0x1036f.7 (4)
0x10370|00 00 00 00                                    |....            |              reserved2: 0 0x10370-0x10373.7 (4)
0x10370|            00 00 00 00                        |    ....        |              reserved3: 0 0x10374-0x10377.7 (4)
0x10290|19 00 00 00                                    |....            |          cmd: "segment_64" (0x19) 0x10290-0x10293.7 (4)
0x10290|            e8 00 00 00                        |    ....        |          cmdsize: 232 0x10294-0x10297.7 (4)
       |                                               |                |          segment_command{}: 0x10298-0x102d7.7 (64)
       |                                               |                |            arch_bits: 64 0x10298-NA (0)
0x10290|                        5f 5f 44 41 54 41 00 00|        __DATA..|            segname: "__DATA" 0x10298-0x102a7.7 (16)
0x102a0|00 00 00 00 00 00 00 00                        |........        |
0x102a0|                        00 80 00 00 00 00 00 00|        ........|            vmaddr: 0x8000 0x102a8-0x102af.7 (8)
0x102b0|00 40 00 00 00 00 00 00                        |.@......        |            vmsize: 16384 0x102b0-0x102b7.7 (8)
0x102b0|                        00 80 00 00 00 00 00 00|        ........|            fileoff: 32768 0x102b8-0x102bf.7 (8)
0x102c0|00 40 00 00 00 00 00 00                        |.@......        |            tfilesize: 16384 0x102c0-0x102c7.7 (8)
0x102c0|                        03 00 00 00            |        ....    |            initprot: 3 0x102c8-0x102cb.7 (4)
0x102c0|                                    03 00 00 00|            ....|            maxprot: 3 0x102cc-0x102cf.7 (4)
0x102d0|02 00 00 00                                    |....            |            nsects: 2 0x102d0-0x102d3.7 (4)
       |                                               |                |            flags{}: 0x102d4-0x102d7.7 (4)
0x102d0|            00 00 00 00                        |    ....        |              reserved: raw bits 0x102d4-0x102d7.3 (3.4)
0x102d0|                     00                        |       .        |              protected_version_1: false 0x102d7.4-0x102d7.4 (0.1)
0x102d0|                     00                        |       .        |              noreloc: false 0x102d7.5-0x102d7.5 (0.1)
0x102d0|                     00                        |       .        |              fvmlib: false 0x102d7.6-0x102d7.6 (0.1)
0x102d0|                     00                        |       .        |              highvm: false 0x102d7.7-0x102d7.7 (0.1)
       |                                               |                |        [3]{}: load_command 0x10378-0x103bf.7 (72)
0x10370|                        19 00 00 00            |        ....    |          cmd: "segment_64" (0x19) 0x10378-0x1037b.7 (4)
0x10370|                                    48 00 00 00|            H...|          cmdsize: 72 0x1037c-0x1037f.7 (4)
       |                                               |                |          segment_command{}: 0x10380-0x103bf.7 (64)
       |                                               |                |            arch_bits: 64 0x10380-NA (0)
0x10380|5f 5f 4c 49 4e 4b 45 44 49 54 00 00 00 00 00 00|__LINKEDIT......|            segname: "__LINKEDIT" 0x10380-0x1038f.7 (16)
0x10390|00 c0 00 00 00 00 00 00                        |........        |            vmaddr: 0xc000 0x10390-0x10397.7 (8)
0x10390|                        00 40 00 00 00 00 00 00|        .@......|            vmsize: 16384 0x10398-0x1039f.7 (8)
0x103a0|00 c0 00 00 00 00 00 00                        |........        |            fileoff: 49152 0x103a0-0x103a7.7 (8)
0x103a0|                        f6 02 00 00 00 00 00 00|        ........|            tfilesize: 758 0x103a8-0x103af.7 (8)
0x103b0|01 00 00 00                                    |....            |            initprot: 1 0x103b0-0x103b3.7 (4)
0x103b0|            01 00 00 00                        |    ....        |            maxprot: 1 0x103b4-0x103b7.7 (4)
0x103b0|                        00 00 00 00            |        ....    |            nsects: 0 0x103b8-0x103bb.7 (4)
       |                                               |                |            flags{}: 0x103bc-0x103bf.7 (4)
0x103b0|                                    00 00 00 00|            ....|              reserved: raw bits 0x103bc-0x103bf.3 (3.4)
0x103b0|                                             00|               .|              protected_version_1: false 0x103bf.4-0x103bf.4 (0.1)
0x103b0|                                             00|               .|              noreloc: false 0x103bf.5-0x103bf.5 (0.1)
0x103b0|                                             00|               .|              fvmlib: false 0x103bf.6-0x103bf.6 (0.1)
0x103b0|                                             00|               .|              highvm: false 0x103bf.7-0x103bf.7 (0.1)
       |                                               |                |          sections[0:0]: 0x103c0-NA (0)
       |                                               |                |        [4]{}: load_command 0x103c0-0x103e7.7 (40)
0x103c0|0d 00 00 00                                    |....            |          cmd: "id_dylib" (0xd) 0x103c0-0x103c3.7 (4)
0x103c0|            28 00 00 00                        |    (...        |          cmdsize: 40 0x103c4-0x103c7.7 (4)
       |                                               |                |          dylib_command{}: 0x103c8-0x103e7.7 (32)
0x103c0|                        18 00 00 00            |        ....    |            offset: 24 0x103c8-0x103cb.7 (4)
0x103c0|                                    01 00 00 00|            ....|            timestamp: "1970-01-01 00:00:00.001 +0000 UTC" (1) 0x103cc-0x103cf.7 (4)
0x103d0|00 00 00 00                                    |....            |            current_version: 0 0x103d0-0x103d3.7 (4)
0x103d0|            00 00 00 00                        |    ....        |            compatibility_version: 0 0x103d4-0x103d7.7 (4)
0x103d0|                        6c 69 62 62 62 62 2e 73|        libbbb.s|            name: "libbbb.so" 0x103d8-0x103e7.7 (16)
0x103e0|6f 00 00 00 00 00 00 00                        |o.......        |
       |                                               |                |        [5]{}: load_command 0x103e8-0x10417.7 (48)
0x103e0|                        22 00 00 80            |        "...    |          cmd: "dyld_info_only" (0x80000022) 0x103e8-0x103eb.7 (4)
0x103e0|                                    30 00 00 00|            0...|          cmdsize: 48 0x103ec-0x103ef.7 (4)
       |                                               |                |          dyld_info{}: 0x103f0-0x10417.7 (40)
0x103f0|00 c0 00 00                                    |....            |            rebase_off: 49152 0x103f0-0x103f3.7 (4)
0x103f0|            08 00 00 00                        |    ....        |            rebase_size: 8 0x103f4-0x103f7.7 (4)
0x103f0|                        08 c0 00 00            |        ....    |            bind_off: 49160 0x103f8-0x103fb.7 (4)
0x103f0|                                    18 00 00 00|            ....|            bind_size: 24 0x103fc-0x103ff.7 (4)
0x10400|00 00 00 00                                    |....            |            weak_bind_off: 0 0x10400-0x10403.7 (4)
0x10400|            00 00 00 00                        |    ....        |            weak_bind_size: 0 0x10404-0x10407.7 (4)
0x10400|                        20 c0 00 00            |         ...    |            lazy_bind_off: 49184 0x10408-0x1040b.7 (4)
0x10400|                                    10 00 00 00|            ....|            lazy_bind_size: 16 0x1040c-0x1040f.7 (4)
0x10410|30 c0 00 00                                    |0...            |            export_off: 49200 0x10410-0x10413.7 (4)
0x10410|            18 00 00 00                        |    ....        |            export_size: 24 0x10414-0x10417.7 (4)
       |                                               |                |        [6]{}: load_command 0x10418-0x1042f.7 (24)
0x10410|                        02 00 00 00            |        ....    |          cmd: "symtab" (0x2) 0x10418-0x1041b.7 (4)
0x10410|                                    18 00 00 00|            ....|          cmdsize: 24 0x1041c-0x1041f.7 (4)
0x10420|50 c0 00 00                                    |P...            |          symoff: 49232 0x10420-0x10423.7 (4)
0x10420|            04 00 00 00                        |    ....        |          nsyms: 4 0x10424-0x10427.7 (4)
0x10420|                        a0 c0 00 00            |        ....    |          stroff: 49312 0x10428-0x1042b.7 (4)
0x10420|                                    38 00 00 00|            8...|          strsize: 56 0x1042c-0x1042f.7 (4)
       |                                               |                |        [7]{}: load_command 0x10430-0x1047f.7 (80)
0x10430|0b 00 00 00                                    |....            |          cmd: "dysymtab" (0xb) 0x10430-0x10433.7 (4)
0x10430|            50 00 00 00                        |    P...        |          cmdsize: 80 0x10434-0x10437.7 (4)
0x10430|                        00 00 00 00            |        ....    |          ilocalsym: 0 0x10438-0x1043b.7 (4)
0x10430|                                    01 00 00 00|            ....|          nlocalsym: 1 0x1043c-0x1043f.7 (4)
0x10440|01 00 00 00                                    |....            |          iextdefsym: 1 0x10440-0x10443.7 (4)
0x10440|            01 00 00 00                        |    ....        |          nextdefsym: 1 0x10444-0x10447.7 (4)
0x10440|                        02 00 00 00            |        ....    |          iundefsym: 2 0x10448-0x1044b.7 (4)
0x10440|                                    02 00 00 00|            ....|          nundefsym: 2 0x1044c-0x1044f.7 (4)
0x10450|00 00 00 00                                    |....            |          tocoff: 0 0x10450-0x10453.7 (4)
0x10450|            00 00 00 00                        |    ....        |          ntoc: 0 0x10454-0x10457.7 (4)
0x10450|                        00 00 00 00            |        ....    |          modtaboff: 0 0x10458-0x1045b.7 (4)
0x10450|                                    00 00 00 00|            ....|          nmodtab: 0 0x1045c-0x1045f.7 (4)
0x10460|00 00 00 00                                    |....            |          extrefsymoff: 0 0x10460-0x10463.7 (4)
0x10460|            00 00 00 00                        |    ....        |          nextrefsyms: 0 0x10464-0x10467.7 (4)
0x10460|                        90 c0 00 00            |        ....    |          indirectsymoff: 49296 0x10468-0x1046b.7 (4)
0x10460|                                    03 00 00 00|            ....|          nindirectsyms: 3 0x1046c-0x1046f.7 (4)
0x10470|00 00 00 00                                    |....            |          extreloff: 0 0x10470-0x10473.7 (4)
0x10470|            00 00 00 00                        |    ....        |          nextrel: 0 0x10474-0x10477.7 (4)
0x10470|                        00 00 00 00            |        ....    |          locreloff: 0 0x10478-0x1047b.7 (4)
0x10470|                                    00 00 00 00|            ....|          nlocrel: 0 0x1047c-0x1047f.7 (4)
       |                                               |                |        [8]{}: load_command 0x10480-0x10497.7 (24)
0x10480|1b 00 00 00                                    |....            |          cmd: "uuid" (0x1b) 0x10480-0x10483.7 (4)
0x10480|            18 00 00 00                        |    ....        |          cmdsize: 24 0x10484-0x10487.7 (4)
       |                                               |                |          uuid_command{}: 0x10488-0x10497.7 (16)
0x10480|                        56 9f 49 cc 85 16 33 eb|        V.I...3.|            uuid: raw bits 0x10488-0x10497.7 (16)
0x10490|aa b2 ff 2b 60 cb b1 a2                        |...+`...        |
       |                                               |                |        [9]{}: load_command 0x10498-0x104b7.7 (32)
0x10490|                        32 00 00 00            |        2...    |          cmd: "build_version" (0x32) 0x10498-0x1049b.7 (4)
0x10490|                                    20 00 00 00|             ...|          cmdsize: 32 0x1049c-0x1049f.7 (4)
0x104a0|01 00 00 00                                    |....            |          platform: 1 0x104a0-0x104a3.7 (4)
0x104a0|            00 00 0b 00                        |    ....        |          minos: 720896 0x104a4-0x104a7.7 (4)
0x104a0|                        00 00 0b 00            |        ....    |          sdk: 720896 0x104a8-0x104ab.7 (4)
0x104a0|                                    01 00 00 00|            ....|          ntools: 1 0x104ac-0x104af.7 (4)
       |                                               |                |          tools[0:1]: 0x104b0-0x104b7.7 (8)
       |                                               |                |            [0]{}: tool 0x104b0-0x104b7.7 (8)
0x104b0|03 00 00 00                                    |....            |              tool: 3 0x104b0-0x104b3.7 (4)
0x104b0|            00 00 c7 02                        |    ....        |              version: 46596096 0x104b4-0x104b7.7 (4)
       |                                               |                |        [10]{}: load_command 0x104b8-0x104c7.7 (16)
0x104b0|                        2a 00 00 00            |        *...    |          cmd: "source_version" (0x2a) 0x104b8-0x104bb.7 (4)
0x104b0|                                    10 00 00 00|            ....|          cmdsize: 16 0x104bc-0x104bf.7 (4)
       |                                               |                |          source_version_tag{}: 0x104c0-0x104c7.7 (8)
0x104c0|00 00 00 00 00 00 00 00                        |........        |            tag: 0 0x104c0-0x104c7.7 (8)
       |                                               |                |        [11]{}: load_command 0x104c8-0x104ff.7 (56)
0x104c0|                        0c 00 00 00            |        ....    |          cmd: "load_dylib" (0xc) 0x104c8-0x104cb.7 (4)
0x104c0|                                    38 00 00 00|            8...|          cmdsize: 56 0x104cc-0x104cf.7 (4)
       |                                               |                |          dylib_command{}: 0x104d0-0x104ff.7 (48)
0x104d0|18 00 00 00                                    |....            |            offset: 24 0x104d0-0x104d3.7 (4)
0x104d0|            02 00 00 00                        |    ....        |            timestamp: "1970-01-01 00:00:00.002 +0000 UTC" (2) 0x104d4-0x104d7.7 (4)
0x104d0|                        05 64 0c 05            |        .d..    |            current_version: 84698117 0x104d8-0x104db.7 (4)
0x104d0|                                    00 00 01 00|            ....|            compatibility_version: 65536 0x104dc-0x104df.7 (4)
0x104e0|2f 75 73 72 2f 6c 69 62 2f 6c 69 62 53 79 73 74|/usr/lib/libSyst|            name: "/usr/lib/libSystem.B.dylib" 0x104e0-0x104ff.7 (32)
0x104f0|65 6d 2e 42 2e 64 79 6c 69 62 00 00 00 00 00 00|em.B.dylib......|
       |                                               |                |        [12]{}: load_command 0x10500-0x1050f.7 (16)
0x10500|26 00 00 00                                    |&...            |          cmd: "function_starts" (0x26) 0x10500-0x10503.7 (4)
0x10500|            10 00 00 00                        |    ....        |          cmdsize: 16 0x10504-0x10507.7 (4)
       |                                               |                |          linkedit_data{}: 0x10508-0x1050f.7 (8)
0x10500|                        48 c0 00 00            |        H...    |            off: 49224 0x10508-0x1050b.7 (4)
0x10500|                                    08 00 00 00|            ....|            size: 8 0x1050c-0x1050f.7 (4)
       |                                               |                |        [13]{}: load_command 0x10510-0x1051f.7 (16)
0x10510|29 00 00 00                                    |)...            |          cmd: "data_in_code" (0x29) 0x10510-0x10513.7 (4)
0x10510|            10 00 00 00                        |    ....        |          cmdsize: 16 0x10514-0x10517.7 (4)
       |                                               |                |          linkedit_data{}: 0x10518-0x1051f.7 (8)
0x10510|                        50 c0 00 00            |        P...    |            off: 49232 0x10518-0x1051b.7 (4)
0x10510|                                    00 00 00 00|            ....|            size: 0 0x1051c-0x1051f.7 (4)
       |                                               |                |        [14]{}: load_command 0x10520-0x1052f.7 (16)
0x10520|1d 00 00 00                                    |....            |          cmd: "code_signature" (0x1d) 0x10520-0x10523.7 (4)
0x10520|            10 00 00 00                        |    ....        |          cmdsize: 16 0x10524-0x10527.7 (4)
       |                                               |                |          linkedit_data{}: 0x10528-0x1052f.7 (8)
0x10520|                        e0 c0 00 00            |        ....    |            off: 49376 0x10528-0x1052b.7 (4)
0x10520|                                    16 02 00 00|            ....|            size: 534 0x1052c-0x1052f.7 (4)
       |                                               |                |      header{}: 0x10000-0x1001f.7 (32)
       |                                               |                |        arch_bits: 64 0x10000-NA (0)
0x10000|cf fa ed fe                                    |....            |        magic: 0xfeedfacf (64-bit little endian) 0x10000-0x10003.7 (4)
       |                                               |                |        bits: 64 0x10004-NA (0)
       |                                               |                |        endian: "little_endian" 0x10004-NA (0)
0x10000|            0c 00 00 01                        |    ....        |        cputype: "arm64" (0x100000c) 0x10004-0x10007.7 (4)
0x10000|                        00 00 00 00            |        ....    |        cpusubtype: 0x0 0x10008-0x1000b.7 (4)
0x10000|                                    06 00 00 00|            ....|        filetype: "dylib" (6) 0x1000c-0x1000f.7 (4)
0x10010|0f 00 00 00                                    |....            |        ncdms: 15 0x10010-0x10013.7 (4)
0x10010|            10 05 00 00                        |    ....        |        sizeofncdms: 1296 0x10014-0x10017.7 (4)
       |                                               |                |        flags{}: 0x10018-0x1001b.7 (4)
0x10010|                        85                     |        .       |          reserved: raw bits 0x10018-0x10018.5 (0.6)
0x10010|                        85                     |        .       |          app_extension_safe: false 0x10018.6-0x10018.6 (0.1)
0x10010|                        85                     |        .       |          no_heap_execution: true 0x10018.7-0x10018.7 (0.1)
0x10010|                           00                  |         .      |          has_tlv_descriptors: false 0x10019-0x10019 (0.1)
0x10010|                           00                  |         .      |          dead_strippable_dylib: false 0x10019.1-0x10019.1 (0.1)
0x10010|                           00                  |         .      |          pie: false 0x10019.2-0x10019.2 (0.1)
0x10010|                           00                  |         .      |          no_reexported_dylibs: false 0x10019.3-0x10019.3 (0.1)
0x10010|                           00                  |         .      |          setuid_safe: false 0x10019.4-0x10019.4 (0.1)
0x10010|                           00                  |         .      |          root_safe: false 0x10019.5-0x10019.5 (0.1)
0x10010|                           00                  |         .      |          allow_stack_execution: false 0x10019.6-0x10019.6 (0.1)
0x10010|                           00                  |         .      |          binds_to_weak: false 0x10019.7-0x10019.7 (0.1)
0x10010|                              10               |          .     |          weak_defines: false 0x1001a-0x1001a (0.1)
0x10010|                              10               |          .     |          canonical: false 0x1001a.1-0x1001a.1 (0.1)
0x10010|                              10               |          .     |          subsections_via_symbols: false 0x1001a.2-0x1001a.2 (0.1)
0x10010|                              10               |          .     |          allmodsbound: true 0x1001a.3-0x1001a.3 (0.1)
0x10010|                              10               |          .     |          prebindable: false 0x1001a.4-0x1001a.4 (0.1)
0x10010|                              10               |          .     |          nofixprebinding: false 0x1001a.5-0x1001a.5 (0.1)
0x10010|                              10               |          .     |          nomultidefs: false 0x1001a.6-0x1001a.6 (0.1)
0x10010|                              10               |          .     |          force_flat: false 0x1001a.7-0x1001a.7 (0.1)
0x10010|                                 00            |           .    |          twolevel: false 0x1001b-0x1001b (0.1)
0x10010|                                 00            |           .    |          lazy_init: false 0x1001b.1-0x1001b.1 (0.1)
0x10010|                                 00            |           .    |          split_segs: false 0x1001b.2-0x1001b.2 (0.1)
0x10010|                                 00            |           .    |          prebound: false 0x1001b.3-0x1001b.3 (0.1)
0x10010|                                 00            |           .    |          bindatload: false 0x1001b.4-0x1001b.4 (0.1)
0x10010|                                 00            |           .    |          dyldlink: false 0x1001b.5-0x1001b.5 (0.1)
0x10010|                                 00            |           .    |          incrlink: false 0x1001b.6-0x1001b.6 (0.1)
0x10010|                                 00            |           .    |          noundefs: false 0x1001b.7-0x1001b.7 (0.1)
0x10010|                                    00 00 00 00|            ....|        reserved: raw bits (all zero) 0x1001c-0x1001f.7 (4)
0x044c0|                        00 00 00 00 00 00 00 00|        ........|  unknown1: raw bits 0x44c8-0x7fff.7 (15160)
0x044d0|00 00 00 00 00 00 00 00 00 00 00 00 00 00 00 00|................|
*      |until 0x7fff.7 (15160)                         |                |
0x08010|9c 3f 00 00 00 00 00 00 00 00 00 00 00 00 00 00|.?..............|  unknown2: raw bits 0x8010-0xffff.7 (32752)
*      |until 0xffff.7 (32752)                         |                |
0x10530|00 00 00 00 00 00 00 00 00 00 00 00 00 00 00 00|................|  unknown3: raw bits 0x10530-0x1c2f5.7 (48582)
*      |until 0x1c2f5.7 (end) (48582)                  |                |
