$ fq -d pg_heap -o flavour=pgproee12 ".[0].PageHeaderData.pd_linp[0,-1] | dv" 16396
    |00 01 02 03 04 05 06 07 08 09 0a 0b 0c 0d 0e 0f|0123456789abcdef|.[0].PageHeaderData.pd_linp[0]{}: ItemIdData 0x14-0x17.7 (4)
0x10|            68 9f f2 00                        |    h...        |  lp_off: 8040 0x14-0x17.7 (4)
0x10|            68 9f f2 00                        |    h...        |  lp_flags: "LP_NORMAL" (1) 0x14-0x17.7 (4)
0x10|            68 9f f2 00                        |    h...        |  lp_len: 121 0x14-0x17.7 (4)
     |00 01 02 03 04 05 06 07 08 09 0a 0b 0c 0d 0e 0f|0123456789abcdef|.[0].PageHeaderData.pd_linp[65]{}: ItemIdData 0x118-0x11b.7 (4)
0x110|                        68 81 f2 00            |        h...    |  lp_off: 360 0x118-0x11b.7 (4)
0x110|                        68 81 f2 00            |        h...    |  lp_flags: "LP_NORMAL" (1) 0x118-0x11b.7 (4)
0x110|                        68 81 f2 00            |        h...    |  lp_len: 121 0x118-0x11b.7 (4)
