$ fq -d pg_heap -o flavour=pgproee12 ".[0].pd_linp[0,-1] | dv" 16406
    |00 01 02 03 04 05 06 07 08 09 0a 0b 0c 0d 0e 0f|0123456789abcdef|.[0].pd_linp[0]{}: item_id 0x14-0x18 (4)
0x10|            b8 9f 60 00                        |    ..`.        |  item_id_data: 6332344 0x14-0x18 (4)
    |                                               |                |  lp_off: 8120
    |                                               |                |  lp_flags: "LP_NORMAL" (1)
    |                                               |                |  lp_len: 48
     |00 01 02 03 04 05 06 07 08 09 0a 0b 0c 0d 0e 0f|0123456789abcdef|.[0].pd_linp[155]{}: item_id 0x280-0x284 (4)
0x280|a8 82 60 00                                    |..`.            |  item_id_data: 6324904 0x280-0x284 (4)
     |                                               |                |  lp_off: 680
     |                                               |                |  lp_flags: "LP_NORMAL" (1)
     |                                               |                |  lp_len: 48
