$ fq -d pg_control -o flavour=pgproee12 dv pg_control
      |00 01 02 03 04 05 06 07 08 09 0a 0b 0c 0d 0e 0f|0123456789abcdef|.{}: pg_control (pg_control) 0x0-0x1fff.7 (8192)
      |                                               |                |  error: pg_control: error at position 0x50: "hole1" already exist in struct checkPointCopy
      |                                               |                |    github.com/wader/fq/pkg/decode.(*D).Fatalf
      |                                               |                |      /home/pavel/work/tools/fq/fq/pkg/decode/decode.go:334
      |                                               |                |    github.com/wader/fq/pkg/decode.(*D).AddChild
      |                                               |                |      /home/pavel/work/tools/fq/fq/pkg/decode/decode.go:726
      |                                               |                |    github.com/wader/fq/pkg/decode.(*D).TryFieldValue
      |                                               |                |      /home/pavel/work/tools/fq/fq/pkg/decode/decode.go:1191
      |                                               |                |    github.com/wader/fq/pkg/decode.(*D).TryFieldScalarFn
      |                                               |                |      /home/pavel/work/tools/fq/fq/pkg/decode/decode.go:1206
      |                                               |                |    github.com/wader/fq/pkg/decode.(*D).TryFieldScalarU32
      |                                               |                |      /home/pavel/work/tools/fq/fq/pkg/decode/decode_gen.go:2419
      |                                               |                |    github.com/wader/fq/pkg/decode.(*D).FieldScalarU32
      |                                               |                |      /home/pavel/work/tools/fq/fq/pkg/decode/decode_gen.go:2432
      |                                               |                |    github.com/wader/fq/pkg/decode.(*D).FieldU32
      |                                               |                |      /home/pavel/work/tools/fq/fq/pkg/decode/decode_gen.go:2447
      |                                               |                |    github.com/wader/fq/format/postgres/flavours/pgproee12.DecodePgControl.func1
      |                                               |                |      /home/pavel/work/tools/fq/fq/format/postgres/flavours/pgproee12/pg_control.go:119
      |                                               |                |    github.com/wader/fq/pkg/decode.(*D).FieldStruct
      |                                               |                |      /home/pavel/work/tools/fq/fq/pkg/decode/decode.go:774
      |                                               |                |    github.com/wader/fq/format/postgres/flavours/pgproee12.DecodePgControl
      |                                               |                |      /home/pavel/work/tools/fq/fq/format/postgres/flavours/pgproee12/pg_control.go:102
      |                                               |                |    github.com/wader/fq/format/postgres.decodePgControl
      |                                               |                |      /home/pavel/work/tools/fq/fq/format/postgres/pg_control.go:83
      |                                               |                |    github.com/wader/fq/pkg/decode.decode.func1
      |                                               |                |      /home/pavel/work/tools/fq/fq/pkg/decode/decode.go:88
0x0000|d8 09 ef 93 89 69 eb 62                        |.....i.b        |  system_identifier: 7127906874857294296 0x0-0x7.7 (8)
0x0000|                        b1 04 45 50            |        ..EP    |  pg_control_version: "Postgres Pro Enterprise 1201" (1346700465) 0x8-0xb.7 (4)
0x0000|                                    a1 eb 08 0c|            ....|  catalog_version_no: 201911201 0xc-0xf.7 (4)
0x0010|06 00 00 00                                    |....            |  state: "DB_IN_PRODUCTION" (6) 0x10-0x13.7 (4)
0x0010|            00 00 00 00                        |    ....        |  hole0: 0 0x14-0x17.7 (4)
0x0010|                        db 6a eb 62 00 00 00 00|        .j.b....|  time: "Thu, 04 Aug 2022 06:44:43 UTC" (1659595483) 0x18-0x1f.7 (8)
0x0020|b8 77 07 03 00 00 00 00                        |.w......        |  checkPoint: "0/30777B8" (50821048) 0x20-0x27.7 (8)
      |                                               |                |  checkPointCopy{}: 0x28-0x4b.7 (36)
0x0020|                        68 77 07 03 00 00 00 00|        hw......|    redo: "0/3077768" (50820968) 0x28-0x2f.7 (8)
0x0030|01 00 00 00                                    |....            |    ThisTimeLineID: 1 0x30-0x33.7 (4)
0x0030|            01 00 00 00                        |    ....        |    PrevTimeLineID: 1 0x34-0x37.7 (4)
0x0030|                        01                     |        .       |    fullPageWrites: 1 0x38-0x38.7 (1)
0x0030|                           00 00 00 00 00 00 00|         .......|    hole1: 0 0x39-0x3f.7 (7)
0x0040|db 34 0c 54 02 00 00 00                        |.4.T....        |    nextXid: 10000020699 0x40-0x47.7 (8)
0x0040|                        00 60 00 00            |        .`..    |    nextOid: 24576 0x48-0x4b.7 (4)
0x0040|                                    00 00 00 00|            ....|  unknown0: raw bits 0x4c-0x1fff.7 (8116)
0x0050|00 f2 05 2a 01 00 00 00 00 00 00 00 00 00 00 00|...*............|
*     |until 0x1fff.7 (end) (8116)                    |                |
