$ fq -d pg_control dv pg_control
      |00 01 02 03 04 05 06 07 08 09 0a 0b 0c 0d 0e 0f|0123456789abcdef|.{}: pg_control (pg_control) 0x0-0x2000 (8192)
0x0000|d8 09 ef 93 89 69 eb 62                        |.....i.b        |  system_identifier: 7127906874857294296 0x0-0x8 (8)
0x0000|                        b1 04 45 50            |        ..EP    |  pg_control_version: "Postgres Pro Enterprise 1201" (1346700465) 0x8-0xc (4)
0x0000|                                    a1 eb 08 0c|            ....|  catalog_version_no: 201911201 0xc-0x10 (4)
0x0010|06 00 00 00                                    |....            |  state: "DB_IN_PRODUCTION" (6) 0x10-0x14 (4)
0x0010|            00 00 00 00                        |    ....        |  hole0: 0 0x14-0x18 (4)
0x0010|                        db 6a eb 62 00 00 00 00|        .j.b....|  time: "Thu, 04 Aug 2022 06:44:43 UTC" (1659595483) 0x18-0x20 (8)
0x0020|b8 77 07 03 00 00 00 00                        |.w......        |  check_point: "0/30777B8" (50821048) 0x20-0x28 (8)
      |                                               |                |  check_point_copy{}: 0x28-0xa0 (120)
0x0020|                        68 77 07 03 00 00 00 00|        hw......|    redo: "0/3077768" (50820968) 0x28-0x30 (8)
0x0030|01 00 00 00                                    |....            |    this_time_line_id: 1 0x30-0x34 (4)
0x0030|            01 00 00 00                        |    ....        |    prev_time_line_id: 1 0x34-0x38 (4)
0x0030|                        01                     |        .       |    full_page_writes: 1 0x38-0x39 (1)
0x0030|                           00 00 00 00 00 00 00|         .......|    hole1: 0 0x39-0x40 (7)
0x0040|db 34 0c 54 02 00 00 00                        |.4.T....        |    next_xid: 10000020699 0x40-0x48 (8)
0x0040|                        00 60 00 00            |        .`..    |    next_oid: 24576 0x48-0x4c (4)
0x0040|                                    00 00 00 00|            ....|    hole2: 0 0x4c-0x50 (4)
0x0050|00 f2 05 2a 01 00 00 00                        |...*....        |    next_multi: 5000000000 0x50-0x58 (8)
0x0050|                        00 00 00 00 00 00 00 00|        ........|    next_multi_offset: 0 0x58-0x60 (8)
0x0060|e9 e5 0b 54 02 00 00 00                        |...T....        |    oldest_xid: 10000000489 0x60-0x68 (8)
0x0060|                        01 00 00 00            |        ....    |    oldest_xid_db: 1 0x68-0x6c (4)
0x0060|                                    00 00 00 00|            ....|    hole3: 0 0x6c-0x70 (4)
0x0070|00 f2 05 2a 01 00 00 00                        |...*....        |    oldest_multi: 5000000000 0x70-0x78 (8)
0x0070|                        01 00 00 00            |        ....    |    oldest_multi_db: 1 0x78-0x7c (4)
0x0070|                                    00 00 00 00|            ....|    hole4: 0 0x7c-0x80 (4)
0x0080|db 6a eb 62 00 00 00 00                        |.j.b....        |    time: "Thu, 04 Aug 2022 06:44:43 UTC" (1659595483) 0x80-0x88 (8)
0x0080|                        00 00 00 00 00 00 00 00|        ........|    oldest_commit_ts_xid: 0 0x88-0x90 (8)
0x0090|00 00 00 00 00 00 00 00                        |........        |    newest_commit_ts_xid: 0 0x90-0x98 (8)
0x0090|                        db 34 0c 54 02 00 00 00|        .4.T....|    oldest_active_xid: 10000020699 0x98-0xa0 (8)
0x00a0|e8 03 00 00 00 00 00 00                        |........        |  unlogged_lsn: "0/3E8" (1000) 0xa0-0xa8 (8)
0x00a0|                        00 00 00 00 00 00 00 00|        ........|  min_recovery_point: "0/0" (0) 0xa8-0xb0 (8)
0x00b0|00 00 00 00                                    |....            |  min_recovery_point_tli: 0 0xb0-0xb4 (4)
0x00b0|            00 00 00 00                        |    ....        |  hole5: 0 0xb4-0xb8 (4)
0x00b0|                        00 00 00 00 00 00 00 00|        ........|  backup_start_point: "0/0" (0) 0xb8-0xc0 (8)
0x00c0|00 00 00 00 00 00 00 00                        |........        |  backup_end_point: "0/0" (0) 0xc0-0xc8 (8)
0x00c0|                        00                     |        .       |  backup_end_required: 0 0xc8-0xc9 (1)
0x00c0|                           00 00 00            |         ...    |  hole6: 0 0xc9-0xcc (3)
0x00c0|                                    01 00 00 00|            ....|  wal_level: "WAL_LEVEL_REPLICA" (1) 0xcc-0xd0 (4)
0x00d0|00                                             |.               |  wal_log_hints: 0 0xd0-0xd1 (1)
0x00d0|   00 00 00                                    | ...            |  hole7: 0 0xd1-0xd4 (3)
0x00d0|            8a 01 00 00                        |    ....        |  max_connections: 394 0xd4-0xd8 (4)
0x00d0|                        08 00 00 00            |        ....    |  max_worker_processes: 8 0xd8-0xdc (4)
0x00d0|                                    0a 00 00 00|            ....|  max_wal_senders: 10 0xdc-0xe0 (4)
0x00e0|00 00 00 00                                    |....            |  max_prepared_xacts: 0 0xe0-0xe4 (4)
0x00e0|            40 00 00 00                        |    @...        |  max_locks_per_xact: 64 0xe4-0xe8 (4)
0x00e0|                        00                     |        .       |  track_commit_timestamp: 0 0xe8-0xe9 (1)
0x00e0|                           00 00 00            |         ...    |  hole8: 0 0xe9-0xec (3)
0x00e0|                                    08 00 00 00|            ....|  max_align: 8 0xec-0xf0 (4)
0x00f0|00 00 00 00 87 d6 32 41                        |......2A        |  float_format: 1.234567e+06 0xf0-0xf8 (8)
0x00f0|                        00 20 00 00            |        . ..    |  blcksz: 8192 0xf8-0xfc (4)
0x00f0|                                    00 00 02 00|            ....|  relseg_size: 131072 0xfc-0x100 (4)
0x0100|00 20 00 00                                    |. ..            |  xlog_blcksz: 8192 0x100-0x104 (4)
0x0100|            00 00 00 01                        |    ....        |  xlog_seg_size: 16777216 0x104-0x108 (4)
0x0100|                        40 00 00 00            |        @...    |  name_data_len: 64 0x108-0x10c (4)
0x0100|                                    20 00 00 00|             ...|  index_max_keys: 32 0x10c-0x110 (4)
0x0110|cc 07 00 00                                    |....            |  toast_max_chunk_size: 1996 0x110-0x114 (4)
0x0110|            00 08 00 00                        |    ....        |  loblksize: 2048 0x114-0x118 (4)
0x0110|                        01                     |        .       |  float4_by_val: 1 0x118-0x119 (1)
0x0110|                           01                  |         .      |  float8_by_val: 1 0x119-0x11a (1)
0x0110|                              00 00            |          ..    |  hole9: 0 0x11a-0x11c (2)
0x0110|                                    01 00 00 00|            ....|  data_checksum_version: 1 0x11c-0x120 (4)
0x0120|0b db 53 d2 42 ff 02 95 74 e6 aa 87 ff 98 4b 67|..S.B...t.....Kg|  mock_authentication_nonce: "0bdb53d242ff029574e6aa87ff984b67e4a76678383559a314f265019e618ce4" (raw bits) 0x120-0x140 (32)
0x0130|e4 a7 66 78 38 35 59 a3 14 f2 65 01 9e 61 8c e4|..fx85Y...e..a..|
0x0140|3c 03 00 00                                    |<...            |  icu_version: "60.3.0.0" (828) 0x140-0x144 (4)
0x0140|            00 00 ff ff                        |    ....        |  pg_old_version: 4294901760 0x144-0x148 (4)
0x0140|                        01 00 00 00            |        ....    |  oldest_snapshot: 1 0x148-0x14c (4)
0x0140|                                    00 00 00 00|            ....|  recent_snapshot: 0 0x14c-0x150 (4)
0x0150|00 00 00 00                                    |....            |  active_snapshot: 0 0x150-0x154 (4)
0x0150|            f4 4f d7 dd                        |    .O..        |  crc: 3721875444 0x154-0x158 (4)
0x0150|                        00 00 00 00 00 00 00 00|        ........|  unused: raw bits 0x158-0x2000 (7848)
0x0160|00 00 00 00 00 00 00 00 00 00 00 00 00 00 00 00|................|
*     |until 0x1fff.7 (end) (7848)                    |                |
