# ffmpeg -f lavfi -i sine -t 50ms -c:a flac -f avi flac.avi
$ fq dv flac.avi
      |00 01 02 03 04 05 06 07 08 09 0a 0b 0c 0d 0e 0f|0123456789abcdef|.{}: flac.avi (avi) 0x0-0x18cb.7 (6348)
0x0000|52 49 46 46                                    |RIFF            |  id: "RIFF" 0x0-0x3.7 (4)
0x0000|            c4 18 00 00                        |    ....        |  size: 6340 0x4-0x7.7 (4)
0x0000|                        41 56 49 20            |        AVI     |  type: "AVI " (valid) 0x8-0xb.7 (4)
      |                                               |                |  chunks[0:5]: 0xc-0x18cb.7 (6336)
      |                                               |                |    [0]{}: chunk 0xc-0x120b.7 (4608)
0x0000|                                    4c 49 53 54|            LIST|      id: "LIST" (Chunk list) 0xc-0xf.7 (4)
0x0010|f8 11 00 00                                    |....            |      size: 4600 0x10-0x13.7 (4)
0x0010|            68 64 72 6c                        |    hdrl        |      type: "hdrl" (AVI main list) 0x14-0x17.7 (4)
      |                                               |                |      chunks[0:3]: 0x18-0x120b.7 (4596)
      |                                               |                |        [0]{}: chunk 0x18-0x57.7 (64)
0x0010|                        61 76 69 68            |        avih    |          id: "avih" (AVI main header) 0x18-0x1b.7 (4)
0x0010|                                    38 00 00 00|            8...|          size: 56 0x1c-0x1f.7 (4)
0x0020|00 00 00 00                                    |....            |          micro_sec_per_frame: 0 0x20-0x23.7 (4)
0x0020|            80 3e 00 00                        |    .>..        |          max_bytes_per_sec: 16000 0x24-0x27.7 (4)
0x0020|                        00 00 00 00            |        ....    |          padding_granularity: 0 0x28-0x2b.7 (4)
      |                                               |                |          flags{}: 0x2c-0x2f.7 (4)
0x0020|                                    10         |            .   |            unused0: raw bits 0x2c-0x2c.1 (0.2)
0x0020|                                    10         |            .   |            must_use_index: false 0x2c.2-0x2c.2 (0.1)
0x0020|                                    10         |            .   |            has_index: true 0x2c.3-0x2c.3 (0.1)
0x0020|                                    10 09      |            ..  |            unused1: raw bits 0x2c.4-0x2d.3 (1)
0x0020|                                       09      |             .  |            trust_ck_type: true 0x2d.4-0x2d.4 (0.1)
0x0020|                                       09      |             .  |            unused2: raw bits 0x2d.5-0x2d.6 (0.2)
0x0020|                                       09      |             .  |            is_interleaved: true 0x2d.7-0x2d.7 (0.1)
0x0020|                                          00   |              . |            unused3: raw bits 0x2e-0x2e.5 (0.6)
0x0020|                                          00   |              . |            copyrighted: false 0x2e.6-0x2e.6 (0.1)
0x0020|                                          00   |              . |            was_capture_file: false 0x2e.7-0x2e.7 (0.1)
0x0020|                                             00|               .|            unused4: raw bits 0x2f-0x2f.7 (1)
0x0030|00 00 00 00                                    |....            |          total_frames: 0 0x30-0x33.7 (4)
0x0030|            00 00 00 00                        |    ....        |          initial_frames: 0 0x34-0x37.7 (4)
0x0030|                        01 00 00 00            |        ....    |          streams: 1 0x38-0x3b.7 (4)
0x0030|                                    00 00 10 00|            ....|          suggested_buffer_size: 1048576 0x3c-0x3f.7 (4)
0x0040|00 00 00 00                                    |....            |          width: 0 0x40-0x43.7 (4)
0x0040|            00 00 00 00                        |    ....        |          height: 0 0x44-0x47.7 (4)
0x0040|                        00 00 00 00 00 00 00 00|        ........|          reserved: raw bits 0x48-0x57.7 (16)
0x0050|00 00 00 00 00 00 00 00                        |........        |
      |                                               |                |        [1]{}: chunk 0x58-0x10ff.7 (4264)
0x0050|                        4c 49 53 54            |        LIST    |          id: "LIST" (Chunk list) 0x58-0x5b.7 (4)
0x0050|                                    a0 10 00 00|            ....|          size: 4256 0x5c-0x5f.7 (4)
0x0060|73 74 72 6c                                    |strl            |          type: "strl" (Stream list) 0x60-0x63.7 (4)
      |                                               |                |          chunks[0:3]: 0x64-0x10ff.7 (4252)
      |                                               |                |            [0]{}: chunk 0x64-0xa3.7 (64)
0x0060|            73 74 72 68                        |    strh        |              id: "strh" (Stream header) 0x64-0x67.7 (4)
0x0060|                        38 00 00 00            |        8...    |              size: 56 0x68-0x6b.7 (4)
0x0060|                                    61 75 64 73|            auds|              type: "auds" (Audio stream) 0x6c-0x6f.7 (4)
0x0070|01 00 00 00                                    |....            |              handler: "\x01\x00\x00\x00" 0x70-0x73.7 (4)
      |                                               |                |              flags{}: 0x74-0x77.7 (4)
0x0070|            00                                 |    .           |                unused0: raw bits 0x74-0x74.6 (0.7)
0x0070|            00                                 |    .           |                disabled: false 0x74.7-0x74.7 (0.1)
0x0070|               00 00                           |     ..         |                unused1: raw bits 0x75-0x76.6 (1.7)
0x0070|                  00                           |      .         |                pal_changes: false 0x76.7-0x76.7 (0.1)
0x0070|                     00                        |       .        |                unused2: raw bits 0x77-0x77.7 (1)
0x0070|                        00 00                  |        ..      |              priority: 0 0x78-0x79.7 (2)
0x0070|                              00 00            |          ..    |              language: 0 0x7a-0x7b.7 (2)
0x0070|                                    00 00 00 00|            ....|              initial_frames: 0 0x7c-0x7f.7 (4)
0x0080|80 00 00 00                                    |....            |              scale: 128 0x80-0x83.7 (4)
0x0080|            c9 04 00 00                        |    ....        |              rate: 1225 0x84-0x87.7 (4)
0x0080|                        00 00 00 00            |        ....    |              start: 0 0x88-0x8b.7 (4)
0x0080|                                    02 00 00 00|            ....|              length: 2 0x8c-0x8f.7 (4)
0x0090|5a 02 00 00                                    |Z...            |              suggested_buffer_size: 602 0x90-0x93.7 (4)
0x0090|            ff ff ff ff                        |    ....        |              quality: 4294967295 0x94-0x97.7 (4)
0x0090|                        00 00 00 00            |        ....    |              sample_size: 0 0x98-0x9b.7 (4)
      |                                               |                |              frame{}: 0x9c-0xa3.7 (8)
0x0090|                                    00 00      |            ..  |                left: 0 0x9c-0x9d.7 (2)
0x0090|                                          00 00|              ..|                top: 0 0x9e-0x9f.7 (2)
0x00a0|00 00                                          |..              |                right: 0 0xa0-0xa1.7 (2)
0x00a0|      00 00                                    |  ..            |                bottom: 0 0xa2-0xa3.7 (2)
      |                                               |                |            [1]{}: chunk 0xa4-0xdf.7 (60)
0x00a0|            73 74 72 66                        |    strf        |              id: "strf" (Stream format) 0xa4-0xa7.7 (4)
0x00a0|                        34 00 00 00            |        4...    |              size: 52 0xa8-0xab.7 (4)
0x00a0|                                    ac f1      |            ..  |              format_tag: "flac" (61868) 0xac-0xad.7 (2)
0x00a0|                                          01 00|              ..|              channels: 1 0xae-0xaf.7 (2)
0x00b0|44 ac 00 00                                    |D...            |              samples_per_sec: 44100 0xb0-0xb3.7 (4)
0x00b0|            80 3e 00 00                        |    .>..        |              avg_bytes_per_sec: 16000 0xb4-0xb7.7 (4)
0x00b0|                        02 00                  |        ..      |              block_align: 2 0xb8-0xb9.7 (2)
0x00b0|                              10 00            |          ..    |              bits_per_sample: 16 0xba-0xbb.7 (2)
0x00b0|                                    22 00      |            ".  |              cb_size: 34 0xbc-0xbd.7 (2)
0x00b0|                                          12 00|              ..|              extra: raw bits 0xbe-0xdf.7 (34)
0x00c0|12 00 00 00 00 00 24 15 0a c4 40 f0 00 00 00 00|......$...@.....|
0x00d0|00 00 00 00 00 00 00 00 00 00 00 00 00 00 00 00|................|
      |                                               |                |            [2]{}: chunk 0xe0-0x10ff.7 (4128)
0x00e0|4a 55 4e 4b                                    |JUNK            |              id: "JUNK" (Alignment) 0xe0-0xe3.7 (4)
0x00e0|            18 10 00 00                        |    ....        |              size: 4120 0xe4-0xe7.7 (4)
0x00e0|                        04 00 00 00 00 00 00 00|        ........|              data: raw bits 0xe8-0x10ff.7 (4120)
0x00f0|30 30 77 62 00 00 00 00 00 00 00 00 00 00 00 00|00wb............|
*     |until 0x10ff.7 (4120)                          |                |
      |                                               |                |        [2]{}: chunk 0x1100-0x120b.7 (268)
0x1100|4a 55 4e 4b                                    |JUNK            |          id: "JUNK" (Alignment) 0x1100-0x1103.7 (4)
0x1100|            04 01 00 00                        |    ....        |          size: 260 0x1104-0x1107.7 (4)
0x1100|                        6f 64 6d 6c 64 6d 6c 68|        odmldmlh|          data: raw bits 0x1108-0x120b.7 (260)
0x1110|f8 00 00 00 00 00 00 00 00 00 00 00 00 00 00 00|................|
*     |until 0x120b.7 (260)                           |                |
      |                                               |                |    [1]{}: chunk 0x120c-0x122d.7 (34)
0x1200|                                    4c 49 53 54|            LIST|      id: "LIST" (Chunk list) 0x120c-0x120f.7 (4)
0x1210|1a 00 00 00                                    |....            |      size: 26 0x1210-0x1213.7 (4)
0x1210|            49 4e 46 4f                        |    INFO        |      type: "INFO" 0x1214-0x1217.7 (4)
      |                                               |                |      chunks[0:1]: 0x1218-0x122d.7 (22)
      |                                               |                |        [0]{}: chunk 0x1218-0x122d.7 (22)
0x1210|                        49 53 46 54            |        ISFT    |          id: "ISFT" (Software. Identifies the name of the software package used to create the file) 0x1218-0x121b.7 (4)
0x1210|                                    0e 00 00 00|            ....|          size: 14 0x121c-0x121f.7 (4)
0x1220|4c 61 76 66 35 38 2e 37 36 2e 31 30 30 00      |Lavf58.76.100.  |          value: "Lavf58.76.100" 0x1220-0x122d.7 (14)
      |                                               |                |    [2]{}: chunk 0x122e-0x162d.7 (1024)
0x1220|                                          4a 55|              JU|      id: "JUNK" (Alignment) 0x122e-0x1231.7 (4)
0x1230|4e 4b                                          |NK              |
0x1230|      f8 03 00 00                              |  ....          |      size: 1016 0x1232-0x1235.7 (4)
0x1230|                  00 00 00 00 00 00 00 00 00 00|      ..........|      data: raw bits 0x1236-0x162d.7 (1016)
0x1240|00 00 00 00 00 00 00 00 00 00 00 00 00 00 00 00|................|
*     |until 0x162d.7 (1016)                          |                |
      |                                               |                |    [3]{}: chunk 0x162e-0x18a3.7 (630)
0x1620|                                          4c 49|              LI|      id: "LIST" (Chunk list) 0x162e-0x1631.7 (4)
0x1630|53 54                                          |ST              |
0x1630|      6e 02 00 00                              |  n...          |      size: 622 0x1632-0x1635.7 (4)
0x1630|                  6d 6f 76 69                  |      movi      |      type: "movi" (Stream Data) 0x1636-0x1639.7 (4)
      |                                               |                |      chunks[0:2]: 0x163a-0x18a3.7 (618)
      |                                               |                |        [0]{}: chunk 0x163a-0x189b.7 (610)
0x1630|                              30 30 77 62      |          00wb  |          id: "00wb" 0x163a-0x163d.7 (4)
      |                                               |                |          stream_type: "wb" (Audio data)
      |                                               |                |          stream_nr: 0
0x1630|                                          5a 02|              Z.|          size: 602 0x163e-0x1641.7 (4)
0x1640|00 00                                          |..              |
      |00 01 02 03 04 05 06 07 08 09 0a 0b 0c 0d 0e 0f|0123456789abcdef|          data{}: (flac_frame) 0x1642-0x189b.7 (602)
      |                                               |                |            header{}: 0x1642-0x1649.7 (8)
0x1640|      ff f8                                    |  ..            |              sync: 0b11111111111110 (valid) 0x1642-0x1643.5 (1.6)
0x1640|         f8                                    |   .            |              reserved0: 0 (valid) 0x1643.6-0x1643.6 (0.1)
0x1640|         f8                                    |   .            |              blocking_strategy: "fixed" (0) 0x1643.7-0x1643.7 (0.1)
0x1640|            79                                 |    y           |              block_size: 0b111 (end of header (16 bit)) 0x1644-0x1644.3 (0.4)
0x1640|            79                                 |    y           |              sample_rate: 44100 (0b1001) 0x1644.4-0x1644.7 (0.4)
0x1640|               08                              |     .          |              channel_assignment: 1 (0) (mono) 0x1645-0x1645.3 (0.4)
0x1640|               08                              |     .          |              sample_size: 16 (0b100) 0x1645.4-0x1645.6 (0.3)
0x1640|               08                              |     .          |              reserved1: 0 (valid) 0x1645.7-0x1645.7 (0.1)
      |                                               |                |              end_of_header{}: 0x1646-0x1648.7 (3)
0x1640|                  00                           |      .         |                frame_number: 0 0x1646-0x1646.7 (1)
0x1640|                     08 9c                     |       ..       |                block_size: 2205 0x1647-0x1648.7 (2)
0x1640|                           14                  |         .      |              crc: 0x14 (valid) 0x1649-0x1649.7 (1)
      |                                               |                |            subframes[0:1]: 0x164a-0x1899.1 (591.2)
      |                                               |                |              [0]{}: subframe 0x164a-0x1899.1 (591.2)
0x1640|                              4a               |          J     |                zero_bit: 0 (valid) 0x164a-0x164a (0.1)
0x1640|                              4a               |          J     |                subframe_type: "lpc" (0b100101) 0x164a.1-0x164a.6 (0.6)
      |                                               |                |                lpc_order: 6
0x1640|                              4a               |          J     |                wasted_bits_flag: 0 0x164a.7-0x164a.7 (0.1)
      |                                               |                |                subframe_sample_size: 16
      |                                               |                |                warmup_samples[0:6]: 0x164b-0x1656.7 (12)
0x1640|                                 00 00         |           ..   |                  [0]: 0 value 0x164b-0x164c.7 (2)
0x1640|                                       01 00   |             .. |                  [1]: 256 value 0x164d-0x164e.7 (2)
0x1640|                                             01|               .|                  [2]: 511 value 0x164f-0x1650.7 (2)
0x1650|ff                                             |.               |
0x1650|   02 fd                                       | ..             |                  [3]: 765 value 0x1651-0x1652.7 (2)
0x1650|         03 f8                                 |   ..           |                  [4]: 1016 value 0x1653-0x1654.7 (2)
0x1650|               04 ee                           |     ..         |                  [5]: 1262 value 0x1655-0x1656.7 (2)
0x1650|                     e7                        |       .        |                precision: 15 0x1657-0x1657.3 (0.4)
0x1650|                     e7 32                     |       .2       |                shift: 14 0x1657.4-0x1658 (0.5)
      |                                               |                |                coefficients[0:6]: 0x1658.1-0x1663.2 (11.2)
0x1650|                        32 5e                  |        2^      |                  [0]: 12894 value 0x1658.1-0x1659.7 (1.7)
0x1650|                              37 ca            |          7.    |                  [1]: 7141 value 0x165a-0x165b.6 (1.7)
0x1650|                                 ca 2a f7      |           .*.  |                  [2]: 2749 value 0x165b.7-0x165d.5 (1.7)
0x1650|                                       f7 eb e7|             ...|                  [3]: -644 value 0x165d.6-0x165f.4 (1.7)
0x1650|                                             e7|               .|                  [4]: -2605 value 0x165f.5-0x1661.3 (1.7)
0x1660|5d 3e                                          |]>              |
0x1660|   3e 56 20                                    | >V             |                  [5]: -3407 value 0x1661.4-0x1663.2 (1.7)
0x1660|         20                                    |                |                residual_coding_method: 4 (0) (rice) 0x1663.3-0x1663.4 (0.2)
0x1660|         20 01                                 |    .           |                partition_order: 0 0x1663.5-0x1664 (0.4)
      |                                               |                |                rice_partitions: 1
      |                                               |                |                partitions[0:1]: 0x1664.1-0x1899.1 (565.1)
      |                                               |                |                  [0]{}: partition 0x1664.1-0x1899.1 (565.1)
      |                                               |                |                    count: 2199
0x1660|            01                                 |    .           |                    rice_parameter: 0 0x1664.1-0x1664.4 (0.4)
0x1660|            01 39 24 ce 12 64 92 49 39 9e 73 84|    .9$..d.I9.s.|                    samples: raw bits 0x1664.5-0x1899.1 (564.5)
0x1670|d3 39 2c ce 49 29 f3 e7 e6 4e 4f 27 84 93 92 72|.9,.I)...NO'...r|
*     |until 0x1899.1 (565)                           |                |
0x1890|                           c0                  |         .      |            byte_align: 0 (valid) 0x1899.2-0x1899.7 (0.6)
0x1890|                              7b 66            |          {f    |            footer_crc: "7b66" (raw bits) (valid) 0x189a-0x189b.7 (2)
      |                                               |                |        [1]{}: chunk 0x189c-0x18a3.7 (8)
0x1890|                                    30 30 77 62|            00wb|          id: "00wb" 0x189c-0x189f.7 (4)
      |                                               |                |          stream_type: "wb" (Audio data)
      |                                               |                |          stream_nr: 0
0x18a0|00 00 00 00                                    |....            |          size: 0 0x18a0-0x18a3.7 (4)
      |                                               |                |          data: raw bits 0x18a4-NA (0)
      |                                               |                |    [4]{}: chunk 0x18a4-0x18cb.7 (40)
0x18a0|            69 64 78 31                        |    idx1        |      id: "idx1" (Index) 0x18a4-0x18a7.7 (4)
0x18a0|                        20 00 00 00            |         ...    |      size: 32 0x18a8-0x18ab.7 (4)
      |                                               |                |      indexes[0:2]: 0x18ac-0x18cb.7 (32)
      |                                               |                |        [0]{}: index 0x18ac-0x18bb.7 (16)
0x18a0|                                    30 30 77 62|            00wb|          id: "00wb" 0x18ac-0x18af.7 (4)
      |                                               |                |          stream_type: "wb" (Audio data)
      |                                               |                |          stream_nr: 0
      |                                               |                |          flags{}: 0x18b0-0x18b3.7 (4)
0x18b0|10                                             |.               |            unused0: raw bits 0x18b0-0x18b0.2 (0.3)
0x18b0|10                                             |.               |            key_frame: true 0x18b0.3-0x18b0.3 (0.1)
0x18b0|10                                             |.               |            unused1: raw bits 0x18b0.4-0x18b0.6 (0.3)
0x18b0|10                                             |.               |            list: false 0x18b0.7-0x18b0.7 (0.1)
0x18b0|   00 00 00                                    | ...            |            unused2: raw bits 0x18b1-0x18b3.7 (3)
0x18b0|            04 00 00 00                        |    ....        |          offset: 4 0x18b4-0x18b7.7 (4)
0x18b0|                        5a 02 00 00            |        Z...    |          length: 602 0x18b8-0x18bb.7 (4)
      |                                               |                |        [1]{}: index 0x18bc-0x18cb.7 (16)
0x18b0|                                    30 30 77 62|            00wb|          id: "00wb" 0x18bc-0x18bf.7 (4)
      |                                               |                |          stream_type: "wb" (Audio data)
      |                                               |                |          stream_nr: 0
      |                                               |                |          flags{}: 0x18c0-0x18c3.7 (4)
0x18c0|10                                             |.               |            unused0: raw bits 0x18c0-0x18c0.2 (0.3)
0x18c0|10                                             |.               |            key_frame: true 0x18c0.3-0x18c0.3 (0.1)
0x18c0|10                                             |.               |            unused1: raw bits 0x18c0.4-0x18c0.6 (0.3)
0x18c0|10                                             |.               |            list: false 0x18c0.7-0x18c0.7 (0.1)
0x18c0|   00 00 00                                    | ...            |            unused2: raw bits 0x18c1-0x18c3.7 (3)
0x18c0|            66 02 00 00                        |    f...        |          offset: 614 0x18c4-0x18c7.7 (4)
0x18c0|                        00 00 00 00|           |        ....|   |          length: 0 0x18c8-0x18cb.7 (4)
      |                                               |                |  streams[0:1]: 0x1642-0x18a3.7 (610)
      |                                               |                |    [0]{}: stream 0x1642-0x18a3.7 (610)
      |                                               |                |      samples[0:2]: 0x1642-0x18a3.7 (610)
      |00 01 02 03 04 05 06 07 08 09 0a 0b 0c 0d 0e 0f|0123456789abcdef|        [0]{}: sample (flac_frame) 0x1642-0x189b.7 (602)
      |                                               |                |          header{}: 0x1642-0x1649.7 (8)
0x1640|      ff f8                                    |  ..            |            sync: 0b11111111111110 (valid) 0x1642-0x1643.5 (1.6)
0x1640|         f8                                    |   .            |            reserved0: 0 (valid) 0x1643.6-0x1643.6 (0.1)
0x1640|         f8                                    |   .            |            blocking_strategy: "fixed" (0) 0x1643.7-0x1643.7 (0.1)
0x1640|            79                                 |    y           |            block_size: 0b111 (end of header (16 bit)) 0x1644-0x1644.3 (0.4)
0x1640|            79                                 |    y           |            sample_rate: 44100 (0b1001) 0x1644.4-0x1644.7 (0.4)
0x1640|               08                              |     .          |            channel_assignment: 1 (0) (mono) 0x1645-0x1645.3 (0.4)
0x1640|               08                              |     .          |            sample_size: 16 (0b100) 0x1645.4-0x1645.6 (0.3)
0x1640|               08                              |     .          |            reserved1: 0 (valid) 0x1645.7-0x1645.7 (0.1)
      |                                               |                |            end_of_header{}: 0x1646-0x1648.7 (3)
0x1640|                  00                           |      .         |              frame_number: 0 0x1646-0x1646.7 (1)
0x1640|                     08 9c                     |       ..       |              block_size: 2205 0x1647-0x1648.7 (2)
0x1640|                           14                  |         .      |            crc: 0x14 (valid) 0x1649-0x1649.7 (1)
      |                                               |                |          subframes[0:1]: 0x164a-0x1899.1 (591.2)
      |                                               |                |            [0]{}: subframe 0x164a-0x1899.1 (591.2)
0x1640|                              4a               |          J     |              zero_bit: 0 (valid) 0x164a-0x164a (0.1)
0x1640|                              4a               |          J     |              subframe_type: "lpc" (0b100101) 0x164a.1-0x164a.6 (0.6)
      |                                               |                |              lpc_order: 6
0x1640|                              4a               |          J     |              wasted_bits_flag: 0 0x164a.7-0x164a.7 (0.1)
      |                                               |                |              subframe_sample_size: 16
      |                                               |                |              warmup_samples[0:6]: 0x164b-0x1656.7 (12)
0x1640|                                 00 00         |           ..   |                [0]: 0 value 0x164b-0x164c.7 (2)
0x1640|                                       01 00   |             .. |                [1]: 256 value 0x164d-0x164e.7 (2)
0x1640|                                             01|               .|                [2]: 511 value 0x164f-0x1650.7 (2)
0x1650|ff                                             |.               |
0x1650|   02 fd                                       | ..             |                [3]: 765 value 0x1651-0x1652.7 (2)
0x1650|         03 f8                                 |   ..           |                [4]: 1016 value 0x1653-0x1654.7 (2)
0x1650|               04 ee                           |     ..         |                [5]: 1262 value 0x1655-0x1656.7 (2)
0x1650|                     e7                        |       .        |              precision: 15 0x1657-0x1657.3 (0.4)
0x1650|                     e7 32                     |       .2       |              shift: 14 0x1657.4-0x1658 (0.5)
      |                                               |                |              coefficients[0:6]: 0x1658.1-0x1663.2 (11.2)
0x1650|                        32 5e                  |        2^      |                [0]: 12894 value 0x1658.1-0x1659.7 (1.7)
0x1650|                              37 ca            |          7.    |                [1]: 7141 value 0x165a-0x165b.6 (1.7)
0x1650|                                 ca 2a f7      |           .*.  |                [2]: 2749 value 0x165b.7-0x165d.5 (1.7)
0x1650|                                       f7 eb e7|             ...|                [3]: -644 value 0x165d.6-0x165f.4 (1.7)
0x1650|                                             e7|               .|                [4]: -2605 value 0x165f.5-0x1661.3 (1.7)
0x1660|5d 3e                                          |]>              |
0x1660|   3e 56 20                                    | >V             |                [5]: -3407 value 0x1661.4-0x1663.2 (1.7)
0x1660|         20                                    |                |              residual_coding_method: 4 (0) (rice) 0x1663.3-0x1663.4 (0.2)
0x1660|         20 01                                 |    .           |              partition_order: 0 0x1663.5-0x1664 (0.4)
      |                                               |                |              rice_partitions: 1
      |                                               |                |              partitions[0:1]: 0x1664.1-0x1899.1 (565.1)
      |                                               |                |                [0]{}: partition 0x1664.1-0x1899.1 (565.1)
      |                                               |                |                  count: 2199
0x1660|            01                                 |    .           |                  rice_parameter: 0 0x1664.1-0x1664.4 (0.4)
0x1660|            01 39 24 ce 12 64 92 49 39 9e 73 84|    .9$..d.I9.s.|                  samples: raw bits 0x1664.5-0x1899.1 (564.5)
0x1670|d3 39 2c ce 49 29 f3 e7 e6 4e 4f 27 84 93 92 72|.9,.I)...NO'...r|
*     |until 0x1899.1 (565)                           |                |
0x1890|                           c0                  |         .      |          byte_align: 0 (valid) 0x1899.2-0x1899.7 (0.6)
0x1890|                              7b 66            |          {f    |          footer_crc: "7b66" (raw bits) (valid) 0x189a-0x189b.7 (2)
      |                                               |                |        [1]: raw bits sample 0x18a4-NA (0)
      |                                               |                |      type: "auds"
      |                                               |                |      handler: "\x01\x00\x00\x00"
      |                                               |                |      format_tag: "flac" (61868)
