# ffmpeg -f lavfi -i sine -t 50ms -c:a pcm_16le -f avi pcm.avi
$ fq dv pcm.avi
      |00 01 02 03 04 05 06 07 08 09 0a 0b 0c 0d 0e 0f|0123456789abcdef|.{}: pcm.avi (avi) 0x0-0x3909.7 (14602)
0x0000|52 49 46 46                                    |RIFF            |  id: "RIFF" 0x0-0x3.7 (4)
0x0000|            02 39 00 00                        |    .9..        |  size: 14594 0x4-0x7.7 (4)
0x0000|                        41 56 49 20            |        AVI     |  type: "AVI " (valid) 0x8-0xb.7 (4)
      |                                               |                |  chunks[0:5]: 0xc-0x3909.7 (14590)
      |                                               |                |    [0]{}: chunk 0xc-0x11e7.7 (4572)
0x0000|                                    4c 49 53 54|            LIST|      id: "LIST" (Chunk list) 0xc-0xf.7 (4)
0x0010|d4 11 00 00                                    |....            |      size: 4564 0x10-0x13.7 (4)
0x0010|            68 64 72 6c                        |    hdrl        |      type: "hdrl" (AVI main list) 0x14-0x17.7 (4)
      |                                               |                |      chunks[0:3]: 0x18-0x11e7.7 (4560)
      |                                               |                |        [0]{}: chunk 0x18-0x57.7 (64)
0x0010|                        61 76 69 68            |        avih    |          id: "avih" (AVI main header) 0x18-0x1b.7 (4)
0x0010|                                    38 00 00 00|            8...|          size: 56 0x1c-0x1f.7 (4)
0x0020|00 00 00 00                                    |....            |          micro_sec_per_frame: 0 0x20-0x23.7 (4)
0x0020|            88 58 01 00                        |    .X..        |          max_bytes_per_sec: 88200 0x24-0x27.7 (4)
0x0020|                        00 00 00 00            |        ....    |          padding_granularity: 0 0x28-0x2b.7 (4)
      |                                               |                |          flags{}: 0x2c-0x2f.7 (4)
0x0020|                                    10         |            .   |            unused0: raw bits 0x2c-0x2c.1 (0.2)
0x0020|                                    10         |            .   |            must_use_index: false 0x2c.2-0x2c.2 (0.1)
0x0020|                                    10         |            .   |            has_index: true 0x2c.3-0x2c.3 (0.1)
0x0020|                                    10 09      |            ..  |            unused1: raw bits 0x2c.4-0x2d.3 (1)
0x0020|                                       09      |             .  |            trust_ck_type: true 0x2d.4-0x2d.4 (0.1)
0x0020|                                       09      |             .  |            unused2: raw bits 0x2d.5-0x2d.6 (0.2)
0x0020|                                       09      |             .  |            is_interleaved: true 0x2d.7-0x2d.7 (0.1)
0x0020|                                          00   |              . |            unused3: raw bits 0x2e-0x2e.5 (0.6)
0x0020|                                          00   |              . |            copyrighted: false 0x2e.6-0x2e.6 (0.1)
0x0020|                                          00   |              . |            was_capture_file: false 0x2e.7-0x2e.7 (0.1)
0x0020|                                             00|               .|            unused4: raw bits 0x2f-0x2f.7 (1)
0x0030|00 00 00 00                                    |....            |          total_frames: 0 0x30-0x33.7 (4)
0x0030|            00 00 00 00                        |    ....        |          initial_frames: 0 0x34-0x37.7 (4)
0x0030|                        01 00 00 00            |        ....    |          streams: 1 0x38-0x3b.7 (4)
0x0030|                                    00 00 10 00|            ....|          suggested_buffer_size: 1048576 0x3c-0x3f.7 (4)
0x0040|00 00 00 00                                    |....            |          width: 0 0x40-0x43.7 (4)
0x0040|            00 00 00 00                        |    ....        |          height: 0 0x44-0x47.7 (4)
0x0040|                        00 00 00 00 00 00 00 00|        ........|          reserved: raw bits 0x48-0x57.7 (16)
0x0050|00 00 00 00 00 00 00 00                        |........        |
      |                                               |                |        [1]{}: chunk 0x58-0x10db.7 (4228)
0x0050|                        4c 49 53 54            |        LIST    |          id: "LIST" (Chunk list) 0x58-0x5b.7 (4)
0x0050|                                    7c 10 00 00|            |...|          size: 4220 0x5c-0x5f.7 (4)
0x0060|73 74 72 6c                                    |strl            |          type: "strl" (Stream list) 0x60-0x63.7 (4)
      |                                               |                |          chunks[0:3]: 0x64-0x10db.7 (4216)
      |                                               |                |            [0]{}: chunk 0x64-0xa3.7 (64)
0x0060|            73 74 72 68                        |    strh        |              id: "strh" (Stream header) 0x64-0x67.7 (4)
0x0060|                        38 00 00 00            |        8...    |              size: 56 0x68-0x6b.7 (4)
0x0060|                                    61 75 64 73|            auds|              type: "auds" (Audio stream) 0x6c-0x6f.7 (4)
0x0070|01 00 00 00                                    |....            |              handler: "\x01\x00\x00\x00" 0x70-0x73.7 (4)
      |                                               |                |              flags{}: 0x74-0x77.7 (4)
0x0070|            00                                 |    .           |                unused0: raw bits 0x74-0x74.6 (0.7)
0x0070|            00                                 |    .           |                disabled: false 0x74.7-0x74.7 (0.1)
0x0070|               00 00                           |     ..         |                unused1: raw bits 0x75-0x76.6 (1.7)
0x0070|                  00                           |      .         |                pal_changes: false 0x76.7-0x76.7 (0.1)
0x0070|                     00                        |       .        |                unused2: raw bits 0x77-0x77.7 (1)
0x0070|                        00 00                  |        ..      |              priority: 0 0x78-0x79.7 (2)
0x0070|                              00 00            |          ..    |              language: 0 0x7a-0x7b.7 (2)
0x0070|                                    00 00 00 00|            ....|              initial_frames: 0 0x7c-0x7f.7 (4)
0x0080|01 00 00 00                                    |....            |              scale: 1 0x80-0x83.7 (4)
0x0080|            44 ac 00 00                        |    D...        |              rate: 44100 0x84-0x87.7 (4)
0x0080|                        00 00 00 00            |        ....    |              start: 0 0x88-0x8b.7 (4)
0x0080|                                    3a 11 00 00|            :...|              length: 4410 0x8c-0x8f.7 (4)
0x0090|00 08 00 00                                    |....            |              suggested_buffer_size: 2048 0x90-0x93.7 (4)
0x0090|            ff ff ff ff                        |    ....        |              quality: 4294967295 0x94-0x97.7 (4)
0x0090|                        02 00 00 00            |        ....    |              sample_size: 2 0x98-0x9b.7 (4)
      |                                               |                |              frame{}: 0x9c-0xa3.7 (8)
0x0090|                                    00 00      |            ..  |                left: 0 0x9c-0x9d.7 (2)
0x0090|                                          00 00|              ..|                top: 0 0x9e-0x9f.7 (2)
0x00a0|00 00                                          |..              |                right: 0 0xa0-0xa1.7 (2)
0x00a0|      00 00                                    |  ..            |                bottom: 0 0xa2-0xa3.7 (2)
      |                                               |                |            [1]{}: chunk 0xa4-0xbb.7 (24)
0x00a0|            73 74 72 66                        |    strf        |              id: "strf" (Stream format) 0xa4-0xa7.7 (4)
0x00a0|                        10 00 00 00            |        ....    |              size: 16 0xa8-0xab.7 (4)
0x00a0|                                    01 00      |            ..  |              format_tag: "pcm_s16le" (1) 0xac-0xad.7 (2)
0x00a0|                                          01 00|              ..|              channels: 1 0xae-0xaf.7 (2)
0x00b0|44 ac 00 00                                    |D...            |              samples_per_sec: 44100 0xb0-0xb3.7 (4)
0x00b0|            88 58 01 00                        |    .X..        |              avg_bytes_per_sec: 88200 0xb4-0xb7.7 (4)
0x00b0|                        02 00                  |        ..      |              block_align: 2 0xb8-0xb9.7 (2)
0x00b0|                              10 00            |          ..    |              bits_per_sample: 16 0xba-0xbb.7 (2)
      |                                               |                |            [2]{}: chunk 0xbc-0x10db.7 (4128)
0x00b0|                                    4a 55 4e 4b|            JUNK|              id: "JUNK" (Alignment) 0xbc-0xbf.7 (4)
0x00c0|18 10 00 00                                    |....            |              size: 4120 0xc0-0xc3.7 (4)
0x00c0|            04 00 00 00 00 00 00 00 30 30 77 62|    ........00wb|              data: raw bits 0xc4-0x10db.7 (4120)
0x00d0|00 00 00 00 00 00 00 00 00 00 00 00 00 00 00 00|................|
*     |until 0x10db.7 (4120)                          |                |
      |                                               |                |        [2]{}: chunk 0x10dc-0x11e7.7 (268)
0x10d0|                                    4a 55 4e 4b|            JUNK|          id: "JUNK" (Alignment) 0x10dc-0x10df.7 (4)
0x10e0|04 01 00 00                                    |....            |          size: 260 0x10e0-0x10e3.7 (4)
0x10e0|            6f 64 6d 6c 64 6d 6c 68 f8 00 00 00|    odmldmlh....|          data: raw bits 0x10e4-0x11e7.7 (260)
0x10f0|00 00 00 00 00 00 00 00 00 00 00 00 00 00 00 00|................|
*     |until 0x11e7.7 (260)                           |                |
      |                                               |                |    [1]{}: chunk 0x11e8-0x1209.7 (34)
0x11e0|                        4c 49 53 54            |        LIST    |      id: "LIST" (Chunk list) 0x11e8-0x11eb.7 (4)
0x11e0|                                    1a 00 00 00|            ....|      size: 26 0x11ec-0x11ef.7 (4)
0x11f0|49 4e 46 4f                                    |INFO            |      type: "INFO" 0x11f0-0x11f3.7 (4)
      |                                               |                |      chunks[0:1]: 0x11f4-0x1209.7 (22)
      |                                               |                |        [0]{}: chunk 0x11f4-0x1209.7 (22)
0x11f0|            49 53 46 54                        |    ISFT        |          id: "ISFT" (Software. Identifies the name of the software package used to create the file) 0x11f4-0x11f7.7 (4)
0x11f0|                        0e 00 00 00            |        ....    |          size: 14 0x11f8-0x11fb.7 (4)
0x11f0|                                    4c 61 76 66|            Lavf|          value: "Lavf58.76.100" 0x11fc-0x1209.7 (14)
0x1200|35 38 2e 37 36 2e 31 30 30 00                  |58.76.100.      |
      |                                               |                |    [2]{}: chunk 0x120a-0x1609.7 (1024)
0x1200|                              4a 55 4e 4b      |          JUNK  |      id: "JUNK" (Alignment) 0x120a-0x120d.7 (4)
0x1200|                                          f8 03|              ..|      size: 1016 0x120e-0x1211.7 (4)
0x1210|00 00                                          |..              |
0x1210|      00 00 00 00 00 00 00 00 00 00 00 00 00 00|  ..............|      data: raw bits 0x1212-0x1609.7 (1016)
0x1220|00 00 00 00 00 00 00 00 00 00 00 00 00 00 00 00|................|
*     |until 0x1609.7 (1016)                          |                |
      |                                               |                |    [3]{}: chunk 0x160a-0x38b1.7 (8872)
0x1600|                              4c 49 53 54      |          LIST  |      id: "LIST" (Chunk list) 0x160a-0x160d.7 (4)
0x1600|                                          a0 22|              ."|      size: 8864 0x160e-0x1611.7 (4)
0x1610|00 00                                          |..              |
0x1610|      6d 6f 76 69                              |  movi          |      type: "movi" (Stream Data) 0x1612-0x1615.7 (4)
      |                                               |                |      chunks[0:5]: 0x1616-0x38b1.7 (8860)
      |                                               |                |        [0]{}: chunk 0x1616-0x1e1d.7 (2056)
0x1610|                  30 30 77 62                  |      00wb      |          id: "00wb" 0x1616-0x1619.7 (4)
      |                                               |                |          stream_type: "wb" (Audio data) 0x161a-NA (0)
      |                                               |                |          stream_nr: 0 0x161a-NA (0)
0x1610|                              00 08 00 00      |          ....  |          size: 2048 0x161a-0x161d.7 (4)
0x1610|                                          00 00|              ..|          data: raw bits 0x161e-0x1e1d.7 (2048)
0x1620|00 01 ff 01 fd 02 f8 03 ee 04 e0 05 cc 06 b0 07|................|
*     |until 0x1e1d.7 (2048)                          |                |
      |                                               |                |        [1]{}: chunk 0x1e1e-0x2625.7 (2056)
0x1e10|                                          30 30|              00|          id: "00wb" 0x1e1e-0x1e21.7 (4)
0x1e20|77 62                                          |wb              |
      |                                               |                |          stream_type: "wb" (Audio data) 0x1e22-NA (0)
      |                                               |                |          stream_nr: 0 0x1e22-NA (0)
0x1e20|      00 08 00 00                              |  ....          |          size: 2048 0x1e22-0x1e25.7 (4)
0x1e20|                  a6 0f d3 0f f1 0f fe 0f fc 0f|      ..........|          data: raw bits 0x1e26-0x2625.7 (2048)
0x1e30|e9 0f c6 0f 93 0f 51 0f ff 0e 9e 0e 2f 0e b1 0d|......Q...../...|
*     |until 0x2625.7 (2048)                          |                |
      |                                               |                |        [2]{}: chunk 0x2626-0x2e2d.7 (2056)
0x2620|                  30 30 77 62                  |      00wb      |          id: "00wb" 0x2626-0x2629.7 (4)
      |                                               |                |          stream_type: "wb" (Audio data) 0x262a-NA (0)
      |                                               |                |          stream_nr: 0 0x262a-NA (0)
0x2620|                              00 08 00 00      |          ....  |          size: 2048 0x262a-0x262d.7 (4)
0x2620|                                          7d 06|              }.|          data: raw bits 0x262e-0x2e2d.7 (2048)
0x2630|8f 05 9c 04 a4 03 a8 02 aa 01 aa 00 a9 ff a8 fe|................|
*     |until 0x2e2d.7 (2048)                          |                |
      |                                               |                |        [3]{}: chunk 0x2e2e-0x3635.7 (2056)
0x2e20|                                          30 30|              00|          id: "00wb" 0x2e2e-0x2e31.7 (4)
0x2e30|77 62                                          |wb              |
      |                                               |                |          stream_type: "wb" (Audio data) 0x2e32-NA (0)
      |                                               |                |          stream_nr: 0 0x2e32-NA (0)
0x2e30|      00 08 00 00                              |  ....          |          size: 2048 0x2e32-0x2e35.7 (4)
0x2e30|                  0a f3 7a f2 f8 f1 84 f1 1e f1|      ..z.......|          data: raw bits 0x2e36-0x3635.7 (2048)
0x2e40|c8 f0 80 f0 49 f0 21 f0 09 f0 01 f0 09 f0 21 f0|....I.!.......!.|
*     |until 0x3635.7 (2048)                          |                |
      |                                               |                |        [4]{}: chunk 0x3636-0x38b1.7 (636)
0x3630|                  30 30 77 62                  |      00wb      |          id: "00wb" 0x3636-0x3639.7 (4)
      |                                               |                |          stream_type: "wb" (Audio data) 0x363a-NA (0)
      |                                               |                |          stream_nr: 0 0x363a-NA (0)
0x3630|                              74 02 00 00      |          t...  |          size: 628 0x363a-0x363d.7 (4)
0x3630|                                          24 f4|              $.|          data: raw bits 0x363e-0x38b1.7 (628)
0x3640|d6 f4 94 f5 5c f6 2d f7 08 f8 ea f8 d4 f9 c4 fa|....\.-.........|
*     |until 0x38b1.7 (628)                           |                |
      |                                               |                |    [4]{}: chunk 0x38b2-0x3909.7 (88)
0x38b0|      69 64 78 31                              |  idx1          |      id: "idx1" (Index) 0x38b2-0x38b5.7 (4)
0x38b0|                  50 00 00 00                  |      P...      |      size: 80 0x38b6-0x38b9.7 (4)
      |                                               |                |      indexes[0:5]: 0x38ba-0x3909.7 (80)
      |                                               |                |        [0]{}: index 0x38ba-0x38c9.7 (16)
0x38b0|                              30 30 77 62      |          00wb  |          id: "00wb" 0x38ba-0x38bd.7 (4)
      |                                               |                |          stream_type: "wb" (Audio data) 0x38be-NA (0)
      |                                               |                |          stream_nr: 0 0x38be-NA (0)
      |                                               |                |          flags{}: 0x38be-0x38c1.7 (4)
0x38b0|                                          10   |              . |            unused0: raw bits 0x38be-0x38be.2 (0.3)
0x38b0|                                          10   |              . |            key_frame: true 0x38be.3-0x38be.3 (0.1)
0x38b0|                                          10   |              . |            unused1: raw bits 0x38be.4-0x38be.6 (0.3)
0x38b0|                                          10   |              . |            list: false 0x38be.7-0x38be.7 (0.1)
0x38b0|                                             00|               .|            unused2: raw bits 0x38bf-0x38c1.7 (3)
0x38c0|00 00                                          |..              |
0x38c0|      04 00 00 00                              |  ....          |          offset: 4 0x38c2-0x38c5.7 (4)
0x38c0|                  00 08 00 00                  |      ....      |          length: 2048 0x38c6-0x38c9.7 (4)
      |                                               |                |        [1]{}: index 0x38ca-0x38d9.7 (16)
0x38c0|                              30 30 77 62      |          00wb  |          id: "00wb" 0x38ca-0x38cd.7 (4)
      |                                               |                |          stream_type: "wb" (Audio data) 0x38ce-NA (0)
      |                                               |                |          stream_nr: 0 0x38ce-NA (0)
      |                                               |                |          flags{}: 0x38ce-0x38d1.7 (4)
0x38c0|                                          10   |              . |            unused0: raw bits 0x38ce-0x38ce.2 (0.3)
0x38c0|                                          10   |              . |            key_frame: true 0x38ce.3-0x38ce.3 (0.1)
0x38c0|                                          10   |              . |            unused1: raw bits 0x38ce.4-0x38ce.6 (0.3)
0x38c0|                                          10   |              . |            list: false 0x38ce.7-0x38ce.7 (0.1)
0x38c0|                                             00|               .|            unused2: raw bits 0x38cf-0x38d1.7 (3)
0x38d0|00 00                                          |..              |
0x38d0|      0c 08 00 00                              |  ....          |          offset: 2060 0x38d2-0x38d5.7 (4)
0x38d0|                  00 08 00 00                  |      ....      |          length: 2048 0x38d6-0x38d9.7 (4)
      |                                               |                |        [2]{}: index 0x38da-0x38e9.7 (16)
0x38d0|                              30 30 77 62      |          00wb  |          id: "00wb" 0x38da-0x38dd.7 (4)
      |                                               |                |          stream_type: "wb" (Audio data) 0x38de-NA (0)
      |                                               |                |          stream_nr: 0 0x38de-NA (0)
      |                                               |                |          flags{}: 0x38de-0x38e1.7 (4)
0x38d0|                                          10   |              . |            unused0: raw bits 0x38de-0x38de.2 (0.3)
0x38d0|                                          10   |              . |            key_frame: true 0x38de.3-0x38de.3 (0.1)
0x38d0|                                          10   |              . |            unused1: raw bits 0x38de.4-0x38de.6 (0.3)
0x38d0|                                          10   |              . |            list: false 0x38de.7-0x38de.7 (0.1)
0x38d0|                                             00|               .|            unused2: raw bits 0x38df-0x38e1.7 (3)
0x38e0|00 00                                          |..              |
0x38e0|      14 10 00 00                              |  ....          |          offset: 4116 0x38e2-0x38e5.7 (4)
0x38e0|                  00 08 00 00                  |      ....      |          length: 2048 0x38e6-0x38e9.7 (4)
      |                                               |                |        [3]{}: index 0x38ea-0x38f9.7 (16)
0x38e0|                              30 30 77 62      |          00wb  |          id: "00wb" 0x38ea-0x38ed.7 (4)
      |                                               |                |          stream_type: "wb" (Audio data) 0x38ee-NA (0)
      |                                               |                |          stream_nr: 0 0x38ee-NA (0)
      |                                               |                |          flags{}: 0x38ee-0x38f1.7 (4)
0x38e0|                                          10   |              . |            unused0: raw bits 0x38ee-0x38ee.2 (0.3)
0x38e0|                                          10   |              . |            key_frame: true 0x38ee.3-0x38ee.3 (0.1)
0x38e0|                                          10   |              . |            unused1: raw bits 0x38ee.4-0x38ee.6 (0.3)
0x38e0|                                          10   |              . |            list: false 0x38ee.7-0x38ee.7 (0.1)
0x38e0|                                             00|               .|            unused2: raw bits 0x38ef-0x38f1.7 (3)
0x38f0|00 00                                          |..              |
0x38f0|      1c 18 00 00                              |  ....          |          offset: 6172 0x38f2-0x38f5.7 (4)
0x38f0|                  00 08 00 00                  |      ....      |          length: 2048 0x38f6-0x38f9.7 (4)
      |                                               |                |        [4]{}: index 0x38fa-0x3909.7 (16)
0x38f0|                              30 30 77 62      |          00wb  |          id: "00wb" 0x38fa-0x38fd.7 (4)
      |                                               |                |          stream_type: "wb" (Audio data) 0x38fe-NA (0)
      |                                               |                |          stream_nr: 0 0x38fe-NA (0)
      |                                               |                |          flags{}: 0x38fe-0x3901.7 (4)
0x38f0|                                          10   |              . |            unused0: raw bits 0x38fe-0x38fe.2 (0.3)
0x38f0|                                          10   |              . |            key_frame: true 0x38fe.3-0x38fe.3 (0.1)
0x38f0|                                          10   |              . |            unused1: raw bits 0x38fe.4-0x38fe.6 (0.3)
0x38f0|                                          10   |              . |            list: false 0x38fe.7-0x38fe.7 (0.1)
0x38f0|                                             00|               .|            unused2: raw bits 0x38ff-0x3901.7 (3)
0x3900|00 00                                          |..              |
0x3900|      24 20 00 00                              |  $ ..          |          offset: 8228 0x3902-0x3905.7 (4)
0x3900|                  74 02 00 00|                 |      t...|     |          length: 628 0x3906-0x3909.7 (4)
      |                                               |                |  streams[0:1]: 0x161e-0x38b1.7 (8852)
      |                                               |                |    [0]{}: stream 0x161e-0x38b1.7 (8852)
      |                                               |                |      samples[0:5]: 0x161e-0x38b1.7 (8852)
0x1610|                                          00 00|              ..|        [0]: raw bits sample 0x161e-0x1e1d.7 (2048)
0x1620|00 01 ff 01 fd 02 f8 03 ee 04 e0 05 cc 06 b0 07|................|
*     |until 0x1e1d.7 (2048)                          |                |
0x1e20|                  a6 0f d3 0f f1 0f fe 0f fc 0f|      ..........|        [1]: raw bits sample 0x1e26-0x2625.7 (2048)
0x1e30|e9 0f c6 0f 93 0f 51 0f ff 0e 9e 0e 2f 0e b1 0d|......Q...../...|
*     |until 0x2625.7 (2048)                          |                |
0x2620|                                          7d 06|              }.|        [2]: raw bits sample 0x262e-0x2e2d.7 (2048)
0x2630|8f 05 9c 04 a4 03 a8 02 aa 01 aa 00 a9 ff a8 fe|................|
*     |until 0x2e2d.7 (2048)                          |                |
0x2e30|                  0a f3 7a f2 f8 f1 84 f1 1e f1|      ..z.......|        [3]: raw bits sample 0x2e36-0x3635.7 (2048)
0x2e40|c8 f0 80 f0 49 f0 21 f0 09 f0 01 f0 09 f0 21 f0|....I.!.......!.|
*     |until 0x3635.7 (2048)                          |                |
0x3630|                                          24 f4|              $.|        [4]: raw bits sample 0x363e-0x38b1.7 (628)
0x3640|d6 f4 94 f5 5c f6 2d f7 08 f8 ea f8 d4 f9 c4 fa|....\.-.........|
*     |until 0x38b1.7 (628)                           |                |
