# fq 'first(.. | select(format=="udp")) | tobytes' many_interfaces.pcapng > udp_datagram
$ fq -d udp_datagram dv udp_datagram
    |00 01 02 03 04 05 06 07 08 09 0a 0b 0c 0d 0e 0f|0123456789abcdef|.{}: udp_datagram (udp_datagram) 0x0-0x90 (144)
0x00|44 5c                                          |D\              |  source_port: 17500 0x0-0x2 (2)
0x00|      44 5c                                    |  D\            |  destination_port: 17500 0x2-0x4 (2)
0x00|            00 90                              |    ..          |  length: 144 0x4-0x6 (2)
0x00|                  ba 03                        |      ..        |  checksum: 0xba03 0x6-0x8 (2)
0x00|                        7b 22 68 6f 73 74 5f 69|        {"host_i|  payload: raw bits 0x8-0x90 (136)
0x10|6e 74 22 3a 20 34 30 39 34 35 31 34 34 38 33 2c|nt": 4094514483,|
*   |until 0x8f.7 (end) (136)                       |                |
