$ fq -d pg_heap -o flavour=postgres10 ".[0].pd_linp[0,-1] | dv" 16396
    |00 01 02 03 04 05 06 07 08 09 0a 0b 0c 0d 0e 0f|0123456789abcdef|.[0].pd_linp[0]{}: item_id 0x18-0x1b.7 (4)
0x10|                        80 9f f2 00            |        ....    |  item_id_data: 15900544 0x18-0x1b.7 (4)
    |                                               |                |  lp_off: 8064 0x1c-NA (0)
    |                                               |                |  lp_flags: "LP_NORMAL" (1) 0x1c-NA (0)
    |                                               |                |  lp_len: 121 0x1c-NA (0)
     |00 01 02 03 04 05 06 07 08 09 0a 0b 0c 0d 0e 0f|0123456789abcdef|.[0].pd_linp[75]{}: item_id 0x144-0x147.7 (4)
0x140|            80 82 f2 00                        |    ....        |  item_id_data: 15893120 0x144-0x147.7 (4)
     |                                               |                |  lp_off: 640 0x148-NA (0)
     |                                               |                |  lp_flags: "LP_NORMAL" (1) 0x148-NA (0)
     |                                               |                |  lp_len: 121 0x148-NA (0)
