$ fq -d pg_heap -o flavour=postgres10 ".[0].pd_linp[0,-1] | dv" 16407
    |00 01 02 03 04 05 06 07 08 09 0a 0b 0c 0d 0e 0f|0123456789abcdef|.[0].pd_linp[0]{}: item_id 0x18-0x1c (4)
0x10|                        d0 9f 60 00            |        ..`.    |  item_id_data: 6332368 0x18-0x1c (4)
    |                                               |                |  lp_off: 8144
    |                                               |                |  lp_flags: "LP_NORMAL" (1)
    |                                               |                |  lp_len: 48
     |00 01 02 03 04 05 06 07 08 09 0a 0b 0c 0d 0e 0f|0123456789abcdef|.[0].pd_linp[156]{}: item_id 0x288-0x28c (4)
0x280|                        90 82 60 00            |        ..`.    |  item_id_data: 6324880 0x288-0x28c (4)
     |                                               |                |  lp_off: 656
     |                                               |                |  lp_flags: "LP_NORMAL" (1)
     |                                               |                |  lp_len: 48
