$ fq -d pg_control -o flavour=postgres10 dv pg_control
      |00 01 02 03 04 05 06 07 08 09 0a 0b 0c 0d 0e 0f|0123456789abcdef|.{}: pg_control (pg_control) 0x0-0x2000 (8192)
0x0000|4c 79 b0 59 c5 4b 3c 63                        |Ly.Y.K<c        |  system_identifier: 7150673619342883148 0x0-0x8 (8)
0x0000|                        ea 03 00 00            |        ....    |  pg_control_version: 1002 0x8-0xc (4)
0x0000|                                    cb ce 05 0c|            ....|  catalog_version_no: 201707211 0xc-0x10 (4)
0x0010|06 00 00 00                                    |....            |  state: "DB_IN_PRODUCTION" (6) 0x10-0x14 (4)
0x0010|            00 00 00 00                        |    ....        |  hole0: 0 0x14-0x18 (4)
0x0010|                        9d 56 3c 63 00 00 00 00|        .V<c....|  time: "Tue, 04 Oct 2022 15:51:57 UTC" (1664898717) 0x18-0x20 (8)
0x0020|10 e2 ed 02 00 00 00 00                        |........        |  check_point: "0/2EDE210" (49144336) 0x20-0x28 (8)
0x0020|                        70 c1 ed 02 00 00 00 00|        p.......|  prev_check_point: "0/2EDC170" (49135984) 0x28-0x30 (8)
      |                                               |                |  check_point_copy{}: 0x30-0x80 (80)
0x0030|d8 e1 ed 02 00 00 00 00                        |........        |    redo: "0/2EDE1D8" (49144280) 0x30-0x38 (8)
0x0030|                        01 00 00 00            |        ....    |    this_time_line_id: 1 0x38-0x3c (4)
0x0030|                                    01 00 00 00|            ....|    prev_time_line_id: 1 0x3c-0x40 (4)
0x0040|01                                             |.               |    full_page_writes: 1 0x40-0x41 (1)
0x0040|   00 00 00                                    | ...            |    hole1: 0 0x41-0x44 (3)
0x0040|            00 00 00 00                        |    ....        |    next_xid_epoch: 0 0x44-0x48 (4)
0x0040|                        62 78 00 00            |        bx..    |    next_xid: 30818 0x48-0x4c (4)
0x0040|                                    00 60 00 00|            .`..|    next_oid: 24576 0x4c-0x50 (4)
0x0050|01 00 00 00                                    |....            |    next_multi: 1 0x50-0x54 (4)
0x0050|            00 00 00 00                        |    ....        |    next_multi_offset: 0 0x54-0x58 (4)
0x0050|                        24 02 00 00            |        $...    |    oldest_xid: 548 0x58-0x5c (4)
0x0050|                                    01 00 00 00|            ....|    oldest_xid_db: 1 0x5c-0x60 (4)
0x0060|01 00 00 00                                    |....            |    oldest_multi: 1 0x60-0x64 (4)
0x0060|            01 00 00 00                        |    ....        |    oldest_multi_db: 1 0x64-0x68 (4)
0x0060|                        9d 56 3c 63 00 00 00 00|        .V<c....|    time: "Tue, 04 Oct 2022 15:51:57 UTC" (1664898717) 0x68-0x70 (8)
0x0070|00 00 00 00                                    |....            |    oldest_commit_ts_xid: 0 0x70-0x74 (4)
0x0070|            00 00 00 00                        |    ....        |    newest_commit_ts_xid: 0 0x74-0x78 (4)
0x0070|                        62 78 00 00            |        bx..    |    oldest_active_xid: 30818 0x78-0x7c (4)
0x0070|                                    00 00 00 00|            ....|    padding0: 0 0x7c-0x80 (4)
0x0080|01 00 00 00 00 00 00 00                        |........        |  unlogged_lsn: "0/1" (1) 0x80-0x88 (8)
0x0080|                        00 00 00 00 00 00 00 00|        ........|  min_recovery_point: "0/0" (0) 0x88-0x90 (8)
0x0090|00 00 00 00                                    |....            |  min_recovery_point_tli: 0 0x90-0x94 (4)
0x0090|            00 00 00 00                        |    ....        |  hole2: 0 0x94-0x98 (4)
0x0090|                        00 00 00 00 00 00 00 00|        ........|  backup_start_point: "0/0" (0) 0x98-0xa0 (8)
0x00a0|00 00 00 00 00 00 00 00                        |........        |  backup_end_point: "0/0" (0) 0xa0-0xa8 (8)
0x00a0|                        00                     |        .       |  backup_end_required: 0 0xa8-0xa9 (1)
0x00a0|                           00 00 00            |         ...    |  hole3: 0 0xa9-0xac (3)
0x00a0|                                    01 00 00 00|            ....|  wal_level: "WAL_LEVEL_REPLICA" (1) 0xac-0xb0 (4)
0x00b0|00                                             |.               |  wal_log_hints: 0 0xb0-0xb1 (1)
0x00b0|   00 00 00                                    | ...            |  hole4: 0 0xb1-0xb4 (3)
0x00b0|            e8 03 00 00                        |    ....        |  max_connections: 1000 0xb4-0xb8 (4)
0x00b0|                        08 00 00 00            |        ....    |  max_worker_processes: 8 0xb8-0xbc (4)
0x00b0|                                    00 00 00 00|            ....|  max_prepared_xacts: 0 0xbc-0xc0 (4)
0x00c0|40 00 00 00                                    |@...            |  max_locks_per_xact: 64 0xc0-0xc4 (4)
0x00c0|            00                                 |    .           |  track_commit_timestamp: 0 0xc4-0xc5 (1)
0x00c0|               00 00 00                        |     ...        |  hole5: 0 0xc5-0xc8 (3)
0x00c0|                        08 00 00 00            |        ....    |  max_align: 8 0xc8-0xcc (4)
0x00c0|                                    00 00 00 00|            ....|  hole6: 0 0xcc-0xd0 (4)
0x00d0|00 00 00 00 87 d6 32 41                        |......2A        |  float_format: 1.234567e+06 0xd0-0xd8 (8)
0x00d0|                        00 20 00 00            |        . ..    |  blcksz: 8192 0xd8-0xdc (4)
0x00d0|                                    00 00 02 00|            ....|  relseg_size: 131072 0xdc-0xe0 (4)
0x00e0|00 20 00 00                                    |. ..            |  xlog_blcksz: 8192 0xe0-0xe4 (4)
0x00e0|            00 00 00 01                        |    ....        |  xlog_seg_size: 16777216 0xe4-0xe8 (4)
0x00e0|                        40 00 00 00            |        @...    |  name_data_len: 64 0xe8-0xec (4)
0x00e0|                                    20 00 00 00|             ...|  index_max_keys: 32 0xec-0xf0 (4)
0x00f0|cc 07 00 00                                    |....            |  toast_max_chunk_size: 1996 0xf0-0xf4 (4)
0x00f0|            00 08 00 00                        |    ....        |  loblksize: 2048 0xf4-0xf8 (4)
0x00f0|                        01                     |        .       |  float4_by_val: 1 0xf8-0xf9 (1)
0x00f0|                           01                  |         .      |  float8_by_val: 1 0xf9-0xfa (1)
0x00f0|                              00 00            |          ..    |  hole7: 0 0xfa-0xfc (2)
0x00f0|                                    00 00 00 00|            ....|  data_checksum_version: 0 0xfc-0x100 (4)
0x0100|77 5d d6 0b 2d eb 61 b6 bb 30 a3 a2 99 5e 05 b2|w]..-.a..0...^..|  mock_authentication_nonce: "775dd60b2deb61b6bb30a3a2995e05b2cc043982a4a42ed83fa6a1d06eeeea2a" (raw bits) 0x100-0x120 (32)
0x0110|cc 04 39 82 a4 a4 2e d8 3f a6 a1 d0 6e ee ea 2a|..9.....?...n..*|
0x0120|9e 58 13 29                                    |.X.)            |  crc: 689133726 0x120-0x124 (4)
0x0120|            00 00 00 00                        |    ....        |  padding1: 0 0x124-0x128 (4)
0x0120|                        00 00 00 00 00 00 00 00|        ........|  unused: raw bits 0x128-0x2000 (7896)
0x0130|00 00 00 00 00 00 00 00 00 00 00 00 00 00 00 00|................|
*     |until 0x1fff.7 (end) (7896)                    |                |
