# message produced by https://github.com/nbd-wtf/go-nostr/blob/e9e96be95e181ccf22e3f54965440147520cea88/nip77/negentropy/whatever_test.go
$ fq -d negentropy dv bigmessagewitheverything
      |00 01 02 03 04 05 06 07 08 09 0a 0b 0c 0d 0e 0f|0123456789abcdef|.{}: bigmessagewitheverything (negentropy) 0x0-0x116d (4461)
0x0000|61                                             |a               |  version: 97 0x0-0x1 (1)
      |                                               |                |  bounds[0:199]: 0x1-0x116d (4460)
      |                                               |                |    [0]{}: bound 0x1-0x14 (19)
0x0000|   1b                                          | .              |      timestamp_delta: 26 (27) 0x1-0x2 (1)
      |                                               |                |      timestamp: 26 (1970-01-01T00:00:26Z)
0x0000|      00                                       |  .             |      id_prefix_size: 0 0x2-0x3 (1)
0x0000|         01                                    |   .            |      mode: "fingerprint" (1) 0x3-0x4 (1)
0x0000|            dd a1 66 e3 d0 b3 93 ef 35 0e 43 25|    ..f.....5.C%|      fingerprint: "dda166e3d0b393ef350e432523408dd7" (raw bits) 0x4-0x14 (16)
0x0010|23 40 8d d7                                    |#@..            |
      |                                               |                |    [1]{}: bound 0x14-0x27 (19)
0x0010|            07                                 |    .           |      timestamp_delta: 6 (7) 0x14-0x15 (1)
      |                                               |                |      timestamp: 32 (1970-01-01T00:00:32Z)
0x0010|               00                              |     .          |      id_prefix_size: 0 0x15-0x16 (1)
0x0010|                  01                           |      .         |      mode: "fingerprint" (1) 0x16-0x17 (1)
0x0010|                     76 61 14 8b 50 48 13 21 9f|       va..PH.!.|      fingerprint: "7661148b504813219fb62a1b531651de" (raw bits) 0x17-0x27 (16)
0x0020|b6 2a 1b 53 16 51 de                           |.*.S.Q.         |
      |                                               |                |    [2]{}: bound 0x27-0x3a (19)
0x0020|                     07                        |       .        |      timestamp_delta: 6 (7) 0x27-0x28 (1)
      |                                               |                |      timestamp: 38 (1970-01-01T00:00:38Z)
0x0020|                        00                     |        .       |      id_prefix_size: 0 0x28-0x29 (1)
0x0020|                           01                  |         .      |      mode: "fingerprint" (1) 0x29-0x2a (1)
0x0020|                              a1 cd 37 c2 d0 25|          ..7..%|      fingerprint: "a1cd37c2d0257af4de61ac6dc837988e" (raw bits) 0x2a-0x3a (16)
0x0030|7a f4 de 61 ac 6d c8 37 98 8e                  |z..a.m.7..      |
      |                                               |                |    [3]{}: bound 0x3a-0x4d (19)
0x0030|                              07               |          .     |      timestamp_delta: 6 (7) 0x3a-0x3b (1)
      |                                               |                |      timestamp: 44 (1970-01-01T00:00:44Z)
0x0030|                                 00            |           .    |      id_prefix_size: 0 0x3b-0x3c (1)
0x0030|                                    01         |            .   |      mode: "fingerprint" (1) 0x3c-0x3d (1)
0x0030|                                       4c 27 c4|             L'.|      fingerprint: "4c27c4f6d04f4dd806673352ea068722" (raw bits) 0x3d-0x4d (16)
0x0040|f6 d0 4f 4d d8 06 67 33 52 ea 06 87 22         |..OM..g3R..."   |
      |                                               |                |    [4]{}: bound 0x4d-0x60 (19)
0x0040|                                       07      |             .  |      timestamp_delta: 6 (7) 0x4d-0x4e (1)
      |                                               |                |      timestamp: 50 (1970-01-01T00:00:50Z)
0x0040|                                          00   |              . |      id_prefix_size: 0 0x4e-0x4f (1)
0x0040|                                             01|               .|      mode: "fingerprint" (1) 0x4f-0x50 (1)
0x0050|13 7c 18 d1 42 bd ce 9b cc 57 4b c3 91 8b 4a c0|.|..B....WK...J.|      fingerprint: "137c18d142bdce9bcc574bc3918b4ac0" (raw bits) 0x50-0x60 (16)
      |                                               |                |    [5]{}: bound 0x60-0x73 (19)
0x0060|07                                             |.               |      timestamp_delta: 6 (7) 0x60-0x61 (1)
      |                                               |                |      timestamp: 56 (1970-01-01T00:00:56Z)
0x0060|   00                                          | .              |      id_prefix_size: 0 0x61-0x62 (1)
0x0060|      01                                       |  .             |      mode: "fingerprint" (1) 0x62-0x63 (1)
0x0060|         63 bb f5 7c 1d 3c 63 92 71 ff 3c bb 0a|   c..|.<c.q.<..|      fingerprint: "63bbf57c1d3c639271ff3cbb0abaead9" (raw bits) 0x63-0x73 (16)
0x0070|ba ea d9                                       |...             |
      |                                               |                |    [6]{}: bound 0x73-0x86 (19)
0x0070|         07                                    |   .            |      timestamp_delta: 6 (7) 0x73-0x74 (1)
      |                                               |                |      timestamp: 62 (1970-01-01T00:01:02Z)
0x0070|            00                                 |    .           |      id_prefix_size: 0 0x74-0x75 (1)
0x0070|               01                              |     .          |      mode: "fingerprint" (1) 0x75-0x76 (1)
0x0070|                  64 5a 20 15 db b3 ad e5 8b 9f|      dZ .......|      fingerprint: "645a2015dbb3ade58b9f9fe12abe0822" (raw bits) 0x76-0x86 (16)
0x0080|9f e1 2a be 08 22                              |..*.."          |
      |                                               |                |    [7]{}: bound 0x86-0x99 (19)
0x0080|                  07                           |      .         |      timestamp_delta: 6 (7) 0x86-0x87 (1)
      |                                               |                |      timestamp: 68 (1970-01-01T00:01:08Z)
0x0080|                     00                        |       .        |      id_prefix_size: 0 0x87-0x88 (1)
0x0080|                        01                     |        .       |      mode: "fingerprint" (1) 0x88-0x89 (1)
0x0080|                           26 69 5b d2 7b e1 1a|         &i[.{..|      fingerprint: "26695bd27be11aabcba346e28a6ac7ce" (raw bits) 0x89-0x99 (16)
0x0090|ab cb a3 46 e2 8a 6a c7 ce                     |...F..j..       |
      |                                               |                |    [8]{}: bound 0x99-0xac (19)
0x0090|                           07                  |         .      |      timestamp_delta: 6 (7) 0x99-0x9a (1)
      |                                               |                |      timestamp: 74 (1970-01-01T00:01:14Z)
0x0090|                              00               |          .     |      id_prefix_size: 0 0x9a-0x9b (1)
0x0090|                                 01            |           .    |      mode: "fingerprint" (1) 0x9b-0x9c (1)
0x0090|                                    17 63 5d 74|            .c]t|      fingerprint: "17635d749eee3692b4f4d31e37f2090b" (raw bits) 0x9c-0xac (16)
0x00a0|9e ee 36 92 b4 f4 d3 1e 37 f2 09 0b            |..6.....7...    |
      |                                               |                |    [9]{}: bound 0xac-0xbf (19)
0x00a0|                                    07         |            .   |      timestamp_delta: 6 (7) 0xac-0xad (1)
      |                                               |                |      timestamp: 80 (1970-01-01T00:01:20Z)
0x00a0|                                       00      |             .  |      id_prefix_size: 0 0xad-0xae (1)
0x00a0|                                          01   |              . |      mode: "fingerprint" (1) 0xae-0xaf (1)
0x00a0|                                             88|               .|      fingerprint: "884fa0e7b17985b0d43dc4e59d8a5528" (raw bits) 0xaf-0xbf (16)
0x00b0|4f a0 e7 b1 79 85 b0 d4 3d c4 e5 9d 8a 55 28   |O...y...=....U( |
      |                                               |                |    [10]{}: bound 0xbf-0xd2 (19)
0x00b0|                                             07|               .|      timestamp_delta: 6 (7) 0xbf-0xc0 (1)
      |                                               |                |      timestamp: 86 (1970-01-01T00:01:26Z)
0x00c0|00                                             |.               |      id_prefix_size: 0 0xc0-0xc1 (1)
0x00c0|   01                                          | .              |      mode: "fingerprint" (1) 0xc1-0xc2 (1)
0x00c0|      4d a3 b9 23 5e 3a 2e db 6c fa 4b 3e eb 47|  M..#^:..l.K>.G|      fingerprint: "4da3b9235e3a2edb6cfa4b3eeb47d771" (raw bits) 0xc2-0xd2 (16)
0x00d0|d7 71                                          |.q              |
      |                                               |                |    [11]{}: bound 0xd2-0xe5 (19)
0x00d0|      07                                       |  .             |      timestamp_delta: 6 (7) 0xd2-0xd3 (1)
      |                                               |                |      timestamp: 92 (1970-01-01T00:01:32Z)
0x00d0|         00                                    |   .            |      id_prefix_size: 0 0xd3-0xd4 (1)
0x00d0|            01                                 |    .           |      mode: "fingerprint" (1) 0xd4-0xd5 (1)
0x00d0|               1d 24 5c ef 39 f5 3c 5d 21 82 cc|     .$\.9.<]!..|      fingerprint: "1d245cef39f53c5d2182cc14e78455b1" (raw bits) 0xd5-0xe5 (16)
0x00e0|14 e7 84 55 b1                                 |...U.           |
      |                                               |                |    [12]{}: bound 0xe5-0xf8 (19)
0x00e0|               07                              |     .          |      timestamp_delta: 6 (7) 0xe5-0xe6 (1)
      |                                               |                |      timestamp: 98 (1970-01-01T00:01:38Z)
0x00e0|                  00                           |      .         |      id_prefix_size: 0 0xe6-0xe7 (1)
0x00e0|                     01                        |       .        |      mode: "fingerprint" (1) 0xe7-0xe8 (1)
0x00e0|                        0b f5 b1 49 8f e8 6f 20|        ...I..o |      fingerprint: "0bf5b1498fe86f205b98362e29583e43" (raw bits) 0xe8-0xf8 (16)
0x00f0|5b 98 36 2e 29 58 3e 43                        |[.6.)X>C        |
      |                                               |                |    [13]{}: bound 0xf8-0x10b (19)
0x00f0|                        07                     |        .       |      timestamp_delta: 6 (7) 0xf8-0xf9 (1)
      |                                               |                |      timestamp: 104 (1970-01-01T00:01:44Z)
0x00f0|                           00                  |         .      |      id_prefix_size: 0 0xf9-0xfa (1)
0x00f0|                              01               |          .     |      mode: "fingerprint" (1) 0xfa-0xfb (1)
0x00f0|                                 b9 d4 28 1a 9f|           ..(..|      fingerprint: "b9d4281a9f6cad1e6129b20c1553121a" (raw bits) 0xfb-0x10b (16)
0x0100|6c ad 1e 61 29 b2 0c 15 53 12 1a               |l..a)...S..     |
      |                                               |                |    [14]{}: bound 0x10b-0x11e (19)
0x0100|                                 07            |           .    |      timestamp_delta: 6 (7) 0x10b-0x10c (1)
      |                                               |                |      timestamp: 110 (1970-01-01T00:01:50Z)
0x0100|                                    00         |            .   |      id_prefix_size: 0 0x10c-0x10d (1)
0x0100|                                       01      |             .  |      mode: "fingerprint" (1) 0x10d-0x10e (1)
0x0100|                                          ad ec|              ..|      fingerprint: "adecbf548009aba5ee81d3736d6ea44f" (raw bits) 0x10e-0x11e (16)
0x0110|bf 54 80 09 ab a5 ee 81 d3 73 6d 6e a4 4f      |.T.......smn.O  |
      |                                               |                |    [15]{}: bound 0x11e-0x131 (19)
0x0110|                                          06   |              . |      timestamp_delta: 5 (6) 0x11e-0x11f (1)
      |                                               |                |      timestamp: 115 (1970-01-01T00:01:55Z)
0x0110|                                             00|               .|      id_prefix_size: 0 0x11f-0x120 (1)
0x0120|01                                             |.               |      mode: "fingerprint" (1) 0x120-0x121 (1)
0x0120|   ce 07 d4 b3 d3 45 34 21 ee 9d f0 60 06 c1 b0| .....E4!...`...|      fingerprint: "ce07d4b3d3453421ee9df06006c1b068" (raw bits) 0x121-0x131 (16)
0x0130|68                                             |h               |
      |                                               |                |    [16]{}: bound 0x131-0x144 (19)
0x0130|   04                                          | .              |      timestamp_delta: 3 (4) 0x131-0x132 (1)
      |                                               |                |      timestamp: 118 (1970-01-01T00:01:58Z)
0x0130|      00                                       |  .             |      id_prefix_size: 0 0x132-0x133 (1)
0x0130|         01                                    |   .            |      mode: "fingerprint" (1) 0x133-0x134 (1)
0x0130|            71 73 c7 b7 04 e9 da fe c9 79 de 32|    qs.......y.2|      fingerprint: "7173c7b704e9dafec979de325b5c0407" (raw bits) 0x134-0x144 (16)
0x0140|5b 5c 04 07                                    |[\..            |
      |                                               |                |    [17]{}: bound 0x144-0x157 (19)
0x0140|            04                                 |    .           |      timestamp_delta: 3 (4) 0x144-0x145 (1)
      |                                               |                |      timestamp: 121 (1970-01-01T00:02:01Z)
0x0140|               00                              |     .          |      id_prefix_size: 0 0x145-0x146 (1)
0x0140|                  01                           |      .         |      mode: "fingerprint" (1) 0x146-0x147 (1)
0x0140|                     20 79 7b db 19 37 76 0c d5|        y{..7v..|      fingerprint: "20797bdb1937760cd51c471fda41d7d1" (raw bits) 0x147-0x157 (16)
0x0150|1c 47 1f da 41 d7 d1                           |.G..A..         |
      |                                               |                |    [18]{}: bound 0x157-0x16a (19)
0x0150|                     04                        |       .        |      timestamp_delta: 3 (4) 0x157-0x158 (1)
      |                                               |                |      timestamp: 124 (1970-01-01T00:02:04Z)
0x0150|                        00                     |        .       |      id_prefix_size: 0 0x158-0x159 (1)
0x0150|                           01                  |         .      |      mode: "fingerprint" (1) 0x159-0x15a (1)
0x0150|                              90 e4 5e 9b 6c 6c|          ..^.ll|      fingerprint: "90e45e9b6c6c871130a41ff4ba83a91f" (raw bits) 0x15a-0x16a (16)
0x0160|87 11 30 a4 1f f4 ba 83 a9 1f                  |..0.......      |
      |                                               |                |    [19]{}: bound 0x16a-0x17d (19)
0x0160|                              03               |          .     |      timestamp_delta: 2 (3) 0x16a-0x16b (1)
      |                                               |                |      timestamp: 126 (1970-01-01T00:02:06Z)
0x0160|                                 00            |           .    |      id_prefix_size: 0 0x16b-0x16c (1)
0x0160|                                    01         |            .   |      mode: "fingerprint" (1) 0x16c-0x16d (1)
0x0160|                                       4e af 16|             N..|      fingerprint: "4eaf1631a94803214b707e3410498846" (raw bits) 0x16d-0x17d (16)
0x0170|31 a9 48 03 21 4b 70 7e 34 10 49 88 46         |1.H.!Kp~4.I.F   |
      |                                               |                |    [20]{}: bound 0x17d-0x190 (19)
0x0170|                                       03      |             .  |      timestamp_delta: 2 (3) 0x17d-0x17e (1)
      |                                               |                |      timestamp: 128 (1970-01-01T00:02:08Z)
0x0170|                                          00   |              . |      id_prefix_size: 0 0x17e-0x17f (1)
0x0170|                                             01|               .|      mode: "fingerprint" (1) 0x17f-0x180 (1)
0x0180|d5 78 d2 97 2d 05 36 f4 0b e9 1b 74 c2 61 ec ee|.x..-.6....t.a..|      fingerprint: "d578d2972d0536f40be91b74c261ecee" (raw bits) 0x180-0x190 (16)
      |                                               |                |    [21]{}: bound 0x190-0x1a3 (19)
0x0190|03                                             |.               |      timestamp_delta: 2 (3) 0x190-0x191 (1)
      |                                               |                |      timestamp: 130 (1970-01-01T00:02:10Z)
0x0190|   00                                          | .              |      id_prefix_size: 0 0x191-0x192 (1)
0x0190|      01                                       |  .             |      mode: "fingerprint" (1) 0x192-0x193 (1)
0x0190|         0e bf d7 96 24 d2 89 2c 7d 40 71 91 72|   ....$..,}@q.r|      fingerprint: "0ebfd79624d2892c7d40719172794e51" (raw bits) 0x193-0x1a3 (16)
0x01a0|79 4e 51                                       |yNQ             |
      |                                               |                |    [22]{}: bound 0x1a3-0x1b6 (19)
0x01a0|         03                                    |   .            |      timestamp_delta: 2 (3) 0x1a3-0x1a4 (1)
      |                                               |                |      timestamp: 132 (1970-01-01T00:02:12Z)
0x01a0|            00                                 |    .           |      id_prefix_size: 0 0x1a4-0x1a5 (1)
0x01a0|               01                              |     .          |      mode: "fingerprint" (1) 0x1a5-0x1a6 (1)
0x01a0|                  e4 c0 74 f8 03 8a 21 80 76 ef|      ..t...!.v.|      fingerprint: "e4c074f8038a218076ef742fbbd72e38" (raw bits) 0x1a6-0x1b6 (16)
0x01b0|74 2f bb d7 2e 38                              |t/...8          |
      |                                               |                |    [23]{}: bound 0x1b6-0x1c9 (19)
0x01b0|                  03                           |      .         |      timestamp_delta: 2 (3) 0x1b6-0x1b7 (1)
      |                                               |                |      timestamp: 134 (1970-01-01T00:02:14Z)
0x01b0|                     00                        |       .        |      id_prefix_size: 0 0x1b7-0x1b8 (1)
0x01b0|                        01                     |        .       |      mode: "fingerprint" (1) 0x1b8-0x1b9 (1)
0x01b0|                           db 3f fa 62 12 e2 4c|         .?.b..L|      fingerprint: "db3ffa6212e24ca93ee910017aa18677" (raw bits) 0x1b9-0x1c9 (16)
0x01c0|a9 3e e9 10 01 7a a1 86 77                     |.>...z..w       |
      |                                               |                |    [24]{}: bound 0x1c9-0x1dc (19)
0x01c0|                           03                  |         .      |      timestamp_delta: 2 (3) 0x1c9-0x1ca (1)
      |                                               |                |      timestamp: 136 (1970-01-01T00:02:16Z)
0x01c0|                              00               |          .     |      id_prefix_size: 0 0x1ca-0x1cb (1)
0x01c0|                                 01            |           .    |      mode: "fingerprint" (1) 0x1cb-0x1cc (1)
0x01c0|                                    4d d0 45 1e|            M.E.|      fingerprint: "4dd0451e95f25f3d38aa9e383777588f" (raw bits) 0x1cc-0x1dc (16)
0x01d0|95 f2 5f 3d 38 aa 9e 38 37 77 58 8f            |.._=8..87wX.    |
      |                                               |                |    [25]{}: bound 0x1dc-0x1ef (19)
0x01d0|                                    03         |            .   |      timestamp_delta: 2 (3) 0x1dc-0x1dd (1)
      |                                               |                |      timestamp: 138 (1970-01-01T00:02:18Z)
0x01d0|                                       00      |             .  |      id_prefix_size: 0 0x1dd-0x1de (1)
0x01d0|                                          01   |              . |      mode: "fingerprint" (1) 0x1de-0x1df (1)
0x01d0|                                             10|               .|      fingerprint: "107640bce20a5f11b2be649ab54e13ce" (raw bits) 0x1df-0x1ef (16)
0x01e0|76 40 bc e2 0a 5f 11 b2 be 64 9a b5 4e 13 ce   |v@..._...d..N.. |
      |                                               |                |    [26]{}: bound 0x1ef-0x202 (19)
0x01e0|                                             03|               .|      timestamp_delta: 2 (3) 0x1ef-0x1f0 (1)
      |                                               |                |      timestamp: 140 (1970-01-01T00:02:20Z)
0x01f0|00                                             |.               |      id_prefix_size: 0 0x1f0-0x1f1 (1)
0x01f0|   01                                          | .              |      mode: "fingerprint" (1) 0x1f1-0x1f2 (1)
0x01f0|      66 95 38 80 3d be e5 14 bb 42 b9 6f 74 78|  f.8.=....B.otx|      fingerprint: "669538803dbee514bb42b96f74788b47" (raw bits) 0x1f2-0x202 (16)
0x0200|8b 47                                          |.G              |
      |                                               |                |    [27]{}: bound 0x202-0x215 (19)
0x0200|      03                                       |  .             |      timestamp_delta: 2 (3) 0x202-0x203 (1)
      |                                               |                |      timestamp: 142 (1970-01-01T00:02:22Z)
0x0200|         00                                    |   .            |      id_prefix_size: 0 0x203-0x204 (1)
0x0200|            01                                 |    .           |      mode: "fingerprint" (1) 0x204-0x205 (1)
0x0200|               61 69 2b 52 ae 14 4a 89 d9 18 ab|     ai+R..J....|      fingerprint: "61692b52ae144a89d918abf929386a71" (raw bits) 0x205-0x215 (16)
0x0210|f9 29 38 6a 71                                 |.)8jq           |
      |                                               |                |    [28]{}: bound 0x215-0x228 (19)
0x0210|               03                              |     .          |      timestamp_delta: 2 (3) 0x215-0x216 (1)
      |                                               |                |      timestamp: 144 (1970-01-01T00:02:24Z)
0x0210|                  00                           |      .         |      id_prefix_size: 0 0x216-0x217 (1)
0x0210|                     01                        |       .        |      mode: "fingerprint" (1) 0x217-0x218 (1)
0x0210|                        c3 5a 9e f8 8e 95 3f 27|        .Z....?'|      fingerprint: "c35a9ef88e953f27b8268024902bd509" (raw bits) 0x218-0x228 (16)
0x0220|b8 26 80 24 90 2b d5 09                        |.&.$.+..        |
      |                                               |                |    [29]{}: bound 0x228-0x23b (19)
0x0220|                        03                     |        .       |      timestamp_delta: 2 (3) 0x228-0x229 (1)
      |                                               |                |      timestamp: 146 (1970-01-01T00:02:26Z)
0x0220|                           00                  |         .      |      id_prefix_size: 0 0x229-0x22a (1)
0x0220|                              01               |          .     |      mode: "fingerprint" (1) 0x22a-0x22b (1)
0x0220|                                 91 c4 c3 18 10|           .....|      fingerprint: "91c4c31810092287d3707d0f7458bfdd" (raw bits) 0x22b-0x23b (16)
0x0230|09 22 87 d3 70 7d 0f 74 58 bf dd               |."..p}.tX..     |
      |                                               |                |    [30]{}: bound 0x23b-0x24e (19)
0x0230|                                 03            |           .    |      timestamp_delta: 2 (3) 0x23b-0x23c (1)
      |                                               |                |      timestamp: 148 (1970-01-01T00:02:28Z)
0x0230|                                    00         |            .   |      id_prefix_size: 0 0x23c-0x23d (1)
0x0230|                                       01      |             .  |      mode: "fingerprint" (1) 0x23d-0x23e (1)
0x0230|                                          47 29|              G)|      fingerprint: "4729532d64e675374a94511824050d05" (raw bits) 0x23e-0x24e (16)
0x0240|53 2d 64 e6 75 37 4a 94 51 18 24 05 0d 05      |S-d.u7J.Q.$...  |
      |                                               |                |    [31]{}: bound 0x24e-0x261 (19)
0x0240|                                          53   |              S |      timestamp_delta: 82 (83) 0x24e-0x24f (1)
      |                                               |                |      timestamp: 230 (1970-01-01T00:03:50Z)
0x0240|                                             00|               .|      id_prefix_size: 0 0x24f-0x250 (1)
0x0250|01                                             |.               |      mode: "fingerprint" (1) 0x250-0x251 (1)
0x0250|   e2 78 eb 49 90 c5 ef 5b 15 66 87 14 c2 cc 09| .x.I...[.f.....|      fingerprint: "e278eb4990c5ef5b15668714c2cc0918" (raw bits) 0x251-0x261 (16)
0x0260|18                                             |.               |
      |                                               |                |    [32]{}: bound 0x261-0x265 (4)
0x0260|   74                                          | t              |      timestamp_delta: 115 (116) 0x261-0x262 (1)
      |                                               |                |      timestamp: 345 (1970-01-01T00:05:45Z)
0x0260|      00                                       |  .             |      id_prefix_size: 0 0x262-0x263 (1)
0x0260|         02                                    |   .            |      mode: "idlist" (2) 0x263-0x264 (1)
      |                                               |                |      idlist{}: 0x264-0x265 (1)
0x0260|            00                                 |    .           |        num: 0 0x264-0x265 (1)
      |                                               |                |        ids[0:0]: 0x265-0x265 (0)
      |                                               |                |    [33]{}: bound 0x265-0x269 (4)
0x0260|               74                              |     t          |      timestamp_delta: 115 (116) 0x265-0x266 (1)
      |                                               |                |      timestamp: 460 (1970-01-01T00:07:40Z)
0x0260|                  00                           |      .         |      id_prefix_size: 0 0x266-0x267 (1)
0x0260|                     02                        |       .        |      mode: "idlist" (2) 0x267-0x268 (1)
      |                                               |                |      idlist{}: 0x268-0x269 (1)
0x0260|                        00                     |        .       |        num: 0 0x268-0x269 (1)
      |                                               |                |        ids[0:0]: 0x269-0x269 (0)
      |                                               |                |    [34]{}: bound 0x269-0x26d (4)
0x0260|                           74                  |         t      |      timestamp_delta: 115 (116) 0x269-0x26a (1)
      |                                               |                |      timestamp: 575 (1970-01-01T00:09:35Z)
0x0260|                              00               |          .     |      id_prefix_size: 0 0x26a-0x26b (1)
0x0260|                                 02            |           .    |      mode: "idlist" (2) 0x26b-0x26c (1)
      |                                               |                |      idlist{}: 0x26c-0x26d (1)
0x0260|                                    00         |            .   |        num: 0 0x26c-0x26d (1)
      |                                               |                |        ids[0:0]: 0x26d-0x26d (0)
      |                                               |                |    [35]{}: bound 0x26d-0x271 (4)
0x0260|                                       74      |             t  |      timestamp_delta: 115 (116) 0x26d-0x26e (1)
      |                                               |                |      timestamp: 690 (1970-01-01T00:11:30Z)
0x0260|                                          00   |              . |      id_prefix_size: 0 0x26e-0x26f (1)
0x0260|                                             02|               .|      mode: "idlist" (2) 0x26f-0x270 (1)
      |                                               |                |      idlist{}: 0x270-0x271 (1)
0x0270|00                                             |.               |        num: 0 0x270-0x271 (1)
      |                                               |                |        ids[0:0]: 0x271-0x271 (0)
      |                                               |                |    [36]{}: bound 0x271-0x275 (4)
0x0270|   74                                          | t              |      timestamp_delta: 115 (116) 0x271-0x272 (1)
      |                                               |                |      timestamp: 805 (1970-01-01T00:13:25Z)
0x0270|      00                                       |  .             |      id_prefix_size: 0 0x272-0x273 (1)
0x0270|         02                                    |   .            |      mode: "idlist" (2) 0x273-0x274 (1)
      |                                               |                |      idlist{}: 0x274-0x275 (1)
0x0270|            00                                 |    .           |        num: 0 0x274-0x275 (1)
      |                                               |                |        ids[0:0]: 0x275-0x275 (0)
      |                                               |                |    [37]{}: bound 0x275-0x279 (4)
0x0270|               74                              |     t          |      timestamp_delta: 115 (116) 0x275-0x276 (1)
      |                                               |                |      timestamp: 920 (1970-01-01T00:15:20Z)
0x0270|                  00                           |      .         |      id_prefix_size: 0 0x276-0x277 (1)
0x0270|                     02                        |       .        |      mode: "idlist" (2) 0x277-0x278 (1)
      |                                               |                |      idlist{}: 0x278-0x279 (1)
0x0270|                        00                     |        .       |        num: 0 0x278-0x279 (1)
      |                                               |                |        ids[0:0]: 0x279-0x279 (0)
      |                                               |                |    [38]{}: bound 0x279-0x27d (4)
0x0270|                           74                  |         t      |      timestamp_delta: 115 (116) 0x279-0x27a (1)
      |                                               |                |      timestamp: 1035 (1970-01-01T00:17:15Z)
0x0270|                              00               |          .     |      id_prefix_size: 0 0x27a-0x27b (1)
0x0270|                                 02            |           .    |      mode: "idlist" (2) 0x27b-0x27c (1)
      |                                               |                |      idlist{}: 0x27c-0x27d (1)
0x0270|                                    00         |            .   |        num: 0 0x27c-0x27d (1)
      |                                               |                |        ids[0:0]: 0x27d-0x27d (0)
      |                                               |                |    [39]{}: bound 0x27d-0x281 (4)
0x0270|                                       74      |             t  |      timestamp_delta: 115 (116) 0x27d-0x27e (1)
      |                                               |                |      timestamp: 1150 (1970-01-01T00:19:10Z)
0x0270|                                          00   |              . |      id_prefix_size: 0 0x27e-0x27f (1)
0x0270|                                             02|               .|      mode: "idlist" (2) 0x27f-0x280 (1)
      |                                               |                |      idlist{}: 0x280-0x281 (1)
0x0280|00                                             |.               |        num: 0 0x280-0x281 (1)
      |                                               |                |        ids[0:0]: 0x281-0x281 (0)
      |                                               |                |    [40]{}: bound 0x281-0x285 (4)
0x0280|   74                                          | t              |      timestamp_delta: 115 (116) 0x281-0x282 (1)
      |                                               |                |      timestamp: 1265 (1970-01-01T00:21:05Z)
0x0280|      00                                       |  .             |      id_prefix_size: 0 0x282-0x283 (1)
0x0280|         02                                    |   .            |      mode: "idlist" (2) 0x283-0x284 (1)
      |                                               |                |      idlist{}: 0x284-0x285 (1)
0x0280|            00                                 |    .           |        num: 0 0x284-0x285 (1)
      |                                               |                |        ids[0:0]: 0x285-0x285 (0)
      |                                               |                |    [41]{}: bound 0x285-0x289 (4)
0x0280|               74                              |     t          |      timestamp_delta: 115 (116) 0x285-0x286 (1)
      |                                               |                |      timestamp: 1380 (1970-01-01T00:23:00Z)
0x0280|                  00                           |      .         |      id_prefix_size: 0 0x286-0x287 (1)
0x0280|                     02                        |       .        |      mode: "idlist" (2) 0x287-0x288 (1)
      |                                               |                |      idlist{}: 0x288-0x289 (1)
0x0280|                        00                     |        .       |        num: 0 0x288-0x289 (1)
      |                                               |                |        ids[0:0]: 0x289-0x289 (0)
      |                                               |                |    [42]{}: bound 0x289-0x28d (4)
0x0280|                           74                  |         t      |      timestamp_delta: 115 (116) 0x289-0x28a (1)
      |                                               |                |      timestamp: 1495 (1970-01-01T00:24:55Z)
0x0280|                              00               |          .     |      id_prefix_size: 0 0x28a-0x28b (1)
0x0280|                                 02            |           .    |      mode: "idlist" (2) 0x28b-0x28c (1)
      |                                               |                |      idlist{}: 0x28c-0x28d (1)
0x0280|                                    00         |            .   |        num: 0 0x28c-0x28d (1)
      |                                               |                |        ids[0:0]: 0x28d-0x28d (0)
      |                                               |                |    [43]{}: bound 0x28d-0x291 (4)
0x0280|                                       74      |             t  |      timestamp_delta: 115 (116) 0x28d-0x28e (1)
      |                                               |                |      timestamp: 1610 (1970-01-01T00:26:50Z)
0x0280|                                          00   |              . |      id_prefix_size: 0 0x28e-0x28f (1)
0x0280|                                             02|               .|      mode: "idlist" (2) 0x28f-0x290 (1)
      |                                               |                |      idlist{}: 0x290-0x291 (1)
0x0290|00                                             |.               |        num: 0 0x290-0x291 (1)
      |                                               |                |        ids[0:0]: 0x291-0x291 (0)
      |                                               |                |    [44]{}: bound 0x291-0x595 (772)
0x0290|   73                                          | s              |      timestamp_delta: 114 (115) 0x291-0x292 (1)
      |                                               |                |      timestamp: 1724 (1970-01-01T00:28:44Z)
0x0290|      00                                       |  .             |      id_prefix_size: 0 0x292-0x293 (1)
0x0290|         02                                    |   .            |      mode: "idlist" (2) 0x293-0x294 (1)
      |                                               |                |      idlist{}: 0x294-0x595 (769)
0x0290|            18                                 |    .           |        num: 24 0x294-0x295 (1)
      |                                               |                |        ids[0:24]: 0x295-0x595 (768)
0x0290|               00 00 00 00 00 00 00 00 00 00 00|     ...........|          [0]: "0000000000000000000000000000000000000000000000000000000000001700" (raw bits) id 0x295-0x2b5 (32)
0x02a0|00 00 00 00 00 00 00 00 00 00 00 00 00 00 00 00|................|
0x02b0|00 00 00 17 00                                 |.....           |
0x02b0|               00 00 00 00 00 00 00 00 00 00 00|     ...........|          [1]: "0000000000000000000000000000000000000000000000000000000000001701" (raw bits) id 0x2b5-0x2d5 (32)
0x02c0|00 00 00 00 00 00 00 00 00 00 00 00 00 00 00 00|................|
0x02d0|00 00 00 17 01                                 |.....           |
0x02d0|               00 00 00 00 00 00 00 00 00 00 00|     ...........|          [2]: "0000000000000000000000000000000000000000000000000000000000001702" (raw bits) id 0x2d5-0x2f5 (32)
0x02e0|00 00 00 00 00 00 00 00 00 00 00 00 00 00 00 00|................|
0x02f0|00 00 00 17 02                                 |.....           |
0x02f0|               00 00 00 00 00 00 00 00 00 00 00|     ...........|          [3]: "0000000000000000000000000000000000000000000000000000000000001703" (raw bits) id 0x2f5-0x315 (32)
0x0300|00 00 00 00 00 00 00 00 00 00 00 00 00 00 00 00|................|
0x0310|00 00 00 17 03                                 |.....           |
0x0310|               00 00 00 00 00 00 00 00 00 00 00|     ...........|          [4]: "0000000000000000000000000000000000000000000000000000000000001704" (raw bits) id 0x315-0x335 (32)
0x0320|00 00 00 00 00 00 00 00 00 00 00 00 00 00 00 00|................|
0x0330|00 00 00 17 04                                 |.....           |
0x0330|               00 00 00 00 00 00 00 00 00 00 00|     ...........|          [5]: "0000000000000000000000000000000000000000000000000000000000001705" (raw bits) id 0x335-0x355 (32)
0x0340|00 00 00 00 00 00 00 00 00 00 00 00 00 00 00 00|................|
0x0350|00 00 00 17 05                                 |.....           |
0x0350|               00 00 00 00 00 00 00 00 00 00 00|     ...........|          [6]: "0000000000000000000000000000000000000000000000000000000000001706" (raw bits) id 0x355-0x375 (32)
0x0360|00 00 00 00 00 00 00 00 00 00 00 00 00 00 00 00|................|
0x0370|00 00 00 17 06                                 |.....           |
0x0370|               00 00 00 00 00 00 00 00 00 00 00|     ...........|          [7]: "0000000000000000000000000000000000000000000000000000000000001707" (raw bits) id 0x375-0x395 (32)
0x0380|00 00 00 00 00 00 00 00 00 00 00 00 00 00 00 00|................|
0x0390|00 00 00 17 07                                 |.....           |
0x0390|               00 00 00 00 00 00 00 00 00 00 00|     ...........|          [8]: "0000000000000000000000000000000000000000000000000000000000001708" (raw bits) id 0x395-0x3b5 (32)
0x03a0|00 00 00 00 00 00 00 00 00 00 00 00 00 00 00 00|................|
0x03b0|00 00 00 17 08                                 |.....           |
0x03b0|               00 00 00 00 00 00 00 00 00 00 00|     ...........|          [9]: "0000000000000000000000000000000000000000000000000000000000001709" (raw bits) id 0x3b5-0x3d5 (32)
0x03c0|00 00 00 00 00 00 00 00 00 00 00 00 00 00 00 00|................|
0x03d0|00 00 00 17 09                                 |.....           |
0x03d0|               00 00 00 00 00 00 00 00 00 00 00|     ...........|          [10]: "0000000000000000000000000000000000000000000000000000000000001710" (raw bits) id 0x3d5-0x3f5 (32)
0x03e0|00 00 00 00 00 00 00 00 00 00 00 00 00 00 00 00|................|
0x03f0|00 00 00 17 10                                 |.....           |
0x03f0|               00 00 00 00 00 00 00 00 00 00 00|     ...........|          [11]: "0000000000000000000000000000000000000000000000000000000000001711" (raw bits) id 0x3f5-0x415 (32)
0x0400|00 00 00 00 00 00 00 00 00 00 00 00 00 00 00 00|................|
0x0410|00 00 00 17 11                                 |.....           |
0x0410|               00 00 00 00 00 00 00 00 00 00 00|     ...........|          [12]: "0000000000000000000000000000000000000000000000000000000000001712" (raw bits) id 0x415-0x435 (32)
0x0420|00 00 00 00 00 00 00 00 00 00 00 00 00 00 00 00|................|
0x0430|00 00 00 17 12                                 |.....           |
0x0430|               00 00 00 00 00 00 00 00 00 00 00|     ...........|          [13]: "0000000000000000000000000000000000000000000000000000000000001713" (raw bits) id 0x435-0x455 (32)
0x0440|00 00 00 00 00 00 00 00 00 00 00 00 00 00 00 00|................|
0x0450|00 00 00 17 13                                 |.....           |
0x0450|               00 00 00 00 00 00 00 00 00 00 00|     ...........|          [14]: "0000000000000000000000000000000000000000000000000000000000001714" (raw bits) id 0x455-0x475 (32)
0x0460|00 00 00 00 00 00 00 00 00 00 00 00 00 00 00 00|................|
0x0470|00 00 00 17 14                                 |.....           |
0x0470|               00 00 00 00 00 00 00 00 00 00 00|     ...........|          [15]: "0000000000000000000000000000000000000000000000000000000000001715" (raw bits) id 0x475-0x495 (32)
0x0480|00 00 00 00 00 00 00 00 00 00 00 00 00 00 00 00|................|
0x0490|00 00 00 17 15                                 |.....           |
0x0490|               00 00 00 00 00 00 00 00 00 00 00|     ...........|          [16]: "0000000000000000000000000000000000000000000000000000000000001716" (raw bits) id 0x495-0x4b5 (32)
0x04a0|00 00 00 00 00 00 00 00 00 00 00 00 00 00 00 00|................|
0x04b0|00 00 00 17 16                                 |.....           |
0x04b0|               00 00 00 00 00 00 00 00 00 00 00|     ...........|          [17]: "0000000000000000000000000000000000000000000000000000000000001717" (raw bits) id 0x4b5-0x4d5 (32)
0x04c0|00 00 00 00 00 00 00 00 00 00 00 00 00 00 00 00|................|
0x04d0|00 00 00 17 17                                 |.....           |
0x04d0|               00 00 00 00 00 00 00 00 00 00 00|     ...........|          [18]: "0000000000000000000000000000000000000000000000000000000000001718" (raw bits) id 0x4d5-0x4f5 (32)
0x04e0|00 00 00 00 00 00 00 00 00 00 00 00 00 00 00 00|................|
0x04f0|00 00 00 17 18                                 |.....           |
0x04f0|               00 00 00 00 00 00 00 00 00 00 00|     ...........|          [19]: "0000000000000000000000000000000000000000000000000000000000001719" (raw bits) id 0x4f5-0x515 (32)
0x0500|00 00 00 00 00 00 00 00 00 00 00 00 00 00 00 00|................|
0x0510|00 00 00 17 19                                 |.....           |
0x0510|               00 00 00 00 00 00 00 00 00 00 00|     ...........|          [20]: "0000000000000000000000000000000000000000000000000000000000001720" (raw bits) id 0x515-0x535 (32)
0x0520|00 00 00 00 00 00 00 00 00 00 00 00 00 00 00 00|................|
0x0530|00 00 00 17 20                                 |....            |
0x0530|               00 00 00 00 00 00 00 00 00 00 00|     ...........|          [21]: "0000000000000000000000000000000000000000000000000000000000001721" (raw bits) id 0x535-0x555 (32)
0x0540|00 00 00 00 00 00 00 00 00 00 00 00 00 00 00 00|................|
0x0550|00 00 00 17 21                                 |....!           |
0x0550|               00 00 00 00 00 00 00 00 00 00 00|     ...........|          [22]: "0000000000000000000000000000000000000000000000000000000000001722" (raw bits) id 0x555-0x575 (32)
0x0560|00 00 00 00 00 00 00 00 00 00 00 00 00 00 00 00|................|
0x0570|00 00 00 17 22                                 |...."           |
0x0570|               00 00 00 00 00 00 00 00 00 00 00|     ...........|          [23]: "0000000000000000000000000000000000000000000000000000000000001723" (raw bits) id 0x575-0x595 (32)
0x0580|00 00 00 00 00 00 00 00 00 00 00 00 00 00 00 00|................|
0x0590|00 00 00 17 23                                 |....#           |
      |                                               |                |    [45]{}: bound 0x595-0x599 (4)
0x0590|               82 0b                           |     ..         |      timestamp_delta: 266 (267) 0x595-0x597 (2)
      |                                               |                |      timestamp: 1990 (1970-01-01T00:33:10Z)
0x0590|                     00                        |       .        |      id_prefix_size: 0 0x597-0x598 (1)
0x0590|                        00                     |        .       |      mode: "skip" (0) 0x598-0x599 (1)
      |                                               |                |    [46]{}: bound 0x599-0x5ac (19)
0x0590|                           09                  |         .      |      timestamp_delta: 8 (9) 0x599-0x59a (1)
      |                                               |                |      timestamp: 1998 (1970-01-01T00:33:18Z)
0x0590|                              00               |          .     |      id_prefix_size: 0 0x59a-0x59b (1)
0x0590|                                 01            |           .    |      mode: "fingerprint" (1) 0x59b-0x59c (1)
0x0590|                                    d9 ab d7 92|            ....|      fingerprint: "d9abd792cabed05dfc78ebaaf733a351" (raw bits) 0x59c-0x5ac (16)
0x05a0|ca be d0 5d fc 78 eb aa f7 33 a3 51            |...].x...3.Q    |
      |                                               |                |    [47]{}: bound 0x5ac-0x5bf (19)
0x05a0|                                    09         |            .   |      timestamp_delta: 8 (9) 0x5ac-0x5ad (1)
      |                                               |                |      timestamp: 2006 (1970-01-01T00:33:26Z)
0x05a0|                                       00      |             .  |      id_prefix_size: 0 0x5ad-0x5ae (1)
0x05a0|                                          01   |              . |      mode: "fingerprint" (1) 0x5ae-0x5af (1)
0x05a0|                                             65|               e|      fingerprint: "653646a92fd16e578a7e022fa5e69d82" (raw bits) 0x5af-0x5bf (16)
0x05b0|36 46 a9 2f d1 6e 57 8a 7e 02 2f a5 e6 9d 82   |6F./.nW.~./.... |
      |                                               |                |    [48]{}: bound 0x5bf-0x5d2 (19)
0x05b0|                                             09|               .|      timestamp_delta: 8 (9) 0x5bf-0x5c0 (1)
      |                                               |                |      timestamp: 2014 (1970-01-01T00:33:34Z)
0x05c0|00                                             |.               |      id_prefix_size: 0 0x5c0-0x5c1 (1)
0x05c0|   01                                          | .              |      mode: "fingerprint" (1) 0x5c1-0x5c2 (1)
0x05c0|      3f e6 2c 26 96 e4 f1 f7 64 de 7f ff c4 17|  ?.,&....d.....|      fingerprint: "3fe62c2696e4f1f764de7fffc417b9ab" (raw bits) 0x5c2-0x5d2 (16)
0x05d0|b9 ab                                          |..              |
      |                                               |                |    [49]{}: bound 0x5d2-0x5e5 (19)
0x05d0|      09                                       |  .             |      timestamp_delta: 8 (9) 0x5d2-0x5d3 (1)
      |                                               |                |      timestamp: 2022 (1970-01-01T00:33:42Z)
0x05d0|         00                                    |   .            |      id_prefix_size: 0 0x5d3-0x5d4 (1)
0x05d0|            01                                 |    .           |      mode: "fingerprint" (1) 0x5d4-0x5d5 (1)
0x05d0|               1d 0f 67 d2 3b 92 16 73 e5 3f ad|     ..g.;..s.?.|      fingerprint: "1d0f67d23b921673e53fade4f0eba84c" (raw bits) 0x5d5-0x5e5 (16)
0x05e0|e4 f0 eb a8 4c                                 |....L           |
      |                                               |                |    [50]{}: bound 0x5e5-0x5f8 (19)
0x05e0|               08                              |     .          |      timestamp_delta: 7 (8) 0x5e5-0x5e6 (1)
      |                                               |                |      timestamp: 2029 (1970-01-01T00:33:49Z)
0x05e0|                  00                           |      .         |      id_prefix_size: 0 0x5e6-0x5e7 (1)
0x05e0|                     01                        |       .        |      mode: "fingerprint" (1) 0x5e7-0x5e8 (1)
0x05e0|                        d9 7d a8 15 19 ff 2f ad|        .}..../.|      fingerprint: "d97da81519ff2fad37ca7a875699ecd7" (raw bits) 0x5e8-0x5f8 (16)
0x05f0|37 ca 7a 87 56 99 ec d7                        |7.z.V...        |
      |                                               |                |    [51]{}: bound 0x5f8-0x60b (19)
0x05f0|                        08                     |        .       |      timestamp_delta: 7 (8) 0x5f8-0x5f9 (1)
      |                                               |                |      timestamp: 2036 (1970-01-01T00:33:56Z)
0x05f0|                           00                  |         .      |      id_prefix_size: 0 0x5f9-0x5fa (1)
0x05f0|                              01               |          .     |      mode: "fingerprint" (1) 0x5fa-0x5fb (1)
0x05f0|                                 ad 13 64 45 06|           ..dE.|      fingerprint: "ad1364450644680e3057ee3ba3cce43f" (raw bits) 0x5fb-0x60b (16)
0x0600|44 68 0e 30 57 ee 3b a3 cc e4 3f               |Dh.0W.;...?     |
      |                                               |                |    [52]{}: bound 0x60b-0x61e (19)
0x0600|                                 08            |           .    |      timestamp_delta: 7 (8) 0x60b-0x60c (1)
      |                                               |                |      timestamp: 2043 (1970-01-01T00:34:03Z)
0x0600|                                    00         |            .   |      id_prefix_size: 0 0x60c-0x60d (1)
0x0600|                                       01      |             .  |      mode: "fingerprint" (1) 0x60d-0x60e (1)
0x0600|                                          b5 66|              .f|      fingerprint: "b566b73ff10c6c36c9c6e1a4a937fa16" (raw bits) 0x60e-0x61e (16)
0x0610|b7 3f f1 0c 6c 36 c9 c6 e1 a4 a9 37 fa 16      |.?..l6.....7..  |
      |                                               |                |    [53]{}: bound 0x61e-0x631 (19)
0x0610|                                          08   |              . |      timestamp_delta: 7 (8) 0x61e-0x61f (1)
      |                                               |                |      timestamp: 2050 (1970-01-01T00:34:10Z)
0x0610|                                             00|               .|      id_prefix_size: 0 0x61f-0x620 (1)
0x0620|01                                             |.               |      mode: "fingerprint" (1) 0x620-0x621 (1)
0x0620|   18 01 9b f5 1b 81 b4 c1 55 a3 06 98 24 7d 3b| ........U...$};|      fingerprint: "18019bf51b81b4c155a30698247d3bda" (raw bits) 0x621-0x631 (16)
0x0630|da                                             |.               |
      |                                               |                |    [54]{}: bound 0x631-0x644 (19)
0x0630|   08                                          | .              |      timestamp_delta: 7 (8) 0x631-0x632 (1)
      |                                               |                |      timestamp: 2057 (1970-01-01T00:34:17Z)
0x0630|      00                                       |  .             |      id_prefix_size: 0 0x632-0x633 (1)
0x0630|         01                                    |   .            |      mode: "fingerprint" (1) 0x633-0x634 (1)
0x0630|            c2 54 3a dc de c6 1f 5c a5 77 47 a9|    .T:....\.wG.|      fingerprint: "c2543adcdec61f5ca57747a95f2757a3" (raw bits) 0x634-0x644 (16)
0x0640|5f 27 57 a3                                    |_'W.            |
      |                                               |                |    [55]{}: bound 0x644-0x657 (19)
0x0640|            08                                 |    .           |      timestamp_delta: 7 (8) 0x644-0x645 (1)
      |                                               |                |      timestamp: 2064 (1970-01-01T00:34:24Z)
0x0640|               00                              |     .          |      id_prefix_size: 0 0x645-0x646 (1)
0x0640|                  01                           |      .         |      mode: "fingerprint" (1) 0x646-0x647 (1)
0x0640|                     59 33 54 e4 fc eb 61 ce f2|       Y3T...a..|      fingerprint: "593354e4fceb61cef2dd34a3a4a95519" (raw bits) 0x647-0x657 (16)
0x0650|dd 34 a3 a4 a9 55 19                           |.4...U.         |
      |                                               |                |    [56]{}: bound 0x657-0x66a (19)
0x0650|                     08                        |       .        |      timestamp_delta: 7 (8) 0x657-0x658 (1)
      |                                               |                |      timestamp: 2071 (1970-01-01T00:34:31Z)
0x0650|                        00                     |        .       |      id_prefix_size: 0 0x658-0x659 (1)
0x0650|                           01                  |         .      |      mode: "fingerprint" (1) 0x659-0x65a (1)
0x0650|                              49 f7 f8 8a 9c bf|          I.....|      fingerprint: "49f7f88a9cbff628b5f3633ee281b220" (raw bits) 0x65a-0x66a (16)
0x0660|f6 28 b5 f3 63 3e e2 81 b2 20                  |.(..c>...       |
      |                                               |                |    [57]{}: bound 0x66a-0x67d (19)
0x0660|                              08               |          .     |      timestamp_delta: 7 (8) 0x66a-0x66b (1)
      |                                               |                |      timestamp: 2078 (1970-01-01T00:34:38Z)
0x0660|                                 00            |           .    |      id_prefix_size: 0 0x66b-0x66c (1)
0x0660|                                    01         |            .   |      mode: "fingerprint" (1) 0x66c-0x66d (1)
0x0660|                                       c5 ee 00|             ...|      fingerprint: "c5ee0031090734fb4047b1e148ca59ad" (raw bits) 0x66d-0x67d (16)
0x0670|31 09 07 34 fb 40 47 b1 e1 48 ca 59 ad         |1..4.@G..H.Y.   |
      |                                               |                |    [58]{}: bound 0x67d-0x690 (19)
0x0670|                                       08      |             .  |      timestamp_delta: 7 (8) 0x67d-0x67e (1)
      |                                               |                |      timestamp: 2085 (1970-01-01T00:34:45Z)
0x0670|                                          00   |              . |      id_prefix_size: 0 0x67e-0x67f (1)
0x0670|                                             01|               .|      mode: "fingerprint" (1) 0x67f-0x680 (1)
0x0680|29 ad e2 61 b2 4b 5c eb 02 26 eb 04 af 8d 92 5a|)..a.K\..&.....Z|      fingerprint: "29ade261b24b5ceb0226eb04af8d925a" (raw bits) 0x680-0x690 (16)
      |                                               |                |    [59]{}: bound 0x690-0x6a3 (19)
0x0690|08                                             |.               |      timestamp_delta: 7 (8) 0x690-0x691 (1)
      |                                               |                |      timestamp: 2092 (1970-01-01T00:34:52Z)
0x0690|   00                                          | .              |      id_prefix_size: 0 0x691-0x692 (1)
0x0690|      01                                       |  .             |      mode: "fingerprint" (1) 0x692-0x693 (1)
0x0690|         f3 53 24 69 0f 7d d9 a7 89 e6 41 f5 96|   .S$i.}....A..|      fingerprint: "f35324690f7dd9a789e641f5960a631b" (raw bits) 0x693-0x6a3 (16)
0x06a0|0a 63 1b                                       |.c.             |
      |                                               |                |    [60]{}: bound 0x6a3-0x6b6 (19)
0x06a0|         08                                    |   .            |      timestamp_delta: 7 (8) 0x6a3-0x6a4 (1)
      |                                               |                |      timestamp: 2099 (1970-01-01T00:34:59Z)
0x06a0|            00                                 |    .           |      id_prefix_size: 0 0x6a4-0x6a5 (1)
0x06a0|               01                              |     .          |      mode: "fingerprint" (1) 0x6a5-0x6a6 (1)
0x06a0|                  40 5f a9 00 fb a5 5d 41 2f 4a|      @_....]A/J|      fingerprint: "405fa900fba55d412f4a7ca29475ea50" (raw bits) 0x6a6-0x6b6 (16)
0x06b0|7c a2 94 75 ea 50                              ||..u.P          |
      |                                               |                |    [61]{}: bound 0x6b6-0x6c9 (19)
0x06b0|                  08                           |      .         |      timestamp_delta: 7 (8) 0x6b6-0x6b7 (1)
      |                                               |                |      timestamp: 2106 (1970-01-01T00:35:06Z)
0x06b0|                     00                        |       .        |      id_prefix_size: 0 0x6b7-0x6b8 (1)
0x06b0|                        01                     |        .       |      mode: "fingerprint" (1) 0x6b8-0x6b9 (1)
0x06b0|                           12 4f a3 97 02 a9 9c|         .O.....|      fingerprint: "124fa39702a99ce518ff02b45be6df9d" (raw bits) 0x6b9-0x6c9 (16)
0x06c0|e5 18 ff 02 b4 5b e6 df 9d                     |.....[...       |
      |                                               |                |    [62]{}: bound 0x6c9-0x6cd (4)
0x06c0|                           86 25               |         .%     |      timestamp_delta: 804 (805) 0x6c9-0x6cb (2)
      |                                               |                |      timestamp: 2910 (1970-01-01T00:48:30Z)
0x06c0|                                 00            |           .    |      id_prefix_size: 0 0x6cb-0x6cc (1)
0x06c0|                                    00         |            .   |      mode: "skip" (0) 0x6cc-0x6cd (1)
      |                                               |                |    [63]{}: bound 0x6cd-0x6e0 (19)
0x06c0|                                       08      |             .  |      timestamp_delta: 7 (8) 0x6cd-0x6ce (1)
      |                                               |                |      timestamp: 2917 (1970-01-01T00:48:37Z)
0x06c0|                                          00   |              . |      id_prefix_size: 0 0x6ce-0x6cf (1)
0x06c0|                                             01|               .|      mode: "fingerprint" (1) 0x6cf-0x6d0 (1)
0x06d0|c9 28 15 e7 0a 04 ca f4 61 10 33 d0 78 c3 de b4|.(......a.3.x...|      fingerprint: "c92815e70a04caf4611033d078c3deb4" (raw bits) 0x6d0-0x6e0 (16)
      |                                               |                |    [64]{}: bound 0x6e0-0x6f3 (19)
0x06e0|08                                             |.               |      timestamp_delta: 7 (8) 0x6e0-0x6e1 (1)
      |                                               |                |      timestamp: 2924 (1970-01-01T00:48:44Z)
0x06e0|   00                                          | .              |      id_prefix_size: 0 0x6e1-0x6e2 (1)
0x06e0|      01                                       |  .             |      mode: "fingerprint" (1) 0x6e2-0x6e3 (1)
0x06e0|         36 31 05 0a cc 18 b6 55 52 56 34 03 f9|   61.....URV4..|      fingerprint: "3631050acc18b65552563403f963d1df" (raw bits) 0x6e3-0x6f3 (16)
0x06f0|63 d1 df                                       |c..             |
      |                                               |                |    [65]{}: bound 0x6f3-0x706 (19)
0x06f0|         08                                    |   .            |      timestamp_delta: 7 (8) 0x6f3-0x6f4 (1)
      |                                               |                |      timestamp: 2931 (1970-01-01T00:48:51Z)
0x06f0|            00                                 |    .           |      id_prefix_size: 0 0x6f4-0x6f5 (1)
0x06f0|               01                              |     .          |      mode: "fingerprint" (1) 0x6f5-0x6f6 (1)
0x06f0|                  fe 40 73 ec 4d 7b 18 eb a1 76|      .@s.M{...v|      fingerprint: "fe4073ec4d7b18eba176efbec0315f3d" (raw bits) 0x6f6-0x706 (16)
0x0700|ef be c0 31 5f 3d                              |...1_=          |
      |                                               |                |    [66]{}: bound 0x706-0x719 (19)
0x0700|                  08                           |      .         |      timestamp_delta: 7 (8) 0x706-0x707 (1)
      |                                               |                |      timestamp: 2938 (1970-01-01T00:48:58Z)
0x0700|                     00                        |       .        |      id_prefix_size: 0 0x707-0x708 (1)
0x0700|                        01                     |        .       |      mode: "fingerprint" (1) 0x708-0x709 (1)
0x0700|                           43 11 5d 3e b6 5c f8|         C.]>.\.|      fingerprint: "43115d3eb65cf8e4cd6ee0cb8e91e9c9" (raw bits) 0x709-0x719 (16)
0x0710|e4 cd 6e e0 cb 8e 91 e9 c9                     |..n......       |
      |                                               |                |    [67]{}: bound 0x719-0x72c (19)
0x0710|                           08                  |         .      |      timestamp_delta: 7 (8) 0x719-0x71a (1)
      |                                               |                |      timestamp: 2945 (1970-01-01T00:49:05Z)
0x0710|                              00               |          .     |      id_prefix_size: 0 0x71a-0x71b (1)
0x0710|                                 01            |           .    |      mode: "fingerprint" (1) 0x71b-0x71c (1)
0x0710|                                    aa 64 17 96|            .d..|      fingerprint: "aa641796d50d854bb2dc36170b644368" (raw bits) 0x71c-0x72c (16)
0x0720|d5 0d 85 4b b2 dc 36 17 0b 64 43 68            |...K..6..dCh    |
      |                                               |                |    [68]{}: bound 0x72c-0x73f (19)
0x0720|                                    08         |            .   |      timestamp_delta: 7 (8) 0x72c-0x72d (1)
      |                                               |                |      timestamp: 2952 (1970-01-01T00:49:12Z)
0x0720|                                       00      |             .  |      id_prefix_size: 0 0x72d-0x72e (1)
0x0720|                                          01   |              . |      mode: "fingerprint" (1) 0x72e-0x72f (1)
0x0720|                                             8d|               .|      fingerprint: "8d9d1e412e225581ce2075fd20d965fd" (raw bits) 0x72f-0x73f (16)
0x0730|9d 1e 41 2e 22 55 81 ce 20 75 fd 20 d9 65 fd   |..A."U.. u. .e. |
      |                                               |                |    [69]{}: bound 0x73f-0x752 (19)
0x0730|                                             07|               .|      timestamp_delta: 6 (7) 0x73f-0x740 (1)
      |                                               |                |      timestamp: 2958 (1970-01-01T00:49:18Z)
0x0740|00                                             |.               |      id_prefix_size: 0 0x740-0x741 (1)
0x0740|   01                                          | .              |      mode: "fingerprint" (1) 0x741-0x742 (1)
0x0740|      e7 1b 7d 18 e5 ee 03 bb bb 23 cc 1a 4b 94|  ..}......#..K.|      fingerprint: "e71b7d18e5ee03bbbb23cc1a4b943251" (raw bits) 0x742-0x752 (16)
0x0750|32 51                                          |2Q              |
      |                                               |                |    [70]{}: bound 0x752-0x765 (19)
0x0750|      07                                       |  .             |      timestamp_delta: 6 (7) 0x752-0x753 (1)
      |                                               |                |      timestamp: 2964 (1970-01-01T00:49:24Z)
0x0750|         00                                    |   .            |      id_prefix_size: 0 0x753-0x754 (1)
0x0750|            01                                 |    .           |      mode: "fingerprint" (1) 0x754-0x755 (1)
0x0750|               44 0b 2b 50 12 9a eb 72 94 d2 fd|     D.+P...r...|      fingerprint: "440b2b50129aeb7294d2fd19c884e7cd" (raw bits) 0x755-0x765 (16)
0x0760|19 c8 84 e7 cd                                 |.....           |
      |                                               |                |    [71]{}: bound 0x765-0x778 (19)
0x0760|               07                              |     .          |      timestamp_delta: 6 (7) 0x765-0x766 (1)
      |                                               |                |      timestamp: 2970 (1970-01-01T00:49:30Z)
0x0760|                  00                           |      .         |      id_prefix_size: 0 0x766-0x767 (1)
0x0760|                     01                        |       .        |      mode: "fingerprint" (1) 0x767-0x768 (1)
0x0760|                        b8 9b 03 c6 da 8a ff bc|        ........|      fingerprint: "b89b03c6da8affbca1f90541ac77a85d" (raw bits) 0x768-0x778 (16)
0x0770|a1 f9 05 41 ac 77 a8 5d                        |...A.w.]        |
      |                                               |                |    [72]{}: bound 0x778-0x78b (19)
0x0770|                        07                     |        .       |      timestamp_delta: 6 (7) 0x778-0x779 (1)
      |                                               |                |      timestamp: 2976 (1970-01-01T00:49:36Z)
0x0770|                           00                  |         .      |      id_prefix_size: 0 0x779-0x77a (1)
0x0770|                              01               |          .     |      mode: "fingerprint" (1) 0x77a-0x77b (1)
0x0770|                                 e6 4f aa 52 c8|           .O.R.|      fingerprint: "e64faa52c87f2d7167139de6a66e067c" (raw bits) 0x77b-0x78b (16)
0x0780|7f 2d 71 67 13 9d e6 a6 6e 06 7c               |.-qg....n.|     |
      |                                               |                |    [73]{}: bound 0x78b-0x79e (19)
0x0780|                                 07            |           .    |      timestamp_delta: 6 (7) 0x78b-0x78c (1)
      |                                               |                |      timestamp: 2982 (1970-01-01T00:49:42Z)
0x0780|                                    00         |            .   |      id_prefix_size: 0 0x78c-0x78d (1)
0x0780|                                       01      |             .  |      mode: "fingerprint" (1) 0x78d-0x78e (1)
0x0780|                                          e6 80|              ..|      fingerprint: "e68007eaa2035fb01d505f580287e9a1" (raw bits) 0x78e-0x79e (16)
0x0790|07 ea a2 03 5f b0 1d 50 5f 58 02 87 e9 a1      |...._..P_X....  |
      |                                               |                |    [74]{}: bound 0x79e-0x7b1 (19)
0x0790|                                          07   |              . |      timestamp_delta: 6 (7) 0x79e-0x79f (1)
      |                                               |                |      timestamp: 2988 (1970-01-01T00:49:48Z)
0x0790|                                             00|               .|      id_prefix_size: 0 0x79f-0x7a0 (1)
0x07a0|01                                             |.               |      mode: "fingerprint" (1) 0x7a0-0x7a1 (1)
0x07a0|   15 96 1f 8e 6b ba 20 86 c2 98 90 b4 97 63 85| ....k. ......c.|      fingerprint: "15961f8e6bba2086c29890b49763859a" (raw bits) 0x7a1-0x7b1 (16)
0x07b0|9a                                             |.               |
      |                                               |                |    [75]{}: bound 0x7b1-0x7c4 (19)
0x07b0|   07                                          | .              |      timestamp_delta: 6 (7) 0x7b1-0x7b2 (1)
      |                                               |                |      timestamp: 2994 (1970-01-01T00:49:54Z)
0x07b0|      00                                       |  .             |      id_prefix_size: 0 0x7b2-0x7b3 (1)
0x07b0|         01                                    |   .            |      mode: "fingerprint" (1) 0x7b3-0x7b4 (1)
0x07b0|            bc 68 dc 5b 90 17 0b 80 34 81 dd cd|    .h.[....4...|      fingerprint: "bc68dc5b90170b803481ddcda0651634" (raw bits) 0x7b4-0x7c4 (16)
0x07c0|a0 65 16 34                                    |.e.4            |
      |                                               |                |    [76]{}: bound 0x7c4-0x7d7 (19)
0x07c0|            07                                 |    .           |      timestamp_delta: 6 (7) 0x7c4-0x7c5 (1)
      |                                               |                |      timestamp: 3000 (1970-01-01T00:50:00Z)
0x07c0|               00                              |     .          |      id_prefix_size: 0 0x7c5-0x7c6 (1)
0x07c0|                  01                           |      .         |      mode: "fingerprint" (1) 0x7c6-0x7c7 (1)
0x07c0|                     de 49 c3 e4 25 1e a2 e9 fb|       .I..%....|      fingerprint: "de49c3e4251ea2e9fb97357d90074b7a" (raw bits) 0x7c7-0x7d7 (16)
0x07d0|97 35 7d 90 07 4b 7a                           |.5}..Kz         |
      |                                               |                |    [77]{}: bound 0x7d7-0x7ea (19)
0x07d0|                     07                        |       .        |      timestamp_delta: 6 (7) 0x7d7-0x7d8 (1)
      |                                               |                |      timestamp: 3006 (1970-01-01T00:50:06Z)
0x07d0|                        00                     |        .       |      id_prefix_size: 0 0x7d8-0x7d9 (1)
0x07d0|                           01                  |         .      |      mode: "fingerprint" (1) 0x7d9-0x7da (1)
0x07d0|                              2a cb 89 81 38 09|          *...8.|      fingerprint: "2acb8981380911f8a58d5051e5ca299b" (raw bits) 0x7da-0x7ea (16)
0x07e0|11 f8 a5 8d 50 51 e5 ca 29 9b                  |....PQ..).      |
      |                                               |                |    [78]{}: bound 0x7ea-0x7fd (19)
0x07e0|                              07               |          .     |      timestamp_delta: 6 (7) 0x7ea-0x7eb (1)
      |                                               |                |      timestamp: 3012 (1970-01-01T00:50:12Z)
0x07e0|                                 00            |           .    |      id_prefix_size: 0 0x7eb-0x7ec (1)
0x07e0|                                    01         |            .   |      mode: "fingerprint" (1) 0x7ec-0x7ed (1)
0x07e0|                                       64 e8 d4|             d..|      fingerprint: "64e8d4d0c2e8312d007832fa6fa9b5fa" (raw bits) 0x7ed-0x7fd (16)
0x07f0|d0 c2 e8 31 2d 00 78 32 fa 6f a9 b5 fa         |...1-.x2.o...   |
      |                                               |                |    [79]{}: bound 0x7fd-0x801 (4)
0x07f0|                                       82 7d   |             .} |      timestamp_delta: 380 (381) 0x7fd-0x7ff (2)
      |                                               |                |      timestamp: 3392 (1970-01-01T00:56:32Z)
0x07f0|                                             00|               .|      id_prefix_size: 0 0x7ff-0x800 (1)
0x0800|00                                             |.               |      mode: "skip" (0) 0x800-0x801 (1)
      |                                               |                |    [80]{}: bound 0x801-0x905 (260)
0x0800|   1b                                          | .              |      timestamp_delta: 26 (27) 0x801-0x802 (1)
      |                                               |                |      timestamp: 3418 (1970-01-01T00:56:58Z)
0x0800|      00                                       |  .             |      id_prefix_size: 0 0x802-0x803 (1)
0x0800|         02                                    |   .            |      mode: "idlist" (2) 0x803-0x804 (1)
      |                                               |                |      idlist{}: 0x804-0x905 (257)
0x0800|            08                                 |    .           |        num: 8 0x804-0x805 (1)
      |                                               |                |        ids[0:8]: 0x805-0x905 (256)
0x0800|               00 00 00 00 00 00 00 00 00 00 00|     ...........|          [0]: "0000000000000000000000000000000000000000000000000000000000003392" (raw bits) id 0x805-0x825 (32)
0x0810|00 00 00 00 00 00 00 00 00 00 00 00 00 00 00 00|................|
0x0820|00 00 00 33 92                                 |...3.           |
0x0820|               00 00 00 00 00 00 00 00 00 00 00|     ...........|          [1]: "0000000000000000000000000000000000000000000000000000000000003393" (raw bits) id 0x825-0x845 (32)
0x0830|00 00 00 00 00 00 00 00 00 00 00 00 00 00 00 00|................|
0x0840|00 00 00 33 93                                 |...3.           |
0x0840|               00 00 00 00 00 00 00 00 00 00 00|     ...........|          [2]: "0000000000000000000000000000000000000000000000000000000000003394" (raw bits) id 0x845-0x865 (32)
0x0850|00 00 00 00 00 00 00 00 00 00 00 00 00 00 00 00|................|
0x0860|00 00 00 33 94                                 |...3.           |
0x0860|               00 00 00 00 00 00 00 00 00 00 00|     ...........|          [3]: "0000000000000000000000000000000000000000000000000000000000003395" (raw bits) id 0x865-0x885 (32)
0x0870|00 00 00 00 00 00 00 00 00 00 00 00 00 00 00 00|................|
0x0880|00 00 00 33 95                                 |...3.           |
0x0880|               00 00 00 00 00 00 00 00 00 00 00|     ...........|          [4]: "0000000000000000000000000000000000000000000000000000000000003396" (raw bits) id 0x885-0x8a5 (32)
0x0890|00 00 00 00 00 00 00 00 00 00 00 00 00 00 00 00|................|
0x08a0|00 00 00 33 96                                 |...3.           |
0x08a0|               00 00 00 00 00 00 00 00 00 00 00|     ...........|          [5]: "0000000000000000000000000000000000000000000000000000000000003397" (raw bits) id 0x8a5-0x8c5 (32)
0x08b0|00 00 00 00 00 00 00 00 00 00 00 00 00 00 00 00|................|
0x08c0|00 00 00 33 97                                 |...3.           |
0x08c0|               00 00 00 00 00 00 00 00 00 00 00|     ...........|          [6]: "0000000000000000000000000000000000000000000000000000000000003398" (raw bits) id 0x8c5-0x8e5 (32)
0x08d0|00 00 00 00 00 00 00 00 00 00 00 00 00 00 00 00|................|
0x08e0|00 00 00 33 98                                 |...3.           |
0x08e0|               00 00 00 00 00 00 00 00 00 00 00|     ...........|          [7]: "0000000000000000000000000000000000000000000000000000000000003399" (raw bits) id 0x8e5-0x905 (32)
0x08f0|00 00 00 00 00 00 00 00 00 00 00 00 00 00 00 00|................|
0x0900|00 00 00 33 99                                 |...3.           |
      |                                               |                |    [81]{}: bound 0x905-0x909 (4)
0x0900|               1b                              |     .          |      timestamp_delta: 26 (27) 0x905-0x906 (1)
      |                                               |                |      timestamp: 3444 (1970-01-01T00:57:24Z)
0x0900|                  00                           |      .         |      id_prefix_size: 0 0x906-0x907 (1)
0x0900|                     02                        |       .        |      mode: "idlist" (2) 0x907-0x908 (1)
      |                                               |                |      idlist{}: 0x908-0x909 (1)
0x0900|                        00                     |        .       |        num: 0 0x908-0x909 (1)
      |                                               |                |        ids[0:0]: 0x909-0x909 (0)
      |                                               |                |    [82]{}: bound 0x909-0x90d (4)
0x0900|                           1b                  |         .      |      timestamp_delta: 26 (27) 0x909-0x90a (1)
      |                                               |                |      timestamp: 3470 (1970-01-01T00:57:50Z)
0x0900|                              00               |          .     |      id_prefix_size: 0 0x90a-0x90b (1)
0x0900|                                 02            |           .    |      mode: "idlist" (2) 0x90b-0x90c (1)
      |                                               |                |      idlist{}: 0x90c-0x90d (1)
0x0900|                                    00         |            .   |        num: 0 0x90c-0x90d (1)
      |                                               |                |        ids[0:0]: 0x90d-0x90d (0)
      |                                               |                |    [83]{}: bound 0x90d-0x911 (4)
0x0900|                                       1b      |             .  |      timestamp_delta: 26 (27) 0x90d-0x90e (1)
      |                                               |                |      timestamp: 3496 (1970-01-01T00:58:16Z)
0x0900|                                          00   |              . |      id_prefix_size: 0 0x90e-0x90f (1)
0x0900|                                             02|               .|      mode: "idlist" (2) 0x90f-0x910 (1)
      |                                               |                |      idlist{}: 0x910-0x911 (1)
0x0910|00                                             |.               |        num: 0 0x910-0x911 (1)
      |                                               |                |        ids[0:0]: 0x911-0x911 (0)
      |                                               |                |    [84]{}: bound 0x911-0x915 (4)
0x0910|   1b                                          | .              |      timestamp_delta: 26 (27) 0x911-0x912 (1)
      |                                               |                |      timestamp: 3522 (1970-01-01T00:58:42Z)
0x0910|      00                                       |  .             |      id_prefix_size: 0 0x912-0x913 (1)
0x0910|         02                                    |   .            |      mode: "idlist" (2) 0x913-0x914 (1)
      |                                               |                |      idlist{}: 0x914-0x915 (1)
0x0910|            00                                 |    .           |        num: 0 0x914-0x915 (1)
      |                                               |                |        ids[0:0]: 0x915-0x915 (0)
      |                                               |                |    [85]{}: bound 0x915-0x919 (4)
0x0910|               1b                              |     .          |      timestamp_delta: 26 (27) 0x915-0x916 (1)
      |                                               |                |      timestamp: 3548 (1970-01-01T00:59:08Z)
0x0910|                  00                           |      .         |      id_prefix_size: 0 0x916-0x917 (1)
0x0910|                     02                        |       .        |      mode: "idlist" (2) 0x917-0x918 (1)
      |                                               |                |      idlist{}: 0x918-0x919 (1)
0x0910|                        00                     |        .       |        num: 0 0x918-0x919 (1)
      |                                               |                |        ids[0:0]: 0x919-0x919 (0)
      |                                               |                |    [86]{}: bound 0x919-0x91d (4)
0x0910|                           1b                  |         .      |      timestamp_delta: 26 (27) 0x919-0x91a (1)
      |                                               |                |      timestamp: 3574 (1970-01-01T00:59:34Z)
0x0910|                              00               |          .     |      id_prefix_size: 0 0x91a-0x91b (1)
0x0910|                                 02            |           .    |      mode: "idlist" (2) 0x91b-0x91c (1)
      |                                               |                |      idlist{}: 0x91c-0x91d (1)
0x0910|                                    00         |            .   |        num: 0 0x91c-0x91d (1)
      |                                               |                |        ids[0:0]: 0x91d-0x91d (0)
      |                                               |                |    [87]{}: bound 0x91d-0x931 (20)
0x0910|                                       9a 66   |             .f |      timestamp_delta: 3429 (3430) 0x91d-0x91f (2)
      |                                               |                |      timestamp: 7003 (1970-01-01T01:56:43Z)
0x0910|                                             00|               .|      id_prefix_size: 0 0x91f-0x920 (1)
0x0920|01                                             |.               |      mode: "fingerprint" (1) 0x920-0x921 (1)
0x0920|   b6 31 63 d6 ab b8 79 9d d9 9d 61 3d f4 5b bb| .1c...y...a=.[.|      fingerprint: "b63163d6abb8799dd99d613df45bbb92" (raw bits) 0x921-0x931 (16)
0x0930|92                                             |.               |
      |                                               |                |    [88]{}: bound 0x931-0x944 (19)
0x0930|   04                                          | .              |      timestamp_delta: 3 (4) 0x931-0x932 (1)
      |                                               |                |      timestamp: 7006 (1970-01-01T01:56:46Z)
0x0930|      00                                       |  .             |      id_prefix_size: 0 0x932-0x933 (1)
0x0930|         01                                    |   .            |      mode: "fingerprint" (1) 0x933-0x934 (1)
0x0930|            d1 30 76 e1 57 40 30 68 6e 62 f5 e8|    .0v.W@0hnb..|      fingerprint: "d13076e1574030686e62f5e8e3f5c022" (raw bits) 0x934-0x944 (16)
0x0940|e3 f5 c0 22                                    |..."            |
      |                                               |                |    [89]{}: bound 0x944-0x957 (19)
0x0940|            04                                 |    .           |      timestamp_delta: 3 (4) 0x944-0x945 (1)
      |                                               |                |      timestamp: 7009 (1970-01-01T01:56:49Z)
0x0940|               00                              |     .          |      id_prefix_size: 0 0x945-0x946 (1)
0x0940|                  01                           |      .         |      mode: "fingerprint" (1) 0x946-0x947 (1)
0x0940|                     2d 79 5b bf 59 32 30 fb cc|       -y[.Y20..|      fingerprint: "2d795bbf593230fbccd2b996cc212a29" (raw bits) 0x947-0x957 (16)
0x0950|d2 b9 96 cc 21 2a 29                           |....!*)         |
      |                                               |                |    [90]{}: bound 0x957-0x96a (19)
0x0950|                     04                        |       .        |      timestamp_delta: 3 (4) 0x957-0x958 (1)
      |                                               |                |      timestamp: 7012 (1970-01-01T01:56:52Z)
0x0950|                        00                     |        .       |      id_prefix_size: 0 0x958-0x959 (1)
0x0950|                           01                  |         .      |      mode: "fingerprint" (1) 0x959-0x95a (1)
0x0950|                              e1 dd 67 1b 24 ce|          ..g.$.|      fingerprint: "e1dd671b24ce46e438893589c8a9bd02" (raw bits) 0x95a-0x96a (16)
0x0960|46 e4 38 89 35 89 c8 a9 bd 02                  |F.8.5.....      |
      |                                               |                |    [91]{}: bound 0x96a-0x97d (19)
0x0960|                              04               |          .     |      timestamp_delta: 3 (4) 0x96a-0x96b (1)
      |                                               |                |      timestamp: 7015 (1970-01-01T01:56:55Z)
0x0960|                                 00            |           .    |      id_prefix_size: 0 0x96b-0x96c (1)
0x0960|                                    01         |            .   |      mode: "fingerprint" (1) 0x96c-0x96d (1)
0x0960|                                       81 5f 4c|             ._L|      fingerprint: "815f4c037984dbc47915d53f2879f494" (raw bits) 0x96d-0x97d (16)
0x0970|03 79 84 db c4 79 15 d5 3f 28 79 f4 94         |.y...y..?(y..   |
      |                                               |                |    [92]{}: bound 0x97d-0x990 (19)
0x0970|                                       04      |             .  |      timestamp_delta: 3 (4) 0x97d-0x97e (1)
      |                                               |                |      timestamp: 7018 (1970-01-01T01:56:58Z)
0x0970|                                          00   |              . |      id_prefix_size: 0 0x97e-0x97f (1)
0x0970|                                             01|               .|      mode: "fingerprint" (1) 0x97f-0x980 (1)
0x0980|61 9a 1d 2f bb 6d 3a a8 de b4 7b ce 40 3c 68 0d|a../.m:...{.@<h.|      fingerprint: "619a1d2fbb6d3aa8deb47bce403c680d" (raw bits) 0x980-0x990 (16)
      |                                               |                |    [93]{}: bound 0x990-0x9a3 (19)
0x0990|04                                             |.               |      timestamp_delta: 3 (4) 0x990-0x991 (1)
      |                                               |                |      timestamp: 7021 (1970-01-01T01:57:01Z)
0x0990|   00                                          | .              |      id_prefix_size: 0 0x991-0x992 (1)
0x0990|      01                                       |  .             |      mode: "fingerprint" (1) 0x992-0x993 (1)
0x0990|         60 c5 ef d1 90 54 cf ee 55 b8 25 3f f2|   `....T..U.%?.|      fingerprint: "60c5efd19054cfee55b8253ff20f8e34" (raw bits) 0x993-0x9a3 (16)
0x09a0|0f 8e 34                                       |..4             |
      |                                               |                |    [94]{}: bound 0x9a3-0x9b6 (19)
0x09a0|         04                                    |   .            |      timestamp_delta: 3 (4) 0x9a3-0x9a4 (1)
      |                                               |                |      timestamp: 7024 (1970-01-01T01:57:04Z)
0x09a0|            00                                 |    .           |      id_prefix_size: 0 0x9a4-0x9a5 (1)
0x09a0|               01                              |     .          |      mode: "fingerprint" (1) 0x9a5-0x9a6 (1)
0x09a0|                  0d d7 f4 16 fa 54 73 56 24 0b|      .....TsV$.|      fingerprint: "0dd7f416fa547356240b7150152ffc1b" (raw bits) 0x9a6-0x9b6 (16)
0x09b0|71 50 15 2f fc 1b                              |qP./..          |
      |                                               |                |    [95]{}: bound 0x9b6-0x9c9 (19)
0x09b0|                  04                           |      .         |      timestamp_delta: 3 (4) 0x9b6-0x9b7 (1)
      |                                               |                |      timestamp: 7027 (1970-01-01T01:57:07Z)
0x09b0|                     00                        |       .        |      id_prefix_size: 0 0x9b7-0x9b8 (1)
0x09b0|                        01                     |        .       |      mode: "fingerprint" (1) 0x9b8-0x9b9 (1)
0x09b0|                           3d 2a cf 81 b9 39 5a|         =*...9Z|      fingerprint: "3d2acf81b9395a5d9e65a2a692d92a16" (raw bits) 0x9b9-0x9c9 (16)
0x09c0|5d 9e 65 a2 a6 92 d9 2a 16                     |].e....*.       |
      |                                               |                |    [96]{}: bound 0x9c9-0x9dc (19)
0x09c0|                           04                  |         .      |      timestamp_delta: 3 (4) 0x9c9-0x9ca (1)
      |                                               |                |      timestamp: 7030 (1970-01-01T01:57:10Z)
0x09c0|                              00               |          .     |      id_prefix_size: 0 0x9ca-0x9cb (1)
0x09c0|                                 01            |           .    |      mode: "fingerprint" (1) 0x9cb-0x9cc (1)
0x09c0|                                    ad 08 fb 68|            ...h|      fingerprint: "ad08fb6863b22d32d5d9f33b3e675c3a" (raw bits) 0x9cc-0x9dc (16)
0x09d0|63 b2 2d 32 d5 d9 f3 3b 3e 67 5c 3a            |c.-2...;>g\:    |
      |                                               |                |    [97]{}: bound 0x9dc-0x9ef (19)
0x09d0|                                    04         |            .   |      timestamp_delta: 3 (4) 0x9dc-0x9dd (1)
      |                                               |                |      timestamp: 7033 (1970-01-01T01:57:13Z)
0x09d0|                                       00      |             .  |      id_prefix_size: 0 0x9dd-0x9de (1)
0x09d0|                                          01   |              . |      mode: "fingerprint" (1) 0x9de-0x9df (1)
0x09d0|                                             84|               .|      fingerprint: "84b401a7c0ccd20e0a4a2fef0f8c37a3" (raw bits) 0x9df-0x9ef (16)
0x09e0|b4 01 a7 c0 cc d2 0e 0a 4a 2f ef 0f 8c 37 a3   |........J/...7. |
      |                                               |                |    [98]{}: bound 0x9ef-0xa02 (19)
0x09e0|                                             04|               .|      timestamp_delta: 3 (4) 0x9ef-0x9f0 (1)
      |                                               |                |      timestamp: 7036 (1970-01-01T01:57:16Z)
0x09f0|00                                             |.               |      id_prefix_size: 0 0x9f0-0x9f1 (1)
0x09f0|   01                                          | .              |      mode: "fingerprint" (1) 0x9f1-0x9f2 (1)
0x09f0|      9f 06 34 55 e5 ea 2e fe e8 c1 be 23 1a d9|  ..4U.......#..|      fingerprint: "9f063455e5ea2efee8c1be231ad9f123" (raw bits) 0x9f2-0xa02 (16)
0x0a00|f1 23                                          |.#              |
      |                                               |                |    [99]{}: bound 0xa02-0xa15 (19)
0x0a00|      04                                       |  .             |      timestamp_delta: 3 (4) 0xa02-0xa03 (1)
      |                                               |                |      timestamp: 7039 (1970-01-01T01:57:19Z)
0x0a00|         00                                    |   .            |      id_prefix_size: 0 0xa03-0xa04 (1)
0x0a00|            01                                 |    .           |      mode: "fingerprint" (1) 0xa04-0xa05 (1)
0x0a00|               e9 00 b1 6c b4 d1 fa 4b 97 50 dd|     ...l...K.P.|      fingerprint: "e900b16cb4d1fa4b9750ddb9e41f45d3" (raw bits) 0xa05-0xa15 (16)
0x0a10|b9 e4 1f 45 d3                                 |...E.           |
      |                                               |                |    [100]{}: bound 0xa15-0xa28 (19)
0x0a10|               04                              |     .          |      timestamp_delta: 3 (4) 0xa15-0xa16 (1)
      |                                               |                |      timestamp: 7042 (1970-01-01T01:57:22Z)
0x0a10|                  00                           |      .         |      id_prefix_size: 0 0xa16-0xa17 (1)
0x0a10|                     01                        |       .        |      mode: "fingerprint" (1) 0xa17-0xa18 (1)
0x0a10|                        45 30 3f 44 99 cd 7f 73|        E0?D...s|      fingerprint: "45303f4499cd7f73b719df6084efb1d5" (raw bits) 0xa18-0xa28 (16)
0x0a20|b7 19 df 60 84 ef b1 d5                        |...`....        |
      |                                               |                |    [101]{}: bound 0xa28-0xa3b (19)
0x0a20|                        03                     |        .       |      timestamp_delta: 2 (3) 0xa28-0xa29 (1)
      |                                               |                |      timestamp: 7044 (1970-01-01T01:57:24Z)
0x0a20|                           00                  |         .      |      id_prefix_size: 0 0xa29-0xa2a (1)
0x0a20|                              01               |          .     |      mode: "fingerprint" (1) 0xa2a-0xa2b (1)
0x0a20|                                 7b 82 a5 c5 21|           {...!|      fingerprint: "7b82a5c5210fb1186ad426fb489ff18d" (raw bits) 0xa2b-0xa3b (16)
0x0a30|0f b1 18 6a d4 26 fb 48 9f f1 8d               |...j.&.H...     |
      |                                               |                |    [102]{}: bound 0xa3b-0xa4e (19)
0x0a30|                                 03            |           .    |      timestamp_delta: 2 (3) 0xa3b-0xa3c (1)
      |                                               |                |      timestamp: 7046 (1970-01-01T01:57:26Z)
0x0a30|                                    00         |            .   |      id_prefix_size: 0 0xa3c-0xa3d (1)
0x0a30|                                       01      |             .  |      mode: "fingerprint" (1) 0xa3d-0xa3e (1)
0x0a30|                                          5b a6|              [.|      fingerprint: "5ba61cfc1e741ddbd49d4f4ff67b307f" (raw bits) 0xa3e-0xa4e (16)
0x0a40|1c fc 1e 74 1d db d4 9d 4f 4f f6 7b 30 7f      |...t....OO.{0.  |
      |                                               |                |    [103]{}: bound 0xa4e-0xa52 (4)
0x0a40|                                          86 22|              ."|      timestamp_delta: 801 (802) 0xa4e-0xa50 (2)
      |                                               |                |      timestamp: 7847 (1970-01-01T02:10:47Z)
0x0a50|00                                             |.               |      id_prefix_size: 0 0xa50-0xa51 (1)
0x0a50|   00                                          | .              |      mode: "skip" (0) 0xa51-0xa52 (1)
      |                                               |                |    [104]{}: bound 0xa52-0xa65 (19)
0x0a50|      11                                       |  .             |      timestamp_delta: 16 (17) 0xa52-0xa53 (1)
      |                                               |                |      timestamp: 7863 (1970-01-01T02:11:03Z)
0x0a50|         00                                    |   .            |      id_prefix_size: 0 0xa53-0xa54 (1)
0x0a50|            01                                 |    .           |      mode: "fingerprint" (1) 0xa54-0xa55 (1)
0x0a50|               fb b8 f6 fa 42 b1 f2 68 34 0d bb|     ....B..h4..|      fingerprint: "fbb8f6fa42b1f268340dbbf2c7f09041" (raw bits) 0xa55-0xa65 (16)
0x0a60|f2 c7 f0 90 41                                 |....A           |
      |                                               |                |    [105]{}: bound 0xa65-0xa78 (19)
0x0a60|               11                              |     .          |      timestamp_delta: 16 (17) 0xa65-0xa66 (1)
      |                                               |                |      timestamp: 7879 (1970-01-01T02:11:19Z)
0x0a60|                  00                           |      .         |      id_prefix_size: 0 0xa66-0xa67 (1)
0x0a60|                     01                        |       .        |      mode: "fingerprint" (1) 0xa67-0xa68 (1)
0x0a60|                        4d b0 6a 05 e6 ca 6d f3|        M.j...m.|      fingerprint: "4db06a05e6ca6df33f485c5b93589a0d" (raw bits) 0xa68-0xa78 (16)
0x0a70|3f 48 5c 5b 93 58 9a 0d                        |?H\[.X..        |
      |                                               |                |    [106]{}: bound 0xa78-0xa8b (19)
0x0a70|                        11                     |        .       |      timestamp_delta: 16 (17) 0xa78-0xa79 (1)
      |                                               |                |      timestamp: 7895 (1970-01-01T02:11:35Z)
0x0a70|                           00                  |         .      |      id_prefix_size: 0 0xa79-0xa7a (1)
0x0a70|                              01               |          .     |      mode: "fingerprint" (1) 0xa7a-0xa7b (1)
0x0a70|                                 79 4f 02 89 f0|           yO...|      fingerprint: "794f0289f0416f4e787ec335e9dfde3f" (raw bits) 0xa7b-0xa8b (16)
0x0a80|41 6f 4e 78 7e c3 35 e9 df de 3f               |AoNx~.5...?     |
      |                                               |                |    [107]{}: bound 0xa8b-0xa9e (19)
0x0a80|                                 11            |           .    |      timestamp_delta: 16 (17) 0xa8b-0xa8c (1)
      |                                               |                |      timestamp: 7911 (1970-01-01T02:11:51Z)
0x0a80|                                    00         |            .   |      id_prefix_size: 0 0xa8c-0xa8d (1)
0x0a80|                                       01      |             .  |      mode: "fingerprint" (1) 0xa8d-0xa8e (1)
0x0a80|                                          90 ec|              ..|      fingerprint: "90ec216d90ef07d10c73e437f8374654" (raw bits) 0xa8e-0xa9e (16)
0x0a90|21 6d 90 ef 07 d1 0c 73 e4 37 f8 37 46 54      |!m.....s.7.7FT  |
      |                                               |                |    [108]{}: bound 0xa9e-0xab1 (19)
0x0a90|                                          11   |              . |      timestamp_delta: 16 (17) 0xa9e-0xa9f (1)
      |                                               |                |      timestamp: 7927 (1970-01-01T02:12:07Z)
0x0a90|                                             00|               .|      id_prefix_size: 0 0xa9f-0xaa0 (1)
0x0aa0|01                                             |.               |      mode: "fingerprint" (1) 0xaa0-0xaa1 (1)
0x0aa0|   d2 b8 e0 6f 20 17 6e 21 de 8a 3b 58 cd ce 40| ...o .n!..;X..@|      fingerprint: "d2b8e06f20176e21de8a3b58cdce4099" (raw bits) 0xaa1-0xab1 (16)
0x0ab0|99                                             |.               |
      |                                               |                |    [109]{}: bound 0xab1-0xac4 (19)
0x0ab0|   11                                          | .              |      timestamp_delta: 16 (17) 0xab1-0xab2 (1)
      |                                               |                |      timestamp: 7943 (1970-01-01T02:12:23Z)
0x0ab0|      00                                       |  .             |      id_prefix_size: 0 0xab2-0xab3 (1)
0x0ab0|         01                                    |   .            |      mode: "fingerprint" (1) 0xab3-0xab4 (1)
0x0ab0|            3e 70 e1 d0 8b ed 7d 62 06 db e5 b9|    >p....}b....|      fingerprint: "3e70e1d08bed7d6206dbe5b9fe7e62ff" (raw bits) 0xab4-0xac4 (16)
0x0ac0|fe 7e 62 ff                                    |.~b.            |
      |                                               |                |    [110]{}: bound 0xac4-0xad7 (19)
0x0ac0|            11                                 |    .           |      timestamp_delta: 16 (17) 0xac4-0xac5 (1)
      |                                               |                |      timestamp: 7959 (1970-01-01T02:12:39Z)
0x0ac0|               00                              |     .          |      id_prefix_size: 0 0xac5-0xac6 (1)
0x0ac0|                  01                           |      .         |      mode: "fingerprint" (1) 0xac6-0xac7 (1)
0x0ac0|                     58 2c 74 c6 24 0a f9 e9 ff|       X,t.$....|      fingerprint: "582c74c6240af9e9ff4626a42c7b2a05" (raw bits) 0xac7-0xad7 (16)
0x0ad0|46 26 a4 2c 7b 2a 05                           |F&.,{*.         |
      |                                               |                |    [111]{}: bound 0xad7-0xaea (19)
0x0ad0|                     11                        |       .        |      timestamp_delta: 16 (17) 0xad7-0xad8 (1)
      |                                               |                |      timestamp: 7975 (1970-01-01T02:12:55Z)
0x0ad0|                        00                     |        .       |      id_prefix_size: 0 0xad8-0xad9 (1)
0x0ad0|                           01                  |         .      |      mode: "fingerprint" (1) 0xad9-0xada (1)
0x0ad0|                              3c 21 a7 e0 02 82|          <!....|      fingerprint: "3c21a7e00282ee81b1aa5c3a32221aac" (raw bits) 0xada-0xaea (16)
0x0ae0|ee 81 b1 aa 5c 3a 32 22 1a ac                  |....\:2"..      |
      |                                               |                |    [112]{}: bound 0xaea-0xafd (19)
0x0ae0|                              11               |          .     |      timestamp_delta: 16 (17) 0xaea-0xaeb (1)
      |                                               |                |      timestamp: 7991 (1970-01-01T02:13:11Z)
0x0ae0|                                 00            |           .    |      id_prefix_size: 0 0xaeb-0xaec (1)
0x0ae0|                                    01         |            .   |      mode: "fingerprint" (1) 0xaec-0xaed (1)
0x0ae0|                                       2b b2 dd|             +..|      fingerprint: "2bb2dd0e29fcde60c605fae600816788" (raw bits) 0xaed-0xafd (16)
0x0af0|0e 29 fc de 60 c6 05 fa e6 00 81 67 88         |.)..`......g.   |
      |                                               |                |    [113]{}: bound 0xafd-0xb10 (19)
0x0af0|                                       11      |             .  |      timestamp_delta: 16 (17) 0xafd-0xafe (1)
      |                                               |                |      timestamp: 8007 (1970-01-01T02:13:27Z)
0x0af0|                                          00   |              . |      id_prefix_size: 0 0xafe-0xaff (1)
0x0af0|                                             01|               .|      mode: "fingerprint" (1) 0xaff-0xb00 (1)
0x0b00|41 66 89 f2 ba ff ce d9 59 15 29 70 df 68 a9 fd|Af......Y.)p.h..|      fingerprint: "416689f2baffced959152970df68a9fd" (raw bits) 0xb00-0xb10 (16)
      |                                               |                |    [114]{}: bound 0xb10-0xb23 (19)
0x0b10|11                                             |.               |      timestamp_delta: 16 (17) 0xb10-0xb11 (1)
      |                                               |                |      timestamp: 8023 (1970-01-01T02:13:43Z)
0x0b10|   00                                          | .              |      id_prefix_size: 0 0xb11-0xb12 (1)
0x0b10|      01                                       |  .             |      mode: "fingerprint" (1) 0xb12-0xb13 (1)
0x0b10|         a1 f8 ed cb 2a ee 51 90 ef 67 2a c9 64|   ....*.Q..g*.d|      fingerprint: "a1f8edcb2aee5190ef672ac9644d1b5a" (raw bits) 0xb13-0xb23 (16)
0x0b20|4d 1b 5a                                       |M.Z             |
      |                                               |                |    [115]{}: bound 0xb23-0xb36 (19)
0x0b20|         11                                    |   .            |      timestamp_delta: 16 (17) 0xb23-0xb24 (1)
      |                                               |                |      timestamp: 8039 (1970-01-01T02:13:59Z)
0x0b20|            00                                 |    .           |      id_prefix_size: 0 0xb24-0xb25 (1)
0x0b20|               01                              |     .          |      mode: "fingerprint" (1) 0xb25-0xb26 (1)
0x0b20|                  e1 ad c0 ff 43 4c bf a5 46 52|      ....CL..FR|      fingerprint: "e1adc0ff434cbfa546523d6ec1b93761" (raw bits) 0xb26-0xb36 (16)
0x0b30|3d 6e c1 b9 37 61                              |=n..7a          |
      |                                               |                |    [116]{}: bound 0xb36-0xb49 (19)
0x0b30|                  11                           |      .         |      timestamp_delta: 16 (17) 0xb36-0xb37 (1)
      |                                               |                |      timestamp: 8055 (1970-01-01T02:14:15Z)
0x0b30|                     00                        |       .        |      id_prefix_size: 0 0xb37-0xb38 (1)
0x0b30|                        01                     |        .       |      mode: "fingerprint" (1) 0xb38-0xb39 (1)
0x0b30|                           86 46 1b f6 98 68 81|         .F...h.|      fingerprint: "86461bf6986881151611ef41fa08df5e" (raw bits) 0xb39-0xb49 (16)
0x0b40|15 16 11 ef 41 fa 08 df 5e                     |....A...^       |
      |                                               |                |    [117]{}: bound 0xb49-0xb5c (19)
0x0b40|                           10                  |         .      |      timestamp_delta: 15 (16) 0xb49-0xb4a (1)
      |                                               |                |      timestamp: 8070 (1970-01-01T02:14:30Z)
0x0b40|                              00               |          .     |      id_prefix_size: 0 0xb4a-0xb4b (1)
0x0b40|                                 01            |           .    |      mode: "fingerprint" (1) 0xb4b-0xb4c (1)
0x0b40|                                    f5 ce 8e 88|            ....|      fingerprint: "f5ce8e88aef3bd11579ff38164f91871" (raw bits) 0xb4c-0xb5c (16)
0x0b50|ae f3 bd 11 57 9f f3 81 64 f9 18 71            |....W...d..q    |
      |                                               |                |    [118]{}: bound 0xb5c-0xb6f (19)
0x0b50|                                    10         |            .   |      timestamp_delta: 15 (16) 0xb5c-0xb5d (1)
      |                                               |                |      timestamp: 8085 (1970-01-01T02:14:45Z)
0x0b50|                                       00      |             .  |      id_prefix_size: 0 0xb5d-0xb5e (1)
0x0b50|                                          01   |              . |      mode: "fingerprint" (1) 0xb5e-0xb5f (1)
0x0b50|                                             59|               Y|      fingerprint: "591ce9a8e857b78078dde5d3d20dc2c9" (raw bits) 0xb5f-0xb6f (16)
0x0b60|1c e9 a8 e8 57 b7 80 78 dd e5 d3 d2 0d c2 c9   |....W..x....... |
      |                                               |                |    [119]{}: bound 0xb6f-0xb83 (20)
0x0b60|                                             90|               .|      timestamp_delta: 2053 (2054) 0xb6f-0xb71 (2)
0x0b70|06                                             |.               |
      |                                               |                |      timestamp: 10138 (1970-01-01T02:48:58Z)
0x0b70|   00                                          | .              |      id_prefix_size: 0 0xb71-0xb72 (1)
0x0b70|      01                                       |  .             |      mode: "fingerprint" (1) 0xb72-0xb73 (1)
0x0b70|         87 58 c5 cc 2b c5 6d 53 5f d0 ab 4e 3e|   .X..+.mS_..N>|      fingerprint: "8758c5cc2bc56d535fd0ab4e3e7c844a" (raw bits) 0xb73-0xb83 (16)
0x0b80|7c 84 4a                                       ||.J             |
      |                                               |                |    [120]{}: bound 0xb83-0xb88 (5)
0x0b80|         81 0b                                 |   ..           |      timestamp_delta: 138 (139) 0xb83-0xb85 (2)
      |                                               |                |      timestamp: 10276 (1970-01-01T02:51:16Z)
0x0b80|               00                              |     .          |      id_prefix_size: 0 0xb85-0xb86 (1)
0x0b80|                  02                           |      .         |      mode: "idlist" (2) 0xb86-0xb87 (1)
      |                                               |                |      idlist{}: 0xb87-0xb88 (1)
0x0b80|                     00                        |       .        |        num: 0 0xb87-0xb88 (1)
      |                                               |                |        ids[0:0]: 0xb88-0xb88 (0)
      |                                               |                |    [121]{}: bound 0xb88-0xb8d (5)
0x0b80|                        81 0b                  |        ..      |      timestamp_delta: 138 (139) 0xb88-0xb8a (2)
      |                                               |                |      timestamp: 10414 (1970-01-01T02:53:34Z)
0x0b80|                              00               |          .     |      id_prefix_size: 0 0xb8a-0xb8b (1)
0x0b80|                                 02            |           .    |      mode: "idlist" (2) 0xb8b-0xb8c (1)
      |                                               |                |      idlist{}: 0xb8c-0xb8d (1)
0x0b80|                                    00         |            .   |        num: 0 0xb8c-0xb8d (1)
      |                                               |                |        ids[0:0]: 0xb8d-0xb8d (0)
      |                                               |                |    [122]{}: bound 0xb8d-0xb92 (5)
0x0b80|                                       81 0b   |             .. |      timestamp_delta: 138 (139) 0xb8d-0xb8f (2)
      |                                               |                |      timestamp: 10552 (1970-01-01T02:55:52Z)
0x0b80|                                             00|               .|      id_prefix_size: 0 0xb8f-0xb90 (1)
0x0b90|02                                             |.               |      mode: "idlist" (2) 0xb90-0xb91 (1)
      |                                               |                |      idlist{}: 0xb91-0xb92 (1)
0x0b90|   00                                          | .              |        num: 0 0xb91-0xb92 (1)
      |                                               |                |        ids[0:0]: 0xb92-0xb92 (0)
      |                                               |                |    [123]{}: bound 0xb92-0xb97 (5)
0x0b90|      81 0b                                    |  ..            |      timestamp_delta: 138 (139) 0xb92-0xb94 (2)
      |                                               |                |      timestamp: 10690 (1970-01-01T02:58:10Z)
0x0b90|            00                                 |    .           |      id_prefix_size: 0 0xb94-0xb95 (1)
0x0b90|               02                              |     .          |      mode: "idlist" (2) 0xb95-0xb96 (1)
      |                                               |                |      idlist{}: 0xb96-0xb97 (1)
0x0b90|                  00                           |      .         |        num: 0 0xb96-0xb97 (1)
      |                                               |                |        ids[0:0]: 0xb97-0xb97 (0)
      |                                               |                |    [124]{}: bound 0xb97-0xb9c (5)
0x0b90|                     81 0b                     |       ..       |      timestamp_delta: 138 (139) 0xb97-0xb99 (2)
      |                                               |                |      timestamp: 10828 (1970-01-01T03:00:28Z)
0x0b90|                           00                  |         .      |      id_prefix_size: 0 0xb99-0xb9a (1)
0x0b90|                              02               |          .     |      mode: "idlist" (2) 0xb9a-0xb9b (1)
      |                                               |                |      idlist{}: 0xb9b-0xb9c (1)
0x0b90|                                 00            |           .    |        num: 0 0xb9b-0xb9c (1)
      |                                               |                |        ids[0:0]: 0xb9c-0xb9c (0)
      |                                               |                |    [125]{}: bound 0xb9c-0xba1 (5)
0x0b90|                                    81 0b      |            ..  |      timestamp_delta: 138 (139) 0xb9c-0xb9e (2)
      |                                               |                |      timestamp: 10966 (1970-01-01T03:02:46Z)
0x0b90|                                          00   |              . |      id_prefix_size: 0 0xb9e-0xb9f (1)
0x0b90|                                             02|               .|      mode: "idlist" (2) 0xb9f-0xba0 (1)
      |                                               |                |      idlist{}: 0xba0-0xba1 (1)
0x0ba0|00                                             |.               |        num: 0 0xba0-0xba1 (1)
      |                                               |                |        ids[0:0]: 0xba1-0xba1 (0)
      |                                               |                |    [126]{}: bound 0xba1-0xba6 (5)
0x0ba0|   81 0b                                       | ..             |      timestamp_delta: 138 (139) 0xba1-0xba3 (2)
      |                                               |                |      timestamp: 11104 (1970-01-01T03:05:04Z)
0x0ba0|         00                                    |   .            |      id_prefix_size: 0 0xba3-0xba4 (1)
0x0ba0|            02                                 |    .           |      mode: "idlist" (2) 0xba4-0xba5 (1)
      |                                               |                |      idlist{}: 0xba5-0xba6 (1)
0x0ba0|               00                              |     .          |        num: 0 0xba5-0xba6 (1)
      |                                               |                |        ids[0:0]: 0xba6-0xba6 (0)
      |                                               |                |    [127]{}: bound 0xba6-0xbab (5)
0x0ba0|                  81 0b                        |      ..        |      timestamp_delta: 138 (139) 0xba6-0xba8 (2)
      |                                               |                |      timestamp: 11242 (1970-01-01T03:07:22Z)
0x0ba0|                        00                     |        .       |      id_prefix_size: 0 0xba8-0xba9 (1)
0x0ba0|                           02                  |         .      |      mode: "idlist" (2) 0xba9-0xbaa (1)
      |                                               |                |      idlist{}: 0xbaa-0xbab (1)
0x0ba0|                              00               |          .     |        num: 0 0xbaa-0xbab (1)
      |                                               |                |        ids[0:0]: 0xbab-0xbab (0)
      |                                               |                |    [128]{}: bound 0xbab-0xbb0 (5)
0x0ba0|                                 81 0b         |           ..   |      timestamp_delta: 138 (139) 0xbab-0xbad (2)
      |                                               |                |      timestamp: 11380 (1970-01-01T03:09:40Z)
0x0ba0|                                       00      |             .  |      id_prefix_size: 0 0xbad-0xbae (1)
0x0ba0|                                          02   |              . |      mode: "idlist" (2) 0xbae-0xbaf (1)
      |                                               |                |      idlist{}: 0xbaf-0xbb0 (1)
0x0ba0|                                             00|               .|        num: 0 0xbaf-0xbb0 (1)
      |                                               |                |        ids[0:0]: 0xbb0-0xbb0 (0)
      |                                               |                |    [129]{}: bound 0xbb0-0xbb5 (5)
0x0bb0|81 0a                                          |..              |      timestamp_delta: 137 (138) 0xbb0-0xbb2 (2)
      |                                               |                |      timestamp: 11517 (1970-01-01T03:11:57Z)
0x0bb0|      00                                       |  .             |      id_prefix_size: 0 0xbb2-0xbb3 (1)
0x0bb0|         02                                    |   .            |      mode: "idlist" (2) 0xbb3-0xbb4 (1)
      |                                               |                |      idlist{}: 0xbb4-0xbb5 (1)
0x0bb0|            00                                 |    .           |        num: 0 0xbb4-0xbb5 (1)
      |                                               |                |        ids[0:0]: 0xbb5-0xbb5 (0)
      |                                               |                |    [130]{}: bound 0xbb5-0xbba (5)
0x0bb0|               81 0a                           |     ..         |      timestamp_delta: 137 (138) 0xbb5-0xbb7 (2)
      |                                               |                |      timestamp: 11654 (1970-01-01T03:14:14Z)
0x0bb0|                     00                        |       .        |      id_prefix_size: 0 0xbb7-0xbb8 (1)
0x0bb0|                        02                     |        .       |      mode: "idlist" (2) 0xbb8-0xbb9 (1)
      |                                               |                |      idlist{}: 0xbb9-0xbba (1)
0x0bb0|                           00                  |         .      |        num: 0 0xbb9-0xbba (1)
      |                                               |                |        ids[0:0]: 0xbba-0xbba (0)
      |                                               |                |    [131]{}: bound 0xbba-0xbbf (5)
0x0bb0|                              81 0a            |          ..    |      timestamp_delta: 137 (138) 0xbba-0xbbc (2)
      |                                               |                |      timestamp: 11791 (1970-01-01T03:16:31Z)
0x0bb0|                                    00         |            .   |      id_prefix_size: 0 0xbbc-0xbbd (1)
0x0bb0|                                       02      |             .  |      mode: "idlist" (2) 0xbbd-0xbbe (1)
      |                                               |                |      idlist{}: 0xbbe-0xbbf (1)
0x0bb0|                                          00   |              . |        num: 0 0xbbe-0xbbf (1)
      |                                               |                |        ids[0:0]: 0xbbf-0xbbf (0)
      |                                               |                |    [132]{}: bound 0xbbf-0xbc4 (5)
0x0bb0|                                             81|               .|      timestamp_delta: 137 (138) 0xbbf-0xbc1 (2)
0x0bc0|0a                                             |.               |
      |                                               |                |      timestamp: 11928 (1970-01-01T03:18:48Z)
0x0bc0|   00                                          | .              |      id_prefix_size: 0 0xbc1-0xbc2 (1)
0x0bc0|      02                                       |  .             |      mode: "idlist" (2) 0xbc2-0xbc3 (1)
      |                                               |                |      idlist{}: 0xbc3-0xbc4 (1)
0x0bc0|         00                                    |   .            |        num: 0 0xbc3-0xbc4 (1)
      |                                               |                |        ids[0:0]: 0xbc4-0xbc4 (0)
      |                                               |                |    [133]{}: bound 0xbc4-0xbc9 (5)
0x0bc0|            81 0a                              |    ..          |      timestamp_delta: 137 (138) 0xbc4-0xbc6 (2)
      |                                               |                |      timestamp: 12065 (1970-01-01T03:21:05Z)
0x0bc0|                  00                           |      .         |      id_prefix_size: 0 0xbc6-0xbc7 (1)
0x0bc0|                     02                        |       .        |      mode: "idlist" (2) 0xbc7-0xbc8 (1)
      |                                               |                |      idlist{}: 0xbc8-0xbc9 (1)
0x0bc0|                        00                     |        .       |        num: 0 0xbc8-0xbc9 (1)
      |                                               |                |        ids[0:0]: 0xbc9-0xbc9 (0)
      |                                               |                |    [134]{}: bound 0xbc9-0xd8e (453)
0x0bc0|                           8d 56               |         .V     |      timestamp_delta: 1749 (1750) 0xbc9-0xbcb (2)
      |                                               |                |      timestamp: 13814 (1970-01-01T03:50:14Z)
0x0bc0|                                 00            |           .    |      id_prefix_size: 0 0xbcb-0xbcc (1)
0x0bc0|                                    02         |            .   |      mode: "idlist" (2) 0xbcc-0xbcd (1)
      |                                               |                |      idlist{}: 0xbcd-0xd8e (449)
0x0bc0|                                       0e      |             .  |        num: 14 0xbcd-0xbce (1)
      |                                               |                |        ids[0:14]: 0xbce-0xd8e (448)
0x0bc0|                                          00 00|              ..|          [0]: "0000000000000000000000000000000000000000000000000000000000013800" (raw bits) id 0xbce-0xbee (32)
0x0bd0|00 00 00 00 00 00 00 00 00 00 00 00 00 00 00 00|................|
0x0be0|00 00 00 00 00 00 00 00 00 00 00 01 38 00      |............8.  |
0x0be0|                                          00 00|              ..|          [1]: "0000000000000000000000000000000000000000000000000000000000013801" (raw bits) id 0xbee-0xc0e (32)
0x0bf0|00 00 00 00 00 00 00 00 00 00 00 00 00 00 00 00|................|
0x0c00|00 00 00 00 00 00 00 00 00 00 00 01 38 01      |............8.  |
0x0c00|                                          00 00|              ..|          [2]: "0000000000000000000000000000000000000000000000000000000000013802" (raw bits) id 0xc0e-0xc2e (32)
0x0c10|00 00 00 00 00 00 00 00 00 00 00 00 00 00 00 00|................|
0x0c20|00 00 00 00 00 00 00 00 00 00 00 01 38 02      |............8.  |
0x0c20|                                          00 00|              ..|          [3]: "0000000000000000000000000000000000000000000000000000000000013803" (raw bits) id 0xc2e-0xc4e (32)
0x0c30|00 00 00 00 00 00 00 00 00 00 00 00 00 00 00 00|................|
0x0c40|00 00 00 00 00 00 00 00 00 00 00 01 38 03      |............8.  |
0x0c40|                                          00 00|              ..|          [4]: "0000000000000000000000000000000000000000000000000000000000013804" (raw bits) id 0xc4e-0xc6e (32)
0x0c50|00 00 00 00 00 00 00 00 00 00 00 00 00 00 00 00|................|
0x0c60|00 00 00 00 00 00 00 00 00 00 00 01 38 04      |............8.  |
0x0c60|                                          00 00|              ..|          [5]: "0000000000000000000000000000000000000000000000000000000000013805" (raw bits) id 0xc6e-0xc8e (32)
0x0c70|00 00 00 00 00 00 00 00 00 00 00 00 00 00 00 00|................|
0x0c80|00 00 00 00 00 00 00 00 00 00 00 01 38 05      |............8.  |
0x0c80|                                          00 00|              ..|          [6]: "0000000000000000000000000000000000000000000000000000000000013806" (raw bits) id 0xc8e-0xcae (32)
0x0c90|00 00 00 00 00 00 00 00 00 00 00 00 00 00 00 00|................|
0x0ca0|00 00 00 00 00 00 00 00 00 00 00 01 38 06      |............8.  |
0x0ca0|                                          00 00|              ..|          [7]: "0000000000000000000000000000000000000000000000000000000000013807" (raw bits) id 0xcae-0xcce (32)
0x0cb0|00 00 00 00 00 00 00 00 00 00 00 00 00 00 00 00|................|
0x0cc0|00 00 00 00 00 00 00 00 00 00 00 01 38 07      |............8.  |
0x0cc0|                                          00 00|              ..|          [8]: "0000000000000000000000000000000000000000000000000000000000013808" (raw bits) id 0xcce-0xcee (32)
0x0cd0|00 00 00 00 00 00 00 00 00 00 00 00 00 00 00 00|................|
0x0ce0|00 00 00 00 00 00 00 00 00 00 00 01 38 08      |............8.  |
0x0ce0|                                          00 00|              ..|          [9]: "0000000000000000000000000000000000000000000000000000000000013809" (raw bits) id 0xcee-0xd0e (32)
0x0cf0|00 00 00 00 00 00 00 00 00 00 00 00 00 00 00 00|................|
0x0d00|00 00 00 00 00 00 00 00 00 00 00 01 38 09      |............8.  |
0x0d00|                                          00 00|              ..|          [10]: "0000000000000000000000000000000000000000000000000000000000013810" (raw bits) id 0xd0e-0xd2e (32)
0x0d10|00 00 00 00 00 00 00 00 00 00 00 00 00 00 00 00|................|
0x0d20|00 00 00 00 00 00 00 00 00 00 00 01 38 10      |............8.  |
0x0d20|                                          00 00|              ..|          [11]: "0000000000000000000000000000000000000000000000000000000000013811" (raw bits) id 0xd2e-0xd4e (32)
0x0d30|00 00 00 00 00 00 00 00 00 00 00 00 00 00 00 00|................|
0x0d40|00 00 00 00 00 00 00 00 00 00 00 01 38 11      |............8.  |
0x0d40|                                          00 00|              ..|          [12]: "0000000000000000000000000000000000000000000000000000000000013812" (raw bits) id 0xd4e-0xd6e (32)
0x0d50|00 00 00 00 00 00 00 00 00 00 00 00 00 00 00 00|................|
0x0d60|00 00 00 00 00 00 00 00 00 00 00 01 38 12      |............8.  |
0x0d60|                                          00 00|              ..|          [13]: "0000000000000000000000000000000000000000000000000000000000013813" (raw bits) id 0xd6e-0xd8e (32)
0x0d70|00 00 00 00 00 00 00 00 00 00 00 00 00 00 00 00|................|
0x0d80|00 00 00 00 00 00 00 00 00 00 00 01 38 13      |............8.  |
      |                                               |                |    [135]{}: bound 0xd8e-0xd92 (4)
0x0d80|                                          86 23|              .#|      timestamp_delta: 802 (803) 0xd8e-0xd90 (2)
      |                                               |                |      timestamp: 14616 (1970-01-01T04:03:36Z)
0x0d90|00                                             |.               |      id_prefix_size: 0 0xd90-0xd91 (1)
0x0d90|   00                                          | .              |      mode: "skip" (0) 0xd91-0xd92 (1)
      |                                               |                |    [136]{}: bound 0xd92-0xda5 (19)
0x0d90|      0d                                       |  .             |      timestamp_delta: 12 (13) 0xd92-0xd93 (1)
      |                                               |                |      timestamp: 14628 (1970-01-01T04:03:48Z)
0x0d90|         00                                    |   .            |      id_prefix_size: 0 0xd93-0xd94 (1)
0x0d90|            01                                 |    .           |      mode: "fingerprint" (1) 0xd94-0xd95 (1)
0x0d90|               41 ab cc e3 60 bb f4 6a 99 83 9f|     A...`..j...|      fingerprint: "41abcce360bbf46a99839fcf848dc61e" (raw bits) 0xd95-0xda5 (16)
0x0da0|cf 84 8d c6 1e                                 |.....           |
      |                                               |                |    [137]{}: bound 0xda5-0xdb8 (19)
0x0da0|               0d                              |     .          |      timestamp_delta: 12 (13) 0xda5-0xda6 (1)
      |                                               |                |      timestamp: 14640 (1970-01-01T04:04:00Z)
0x0da0|                  00                           |      .         |      id_prefix_size: 0 0xda6-0xda7 (1)
0x0da0|                     01                        |       .        |      mode: "fingerprint" (1) 0xda7-0xda8 (1)
0x0da0|                        06 23 d9 e9 b2 15 07 e7|        .#......|      fingerprint: "0623d9e9b21507e7a846827fcc42c146" (raw bits) 0xda8-0xdb8 (16)
0x0db0|a8 46 82 7f cc 42 c1 46                        |.F...B.F        |
      |                                               |                |    [138]{}: bound 0xdb8-0xdcb (19)
0x0db0|                        0d                     |        .       |      timestamp_delta: 12 (13) 0xdb8-0xdb9 (1)
      |                                               |                |      timestamp: 14652 (1970-01-01T04:04:12Z)
0x0db0|                           00                  |         .      |      id_prefix_size: 0 0xdb9-0xdba (1)
0x0db0|                              01               |          .     |      mode: "fingerprint" (1) 0xdba-0xdbb (1)
0x0db0|                                 89 c0 67 6f 62|           ..gob|      fingerprint: "89c0676f62f517b301988b8b34743ca6" (raw bits) 0xdbb-0xdcb (16)
0x0dc0|f5 17 b3 01 98 8b 8b 34 74 3c a6               |.......4t<.     |
      |                                               |                |    [139]{}: bound 0xdcb-0xdde (19)
0x0dc0|                                 0d            |           .    |      timestamp_delta: 12 (13) 0xdcb-0xdcc (1)
      |                                               |                |      timestamp: 14664 (1970-01-01T04:04:24Z)
0x0dc0|                                    00         |            .   |      id_prefix_size: 0 0xdcc-0xdcd (1)
0x0dc0|                                       01      |             .  |      mode: "fingerprint" (1) 0xdcd-0xdce (1)
0x0dc0|                                          67 b1|              g.|      fingerprint: "67b1583666c90373946a2af4319da017" (raw bits) 0xdce-0xdde (16)
0x0dd0|58 36 66 c9 03 73 94 6a 2a f4 31 9d a0 17      |X6f..s.j*.1...  |
      |                                               |                |    [140]{}: bound 0xdde-0xdf1 (19)
0x0dd0|                                          0d   |              . |      timestamp_delta: 12 (13) 0xdde-0xddf (1)
      |                                               |                |      timestamp: 14676 (1970-01-01T04:04:36Z)
0x0dd0|                                             00|               .|      id_prefix_size: 0 0xddf-0xde0 (1)
0x0de0|01                                             |.               |      mode: "fingerprint" (1) 0xde0-0xde1 (1)
0x0de0|   ff c8 32 dd 79 9c 4c b5 e1 6a 41 75 61 28 b9| ..2.y.L..jAua(.|      fingerprint: "ffc832dd799c4cb5e16a41756128b9d3" (raw bits) 0xde1-0xdf1 (16)
0x0df0|d3                                             |.               |
      |                                               |                |    [141]{}: bound 0xdf1-0xe04 (19)
0x0df0|   0d                                          | .              |      timestamp_delta: 12 (13) 0xdf1-0xdf2 (1)
      |                                               |                |      timestamp: 14688 (1970-01-01T04:04:48Z)
0x0df0|      00                                       |  .             |      id_prefix_size: 0 0xdf2-0xdf3 (1)
0x0df0|         01                                    |   .            |      mode: "fingerprint" (1) 0xdf3-0xdf4 (1)
0x0df0|            e5 b8 17 7c d2 d2 95 dc f5 fd ab b0|    ...|........|      fingerprint: "e5b8177cd2d295dcf5fdabb0dea332de" (raw bits) 0xdf4-0xe04 (16)
0x0e00|de a3 32 de                                    |..2.            |
      |                                               |                |    [142]{}: bound 0xe04-0xe17 (19)
0x0e00|            0d                                 |    .           |      timestamp_delta: 12 (13) 0xe04-0xe05 (1)
      |                                               |                |      timestamp: 14700 (1970-01-01T04:05:00Z)
0x0e00|               00                              |     .          |      id_prefix_size: 0 0xe05-0xe06 (1)
0x0e00|                  01                           |      .         |      mode: "fingerprint" (1) 0xe06-0xe07 (1)
0x0e00|                     0d ba 05 8d d1 77 7a 90 51|       .....wz.Q|      fingerprint: "0dba058dd1777a905107797494ecc78b" (raw bits) 0xe07-0xe17 (16)
0x0e10|07 79 74 94 ec c7 8b                           |.yt....         |
      |                                               |                |    [143]{}: bound 0xe17-0xe2a (19)
0x0e10|                     0d                        |       .        |      timestamp_delta: 12 (13) 0xe17-0xe18 (1)
      |                                               |                |      timestamp: 14712 (1970-01-01T04:05:12Z)
0x0e10|                        00                     |        .       |      id_prefix_size: 0 0xe18-0xe19 (1)
0x0e10|                           01                  |         .      |      mode: "fingerprint" (1) 0xe19-0xe1a (1)
0x0e10|                              ae db a4 01 c0 1a|          ......|      fingerprint: "aedba401c01a4880f07a25119e68dbd2" (raw bits) 0xe1a-0xe2a (16)
0x0e20|48 80 f0 7a 25 11 9e 68 db d2                  |H..z%..h..      |
      |                                               |                |    [144]{}: bound 0xe2a-0xe3d (19)
0x0e20|                              0d               |          .     |      timestamp_delta: 12 (13) 0xe2a-0xe2b (1)
      |                                               |                |      timestamp: 14724 (1970-01-01T04:05:24Z)
0x0e20|                                 00            |           .    |      id_prefix_size: 0 0xe2b-0xe2c (1)
0x0e20|                                    01         |            .   |      mode: "fingerprint" (1) 0xe2c-0xe2d (1)
0x0e20|                                       be 9c d1|             ...|      fingerprint: "be9cd156ef07fd83428444240bd15af8" (raw bits) 0xe2d-0xe3d (16)
0x0e30|56 ef 07 fd 83 42 84 44 24 0b d1 5a f8         |V....B.D$..Z.   |
      |                                               |                |    [145]{}: bound 0xe3d-0xe50 (19)
0x0e30|                                       0d      |             .  |      timestamp_delta: 12 (13) 0xe3d-0xe3e (1)
      |                                               |                |      timestamp: 14736 (1970-01-01T04:05:36Z)
0x0e30|                                          00   |              . |      id_prefix_size: 0 0xe3e-0xe3f (1)
0x0e30|                                             01|               .|      mode: "fingerprint" (1) 0xe3f-0xe40 (1)
0x0e40|23 e3 e5 d7 c6 b8 07 6e dc a2 46 1f dd 41 f7 0e|#......n..F..A..|      fingerprint: "23e3e5d7c6b8076edca2461fdd41f70e" (raw bits) 0xe40-0xe50 (16)
      |                                               |                |    [146]{}: bound 0xe50-0xe63 (19)
0x0e50|0d                                             |.               |      timestamp_delta: 12 (13) 0xe50-0xe51 (1)
      |                                               |                |      timestamp: 14748 (1970-01-01T04:05:48Z)
0x0e50|   00                                          | .              |      id_prefix_size: 0 0xe51-0xe52 (1)
0x0e50|      01                                       |  .             |      mode: "fingerprint" (1) 0xe52-0xe53 (1)
0x0e50|         cf 9c bd 4e ef 1b 28 21 ee db 25 2d 44|   ...N..(!..%-D|      fingerprint: "cf9cbd4eef1b2821eedb252d446b7a5d" (raw bits) 0xe53-0xe63 (16)
0x0e60|6b 7a 5d                                       |kz]             |
      |                                               |                |    [147]{}: bound 0xe63-0xe76 (19)
0x0e60|         0d                                    |   .            |      timestamp_delta: 12 (13) 0xe63-0xe64 (1)
      |                                               |                |      timestamp: 14760 (1970-01-01T04:06:00Z)
0x0e60|            00                                 |    .           |      id_prefix_size: 0 0xe64-0xe65 (1)
0x0e60|               01                              |     .          |      mode: "fingerprint" (1) 0xe65-0xe66 (1)
0x0e60|                  b7 18 9e 59 9a d7 3c ae 48 28|      ...Y..<.H(|      fingerprint: "b7189e599ad73cae4828dd357755093c" (raw bits) 0xe66-0xe76 (16)
0x0e70|dd 35 77 55 09 3c                              |.5wU.<          |
      |                                               |                |    [148]{}: bound 0xe76-0xe89 (19)
0x0e70|                  0d                           |      .         |      timestamp_delta: 12 (13) 0xe76-0xe77 (1)
      |                                               |                |      timestamp: 14772 (1970-01-01T04:06:12Z)
0x0e70|                     00                        |       .        |      id_prefix_size: 0 0xe77-0xe78 (1)
0x0e70|                        01                     |        .       |      mode: "fingerprint" (1) 0xe78-0xe79 (1)
0x0e70|                           0a 35 31 9c fc 78 f1|         .51..x.|      fingerprint: "0a35319cfc78f177e622e9531c4535eb" (raw bits) 0xe79-0xe89 (16)
0x0e80|77 e6 22 e9 53 1c 45 35 eb                     |w.".S.E5.       |
      |                                               |                |    [149]{}: bound 0xe89-0xe9c (19)
0x0e80|                           0d                  |         .      |      timestamp_delta: 12 (13) 0xe89-0xe8a (1)
      |                                               |                |      timestamp: 14784 (1970-01-01T04:06:24Z)
0x0e80|                              00               |          .     |      id_prefix_size: 0 0xe8a-0xe8b (1)
0x0e80|                                 01            |           .    |      mode: "fingerprint" (1) 0xe8b-0xe8c (1)
0x0e80|                                    d7 d4 9f 28|            ...(|      fingerprint: "d7d49f286c932cf0de6876e6f74f8874" (raw bits) 0xe8c-0xe9c (16)
0x0e90|6c 93 2c f0 de 68 76 e6 f7 4f 88 74            |l.,..hv..O.t    |
      |                                               |                |    [150]{}: bound 0xe9c-0xeaf (19)
0x0e90|                                    0c         |            .   |      timestamp_delta: 11 (12) 0xe9c-0xe9d (1)
      |                                               |                |      timestamp: 14795 (1970-01-01T04:06:35Z)
0x0e90|                                       00      |             .  |      id_prefix_size: 0 0xe9d-0xe9e (1)
0x0e90|                                          01   |              . |      mode: "fingerprint" (1) 0xe9e-0xe9f (1)
0x0e90|                                             a8|               .|      fingerprint: "a8553fc21bc6f3315c2bc1bdc721cc07" (raw bits) 0xe9f-0xeaf (16)
0x0ea0|55 3f c2 1b c6 f3 31 5c 2b c1 bd c7 21 cc 07   |U?....1\+...!.. |
      |                                               |                |    [151]{}: bound 0xeaf-0xec2 (19)
0x0ea0|                                             0c|               .|      timestamp_delta: 11 (12) 0xeaf-0xeb0 (1)
      |                                               |                |      timestamp: 14806 (1970-01-01T04:06:46Z)
0x0eb0|00                                             |.               |      id_prefix_size: 0 0xeb0-0xeb1 (1)
0x0eb0|   01                                          | .              |      mode: "fingerprint" (1) 0xeb1-0xeb2 (1)
0x0eb0|      e5 1e ac 79 3f ac 50 9c b7 af 15 b6 2c b3|  ...y?.P.....,.|      fingerprint: "e51eac793fac509cb7af15b62cb35be9" (raw bits) 0xeb2-0xec2 (16)
0x0ec0|5b e9                                          |[.              |
      |                                               |                |    [152]{}: bound 0xec2-0xec5 (3)
0x0ec0|      4e                                       |  N             |      timestamp_delta: 77 (78) 0xec2-0xec3 (1)
      |                                               |                |      timestamp: 14883 (1970-01-01T04:08:03Z)
0x0ec0|         00                                    |   .            |      id_prefix_size: 0 0xec3-0xec4 (1)
0x0ec0|            00                                 |    .           |      mode: "skip" (0) 0xec4-0xec5 (1)
      |                                               |                |    [153]{}: bound 0xec5-0xed8 (19)
0x0ec0|               06                              |     .          |      timestamp_delta: 5 (6) 0xec5-0xec6 (1)
      |                                               |                |      timestamp: 14888 (1970-01-01T04:08:08Z)
0x0ec0|                  00                           |      .         |      id_prefix_size: 0 0xec6-0xec7 (1)
0x0ec0|                     01                        |       .        |      mode: "fingerprint" (1) 0xec7-0xec8 (1)
0x0ec0|                        c7 de 49 7a 3b 86 f7 a1|        ..Iz;...|      fingerprint: "c7de497a3b86f7a17552f4f9c2a8fd57" (raw bits) 0xec8-0xed8 (16)
0x0ed0|75 52 f4 f9 c2 a8 fd 57                        |uR.....W        |
      |                                               |                |    [154]{}: bound 0xed8-0xeeb (19)
0x0ed0|                        06                     |        .       |      timestamp_delta: 5 (6) 0xed8-0xed9 (1)
      |                                               |                |      timestamp: 14893 (1970-01-01T04:08:13Z)
0x0ed0|                           00                  |         .      |      id_prefix_size: 0 0xed9-0xeda (1)
0x0ed0|                              01               |          .     |      mode: "fingerprint" (1) 0xeda-0xedb (1)
0x0ed0|                                 5a 3d a8 56 3e|           Z=.V>|      fingerprint: "5a3da8563ebed6e54e129057e1663e5b" (raw bits) 0xedb-0xeeb (16)
0x0ee0|be d6 e5 4e 12 90 57 e1 66 3e 5b               |...N..W.f>[     |
      |                                               |                |    [155]{}: bound 0xeeb-0xefe (19)
0x0ee0|                                 06            |           .    |      timestamp_delta: 5 (6) 0xeeb-0xeec (1)
      |                                               |                |      timestamp: 14898 (1970-01-01T04:08:18Z)
0x0ee0|                                    00         |            .   |      id_prefix_size: 0 0xeec-0xeed (1)
0x0ee0|                                       01      |             .  |      mode: "fingerprint" (1) 0xeed-0xeee (1)
0x0ee0|                                          22 35|              "5|      fingerprint: "2235e61d2029900931046001a0d8d6be" (raw bits) 0xeee-0xefe (16)
0x0ef0|e6 1d 20 29 90 09 31 04 60 01 a0 d8 d6 be      |.. )..1.`.....  |
      |                                               |                |    [156]{}: bound 0xefe-0xf11 (19)
0x0ef0|                                          05   |              . |      timestamp_delta: 4 (5) 0xefe-0xeff (1)
      |                                               |                |      timestamp: 14902 (1970-01-01T04:08:22Z)
0x0ef0|                                             00|               .|      id_prefix_size: 0 0xeff-0xf00 (1)
0x0f00|01                                             |.               |      mode: "fingerprint" (1) 0xf00-0xf01 (1)
0x0f00|   21 62 e8 8e 7f fc c2 1a e1 ab 28 74 5e cf f8| !b........(t^..|      fingerprint: "2162e88e7ffcc21ae1ab28745ecff8f7" (raw bits) 0xf01-0xf11 (16)
0x0f10|f7                                             |.               |
      |                                               |                |    [157]{}: bound 0xf11-0xf24 (19)
0x0f10|   05                                          | .              |      timestamp_delta: 4 (5) 0xf11-0xf12 (1)
      |                                               |                |      timestamp: 14906 (1970-01-01T04:08:26Z)
0x0f10|      00                                       |  .             |      id_prefix_size: 0 0xf12-0xf13 (1)
0x0f10|         01                                    |   .            |      mode: "fingerprint" (1) 0xf13-0xf14 (1)
0x0f10|            fe 9c 03 38 7b b4 c0 83 d8 c3 cb 74|    ...8{......t|      fingerprint: "fe9c03387bb4c083d8c3cb7418a400dc" (raw bits) 0xf14-0xf24 (16)
0x0f20|18 a4 00 dc                                    |....            |
      |                                               |                |    [158]{}: bound 0xf24-0xf37 (19)
0x0f20|            05                                 |    .           |      timestamp_delta: 4 (5) 0xf24-0xf25 (1)
      |                                               |                |      timestamp: 14910 (1970-01-01T04:08:30Z)
0x0f20|               00                              |     .          |      id_prefix_size: 0 0xf25-0xf26 (1)
0x0f20|                  01                           |      .         |      mode: "fingerprint" (1) 0xf26-0xf27 (1)
0x0f20|                     f3 d4 3f 53 24 e7 0d 7e 83|       ..?S$..~.|      fingerprint: "f3d43f5324e70d7e834b2c9ee9820c7c" (raw bits) 0xf27-0xf37 (16)
0x0f30|4b 2c 9e e9 82 0c 7c                           |K,....|         |
      |                                               |                |    [159]{}: bound 0xf37-0xf4a (19)
0x0f30|                     05                        |       .        |      timestamp_delta: 4 (5) 0xf37-0xf38 (1)
      |                                               |                |      timestamp: 14914 (1970-01-01T04:08:34Z)
0x0f30|                        00                     |        .       |      id_prefix_size: 0 0xf38-0xf39 (1)
0x0f30|                           01                  |         .      |      mode: "fingerprint" (1) 0xf39-0xf3a (1)
0x0f30|                              8d 61 36 0b 47 44|          .a6.GD|      fingerprint: "8d61360b4744f80e338fcd60d72540dd" (raw bits) 0xf3a-0xf4a (16)
0x0f40|f8 0e 33 8f cd 60 d7 25 40 dd                  |..3..`.%@.      |
      |                                               |                |    [160]{}: bound 0xf4a-0xf5d (19)
0x0f40|                              05               |          .     |      timestamp_delta: 4 (5) 0xf4a-0xf4b (1)
      |                                               |                |      timestamp: 14918 (1970-01-01T04:08:38Z)
0x0f40|                                 00            |           .    |      id_prefix_size: 0 0xf4b-0xf4c (1)
0x0f40|                                    01         |            .   |      mode: "fingerprint" (1) 0xf4c-0xf4d (1)
0x0f40|                                       2a d3 8c|             *..|      fingerprint: "2ad38c14afad0516f6da33ec193273ab" (raw bits) 0xf4d-0xf5d (16)
0x0f50|14 af ad 05 16 f6 da 33 ec 19 32 73 ab         |.......3..2s.   |
      |                                               |                |    [161]{}: bound 0xf5d-0xf70 (19)
0x0f50|                                       05      |             .  |      timestamp_delta: 4 (5) 0xf5d-0xf5e (1)
      |                                               |                |      timestamp: 14922 (1970-01-01T04:08:42Z)
0x0f50|                                          00   |              . |      id_prefix_size: 0 0xf5e-0xf5f (1)
0x0f50|                                             01|               .|      mode: "fingerprint" (1) 0xf5f-0xf60 (1)
0x0f60|df 54 20 6e 13 38 1e a7 4d 21 4a d9 7e bc e8 dd|.T n.8..M!J.~...|      fingerprint: "df54206e13381ea74d214ad97ebce8dd" (raw bits) 0xf60-0xf70 (16)
      |                                               |                |    [162]{}: bound 0xf70-0xf83 (19)
0x0f70|05                                             |.               |      timestamp_delta: 4 (5) 0xf70-0xf71 (1)
      |                                               |                |      timestamp: 14926 (1970-01-01T04:08:46Z)
0x0f70|   00                                          | .              |      id_prefix_size: 0 0xf71-0xf72 (1)
0x0f70|      01                                       |  .             |      mode: "fingerprint" (1) 0xf72-0xf73 (1)
0x0f70|         26 87 bb 36 24 66 92 5e da 27 2d ff 52|   &..6$f.^.'-.R|      fingerprint: "2687bb362466925eda272dff52b6986c" (raw bits) 0xf73-0xf83 (16)
0x0f80|b6 98 6c                                       |..l             |
      |                                               |                |    [163]{}: bound 0xf83-0xf96 (19)
0x0f80|         05                                    |   .            |      timestamp_delta: 4 (5) 0xf83-0xf84 (1)
      |                                               |                |      timestamp: 14930 (1970-01-01T04:08:50Z)
0x0f80|            00                                 |    .           |      id_prefix_size: 0 0xf84-0xf85 (1)
0x0f80|               01                              |     .          |      mode: "fingerprint" (1) 0xf85-0xf86 (1)
0x0f80|                  22 a0 0c ce 35 34 6c 58 7b 64|      "...54lX{d|      fingerprint: "22a00cce35346c587b6425eb95762c87" (raw bits) 0xf86-0xf96 (16)
0x0f90|25 eb 95 76 2c 87                              |%..v,.          |
      |                                               |                |    [164]{}: bound 0xf96-0xfa9 (19)
0x0f90|                  05                           |      .         |      timestamp_delta: 4 (5) 0xf96-0xf97 (1)
      |                                               |                |      timestamp: 14934 (1970-01-01T04:08:54Z)
0x0f90|                     00                        |       .        |      id_prefix_size: 0 0xf97-0xf98 (1)
0x0f90|                        01                     |        .       |      mode: "fingerprint" (1) 0xf98-0xf99 (1)
0x0f90|                           d0 55 8f 92 f8 73 9b|         .U...s.|      fingerprint: "d0558f92f8739b2f9f1de8db7fb8d8ce" (raw bits) 0xf99-0xfa9 (16)
0x0fa0|2f 9f 1d e8 db 7f b8 d8 ce                     |/........       |
      |                                               |                |    [165]{}: bound 0xfa9-0xfbc (19)
0x0fa0|                           05                  |         .      |      timestamp_delta: 4 (5) 0xfa9-0xfaa (1)
      |                                               |                |      timestamp: 14938 (1970-01-01T04:08:58Z)
0x0fa0|                              00               |          .     |      id_prefix_size: 0 0xfaa-0xfab (1)
0x0fa0|                                 01            |           .    |      mode: "fingerprint" (1) 0xfab-0xfac (1)
0x0fa0|                                    b7 09 1c 7c|            ...||      fingerprint: "b7091c7cc745843fec61e5920b94c744" (raw bits) 0xfac-0xfbc (16)
0x0fb0|c7 45 84 3f ec 61 e5 92 0b 94 c7 44            |.E.?.a.....D    |
      |                                               |                |    [166]{}: bound 0xfbc-0xfcf (19)
0x0fb0|                                    05         |            .   |      timestamp_delta: 4 (5) 0xfbc-0xfbd (1)
      |                                               |                |      timestamp: 14942 (1970-01-01T04:09:02Z)
0x0fb0|                                       00      |             .  |      id_prefix_size: 0 0xfbd-0xfbe (1)
0x0fb0|                                          01   |              . |      mode: "fingerprint" (1) 0xfbe-0xfbf (1)
0x0fb0|                                             2a|               *|      fingerprint: "2a71cdb44346157791ee924e07ddd816" (raw bits) 0xfbf-0xfcf (16)
0x0fc0|71 cd b4 43 46 15 77 91 ee 92 4e 07 dd d8 16   |q..CF.w...N.... |
      |                                               |                |    [167]{}: bound 0xfcf-0xfe2 (19)
0x0fc0|                                             05|               .|      timestamp_delta: 4 (5) 0xfcf-0xfd0 (1)
      |                                               |                |      timestamp: 14946 (1970-01-01T04:09:06Z)
0x0fd0|00                                             |.               |      id_prefix_size: 0 0xfd0-0xfd1 (1)
0x0fd0|   01                                          | .              |      mode: "fingerprint" (1) 0xfd1-0xfd2 (1)
0x0fd0|      fe 9c 03 38 7b b4 c0 83 d8 c3 cb 74 18 a4|  ...8{......t..|      fingerprint: "fe9c03387bb4c083d8c3cb7418a400dc" (raw bits) 0xfd2-0xfe2 (16)
0x0fe0|00 dc                                          |..              |
      |                                               |                |    [168]{}: bound 0xfe2-0xff6 (20)
0x0fe0|      81 7c                                    |  .|            |      timestamp_delta: 251 (252) 0xfe2-0xfe4 (2)
      |                                               |                |      timestamp: 15197 (1970-01-01T04:13:17Z)
0x0fe0|            00                                 |    .           |      id_prefix_size: 0 0xfe4-0xfe5 (1)
0x0fe0|               01                              |     .          |      mode: "fingerprint" (1) 0xfe5-0xfe6 (1)
0x0fe0|                  f3 d4 3f 53 24 e7 0d 7e 83 4b|      ..?S$..~.K|      fingerprint: "f3d43f5324e70d7e834b2c9ee9820c7c" (raw bits) 0xfe6-0xff6 (16)
0x0ff0|2c 9e e9 82 0c 7c                              |,....|          |
      |                                               |                |    [169]{}: bound 0xff6-0xffb (5)
0x0ff0|                  82 3b                        |      .;        |      timestamp_delta: 314 (315) 0xff6-0xff8 (2)
      |                                               |                |      timestamp: 15511 (1970-01-01T04:18:31Z)
0x0ff0|                        00                     |        .       |      id_prefix_size: 0 0xff8-0xff9 (1)
0x0ff0|                           02                  |         .      |      mode: "idlist" (2) 0xff9-0xffa (1)
      |                                               |                |      idlist{}: 0xffa-0xffb (1)
0x0ff0|                              00               |          .     |        num: 0 0xffa-0xffb (1)
      |                                               |                |        ids[0:0]: 0xffb-0xffb (0)
      |                                               |                |    [170]{}: bound 0xffb-0x1000 (5)
0x0ff0|                                 82 3b         |           .;   |      timestamp_delta: 314 (315) 0xffb-0xffd (2)
      |                                               |                |      timestamp: 15825 (1970-01-01T04:23:45Z)
0x0ff0|                                       00      |             .  |      id_prefix_size: 0 0xffd-0xffe (1)
0x0ff0|                                          02   |              . |      mode: "idlist" (2) 0xffe-0xfff (1)
      |                                               |                |      idlist{}: 0xfff-0x1000 (1)
0x0ff0|                                             00|               .|        num: 0 0xfff-0x1000 (1)
      |                                               |                |        ids[0:0]: 0x1000-0x1000 (0)
      |                                               |                |    [171]{}: bound 0x1000-0x1005 (5)
0x1000|82 3b                                          |.;              |      timestamp_delta: 314 (315) 0x1000-0x1002 (2)
      |                                               |                |      timestamp: 16139 (1970-01-01T04:28:59Z)
0x1000|      00                                       |  .             |      id_prefix_size: 0 0x1002-0x1003 (1)
0x1000|         02                                    |   .            |      mode: "idlist" (2) 0x1003-0x1004 (1)
      |                                               |                |      idlist{}: 0x1004-0x1005 (1)
0x1000|            00                                 |    .           |        num: 0 0x1004-0x1005 (1)
      |                                               |                |        ids[0:0]: 0x1005-0x1005 (0)
      |                                               |                |    [172]{}: bound 0x1005-0x100a (5)
0x1000|               82 3b                           |     .;         |      timestamp_delta: 314 (315) 0x1005-0x1007 (2)
      |                                               |                |      timestamp: 16453 (1970-01-01T04:34:13Z)
0x1000|                     00                        |       .        |      id_prefix_size: 0 0x1007-0x1008 (1)
0x1000|                        02                     |        .       |      mode: "idlist" (2) 0x1008-0x1009 (1)
      |                                               |                |      idlist{}: 0x1009-0x100a (1)
0x1000|                           00                  |         .      |        num: 0 0x1009-0x100a (1)
      |                                               |                |        ids[0:0]: 0x100a-0x100a (0)
      |                                               |                |    [173]{}: bound 0x100a-0x100f (5)
0x1000|                              82 3b            |          .;    |      timestamp_delta: 314 (315) 0x100a-0x100c (2)
      |                                               |                |      timestamp: 16767 (1970-01-01T04:39:27Z)
0x1000|                                    00         |            .   |      id_prefix_size: 0 0x100c-0x100d (1)
0x1000|                                       02      |             .  |      mode: "idlist" (2) 0x100d-0x100e (1)
      |                                               |                |      idlist{}: 0x100e-0x100f (1)
0x1000|                                          00   |              . |        num: 0 0x100e-0x100f (1)
      |                                               |                |        ids[0:0]: 0x100f-0x100f (0)
      |                                               |                |    [174]{}: bound 0x100f-0x1014 (5)
0x1000|                                             82|               .|      timestamp_delta: 314 (315) 0x100f-0x1011 (2)
0x1010|3b                                             |;               |
      |                                               |                |      timestamp: 17081 (1970-01-01T04:44:41Z)
0x1010|   00                                          | .              |      id_prefix_size: 0 0x1011-0x1012 (1)
0x1010|      02                                       |  .             |      mode: "idlist" (2) 0x1012-0x1013 (1)
      |                                               |                |      idlist{}: 0x1013-0x1014 (1)
0x1010|         00                                    |   .            |        num: 0 0x1013-0x1014 (1)
      |                                               |                |        ids[0:0]: 0x1014-0x1014 (0)
      |                                               |                |    [175]{}: bound 0x1014-0x1019 (5)
0x1010|            82 3b                              |    .;          |      timestamp_delta: 314 (315) 0x1014-0x1016 (2)
      |                                               |                |      timestamp: 17395 (1970-01-01T04:49:55Z)
0x1010|                  00                           |      .         |      id_prefix_size: 0 0x1016-0x1017 (1)
0x1010|                     02                        |       .        |      mode: "idlist" (2) 0x1017-0x1018 (1)
      |                                               |                |      idlist{}: 0x1018-0x1019 (1)
0x1010|                        00                     |        .       |        num: 0 0x1018-0x1019 (1)
      |                                               |                |        ids[0:0]: 0x1019-0x1019 (0)
      |                                               |                |    [176]{}: bound 0x1019-0x101e (5)
0x1010|                           82 3b               |         .;     |      timestamp_delta: 314 (315) 0x1019-0x101b (2)
      |                                               |                |      timestamp: 17709 (1970-01-01T04:55:09Z)
0x1010|                                 00            |           .    |      id_prefix_size: 0 0x101b-0x101c (1)
0x1010|                                    02         |            .   |      mode: "idlist" (2) 0x101c-0x101d (1)
      |                                               |                |      idlist{}: 0x101d-0x101e (1)
0x1010|                                       00      |             .  |        num: 0 0x101d-0x101e (1)
      |                                               |                |        ids[0:0]: 0x101e-0x101e (0)
      |                                               |                |    [177]{}: bound 0x101e-0x1023 (5)
0x1010|                                          82 3a|              .:|      timestamp_delta: 313 (314) 0x101e-0x1020 (2)
      |                                               |                |      timestamp: 18022 (1970-01-01T05:00:22Z)
0x1020|00                                             |.               |      id_prefix_size: 0 0x1020-0x1021 (1)
0x1020|   02                                          | .              |      mode: "idlist" (2) 0x1021-0x1022 (1)
      |                                               |                |      idlist{}: 0x1022-0x1023 (1)
0x1020|      00                                       |  .             |        num: 0 0x1022-0x1023 (1)
      |                                               |                |        ids[0:0]: 0x1023-0x1023 (0)
      |                                               |                |    [178]{}: bound 0x1023-0x1028 (5)
0x1020|         82 3a                                 |   .:           |      timestamp_delta: 313 (314) 0x1023-0x1025 (2)
      |                                               |                |      timestamp: 18335 (1970-01-01T05:05:35Z)
0x1020|               00                              |     .          |      id_prefix_size: 0 0x1025-0x1026 (1)
0x1020|                  02                           |      .         |      mode: "idlist" (2) 0x1026-0x1027 (1)
      |                                               |                |      idlist{}: 0x1027-0x1028 (1)
0x1020|                     00                        |       .        |        num: 0 0x1027-0x1028 (1)
      |                                               |                |        ids[0:0]: 0x1028-0x1028 (0)
      |                                               |                |    [179]{}: bound 0x1028-0x102d (5)
0x1020|                        82 3a                  |        .:      |      timestamp_delta: 313 (314) 0x1028-0x102a (2)
      |                                               |                |      timestamp: 18648 (1970-01-01T05:10:48Z)
0x1020|                              00               |          .     |      id_prefix_size: 0 0x102a-0x102b (1)
0x1020|                                 02            |           .    |      mode: "idlist" (2) 0x102b-0x102c (1)
      |                                               |                |      idlist{}: 0x102c-0x102d (1)
0x1020|                                    00         |            .   |        num: 0 0x102c-0x102d (1)
      |                                               |                |        ids[0:0]: 0x102d-0x102d (0)
      |                                               |                |    [180]{}: bound 0x102d-0x1032 (5)
0x1020|                                       82 3a   |             .: |      timestamp_delta: 313 (314) 0x102d-0x102f (2)
      |                                               |                |      timestamp: 18961 (1970-01-01T05:16:01Z)
0x1020|                                             00|               .|      id_prefix_size: 0 0x102f-0x1030 (1)
0x1030|02                                             |.               |      mode: "idlist" (2) 0x1030-0x1031 (1)
      |                                               |                |      idlist{}: 0x1031-0x1032 (1)
0x1030|   00                                          | .              |        num: 0 0x1031-0x1032 (1)
      |                                               |                |        ids[0:0]: 0x1032-0x1032 (0)
      |                                               |                |    [181]{}: bound 0x1032-0x1037 (5)
0x1030|      82 3a                                    |  .:            |      timestamp_delta: 313 (314) 0x1032-0x1034 (2)
      |                                               |                |      timestamp: 19274 (1970-01-01T05:21:14Z)
0x1030|            00                                 |    .           |      id_prefix_size: 0 0x1034-0x1035 (1)
0x1030|               02                              |     .          |      mode: "idlist" (2) 0x1035-0x1036 (1)
      |                                               |                |      idlist{}: 0x1036-0x1037 (1)
0x1030|                  00                           |      .         |        num: 0 0x1036-0x1037 (1)
      |                                               |                |        ids[0:0]: 0x1037-0x1037 (0)
      |                                               |                |    [182]{}: bound 0x1037-0x103c (5)
0x1030|                     82 3a                     |       .:       |      timestamp_delta: 313 (314) 0x1037-0x1039 (2)
      |                                               |                |      timestamp: 19587 (1970-01-01T05:26:27Z)
0x1030|                           00                  |         .      |      id_prefix_size: 0 0x1039-0x103a (1)
0x1030|                              02               |          .     |      mode: "idlist" (2) 0x103a-0x103b (1)
      |                                               |                |      idlist{}: 0x103b-0x103c (1)
0x1030|                                 00            |           .    |        num: 0 0x103b-0x103c (1)
      |                                               |                |        ids[0:0]: 0x103c-0x103c (0)
      |                                               |                |    [183]{}: bound 0x103c-0x1050 (20)
0x1030|                                    81 63      |            .c  |      timestamp_delta: 226 (227) 0x103c-0x103e (2)
      |                                               |                |      timestamp: 19813 (1970-01-01T05:30:13Z)
0x1030|                                          00   |              . |      id_prefix_size: 0 0x103e-0x103f (1)
0x1030|                                             01|               .|      mode: "fingerprint" (1) 0x103f-0x1040 (1)
0x1040|44 82 bb 2d 0b 69 db c7 1e e9 26 61 c3 78 77 9f|D..-.i....&a.xw.|      fingerprint: "4482bb2d0b69dbc71ee92661c378779f" (raw bits) 0x1040-0x1050 (16)
      |                                               |                |    [184]{}: bound 0x1050-0x1063 (19)
0x1050|0e                                             |.               |      timestamp_delta: 13 (14) 0x1050-0x1051 (1)
      |                                               |                |      timestamp: 19826 (1970-01-01T05:30:26Z)
0x1050|   00                                          | .              |      id_prefix_size: 0 0x1051-0x1052 (1)
0x1050|      01                                       |  .             |      mode: "fingerprint" (1) 0x1052-0x1053 (1)
0x1050|         a2 c6 aa 65 92 32 9c fa 91 06 41 45 13|   ...e.2....AE.|      fingerprint: "a2c6aa6592329cfa9106414513a3c79e" (raw bits) 0x1053-0x1063 (16)
0x1060|a3 c7 9e                                       |...             |
      |                                               |                |    [185]{}: bound 0x1063-0x1076 (19)
0x1060|         0e                                    |   .            |      timestamp_delta: 13 (14) 0x1063-0x1064 (1)
      |                                               |                |      timestamp: 19839 (1970-01-01T05:30:39Z)
0x1060|            00                                 |    .           |      id_prefix_size: 0 0x1064-0x1065 (1)
0x1060|               01                              |     .          |      mode: "fingerprint" (1) 0x1065-0x1066 (1)
0x1060|                  d1 5f 5e c1 4a e0 26 48 c4 eb|      ._^.J.&H..|      fingerprint: "d15f5ec14ae02648c4eb20f82bfa9022" (raw bits) 0x1066-0x1076 (16)
0x1070|20 f8 2b fa 90 22                              | .+.."          |
      |                                               |                |    [186]{}: bound 0x1076-0x1089 (19)
0x1070|                  0e                           |      .         |      timestamp_delta: 13 (14) 0x1076-0x1077 (1)
      |                                               |                |      timestamp: 19852 (1970-01-01T05:30:52Z)
0x1070|                     00                        |       .        |      id_prefix_size: 0 0x1077-0x1078 (1)
0x1070|                        01                     |        .       |      mode: "fingerprint" (1) 0x1078-0x1079 (1)
0x1070|                           ee 00 03 19 ca 9e 28|         ......(|      fingerprint: "ee000319ca9e2894cfd9ee1587379343" (raw bits) 0x1079-0x1089 (16)
0x1080|94 cf d9 ee 15 87 37 93 43                     |......7.C       |
      |                                               |                |    [187]{}: bound 0x1089-0x109c (19)
0x1080|                           0e                  |         .      |      timestamp_delta: 13 (14) 0x1089-0x108a (1)
      |                                               |                |      timestamp: 19865 (1970-01-01T05:31:05Z)
0x1080|                              00               |          .     |      id_prefix_size: 0 0x108a-0x108b (1)
0x1080|                                 01            |           .    |      mode: "fingerprint" (1) 0x108b-0x108c (1)
0x1080|                                    b7 27 3e a6|            .'>.|      fingerprint: "b7273ea681c69473bd5d78920bf8c4cc" (raw bits) 0x108c-0x109c (16)
0x1090|81 c6 94 73 bd 5d 78 92 0b f8 c4 cc            |...s.]x.....    |
      |                                               |                |    [188]{}: bound 0x109c-0x10af (19)
0x1090|                                    0e         |            .   |      timestamp_delta: 13 (14) 0x109c-0x109d (1)
      |                                               |                |      timestamp: 19878 (1970-01-01T05:31:18Z)
0x1090|                                       00      |             .  |      id_prefix_size: 0 0x109d-0x109e (1)
0x1090|                                          01   |              . |      mode: "fingerprint" (1) 0x109e-0x109f (1)
0x1090|                                             ba|               .|      fingerprint: "bab1306933cc16d8327b53a2eebeead6" (raw bits) 0x109f-0x10af (16)
0x10a0|b1 30 69 33 cc 16 d8 32 7b 53 a2 ee be ea d6   |.0i3...2{S..... |
      |                                               |                |    [189]{}: bound 0x10af-0x10c2 (19)
0x10a0|                                             0e|               .|      timestamp_delta: 13 (14) 0x10af-0x10b0 (1)
      |                                               |                |      timestamp: 19891 (1970-01-01T05:31:31Z)
0x10b0|00                                             |.               |      id_prefix_size: 0 0x10b0-0x10b1 (1)
0x10b0|   01                                          | .              |      mode: "fingerprint" (1) 0x10b1-0x10b2 (1)
0x10b0|      bb 23 2a 83 40 8f 53 d7 86 85 18 99 74 66|  .#*.@.S.....tf|      fingerprint: "bb232a83408f53d7868518997466a49e" (raw bits) 0x10b2-0x10c2 (16)
0x10c0|a4 9e                                          |..              |
      |                                               |                |    [190]{}: bound 0x10c2-0x10d5 (19)
0x10c0|      0e                                       |  .             |      timestamp_delta: 13 (14) 0x10c2-0x10c3 (1)
      |                                               |                |      timestamp: 19904 (1970-01-01T05:31:44Z)
0x10c0|         00                                    |   .            |      id_prefix_size: 0 0x10c3-0x10c4 (1)
0x10c0|            01                                 |    .           |      mode: "fingerprint" (1) 0x10c4-0x10c5 (1)
0x10c0|               9c 9c 24 8d 0f fe ed d7 a7 d3 b1|     ..$........|      fingerprint: "9c9c248d0ffeedd7a7d3b197a86b95b3" (raw bits) 0x10c5-0x10d5 (16)
0x10d0|97 a8 6b 95 b3                                 |..k..           |
      |                                               |                |    [191]{}: bound 0x10d5-0x10e8 (19)
0x10d0|               0d                              |     .          |      timestamp_delta: 12 (13) 0x10d5-0x10d6 (1)
      |                                               |                |      timestamp: 19916 (1970-01-01T05:31:56Z)
0x10d0|                  00                           |      .         |      id_prefix_size: 0 0x10d6-0x10d7 (1)
0x10d0|                     01                        |       .        |      mode: "fingerprint" (1) 0x10d7-0x10d8 (1)
0x10d0|                        91 d2 bb 33 5e 31 6f f5|        ...3^1o.|      fingerprint: "91d2bb335e316ff52319f72c60591d6d" (raw bits) 0x10d8-0x10e8 (16)
0x10e0|23 19 f7 2c 60 59 1d 6d                        |#..,`Y.m        |
      |                                               |                |    [192]{}: bound 0x10e8-0x10fb (19)
0x10e0|                        0d                     |        .       |      timestamp_delta: 12 (13) 0x10e8-0x10e9 (1)
      |                                               |                |      timestamp: 19928 (1970-01-01T05:32:08Z)
0x10e0|                           00                  |         .      |      id_prefix_size: 0 0x10e9-0x10ea (1)
0x10e0|                              01               |          .     |      mode: "fingerprint" (1) 0x10ea-0x10eb (1)
0x10e0|                                 9b ed 93 40 b8|           ...@.|      fingerprint: "9bed9340b806197bc5aaa1ccd21cc019" (raw bits) 0x10eb-0x10fb (16)
0x10f0|06 19 7b c5 aa a1 cc d2 1c c0 19               |..{........     |
      |                                               |                |    [193]{}: bound 0x10fb-0x110e (19)
0x10f0|                                 0d            |           .    |      timestamp_delta: 12 (13) 0x10fb-0x10fc (1)
      |                                               |                |      timestamp: 19940 (1970-01-01T05:32:20Z)
0x10f0|                                    00         |            .   |      id_prefix_size: 0 0x10fc-0x10fd (1)
0x10f0|                                       01      |             .  |      mode: "fingerprint" (1) 0x10fd-0x10fe (1)
0x10f0|                                          80 ed|              ..|      fingerprint: "80ed383eb295422af66b4d7905f5f862" (raw bits) 0x10fe-0x110e (16)
0x1100|38 3e b2 95 42 2a f6 6b 4d 79 05 f5 f8 62      |8>..B*.kMy...b  |
      |                                               |                |    [194]{}: bound 0x110e-0x1121 (19)
0x1100|                                          0d   |              . |      timestamp_delta: 12 (13) 0x110e-0x110f (1)
      |                                               |                |      timestamp: 19952 (1970-01-01T05:32:32Z)
0x1100|                                             00|               .|      id_prefix_size: 0 0x110f-0x1110 (1)
0x1110|01                                             |.               |      mode: "fingerprint" (1) 0x1110-0x1111 (1)
0x1110|   bd 82 0c d0 b9 b5 c1 5a 30 9b ec 6f a7 ae 53| .......Z0..o..S|      fingerprint: "bd820cd0b9b5c15a309bec6fa7ae530a" (raw bits) 0x1111-0x1121 (16)
0x1120|0a                                             |.               |
      |                                               |                |    [195]{}: bound 0x1121-0x1134 (19)
0x1120|   0d                                          | .              |      timestamp_delta: 12 (13) 0x1121-0x1122 (1)
      |                                               |                |      timestamp: 19964 (1970-01-01T05:32:44Z)
0x1120|      00                                       |  .             |      id_prefix_size: 0 0x1122-0x1123 (1)
0x1120|         01                                    |   .            |      mode: "fingerprint" (1) 0x1123-0x1124 (1)
0x1120|            2b 91 a0 10 5f 4c a6 90 3d 3b a1 d6|    +..._L..=;..|      fingerprint: "2b91a0105f4ca6903d3ba1d615e52216" (raw bits) 0x1124-0x1134 (16)
0x1130|15 e5 22 16                                    |..".            |
      |                                               |                |    [196]{}: bound 0x1134-0x1147 (19)
0x1130|            0d                                 |    .           |      timestamp_delta: 12 (13) 0x1134-0x1135 (1)
      |                                               |                |      timestamp: 19976 (1970-01-01T05:32:56Z)
0x1130|               00                              |     .          |      id_prefix_size: 0 0x1135-0x1136 (1)
0x1130|                  01                           |      .         |      mode: "fingerprint" (1) 0x1136-0x1137 (1)
0x1130|                     18 37 44 10 7b c1 b3 06 6a|       .7D.{...j|      fingerprint: "183744107bc1b3066a12c22d0dabe511" (raw bits) 0x1137-0x1147 (16)
0x1140|12 c2 2d 0d ab e5 11                           |..-....         |
      |                                               |                |    [197]{}: bound 0x1147-0x115a (19)
0x1140|                     0d                        |       .        |      timestamp_delta: 12 (13) 0x1147-0x1148 (1)
      |                                               |                |      timestamp: 19988 (1970-01-01T05:33:08Z)
0x1140|                        00                     |        .       |      id_prefix_size: 0 0x1148-0x1149 (1)
0x1140|                           01                  |         .      |      mode: "fingerprint" (1) 0x1149-0x114a (1)
0x1140|                              f1 4b a3 a9 3a 86|          .K..:.|      fingerprint: "f14ba3a93a86e8559cdad080bf03b632" (raw bits) 0x114a-0x115a (16)
0x1150|e8 55 9c da d0 80 bf 03 b6 32                  |.U.......2      |
      |                                               |                |    [198]{}: bound 0x115a-0x116d (19)
0x1150|                              00               |          .     |      timestamp_delta: -1 (0) (infinity) 0x115a-0x115b (1)
      |                                               |                |      timestamp: 0 (infinity)
0x1150|                                 00            |           .    |      id_prefix_size: 0 0x115b-0x115c (1)
0x1150|                                    01         |            .   |      mode: "fingerprint" (1) 0x115c-0x115d (1)
0x1150|                                       a9 79 ff|             .y.|      fingerprint: "a979ff1bf1e404a68bc3339f18a16dea" (raw bits) 0x115d-0x116d (16)
0x1160|1b f1 e4 04 a6 8b c3 33 9f 18 a1 6d ea|        |.......3...m.|  |
