# should error on giant strtab
$ fq -d elf d bigstrtab
      |00 01 02 03 04 05 06 07 08 09 0a 0b 0c 0d 0e 0f|0123456789abcdef|.{}: bigstrtab (elf)
      |                                               |                |  error: elf: error at position 0x4740: string table too large 67675799683072 > 100000000
      |                                               |                |  header{}:
      |                                               |                |    ident{}:
0x0000|7f 45 4c 46                                    |.ELF            |      magic: raw bits (valid)
0x0000|            02                                 |    .           |      class: 64 (2)
0x0000|               01                              |     .          |      data: "little_endian" (1)
0x0000|                  01                           |      .         |      version: 1
0x0000|                     00                        |       .        |      os_abi: "sysv" (0)
0x0000|                        00                     |        .       |      abi_version: 0
0x0000|                           00 00 00 00 00 00 00|         .......|      pad: raw bits (all zero)
0x0010|03 00                                          |..              |    type: "dyn" (0x3)
0x0010|      3e 00                                    |  >.            |    machine: "x86_64" (0x3e) (AMD x86-64)
0x0010|            01 00 00 00                        |    ....        |    version: 1
0x0010|                        70 10 00 00 00 00 00 00|        p.......|    entry: 4208
0x0020|40 00 00 00 00 00 00 00                        |@.......        |    phoff: 64
0x0020|                        c0 3e 00 00 00 00 00 00|        .>......|    shoff: 16064
0x0030|00 00 00 00                                    |....            |    flags: 0
0x0030|            40 00                              |    @.          |    ehsize: 64
0x0030|                  38 00                        |      8.        |    phentsize: 56
0x0030|                        0c 00                  |        ..      |    phnum: 12
0x0030|                              40 00            |          @.    |    shentsize: 64
0x0030|                                    22 00      |            ".  |    shnum: 34
0x0030|                                          21 00|              !.|    shstrndx: 33
0x0040|06 00 00 00 04 00 00 00 40 00 00 00 00 00 00 00|........@.......|  gap0: raw bits
*     |until 0x474b.7 (end) (18188)                   |                |
