# from https://github.com/protocolbuffers/protobuf/blob/master/objectivec/Tests/golden_message
# https://github.com/protocolbuffers/protobuf/blob/master/LICENSE
# TODO: test with schema somehow
$ fq -d protobuf dv /golden_message
     |00 01 02 03 04 05 06 07 08 09 0a 0b 0c 0d 0e 0f|0123456789abcdef|.{}: /golden_message (protobuf) 0x0-0x212.7 (531)
     |                                               |                |  fields[0:106]: 0x0-0x212.7 (531)
     |                                               |                |    [0]{}: field 0x0-0x1.7 (2)
0x000|08                                             |.               |      key_n: 8 0x0-0x0.7 (1)
     |                                               |                |      field_number: 1 0x1-NA (0)
     |                                               |                |      wire_type: "Varint" (0) 0x1-NA (0)
0x000|   65                                          | e              |      wire_value: 101 0x1-0x1.7 (1)
     |                                               |                |    [1]{}: field 0x2-0x3.7 (2)
0x000|      10                                       |  .             |      key_n: 16 0x2-0x2.7 (1)
     |                                               |                |      field_number: 2 0x3-NA (0)
     |                                               |                |      wire_type: "Varint" (0) 0x3-NA (0)
0x000|         66                                    |   f            |      wire_value: 102 0x3-0x3.7 (1)
     |                                               |                |    [2]{}: field 0x4-0x5.7 (2)
0x000|            18                                 |    .           |      key_n: 24 0x4-0x4.7 (1)
     |                                               |                |      field_number: 3 0x5-NA (0)
     |                                               |                |      wire_type: "Varint" (0) 0x5-NA (0)
0x000|               67                              |     g          |      wire_value: 103 0x5-0x5.7 (1)
     |                                               |                |    [3]{}: field 0x6-0x7.7 (2)
0x000|                  20                           |                |      key_n: 32 0x6-0x6.7 (1)
     |                                               |                |      field_number: 4 0x7-NA (0)
     |                                               |                |      wire_type: "Varint" (0) 0x7-NA (0)
0x000|                     68                        |       h        |      wire_value: 104 0x7-0x7.7 (1)
     |                                               |                |    [4]{}: field 0x8-0xa.7 (3)
0x000|                        28                     |        (       |      key_n: 40 0x8-0x8.7 (1)
     |                                               |                |      field_number: 5 0x9-NA (0)
     |                                               |                |      wire_type: "Varint" (0) 0x9-NA (0)
0x000|                           d2 01               |         ..     |      wire_value: 210 0x9-0xa.7 (2)
     |                                               |                |    [5]{}: field 0xb-0xd.7 (3)
0x000|                                 30            |           0    |      key_n: 48 0xb-0xb.7 (1)
     |                                               |                |      field_number: 6 0xc-NA (0)
     |                                               |                |      wire_type: "Varint" (0) 0xc-NA (0)
0x000|                                    d4 01      |            ..  |      wire_value: 212 0xc-0xd.7 (2)
     |                                               |                |    [6]{}: field 0xe-0x12.7 (5)
0x000|                                          3d   |              = |      key_n: 61 0xe-0xe.7 (1)
     |                                               |                |      field_number: 7 0xf-NA (0)
     |                                               |                |      wire_type: "32-bit" (5) 0xf-NA (0)
0x000|                                             6b|               k|      wire_value: 1795162112 0xf-0x12.7 (4)
0x010|00 00 00                                       |...             |
     |                                               |                |    [7]{}: field 0x13-0x1b.7 (9)
0x010|         41                                    |   A            |      key_n: 65 0x13-0x13.7 (1)
     |                                               |                |      field_number: 8 0x14-NA (0)
     |                                               |                |      wire_type: "64-bit" (1) 0x14-NA (0)
0x010|            6c 00 00 00 00 00 00 00            |    l.......    |      wire_value: 7782220156096217088 0x14-0x1b.7 (8)
     |                                               |                |    [8]{}: field 0x1c-0x20.7 (5)
0x010|                                    4d         |            M   |      key_n: 77 0x1c-0x1c.7 (1)
     |                                               |                |      field_number: 9 0x1d-NA (0)
     |                                               |                |      wire_type: "32-bit" (5) 0x1d-NA (0)
0x010|                                       6d 00 00|             m..|      wire_value: 1828716544 0x1d-0x20.7 (4)
0x020|00                                             |.               |
     |                                               |                |    [9]{}: field 0x21-0x29.7 (9)
0x020|   51                                          | Q              |      key_n: 81 0x21-0x21.7 (1)
     |                                               |                |      field_number: 10 0x22-NA (0)
     |                                               |                |      wire_type: "64-bit" (1) 0x22-NA (0)
0x020|      6e 00 00 00 00 00 00 00                  |  n.......      |      wire_value: 7926335344172072960 0x22-0x29.7 (8)
     |                                               |                |    [10]{}: field 0x2a-0x2e.7 (5)
0x020|                              5d               |          ]     |      key_n: 93 0x2a-0x2a.7 (1)
     |                                               |                |      field_number: 11 0x2b-NA (0)
     |                                               |                |      wire_type: "32-bit" (5) 0x2b-NA (0)
0x020|                                 00 00 de 42   |           ...B |      wire_value: 56898 0x2b-0x2e.7 (4)
     |                                               |                |    [11]{}: field 0x2f-0x37.7 (9)
0x020|                                             61|               a|      key_n: 97 0x2f-0x2f.7 (1)
     |                                               |                |      field_number: 12 0x30-NA (0)
     |                                               |                |      wire_type: "64-bit" (1) 0x30-NA (0)
0x030|00 00 00 00 00 00 5c 40                        |......\@        |      wire_value: 23616 0x30-0x37.7 (8)
     |                                               |                |    [12]{}: field 0x38-0x39.7 (2)
0x030|                        68                     |        h       |      key_n: 104 0x38-0x38.7 (1)
     |                                               |                |      field_number: 13 0x39-NA (0)
     |                                               |                |      wire_type: "Varint" (0) 0x39-NA (0)
0x030|                           01                  |         .      |      wire_value: 1 0x39-0x39.7 (1)
     |                                               |                |    [13]{}: field 0x3a-0x3e.7 (5)
0x030|                              72               |          r     |      key_n: 114 0x3a-0x3a.7 (1)
     |                                               |                |      field_number: 14 0x3b-NA (0)
     |                                               |                |      wire_type: "Length-delimited" (2) 0x3b-NA (0)
0x030|                                 03            |           .    |      length: 3 0x3b-0x3b.7 (1)
0x030|                                    31 31 35   |            115 |      wire_value: raw bits 0x3c-0x3e.7 (3)
     |                                               |                |    [14]{}: field 0x3f-0x43.7 (5)
0x030|                                             7a|               z|      key_n: 122 0x3f-0x3f.7 (1)
     |                                               |                |      field_number: 15 0x40-NA (0)
     |                                               |                |      wire_type: "Length-delimited" (2) 0x40-NA (0)
0x040|03                                             |.               |      length: 3 0x40-0x40.7 (1)
0x040|   31 31 36                                    | 116            |      wire_value: raw bits 0x41-0x43.7 (3)
     |                                               |                |    [15]{}: field 0x44-0x45.7 (2)
0x040|            83 01                              |    ..          |      key_n: 131 0x44-0x45.7 (2)
     |                                               |                |      field_number: 16 0x46-NA (0)
     |                                               |                |      wire_type: "" (3) 0x46-NA (0)
     |                                               |                |    [16]{}: field 0x46-0x48.7 (3)
0x040|                  88 01                        |      ..        |      key_n: 136 0x46-0x47.7 (2)
     |                                               |                |      field_number: 17 0x48-NA (0)
     |                                               |                |      wire_type: "Varint" (0) 0x48-NA (0)
0x040|                        75                     |        u       |      wire_value: 117 0x48-0x48.7 (1)
     |                                               |                |    [17]{}: field 0x49-0x4a.7 (2)
0x040|                           84 01               |         ..     |      key_n: 132 0x49-0x4a.7 (2)
     |                                               |                |      field_number: 16 0x4b-NA (0)
     |                                               |                |      wire_type: "" (4) 0x4b-NA (0)
     |                                               |                |    [18]{}: field 0x4b-0x4f.7 (5)
0x040|                                 92 01         |           ..   |      key_n: 146 0x4b-0x4c.7 (2)
     |                                               |                |      field_number: 18 0x4d-NA (0)
     |                                               |                |      wire_type: "Length-delimited" (2) 0x4d-NA (0)
0x040|                                       02      |             .  |      length: 2 0x4d-0x4d.7 (1)
0x040|                                          08 76|              .v|      wire_value: raw bits 0x4e-0x4f.7 (2)
     |                                               |                |    [19]{}: field 0x50-0x54.7 (5)
0x050|9a 01                                          |..              |      key_n: 154 0x50-0x51.7 (2)
     |                                               |                |      field_number: 19 0x52-NA (0)
     |                                               |                |      wire_type: "Length-delimited" (2) 0x52-NA (0)
0x050|      02                                       |  .             |      length: 2 0x52-0x52.7 (1)
0x050|         08 77                                 |   .w           |      wire_value: raw bits 0x53-0x54.7 (2)
     |                                               |                |    [20]{}: field 0x55-0x59.7 (5)
0x050|               a2 01                           |     ..         |      key_n: 162 0x55-0x56.7 (2)
     |                                               |                |      field_number: 20 0x57-NA (0)
     |                                               |                |      wire_type: "Length-delimited" (2) 0x57-NA (0)
0x050|                     02                        |       .        |      length: 2 0x57-0x57.7 (1)
0x050|                        08 78                  |        .x      |      wire_value: raw bits 0x58-0x59.7 (2)
     |                                               |                |    [21]{}: field 0x5a-0x5c.7 (3)
0x050|                              a8 01            |          ..    |      key_n: 168 0x5a-0x5b.7 (2)
     |                                               |                |      field_number: 21 0x5c-NA (0)
     |                                               |                |      wire_type: "Varint" (0) 0x5c-NA (0)
0x050|                                    03         |            .   |      wire_value: 3 0x5c-0x5c.7 (1)
     |                                               |                |    [22]{}: field 0x5d-0x5f.7 (3)
0x050|                                       b0 01   |             .. |      key_n: 176 0x5d-0x5e.7 (2)
     |                                               |                |      field_number: 22 0x5f-NA (0)
     |                                               |                |      wire_type: "Varint" (0) 0x5f-NA (0)
0x050|                                             06|               .|      wire_value: 6 0x5f-0x5f.7 (1)
     |                                               |                |    [23]{}: field 0x60-0x62.7 (3)
0x060|b8 01                                          |..              |      key_n: 184 0x60-0x61.7 (2)
     |                                               |                |      field_number: 23 0x62-NA (0)
     |                                               |                |      wire_type: "Varint" (0) 0x62-NA (0)
0x060|      09                                       |  .             |      wire_value: 9 0x62-0x62.7 (1)
     |                                               |                |    [24]{}: field 0x63-0x68.7 (6)
0x060|         c2 01                                 |   ..           |      key_n: 194 0x63-0x64.7 (2)
     |                                               |                |      field_number: 24 0x65-NA (0)
     |                                               |                |      wire_type: "Length-delimited" (2) 0x65-NA (0)
0x060|               03                              |     .          |      length: 3 0x65-0x65.7 (1)
0x060|                  31 32 34                     |      124       |      wire_value: raw bits 0x66-0x68.7 (3)
     |                                               |                |    [25]{}: field 0x69-0x6e.7 (6)
0x060|                           ca 01               |         ..     |      key_n: 202 0x69-0x6a.7 (2)
     |                                               |                |      field_number: 25 0x6b-NA (0)
     |                                               |                |      wire_type: "Length-delimited" (2) 0x6b-NA (0)
0x060|                                 03            |           .    |      length: 3 0x6b-0x6b.7 (1)
0x060|                                    31 32 35   |            125 |      wire_value: raw bits 0x6c-0x6e.7 (3)
     |                                               |                |    [26]{}: field 0x6f-0x73.7 (5)
0x060|                                             d2|               .|      key_n: 210 0x6f-0x70.7 (2)
0x070|01                                             |.               |
     |                                               |                |      field_number: 26 0x71-NA (0)
     |                                               |                |      wire_type: "Length-delimited" (2) 0x71-NA (0)
0x070|   02                                          | .              |      length: 2 0x71-0x71.7 (1)
0x070|      08 7e                                    |  .~            |      wire_value: raw bits 0x72-0x73.7 (2)
     |                                               |                |    [27]{}: field 0x74-0x78.7 (5)
0x070|            da 01                              |    ..          |      key_n: 218 0x74-0x75.7 (2)
     |                                               |                |      field_number: 27 0x76-NA (0)
     |                                               |                |      wire_type: "Length-delimited" (2) 0x76-NA (0)
0x070|                  02                           |      .         |      length: 2 0x76-0x76.7 (1)
0x070|                     08 7f                     |       ..       |      wire_value: raw bits 0x77-0x78.7 (2)
     |                                               |                |    [28]{}: field 0x79-0x7c.7 (4)
0x070|                           f8 01               |         ..     |      key_n: 248 0x79-0x7a.7 (2)
     |                                               |                |      field_number: 31 0x7b-NA (0)
     |                                               |                |      wire_type: "Varint" (0) 0x7b-NA (0)
0x070|                                 c9 01         |           ..   |      wire_value: 201 0x7b-0x7c.7 (2)
     |                                               |                |    [29]{}: field 0x7d-0x80.7 (4)
0x070|                                       f8 01   |             .. |      key_n: 248 0x7d-0x7e.7 (2)
     |                                               |                |      field_number: 31 0x7f-NA (0)
     |                                               |                |      wire_type: "Varint" (0) 0x7f-NA (0)
0x070|                                             ad|               .|      wire_value: 301 0x7f-0x80.7 (2)
0x080|02                                             |.               |
     |                                               |                |    [30]{}: field 0x81-0x84.7 (4)
0x080|   80 02                                       | ..             |      key_n: 256 0x81-0x82.7 (2)
     |                                               |                |      field_number: 32 0x83-NA (0)
     |                                               |                |      wire_type: "Varint" (0) 0x83-NA (0)
0x080|         ca 01                                 |   ..           |      wire_value: 202 0x83-0x84.7 (2)
     |                                               |                |    [31]{}: field 0x85-0x88.7 (4)
0x080|               80 02                           |     ..         |      key_n: 256 0x85-0x86.7 (2)
     |                                               |                |      field_number: 32 0x87-NA (0)
     |                                               |                |      wire_type: "Varint" (0) 0x87-NA (0)
0x080|                     ae 02                     |       ..       |      wire_value: 302 0x87-0x88.7 (2)
     |                                               |                |    [32]{}: field 0x89-0x8c.7 (4)
0x080|                           88 02               |         ..     |      key_n: 264 0x89-0x8a.7 (2)
     |                                               |                |      field_number: 33 0x8b-NA (0)
     |                                               |                |      wire_type: "Varint" (0) 0x8b-NA (0)
0x080|                                 cb 01         |           ..   |      wire_value: 203 0x8b-0x8c.7 (2)
     |                                               |                |    [33]{}: field 0x8d-0x90.7 (4)
0x080|                                       88 02   |             .. |      key_n: 264 0x8d-0x8e.7 (2)
     |                                               |                |      field_number: 33 0x8f-NA (0)
     |                                               |                |      wire_type: "Varint" (0) 0x8f-NA (0)
0x080|                                             af|               .|      wire_value: 303 0x8f-0x90.7 (2)
0x090|02                                             |.               |
     |                                               |                |    [34]{}: field 0x91-0x94.7 (4)
0x090|   90 02                                       | ..             |      key_n: 272 0x91-0x92.7 (2)
     |                                               |                |      field_number: 34 0x93-NA (0)
     |                                               |                |      wire_type: "Varint" (0) 0x93-NA (0)
0x090|         cc 01                                 |   ..           |      wire_value: 204 0x93-0x94.7 (2)
     |                                               |                |    [35]{}: field 0x95-0x98.7 (4)
0x090|               90 02                           |     ..         |      key_n: 272 0x95-0x96.7 (2)
     |                                               |                |      field_number: 34 0x97-NA (0)
     |                                               |                |      wire_type: "Varint" (0) 0x97-NA (0)
0x090|                     b0 02                     |       ..       |      wire_value: 304 0x97-0x98.7 (2)
     |                                               |                |    [36]{}: field 0x99-0x9c.7 (4)
0x090|                           98 02               |         ..     |      key_n: 280 0x99-0x9a.7 (2)
     |                                               |                |      field_number: 35 0x9b-NA (0)
     |                                               |                |      wire_type: "Varint" (0) 0x9b-NA (0)
0x090|                                 9a 03         |           ..   |      wire_value: 410 0x9b-0x9c.7 (2)
     |                                               |                |    [37]{}: field 0x9d-0xa0.7 (4)
0x090|                                       98 02   |             .. |      key_n: 280 0x9d-0x9e.7 (2)
     |                                               |                |      field_number: 35 0x9f-NA (0)
     |                                               |                |      wire_type: "Varint" (0) 0x9f-NA (0)
0x090|                                             e2|               .|      wire_value: 610 0x9f-0xa0.7 (2)
0x0a0|04                                             |.               |
     |                                               |                |    [38]{}: field 0xa1-0xa4.7 (4)
0x0a0|   a0 02                                       | ..             |      key_n: 288 0xa1-0xa2.7 (2)
     |                                               |                |      field_number: 36 0xa3-NA (0)
     |                                               |                |      wire_type: "Varint" (0) 0xa3-NA (0)
0x0a0|         9c 03                                 |   ..           |      wire_value: 412 0xa3-0xa4.7 (2)
     |                                               |                |    [39]{}: field 0xa5-0xa8.7 (4)
0x0a0|               a0 02                           |     ..         |      key_n: 288 0xa5-0xa6.7 (2)
     |                                               |                |      field_number: 36 0xa7-NA (0)
     |                                               |                |      wire_type: "Varint" (0) 0xa7-NA (0)
0x0a0|                     e4 04                     |       ..       |      wire_value: 612 0xa7-0xa8.7 (2)
     |                                               |                |    [40]{}: field 0xa9-0xae.7 (6)
0x0a0|                           ad 02               |         ..     |      key_n: 301 0xa9-0xaa.7 (2)
     |                                               |                |      field_number: 37 0xab-NA (0)
     |                                               |                |      wire_type: "32-bit" (5) 0xab-NA (0)
0x0a0|                                 cf 00 00 00   |           .... |      wire_value: 3472883712 0xab-0xae.7 (4)
     |                                               |                |    [41]{}: field 0xaf-0xb4.7 (6)
0x0a0|                                             ad|               .|      key_n: 301 0xaf-0xb0.7 (2)
0x0b0|02                                             |.               |
     |                                               |                |      field_number: 37 0xb1-NA (0)
     |                                               |                |      wire_type: "32-bit" (5) 0xb1-NA (0)
0x0b0|   33 01 00 00                                 | 3...           |      wire_value: 855703552 0xb1-0xb4.7 (4)
     |                                               |                |    [42]{}: field 0xb5-0xbe.7 (10)
0x0b0|               b1 02                           |     ..         |      key_n: 305 0xb5-0xb6.7 (2)
     |                                               |                |      field_number: 38 0xb7-NA (0)
     |                                               |                |      wire_type: "64-bit" (1) 0xb7-NA (0)
0x0b0|                     d0 00 00 00 00 00 00 00   |       ........ |      wire_value: 14987979559889010688 0xb7-0xbe.7 (8)
     |                                               |                |    [43]{}: field 0xbf-0xc8.7 (10)
0x0b0|                                             b1|               .|      key_n: 305 0xbf-0xc0.7 (2)
0x0c0|02                                             |.               |
     |                                               |                |      field_number: 38 0xc1-NA (0)
     |                                               |                |      wire_type: "64-bit" (1) 0xc1-NA (0)
0x0c0|   34 01 00 00 00 00 00 00                     | 4.......       |      wire_value: 3747276364948963328 0xc1-0xc8.7 (8)
     |                                               |                |    [44]{}: field 0xc9-0xce.7 (6)
0x0c0|                           bd 02               |         ..     |      key_n: 317 0xc9-0xca.7 (2)
     |                                               |                |      field_number: 39 0xcb-NA (0)
     |                                               |                |      wire_type: "32-bit" (5) 0xcb-NA (0)
0x0c0|                                 d1 00 00 00   |           .... |      wire_value: 3506438144 0xcb-0xce.7 (4)
     |                                               |                |    [45]{}: field 0xcf-0xd4.7 (6)
0x0c0|                                             bd|               .|      key_n: 317 0xcf-0xd0.7 (2)
0x0d0|02                                             |.               |
     |                                               |                |      field_number: 39 0xd1-NA (0)
     |                                               |                |      wire_type: "32-bit" (5) 0xd1-NA (0)
0x0d0|   35 01 00 00                                 | 5...           |      wire_value: 889257984 0xd1-0xd4.7 (4)
     |                                               |                |    [46]{}: field 0xd5-0xde.7 (10)
0x0d0|               c1 02                           |     ..         |      key_n: 321 0xd5-0xd6.7 (2)
     |                                               |                |      field_number: 40 0xd7-NA (0)
     |                                               |                |      wire_type: "64-bit" (1) 0xd7-NA (0)
0x0d0|                     d2 00 00 00 00 00 00 00   |       ........ |      wire_value: 15132094747964866560 0xd7-0xde.7 (8)
     |                                               |                |    [47]{}: field 0xdf-0xe8.7 (10)
0x0d0|                                             c1|               .|      key_n: 321 0xdf-0xe0.7 (2)
0x0e0|02                                             |.               |
     |                                               |                |      field_number: 40 0xe1-NA (0)
     |                                               |                |      wire_type: "64-bit" (1) 0xe1-NA (0)
0x0e0|   36 01 00 00 00 00 00 00                     | 6.......       |      wire_value: 3891391553024819200 0xe1-0xe8.7 (8)
     |                                               |                |    [48]{}: field 0xe9-0xee.7 (6)
0x0e0|                           cd 02               |         ..     |      key_n: 333 0xe9-0xea.7 (2)
     |                                               |                |      field_number: 41 0xeb-NA (0)
     |                                               |                |      wire_type: "32-bit" (5) 0xeb-NA (0)
0x0e0|                                 00 00 53 43   |           ..SC |      wire_value: 21315 0xeb-0xee.7 (4)
     |                                               |                |    [49]{}: field 0xef-0xf4.7 (6)
0x0e0|                                             cd|               .|      key_n: 333 0xef-0xf0.7 (2)
0x0f0|02                                             |.               |
     |                                               |                |      field_number: 41 0xf1-NA (0)
     |                                               |                |      wire_type: "32-bit" (5) 0xf1-NA (0)
0x0f0|   00 80 9b 43                                 | ...C           |      wire_value: 8428355 0xf1-0xf4.7 (4)
     |                                               |                |    [50]{}: field 0xf5-0xfe.7 (10)
0x0f0|               d1 02                           |     ..         |      key_n: 337 0xf5-0xf6.7 (2)
     |                                               |                |      field_number: 42 0xf7-NA (0)
     |                                               |                |      wire_type: "64-bit" (1) 0xf7-NA (0)
0x0f0|                     00 00 00 00 00 80 6a 40   |       ......j@ |      wire_value: 8415808 0xf7-0xfe.7 (8)
     |                                               |                |    [51]{}: field 0xff-0x108.7 (10)
0x0f0|                                             d1|               .|      key_n: 337 0xff-0x100.7 (2)
0x100|02                                             |.               |
     |                                               |                |      field_number: 42 0x101-NA (0)
     |                                               |                |      wire_type: "64-bit" (1) 0x101-NA (0)
0x100|   00 00 00 00 00 80 73 40                     | ......s@       |      wire_value: 8418112 0x101-0x108.7 (8)
     |                                               |                |    [52]{}: field 0x109-0x10b.7 (3)
0x100|                           d8 02               |         ..     |      key_n: 344 0x109-0x10a.7 (2)
     |                                               |                |      field_number: 43 0x10b-NA (0)
     |                                               |                |      wire_type: "Varint" (0) 0x10b-NA (0)
0x100|                                 01            |           .    |      wire_value: 1 0x10b-0x10b.7 (1)
     |                                               |                |    [53]{}: field 0x10c-0x10e.7 (3)
0x100|                                    d8 02      |            ..  |      key_n: 344 0x10c-0x10d.7 (2)
     |                                               |                |      field_number: 43 0x10e-NA (0)
     |                                               |                |      wire_type: "Varint" (0) 0x10e-NA (0)
0x100|                                          00   |              . |      wire_value: 0 0x10e-0x10e.7 (1)
     |                                               |                |    [54]{}: field 0x10f-0x114.7 (6)
0x100|                                             e2|               .|      key_n: 354 0x10f-0x110.7 (2)
0x110|02                                             |.               |
     |                                               |                |      field_number: 44 0x111-NA (0)
     |                                               |                |      wire_type: "Length-delimited" (2) 0x111-NA (0)
0x110|   03                                          | .              |      length: 3 0x111-0x111.7 (1)
0x110|      32 31 35                                 |  215           |      wire_value: raw bits 0x112-0x114.7 (3)
     |                                               |                |    [55]{}: field 0x115-0x11a.7 (6)
0x110|               e2 02                           |     ..         |      key_n: 354 0x115-0x116.7 (2)
     |                                               |                |      field_number: 44 0x117-NA (0)
     |                                               |                |      wire_type: "Length-delimited" (2) 0x117-NA (0)
0x110|                     03                        |       .        |      length: 3 0x117-0x117.7 (1)
0x110|                        33 31 35               |        315     |      wire_value: raw bits 0x118-0x11a.7 (3)
     |                                               |                |    [56]{}: field 0x11b-0x120.7 (6)
0x110|                                 ea 02         |           ..   |      key_n: 362 0x11b-0x11c.7 (2)
     |                                               |                |      field_number: 45 0x11d-NA (0)
     |                                               |                |      wire_type: "Length-delimited" (2) 0x11d-NA (0)
0x110|                                       03      |             .  |      length: 3 0x11d-0x11d.7 (1)
0x110|                                          32 31|              21|      wire_value: raw bits 0x11e-0x120.7 (3)
0x120|36                                             |6               |
     |                                               |                |    [57]{}: field 0x121-0x126.7 (6)
0x120|   ea 02                                       | ..             |      key_n: 362 0x121-0x122.7 (2)
     |                                               |                |      field_number: 45 0x123-NA (0)
     |                                               |                |      wire_type: "Length-delimited" (2) 0x123-NA (0)
0x120|         03                                    |   .            |      length: 3 0x123-0x123.7 (1)
0x120|            33 31 36                           |    316         |      wire_value: raw bits 0x124-0x126.7 (3)
     |                                               |                |    [58]{}: field 0x127-0x128.7 (2)
0x120|                     f3 02                     |       ..       |      key_n: 371 0x127-0x128.7 (2)
     |                                               |                |      field_number: 46 0x129-NA (0)
     |                                               |                |      wire_type: "" (3) 0x129-NA (0)
     |                                               |                |    [59]{}: field 0x129-0x12c.7 (4)
0x120|                           f8 02               |         ..     |      key_n: 376 0x129-0x12a.7 (2)
     |                                               |                |      field_number: 47 0x12b-NA (0)
     |                                               |                |      wire_type: "Varint" (0) 0x12b-NA (0)
0x120|                                 d9 01         |           ..   |      wire_value: 217 0x12b-0x12c.7 (2)
     |                                               |                |    [60]{}: field 0x12d-0x12e.7 (2)
0x120|                                       f4 02   |             .. |      key_n: 372 0x12d-0x12e.7 (2)
     |                                               |                |      field_number: 46 0x12f-NA (0)
     |                                               |                |      wire_type: "" (4) 0x12f-NA (0)
     |                                               |                |    [61]{}: field 0x12f-0x130.7 (2)
0x120|                                             f3|               .|      key_n: 371 0x12f-0x130.7 (2)
0x130|02                                             |.               |
     |                                               |                |      field_number: 46 0x131-NA (0)
     |                                               |                |      wire_type: "" (3) 0x131-NA (0)
     |                                               |                |    [62]{}: field 0x131-0x134.7 (4)
0x130|   f8 02                                       | ..             |      key_n: 376 0x131-0x132.7 (2)
     |                                               |                |      field_number: 47 0x133-NA (0)
     |                                               |                |      wire_type: "Varint" (0) 0x133-NA (0)
0x130|         bd 02                                 |   ..           |      wire_value: 317 0x133-0x134.7 (2)
     |                                               |                |    [63]{}: field 0x135-0x136.7 (2)
0x130|               f4 02                           |     ..         |      key_n: 372 0x135-0x136.7 (2)
     |                                               |                |      field_number: 46 0x137-NA (0)
     |                                               |                |      wire_type: "" (4) 0x137-NA (0)
     |                                               |                |    [64]{}: field 0x137-0x13c.7 (6)
0x130|                     82 03                     |       ..       |      key_n: 386 0x137-0x138.7 (2)
     |                                               |                |      field_number: 48 0x139-NA (0)
     |                                               |                |      wire_type: "Length-delimited" (2) 0x139-NA (0)
0x130|                           03                  |         .      |      length: 3 0x139-0x139.7 (1)
0x130|                              08 da 01         |          ...   |      wire_value: raw bits 0x13a-0x13c.7 (3)
     |                                               |                |    [65]{}: field 0x13d-0x142.7 (6)
0x130|                                       82 03   |             .. |      key_n: 386 0x13d-0x13e.7 (2)
     |                                               |                |      field_number: 48 0x13f-NA (0)
     |                                               |                |      wire_type: "Length-delimited" (2) 0x13f-NA (0)
0x130|                                             03|               .|      length: 3 0x13f-0x13f.7 (1)
0x140|08 be 02                                       |...             |      wire_value: raw bits 0x140-0x142.7 (3)
     |                                               |                |    [66]{}: field 0x143-0x148.7 (6)
0x140|         8a 03                                 |   ..           |      key_n: 394 0x143-0x144.7 (2)
     |                                               |                |      field_number: 49 0x145-NA (0)
     |                                               |                |      wire_type: "Length-delimited" (2) 0x145-NA (0)
0x140|               03                              |     .          |      length: 3 0x145-0x145.7 (1)
0x140|                  08 db 01                     |      ...       |      wire_value: raw bits 0x146-0x148.7 (3)
     |                                               |                |    [67]{}: field 0x149-0x14e.7 (6)
0x140|                           8a 03               |         ..     |      key_n: 394 0x149-0x14a.7 (2)
     |                                               |                |      field_number: 49 0x14b-NA (0)
     |                                               |                |      wire_type: "Length-delimited" (2) 0x14b-NA (0)
0x140|                                 03            |           .    |      length: 3 0x14b-0x14b.7 (1)
0x140|                                    08 bf 02   |            ... |      wire_value: raw bits 0x14c-0x14e.7 (3)
     |                                               |                |    [68]{}: field 0x14f-0x154.7 (6)
0x140|                                             92|               .|      key_n: 402 0x14f-0x150.7 (2)
0x150|03                                             |.               |
     |                                               |                |      field_number: 50 0x151-NA (0)
     |                                               |                |      wire_type: "Length-delimited" (2) 0x151-NA (0)
0x150|   03                                          | .              |      length: 3 0x151-0x151.7 (1)
0x150|      08 dc 01                                 |  ...           |      wire_value: raw bits 0x152-0x154.7 (3)
     |                                               |                |    [69]{}: field 0x155-0x15a.7 (6)
0x150|               92 03                           |     ..         |      key_n: 402 0x155-0x156.7 (2)
     |                                               |                |      field_number: 50 0x157-NA (0)
     |                                               |                |      wire_type: "Length-delimited" (2) 0x157-NA (0)
0x150|                     03                        |       .        |      length: 3 0x157-0x157.7 (1)
0x150|                        08 c0 02               |        ...     |      wire_value: raw bits 0x158-0x15a.7 (3)
     |                                               |                |    [70]{}: field 0x15b-0x15d.7 (3)
0x150|                                 98 03         |           ..   |      key_n: 408 0x15b-0x15c.7 (2)
     |                                               |                |      field_number: 51 0x15d-NA (0)
     |                                               |                |      wire_type: "Varint" (0) 0x15d-NA (0)
0x150|                                       02      |             .  |      wire_value: 2 0x15d-0x15d.7 (1)
     |                                               |                |    [71]{}: field 0x15e-0x160.7 (3)
0x150|                                          98 03|              ..|      key_n: 408 0x15e-0x15f.7 (2)
     |                                               |                |      field_number: 51 0x160-NA (0)
     |                                               |                |      wire_type: "Varint" (0) 0x160-NA (0)
0x160|03                                             |.               |      wire_value: 3 0x160-0x160.7 (1)
     |                                               |                |    [72]{}: field 0x161-0x163.7 (3)
0x160|   a0 03                                       | ..             |      key_n: 416 0x161-0x162.7 (2)
     |                                               |                |      field_number: 52 0x163-NA (0)
     |                                               |                |      wire_type: "Varint" (0) 0x163-NA (0)
0x160|         05                                    |   .            |      wire_value: 5 0x163-0x163.7 (1)
     |                                               |                |    [73]{}: field 0x164-0x166.7 (3)
0x160|            a0 03                              |    ..          |      key_n: 416 0x164-0x165.7 (2)
     |                                               |                |      field_number: 52 0x166-NA (0)
     |                                               |                |      wire_type: "Varint" (0) 0x166-NA (0)
0x160|                  06                           |      .         |      wire_value: 6 0x166-0x166.7 (1)
     |                                               |                |    [74]{}: field 0x167-0x169.7 (3)
0x160|                     a8 03                     |       ..       |      key_n: 424 0x167-0x168.7 (2)
     |                                               |                |      field_number: 53 0x169-NA (0)
     |                                               |                |      wire_type: "Varint" (0) 0x169-NA (0)
0x160|                           08                  |         .      |      wire_value: 8 0x169-0x169.7 (1)
     |                                               |                |    [75]{}: field 0x16a-0x16c.7 (3)
0x160|                              a8 03            |          ..    |      key_n: 424 0x16a-0x16b.7 (2)
     |                                               |                |      field_number: 53 0x16c-NA (0)
     |                                               |                |      wire_type: "Varint" (0) 0x16c-NA (0)
0x160|                                    09         |            .   |      wire_value: 9 0x16c-0x16c.7 (1)
     |                                               |                |    [76]{}: field 0x16d-0x172.7 (6)
0x160|                                       b2 03   |             .. |      key_n: 434 0x16d-0x16e.7 (2)
     |                                               |                |      field_number: 54 0x16f-NA (0)
     |                                               |                |      wire_type: "Length-delimited" (2) 0x16f-NA (0)
0x160|                                             03|               .|      length: 3 0x16f-0x16f.7 (1)
0x170|32 32 34                                       |224             |      wire_value: raw bits 0x170-0x172.7 (3)
     |                                               |                |    [77]{}: field 0x173-0x178.7 (6)
0x170|         b2 03                                 |   ..           |      key_n: 434 0x173-0x174.7 (2)
     |                                               |                |      field_number: 54 0x175-NA (0)
     |                                               |                |      wire_type: "Length-delimited" (2) 0x175-NA (0)
0x170|               03                              |     .          |      length: 3 0x175-0x175.7 (1)
0x170|                  33 32 34                     |      324       |      wire_value: raw bits 0x176-0x178.7 (3)
     |                                               |                |    [78]{}: field 0x179-0x17e.7 (6)
0x170|                           ba 03               |         ..     |      key_n: 442 0x179-0x17a.7 (2)
     |                                               |                |      field_number: 55 0x17b-NA (0)
     |                                               |                |      wire_type: "Length-delimited" (2) 0x17b-NA (0)
0x170|                                 03            |           .    |      length: 3 0x17b-0x17b.7 (1)
0x170|                                    32 32 35   |            225 |      wire_value: raw bits 0x17c-0x17e.7 (3)
     |                                               |                |    [79]{}: field 0x17f-0x184.7 (6)
0x170|                                             ba|               .|      key_n: 442 0x17f-0x180.7 (2)
0x180|03                                             |.               |
     |                                               |                |      field_number: 55 0x181-NA (0)
     |                                               |                |      wire_type: "Length-delimited" (2) 0x181-NA (0)
0x180|   03                                          | .              |      length: 3 0x181-0x181.7 (1)
0x180|      33 32 35                                 |  325           |      wire_value: raw bits 0x182-0x184.7 (3)
     |                                               |                |    [80]{}: field 0x185-0x18a.7 (6)
0x180|               ca 03                           |     ..         |      key_n: 458 0x185-0x186.7 (2)
     |                                               |                |      field_number: 57 0x187-NA (0)
     |                                               |                |      wire_type: "Length-delimited" (2) 0x187-NA (0)
0x180|                     03                        |       .        |      length: 3 0x187-0x187.7 (1)
0x180|                        08 e3 01               |        ...     |      wire_value: raw bits 0x188-0x18a.7 (3)
     |                                               |                |    [81]{}: field 0x18b-0x190.7 (6)
0x180|                                 ca 03         |           ..   |      key_n: 458 0x18b-0x18c.7 (2)
     |                                               |                |      field_number: 57 0x18d-NA (0)
     |                                               |                |      wire_type: "Length-delimited" (2) 0x18d-NA (0)
0x180|                                       03      |             .  |      length: 3 0x18d-0x18d.7 (1)
0x180|                                          08 c7|              ..|      wire_value: raw bits 0x18e-0x190.7 (3)
0x190|02                                             |.               |
     |                                               |                |    [82]{}: field 0x191-0x194.7 (4)
0x190|   e8 03                                       | ..             |      key_n: 488 0x191-0x192.7 (2)
     |                                               |                |      field_number: 61 0x193-NA (0)
     |                                               |                |      wire_type: "Varint" (0) 0x193-NA (0)
0x190|         91 03                                 |   ..           |      wire_value: 401 0x193-0x194.7 (2)
     |                                               |                |    [83]{}: field 0x195-0x198.7 (4)
0x190|               f0 03                           |     ..         |      key_n: 496 0x195-0x196.7 (2)
     |                                               |                |      field_number: 62 0x197-NA (0)
     |                                               |                |      wire_type: "Varint" (0) 0x197-NA (0)
0x190|                     92 03                     |       ..       |      wire_value: 402 0x197-0x198.7 (2)
     |                                               |                |    [84]{}: field 0x199-0x19c.7 (4)
0x190|                           f8 03               |         ..     |      key_n: 504 0x199-0x19a.7 (2)
     |                                               |                |      field_number: 63 0x19b-NA (0)
     |                                               |                |      wire_type: "Varint" (0) 0x19b-NA (0)
0x190|                                 93 03         |           ..   |      wire_value: 403 0x19b-0x19c.7 (2)
     |                                               |                |    [85]{}: field 0x19d-0x1a0.7 (4)
0x190|                                       80 04   |             .. |      key_n: 512 0x19d-0x19e.7 (2)
     |                                               |                |      field_number: 64 0x19f-NA (0)
     |                                               |                |      wire_type: "Varint" (0) 0x19f-NA (0)
0x190|                                             94|               .|      wire_value: 404 0x19f-0x1a0.7 (2)
0x1a0|03                                             |.               |
     |                                               |                |    [86]{}: field 0x1a1-0x1a4.7 (4)
0x1a0|   88 04                                       | ..             |      key_n: 520 0x1a1-0x1a2.7 (2)
     |                                               |                |      field_number: 65 0x1a3-NA (0)
     |                                               |                |      wire_type: "Varint" (0) 0x1a3-NA (0)
0x1a0|         aa 06                                 |   ..           |      wire_value: 810 0x1a3-0x1a4.7 (2)
     |                                               |                |    [87]{}: field 0x1a5-0x1a8.7 (4)
0x1a0|               90 04                           |     ..         |      key_n: 528 0x1a5-0x1a6.7 (2)
     |                                               |                |      field_number: 66 0x1a7-NA (0)
     |                                               |                |      wire_type: "Varint" (0) 0x1a7-NA (0)
0x1a0|                     ac 06                     |       ..       |      wire_value: 812 0x1a7-0x1a8.7 (2)
     |                                               |                |    [88]{}: field 0x1a9-0x1ae.7 (6)
0x1a0|                           9d 04               |         ..     |      key_n: 541 0x1a9-0x1aa.7 (2)
     |                                               |                |      field_number: 67 0x1ab-NA (0)
     |                                               |                |      wire_type: "32-bit" (5) 0x1ab-NA (0)
0x1a0|                                 97 01 00 00   |           .... |      wire_value: 2533425152 0x1ab-0x1ae.7 (4)
     |                                               |                |    [89]{}: field 0x1af-0x1b8.7 (10)
0x1a0|                                             a1|               .|      key_n: 545 0x1af-0x1b0.7 (2)
0x1b0|04                                             |.               |
     |                                               |                |      field_number: 68 0x1b1-NA (0)
     |                                               |                |      wire_type: "64-bit" (1) 0x1b1-NA (0)
0x1b0|   98 01 00 00 00 00 00 00                     | ........       |      wire_value: 10953035768741756928 0x1b1-0x1b8.7 (8)
     |                                               |                |    [90]{}: field 0x1b9-0x1be.7 (6)
0x1b0|                           ad 04               |         ..     |      key_n: 557 0x1b9-0x1ba.7 (2)
     |                                               |                |      field_number: 69 0x1bb-NA (0)
     |                                               |                |      wire_type: "32-bit" (5) 0x1bb-NA (0)
0x1b0|                                 99 01 00 00   |           .... |      wire_value: 2566979584 0x1bb-0x1be.7 (4)
     |                                               |                |    [91]{}: field 0x1bf-0x1c8.7 (10)
0x1b0|                                             b1|               .|      key_n: 561 0x1bf-0x1c0.7 (2)
0x1c0|04                                             |.               |
     |                                               |                |      field_number: 70 0x1c1-NA (0)
     |                                               |                |      wire_type: "64-bit" (1) 0x1c1-NA (0)
0x1c0|   9a 01 00 00 00 00 00 00                     | ........       |      wire_value: 11097150956817612800 0x1c1-0x1c8.7 (8)
     |                                               |                |    [92]{}: field 0x1c9-0x1ce.7 (6)
0x1c0|                           bd 04               |         ..     |      key_n: 573 0x1c9-0x1ca.7 (2)
     |                                               |                |      field_number: 71 0x1cb-NA (0)
     |                                               |                |      wire_type: "32-bit" (5) 0x1cb-NA (0)
0x1c0|                                 00 80 cd 43   |           ...C |      wire_value: 8441155 0x1cb-0x1ce.7 (4)
     |                                               |                |    [93]{}: field 0x1cf-0x1d8.7 (10)
0x1c0|                                             c1|               .|      key_n: 577 0x1cf-0x1d0.7 (2)
0x1d0|04                                             |.               |
     |                                               |                |      field_number: 72 0x1d1-NA (0)
     |                                               |                |      wire_type: "64-bit" (1) 0x1d1-NA (0)
0x1d0|   00 00 00 00 00 c0 79 40                     | ......y@       |      wire_value: 12613952 0x1d1-0x1d8.7 (8)
     |                                               |                |    [94]{}: field 0x1d9-0x1db.7 (3)
0x1d0|                           c8 04               |         ..     |      key_n: 584 0x1d9-0x1da.7 (2)
     |                                               |                |      field_number: 73 0x1db-NA (0)
     |                                               |                |      wire_type: "Varint" (0) 0x1db-NA (0)
0x1d0|                                 00            |           .    |      wire_value: 0 0x1db-0x1db.7 (1)
     |                                               |                |    [95]{}: field 0x1dc-0x1e1.7 (6)
0x1d0|                                    d2 04      |            ..  |      key_n: 594 0x1dc-0x1dd.7 (2)
     |                                               |                |      field_number: 74 0x1de-NA (0)
     |                                               |                |      wire_type: "Length-delimited" (2) 0x1de-NA (0)
0x1d0|                                          03   |              . |      length: 3 0x1de-0x1de.7 (1)
0x1d0|                                             34|               4|      wire_value: raw bits 0x1df-0x1e1.7 (3)
0x1e0|31 35                                          |15              |
     |                                               |                |    [96]{}: field 0x1e2-0x1e7.7 (6)
0x1e0|      da 04                                    |  ..            |      key_n: 602 0x1e2-0x1e3.7 (2)
     |                                               |                |      field_number: 75 0x1e4-NA (0)
     |                                               |                |      wire_type: "Length-delimited" (2) 0x1e4-NA (0)
0x1e0|            03                                 |    .           |      length: 3 0x1e4-0x1e4.7 (1)
0x1e0|               34 31 36                        |     416        |      wire_value: raw bits 0x1e5-0x1e7.7 (3)
     |                                               |                |    [97]{}: field 0x1e8-0x1ea.7 (3)
0x1e0|                        88 05                  |        ..      |      key_n: 648 0x1e8-0x1e9.7 (2)
     |                                               |                |      field_number: 81 0x1ea-NA (0)
     |                                               |                |      wire_type: "Varint" (0) 0x1ea-NA (0)
0x1e0|                              01               |          .     |      wire_value: 1 0x1ea-0x1ea.7 (1)
     |                                               |                |    [98]{}: field 0x1eb-0x1ed.7 (3)
0x1e0|                                 90 05         |           ..   |      key_n: 656 0x1eb-0x1ec.7 (2)
     |                                               |                |      field_number: 82 0x1ed-NA (0)
     |                                               |                |      wire_type: "Varint" (0) 0x1ed-NA (0)
0x1e0|                                       04      |             .  |      wire_value: 4 0x1ed-0x1ed.7 (1)
     |                                               |                |    [99]{}: field 0x1ee-0x1f0.7 (3)
0x1e0|                                          98 05|              ..|      key_n: 664 0x1ee-0x1ef.7 (2)
     |                                               |                |      field_number: 83 0x1f0-NA (0)
     |                                               |                |      wire_type: "Varint" (0) 0x1f0-NA (0)
0x1f0|07                                             |.               |      wire_value: 7 0x1f0-0x1f0.7 (1)
     |                                               |                |    [100]{}: field 0x1f1-0x1f6.7 (6)
0x1f0|   a2 05                                       | ..             |      key_n: 674 0x1f1-0x1f2.7 (2)
     |                                               |                |      field_number: 84 0x1f3-NA (0)
     |                                               |                |      wire_type: "Length-delimited" (2) 0x1f3-NA (0)
0x1f0|         03                                    |   .            |      length: 3 0x1f3-0x1f3.7 (1)
0x1f0|            34 32 34                           |    424         |      wire_value: raw bits 0x1f4-0x1f6.7 (3)
     |                                               |                |    [101]{}: field 0x1f7-0x1fc.7 (6)
0x1f0|                     aa 05                     |       ..       |      key_n: 682 0x1f7-0x1f8.7 (2)
     |                                               |                |      field_number: 85 0x1f9-NA (0)
     |                                               |                |      wire_type: "Length-delimited" (2) 0x1f9-NA (0)
0x1f0|                           03                  |         .      |      length: 3 0x1f9-0x1f9.7 (1)
0x1f0|                              34 32 35         |          425   |      wire_value: raw bits 0x1fa-0x1fc.7 (3)
     |                                               |                |    [102]{}: field 0x1fd-0x200.7 (4)
0x1f0|                                       f8 06   |             .. |      key_n: 888 0x1fd-0x1fe.7 (2)
     |                                               |                |      field_number: 111 0x1ff-NA (0)
     |                                               |                |      wire_type: "Varint" (0) 0x1ff-NA (0)
0x1f0|                                             d9|               .|      wire_value: 601 0x1ff-0x200.7 (2)
0x200|04                                             |.               |
     |                                               |                |    [103]{}: field 0x201-0x206.7 (6)
0x200|   82 07                                       | ..             |      key_n: 898 0x201-0x202.7 (2)
     |                                               |                |      field_number: 112 0x203-NA (0)
     |                                               |                |      wire_type: "Length-delimited" (2) 0x203-NA (0)
0x200|         03                                    |   .            |      length: 3 0x203-0x203.7 (1)
0x200|            08 da 04                           |    ...         |      wire_value: raw bits 0x204-0x206.7 (3)
     |                                               |                |    [104]{}: field 0x207-0x20c.7 (6)
0x200|                     8a 07                     |       ..       |      key_n: 906 0x207-0x208.7 (2)
     |                                               |                |      field_number: 113 0x209-NA (0)
     |                                               |                |      wire_type: "Length-delimited" (2) 0x209-NA (0)
0x200|                           03                  |         .      |      length: 3 0x209-0x209.7 (1)
0x200|                              36 30 33         |          603   |      wire_value: raw bits 0x20a-0x20c.7 (3)
     |                                               |                |    [105]{}: field 0x20d-0x212.7 (6)
0x200|                                       92 07   |             .. |      key_n: 914 0x20d-0x20e.7 (2)
     |                                               |                |      field_number: 114 0x20f-NA (0)
     |                                               |                |      wire_type: "Length-delimited" (2) 0x20f-NA (0)
0x200|                                             03|               .|      length: 3 0x20f-0x20f.7 (1)
0x210|36 30 34|                                      |604|            |      wire_value: raw bits 0x210-0x212.7 (3)
