$ fq -d wasm dv address-0.wasm
     |00 01 02 03 04 05 06 07 08 09 0a 0b 0c 0d 0e 0f|0123456789abcdef|.{}: address-0.wasm (wasm) 0x0-0x2b8.7 (697)
0x000|00 61 73 6d                                    |.asm            |  magic: raw bits (valid) 0x0-0x3.7 (4)
0x000|            01 00 00 00                        |    ....        |  version: 1 0x4-0x7.7 (4)
     |                                               |                |  sections[0:6]: 0x8-0x2b8.7 (689)
     |                                               |                |    [0]{}: section 0x8-0x13.7 (12)
0x000|                        01                     |        .       |      id: "type section" (1) 0x8-0x8.7 (1)
0x000|                           0a                  |         .      |      size: 10 0x9-0x9.7 (1)
     |                                               |                |      content{}: 0xa-0x13.7 (10)
     |                                               |                |        ft{}: 0xa-0x13.7 (10)
0x000|                              02               |          .     |          n: 2 0xa-0xa.7 (1)
     |                                               |                |          x[0:2]: 0xb-0x13.7 (9)
     |                                               |                |            [0]{}: ft 0xb-0xf.7 (5)
0x000|                                 60            |           `    |              tag: 0x60 (valid) 0xb-0xb.7 (1)
     |                                               |                |              rt1{}: 0xc-0xd.7 (2)
0x000|                                    01         |            .   |                n: 1 0xc-0xc.7 (1)
     |                                               |                |                x[0:1]: 0xd-0xd.7 (1)
0x000|                                       7f      |             .  |                  [0]: "i32" (0x7f) t 0xd-0xd.7 (1)
     |                                               |                |              rt2{}: 0xe-0xf.7 (2)
0x000|                                          01   |              . |                n: 1 0xe-0xe.7 (1)
     |                                               |                |                x[0:1]: 0xf-0xf.7 (1)
0x000|                                             7f|               .|                  [0]: "i32" (0x7f) t 0xf-0xf.7 (1)
     |                                               |                |            [1]{}: ft 0x10-0x13.7 (4)
0x010|60                                             |`               |              tag: 0x60 (valid) 0x10-0x10.7 (1)
     |                                               |                |              rt1{}: 0x11-0x12.7 (2)
0x010|   01                                          | .              |                n: 1 0x11-0x11.7 (1)
     |                                               |                |                x[0:1]: 0x12-0x12.7 (1)
0x010|      7f                                       |  .             |                  [0]: "i32" (0x7f) t 0x12-0x12.7 (1)
     |                                               |                |              rt2{}: 0x13-0x13.7 (1)
0x010|         00                                    |   .            |                n: 0 0x13-0x13.7 (1)
     |                                               |                |                x[0:0]: 0x14-NA (0)
     |                                               |                |    [1]{}: section 0x14-0x34.7 (33)
0x010|            03                                 |    .           |      id: "function section" (3) 0x14-0x14.7 (1)
0x010|               1f                              |     .          |      size: 31 0x15-0x15.7 (1)
     |                                               |                |      content{}: 0x16-0x34.7 (31)
     |                                               |                |        x{}: 0x16-0x34.7 (31)
0x010|                  1e                           |      .         |          n: 30 0x16-0x16.7 (1)
     |                                               |                |          x[0:30]: 0x17-0x34.7 (30)
0x010|                     00                        |       .        |            [0]: 0 x 0x17-0x17.7 (1)
0x010|                        00                     |        .       |            [1]: 0 x 0x18-0x18.7 (1)
0x010|                           00                  |         .      |            [2]: 0 x 0x19-0x19.7 (1)
0x010|                              00               |          .     |            [3]: 0 x 0x1a-0x1a.7 (1)
0x010|                                 00            |           .    |            [4]: 0 x 0x1b-0x1b.7 (1)
0x010|                                    00         |            .   |            [5]: 0 x 0x1c-0x1c.7 (1)
0x010|                                       00      |             .  |            [6]: 0 x 0x1d-0x1d.7 (1)
0x010|                                          00   |              . |            [7]: 0 x 0x1e-0x1e.7 (1)
0x010|                                             00|               .|            [8]: 0 x 0x1f-0x1f.7 (1)
0x020|00                                             |.               |            [9]: 0 x 0x20-0x20.7 (1)
0x020|   00                                          | .              |            [10]: 0 x 0x21-0x21.7 (1)
0x020|      00                                       |  .             |            [11]: 0 x 0x22-0x22.7 (1)
0x020|         00                                    |   .            |            [12]: 0 x 0x23-0x23.7 (1)
0x020|            00                                 |    .           |            [13]: 0 x 0x24-0x24.7 (1)
0x020|               00                              |     .          |            [14]: 0 x 0x25-0x25.7 (1)
0x020|                  00                           |      .         |            [15]: 0 x 0x26-0x26.7 (1)
0x020|                     00                        |       .        |            [16]: 0 x 0x27-0x27.7 (1)
0x020|                        00                     |        .       |            [17]: 0 x 0x28-0x28.7 (1)
0x020|                           00                  |         .      |            [18]: 0 x 0x29-0x29.7 (1)
0x020|                              00               |          .     |            [19]: 0 x 0x2a-0x2a.7 (1)
0x020|                                 00            |           .    |            [20]: 0 x 0x2b-0x2b.7 (1)
0x020|                                    00         |            .   |            [21]: 0 x 0x2c-0x2c.7 (1)
0x020|                                       00      |             .  |            [22]: 0 x 0x2d-0x2d.7 (1)
0x020|                                          00   |              . |            [23]: 0 x 0x2e-0x2e.7 (1)
0x020|                                             00|               .|            [24]: 0 x 0x2f-0x2f.7 (1)
0x030|01                                             |.               |            [25]: 1 x 0x30-0x30.7 (1)
0x030|   01                                          | .              |            [26]: 1 x 0x31-0x31.7 (1)
0x030|      01                                       |  .             |            [27]: 1 x 0x32-0x32.7 (1)
0x030|         01                                    |   .            |            [28]: 1 x 0x33-0x33.7 (1)
0x030|            01                                 |    .           |            [29]: 1 x 0x34-0x34.7 (1)
     |                                               |                |    [2]{}: section 0x35-0x39.7 (5)
0x030|               05                              |     .          |      id: "memory section" (5) 0x35-0x35.7 (1)
0x030|                  03                           |      .         |      size: 3 0x36-0x36.7 (1)
     |                                               |                |      content{}: 0x37-0x39.7 (3)
     |                                               |                |        mem{}: 0x37-0x39.7 (3)
0x030|                     01                        |       .        |          n: 1 0x37-0x37.7 (1)
     |                                               |                |          x[0:1]: 0x38-0x39.7 (2)
     |                                               |                |            [0]{}: mem 0x38-0x39.7 (2)
     |                                               |                |              lim{}: 0x38-0x39.7 (2)
0x030|                        00                     |        .       |                tag: 0x0 0x38-0x38.7 (1)
0x030|                           01                  |         .      |                n: 1 0x39-0x39.7 (1)
     |                                               |                |    [3]{}: section 0x3a-0x189.7 (336)
0x030|                              07               |          .     |      id: "export section" (7) 0x3a-0x3a.7 (1)
0x030|                                 cd 02         |           ..   |      size: 333 0x3b-0x3c.7 (2)
     |                                               |                |      content{}: 0x3d-0x189.7 (333)
     |                                               |                |        ex{}: 0x3d-0x189.7 (333)
0x030|                                       1e      |             .  |          n: 30 0x3d-0x3d.7 (1)
     |                                               |                |          x[0:30]: 0x3e-0x189.7 (332)
     |                                               |                |            [0]{}: ex 0x3e-0x48.7 (11)
     |                                               |                |              nm{}: 0x3e-0x46.7 (9)
0x030|                                          08   |              . |                n: 8 0x3e-0x3e.7 (1)
0x030|                                             38|               8|                b: "8u_good1" 0x3f-0x46.7 (8)
0x040|75 5f 67 6f 6f 64 31                           |u_good1         |
     |                                               |                |              d{}: 0x47-0x48.7 (2)
0x040|                     00                        |       .        |                tag: "funcidx" (0x0) 0x47-0x47.7 (1)
0x040|                        00                     |        .       |                x: 0 0x48-0x48.7 (1)
     |                                               |                |            [1]{}: ex 0x49-0x53.7 (11)
     |                                               |                |              nm{}: 0x49-0x51.7 (9)
0x040|                           08                  |         .      |                n: 8 0x49-0x49.7 (1)
0x040|                              38 75 5f 67 6f 6f|          8u_goo|                b: "8u_good2" 0x4a-0x51.7 (8)
0x050|64 32                                          |d2              |
     |                                               |                |              d{}: 0x52-0x53.7 (2)
0x050|      00                                       |  .             |                tag: "funcidx" (0x0) 0x52-0x52.7 (1)
0x050|         01                                    |   .            |                x: 1 0x53-0x53.7 (1)
     |                                               |                |            [2]{}: ex 0x54-0x5e.7 (11)
     |                                               |                |              nm{}: 0x54-0x5c.7 (9)
0x050|            08                                 |    .           |                n: 8 0x54-0x54.7 (1)
0x050|               38 75 5f 67 6f 6f 64 33         |     8u_good3   |                b: "8u_good3" 0x55-0x5c.7 (8)
     |                                               |                |              d{}: 0x5d-0x5e.7 (2)
0x050|                                       00      |             .  |                tag: "funcidx" (0x0) 0x5d-0x5d.7 (1)
0x050|                                          02   |              . |                x: 2 0x5e-0x5e.7 (1)
     |                                               |                |            [3]{}: ex 0x5f-0x69.7 (11)
     |                                               |                |              nm{}: 0x5f-0x67.7 (9)
0x050|                                             08|               .|                n: 8 0x5f-0x5f.7 (1)
0x060|38 75 5f 67 6f 6f 64 34                        |8u_good4        |                b: "8u_good4" 0x60-0x67.7 (8)
     |                                               |                |              d{}: 0x68-0x69.7 (2)
0x060|                        00                     |        .       |                tag: "funcidx" (0x0) 0x68-0x68.7 (1)
0x060|                           03                  |         .      |                x: 3 0x69-0x69.7 (1)
     |                                               |                |            [4]{}: ex 0x6a-0x74.7 (11)
     |                                               |                |              nm{}: 0x6a-0x72.7 (9)
0x060|                              08               |          .     |                n: 8 0x6a-0x6a.7 (1)
0x060|                                 38 75 5f 67 6f|           8u_go|                b: "8u_good5" 0x6b-0x72.7 (8)
0x070|6f 64 35                                       |od5             |
     |                                               |                |              d{}: 0x73-0x74.7 (2)
0x070|         00                                    |   .            |                tag: "funcidx" (0x0) 0x73-0x73.7 (1)
0x070|            04                                 |    .           |                x: 4 0x74-0x74.7 (1)
     |                                               |                |            [5]{}: ex 0x75-0x7f.7 (11)
     |                                               |                |              nm{}: 0x75-0x7d.7 (9)
0x070|               08                              |     .          |                n: 8 0x75-0x75.7 (1)
0x070|                  38 73 5f 67 6f 6f 64 31      |      8s_good1  |                b: "8s_good1" 0x76-0x7d.7 (8)
     |                                               |                |              d{}: 0x7e-0x7f.7 (2)
0x070|                                          00   |              . |                tag: "funcidx" (0x0) 0x7e-0x7e.7 (1)
0x070|                                             05|               .|                x: 5 0x7f-0x7f.7 (1)
     |                                               |                |            [6]{}: ex 0x80-0x8a.7 (11)
     |                                               |                |              nm{}: 0x80-0x88.7 (9)
0x080|08                                             |.               |                n: 8 0x80-0x80.7 (1)
0x080|   38 73 5f 67 6f 6f 64 32                     | 8s_good2       |                b: "8s_good2" 0x81-0x88.7 (8)
     |                                               |                |              d{}: 0x89-0x8a.7 (2)
0x080|                           00                  |         .      |                tag: "funcidx" (0x0) 0x89-0x89.7 (1)
0x080|                              06               |          .     |                x: 6 0x8a-0x8a.7 (1)
     |                                               |                |            [7]{}: ex 0x8b-0x95.7 (11)
     |                                               |                |              nm{}: 0x8b-0x93.7 (9)
0x080|                                 08            |           .    |                n: 8 0x8b-0x8b.7 (1)
0x080|                                    38 73 5f 67|            8s_g|                b: "8s_good3" 0x8c-0x93.7 (8)
0x090|6f 6f 64 33                                    |ood3            |
     |                                               |                |              d{}: 0x94-0x95.7 (2)
0x090|            00                                 |    .           |                tag: "funcidx" (0x0) 0x94-0x94.7 (1)
0x090|               07                              |     .          |                x: 7 0x95-0x95.7 (1)
     |                                               |                |            [8]{}: ex 0x96-0xa0.7 (11)
     |                                               |                |              nm{}: 0x96-0x9e.7 (9)
0x090|                  08                           |      .         |                n: 8 0x96-0x96.7 (1)
0x090|                     38 73 5f 67 6f 6f 64 34   |       8s_good4 |                b: "8s_good4" 0x97-0x9e.7 (8)
     |                                               |                |              d{}: 0x9f-0xa0.7 (2)
0x090|                                             00|               .|                tag: "funcidx" (0x0) 0x9f-0x9f.7 (1)
0x0a0|08                                             |.               |                x: 8 0xa0-0xa0.7 (1)
     |                                               |                |            [9]{}: ex 0xa1-0xab.7 (11)
     |                                               |                |              nm{}: 0xa1-0xa9.7 (9)
0x0a0|   08                                          | .              |                n: 8 0xa1-0xa1.7 (1)
0x0a0|      38 73 5f 67 6f 6f 64 35                  |  8s_good5      |                b: "8s_good5" 0xa2-0xa9.7 (8)
     |                                               |                |              d{}: 0xaa-0xab.7 (2)
0x0a0|                              00               |          .     |                tag: "funcidx" (0x0) 0xaa-0xaa.7 (1)
0x0a0|                                 09            |           .    |                x: 9 0xab-0xab.7 (1)
     |                                               |                |            [10]{}: ex 0xac-0xb7.7 (12)
     |                                               |                |              nm{}: 0xac-0xb5.7 (10)
0x0a0|                                    09         |            .   |                n: 9 0xac-0xac.7 (1)
0x0a0|                                       31 36 75|             16u|                b: "16u_good1" 0xad-0xb5.7 (9)
0x0b0|5f 67 6f 6f 64 31                              |_good1          |
     |                                               |                |              d{}: 0xb6-0xb7.7 (2)
0x0b0|                  00                           |      .         |                tag: "funcidx" (0x0) 0xb6-0xb6.7 (1)
0x0b0|                     0a                        |       .        |                x: 10 0xb7-0xb7.7 (1)
     |                                               |                |            [11]{}: ex 0xb8-0xc3.7 (12)
     |                                               |                |              nm{}: 0xb8-0xc1.7 (10)
0x0b0|                        09                     |        .       |                n: 9 0xb8-0xb8.7 (1)
0x0b0|                           31 36 75 5f 67 6f 6f|         16u_goo|                b: "16u_good2" 0xb9-0xc1.7 (9)
0x0c0|64 32                                          |d2              |
     |                                               |                |              d{}: 0xc2-0xc3.7 (2)
0x0c0|      00                                       |  .             |                tag: "funcidx" (0x0) 0xc2-0xc2.7 (1)
0x0c0|         0b                                    |   .            |                x: 11 0xc3-0xc3.7 (1)
     |                                               |                |            [12]{}: ex 0xc4-0xcf.7 (12)
     |                                               |                |              nm{}: 0xc4-0xcd.7 (10)
0x0c0|            09                                 |    .           |                n: 9 0xc4-0xc4.7 (1)
0x0c0|               31 36 75 5f 67 6f 6f 64 33      |     16u_good3  |                b: "16u_good3" 0xc5-0xcd.7 (9)
     |                                               |                |              d{}: 0xce-0xcf.7 (2)
0x0c0|                                          00   |              . |                tag: "funcidx" (0x0) 0xce-0xce.7 (1)
0x0c0|                                             0c|               .|                x: 12 0xcf-0xcf.7 (1)
     |                                               |                |            [13]{}: ex 0xd0-0xdb.7 (12)
     |                                               |                |              nm{}: 0xd0-0xd9.7 (10)
0x0d0|09                                             |.               |                n: 9 0xd0-0xd0.7 (1)
0x0d0|   31 36 75 5f 67 6f 6f 64 34                  | 16u_good4      |                b: "16u_good4" 0xd1-0xd9.7 (9)
     |                                               |                |              d{}: 0xda-0xdb.7 (2)
0x0d0|                              00               |          .     |                tag: "funcidx" (0x0) 0xda-0xda.7 (1)
0x0d0|                                 0d            |           .    |                x: 13 0xdb-0xdb.7 (1)
     |                                               |                |            [14]{}: ex 0xdc-0xe7.7 (12)
     |                                               |                |              nm{}: 0xdc-0xe5.7 (10)
0x0d0|                                    09         |            .   |                n: 9 0xdc-0xdc.7 (1)
0x0d0|                                       31 36 75|             16u|                b: "16u_good5" 0xdd-0xe5.7 (9)
0x0e0|5f 67 6f 6f 64 35                              |_good5          |
     |                                               |                |              d{}: 0xe6-0xe7.7 (2)
0x0e0|                  00                           |      .         |                tag: "funcidx" (0x0) 0xe6-0xe6.7 (1)
0x0e0|                     0e                        |       .        |                x: 14 0xe7-0xe7.7 (1)
     |                                               |                |            [15]{}: ex 0xe8-0xf3.7 (12)
     |                                               |                |              nm{}: 0xe8-0xf1.7 (10)
0x0e0|                        09                     |        .       |                n: 9 0xe8-0xe8.7 (1)
0x0e0|                           31 36 73 5f 67 6f 6f|         16s_goo|                b: "16s_good1" 0xe9-0xf1.7 (9)
0x0f0|64 31                                          |d1              |
     |                                               |                |              d{}: 0xf2-0xf3.7 (2)
0x0f0|      00                                       |  .             |                tag: "funcidx" (0x0) 0xf2-0xf2.7 (1)
0x0f0|         0f                                    |   .            |                x: 15 0xf3-0xf3.7 (1)
     |                                               |                |            [16]{}: ex 0xf4-0xff.7 (12)
     |                                               |                |              nm{}: 0xf4-0xfd.7 (10)
0x0f0|            09                                 |    .           |                n: 9 0xf4-0xf4.7 (1)
0x0f0|               31 36 73 5f 67 6f 6f 64 32      |     16s_good2  |                b: "16s_good2" 0xf5-0xfd.7 (9)
     |                                               |                |              d{}: 0xfe-0xff.7 (2)
0x0f0|                                          00   |              . |                tag: "funcidx" (0x0) 0xfe-0xfe.7 (1)
0x0f0|                                             10|               .|                x: 16 0xff-0xff.7 (1)
     |                                               |                |            [17]{}: ex 0x100-0x10b.7 (12)
     |                                               |                |              nm{}: 0x100-0x109.7 (10)
0x100|09                                             |.               |                n: 9 0x100-0x100.7 (1)
0x100|   31 36 73 5f 67 6f 6f 64 33                  | 16s_good3      |                b: "16s_good3" 0x101-0x109.7 (9)
     |                                               |                |              d{}: 0x10a-0x10b.7 (2)
0x100|                              00               |          .     |                tag: "funcidx" (0x0) 0x10a-0x10a.7 (1)
0x100|                                 11            |           .    |                x: 17 0x10b-0x10b.7 (1)
     |                                               |                |            [18]{}: ex 0x10c-0x117.7 (12)
     |                                               |                |              nm{}: 0x10c-0x115.7 (10)
0x100|                                    09         |            .   |                n: 9 0x10c-0x10c.7 (1)
0x100|                                       31 36 73|             16s|                b: "16s_good4" 0x10d-0x115.7 (9)
0x110|5f 67 6f 6f 64 34                              |_good4          |
     |                                               |                |              d{}: 0x116-0x117.7 (2)
0x110|                  00                           |      .         |                tag: "funcidx" (0x0) 0x116-0x116.7 (1)
0x110|                     12                        |       .        |                x: 18 0x117-0x117.7 (1)
     |                                               |                |            [19]{}: ex 0x118-0x123.7 (12)
     |                                               |                |              nm{}: 0x118-0x121.7 (10)
0x110|                        09                     |        .       |                n: 9 0x118-0x118.7 (1)
0x110|                           31 36 73 5f 67 6f 6f|         16s_goo|                b: "16s_good5" 0x119-0x121.7 (9)
0x120|64 35                                          |d5              |
     |                                               |                |              d{}: 0x122-0x123.7 (2)
0x120|      00                                       |  .             |                tag: "funcidx" (0x0) 0x122-0x122.7 (1)
0x120|         13                                    |   .            |                x: 19 0x123-0x123.7 (1)
     |                                               |                |            [20]{}: ex 0x124-0x12e.7 (11)
     |                                               |                |              nm{}: 0x124-0x12c.7 (9)
0x120|            08                                 |    .           |                n: 8 0x124-0x124.7 (1)
0x120|               33 32 5f 67 6f 6f 64 31         |     32_good1   |                b: "32_good1" 0x125-0x12c.7 (8)
     |                                               |                |              d{}: 0x12d-0x12e.7 (2)
0x120|                                       00      |             .  |                tag: "funcidx" (0x0) 0x12d-0x12d.7 (1)
0x120|                                          14   |              . |                x: 20 0x12e-0x12e.7 (1)
     |                                               |                |            [21]{}: ex 0x12f-0x139.7 (11)
     |                                               |                |              nm{}: 0x12f-0x137.7 (9)
0x120|                                             08|               .|                n: 8 0x12f-0x12f.7 (1)
0x130|33 32 5f 67 6f 6f 64 32                        |32_good2        |                b: "32_good2" 0x130-0x137.7 (8)
     |                                               |                |              d{}: 0x138-0x139.7 (2)
0x130|                        00                     |        .       |                tag: "funcidx" (0x0) 0x138-0x138.7 (1)
0x130|                           15                  |         .      |                x: 21 0x139-0x139.7 (1)
     |                                               |                |            [22]{}: ex 0x13a-0x144.7 (11)
     |                                               |                |              nm{}: 0x13a-0x142.7 (9)
0x130|                              08               |          .     |                n: 8 0x13a-0x13a.7 (1)
0x130|                                 33 32 5f 67 6f|           32_go|                b: "32_good3" 0x13b-0x142.7 (8)
0x140|6f 64 33                                       |od3             |
     |                                               |                |              d{}: 0x143-0x144.7 (2)
0x140|         00                                    |   .            |                tag: "funcidx" (0x0) 0x143-0x143.7 (1)
0x140|            16                                 |    .           |                x: 22 0x144-0x144.7 (1)
     |                                               |                |            [23]{}: ex 0x145-0x14f.7 (11)
     |                                               |                |              nm{}: 0x145-0x14d.7 (9)
0x140|               08                              |     .          |                n: 8 0x145-0x145.7 (1)
0x140|                  33 32 5f 67 6f 6f 64 34      |      32_good4  |                b: "32_good4" 0x146-0x14d.7 (8)
     |                                               |                |              d{}: 0x14e-0x14f.7 (2)
0x140|                                          00   |              . |                tag: "funcidx" (0x0) 0x14e-0x14e.7 (1)
0x140|                                             17|               .|                x: 23 0x14f-0x14f.7 (1)
     |                                               |                |            [24]{}: ex 0x150-0x15a.7 (11)
     |                                               |                |              nm{}: 0x150-0x158.7 (9)
0x150|08                                             |.               |                n: 8 0x150-0x150.7 (1)
0x150|   33 32 5f 67 6f 6f 64 35                     | 32_good5       |                b: "32_good5" 0x151-0x158.7 (8)
     |                                               |                |              d{}: 0x159-0x15a.7 (2)
0x150|                           00                  |         .      |                tag: "funcidx" (0x0) 0x159-0x159.7 (1)
0x150|                              18               |          .     |                x: 24 0x15a-0x15a.7 (1)
     |                                               |                |            [25]{}: ex 0x15b-0x163.7 (9)
     |                                               |                |              nm{}: 0x15b-0x161.7 (7)
0x150|                                 06            |           .    |                n: 6 0x15b-0x15b.7 (1)
0x150|                                    38 75 5f 62|            8u_b|                b: "8u_bad" 0x15c-0x161.7 (6)
0x160|61 64                                          |ad              |
     |                                               |                |              d{}: 0x162-0x163.7 (2)
0x160|      00                                       |  .             |                tag: "funcidx" (0x0) 0x162-0x162.7 (1)
0x160|         19                                    |   .            |                x: 25 0x163-0x163.7 (1)
     |                                               |                |            [26]{}: ex 0x164-0x16c.7 (9)
     |                                               |                |              nm{}: 0x164-0x16a.7 (7)
0x160|            06                                 |    .           |                n: 6 0x164-0x164.7 (1)
0x160|               38 73 5f 62 61 64               |     8s_bad     |                b: "8s_bad" 0x165-0x16a.7 (6)
     |                                               |                |              d{}: 0x16b-0x16c.7 (2)
0x160|                                 00            |           .    |                tag: "funcidx" (0x0) 0x16b-0x16b.7 (1)
0x160|                                    1a         |            .   |                x: 26 0x16c-0x16c.7 (1)
     |                                               |                |            [27]{}: ex 0x16d-0x176.7 (10)
     |                                               |                |              nm{}: 0x16d-0x174.7 (8)
0x160|                                       07      |             .  |                n: 7 0x16d-0x16d.7 (1)
0x160|                                          31 36|              16|                b: "16u_bad" 0x16e-0x174.7 (7)
0x170|75 5f 62 61 64                                 |u_bad           |
     |                                               |                |              d{}: 0x175-0x176.7 (2)
0x170|               00                              |     .          |                tag: "funcidx" (0x0) 0x175-0x175.7 (1)
0x170|                  1b                           |      .         |                x: 27 0x176-0x176.7 (1)
     |                                               |                |            [28]{}: ex 0x177-0x180.7 (10)
     |                                               |                |              nm{}: 0x177-0x17e.7 (8)
0x170|                     07                        |       .        |                n: 7 0x177-0x177.7 (1)
0x170|                        31 36 73 5f 62 61 64   |        16s_bad |                b: "16s_bad" 0x178-0x17e.7 (7)
     |                                               |                |              d{}: 0x17f-0x180.7 (2)
0x170|                                             00|               .|                tag: "funcidx" (0x0) 0x17f-0x17f.7 (1)
0x180|1c                                             |.               |                x: 28 0x180-0x180.7 (1)
     |                                               |                |            [29]{}: ex 0x181-0x189.7 (9)
     |                                               |                |              nm{}: 0x181-0x187.7 (7)
0x180|   06                                          | .              |                n: 6 0x181-0x181.7 (1)
0x180|      33 32 5f 62 61 64                        |  32_bad        |                b: "32_bad" 0x182-0x187.7 (6)
     |                                               |                |              d{}: 0x188-0x189.7 (2)
0x180|                        00                     |        .       |                tag: "funcidx" (0x0) 0x188-0x188.7 (1)
0x180|                           1d                  |         .      |                x: 29 0x189-0x189.7 (1)
     |                                               |                |    [4]{}: section 0x18a-0x296.7 (269)
0x180|                              0a               |          .     |      id: "code section" (10) 0x18a-0x18a.7 (1)
0x180|                                 8a 02         |           ..   |      size: 266 0x18b-0x18c.7 (2)
     |                                               |                |      content{}: 0x18d-0x296.7 (266)
     |                                               |                |        code{}: 0x18d-0x296.7 (266)
0x180|                                       1e      |             .  |          n: 30 0x18d-0x18d.7 (1)
     |                                               |                |          x[0:30]: 0x18e-0x296.7 (265)
     |                                               |                |            [0]{}: code 0x18e-0x195.7 (8)
0x180|                                          07   |              . |              size: 7 0x18e-0x18e.7 (1)
     |                                               |                |              code{}: 0x18f-0x195.7 (7)
     |                                               |                |                t{}: 0x18f-0x18f.7 (1)
0x180|                                             00|               .|                  n: 0 0x18f-0x18f.7 (1)
     |                                               |                |                  x[0:0]: 0x190-NA (0)
     |                                               |                |                e[0:3]: 0x190-0x195.7 (6)
     |                                               |                |                  [0]{}: in 0x190-0x191.7 (2)
0x190|20                                             |                |                    local.get: 0x20 (valid) 0x190-0x190.7 (1)
0x190|   00                                          | .              |                    x: 0 0x191-0x191.7 (1)
     |                                               |                |                  [1]{}: in 0x192-0x194.7 (3)
0x190|      2d                                       |  -             |                    i32.load8_u: 0x2d (valid) 0x192-0x192.7 (1)
     |                                               |                |                    m{}: 0x193-0x194.7 (2)
0x190|         00                                    |   .            |                      a: 0 0x193-0x193.7 (1)
0x190|            00                                 |    .           |                      o: 0 0x194-0x194.7 (1)
     |                                               |                |                  [2]{}: in 0x195-0x195.7 (1)
0x190|               0b                              |     .          |                    end: 0xb (valid) 0x195-0x195.7 (1)
     |                                               |                |            [1]{}: code 0x196-0x19d.7 (8)
0x190|                  07                           |      .         |              size: 7 0x196-0x196.7 (1)
     |                                               |                |              code{}: 0x197-0x19d.7 (7)
     |                                               |                |                t{}: 0x197-0x197.7 (1)
0x190|                     00                        |       .        |                  n: 0 0x197-0x197.7 (1)
     |                                               |                |                  x[0:0]: 0x198-NA (0)
     |                                               |                |                e[0:3]: 0x198-0x19d.7 (6)
     |                                               |                |                  [0]{}: in 0x198-0x199.7 (2)
0x190|                        20                     |                |                    local.get: 0x20 (valid) 0x198-0x198.7 (1)
0x190|                           00                  |         .      |                    x: 0 0x199-0x199.7 (1)
     |                                               |                |                  [1]{}: in 0x19a-0x19c.7 (3)
0x190|                              2d               |          -     |                    i32.load8_u: 0x2d (valid) 0x19a-0x19a.7 (1)
     |                                               |                |                    m{}: 0x19b-0x19c.7 (2)
0x190|                                 00            |           .    |                      a: 0 0x19b-0x19b.7 (1)
0x190|                                    00         |            .   |                      o: 0 0x19c-0x19c.7 (1)
     |                                               |                |                  [2]{}: in 0x19d-0x19d.7 (1)
0x190|                                       0b      |             .  |                    end: 0xb (valid) 0x19d-0x19d.7 (1)
     |                                               |                |            [2]{}: code 0x19e-0x1a5.7 (8)
0x190|                                          07   |              . |              size: 7 0x19e-0x19e.7 (1)
     |                                               |                |              code{}: 0x19f-0x1a5.7 (7)
     |                                               |                |                t{}: 0x19f-0x19f.7 (1)
0x190|                                             00|               .|                  n: 0 0x19f-0x19f.7 (1)
     |                                               |                |                  x[0:0]: 0x1a0-NA (0)
     |                                               |                |                e[0:3]: 0x1a0-0x1a5.7 (6)
     |                                               |                |                  [0]{}: in 0x1a0-0x1a1.7 (2)
0x1a0|20                                             |                |                    local.get: 0x20 (valid) 0x1a0-0x1a0.7 (1)
0x1a0|   00                                          | .              |                    x: 0 0x1a1-0x1a1.7 (1)
     |                                               |                |                  [1]{}: in 0x1a2-0x1a4.7 (3)
0x1a0|      2d                                       |  -             |                    i32.load8_u: 0x2d (valid) 0x1a2-0x1a2.7 (1)
     |                                               |                |                    m{}: 0x1a3-0x1a4.7 (2)
0x1a0|         00                                    |   .            |                      a: 0 0x1a3-0x1a3.7 (1)
0x1a0|            01                                 |    .           |                      o: 1 0x1a4-0x1a4.7 (1)
     |                                               |                |                  [2]{}: in 0x1a5-0x1a5.7 (1)
0x1a0|               0b                              |     .          |                    end: 0xb (valid) 0x1a5-0x1a5.7 (1)
     |                                               |                |            [3]{}: code 0x1a6-0x1ad.7 (8)
0x1a0|                  07                           |      .         |              size: 7 0x1a6-0x1a6.7 (1)
     |                                               |                |              code{}: 0x1a7-0x1ad.7 (7)
     |                                               |                |                t{}: 0x1a7-0x1a7.7 (1)
0x1a0|                     00                        |       .        |                  n: 0 0x1a7-0x1a7.7 (1)
     |                                               |                |                  x[0:0]: 0x1a8-NA (0)
     |                                               |                |                e[0:3]: 0x1a8-0x1ad.7 (6)
     |                                               |                |                  [0]{}: in 0x1a8-0x1a9.7 (2)
0x1a0|                        20                     |                |                    local.get: 0x20 (valid) 0x1a8-0x1a8.7 (1)
0x1a0|                           00                  |         .      |                    x: 0 0x1a9-0x1a9.7 (1)
     |                                               |                |                  [1]{}: in 0x1aa-0x1ac.7 (3)
0x1a0|                              2d               |          -     |                    i32.load8_u: 0x2d (valid) 0x1aa-0x1aa.7 (1)
     |                                               |                |                    m{}: 0x1ab-0x1ac.7 (2)
0x1a0|                                 00            |           .    |                      a: 0 0x1ab-0x1ab.7 (1)
0x1a0|                                    02         |            .   |                      o: 2 0x1ac-0x1ac.7 (1)
     |                                               |                |                  [2]{}: in 0x1ad-0x1ad.7 (1)
0x1a0|                                       0b      |             .  |                    end: 0xb (valid) 0x1ad-0x1ad.7 (1)
     |                                               |                |            [4]{}: code 0x1ae-0x1b5.7 (8)
0x1a0|                                          07   |              . |              size: 7 0x1ae-0x1ae.7 (1)
     |                                               |                |              code{}: 0x1af-0x1b5.7 (7)
     |                                               |                |                t{}: 0x1af-0x1af.7 (1)
0x1a0|                                             00|               .|                  n: 0 0x1af-0x1af.7 (1)
     |                                               |                |                  x[0:0]: 0x1b0-NA (0)
     |                                               |                |                e[0:3]: 0x1b0-0x1b5.7 (6)
     |                                               |                |                  [0]{}: in 0x1b0-0x1b1.7 (2)
0x1b0|20                                             |                |                    local.get: 0x20 (valid) 0x1b0-0x1b0.7 (1)
0x1b0|   00                                          | .              |                    x: 0 0x1b1-0x1b1.7 (1)
     |                                               |                |                  [1]{}: in 0x1b2-0x1b4.7 (3)
0x1b0|      2d                                       |  -             |                    i32.load8_u: 0x2d (valid) 0x1b2-0x1b2.7 (1)
     |                                               |                |                    m{}: 0x1b3-0x1b4.7 (2)
0x1b0|         00                                    |   .            |                      a: 0 0x1b3-0x1b3.7 (1)
0x1b0|            19                                 |    .           |                      o: 25 0x1b4-0x1b4.7 (1)
     |                                               |                |                  [2]{}: in 0x1b5-0x1b5.7 (1)
0x1b0|               0b                              |     .          |                    end: 0xb (valid) 0x1b5-0x1b5.7 (1)
     |                                               |                |            [5]{}: code 0x1b6-0x1bd.7 (8)
0x1b0|                  07                           |      .         |              size: 7 0x1b6-0x1b6.7 (1)
     |                                               |                |              code{}: 0x1b7-0x1bd.7 (7)
     |                                               |                |                t{}: 0x1b7-0x1b7.7 (1)
0x1b0|                     00                        |       .        |                  n: 0 0x1b7-0x1b7.7 (1)
     |                                               |                |                  x[0:0]: 0x1b8-NA (0)
     |                                               |                |                e[0:3]: 0x1b8-0x1bd.7 (6)
     |                                               |                |                  [0]{}: in 0x1b8-0x1b9.7 (2)
0x1b0|                        20                     |                |                    local.get: 0x20 (valid) 0x1b8-0x1b8.7 (1)
0x1b0|                           00                  |         .      |                    x: 0 0x1b9-0x1b9.7 (1)
     |                                               |                |                  [1]{}: in 0x1ba-0x1bc.7 (3)
0x1b0|                              2c               |          ,     |                    i32.load8_s: 0x2c (valid) 0x1ba-0x1ba.7 (1)
     |                                               |                |                    m{}: 0x1bb-0x1bc.7 (2)
0x1b0|                                 00            |           .    |                      a: 0 0x1bb-0x1bb.7 (1)
0x1b0|                                    00         |            .   |                      o: 0 0x1bc-0x1bc.7 (1)
     |                                               |                |                  [2]{}: in 0x1bd-0x1bd.7 (1)
0x1b0|                                       0b      |             .  |                    end: 0xb (valid) 0x1bd-0x1bd.7 (1)
     |                                               |                |            [6]{}: code 0x1be-0x1c5.7 (8)
0x1b0|                                          07   |              . |              size: 7 0x1be-0x1be.7 (1)
     |                                               |                |              code{}: 0x1bf-0x1c5.7 (7)
     |                                               |                |                t{}: 0x1bf-0x1bf.7 (1)
0x1b0|                                             00|               .|                  n: 0 0x1bf-0x1bf.7 (1)
     |                                               |                |                  x[0:0]: 0x1c0-NA (0)
     |                                               |                |                e[0:3]: 0x1c0-0x1c5.7 (6)
     |                                               |                |                  [0]{}: in 0x1c0-0x1c1.7 (2)
0x1c0|20                                             |                |                    local.get: 0x20 (valid) 0x1c0-0x1c0.7 (1)
0x1c0|   00                                          | .              |                    x: 0 0x1c1-0x1c1.7 (1)
     |                                               |                |                  [1]{}: in 0x1c2-0x1c4.7 (3)
0x1c0|      2c                                       |  ,             |                    i32.load8_s: 0x2c (valid) 0x1c2-0x1c2.7 (1)
     |                                               |                |                    m{}: 0x1c3-0x1c4.7 (2)
0x1c0|         00                                    |   .            |                      a: 0 0x1c3-0x1c3.7 (1)
0x1c0|            00                                 |    .           |                      o: 0 0x1c4-0x1c4.7 (1)
     |                                               |                |                  [2]{}: in 0x1c5-0x1c5.7 (1)
0x1c0|               0b                              |     .          |                    end: 0xb (valid) 0x1c5-0x1c5.7 (1)
     |                                               |                |            [7]{}: code 0x1c6-0x1cd.7 (8)
0x1c0|                  07                           |      .         |              size: 7 0x1c6-0x1c6.7 (1)
     |                                               |                |              code{}: 0x1c7-0x1cd.7 (7)
     |                                               |                |                t{}: 0x1c7-0x1c7.7 (1)
0x1c0|                     00                        |       .        |                  n: 0 0x1c7-0x1c7.7 (1)
     |                                               |                |                  x[0:0]: 0x1c8-NA (0)
     |                                               |                |                e[0:3]: 0x1c8-0x1cd.7 (6)
     |                                               |                |                  [0]{}: in 0x1c8-0x1c9.7 (2)
0x1c0|                        20                     |                |                    local.get: 0x20 (valid) 0x1c8-0x1c8.7 (1)
0x1c0|                           00                  |         .      |                    x: 0 0x1c9-0x1c9.7 (1)
     |                                               |                |                  [1]{}: in 0x1ca-0x1cc.7 (3)
0x1c0|                              2c               |          ,     |                    i32.load8_s: 0x2c (valid) 0x1ca-0x1ca.7 (1)
     |                                               |                |                    m{}: 0x1cb-0x1cc.7 (2)
0x1c0|                                 00            |           .    |                      a: 0 0x1cb-0x1cb.7 (1)
0x1c0|                                    01         |            .   |                      o: 1 0x1cc-0x1cc.7 (1)
     |                                               |                |                  [2]{}: in 0x1cd-0x1cd.7 (1)
0x1c0|                                       0b      |             .  |                    end: 0xb (valid) 0x1cd-0x1cd.7 (1)
     |                                               |                |            [8]{}: code 0x1ce-0x1d5.7 (8)
0x1c0|                                          07   |              . |              size: 7 0x1ce-0x1ce.7 (1)
     |                                               |                |              code{}: 0x1cf-0x1d5.7 (7)
     |                                               |                |                t{}: 0x1cf-0x1cf.7 (1)
0x1c0|                                             00|               .|                  n: 0 0x1cf-0x1cf.7 (1)
     |                                               |                |                  x[0:0]: 0x1d0-NA (0)
     |                                               |                |                e[0:3]: 0x1d0-0x1d5.7 (6)
     |                                               |                |                  [0]{}: in 0x1d0-0x1d1.7 (2)
0x1d0|20                                             |                |                    local.get: 0x20 (valid) 0x1d0-0x1d0.7 (1)
0x1d0|   00                                          | .              |                    x: 0 0x1d1-0x1d1.7 (1)
     |                                               |                |                  [1]{}: in 0x1d2-0x1d4.7 (3)
0x1d0|      2c                                       |  ,             |                    i32.load8_s: 0x2c (valid) 0x1d2-0x1d2.7 (1)
     |                                               |                |                    m{}: 0x1d3-0x1d4.7 (2)
0x1d0|         00                                    |   .            |                      a: 0 0x1d3-0x1d3.7 (1)
0x1d0|            02                                 |    .           |                      o: 2 0x1d4-0x1d4.7 (1)
     |                                               |                |                  [2]{}: in 0x1d5-0x1d5.7 (1)
0x1d0|               0b                              |     .          |                    end: 0xb (valid) 0x1d5-0x1d5.7 (1)
     |                                               |                |            [9]{}: code 0x1d6-0x1dd.7 (8)
0x1d0|                  07                           |      .         |              size: 7 0x1d6-0x1d6.7 (1)
     |                                               |                |              code{}: 0x1d7-0x1dd.7 (7)
     |                                               |                |                t{}: 0x1d7-0x1d7.7 (1)
0x1d0|                     00                        |       .        |                  n: 0 0x1d7-0x1d7.7 (1)
     |                                               |                |                  x[0:0]: 0x1d8-NA (0)
     |                                               |                |                e[0:3]: 0x1d8-0x1dd.7 (6)
     |                                               |                |                  [0]{}: in 0x1d8-0x1d9.7 (2)
0x1d0|                        20                     |                |                    local.get: 0x20 (valid) 0x1d8-0x1d8.7 (1)
0x1d0|                           00                  |         .      |                    x: 0 0x1d9-0x1d9.7 (1)
     |                                               |                |                  [1]{}: in 0x1da-0x1dc.7 (3)
0x1d0|                              2c               |          ,     |                    i32.load8_s: 0x2c (valid) 0x1da-0x1da.7 (1)
     |                                               |                |                    m{}: 0x1db-0x1dc.7 (2)
0x1d0|                                 00            |           .    |                      a: 0 0x1db-0x1db.7 (1)
0x1d0|                                    19         |            .   |                      o: 25 0x1dc-0x1dc.7 (1)
     |                                               |                |                  [2]{}: in 0x1dd-0x1dd.7 (1)
0x1d0|                                       0b      |             .  |                    end: 0xb (valid) 0x1dd-0x1dd.7 (1)
     |                                               |                |            [10]{}: code 0x1de-0x1e5.7 (8)
0x1d0|                                          07   |              . |              size: 7 0x1de-0x1de.7 (1)
     |                                               |                |              code{}: 0x1df-0x1e5.7 (7)
     |                                               |                |                t{}: 0x1df-0x1df.7 (1)
0x1d0|                                             00|               .|                  n: 0 0x1df-0x1df.7 (1)
     |                                               |                |                  x[0:0]: 0x1e0-NA (0)
     |                                               |                |                e[0:3]: 0x1e0-0x1e5.7 (6)
     |                                               |                |                  [0]{}: in 0x1e0-0x1e1.7 (2)
0x1e0|20                                             |                |                    local.get: 0x20 (valid) 0x1e0-0x1e0.7 (1)
0x1e0|   00                                          | .              |                    x: 0 0x1e1-0x1e1.7 (1)
     |                                               |                |                  [1]{}: in 0x1e2-0x1e4.7 (3)
0x1e0|      2f                                       |  /             |                    i32.load16_u: 0x2f (valid) 0x1e2-0x1e2.7 (1)
     |                                               |                |                    m{}: 0x1e3-0x1e4.7 (2)
0x1e0|         01                                    |   .            |                      a: 1 0x1e3-0x1e3.7 (1)
0x1e0|            00                                 |    .           |                      o: 0 0x1e4-0x1e4.7 (1)
     |                                               |                |                  [2]{}: in 0x1e5-0x1e5.7 (1)
0x1e0|               0b                              |     .          |                    end: 0xb (valid) 0x1e5-0x1e5.7 (1)
     |                                               |                |            [11]{}: code 0x1e6-0x1ed.7 (8)
0x1e0|                  07                           |      .         |              size: 7 0x1e6-0x1e6.7 (1)
     |                                               |                |              code{}: 0x1e7-0x1ed.7 (7)
     |                                               |                |                t{}: 0x1e7-0x1e7.7 (1)
0x1e0|                     00                        |       .        |                  n: 0 0x1e7-0x1e7.7 (1)
     |                                               |                |                  x[0:0]: 0x1e8-NA (0)
     |                                               |                |                e[0:3]: 0x1e8-0x1ed.7 (6)
     |                                               |                |                  [0]{}: in 0x1e8-0x1e9.7 (2)
0x1e0|                        20                     |                |                    local.get: 0x20 (valid) 0x1e8-0x1e8.7 (1)
0x1e0|                           00                  |         .      |                    x: 0 0x1e9-0x1e9.7 (1)
     |                                               |                |                  [1]{}: in 0x1ea-0x1ec.7 (3)
0x1e0|                              2f               |          /     |                    i32.load16_u: 0x2f (valid) 0x1ea-0x1ea.7 (1)
     |                                               |                |                    m{}: 0x1eb-0x1ec.7 (2)
0x1e0|                                 00            |           .    |                      a: 0 0x1eb-0x1eb.7 (1)
0x1e0|                                    00         |            .   |                      o: 0 0x1ec-0x1ec.7 (1)
     |                                               |                |                  [2]{}: in 0x1ed-0x1ed.7 (1)
0x1e0|                                       0b      |             .  |                    end: 0xb (valid) 0x1ed-0x1ed.7 (1)
     |                                               |                |            [12]{}: code 0x1ee-0x1f5.7 (8)
0x1e0|                                          07   |              . |              size: 7 0x1ee-0x1ee.7 (1)
     |                                               |                |              code{}: 0x1ef-0x1f5.7 (7)
     |                                               |                |                t{}: 0x1ef-0x1ef.7 (1)
0x1e0|                                             00|               .|                  n: 0 0x1ef-0x1ef.7 (1)
     |                                               |                |                  x[0:0]: 0x1f0-NA (0)
     |                                               |                |                e[0:3]: 0x1f0-0x1f5.7 (6)
     |                                               |                |                  [0]{}: in 0x1f0-0x1f1.7 (2)
0x1f0|20                                             |                |                    local.get: 0x20 (valid) 0x1f0-0x1f0.7 (1)
0x1f0|   00                                          | .              |                    x: 0 0x1f1-0x1f1.7 (1)
     |                                               |                |                  [1]{}: in 0x1f2-0x1f4.7 (3)
0x1f0|      2f                                       |  /             |                    i32.load16_u: 0x2f (valid) 0x1f2-0x1f2.7 (1)
     |                                               |                |                    m{}: 0x1f3-0x1f4.7 (2)
0x1f0|         00                                    |   .            |                      a: 0 0x1f3-0x1f3.7 (1)
0x1f0|            01                                 |    .           |                      o: 1 0x1f4-0x1f4.7 (1)
     |                                               |                |                  [2]{}: in 0x1f5-0x1f5.7 (1)
0x1f0|               0b                              |     .          |                    end: 0xb (valid) 0x1f5-0x1f5.7 (1)
     |                                               |                |            [13]{}: code 0x1f6-0x1fd.7 (8)
0x1f0|                  07                           |      .         |              size: 7 0x1f6-0x1f6.7 (1)
     |                                               |                |              code{}: 0x1f7-0x1fd.7 (7)
     |                                               |                |                t{}: 0x1f7-0x1f7.7 (1)
0x1f0|                     00                        |       .        |                  n: 0 0x1f7-0x1f7.7 (1)
     |                                               |                |                  x[0:0]: 0x1f8-NA (0)
     |                                               |                |                e[0:3]: 0x1f8-0x1fd.7 (6)
     |                                               |                |                  [0]{}: in 0x1f8-0x1f9.7 (2)
0x1f0|                        20                     |                |                    local.get: 0x20 (valid) 0x1f8-0x1f8.7 (1)
0x1f0|                           00                  |         .      |                    x: 0 0x1f9-0x1f9.7 (1)
     |                                               |                |                  [1]{}: in 0x1fa-0x1fc.7 (3)
0x1f0|                              2f               |          /     |                    i32.load16_u: 0x2f (valid) 0x1fa-0x1fa.7 (1)
     |                                               |                |                    m{}: 0x1fb-0x1fc.7 (2)
0x1f0|                                 01            |           .    |                      a: 1 0x1fb-0x1fb.7 (1)
0x1f0|                                    02         |            .   |                      o: 2 0x1fc-0x1fc.7 (1)
     |                                               |                |                  [2]{}: in 0x1fd-0x1fd.7 (1)
0x1f0|                                       0b      |             .  |                    end: 0xb (valid) 0x1fd-0x1fd.7 (1)
     |                                               |                |            [14]{}: code 0x1fe-0x205.7 (8)
0x1f0|                                          07   |              . |              size: 7 0x1fe-0x1fe.7 (1)
     |                                               |                |              code{}: 0x1ff-0x205.7 (7)
     |                                               |                |                t{}: 0x1ff-0x1ff.7 (1)
0x1f0|                                             00|               .|                  n: 0 0x1ff-0x1ff.7 (1)
     |                                               |                |                  x[0:0]: 0x200-NA (0)
     |                                               |                |                e[0:3]: 0x200-0x205.7 (6)
     |                                               |                |                  [0]{}: in 0x200-0x201.7 (2)
0x200|20                                             |                |                    local.get: 0x20 (valid) 0x200-0x200.7 (1)
0x200|   00                                          | .              |                    x: 0 0x201-0x201.7 (1)
     |                                               |                |                  [1]{}: in 0x202-0x204.7 (3)
0x200|      2f                                       |  /             |                    i32.load16_u: 0x2f (valid) 0x202-0x202.7 (1)
     |                                               |                |                    m{}: 0x203-0x204.7 (2)
0x200|         01                                    |   .            |                      a: 1 0x203-0x203.7 (1)
0x200|            19                                 |    .           |                      o: 25 0x204-0x204.7 (1)
     |                                               |                |                  [2]{}: in 0x205-0x205.7 (1)
0x200|               0b                              |     .          |                    end: 0xb (valid) 0x205-0x205.7 (1)
     |                                               |                |            [15]{}: code 0x206-0x20d.7 (8)
0x200|                  07                           |      .         |              size: 7 0x206-0x206.7 (1)
     |                                               |                |              code{}: 0x207-0x20d.7 (7)
     |                                               |                |                t{}: 0x207-0x207.7 (1)
0x200|                     00                        |       .        |                  n: 0 0x207-0x207.7 (1)
     |                                               |                |                  x[0:0]: 0x208-NA (0)
     |                                               |                |                e[0:3]: 0x208-0x20d.7 (6)
     |                                               |                |                  [0]{}: in 0x208-0x209.7 (2)
0x200|                        20                     |                |                    local.get: 0x20 (valid) 0x208-0x208.7 (1)
0x200|                           00                  |         .      |                    x: 0 0x209-0x209.7 (1)
     |                                               |                |                  [1]{}: in 0x20a-0x20c.7 (3)
0x200|                              2e               |          .     |                    i32.load16_s: 0x2e (valid) 0x20a-0x20a.7 (1)
     |                                               |                |                    m{}: 0x20b-0x20c.7 (2)
0x200|                                 01            |           .    |                      a: 1 0x20b-0x20b.7 (1)
0x200|                                    00         |            .   |                      o: 0 0x20c-0x20c.7 (1)
     |                                               |                |                  [2]{}: in 0x20d-0x20d.7 (1)
0x200|                                       0b      |             .  |                    end: 0xb (valid) 0x20d-0x20d.7 (1)
     |                                               |                |            [16]{}: code 0x20e-0x215.7 (8)
0x200|                                          07   |              . |              size: 7 0x20e-0x20e.7 (1)
     |                                               |                |              code{}: 0x20f-0x215.7 (7)
     |                                               |                |                t{}: 0x20f-0x20f.7 (1)
0x200|                                             00|               .|                  n: 0 0x20f-0x20f.7 (1)
     |                                               |                |                  x[0:0]: 0x210-NA (0)
     |                                               |                |                e[0:3]: 0x210-0x215.7 (6)
     |                                               |                |                  [0]{}: in 0x210-0x211.7 (2)
0x210|20                                             |                |                    local.get: 0x20 (valid) 0x210-0x210.7 (1)
0x210|   00                                          | .              |                    x: 0 0x211-0x211.7 (1)
     |                                               |                |                  [1]{}: in 0x212-0x214.7 (3)
0x210|      2e                                       |  .             |                    i32.load16_s: 0x2e (valid) 0x212-0x212.7 (1)
     |                                               |                |                    m{}: 0x213-0x214.7 (2)
0x210|         00                                    |   .            |                      a: 0 0x213-0x213.7 (1)
0x210|            00                                 |    .           |                      o: 0 0x214-0x214.7 (1)
     |                                               |                |                  [2]{}: in 0x215-0x215.7 (1)
0x210|               0b                              |     .          |                    end: 0xb (valid) 0x215-0x215.7 (1)
     |                                               |                |            [17]{}: code 0x216-0x21d.7 (8)
0x210|                  07                           |      .         |              size: 7 0x216-0x216.7 (1)
     |                                               |                |              code{}: 0x217-0x21d.7 (7)
     |                                               |                |                t{}: 0x217-0x217.7 (1)
0x210|                     00                        |       .        |                  n: 0 0x217-0x217.7 (1)
     |                                               |                |                  x[0:0]: 0x218-NA (0)
     |                                               |                |                e[0:3]: 0x218-0x21d.7 (6)
     |                                               |                |                  [0]{}: in 0x218-0x219.7 (2)
0x210|                        20                     |                |                    local.get: 0x20 (valid) 0x218-0x218.7 (1)
0x210|                           00                  |         .      |                    x: 0 0x219-0x219.7 (1)
     |                                               |                |                  [1]{}: in 0x21a-0x21c.7 (3)
0x210|                              2e               |          .     |                    i32.load16_s: 0x2e (valid) 0x21a-0x21a.7 (1)
     |                                               |                |                    m{}: 0x21b-0x21c.7 (2)
0x210|                                 00            |           .    |                      a: 0 0x21b-0x21b.7 (1)
0x210|                                    01         |            .   |                      o: 1 0x21c-0x21c.7 (1)
     |                                               |                |                  [2]{}: in 0x21d-0x21d.7 (1)
0x210|                                       0b      |             .  |                    end: 0xb (valid) 0x21d-0x21d.7 (1)
     |                                               |                |            [18]{}: code 0x21e-0x225.7 (8)
0x210|                                          07   |              . |              size: 7 0x21e-0x21e.7 (1)
     |                                               |                |              code{}: 0x21f-0x225.7 (7)
     |                                               |                |                t{}: 0x21f-0x21f.7 (1)
0x210|                                             00|               .|                  n: 0 0x21f-0x21f.7 (1)
     |                                               |                |                  x[0:0]: 0x220-NA (0)
     |                                               |                |                e[0:3]: 0x220-0x225.7 (6)
     |                                               |                |                  [0]{}: in 0x220-0x221.7 (2)
0x220|20                                             |                |                    local.get: 0x20 (valid) 0x220-0x220.7 (1)
0x220|   00                                          | .              |                    x: 0 0x221-0x221.7 (1)
     |                                               |                |                  [1]{}: in 0x222-0x224.7 (3)
0x220|      2e                                       |  .             |                    i32.load16_s: 0x2e (valid) 0x222-0x222.7 (1)
     |                                               |                |                    m{}: 0x223-0x224.7 (2)
0x220|         01                                    |   .            |                      a: 1 0x223-0x223.7 (1)
0x220|            02                                 |    .           |                      o: 2 0x224-0x224.7 (1)
     |                                               |                |                  [2]{}: in 0x225-0x225.7 (1)
0x220|               0b                              |     .          |                    end: 0xb (valid) 0x225-0x225.7 (1)
     |                                               |                |            [19]{}: code 0x226-0x22d.7 (8)
0x220|                  07                           |      .         |              size: 7 0x226-0x226.7 (1)
     |                                               |                |              code{}: 0x227-0x22d.7 (7)
     |                                               |                |                t{}: 0x227-0x227.7 (1)
0x220|                     00                        |       .        |                  n: 0 0x227-0x227.7 (1)
     |                                               |                |                  x[0:0]: 0x228-NA (0)
     |                                               |                |                e[0:3]: 0x228-0x22d.7 (6)
     |                                               |                |                  [0]{}: in 0x228-0x229.7 (2)
0x220|                        20                     |                |                    local.get: 0x20 (valid) 0x228-0x228.7 (1)
0x220|                           00                  |         .      |                    x: 0 0x229-0x229.7 (1)
     |                                               |                |                  [1]{}: in 0x22a-0x22c.7 (3)
0x220|                              2e               |          .     |                    i32.load16_s: 0x2e (valid) 0x22a-0x22a.7 (1)
     |                                               |                |                    m{}: 0x22b-0x22c.7 (2)
0x220|                                 01            |           .    |                      a: 1 0x22b-0x22b.7 (1)
0x220|                                    19         |            .   |                      o: 25 0x22c-0x22c.7 (1)
     |                                               |                |                  [2]{}: in 0x22d-0x22d.7 (1)
0x220|                                       0b      |             .  |                    end: 0xb (valid) 0x22d-0x22d.7 (1)
     |                                               |                |            [20]{}: code 0x22e-0x235.7 (8)
0x220|                                          07   |              . |              size: 7 0x22e-0x22e.7 (1)
     |                                               |                |              code{}: 0x22f-0x235.7 (7)
     |                                               |                |                t{}: 0x22f-0x22f.7 (1)
0x220|                                             00|               .|                  n: 0 0x22f-0x22f.7 (1)
     |                                               |                |                  x[0:0]: 0x230-NA (0)
     |                                               |                |                e[0:3]: 0x230-0x235.7 (6)
     |                                               |                |                  [0]{}: in 0x230-0x231.7 (2)
0x230|20                                             |                |                    local.get: 0x20 (valid) 0x230-0x230.7 (1)
0x230|   00                                          | .              |                    x: 0 0x231-0x231.7 (1)
     |                                               |                |                  [1]{}: in 0x232-0x234.7 (3)
0x230|      28                                       |  (             |                    i32.load: 0x28 (valid) 0x232-0x232.7 (1)
     |                                               |                |                    m{}: 0x233-0x234.7 (2)
0x230|         02                                    |   .            |                      a: 2 0x233-0x233.7 (1)
0x230|            00                                 |    .           |                      o: 0 0x234-0x234.7 (1)
     |                                               |                |                  [2]{}: in 0x235-0x235.7 (1)
0x230|               0b                              |     .          |                    end: 0xb (valid) 0x235-0x235.7 (1)
     |                                               |                |            [21]{}: code 0x236-0x23d.7 (8)
0x230|                  07                           |      .         |              size: 7 0x236-0x236.7 (1)
     |                                               |                |              code{}: 0x237-0x23d.7 (7)
     |                                               |                |                t{}: 0x237-0x237.7 (1)
0x230|                     00                        |       .        |                  n: 0 0x237-0x237.7 (1)
     |                                               |                |                  x[0:0]: 0x238-NA (0)
     |                                               |                |                e[0:3]: 0x238-0x23d.7 (6)
     |                                               |                |                  [0]{}: in 0x238-0x239.7 (2)
0x230|                        20                     |                |                    local.get: 0x20 (valid) 0x238-0x238.7 (1)
0x230|                           00                  |         .      |                    x: 0 0x239-0x239.7 (1)
     |                                               |                |                  [1]{}: in 0x23a-0x23c.7 (3)
0x230|                              28               |          (     |                    i32.load: 0x28 (valid) 0x23a-0x23a.7 (1)
     |                                               |                |                    m{}: 0x23b-0x23c.7 (2)
0x230|                                 00            |           .    |                      a: 0 0x23b-0x23b.7 (1)
0x230|                                    00         |            .   |                      o: 0 0x23c-0x23c.7 (1)
     |                                               |                |                  [2]{}: in 0x23d-0x23d.7 (1)
0x230|                                       0b      |             .  |                    end: 0xb (valid) 0x23d-0x23d.7 (1)
     |                                               |                |            [22]{}: code 0x23e-0x245.7 (8)
0x230|                                          07   |              . |              size: 7 0x23e-0x23e.7 (1)
     |                                               |                |              code{}: 0x23f-0x245.7 (7)
     |                                               |                |                t{}: 0x23f-0x23f.7 (1)
0x230|                                             00|               .|                  n: 0 0x23f-0x23f.7 (1)
     |                                               |                |                  x[0:0]: 0x240-NA (0)
     |                                               |                |                e[0:3]: 0x240-0x245.7 (6)
     |                                               |                |                  [0]{}: in 0x240-0x241.7 (2)
0x240|20                                             |                |                    local.get: 0x20 (valid) 0x240-0x240.7 (1)
0x240|   00                                          | .              |                    x: 0 0x241-0x241.7 (1)
     |                                               |                |                  [1]{}: in 0x242-0x244.7 (3)
0x240|      28                                       |  (             |                    i32.load: 0x28 (valid) 0x242-0x242.7 (1)
     |                                               |                |                    m{}: 0x243-0x244.7 (2)
0x240|         00                                    |   .            |                      a: 0 0x243-0x243.7 (1)
0x240|            01                                 |    .           |                      o: 1 0x244-0x244.7 (1)
     |                                               |                |                  [2]{}: in 0x245-0x245.7 (1)
0x240|               0b                              |     .          |                    end: 0xb (valid) 0x245-0x245.7 (1)
     |                                               |                |            [23]{}: code 0x246-0x24d.7 (8)
0x240|                  07                           |      .         |              size: 7 0x246-0x246.7 (1)
     |                                               |                |              code{}: 0x247-0x24d.7 (7)
     |                                               |                |                t{}: 0x247-0x247.7 (1)
0x240|                     00                        |       .        |                  n: 0 0x247-0x247.7 (1)
     |                                               |                |                  x[0:0]: 0x248-NA (0)
     |                                               |                |                e[0:3]: 0x248-0x24d.7 (6)
     |                                               |                |                  [0]{}: in 0x248-0x249.7 (2)
0x240|                        20                     |                |                    local.get: 0x20 (valid) 0x248-0x248.7 (1)
0x240|                           00                  |         .      |                    x: 0 0x249-0x249.7 (1)
     |                                               |                |                  [1]{}: in 0x24a-0x24c.7 (3)
0x240|                              28               |          (     |                    i32.load: 0x28 (valid) 0x24a-0x24a.7 (1)
     |                                               |                |                    m{}: 0x24b-0x24c.7 (2)
0x240|                                 01            |           .    |                      a: 1 0x24b-0x24b.7 (1)
0x240|                                    02         |            .   |                      o: 2 0x24c-0x24c.7 (1)
     |                                               |                |                  [2]{}: in 0x24d-0x24d.7 (1)
0x240|                                       0b      |             .  |                    end: 0xb (valid) 0x24d-0x24d.7 (1)
     |                                               |                |            [24]{}: code 0x24e-0x255.7 (8)
0x240|                                          07   |              . |              size: 7 0x24e-0x24e.7 (1)
     |                                               |                |              code{}: 0x24f-0x255.7 (7)
     |                                               |                |                t{}: 0x24f-0x24f.7 (1)
0x240|                                             00|               .|                  n: 0 0x24f-0x24f.7 (1)
     |                                               |                |                  x[0:0]: 0x250-NA (0)
     |                                               |                |                e[0:3]: 0x250-0x255.7 (6)
     |                                               |                |                  [0]{}: in 0x250-0x251.7 (2)
0x250|20                                             |                |                    local.get: 0x20 (valid) 0x250-0x250.7 (1)
0x250|   00                                          | .              |                    x: 0 0x251-0x251.7 (1)
     |                                               |                |                  [1]{}: in 0x252-0x254.7 (3)
0x250|      28                                       |  (             |                    i32.load: 0x28 (valid) 0x252-0x252.7 (1)
     |                                               |                |                    m{}: 0x253-0x254.7 (2)
0x250|         02                                    |   .            |                      a: 2 0x253-0x253.7 (1)
0x250|            19                                 |    .           |                      o: 25 0x254-0x254.7 (1)
     |                                               |                |                  [2]{}: in 0x255-0x255.7 (1)
0x250|               0b                              |     .          |                    end: 0xb (valid) 0x255-0x255.7 (1)
     |                                               |                |            [25]{}: code 0x256-0x262.7 (13)
0x250|                  0c                           |      .         |              size: 12 0x256-0x256.7 (1)
     |                                               |                |              code{}: 0x257-0x262.7 (12)
     |                                               |                |                t{}: 0x257-0x257.7 (1)
0x250|                     00                        |       .        |                  n: 0 0x257-0x257.7 (1)
     |                                               |                |                  x[0:0]: 0x258-NA (0)
     |                                               |                |                e[0:4]: 0x258-0x262.7 (11)
     |                                               |                |                  [0]{}: in 0x258-0x259.7 (2)
0x250|                        20                     |                |                    local.get: 0x20 (valid) 0x258-0x258.7 (1)
0x250|                           00                  |         .      |                    x: 0 0x259-0x259.7 (1)
     |                                               |                |                  [1]{}: in 0x25a-0x260.7 (7)
0x250|                              2d               |          -     |                    i32.load8_u: 0x2d (valid) 0x25a-0x25a.7 (1)
     |                                               |                |                    m{}: 0x25b-0x260.7 (6)
0x250|                                 00            |           .    |                      a: 0 0x25b-0x25b.7 (1)
0x250|                                    ff ff ff ff|            ....|                      o: 4294967295 0x25c-0x260.7 (5)
0x260|0f                                             |.               |
     |                                               |                |                  [2]{}: in 0x261-0x261.7 (1)
0x260|   1a                                          | .              |                    drop: 0x1a (valid) 0x261-0x261.7 (1)
     |                                               |                |                  [3]{}: in 0x262-0x262.7 (1)
0x260|      0b                                       |  .             |                    end: 0xb (valid) 0x262-0x262.7 (1)
     |                                               |                |            [26]{}: code 0x263-0x26f.7 (13)
0x260|         0c                                    |   .            |              size: 12 0x263-0x263.7 (1)
     |                                               |                |              code{}: 0x264-0x26f.7 (12)
     |                                               |                |                t{}: 0x264-0x264.7 (1)
0x260|            00                                 |    .           |                  n: 0 0x264-0x264.7 (1)
     |                                               |                |                  x[0:0]: 0x265-NA (0)
     |                                               |                |                e[0:4]: 0x265-0x26f.7 (11)
     |                                               |                |                  [0]{}: in 0x265-0x266.7 (2)
0x260|               20                              |                |                    local.get: 0x20 (valid) 0x265-0x265.7 (1)
0x260|                  00                           |      .         |                    x: 0 0x266-0x266.7 (1)
     |                                               |                |                  [1]{}: in 0x267-0x26d.7 (7)
0x260|                     2c                        |       ,        |                    i32.load8_s: 0x2c (valid) 0x267-0x267.7 (1)
     |                                               |                |                    m{}: 0x268-0x26d.7 (6)
0x260|                        00                     |        .       |                      a: 0 0x268-0x268.7 (1)
0x260|                           ff ff ff ff 0f      |         .....  |                      o: 4294967295 0x269-0x26d.7 (5)
     |                                               |                |                  [2]{}: in 0x26e-0x26e.7 (1)
0x260|                                          1a   |              . |                    drop: 0x1a (valid) 0x26e-0x26e.7 (1)
     |                                               |                |                  [3]{}: in 0x26f-0x26f.7 (1)
0x260|                                             0b|               .|                    end: 0xb (valid) 0x26f-0x26f.7 (1)
     |                                               |                |            [27]{}: code 0x270-0x27c.7 (13)
0x270|0c                                             |.               |              size: 12 0x270-0x270.7 (1)
     |                                               |                |              code{}: 0x271-0x27c.7 (12)
     |                                               |                |                t{}: 0x271-0x271.7 (1)
0x270|   00                                          | .              |                  n: 0 0x271-0x271.7 (1)
     |                                               |                |                  x[0:0]: 0x272-NA (0)
     |                                               |                |                e[0:4]: 0x272-0x27c.7 (11)
     |                                               |                |                  [0]{}: in 0x272-0x273.7 (2)
0x270|      20                                       |                |                    local.get: 0x20 (valid) 0x272-0x272.7 (1)
0x270|         00                                    |   .            |                    x: 0 0x273-0x273.7 (1)
     |                                               |                |                  [1]{}: in 0x274-0x27a.7 (7)
0x270|            2f                                 |    /           |                    i32.load16_u: 0x2f (valid) 0x274-0x274.7 (1)
     |                                               |                |                    m{}: 0x275-0x27a.7 (6)
0x270|               01                              |     .          |                      a: 1 0x275-0x275.7 (1)
0x270|                  ff ff ff ff 0f               |      .....     |                      o: 4294967295 0x276-0x27a.7 (5)
     |                                               |                |                  [2]{}: in 0x27b-0x27b.7 (1)
0x270|                                 1a            |           .    |                    drop: 0x1a (valid) 0x27b-0x27b.7 (1)
     |                                               |                |                  [3]{}: in 0x27c-0x27c.7 (1)
0x270|                                    0b         |            .   |                    end: 0xb (valid) 0x27c-0x27c.7 (1)
     |                                               |                |            [28]{}: code 0x27d-0x289.7 (13)
0x270|                                       0c      |             .  |              size: 12 0x27d-0x27d.7 (1)
     |                                               |                |              code{}: 0x27e-0x289.7 (12)
     |                                               |                |                t{}: 0x27e-0x27e.7 (1)
0x270|                                          00   |              . |                  n: 0 0x27e-0x27e.7 (1)
     |                                               |                |                  x[0:0]: 0x27f-NA (0)
     |                                               |                |                e[0:4]: 0x27f-0x289.7 (11)
     |                                               |                |                  [0]{}: in 0x27f-0x280.7 (2)
0x270|                                             20|                |                    local.get: 0x20 (valid) 0x27f-0x27f.7 (1)
0x280|00                                             |.               |                    x: 0 0x280-0x280.7 (1)
     |                                               |                |                  [1]{}: in 0x281-0x287.7 (7)
0x280|   2e                                          | .              |                    i32.load16_s: 0x2e (valid) 0x281-0x281.7 (1)
     |                                               |                |                    m{}: 0x282-0x287.7 (6)
0x280|      01                                       |  .             |                      a: 1 0x282-0x282.7 (1)
0x280|         ff ff ff ff 0f                        |   .....        |                      o: 4294967295 0x283-0x287.7 (5)
     |                                               |                |                  [2]{}: in 0x288-0x288.7 (1)
0x280|                        1a                     |        .       |                    drop: 0x1a (valid) 0x288-0x288.7 (1)
     |                                               |                |                  [3]{}: in 0x289-0x289.7 (1)
0x280|                           0b                  |         .      |                    end: 0xb (valid) 0x289-0x289.7 (1)
     |                                               |                |            [29]{}: code 0x28a-0x296.7 (13)
0x280|                              0c               |          .     |              size: 12 0x28a-0x28a.7 (1)
     |                                               |                |              code{}: 0x28b-0x296.7 (12)
     |                                               |                |                t{}: 0x28b-0x28b.7 (1)
0x280|                                 00            |           .    |                  n: 0 0x28b-0x28b.7 (1)
     |                                               |                |                  x[0:0]: 0x28c-NA (0)
     |                                               |                |                e[0:4]: 0x28c-0x296.7 (11)
     |                                               |                |                  [0]{}: in 0x28c-0x28d.7 (2)
0x280|                                    20         |                |                    local.get: 0x20 (valid) 0x28c-0x28c.7 (1)
0x280|                                       00      |             .  |                    x: 0 0x28d-0x28d.7 (1)
     |                                               |                |                  [1]{}: in 0x28e-0x294.7 (7)
0x280|                                          28   |              ( |                    i32.load: 0x28 (valid) 0x28e-0x28e.7 (1)
     |                                               |                |                    m{}: 0x28f-0x294.7 (6)
0x280|                                             02|               .|                      a: 2 0x28f-0x28f.7 (1)
0x290|ff ff ff ff 0f                                 |.....           |                      o: 4294967295 0x290-0x294.7 (5)
     |                                               |                |                  [2]{}: in 0x295-0x295.7 (1)
0x290|               1a                              |     .          |                    drop: 0x1a (valid) 0x295-0x295.7 (1)
     |                                               |                |                  [3]{}: in 0x296-0x296.7 (1)
0x290|                  0b                           |      .         |                    end: 0xb (valid) 0x296-0x296.7 (1)
     |                                               |                |    [5]{}: section 0x297-0x2b8.7 (34)
0x290|                     0b                        |       .        |      id: "data section" (11) 0x297-0x297.7 (1)
0x290|                        20                     |                |      size: 32 0x298-0x298.7 (1)
     |                                               |                |      content{}: 0x299-0x2b8.7 (32)
     |                                               |                |        seg{}: 0x299-0x2b8.7 (32)
0x290|                           01                  |         .      |          n: 1 0x299-0x299.7 (1)
     |                                               |                |          x[0:1]: 0x29a-0x2b8.7 (31)
     |                                               |                |            [0]{}: seg 0x29a-0x2b8.7 (31)
0x290|                              00               |          .     |              tag: 0 0x29a-0x29a.7 (1)
     |                                               |                |              e[0:2]: 0x29b-0x29d.7 (3)
     |                                               |                |                [0]{}: in 0x29b-0x29c.7 (2)
0x290|                                 41            |           A    |                  i32.const: 0x41 (valid) 0x29b-0x29b.7 (1)
0x290|                                    00         |            .   |                  n: 0 0x29c-0x29c.7 (1)
     |                                               |                |                [1]{}: in 0x29d-0x29d.7 (1)
0x290|                                       0b      |             .  |                  end: 0xb (valid) 0x29d-0x29d.7 (1)
     |                                               |                |              b{}: 0x29e-0x2b8.7 (27)
0x290|                                          1a   |              . |                n: 26 0x29e-0x29e.7 (1)
0x290|                                             61|               a|                x: raw bits 0x29f-0x2b8.7 (26)
0x2a0|62 63 64 65 66 67 68 69 6a 6b 6c 6d 6e 6f 70 71|bcdefghijklmnopq|
0x2b0|72 73 74 75 76 77 78 79 7a|                    |rstuvwxyz|      |
