$ fq -d wasm dv address-2.wasm
    |00 01 02 03 04 05 06 07 08 09 0a 0b 0c 0d 0e 0f|0123456789abcdef|.{}: address-2.wasm (wasm) 0x0-0xb1 (177)
0x00|00 61 73 6d                                    |.asm            |  magic: raw bits (valid) 0x0-0x4 (4)
0x00|            01 00 00 00                        |    ....        |  version: 1 0x4-0x8 (4)
    |                                               |                |  sections[0:6]: 0x8-0xb1 (169)
    |                                               |                |    [0]{}: section 0x8-0x14 (12)
0x00|                        01                     |        .       |      id: "type_section" (1) 0x8-0x9 (1)
0x00|                           0a                  |         .      |      size: 10 (valid) 0x9-0xa (1)
    |                                               |                |      content{}: 0xa-0x14 (10)
    |                                               |                |        ft{}: 0xa-0x14 (10)
0x00|                              02               |          .     |          n: 2 (valid) 0xa-0xb (1)
    |                                               |                |          x[0:2]: 0xb-0x14 (9)
    |                                               |                |            [0]{}: ft 0xb-0x10 (5)
0x00|                                 60            |           `    |              tag: 0x60 (valid) 0xb-0xc (1)
    |                                               |                |              rt1{}: 0xc-0xe (2)
0x00|                                    01         |            .   |                n: 1 (valid) 0xc-0xd (1)
    |                                               |                |                x[0:1]: 0xd-0xe (1)
0x00|                                       7f      |             .  |                  [0]: "i32" (0x7f) t 0xd-0xe (1)
    |                                               |                |              rt2{}: 0xe-0x10 (2)
0x00|                                          01   |              . |                n: 1 (valid) 0xe-0xf (1)
    |                                               |                |                x[0:1]: 0xf-0x10 (1)
0x00|                                             7d|               }|                  [0]: "f32" (0x7d) t 0xf-0x10 (1)
    |                                               |                |            [1]{}: ft 0x10-0x14 (4)
0x10|60                                             |`               |              tag: 0x60 (valid) 0x10-0x11 (1)
    |                                               |                |              rt1{}: 0x11-0x13 (2)
0x10|   01                                          | .              |                n: 1 (valid) 0x11-0x12 (1)
    |                                               |                |                x[0:1]: 0x12-0x13 (1)
0x10|      7f                                       |  .             |                  [0]: "i32" (0x7f) t 0x12-0x13 (1)
    |                                               |                |              rt2{}: 0x13-0x14 (1)
0x10|         00                                    |   .            |                n: 0 (valid) 0x13-0x14 (1)
    |                                               |                |                x[0:0]: 0x14-0x14 (0)
    |                                               |                |    [1]{}: section 0x14-0x1d (9)
0x10|            03                                 |    .           |      id: "function_section" (3) 0x14-0x15 (1)
0x10|               07                              |     .          |      size: 7 (valid) 0x15-0x16 (1)
    |                                               |                |      content{}: 0x16-0x1d (7)
    |                                               |                |        x{}: 0x16-0x1d (7)
0x10|                  06                           |      .         |          n: 6 (valid) 0x16-0x17 (1)
    |                                               |                |          x[0:6]: 0x17-0x1d (6)
0x10|                     00                        |       .        |            [0]: 0 x (valid) 0x17-0x18 (1)
0x10|                        00                     |        .       |            [1]: 0 x (valid) 0x18-0x19 (1)
0x10|                           00                  |         .      |            [2]: 0 x (valid) 0x19-0x1a (1)
0x10|                              00               |          .     |            [3]: 0 x (valid) 0x1a-0x1b (1)
0x10|                                 00            |           .    |            [4]: 0 x (valid) 0x1b-0x1c (1)
0x10|                                    01         |            .   |            [5]: 1 x (valid) 0x1c-0x1d (1)
    |                                               |                |    [2]{}: section 0x1d-0x22 (5)
0x10|                                       05      |             .  |      id: "memory_section" (5) 0x1d-0x1e (1)
0x10|                                          03   |              . |      size: 3 (valid) 0x1e-0x1f (1)
    |                                               |                |      content{}: 0x1f-0x22 (3)
    |                                               |                |        mem{}: 0x1f-0x22 (3)
0x10|                                             01|               .|          n: 1 (valid) 0x1f-0x20 (1)
    |                                               |                |          x[0:1]: 0x20-0x22 (2)
    |                                               |                |            [0]{}: mem 0x20-0x22 (2)
    |                                               |                |              lim{}: 0x20-0x22 (2)
0x20|00                                             |.               |                tag: 0x0 0x20-0x21 (1)
0x20|   01                                          | .              |                n: 1 (valid) 0x21-0x22 (1)
    |                                               |                |    [3]{}: section 0x22-0x65 (67)
0x20|      07                                       |  .             |      id: "export_section" (7) 0x22-0x23 (1)
0x20|         41                                    |   A            |      size: 65 (valid) 0x23-0x24 (1)
    |                                               |                |      content{}: 0x24-0x65 (65)
    |                                               |                |        ex{}: 0x24-0x65 (65)
0x20|            06                                 |    .           |          n: 6 (valid) 0x24-0x25 (1)
    |                                               |                |          x[0:6]: 0x25-0x65 (64)
    |                                               |                |            [0]{}: ex 0x25-0x30 (11)
    |                                               |                |              nm{}: 0x25-0x2e (9)
0x20|               08                              |     .          |                n: 8 (valid) 0x25-0x26 (1)
0x20|                  33 32 5f 67 6f 6f 64 31      |      32_good1  |                b: "32_good1" 0x26-0x2e (8)
    |                                               |                |              d{}: 0x2e-0x30 (2)
0x20|                                          00   |              . |                tag: "funcidx" (0x0) 0x2e-0x2f (1)
0x20|                                             00|               .|                x: 0 (valid) 0x2f-0x30 (1)
    |                                               |                |            [1]{}: ex 0x30-0x3b (11)
    |                                               |                |              nm{}: 0x30-0x39 (9)
0x30|08                                             |.               |                n: 8 (valid) 0x30-0x31 (1)
0x30|   33 32 5f 67 6f 6f 64 32                     | 32_good2       |                b: "32_good2" 0x31-0x39 (8)
    |                                               |                |              d{}: 0x39-0x3b (2)
0x30|                           00                  |         .      |                tag: "funcidx" (0x0) 0x39-0x3a (1)
0x30|                              01               |          .     |                x: 1 (valid) 0x3a-0x3b (1)
    |                                               |                |            [2]{}: ex 0x3b-0x46 (11)
    |                                               |                |              nm{}: 0x3b-0x44 (9)
0x30|                                 08            |           .    |                n: 8 (valid) 0x3b-0x3c (1)
0x30|                                    33 32 5f 67|            32_g|                b: "32_good3" 0x3c-0x44 (8)
0x40|6f 6f 64 33                                    |ood3            |
    |                                               |                |              d{}: 0x44-0x46 (2)
0x40|            00                                 |    .           |                tag: "funcidx" (0x0) 0x44-0x45 (1)
0x40|               02                              |     .          |                x: 2 (valid) 0x45-0x46 (1)
    |                                               |                |            [3]{}: ex 0x46-0x51 (11)
    |                                               |                |              nm{}: 0x46-0x4f (9)
0x40|                  08                           |      .         |                n: 8 (valid) 0x46-0x47 (1)
0x40|                     33 32 5f 67 6f 6f 64 34   |       32_good4 |                b: "32_good4" 0x47-0x4f (8)
    |                                               |                |              d{}: 0x4f-0x51 (2)
0x40|                                             00|               .|                tag: "funcidx" (0x0) 0x4f-0x50 (1)
0x50|03                                             |.               |                x: 3 (valid) 0x50-0x51 (1)
    |                                               |                |            [4]{}: ex 0x51-0x5c (11)
    |                                               |                |              nm{}: 0x51-0x5a (9)
0x50|   08                                          | .              |                n: 8 (valid) 0x51-0x52 (1)
0x50|      33 32 5f 67 6f 6f 64 35                  |  32_good5      |                b: "32_good5" 0x52-0x5a (8)
    |                                               |                |              d{}: 0x5a-0x5c (2)
0x50|                              00               |          .     |                tag: "funcidx" (0x0) 0x5a-0x5b (1)
0x50|                                 04            |           .    |                x: 4 (valid) 0x5b-0x5c (1)
    |                                               |                |            [5]{}: ex 0x5c-0x65 (9)
    |                                               |                |              nm{}: 0x5c-0x63 (7)
0x50|                                    06         |            .   |                n: 6 (valid) 0x5c-0x5d (1)
0x50|                                       33 32 5f|             32_|                b: "32_bad" 0x5d-0x63 (6)
0x60|62 61 64                                       |bad             |
    |                                               |                |              d{}: 0x63-0x65 (2)
0x60|         00                                    |   .            |                tag: "funcidx" (0x0) 0x63-0x64 (1)
0x60|            05                                 |    .           |                x: 5 (valid) 0x64-0x65 (1)
    |                                               |                |    [4]{}: section 0x65-0x9d (56)
0x60|               0a                              |     .          |      id: "code_section" (10) 0x65-0x66 (1)
0x60|                  36                           |      6         |      size: 54 (valid) 0x66-0x67 (1)
    |                                               |                |      content{}: 0x67-0x9d (54)
    |                                               |                |        code{}: 0x67-0x9d (54)
0x60|                     06                        |       .        |          n: 6 (valid) 0x67-0x68 (1)
    |                                               |                |          x[0:6]: 0x68-0x9d (53)
    |                                               |                |            [0]{}: code 0x68-0x70 (8)
0x60|                        07                     |        .       |              size: 7 (valid) 0x68-0x69 (1)
    |                                               |                |              code{}: 0x69-0x70 (7)
    |                                               |                |                t{}: 0x69-0x6a (1)
0x60|                           00                  |         .      |                  n: 0 (valid) 0x69-0x6a (1)
    |                                               |                |                  x[0:0]: 0x6a-0x6a (0)
    |                                               |                |                e[0:3]: 0x6a-0x70 (6)
    |                                               |                |                  [0]{}: in 0x6a-0x6c (2)
0x60|                              20               |                |                    opcode: "local.get" (0x20) 0x6a-0x6b (1)
0x60|                                 00            |           .    |                    x: 0 (valid) 0x6b-0x6c (1)
    |                                               |                |                  [1]{}: in 0x6c-0x6f (3)
0x60|                                    2a         |            *   |                    opcode: "f32.load" (0x2a) 0x6c-0x6d (1)
    |                                               |                |                    m{}: 0x6d-0x6f (2)
0x60|                                       02      |             .  |                      a: 2 (valid) 0x6d-0x6e (1)
0x60|                                          00   |              . |                      o: 0 (valid) 0x6e-0x6f (1)
    |                                               |                |                  [2]{}: in 0x6f-0x70 (1)
0x60|                                             0b|               .|                    opcode: "end" (0xb) 0x6f-0x70 (1)
    |                                               |                |            [1]{}: code 0x70-0x78 (8)
0x70|07                                             |.               |              size: 7 (valid) 0x70-0x71 (1)
    |                                               |                |              code{}: 0x71-0x78 (7)
    |                                               |                |                t{}: 0x71-0x72 (1)
0x70|   00                                          | .              |                  n: 0 (valid) 0x71-0x72 (1)
    |                                               |                |                  x[0:0]: 0x72-0x72 (0)
    |                                               |                |                e[0:3]: 0x72-0x78 (6)
    |                                               |                |                  [0]{}: in 0x72-0x74 (2)
0x70|      20                                       |                |                    opcode: "local.get" (0x20) 0x72-0x73 (1)
0x70|         00                                    |   .            |                    x: 0 (valid) 0x73-0x74 (1)
    |                                               |                |                  [1]{}: in 0x74-0x77 (3)
0x70|            2a                                 |    *           |                    opcode: "f32.load" (0x2a) 0x74-0x75 (1)
    |                                               |                |                    m{}: 0x75-0x77 (2)
0x70|               00                              |     .          |                      a: 0 (valid) 0x75-0x76 (1)
0x70|                  00                           |      .         |                      o: 0 (valid) 0x76-0x77 (1)
    |                                               |                |                  [2]{}: in 0x77-0x78 (1)
0x70|                     0b                        |       .        |                    opcode: "end" (0xb) 0x77-0x78 (1)
    |                                               |                |            [2]{}: code 0x78-0x80 (8)
0x70|                        07                     |        .       |              size: 7 (valid) 0x78-0x79 (1)
    |                                               |                |              code{}: 0x79-0x80 (7)
    |                                               |                |                t{}: 0x79-0x7a (1)
0x70|                           00                  |         .      |                  n: 0 (valid) 0x79-0x7a (1)
    |                                               |                |                  x[0:0]: 0x7a-0x7a (0)
    |                                               |                |                e[0:3]: 0x7a-0x80 (6)
    |                                               |                |                  [0]{}: in 0x7a-0x7c (2)
0x70|                              20               |                |                    opcode: "local.get" (0x20) 0x7a-0x7b (1)
0x70|                                 00            |           .    |                    x: 0 (valid) 0x7b-0x7c (1)
    |                                               |                |                  [1]{}: in 0x7c-0x7f (3)
0x70|                                    2a         |            *   |                    opcode: "f32.load" (0x2a) 0x7c-0x7d (1)
    |                                               |                |                    m{}: 0x7d-0x7f (2)
0x70|                                       00      |             .  |                      a: 0 (valid) 0x7d-0x7e (1)
0x70|                                          01   |              . |                      o: 1 (valid) 0x7e-0x7f (1)
    |                                               |                |                  [2]{}: in 0x7f-0x80 (1)
0x70|                                             0b|               .|                    opcode: "end" (0xb) 0x7f-0x80 (1)
    |                                               |                |            [3]{}: code 0x80-0x88 (8)
0x80|07                                             |.               |              size: 7 (valid) 0x80-0x81 (1)
    |                                               |                |              code{}: 0x81-0x88 (7)
    |                                               |                |                t{}: 0x81-0x82 (1)
0x80|   00                                          | .              |                  n: 0 (valid) 0x81-0x82 (1)
    |                                               |                |                  x[0:0]: 0x82-0x82 (0)
    |                                               |                |                e[0:3]: 0x82-0x88 (6)
    |                                               |                |                  [0]{}: in 0x82-0x84 (2)
0x80|      20                                       |                |                    opcode: "local.get" (0x20) 0x82-0x83 (1)
0x80|         00                                    |   .            |                    x: 0 (valid) 0x83-0x84 (1)
    |                                               |                |                  [1]{}: in 0x84-0x87 (3)
0x80|            2a                                 |    *           |                    opcode: "f32.load" (0x2a) 0x84-0x85 (1)
    |                                               |                |                    m{}: 0x85-0x87 (2)
0x80|               01                              |     .          |                      a: 1 (valid) 0x85-0x86 (1)
0x80|                  02                           |      .         |                      o: 2 (valid) 0x86-0x87 (1)
    |                                               |                |                  [2]{}: in 0x87-0x88 (1)
0x80|                     0b                        |       .        |                    opcode: "end" (0xb) 0x87-0x88 (1)
    |                                               |                |            [4]{}: code 0x88-0x90 (8)
0x80|                        07                     |        .       |              size: 7 (valid) 0x88-0x89 (1)
    |                                               |                |              code{}: 0x89-0x90 (7)
    |                                               |                |                t{}: 0x89-0x8a (1)
0x80|                           00                  |         .      |                  n: 0 (valid) 0x89-0x8a (1)
    |                                               |                |                  x[0:0]: 0x8a-0x8a (0)
    |                                               |                |                e[0:3]: 0x8a-0x90 (6)
    |                                               |                |                  [0]{}: in 0x8a-0x8c (2)
0x80|                              20               |                |                    opcode: "local.get" (0x20) 0x8a-0x8b (1)
0x80|                                 00            |           .    |                    x: 0 (valid) 0x8b-0x8c (1)
    |                                               |                |                  [1]{}: in 0x8c-0x8f (3)
0x80|                                    2a         |            *   |                    opcode: "f32.load" (0x2a) 0x8c-0x8d (1)
    |                                               |                |                    m{}: 0x8d-0x8f (2)
0x80|                                       02      |             .  |                      a: 2 (valid) 0x8d-0x8e (1)
0x80|                                          08   |              . |                      o: 8 (valid) 0x8e-0x8f (1)
    |                                               |                |                  [2]{}: in 0x8f-0x90 (1)
0x80|                                             0b|               .|                    opcode: "end" (0xb) 0x8f-0x90 (1)
    |                                               |                |            [5]{}: code 0x90-0x9d (13)
0x90|0c                                             |.               |              size: 12 (valid) 0x90-0x91 (1)
    |                                               |                |              code{}: 0x91-0x9d (12)
    |                                               |                |                t{}: 0x91-0x92 (1)
0x90|   00                                          | .              |                  n: 0 (valid) 0x91-0x92 (1)
    |                                               |                |                  x[0:0]: 0x92-0x92 (0)
    |                                               |                |                e[0:4]: 0x92-0x9d (11)
    |                                               |                |                  [0]{}: in 0x92-0x94 (2)
0x90|      20                                       |                |                    opcode: "local.get" (0x20) 0x92-0x93 (1)
0x90|         00                                    |   .            |                    x: 0 (valid) 0x93-0x94 (1)
    |                                               |                |                  [1]{}: in 0x94-0x9b (7)
0x90|            2a                                 |    *           |                    opcode: "f32.load" (0x2a) 0x94-0x95 (1)
    |                                               |                |                    m{}: 0x95-0x9b (6)
0x90|               02                              |     .          |                      a: 2 (valid) 0x95-0x96 (1)
0x90|                  ff ff ff ff 0f               |      .....     |                      o: 4294967295 (valid) 0x96-0x9b (5)
    |                                               |                |                  [2]{}: in 0x9b-0x9c (1)
0x90|                                 1a            |           .    |                    opcode: "drop" (0x1a) 0x9b-0x9c (1)
    |                                               |                |                  [3]{}: in 0x9c-0x9d (1)
0x90|                                    0b         |            .   |                    opcode: "end" (0xb) 0x9c-0x9d (1)
    |                                               |                |    [5]{}: section 0x9d-0xb1 (20)
0x90|                                       0b      |             .  |      id: "data_section" (11) 0x9d-0x9e (1)
0x90|                                          12   |              . |      size: 18 (valid) 0x9e-0x9f (1)
    |                                               |                |      content{}: 0x9f-0xb1 (18)
    |                                               |                |        seg{}: 0x9f-0xb1 (18)
0x90|                                             01|               .|          n: 1 (valid) 0x9f-0xa0 (1)
    |                                               |                |          x[0:1]: 0xa0-0xb1 (17)
    |                                               |                |            [0]{}: seg 0xa0-0xb1 (17)
0xa0|00                                             |.               |              tag: 0 (valid) 0xa0-0xa1 (1)
    |                                               |                |              e[0:2]: 0xa1-0xa4 (3)
    |                                               |                |                [0]{}: in 0xa1-0xa3 (2)
0xa0|   41                                          | A              |                  opcode: "i32.const" (0x41) 0xa1-0xa2 (1)
0xa0|      00                                       |  .             |                  n: 0 (valid) 0xa2-0xa3 (1)
    |                                               |                |                [1]{}: in 0xa3-0xa4 (1)
0xa0|         0b                                    |   .            |                  opcode: "end" (0xb) 0xa3-0xa4 (1)
    |                                               |                |              b{}: 0xa4-0xb1 (13)
0xa0|            0c                                 |    .           |                n: 12 (valid) 0xa4-0xa5 (1)
0xa0|               00 00 00 00 00 00 a0 7f 01 00 d0|     ...........|                x: raw bits 0xa5-0xb1 (12)
0xb0|7f|                                            |.|              |
