$ fq -d wasm dv address-0.wasm
     |00 01 02 03 04 05 06 07 08 09 0a 0b 0c 0d 0e 0f|0123456789abcdef|.{}: address-0.wasm (wasm) 0x0-0x2b9 (697)
0x000|00 61 73 6d                                    |.asm            |  magic: raw bits (valid) 0x0-0x4 (4)
0x000|            01 00 00 00                        |    ....        |  version: 1 0x4-0x8 (4)
     |                                               |                |  sections[0:6]: 0x8-0x2b9 (689)
     |                                               |                |    [0]{}: section 0x8-0x14 (12)
0x000|                        01                     |        .       |      id: "type_section" (1) 0x8-0x9 (1)
0x000|                           0a                  |         .      |      size: 10 (valid) 0x9-0xa (1)
     |                                               |                |      content{}: 0xa-0x14 (10)
     |                                               |                |        ft{}: 0xa-0x14 (10)
0x000|                              02               |          .     |          n: 2 (valid) 0xa-0xb (1)
     |                                               |                |          x[0:2]: 0xb-0x14 (9)
     |                                               |                |            [0]{}: ft 0xb-0x10 (5)
0x000|                                 60            |           `    |              tag: 0x60 (valid) 0xb-0xc (1)
     |                                               |                |              rt1{}: 0xc-0xe (2)
0x000|                                    01         |            .   |                n: 1 (valid) 0xc-0xd (1)
     |                                               |                |                x[0:1]: 0xd-0xe (1)
0x000|                                       7f      |             .  |                  [0]: "i32" (0x7f) t 0xd-0xe (1)
     |                                               |                |              rt2{}: 0xe-0x10 (2)
0x000|                                          01   |              . |                n: 1 (valid) 0xe-0xf (1)
     |                                               |                |                x[0:1]: 0xf-0x10 (1)
0x000|                                             7f|               .|                  [0]: "i32" (0x7f) t 0xf-0x10 (1)
     |                                               |                |            [1]{}: ft 0x10-0x14 (4)
0x010|60                                             |`               |              tag: 0x60 (valid) 0x10-0x11 (1)
     |                                               |                |              rt1{}: 0x11-0x13 (2)
0x010|   01                                          | .              |                n: 1 (valid) 0x11-0x12 (1)
     |                                               |                |                x[0:1]: 0x12-0x13 (1)
0x010|      7f                                       |  .             |                  [0]: "i32" (0x7f) t 0x12-0x13 (1)
     |                                               |                |              rt2{}: 0x13-0x14 (1)
0x010|         00                                    |   .            |                n: 0 (valid) 0x13-0x14 (1)
     |                                               |                |                x[0:0]: 0x14-0x14 (0)
     |                                               |                |    [1]{}: section 0x14-0x35 (33)
0x010|            03                                 |    .           |      id: "function_section" (3) 0x14-0x15 (1)
0x010|               1f                              |     .          |      size: 31 (valid) 0x15-0x16 (1)
     |                                               |                |      content{}: 0x16-0x35 (31)
     |                                               |                |        x{}: 0x16-0x35 (31)
0x010|                  1e                           |      .         |          n: 30 (valid) 0x16-0x17 (1)
     |                                               |                |          x[0:30]: 0x17-0x35 (30)
0x010|                     00                        |       .        |            [0]: 0 x (valid) 0x17-0x18 (1)
0x010|                        00                     |        .       |            [1]: 0 x (valid) 0x18-0x19 (1)
0x010|                           00                  |         .      |            [2]: 0 x (valid) 0x19-0x1a (1)
0x010|                              00               |          .     |            [3]: 0 x (valid) 0x1a-0x1b (1)
0x010|                                 00            |           .    |            [4]: 0 x (valid) 0x1b-0x1c (1)
0x010|                                    00         |            .   |            [5]: 0 x (valid) 0x1c-0x1d (1)
0x010|                                       00      |             .  |            [6]: 0 x (valid) 0x1d-0x1e (1)
0x010|                                          00   |              . |            [7]: 0 x (valid) 0x1e-0x1f (1)
0x010|                                             00|               .|            [8]: 0 x (valid) 0x1f-0x20 (1)
0x020|00                                             |.               |            [9]: 0 x (valid) 0x20-0x21 (1)
0x020|   00                                          | .              |            [10]: 0 x (valid) 0x21-0x22 (1)
0x020|      00                                       |  .             |            [11]: 0 x (valid) 0x22-0x23 (1)
0x020|         00                                    |   .            |            [12]: 0 x (valid) 0x23-0x24 (1)
0x020|            00                                 |    .           |            [13]: 0 x (valid) 0x24-0x25 (1)
0x020|               00                              |     .          |            [14]: 0 x (valid) 0x25-0x26 (1)
0x020|                  00                           |      .         |            [15]: 0 x (valid) 0x26-0x27 (1)
0x020|                     00                        |       .        |            [16]: 0 x (valid) 0x27-0x28 (1)
0x020|                        00                     |        .       |            [17]: 0 x (valid) 0x28-0x29 (1)
0x020|                           00                  |         .      |            [18]: 0 x (valid) 0x29-0x2a (1)
0x020|                              00               |          .     |            [19]: 0 x (valid) 0x2a-0x2b (1)
0x020|                                 00            |           .    |            [20]: 0 x (valid) 0x2b-0x2c (1)
0x020|                                    00         |            .   |            [21]: 0 x (valid) 0x2c-0x2d (1)
0x020|                                       00      |             .  |            [22]: 0 x (valid) 0x2d-0x2e (1)
0x020|                                          00   |              . |            [23]: 0 x (valid) 0x2e-0x2f (1)
0x020|                                             00|               .|            [24]: 0 x (valid) 0x2f-0x30 (1)
0x030|01                                             |.               |            [25]: 1 x (valid) 0x30-0x31 (1)
0x030|   01                                          | .              |            [26]: 1 x (valid) 0x31-0x32 (1)
0x030|      01                                       |  .             |            [27]: 1 x (valid) 0x32-0x33 (1)
0x030|         01                                    |   .            |            [28]: 1 x (valid) 0x33-0x34 (1)
0x030|            01                                 |    .           |            [29]: 1 x (valid) 0x34-0x35 (1)
     |                                               |                |    [2]{}: section 0x35-0x3a (5)
0x030|               05                              |     .          |      id: "memory_section" (5) 0x35-0x36 (1)
0x030|                  03                           |      .         |      size: 3 (valid) 0x36-0x37 (1)
     |                                               |                |      content{}: 0x37-0x3a (3)
     |                                               |                |        mem{}: 0x37-0x3a (3)
0x030|                     01                        |       .        |          n: 1 (valid) 0x37-0x38 (1)
     |                                               |                |          x[0:1]: 0x38-0x3a (2)
     |                                               |                |            [0]{}: mem 0x38-0x3a (2)
     |                                               |                |              lim{}: 0x38-0x3a (2)
0x030|                        00                     |        .       |                tag: 0x0 0x38-0x39 (1)
0x030|                           01                  |         .      |                n: 1 (valid) 0x39-0x3a (1)
     |                                               |                |    [3]{}: section 0x3a-0x18a (336)
0x030|                              07               |          .     |      id: "export_section" (7) 0x3a-0x3b (1)
0x030|                                 cd 02         |           ..   |      size: 333 (valid) 0x3b-0x3d (2)
     |                                               |                |      content{}: 0x3d-0x18a (333)
     |                                               |                |        ex{}: 0x3d-0x18a (333)
0x030|                                       1e      |             .  |          n: 30 (valid) 0x3d-0x3e (1)
     |                                               |                |          x[0:30]: 0x3e-0x18a (332)
     |                                               |                |            [0]{}: ex 0x3e-0x49 (11)
     |                                               |                |              nm{}: 0x3e-0x47 (9)
0x030|                                          08   |              . |                n: 8 (valid) 0x3e-0x3f (1)
0x030|                                             38|               8|                b: "8u_good1" 0x3f-0x47 (8)
0x040|75 5f 67 6f 6f 64 31                           |u_good1         |
     |                                               |                |              d{}: 0x47-0x49 (2)
0x040|                     00                        |       .        |                tag: "funcidx" (0x0) 0x47-0x48 (1)
0x040|                        00                     |        .       |                x: 0 (valid) 0x48-0x49 (1)
     |                                               |                |            [1]{}: ex 0x49-0x54 (11)
     |                                               |                |              nm{}: 0x49-0x52 (9)
0x040|                           08                  |         .      |                n: 8 (valid) 0x49-0x4a (1)
0x040|                              38 75 5f 67 6f 6f|          8u_goo|                b: "8u_good2" 0x4a-0x52 (8)
0x050|64 32                                          |d2              |
     |                                               |                |              d{}: 0x52-0x54 (2)
0x050|      00                                       |  .             |                tag: "funcidx" (0x0) 0x52-0x53 (1)
0x050|         01                                    |   .            |                x: 1 (valid) 0x53-0x54 (1)
     |                                               |                |            [2]{}: ex 0x54-0x5f (11)
     |                                               |                |              nm{}: 0x54-0x5d (9)
0x050|            08                                 |    .           |                n: 8 (valid) 0x54-0x55 (1)
0x050|               38 75 5f 67 6f 6f 64 33         |     8u_good3   |                b: "8u_good3" 0x55-0x5d (8)
     |                                               |                |              d{}: 0x5d-0x5f (2)
0x050|                                       00      |             .  |                tag: "funcidx" (0x0) 0x5d-0x5e (1)
0x050|                                          02   |              . |                x: 2 (valid) 0x5e-0x5f (1)
     |                                               |                |            [3]{}: ex 0x5f-0x6a (11)
     |                                               |                |              nm{}: 0x5f-0x68 (9)
0x050|                                             08|               .|                n: 8 (valid) 0x5f-0x60 (1)
0x060|38 75 5f 67 6f 6f 64 34                        |8u_good4        |                b: "8u_good4" 0x60-0x68 (8)
     |                                               |                |              d{}: 0x68-0x6a (2)
0x060|                        00                     |        .       |                tag: "funcidx" (0x0) 0x68-0x69 (1)
0x060|                           03                  |         .      |                x: 3 (valid) 0x69-0x6a (1)
     |                                               |                |            [4]{}: ex 0x6a-0x75 (11)
     |                                               |                |              nm{}: 0x6a-0x73 (9)
0x060|                              08               |          .     |                n: 8 (valid) 0x6a-0x6b (1)
0x060|                                 38 75 5f 67 6f|           8u_go|                b: "8u_good5" 0x6b-0x73 (8)
0x070|6f 64 35                                       |od5             |
     |                                               |                |              d{}: 0x73-0x75 (2)
0x070|         00                                    |   .            |                tag: "funcidx" (0x0) 0x73-0x74 (1)
0x070|            04                                 |    .           |                x: 4 (valid) 0x74-0x75 (1)
     |                                               |                |            [5]{}: ex 0x75-0x80 (11)
     |                                               |                |              nm{}: 0x75-0x7e (9)
0x070|               08                              |     .          |                n: 8 (valid) 0x75-0x76 (1)
0x070|                  38 73 5f 67 6f 6f 64 31      |      8s_good1  |                b: "8s_good1" 0x76-0x7e (8)
     |                                               |                |              d{}: 0x7e-0x80 (2)
0x070|                                          00   |              . |                tag: "funcidx" (0x0) 0x7e-0x7f (1)
0x070|                                             05|               .|                x: 5 (valid) 0x7f-0x80 (1)
     |                                               |                |            [6]{}: ex 0x80-0x8b (11)
     |                                               |                |              nm{}: 0x80-0x89 (9)
0x080|08                                             |.               |                n: 8 (valid) 0x80-0x81 (1)
0x080|   38 73 5f 67 6f 6f 64 32                     | 8s_good2       |                b: "8s_good2" 0x81-0x89 (8)
     |                                               |                |              d{}: 0x89-0x8b (2)
0x080|                           00                  |         .      |                tag: "funcidx" (0x0) 0x89-0x8a (1)
0x080|                              06               |          .     |                x: 6 (valid) 0x8a-0x8b (1)
     |                                               |                |            [7]{}: ex 0x8b-0x96 (11)
     |                                               |                |              nm{}: 0x8b-0x94 (9)
0x080|                                 08            |           .    |                n: 8 (valid) 0x8b-0x8c (1)
0x080|                                    38 73 5f 67|            8s_g|                b: "8s_good3" 0x8c-0x94 (8)
0x090|6f 6f 64 33                                    |ood3            |
     |                                               |                |              d{}: 0x94-0x96 (2)
0x090|            00                                 |    .           |                tag: "funcidx" (0x0) 0x94-0x95 (1)
0x090|               07                              |     .          |                x: 7 (valid) 0x95-0x96 (1)
     |                                               |                |            [8]{}: ex 0x96-0xa1 (11)
     |                                               |                |              nm{}: 0x96-0x9f (9)
0x090|                  08                           |      .         |                n: 8 (valid) 0x96-0x97 (1)
0x090|                     38 73 5f 67 6f 6f 64 34   |       8s_good4 |                b: "8s_good4" 0x97-0x9f (8)
     |                                               |                |              d{}: 0x9f-0xa1 (2)
0x090|                                             00|               .|                tag: "funcidx" (0x0) 0x9f-0xa0 (1)
0x0a0|08                                             |.               |                x: 8 (valid) 0xa0-0xa1 (1)
     |                                               |                |            [9]{}: ex 0xa1-0xac (11)
     |                                               |                |              nm{}: 0xa1-0xaa (9)
0x0a0|   08                                          | .              |                n: 8 (valid) 0xa1-0xa2 (1)
0x0a0|      38 73 5f 67 6f 6f 64 35                  |  8s_good5      |                b: "8s_good5" 0xa2-0xaa (8)
     |                                               |                |              d{}: 0xaa-0xac (2)
0x0a0|                              00               |          .     |                tag: "funcidx" (0x0) 0xaa-0xab (1)
0x0a0|                                 09            |           .    |                x: 9 (valid) 0xab-0xac (1)
     |                                               |                |            [10]{}: ex 0xac-0xb8 (12)
     |                                               |                |              nm{}: 0xac-0xb6 (10)
0x0a0|                                    09         |            .   |                n: 9 (valid) 0xac-0xad (1)
0x0a0|                                       31 36 75|             16u|                b: "16u_good1" 0xad-0xb6 (9)
0x0b0|5f 67 6f 6f 64 31                              |_good1          |
     |                                               |                |              d{}: 0xb6-0xb8 (2)
0x0b0|                  00                           |      .         |                tag: "funcidx" (0x0) 0xb6-0xb7 (1)
0x0b0|                     0a                        |       .        |                x: 10 (valid) 0xb7-0xb8 (1)
     |                                               |                |            [11]{}: ex 0xb8-0xc4 (12)
     |                                               |                |              nm{}: 0xb8-0xc2 (10)
0x0b0|                        09                     |        .       |                n: 9 (valid) 0xb8-0xb9 (1)
0x0b0|                           31 36 75 5f 67 6f 6f|         16u_goo|                b: "16u_good2" 0xb9-0xc2 (9)
0x0c0|64 32                                          |d2              |
     |                                               |                |              d{}: 0xc2-0xc4 (2)
0x0c0|      00                                       |  .             |                tag: "funcidx" (0x0) 0xc2-0xc3 (1)
0x0c0|         0b                                    |   .            |                x: 11 (valid) 0xc3-0xc4 (1)
     |                                               |                |            [12]{}: ex 0xc4-0xd0 (12)
     |                                               |                |              nm{}: 0xc4-0xce (10)
0x0c0|            09                                 |    .           |                n: 9 (valid) 0xc4-0xc5 (1)
0x0c0|               31 36 75 5f 67 6f 6f 64 33      |     16u_good3  |                b: "16u_good3" 0xc5-0xce (9)
     |                                               |                |              d{}: 0xce-0xd0 (2)
0x0c0|                                          00   |              . |                tag: "funcidx" (0x0) 0xce-0xcf (1)
0x0c0|                                             0c|               .|                x: 12 (valid) 0xcf-0xd0 (1)
     |                                               |                |            [13]{}: ex 0xd0-0xdc (12)
     |                                               |                |              nm{}: 0xd0-0xda (10)
0x0d0|09                                             |.               |                n: 9 (valid) 0xd0-0xd1 (1)
0x0d0|   31 36 75 5f 67 6f 6f 64 34                  | 16u_good4      |                b: "16u_good4" 0xd1-0xda (9)
     |                                               |                |              d{}: 0xda-0xdc (2)
0x0d0|                              00               |          .     |                tag: "funcidx" (0x0) 0xda-0xdb (1)
0x0d0|                                 0d            |           .    |                x: 13 (valid) 0xdb-0xdc (1)
     |                                               |                |            [14]{}: ex 0xdc-0xe8 (12)
     |                                               |                |              nm{}: 0xdc-0xe6 (10)
0x0d0|                                    09         |            .   |                n: 9 (valid) 0xdc-0xdd (1)
0x0d0|                                       31 36 75|             16u|                b: "16u_good5" 0xdd-0xe6 (9)
0x0e0|5f 67 6f 6f 64 35                              |_good5          |
     |                                               |                |              d{}: 0xe6-0xe8 (2)
0x0e0|                  00                           |      .         |                tag: "funcidx" (0x0) 0xe6-0xe7 (1)
0x0e0|                     0e                        |       .        |                x: 14 (valid) 0xe7-0xe8 (1)
     |                                               |                |            [15]{}: ex 0xe8-0xf4 (12)
     |                                               |                |              nm{}: 0xe8-0xf2 (10)
0x0e0|                        09                     |        .       |                n: 9 (valid) 0xe8-0xe9 (1)
0x0e0|                           31 36 73 5f 67 6f 6f|         16s_goo|                b: "16s_good1" 0xe9-0xf2 (9)
0x0f0|64 31                                          |d1              |
     |                                               |                |              d{}: 0xf2-0xf4 (2)
0x0f0|      00                                       |  .             |                tag: "funcidx" (0x0) 0xf2-0xf3 (1)
0x0f0|         0f                                    |   .            |                x: 15 (valid) 0xf3-0xf4 (1)
     |                                               |                |            [16]{}: ex 0xf4-0x100 (12)
     |                                               |                |              nm{}: 0xf4-0xfe (10)
0x0f0|            09                                 |    .           |                n: 9 (valid) 0xf4-0xf5 (1)
0x0f0|               31 36 73 5f 67 6f 6f 64 32      |     16s_good2  |                b: "16s_good2" 0xf5-0xfe (9)
     |                                               |                |              d{}: 0xfe-0x100 (2)
0x0f0|                                          00   |              . |                tag: "funcidx" (0x0) 0xfe-0xff (1)
0x0f0|                                             10|               .|                x: 16 (valid) 0xff-0x100 (1)
     |                                               |                |            [17]{}: ex 0x100-0x10c (12)
     |                                               |                |              nm{}: 0x100-0x10a (10)
0x100|09                                             |.               |                n: 9 (valid) 0x100-0x101 (1)
0x100|   31 36 73 5f 67 6f 6f 64 33                  | 16s_good3      |                b: "16s_good3" 0x101-0x10a (9)
     |                                               |                |              d{}: 0x10a-0x10c (2)
0x100|                              00               |          .     |                tag: "funcidx" (0x0) 0x10a-0x10b (1)
0x100|                                 11            |           .    |                x: 17 (valid) 0x10b-0x10c (1)
     |                                               |                |            [18]{}: ex 0x10c-0x118 (12)
     |                                               |                |              nm{}: 0x10c-0x116 (10)
0x100|                                    09         |            .   |                n: 9 (valid) 0x10c-0x10d (1)
0x100|                                       31 36 73|             16s|                b: "16s_good4" 0x10d-0x116 (9)
0x110|5f 67 6f 6f 64 34                              |_good4          |
     |                                               |                |              d{}: 0x116-0x118 (2)
0x110|                  00                           |      .         |                tag: "funcidx" (0x0) 0x116-0x117 (1)
0x110|                     12                        |       .        |                x: 18 (valid) 0x117-0x118 (1)
     |                                               |                |            [19]{}: ex 0x118-0x124 (12)
     |                                               |                |              nm{}: 0x118-0x122 (10)
0x110|                        09                     |        .       |                n: 9 (valid) 0x118-0x119 (1)
0x110|                           31 36 73 5f 67 6f 6f|         16s_goo|                b: "16s_good5" 0x119-0x122 (9)
0x120|64 35                                          |d5              |
     |                                               |                |              d{}: 0x122-0x124 (2)
0x120|      00                                       |  .             |                tag: "funcidx" (0x0) 0x122-0x123 (1)
0x120|         13                                    |   .            |                x: 19 (valid) 0x123-0x124 (1)
     |                                               |                |            [20]{}: ex 0x124-0x12f (11)
     |                                               |                |              nm{}: 0x124-0x12d (9)
0x120|            08                                 |    .           |                n: 8 (valid) 0x124-0x125 (1)
0x120|               33 32 5f 67 6f 6f 64 31         |     32_good1   |                b: "32_good1" 0x125-0x12d (8)
     |                                               |                |              d{}: 0x12d-0x12f (2)
0x120|                                       00      |             .  |                tag: "funcidx" (0x0) 0x12d-0x12e (1)
0x120|                                          14   |              . |                x: 20 (valid) 0x12e-0x12f (1)
     |                                               |                |            [21]{}: ex 0x12f-0x13a (11)
     |                                               |                |              nm{}: 0x12f-0x138 (9)
0x120|                                             08|               .|                n: 8 (valid) 0x12f-0x130 (1)
0x130|33 32 5f 67 6f 6f 64 32                        |32_good2        |                b: "32_good2" 0x130-0x138 (8)
     |                                               |                |              d{}: 0x138-0x13a (2)
0x130|                        00                     |        .       |                tag: "funcidx" (0x0) 0x138-0x139 (1)
0x130|                           15                  |         .      |                x: 21 (valid) 0x139-0x13a (1)
     |                                               |                |            [22]{}: ex 0x13a-0x145 (11)
     |                                               |                |              nm{}: 0x13a-0x143 (9)
0x130|                              08               |          .     |                n: 8 (valid) 0x13a-0x13b (1)
0x130|                                 33 32 5f 67 6f|           32_go|                b: "32_good3" 0x13b-0x143 (8)
0x140|6f 64 33                                       |od3             |
     |                                               |                |              d{}: 0x143-0x145 (2)
0x140|         00                                    |   .            |                tag: "funcidx" (0x0) 0x143-0x144 (1)
0x140|            16                                 |    .           |                x: 22 (valid) 0x144-0x145 (1)
     |                                               |                |            [23]{}: ex 0x145-0x150 (11)
     |                                               |                |              nm{}: 0x145-0x14e (9)
0x140|               08                              |     .          |                n: 8 (valid) 0x145-0x146 (1)
0x140|                  33 32 5f 67 6f 6f 64 34      |      32_good4  |                b: "32_good4" 0x146-0x14e (8)
     |                                               |                |              d{}: 0x14e-0x150 (2)
0x140|                                          00   |              . |                tag: "funcidx" (0x0) 0x14e-0x14f (1)
0x140|                                             17|               .|                x: 23 (valid) 0x14f-0x150 (1)
     |                                               |                |            [24]{}: ex 0x150-0x15b (11)
     |                                               |                |              nm{}: 0x150-0x159 (9)
0x150|08                                             |.               |                n: 8 (valid) 0x150-0x151 (1)
0x150|   33 32 5f 67 6f 6f 64 35                     | 32_good5       |                b: "32_good5" 0x151-0x159 (8)
     |                                               |                |              d{}: 0x159-0x15b (2)
0x150|                           00                  |         .      |                tag: "funcidx" (0x0) 0x159-0x15a (1)
0x150|                              18               |          .     |                x: 24 (valid) 0x15a-0x15b (1)
     |                                               |                |            [25]{}: ex 0x15b-0x164 (9)
     |                                               |                |              nm{}: 0x15b-0x162 (7)
0x150|                                 06            |           .    |                n: 6 (valid) 0x15b-0x15c (1)
0x150|                                    38 75 5f 62|            8u_b|                b: "8u_bad" 0x15c-0x162 (6)
0x160|61 64                                          |ad              |
     |                                               |                |              d{}: 0x162-0x164 (2)
0x160|      00                                       |  .             |                tag: "funcidx" (0x0) 0x162-0x163 (1)
0x160|         19                                    |   .            |                x: 25 (valid) 0x163-0x164 (1)
     |                                               |                |            [26]{}: ex 0x164-0x16d (9)
     |                                               |                |              nm{}: 0x164-0x16b (7)
0x160|            06                                 |    .           |                n: 6 (valid) 0x164-0x165 (1)
0x160|               38 73 5f 62 61 64               |     8s_bad     |                b: "8s_bad" 0x165-0x16b (6)
     |                                               |                |              d{}: 0x16b-0x16d (2)
0x160|                                 00            |           .    |                tag: "funcidx" (0x0) 0x16b-0x16c (1)
0x160|                                    1a         |            .   |                x: 26 (valid) 0x16c-0x16d (1)
     |                                               |                |            [27]{}: ex 0x16d-0x177 (10)
     |                                               |                |              nm{}: 0x16d-0x175 (8)
0x160|                                       07      |             .  |                n: 7 (valid) 0x16d-0x16e (1)
0x160|                                          31 36|              16|                b: "16u_bad" 0x16e-0x175 (7)
0x170|75 5f 62 61 64                                 |u_bad           |
     |                                               |                |              d{}: 0x175-0x177 (2)
0x170|               00                              |     .          |                tag: "funcidx" (0x0) 0x175-0x176 (1)
0x170|                  1b                           |      .         |                x: 27 (valid) 0x176-0x177 (1)
     |                                               |                |            [28]{}: ex 0x177-0x181 (10)
     |                                               |                |              nm{}: 0x177-0x17f (8)
0x170|                     07                        |       .        |                n: 7 (valid) 0x177-0x178 (1)
0x170|                        31 36 73 5f 62 61 64   |        16s_bad |                b: "16s_bad" 0x178-0x17f (7)
     |                                               |                |              d{}: 0x17f-0x181 (2)
0x170|                                             00|               .|                tag: "funcidx" (0x0) 0x17f-0x180 (1)
0x180|1c                                             |.               |                x: 28 (valid) 0x180-0x181 (1)
     |                                               |                |            [29]{}: ex 0x181-0x18a (9)
     |                                               |                |              nm{}: 0x181-0x188 (7)
0x180|   06                                          | .              |                n: 6 (valid) 0x181-0x182 (1)
0x180|      33 32 5f 62 61 64                        |  32_bad        |                b: "32_bad" 0x182-0x188 (6)
     |                                               |                |              d{}: 0x188-0x18a (2)
0x180|                        00                     |        .       |                tag: "funcidx" (0x0) 0x188-0x189 (1)
0x180|                           1d                  |         .      |                x: 29 (valid) 0x189-0x18a (1)
     |                                               |                |    [4]{}: section 0x18a-0x297 (269)
0x180|                              0a               |          .     |      id: "code_section" (10) 0x18a-0x18b (1)
0x180|                                 8a 02         |           ..   |      size: 266 (valid) 0x18b-0x18d (2)
     |                                               |                |      content{}: 0x18d-0x297 (266)
     |                                               |                |        code{}: 0x18d-0x297 (266)
0x180|                                       1e      |             .  |          n: 30 (valid) 0x18d-0x18e (1)
     |                                               |                |          x[0:30]: 0x18e-0x297 (265)
     |                                               |                |            [0]{}: code 0x18e-0x196 (8)
0x180|                                          07   |              . |              size: 7 (valid) 0x18e-0x18f (1)
     |                                               |                |              code{}: 0x18f-0x196 (7)
     |                                               |                |                t{}: 0x18f-0x190 (1)
0x180|                                             00|               .|                  n: 0 (valid) 0x18f-0x190 (1)
     |                                               |                |                  x[0:0]: 0x190-0x190 (0)
     |                                               |                |                e[0:3]: 0x190-0x196 (6)
     |                                               |                |                  [0]{}: in 0x190-0x192 (2)
0x190|20                                             |                |                    opcode: "local.get" (0x20) 0x190-0x191 (1)
0x190|   00                                          | .              |                    x: 0 (valid) 0x191-0x192 (1)
     |                                               |                |                  [1]{}: in 0x192-0x195 (3)
0x190|      2d                                       |  -             |                    opcode: "i32.load8_u" (0x2d) 0x192-0x193 (1)
     |                                               |                |                    m{}: 0x193-0x195 (2)
0x190|         00                                    |   .            |                      a: 0 (valid) 0x193-0x194 (1)
0x190|            00                                 |    .           |                      o: 0 (valid) 0x194-0x195 (1)
     |                                               |                |                  [2]{}: in 0x195-0x196 (1)
0x190|               0b                              |     .          |                    opcode: "end" (0xb) 0x195-0x196 (1)
     |                                               |                |            [1]{}: code 0x196-0x19e (8)
0x190|                  07                           |      .         |              size: 7 (valid) 0x196-0x197 (1)
     |                                               |                |              code{}: 0x197-0x19e (7)
     |                                               |                |                t{}: 0x197-0x198 (1)
0x190|                     00                        |       .        |                  n: 0 (valid) 0x197-0x198 (1)
     |                                               |                |                  x[0:0]: 0x198-0x198 (0)
     |                                               |                |                e[0:3]: 0x198-0x19e (6)
     |                                               |                |                  [0]{}: in 0x198-0x19a (2)
0x190|                        20                     |                |                    opcode: "local.get" (0x20) 0x198-0x199 (1)
0x190|                           00                  |         .      |                    x: 0 (valid) 0x199-0x19a (1)
     |                                               |                |                  [1]{}: in 0x19a-0x19d (3)
0x190|                              2d               |          -     |                    opcode: "i32.load8_u" (0x2d) 0x19a-0x19b (1)
     |                                               |                |                    m{}: 0x19b-0x19d (2)
0x190|                                 00            |           .    |                      a: 0 (valid) 0x19b-0x19c (1)
0x190|                                    00         |            .   |                      o: 0 (valid) 0x19c-0x19d (1)
     |                                               |                |                  [2]{}: in 0x19d-0x19e (1)
0x190|                                       0b      |             .  |                    opcode: "end" (0xb) 0x19d-0x19e (1)
     |                                               |                |            [2]{}: code 0x19e-0x1a6 (8)
0x190|                                          07   |              . |              size: 7 (valid) 0x19e-0x19f (1)
     |                                               |                |              code{}: 0x19f-0x1a6 (7)
     |                                               |                |                t{}: 0x19f-0x1a0 (1)
0x190|                                             00|               .|                  n: 0 (valid) 0x19f-0x1a0 (1)
     |                                               |                |                  x[0:0]: 0x1a0-0x1a0 (0)
     |                                               |                |                e[0:3]: 0x1a0-0x1a6 (6)
     |                                               |                |                  [0]{}: in 0x1a0-0x1a2 (2)
0x1a0|20                                             |                |                    opcode: "local.get" (0x20) 0x1a0-0x1a1 (1)
0x1a0|   00                                          | .              |                    x: 0 (valid) 0x1a1-0x1a2 (1)
     |                                               |                |                  [1]{}: in 0x1a2-0x1a5 (3)
0x1a0|      2d                                       |  -             |                    opcode: "i32.load8_u" (0x2d) 0x1a2-0x1a3 (1)
     |                                               |                |                    m{}: 0x1a3-0x1a5 (2)
0x1a0|         00                                    |   .            |                      a: 0 (valid) 0x1a3-0x1a4 (1)
0x1a0|            01                                 |    .           |                      o: 1 (valid) 0x1a4-0x1a5 (1)
     |                                               |                |                  [2]{}: in 0x1a5-0x1a6 (1)
0x1a0|               0b                              |     .          |                    opcode: "end" (0xb) 0x1a5-0x1a6 (1)
     |                                               |                |            [3]{}: code 0x1a6-0x1ae (8)
0x1a0|                  07                           |      .         |              size: 7 (valid) 0x1a6-0x1a7 (1)
     |                                               |                |              code{}: 0x1a7-0x1ae (7)
     |                                               |                |                t{}: 0x1a7-0x1a8 (1)
0x1a0|                     00                        |       .        |                  n: 0 (valid) 0x1a7-0x1a8 (1)
     |                                               |                |                  x[0:0]: 0x1a8-0x1a8 (0)
     |                                               |                |                e[0:3]: 0x1a8-0x1ae (6)
     |                                               |                |                  [0]{}: in 0x1a8-0x1aa (2)
0x1a0|                        20                     |                |                    opcode: "local.get" (0x20) 0x1a8-0x1a9 (1)
0x1a0|                           00                  |         .      |                    x: 0 (valid) 0x1a9-0x1aa (1)
     |                                               |                |                  [1]{}: in 0x1aa-0x1ad (3)
0x1a0|                              2d               |          -     |                    opcode: "i32.load8_u" (0x2d) 0x1aa-0x1ab (1)
     |                                               |                |                    m{}: 0x1ab-0x1ad (2)
0x1a0|                                 00            |           .    |                      a: 0 (valid) 0x1ab-0x1ac (1)
0x1a0|                                    02         |            .   |                      o: 2 (valid) 0x1ac-0x1ad (1)
     |                                               |                |                  [2]{}: in 0x1ad-0x1ae (1)
0x1a0|                                       0b      |             .  |                    opcode: "end" (0xb) 0x1ad-0x1ae (1)
     |                                               |                |            [4]{}: code 0x1ae-0x1b6 (8)
0x1a0|                                          07   |              . |              size: 7 (valid) 0x1ae-0x1af (1)
     |                                               |                |              code{}: 0x1af-0x1b6 (7)
     |                                               |                |                t{}: 0x1af-0x1b0 (1)
0x1a0|                                             00|               .|                  n: 0 (valid) 0x1af-0x1b0 (1)
     |                                               |                |                  x[0:0]: 0x1b0-0x1b0 (0)
     |                                               |                |                e[0:3]: 0x1b0-0x1b6 (6)
     |                                               |                |                  [0]{}: in 0x1b0-0x1b2 (2)
0x1b0|20                                             |                |                    opcode: "local.get" (0x20) 0x1b0-0x1b1 (1)
0x1b0|   00                                          | .              |                    x: 0 (valid) 0x1b1-0x1b2 (1)
     |                                               |                |                  [1]{}: in 0x1b2-0x1b5 (3)
0x1b0|      2d                                       |  -             |                    opcode: "i32.load8_u" (0x2d) 0x1b2-0x1b3 (1)
     |                                               |                |                    m{}: 0x1b3-0x1b5 (2)
0x1b0|         00                                    |   .            |                      a: 0 (valid) 0x1b3-0x1b4 (1)
0x1b0|            19                                 |    .           |                      o: 25 (valid) 0x1b4-0x1b5 (1)
     |                                               |                |                  [2]{}: in 0x1b5-0x1b6 (1)
0x1b0|               0b                              |     .          |                    opcode: "end" (0xb) 0x1b5-0x1b6 (1)
     |                                               |                |            [5]{}: code 0x1b6-0x1be (8)
0x1b0|                  07                           |      .         |              size: 7 (valid) 0x1b6-0x1b7 (1)
     |                                               |                |              code{}: 0x1b7-0x1be (7)
     |                                               |                |                t{}: 0x1b7-0x1b8 (1)
0x1b0|                     00                        |       .        |                  n: 0 (valid) 0x1b7-0x1b8 (1)
     |                                               |                |                  x[0:0]: 0x1b8-0x1b8 (0)
     |                                               |                |                e[0:3]: 0x1b8-0x1be (6)
     |                                               |                |                  [0]{}: in 0x1b8-0x1ba (2)
0x1b0|                        20                     |                |                    opcode: "local.get" (0x20) 0x1b8-0x1b9 (1)
0x1b0|                           00                  |         .      |                    x: 0 (valid) 0x1b9-0x1ba (1)
     |                                               |                |                  [1]{}: in 0x1ba-0x1bd (3)
0x1b0|                              2c               |          ,     |                    opcode: "i32.load8_s" (0x2c) 0x1ba-0x1bb (1)
     |                                               |                |                    m{}: 0x1bb-0x1bd (2)
0x1b0|                                 00            |           .    |                      a: 0 (valid) 0x1bb-0x1bc (1)
0x1b0|                                    00         |            .   |                      o: 0 (valid) 0x1bc-0x1bd (1)
     |                                               |                |                  [2]{}: in 0x1bd-0x1be (1)
0x1b0|                                       0b      |             .  |                    opcode: "end" (0xb) 0x1bd-0x1be (1)
     |                                               |                |            [6]{}: code 0x1be-0x1c6 (8)
0x1b0|                                          07   |              . |              size: 7 (valid) 0x1be-0x1bf (1)
     |                                               |                |              code{}: 0x1bf-0x1c6 (7)
     |                                               |                |                t{}: 0x1bf-0x1c0 (1)
0x1b0|                                             00|               .|                  n: 0 (valid) 0x1bf-0x1c0 (1)
     |                                               |                |                  x[0:0]: 0x1c0-0x1c0 (0)
     |                                               |                |                e[0:3]: 0x1c0-0x1c6 (6)
     |                                               |                |                  [0]{}: in 0x1c0-0x1c2 (2)
0x1c0|20                                             |                |                    opcode: "local.get" (0x20) 0x1c0-0x1c1 (1)
0x1c0|   00                                          | .              |                    x: 0 (valid) 0x1c1-0x1c2 (1)
     |                                               |                |                  [1]{}: in 0x1c2-0x1c5 (3)
0x1c0|      2c                                       |  ,             |                    opcode: "i32.load8_s" (0x2c) 0x1c2-0x1c3 (1)
     |                                               |                |                    m{}: 0x1c3-0x1c5 (2)
0x1c0|         00                                    |   .            |                      a: 0 (valid) 0x1c3-0x1c4 (1)
0x1c0|            00                                 |    .           |                      o: 0 (valid) 0x1c4-0x1c5 (1)
     |                                               |                |                  [2]{}: in 0x1c5-0x1c6 (1)
0x1c0|               0b                              |     .          |                    opcode: "end" (0xb) 0x1c5-0x1c6 (1)
     |                                               |                |            [7]{}: code 0x1c6-0x1ce (8)
0x1c0|                  07                           |      .         |              size: 7 (valid) 0x1c6-0x1c7 (1)
     |                                               |                |              code{}: 0x1c7-0x1ce (7)
     |                                               |                |                t{}: 0x1c7-0x1c8 (1)
0x1c0|                     00                        |       .        |                  n: 0 (valid) 0x1c7-0x1c8 (1)
     |                                               |                |                  x[0:0]: 0x1c8-0x1c8 (0)
     |                                               |                |                e[0:3]: 0x1c8-0x1ce (6)
     |                                               |                |                  [0]{}: in 0x1c8-0x1ca (2)
0x1c0|                        20                     |                |                    opcode: "local.get" (0x20) 0x1c8-0x1c9 (1)
0x1c0|                           00                  |         .      |                    x: 0 (valid) 0x1c9-0x1ca (1)
     |                                               |                |                  [1]{}: in 0x1ca-0x1cd (3)
0x1c0|                              2c               |          ,     |                    opcode: "i32.load8_s" (0x2c) 0x1ca-0x1cb (1)
     |                                               |                |                    m{}: 0x1cb-0x1cd (2)
0x1c0|                                 00            |           .    |                      a: 0 (valid) 0x1cb-0x1cc (1)
0x1c0|                                    01         |            .   |                      o: 1 (valid) 0x1cc-0x1cd (1)
     |                                               |                |                  [2]{}: in 0x1cd-0x1ce (1)
0x1c0|                                       0b      |             .  |                    opcode: "end" (0xb) 0x1cd-0x1ce (1)
     |                                               |                |            [8]{}: code 0x1ce-0x1d6 (8)
0x1c0|                                          07   |              . |              size: 7 (valid) 0x1ce-0x1cf (1)
     |                                               |                |              code{}: 0x1cf-0x1d6 (7)
     |                                               |                |                t{}: 0x1cf-0x1d0 (1)
0x1c0|                                             00|               .|                  n: 0 (valid) 0x1cf-0x1d0 (1)
     |                                               |                |                  x[0:0]: 0x1d0-0x1d0 (0)
     |                                               |                |                e[0:3]: 0x1d0-0x1d6 (6)
     |                                               |                |                  [0]{}: in 0x1d0-0x1d2 (2)
0x1d0|20                                             |                |                    opcode: "local.get" (0x20) 0x1d0-0x1d1 (1)
0x1d0|   00                                          | .              |                    x: 0 (valid) 0x1d1-0x1d2 (1)
     |                                               |                |                  [1]{}: in 0x1d2-0x1d5 (3)
0x1d0|      2c                                       |  ,             |                    opcode: "i32.load8_s" (0x2c) 0x1d2-0x1d3 (1)
     |                                               |                |                    m{}: 0x1d3-0x1d5 (2)
0x1d0|         00                                    |   .            |                      a: 0 (valid) 0x1d3-0x1d4 (1)
0x1d0|            02                                 |    .           |                      o: 2 (valid) 0x1d4-0x1d5 (1)
     |                                               |                |                  [2]{}: in 0x1d5-0x1d6 (1)
0x1d0|               0b                              |     .          |                    opcode: "end" (0xb) 0x1d5-0x1d6 (1)
     |                                               |                |            [9]{}: code 0x1d6-0x1de (8)
0x1d0|                  07                           |      .         |              size: 7 (valid) 0x1d6-0x1d7 (1)
     |                                               |                |              code{}: 0x1d7-0x1de (7)
     |                                               |                |                t{}: 0x1d7-0x1d8 (1)
0x1d0|                     00                        |       .        |                  n: 0 (valid) 0x1d7-0x1d8 (1)
     |                                               |                |                  x[0:0]: 0x1d8-0x1d8 (0)
     |                                               |                |                e[0:3]: 0x1d8-0x1de (6)
     |                                               |                |                  [0]{}: in 0x1d8-0x1da (2)
0x1d0|                        20                     |                |                    opcode: "local.get" (0x20) 0x1d8-0x1d9 (1)
0x1d0|                           00                  |         .      |                    x: 0 (valid) 0x1d9-0x1da (1)
     |                                               |                |                  [1]{}: in 0x1da-0x1dd (3)
0x1d0|                              2c               |          ,     |                    opcode: "i32.load8_s" (0x2c) 0x1da-0x1db (1)
     |                                               |                |                    m{}: 0x1db-0x1dd (2)
0x1d0|                                 00            |           .    |                      a: 0 (valid) 0x1db-0x1dc (1)
0x1d0|                                    19         |            .   |                      o: 25 (valid) 0x1dc-0x1dd (1)
     |                                               |                |                  [2]{}: in 0x1dd-0x1de (1)
0x1d0|                                       0b      |             .  |                    opcode: "end" (0xb) 0x1dd-0x1de (1)
     |                                               |                |            [10]{}: code 0x1de-0x1e6 (8)
0x1d0|                                          07   |              . |              size: 7 (valid) 0x1de-0x1df (1)
     |                                               |                |              code{}: 0x1df-0x1e6 (7)
     |                                               |                |                t{}: 0x1df-0x1e0 (1)
0x1d0|                                             00|               .|                  n: 0 (valid) 0x1df-0x1e0 (1)
     |                                               |                |                  x[0:0]: 0x1e0-0x1e0 (0)
     |                                               |                |                e[0:3]: 0x1e0-0x1e6 (6)
     |                                               |                |                  [0]{}: in 0x1e0-0x1e2 (2)
0x1e0|20                                             |                |                    opcode: "local.get" (0x20) 0x1e0-0x1e1 (1)
0x1e0|   00                                          | .              |                    x: 0 (valid) 0x1e1-0x1e2 (1)
     |                                               |                |                  [1]{}: in 0x1e2-0x1e5 (3)
0x1e0|      2f                                       |  /             |                    opcode: "i32.load16_u" (0x2f) 0x1e2-0x1e3 (1)
     |                                               |                |                    m{}: 0x1e3-0x1e5 (2)
0x1e0|         01                                    |   .            |                      a: 1 (valid) 0x1e3-0x1e4 (1)
0x1e0|            00                                 |    .           |                      o: 0 (valid) 0x1e4-0x1e5 (1)
     |                                               |                |                  [2]{}: in 0x1e5-0x1e6 (1)
0x1e0|               0b                              |     .          |                    opcode: "end" (0xb) 0x1e5-0x1e6 (1)
     |                                               |                |            [11]{}: code 0x1e6-0x1ee (8)
0x1e0|                  07                           |      .         |              size: 7 (valid) 0x1e6-0x1e7 (1)
     |                                               |                |              code{}: 0x1e7-0x1ee (7)
     |                                               |                |                t{}: 0x1e7-0x1e8 (1)
0x1e0|                     00                        |       .        |                  n: 0 (valid) 0x1e7-0x1e8 (1)
     |                                               |                |                  x[0:0]: 0x1e8-0x1e8 (0)
     |                                               |                |                e[0:3]: 0x1e8-0x1ee (6)
     |                                               |                |                  [0]{}: in 0x1e8-0x1ea (2)
0x1e0|                        20                     |                |                    opcode: "local.get" (0x20) 0x1e8-0x1e9 (1)
0x1e0|                           00                  |         .      |                    x: 0 (valid) 0x1e9-0x1ea (1)
     |                                               |                |                  [1]{}: in 0x1ea-0x1ed (3)
0x1e0|                              2f               |          /     |                    opcode: "i32.load16_u" (0x2f) 0x1ea-0x1eb (1)
     |                                               |                |                    m{}: 0x1eb-0x1ed (2)
0x1e0|                                 00            |           .    |                      a: 0 (valid) 0x1eb-0x1ec (1)
0x1e0|                                    00         |            .   |                      o: 0 (valid) 0x1ec-0x1ed (1)
     |                                               |                |                  [2]{}: in 0x1ed-0x1ee (1)
0x1e0|                                       0b      |             .  |                    opcode: "end" (0xb) 0x1ed-0x1ee (1)
     |                                               |                |            [12]{}: code 0x1ee-0x1f6 (8)
0x1e0|                                          07   |              . |              size: 7 (valid) 0x1ee-0x1ef (1)
     |                                               |                |              code{}: 0x1ef-0x1f6 (7)
     |                                               |                |                t{}: 0x1ef-0x1f0 (1)
0x1e0|                                             00|               .|                  n: 0 (valid) 0x1ef-0x1f0 (1)
     |                                               |                |                  x[0:0]: 0x1f0-0x1f0 (0)
     |                                               |                |                e[0:3]: 0x1f0-0x1f6 (6)
     |                                               |                |                  [0]{}: in 0x1f0-0x1f2 (2)
0x1f0|20                                             |                |                    opcode: "local.get" (0x20) 0x1f0-0x1f1 (1)
0x1f0|   00                                          | .              |                    x: 0 (valid) 0x1f1-0x1f2 (1)
     |                                               |                |                  [1]{}: in 0x1f2-0x1f5 (3)
0x1f0|      2f                                       |  /             |                    opcode: "i32.load16_u" (0x2f) 0x1f2-0x1f3 (1)
     |                                               |                |                    m{}: 0x1f3-0x1f5 (2)
0x1f0|         00                                    |   .            |                      a: 0 (valid) 0x1f3-0x1f4 (1)
0x1f0|            01                                 |    .           |                      o: 1 (valid) 0x1f4-0x1f5 (1)
     |                                               |                |                  [2]{}: in 0x1f5-0x1f6 (1)
0x1f0|               0b                              |     .          |                    opcode: "end" (0xb) 0x1f5-0x1f6 (1)
     |                                               |                |            [13]{}: code 0x1f6-0x1fe (8)
0x1f0|                  07                           |      .         |              size: 7 (valid) 0x1f6-0x1f7 (1)
     |                                               |                |              code{}: 0x1f7-0x1fe (7)
     |                                               |                |                t{}: 0x1f7-0x1f8 (1)
0x1f0|                     00                        |       .        |                  n: 0 (valid) 0x1f7-0x1f8 (1)
     |                                               |                |                  x[0:0]: 0x1f8-0x1f8 (0)
     |                                               |                |                e[0:3]: 0x1f8-0x1fe (6)
     |                                               |                |                  [0]{}: in 0x1f8-0x1fa (2)
0x1f0|                        20                     |                |                    opcode: "local.get" (0x20) 0x1f8-0x1f9 (1)
0x1f0|                           00                  |         .      |                    x: 0 (valid) 0x1f9-0x1fa (1)
     |                                               |                |                  [1]{}: in 0x1fa-0x1fd (3)
0x1f0|                              2f               |          /     |                    opcode: "i32.load16_u" (0x2f) 0x1fa-0x1fb (1)
     |                                               |                |                    m{}: 0x1fb-0x1fd (2)
0x1f0|                                 01            |           .    |                      a: 1 (valid) 0x1fb-0x1fc (1)
0x1f0|                                    02         |            .   |                      o: 2 (valid) 0x1fc-0x1fd (1)
     |                                               |                |                  [2]{}: in 0x1fd-0x1fe (1)
0x1f0|                                       0b      |             .  |                    opcode: "end" (0xb) 0x1fd-0x1fe (1)
     |                                               |                |            [14]{}: code 0x1fe-0x206 (8)
0x1f0|                                          07   |              . |              size: 7 (valid) 0x1fe-0x1ff (1)
     |                                               |                |              code{}: 0x1ff-0x206 (7)
     |                                               |                |                t{}: 0x1ff-0x200 (1)
0x1f0|                                             00|               .|                  n: 0 (valid) 0x1ff-0x200 (1)
     |                                               |                |                  x[0:0]: 0x200-0x200 (0)
     |                                               |                |                e[0:3]: 0x200-0x206 (6)
     |                                               |                |                  [0]{}: in 0x200-0x202 (2)
0x200|20                                             |                |                    opcode: "local.get" (0x20) 0x200-0x201 (1)
0x200|   00                                          | .              |                    x: 0 (valid) 0x201-0x202 (1)
     |                                               |                |                  [1]{}: in 0x202-0x205 (3)
0x200|      2f                                       |  /             |                    opcode: "i32.load16_u" (0x2f) 0x202-0x203 (1)
     |                                               |                |                    m{}: 0x203-0x205 (2)
0x200|         01                                    |   .            |                      a: 1 (valid) 0x203-0x204 (1)
0x200|            19                                 |    .           |                      o: 25 (valid) 0x204-0x205 (1)
     |                                               |                |                  [2]{}: in 0x205-0x206 (1)
0x200|               0b                              |     .          |                    opcode: "end" (0xb) 0x205-0x206 (1)
     |                                               |                |            [15]{}: code 0x206-0x20e (8)
0x200|                  07                           |      .         |              size: 7 (valid) 0x206-0x207 (1)
     |                                               |                |              code{}: 0x207-0x20e (7)
     |                                               |                |                t{}: 0x207-0x208 (1)
0x200|                     00                        |       .        |                  n: 0 (valid) 0x207-0x208 (1)
     |                                               |                |                  x[0:0]: 0x208-0x208 (0)
     |                                               |                |                e[0:3]: 0x208-0x20e (6)
     |                                               |                |                  [0]{}: in 0x208-0x20a (2)
0x200|                        20                     |                |                    opcode: "local.get" (0x20) 0x208-0x209 (1)
0x200|                           00                  |         .      |                    x: 0 (valid) 0x209-0x20a (1)
     |                                               |                |                  [1]{}: in 0x20a-0x20d (3)
0x200|                              2e               |          .     |                    opcode: "i32.load16_s" (0x2e) 0x20a-0x20b (1)
     |                                               |                |                    m{}: 0x20b-0x20d (2)
0x200|                                 01            |           .    |                      a: 1 (valid) 0x20b-0x20c (1)
0x200|                                    00         |            .   |                      o: 0 (valid) 0x20c-0x20d (1)
     |                                               |                |                  [2]{}: in 0x20d-0x20e (1)
0x200|                                       0b      |             .  |                    opcode: "end" (0xb) 0x20d-0x20e (1)
     |                                               |                |            [16]{}: code 0x20e-0x216 (8)
0x200|                                          07   |              . |              size: 7 (valid) 0x20e-0x20f (1)
     |                                               |                |              code{}: 0x20f-0x216 (7)
     |                                               |                |                t{}: 0x20f-0x210 (1)
0x200|                                             00|               .|                  n: 0 (valid) 0x20f-0x210 (1)
     |                                               |                |                  x[0:0]: 0x210-0x210 (0)
     |                                               |                |                e[0:3]: 0x210-0x216 (6)
     |                                               |                |                  [0]{}: in 0x210-0x212 (2)
0x210|20                                             |                |                    opcode: "local.get" (0x20) 0x210-0x211 (1)
0x210|   00                                          | .              |                    x: 0 (valid) 0x211-0x212 (1)
     |                                               |                |                  [1]{}: in 0x212-0x215 (3)
0x210|      2e                                       |  .             |                    opcode: "i32.load16_s" (0x2e) 0x212-0x213 (1)
     |                                               |                |                    m{}: 0x213-0x215 (2)
0x210|         00                                    |   .            |                      a: 0 (valid) 0x213-0x214 (1)
0x210|            00                                 |    .           |                      o: 0 (valid) 0x214-0x215 (1)
     |                                               |                |                  [2]{}: in 0x215-0x216 (1)
0x210|               0b                              |     .          |                    opcode: "end" (0xb) 0x215-0x216 (1)
     |                                               |                |            [17]{}: code 0x216-0x21e (8)
0x210|                  07                           |      .         |              size: 7 (valid) 0x216-0x217 (1)
     |                                               |                |              code{}: 0x217-0x21e (7)
     |                                               |                |                t{}: 0x217-0x218 (1)
0x210|                     00                        |       .        |                  n: 0 (valid) 0x217-0x218 (1)
     |                                               |                |                  x[0:0]: 0x218-0x218 (0)
     |                                               |                |                e[0:3]: 0x218-0x21e (6)
     |                                               |                |                  [0]{}: in 0x218-0x21a (2)
0x210|                        20                     |                |                    opcode: "local.get" (0x20) 0x218-0x219 (1)
0x210|                           00                  |         .      |                    x: 0 (valid) 0x219-0x21a (1)
     |                                               |                |                  [1]{}: in 0x21a-0x21d (3)
0x210|                              2e               |          .     |                    opcode: "i32.load16_s" (0x2e) 0x21a-0x21b (1)
     |                                               |                |                    m{}: 0x21b-0x21d (2)
0x210|                                 00            |           .    |                      a: 0 (valid) 0x21b-0x21c (1)
0x210|                                    01         |            .   |                      o: 1 (valid) 0x21c-0x21d (1)
     |                                               |                |                  [2]{}: in 0x21d-0x21e (1)
0x210|                                       0b      |             .  |                    opcode: "end" (0xb) 0x21d-0x21e (1)
     |                                               |                |            [18]{}: code 0x21e-0x226 (8)
0x210|                                          07   |              . |              size: 7 (valid) 0x21e-0x21f (1)
     |                                               |                |              code{}: 0x21f-0x226 (7)
     |                                               |                |                t{}: 0x21f-0x220 (1)
0x210|                                             00|               .|                  n: 0 (valid) 0x21f-0x220 (1)
     |                                               |                |                  x[0:0]: 0x220-0x220 (0)
     |                                               |                |                e[0:3]: 0x220-0x226 (6)
     |                                               |                |                  [0]{}: in 0x220-0x222 (2)
0x220|20                                             |                |                    opcode: "local.get" (0x20) 0x220-0x221 (1)
0x220|   00                                          | .              |                    x: 0 (valid) 0x221-0x222 (1)
     |                                               |                |                  [1]{}: in 0x222-0x225 (3)
0x220|      2e                                       |  .             |                    opcode: "i32.load16_s" (0x2e) 0x222-0x223 (1)
     |                                               |                |                    m{}: 0x223-0x225 (2)
0x220|         01                                    |   .            |                      a: 1 (valid) 0x223-0x224 (1)
0x220|            02                                 |    .           |                      o: 2 (valid) 0x224-0x225 (1)
     |                                               |                |                  [2]{}: in 0x225-0x226 (1)
0x220|               0b                              |     .          |                    opcode: "end" (0xb) 0x225-0x226 (1)
     |                                               |                |            [19]{}: code 0x226-0x22e (8)
0x220|                  07                           |      .         |              size: 7 (valid) 0x226-0x227 (1)
     |                                               |                |              code{}: 0x227-0x22e (7)
     |                                               |                |                t{}: 0x227-0x228 (1)
0x220|                     00                        |       .        |                  n: 0 (valid) 0x227-0x228 (1)
     |                                               |                |                  x[0:0]: 0x228-0x228 (0)
     |                                               |                |                e[0:3]: 0x228-0x22e (6)
     |                                               |                |                  [0]{}: in 0x228-0x22a (2)
0x220|                        20                     |                |                    opcode: "local.get" (0x20) 0x228-0x229 (1)
0x220|                           00                  |         .      |                    x: 0 (valid) 0x229-0x22a (1)
     |                                               |                |                  [1]{}: in 0x22a-0x22d (3)
0x220|                              2e               |          .     |                    opcode: "i32.load16_s" (0x2e) 0x22a-0x22b (1)
     |                                               |                |                    m{}: 0x22b-0x22d (2)
0x220|                                 01            |           .    |                      a: 1 (valid) 0x22b-0x22c (1)
0x220|                                    19         |            .   |                      o: 25 (valid) 0x22c-0x22d (1)
     |                                               |                |                  [2]{}: in 0x22d-0x22e (1)
0x220|                                       0b      |             .  |                    opcode: "end" (0xb) 0x22d-0x22e (1)
     |                                               |                |            [20]{}: code 0x22e-0x236 (8)
0x220|                                          07   |              . |              size: 7 (valid) 0x22e-0x22f (1)
     |                                               |                |              code{}: 0x22f-0x236 (7)
     |                                               |                |                t{}: 0x22f-0x230 (1)
0x220|                                             00|               .|                  n: 0 (valid) 0x22f-0x230 (1)
     |                                               |                |                  x[0:0]: 0x230-0x230 (0)
     |                                               |                |                e[0:3]: 0x230-0x236 (6)
     |                                               |                |                  [0]{}: in 0x230-0x232 (2)
0x230|20                                             |                |                    opcode: "local.get" (0x20) 0x230-0x231 (1)
0x230|   00                                          | .              |                    x: 0 (valid) 0x231-0x232 (1)
     |                                               |                |                  [1]{}: in 0x232-0x235 (3)
0x230|      28                                       |  (             |                    opcode: "i32.load" (0x28) 0x232-0x233 (1)
     |                                               |                |                    m{}: 0x233-0x235 (2)
0x230|         02                                    |   .            |                      a: 2 (valid) 0x233-0x234 (1)
0x230|            00                                 |    .           |                      o: 0 (valid) 0x234-0x235 (1)
     |                                               |                |                  [2]{}: in 0x235-0x236 (1)
0x230|               0b                              |     .          |                    opcode: "end" (0xb) 0x235-0x236 (1)
     |                                               |                |            [21]{}: code 0x236-0x23e (8)
0x230|                  07                           |      .         |              size: 7 (valid) 0x236-0x237 (1)
     |                                               |                |              code{}: 0x237-0x23e (7)
     |                                               |                |                t{}: 0x237-0x238 (1)
0x230|                     00                        |       .        |                  n: 0 (valid) 0x237-0x238 (1)
     |                                               |                |                  x[0:0]: 0x238-0x238 (0)
     |                                               |                |                e[0:3]: 0x238-0x23e (6)
     |                                               |                |                  [0]{}: in 0x238-0x23a (2)
0x230|                        20                     |                |                    opcode: "local.get" (0x20) 0x238-0x239 (1)
0x230|                           00                  |         .      |                    x: 0 (valid) 0x239-0x23a (1)
     |                                               |                |                  [1]{}: in 0x23a-0x23d (3)
0x230|                              28               |          (     |                    opcode: "i32.load" (0x28) 0x23a-0x23b (1)
     |                                               |                |                    m{}: 0x23b-0x23d (2)
0x230|                                 00            |           .    |                      a: 0 (valid) 0x23b-0x23c (1)
0x230|                                    00         |            .   |                      o: 0 (valid) 0x23c-0x23d (1)
     |                                               |                |                  [2]{}: in 0x23d-0x23e (1)
0x230|                                       0b      |             .  |                    opcode: "end" (0xb) 0x23d-0x23e (1)
     |                                               |                |            [22]{}: code 0x23e-0x246 (8)
0x230|                                          07   |              . |              size: 7 (valid) 0x23e-0x23f (1)
     |                                               |                |              code{}: 0x23f-0x246 (7)
     |                                               |                |                t{}: 0x23f-0x240 (1)
0x230|                                             00|               .|                  n: 0 (valid) 0x23f-0x240 (1)
     |                                               |                |                  x[0:0]: 0x240-0x240 (0)
     |                                               |                |                e[0:3]: 0x240-0x246 (6)
     |                                               |                |                  [0]{}: in 0x240-0x242 (2)
0x240|20                                             |                |                    opcode: "local.get" (0x20) 0x240-0x241 (1)
0x240|   00                                          | .              |                    x: 0 (valid) 0x241-0x242 (1)
     |                                               |                |                  [1]{}: in 0x242-0x245 (3)
0x240|      28                                       |  (             |                    opcode: "i32.load" (0x28) 0x242-0x243 (1)
     |                                               |                |                    m{}: 0x243-0x245 (2)
0x240|         00                                    |   .            |                      a: 0 (valid) 0x243-0x244 (1)
0x240|            01                                 |    .           |                      o: 1 (valid) 0x244-0x245 (1)
     |                                               |                |                  [2]{}: in 0x245-0x246 (1)
0x240|               0b                              |     .          |                    opcode: "end" (0xb) 0x245-0x246 (1)
     |                                               |                |            [23]{}: code 0x246-0x24e (8)
0x240|                  07                           |      .         |              size: 7 (valid) 0x246-0x247 (1)
     |                                               |                |              code{}: 0x247-0x24e (7)
     |                                               |                |                t{}: 0x247-0x248 (1)
0x240|                     00                        |       .        |                  n: 0 (valid) 0x247-0x248 (1)
     |                                               |                |                  x[0:0]: 0x248-0x248 (0)
     |                                               |                |                e[0:3]: 0x248-0x24e (6)
     |                                               |                |                  [0]{}: in 0x248-0x24a (2)
0x240|                        20                     |                |                    opcode: "local.get" (0x20) 0x248-0x249 (1)
0x240|                           00                  |         .      |                    x: 0 (valid) 0x249-0x24a (1)
     |                                               |                |                  [1]{}: in 0x24a-0x24d (3)
0x240|                              28               |          (     |                    opcode: "i32.load" (0x28) 0x24a-0x24b (1)
     |                                               |                |                    m{}: 0x24b-0x24d (2)
0x240|                                 01            |           .    |                      a: 1 (valid) 0x24b-0x24c (1)
0x240|                                    02         |            .   |                      o: 2 (valid) 0x24c-0x24d (1)
     |                                               |                |                  [2]{}: in 0x24d-0x24e (1)
0x240|                                       0b      |             .  |                    opcode: "end" (0xb) 0x24d-0x24e (1)
     |                                               |                |            [24]{}: code 0x24e-0x256 (8)
0x240|                                          07   |              . |              size: 7 (valid) 0x24e-0x24f (1)
     |                                               |                |              code{}: 0x24f-0x256 (7)
     |                                               |                |                t{}: 0x24f-0x250 (1)
0x240|                                             00|               .|                  n: 0 (valid) 0x24f-0x250 (1)
     |                                               |                |                  x[0:0]: 0x250-0x250 (0)
     |                                               |                |                e[0:3]: 0x250-0x256 (6)
     |                                               |                |                  [0]{}: in 0x250-0x252 (2)
0x250|20                                             |                |                    opcode: "local.get" (0x20) 0x250-0x251 (1)
0x250|   00                                          | .              |                    x: 0 (valid) 0x251-0x252 (1)
     |                                               |                |                  [1]{}: in 0x252-0x255 (3)
0x250|      28                                       |  (             |                    opcode: "i32.load" (0x28) 0x252-0x253 (1)
     |                                               |                |                    m{}: 0x253-0x255 (2)
0x250|         02                                    |   .            |                      a: 2 (valid) 0x253-0x254 (1)
0x250|            19                                 |    .           |                      o: 25 (valid) 0x254-0x255 (1)
     |                                               |                |                  [2]{}: in 0x255-0x256 (1)
0x250|               0b                              |     .          |                    opcode: "end" (0xb) 0x255-0x256 (1)
     |                                               |                |            [25]{}: code 0x256-0x263 (13)
0x250|                  0c                           |      .         |              size: 12 (valid) 0x256-0x257 (1)
     |                                               |                |              code{}: 0x257-0x263 (12)
     |                                               |                |                t{}: 0x257-0x258 (1)
0x250|                     00                        |       .        |                  n: 0 (valid) 0x257-0x258 (1)
     |                                               |                |                  x[0:0]: 0x258-0x258 (0)
     |                                               |                |                e[0:4]: 0x258-0x263 (11)
     |                                               |                |                  [0]{}: in 0x258-0x25a (2)
0x250|                        20                     |                |                    opcode: "local.get" (0x20) 0x258-0x259 (1)
0x250|                           00                  |         .      |                    x: 0 (valid) 0x259-0x25a (1)
     |                                               |                |                  [1]{}: in 0x25a-0x261 (7)
0x250|                              2d               |          -     |                    opcode: "i32.load8_u" (0x2d) 0x25a-0x25b (1)
     |                                               |                |                    m{}: 0x25b-0x261 (6)
0x250|                                 00            |           .    |                      a: 0 (valid) 0x25b-0x25c (1)
0x250|                                    ff ff ff ff|            ....|                      o: 4294967295 (valid) 0x25c-0x261 (5)
0x260|0f                                             |.               |
     |                                               |                |                  [2]{}: in 0x261-0x262 (1)
0x260|   1a                                          | .              |                    opcode: "drop" (0x1a) 0x261-0x262 (1)
     |                                               |                |                  [3]{}: in 0x262-0x263 (1)
0x260|      0b                                       |  .             |                    opcode: "end" (0xb) 0x262-0x263 (1)
     |                                               |                |            [26]{}: code 0x263-0x270 (13)
0x260|         0c                                    |   .            |              size: 12 (valid) 0x263-0x264 (1)
     |                                               |                |              code{}: 0x264-0x270 (12)
     |                                               |                |                t{}: 0x264-0x265 (1)
0x260|            00                                 |    .           |                  n: 0 (valid) 0x264-0x265 (1)
     |                                               |                |                  x[0:0]: 0x265-0x265 (0)
     |                                               |                |                e[0:4]: 0x265-0x270 (11)
     |                                               |                |                  [0]{}: in 0x265-0x267 (2)
0x260|               20                              |                |                    opcode: "local.get" (0x20) 0x265-0x266 (1)
0x260|                  00                           |      .         |                    x: 0 (valid) 0x266-0x267 (1)
     |                                               |                |                  [1]{}: in 0x267-0x26e (7)
0x260|                     2c                        |       ,        |                    opcode: "i32.load8_s" (0x2c) 0x267-0x268 (1)
     |                                               |                |                    m{}: 0x268-0x26e (6)
0x260|                        00                     |        .       |                      a: 0 (valid) 0x268-0x269 (1)
0x260|                           ff ff ff ff 0f      |         .....  |                      o: 4294967295 (valid) 0x269-0x26e (5)
     |                                               |                |                  [2]{}: in 0x26e-0x26f (1)
0x260|                                          1a   |              . |                    opcode: "drop" (0x1a) 0x26e-0x26f (1)
     |                                               |                |                  [3]{}: in 0x26f-0x270 (1)
0x260|                                             0b|               .|                    opcode: "end" (0xb) 0x26f-0x270 (1)
     |                                               |                |            [27]{}: code 0x270-0x27d (13)
0x270|0c                                             |.               |              size: 12 (valid) 0x270-0x271 (1)
     |                                               |                |              code{}: 0x271-0x27d (12)
     |                                               |                |                t{}: 0x271-0x272 (1)
0x270|   00                                          | .              |                  n: 0 (valid) 0x271-0x272 (1)
     |                                               |                |                  x[0:0]: 0x272-0x272 (0)
     |                                               |                |                e[0:4]: 0x272-0x27d (11)
     |                                               |                |                  [0]{}: in 0x272-0x274 (2)
0x270|      20                                       |                |                    opcode: "local.get" (0x20) 0x272-0x273 (1)
0x270|         00                                    |   .            |                    x: 0 (valid) 0x273-0x274 (1)
     |                                               |                |                  [1]{}: in 0x274-0x27b (7)
0x270|            2f                                 |    /           |                    opcode: "i32.load16_u" (0x2f) 0x274-0x275 (1)
     |                                               |                |                    m{}: 0x275-0x27b (6)
0x270|               01                              |     .          |                      a: 1 (valid) 0x275-0x276 (1)
0x270|                  ff ff ff ff 0f               |      .....     |                      o: 4294967295 (valid) 0x276-0x27b (5)
     |                                               |                |                  [2]{}: in 0x27b-0x27c (1)
0x270|                                 1a            |           .    |                    opcode: "drop" (0x1a) 0x27b-0x27c (1)
     |                                               |                |                  [3]{}: in 0x27c-0x27d (1)
0x270|                                    0b         |            .   |                    opcode: "end" (0xb) 0x27c-0x27d (1)
     |                                               |                |            [28]{}: code 0x27d-0x28a (13)
0x270|                                       0c      |             .  |              size: 12 (valid) 0x27d-0x27e (1)
     |                                               |                |              code{}: 0x27e-0x28a (12)
     |                                               |                |                t{}: 0x27e-0x27f (1)
0x270|                                          00   |              . |                  n: 0 (valid) 0x27e-0x27f (1)
     |                                               |                |                  x[0:0]: 0x27f-0x27f (0)
     |                                               |                |                e[0:4]: 0x27f-0x28a (11)
     |                                               |                |                  [0]{}: in 0x27f-0x281 (2)
0x270|                                             20|                |                    opcode: "local.get" (0x20) 0x27f-0x280 (1)
0x280|00                                             |.               |                    x: 0 (valid) 0x280-0x281 (1)
     |                                               |                |                  [1]{}: in 0x281-0x288 (7)
0x280|   2e                                          | .              |                    opcode: "i32.load16_s" (0x2e) 0x281-0x282 (1)
     |                                               |                |                    m{}: 0x282-0x288 (6)
0x280|      01                                       |  .             |                      a: 1 (valid) 0x282-0x283 (1)
0x280|         ff ff ff ff 0f                        |   .....        |                      o: 4294967295 (valid) 0x283-0x288 (5)
     |                                               |                |                  [2]{}: in 0x288-0x289 (1)
0x280|                        1a                     |        .       |                    opcode: "drop" (0x1a) 0x288-0x289 (1)
     |                                               |                |                  [3]{}: in 0x289-0x28a (1)
0x280|                           0b                  |         .      |                    opcode: "end" (0xb) 0x289-0x28a (1)
     |                                               |                |            [29]{}: code 0x28a-0x297 (13)
0x280|                              0c               |          .     |              size: 12 (valid) 0x28a-0x28b (1)
     |                                               |                |              code{}: 0x28b-0x297 (12)
     |                                               |                |                t{}: 0x28b-0x28c (1)
0x280|                                 00            |           .    |                  n: 0 (valid) 0x28b-0x28c (1)
     |                                               |                |                  x[0:0]: 0x28c-0x28c (0)
     |                                               |                |                e[0:4]: 0x28c-0x297 (11)
     |                                               |                |                  [0]{}: in 0x28c-0x28e (2)
0x280|                                    20         |                |                    opcode: "local.get" (0x20) 0x28c-0x28d (1)
0x280|                                       00      |             .  |                    x: 0 (valid) 0x28d-0x28e (1)
     |                                               |                |                  [1]{}: in 0x28e-0x295 (7)
0x280|                                          28   |              ( |                    opcode: "i32.load" (0x28) 0x28e-0x28f (1)
     |                                               |                |                    m{}: 0x28f-0x295 (6)
0x280|                                             02|               .|                      a: 2 (valid) 0x28f-0x290 (1)
0x290|ff ff ff ff 0f                                 |.....           |                      o: 4294967295 (valid) 0x290-0x295 (5)
     |                                               |                |                  [2]{}: in 0x295-0x296 (1)
0x290|               1a                              |     .          |                    opcode: "drop" (0x1a) 0x295-0x296 (1)
     |                                               |                |                  [3]{}: in 0x296-0x297 (1)
0x290|                  0b                           |      .         |                    opcode: "end" (0xb) 0x296-0x297 (1)
     |                                               |                |    [5]{}: section 0x297-0x2b9 (34)
0x290|                     0b                        |       .        |      id: "data_section" (11) 0x297-0x298 (1)
0x290|                        20                     |                |      size: 32 (valid) 0x298-0x299 (1)
     |                                               |                |      content{}: 0x299-0x2b9 (32)
     |                                               |                |        seg{}: 0x299-0x2b9 (32)
0x290|                           01                  |         .      |          n: 1 (valid) 0x299-0x29a (1)
     |                                               |                |          x[0:1]: 0x29a-0x2b9 (31)
     |                                               |                |            [0]{}: seg 0x29a-0x2b9 (31)
0x290|                              00               |          .     |              tag: 0 (valid) 0x29a-0x29b (1)
     |                                               |                |              e[0:2]: 0x29b-0x29e (3)
     |                                               |                |                [0]{}: in 0x29b-0x29d (2)
0x290|                                 41            |           A    |                  opcode: "i32.const" (0x41) 0x29b-0x29c (1)
0x290|                                    00         |            .   |                  n: 0 (valid) 0x29c-0x29d (1)
     |                                               |                |                [1]{}: in 0x29d-0x29e (1)
0x290|                                       0b      |             .  |                  opcode: "end" (0xb) 0x29d-0x29e (1)
     |                                               |                |              b{}: 0x29e-0x2b9 (27)
0x290|                                          1a   |              . |                n: 26 (valid) 0x29e-0x29f (1)
0x290|                                             61|               a|                x: raw bits 0x29f-0x2b9 (26)
0x2a0|62 63 64 65 66 67 68 69 6a 6b 6c 6d 6e 6f 70 71|bcdefghijklmnopq|
0x2b0|72 73 74 75 76 77 78 79 7a|                    |rstuvwxyz|      |
