$ fq -d wasm dv address-1.wasm
     |00 01 02 03 04 05 06 07 08 09 0a 0b 0c 0d 0e 0f|0123456789abcdef|.{}: address-1.wasm (wasm) 0x0-0x3bb (955)
0x000|00 61 73 6d                                    |.asm            |  magic: raw bits (valid) 0x0-0x4 (4)
0x000|            01 00 00 00                        |    ....        |  version: 1 0x4-0x8 (4)
     |                                               |                |  sections[0:6]: 0x8-0x3bb (947)
     |                                               |                |    [0]{}: section 0x8-0x14 (12)
0x000|                        01                     |        .       |      id: "type_section" (1) 0x8-0x9 (1)
0x000|                           0a                  |         .      |      size: 10 (valid) 0x9-0xa (1)
     |                                               |                |      content{}: 0xa-0x14 (10)
     |                                               |                |        ft{}: 0xa-0x14 (10)
0x000|                              02               |          .     |          n: 2 (valid) 0xa-0xb (1)
     |                                               |                |          x[0:2]: 0xb-0x14 (9)
     |                                               |                |            [0]{}: ft 0xb-0x10 (5)
0x000|                                 60            |           `    |              tag: 0x60 (valid) 0xb-0xc (1)
     |                                               |                |              rt1{}: 0xc-0xe (2)
0x000|                                    01         |            .   |                n: 1 (valid) 0xc-0xd (1)
     |                                               |                |                x[0:1]: 0xd-0xe (1)
0x000|                                       7f      |             .  |                  [0]: "i32" (0x7f) t 0xd-0xe (1)
     |                                               |                |              rt2{}: 0xe-0x10 (2)
0x000|                                          01   |              . |                n: 1 (valid) 0xe-0xf (1)
     |                                               |                |                x[0:1]: 0xf-0x10 (1)
0x000|                                             7e|               ~|                  [0]: "i64" (0x7e) t 0xf-0x10 (1)
     |                                               |                |            [1]{}: ft 0x10-0x14 (4)
0x010|60                                             |`               |              tag: 0x60 (valid) 0x10-0x11 (1)
     |                                               |                |              rt1{}: 0x11-0x13 (2)
0x010|   01                                          | .              |                n: 1 (valid) 0x11-0x12 (1)
     |                                               |                |                x[0:1]: 0x12-0x13 (1)
0x010|      7f                                       |  .             |                  [0]: "i32" (0x7f) t 0x12-0x13 (1)
     |                                               |                |              rt2{}: 0x13-0x14 (1)
0x010|         00                                    |   .            |                n: 0 (valid) 0x13-0x14 (1)
     |                                               |                |                x[0:0]: 0x14-0x14 (0)
     |                                               |                |    [1]{}: section 0x14-0x41 (45)
0x010|            03                                 |    .           |      id: "function_section" (3) 0x14-0x15 (1)
0x010|               2b                              |     +          |      size: 43 (valid) 0x15-0x16 (1)
     |                                               |                |      content{}: 0x16-0x41 (43)
     |                                               |                |        x{}: 0x16-0x41 (43)
0x010|                  2a                           |      *         |          n: 42 (valid) 0x16-0x17 (1)
     |                                               |                |          x[0:42]: 0x17-0x41 (42)
0x010|                     00                        |       .        |            [0]: 0 x (valid) 0x17-0x18 (1)
0x010|                        00                     |        .       |            [1]: 0 x (valid) 0x18-0x19 (1)
0x010|                           00                  |         .      |            [2]: 0 x (valid) 0x19-0x1a (1)
0x010|                              00               |          .     |            [3]: 0 x (valid) 0x1a-0x1b (1)
0x010|                                 00            |           .    |            [4]: 0 x (valid) 0x1b-0x1c (1)
0x010|                                    00         |            .   |            [5]: 0 x (valid) 0x1c-0x1d (1)
0x010|                                       00      |             .  |            [6]: 0 x (valid) 0x1d-0x1e (1)
0x010|                                          00   |              . |            [7]: 0 x (valid) 0x1e-0x1f (1)
0x010|                                             00|               .|            [8]: 0 x (valid) 0x1f-0x20 (1)
0x020|00                                             |.               |            [9]: 0 x (valid) 0x20-0x21 (1)
0x020|   00                                          | .              |            [10]: 0 x (valid) 0x21-0x22 (1)
0x020|      00                                       |  .             |            [11]: 0 x (valid) 0x22-0x23 (1)
0x020|         00                                    |   .            |            [12]: 0 x (valid) 0x23-0x24 (1)
0x020|            00                                 |    .           |            [13]: 0 x (valid) 0x24-0x25 (1)
0x020|               00                              |     .          |            [14]: 0 x (valid) 0x25-0x26 (1)
0x020|                  00                           |      .         |            [15]: 0 x (valid) 0x26-0x27 (1)
0x020|                     00                        |       .        |            [16]: 0 x (valid) 0x27-0x28 (1)
0x020|                        00                     |        .       |            [17]: 0 x (valid) 0x28-0x29 (1)
0x020|                           00                  |         .      |            [18]: 0 x (valid) 0x29-0x2a (1)
0x020|                              00               |          .     |            [19]: 0 x (valid) 0x2a-0x2b (1)
0x020|                                 00            |           .    |            [20]: 0 x (valid) 0x2b-0x2c (1)
0x020|                                    00         |            .   |            [21]: 0 x (valid) 0x2c-0x2d (1)
0x020|                                       00      |             .  |            [22]: 0 x (valid) 0x2d-0x2e (1)
0x020|                                          00   |              . |            [23]: 0 x (valid) 0x2e-0x2f (1)
0x020|                                             00|               .|            [24]: 0 x (valid) 0x2f-0x30 (1)
0x030|00                                             |.               |            [25]: 0 x (valid) 0x30-0x31 (1)
0x030|   00                                          | .              |            [26]: 0 x (valid) 0x31-0x32 (1)
0x030|      00                                       |  .             |            [27]: 0 x (valid) 0x32-0x33 (1)
0x030|         00                                    |   .            |            [28]: 0 x (valid) 0x33-0x34 (1)
0x030|            00                                 |    .           |            [29]: 0 x (valid) 0x34-0x35 (1)
0x030|               00                              |     .          |            [30]: 0 x (valid) 0x35-0x36 (1)
0x030|                  00                           |      .         |            [31]: 0 x (valid) 0x36-0x37 (1)
0x030|                     00                        |       .        |            [32]: 0 x (valid) 0x37-0x38 (1)
0x030|                        00                     |        .       |            [33]: 0 x (valid) 0x38-0x39 (1)
0x030|                           00                  |         .      |            [34]: 0 x (valid) 0x39-0x3a (1)
0x030|                              01               |          .     |            [35]: 1 x (valid) 0x3a-0x3b (1)
0x030|                                 01            |           .    |            [36]: 1 x (valid) 0x3b-0x3c (1)
0x030|                                    01         |            .   |            [37]: 1 x (valid) 0x3c-0x3d (1)
0x030|                                       01      |             .  |            [38]: 1 x (valid) 0x3d-0x3e (1)
0x030|                                          01   |              . |            [39]: 1 x (valid) 0x3e-0x3f (1)
0x030|                                             01|               .|            [40]: 1 x (valid) 0x3f-0x40 (1)
0x040|01                                             |.               |            [41]: 1 x (valid) 0x40-0x41 (1)
     |                                               |                |    [2]{}: section 0x41-0x46 (5)
0x040|   05                                          | .              |      id: "memory_section" (5) 0x41-0x42 (1)
0x040|      03                                       |  .             |      size: 3 (valid) 0x42-0x43 (1)
     |                                               |                |      content{}: 0x43-0x46 (3)
     |                                               |                |        mem{}: 0x43-0x46 (3)
0x040|         01                                    |   .            |          n: 1 (valid) 0x43-0x44 (1)
     |                                               |                |          x[0:1]: 0x44-0x46 (2)
     |                                               |                |            [0]{}: mem 0x44-0x46 (2)
     |                                               |                |              lim{}: 0x44-0x46 (2)
0x040|            00                                 |    .           |                tag: 0x0 0x44-0x45 (1)
0x040|               01                              |     .          |                n: 1 (valid) 0x45-0x46 (1)
     |                                               |                |    [3]{}: section 0x46-0x222 (476)
0x040|                  07                           |      .         |      id: "export_section" (7) 0x46-0x47 (1)
0x040|                     d9 03                     |       ..       |      size: 473 (valid) 0x47-0x49 (2)
     |                                               |                |      content{}: 0x49-0x222 (473)
     |                                               |                |        ex{}: 0x49-0x222 (473)
0x040|                           2a                  |         *      |          n: 42 (valid) 0x49-0x4a (1)
     |                                               |                |          x[0:42]: 0x4a-0x222 (472)
     |                                               |                |            [0]{}: ex 0x4a-0x55 (11)
     |                                               |                |              nm{}: 0x4a-0x53 (9)
0x040|                              08               |          .     |                n: 8 (valid) 0x4a-0x4b (1)
0x040|                                 38 75 5f 67 6f|           8u_go|                b: "8u_good1" 0x4b-0x53 (8)
0x050|6f 64 31                                       |od1             |
     |                                               |                |              d{}: 0x53-0x55 (2)
0x050|         00                                    |   .            |                tag: "funcidx" (0x0) 0x53-0x54 (1)
0x050|            00                                 |    .           |                x: 0 (valid) 0x54-0x55 (1)
     |                                               |                |            [1]{}: ex 0x55-0x60 (11)
     |                                               |                |              nm{}: 0x55-0x5e (9)
0x050|               08                              |     .          |                n: 8 (valid) 0x55-0x56 (1)
0x050|                  38 75 5f 67 6f 6f 64 32      |      8u_good2  |                b: "8u_good2" 0x56-0x5e (8)
     |                                               |                |              d{}: 0x5e-0x60 (2)
0x050|                                          00   |              . |                tag: "funcidx" (0x0) 0x5e-0x5f (1)
0x050|                                             01|               .|                x: 1 (valid) 0x5f-0x60 (1)
     |                                               |                |            [2]{}: ex 0x60-0x6b (11)
     |                                               |                |              nm{}: 0x60-0x69 (9)
0x060|08                                             |.               |                n: 8 (valid) 0x60-0x61 (1)
0x060|   38 75 5f 67 6f 6f 64 33                     | 8u_good3       |                b: "8u_good3" 0x61-0x69 (8)
     |                                               |                |              d{}: 0x69-0x6b (2)
0x060|                           00                  |         .      |                tag: "funcidx" (0x0) 0x69-0x6a (1)
0x060|                              02               |          .     |                x: 2 (valid) 0x6a-0x6b (1)
     |                                               |                |            [3]{}: ex 0x6b-0x76 (11)
     |                                               |                |              nm{}: 0x6b-0x74 (9)
0x060|                                 08            |           .    |                n: 8 (valid) 0x6b-0x6c (1)
0x060|                                    38 75 5f 67|            8u_g|                b: "8u_good4" 0x6c-0x74 (8)
0x070|6f 6f 64 34                                    |ood4            |
     |                                               |                |              d{}: 0x74-0x76 (2)
0x070|            00                                 |    .           |                tag: "funcidx" (0x0) 0x74-0x75 (1)
0x070|               03                              |     .          |                x: 3 (valid) 0x75-0x76 (1)
     |                                               |                |            [4]{}: ex 0x76-0x81 (11)
     |                                               |                |              nm{}: 0x76-0x7f (9)
0x070|                  08                           |      .         |                n: 8 (valid) 0x76-0x77 (1)
0x070|                     38 75 5f 67 6f 6f 64 35   |       8u_good5 |                b: "8u_good5" 0x77-0x7f (8)
     |                                               |                |              d{}: 0x7f-0x81 (2)
0x070|                                             00|               .|                tag: "funcidx" (0x0) 0x7f-0x80 (1)
0x080|04                                             |.               |                x: 4 (valid) 0x80-0x81 (1)
     |                                               |                |            [5]{}: ex 0x81-0x8c (11)
     |                                               |                |              nm{}: 0x81-0x8a (9)
0x080|   08                                          | .              |                n: 8 (valid) 0x81-0x82 (1)
0x080|      38 73 5f 67 6f 6f 64 31                  |  8s_good1      |                b: "8s_good1" 0x82-0x8a (8)
     |                                               |                |              d{}: 0x8a-0x8c (2)
0x080|                              00               |          .     |                tag: "funcidx" (0x0) 0x8a-0x8b (1)
0x080|                                 05            |           .    |                x: 5 (valid) 0x8b-0x8c (1)
     |                                               |                |            [6]{}: ex 0x8c-0x97 (11)
     |                                               |                |              nm{}: 0x8c-0x95 (9)
0x080|                                    08         |            .   |                n: 8 (valid) 0x8c-0x8d (1)
0x080|                                       38 73 5f|             8s_|                b: "8s_good2" 0x8d-0x95 (8)
0x090|67 6f 6f 64 32                                 |good2           |
     |                                               |                |              d{}: 0x95-0x97 (2)
0x090|               00                              |     .          |                tag: "funcidx" (0x0) 0x95-0x96 (1)
0x090|                  06                           |      .         |                x: 6 (valid) 0x96-0x97 (1)
     |                                               |                |            [7]{}: ex 0x97-0xa2 (11)
     |                                               |                |              nm{}: 0x97-0xa0 (9)
0x090|                     08                        |       .        |                n: 8 (valid) 0x97-0x98 (1)
0x090|                        38 73 5f 67 6f 6f 64 33|        8s_good3|                b: "8s_good3" 0x98-0xa0 (8)
     |                                               |                |              d{}: 0xa0-0xa2 (2)
0x0a0|00                                             |.               |                tag: "funcidx" (0x0) 0xa0-0xa1 (1)
0x0a0|   07                                          | .              |                x: 7 (valid) 0xa1-0xa2 (1)
     |                                               |                |            [8]{}: ex 0xa2-0xad (11)
     |                                               |                |              nm{}: 0xa2-0xab (9)
0x0a0|      08                                       |  .             |                n: 8 (valid) 0xa2-0xa3 (1)
0x0a0|         38 73 5f 67 6f 6f 64 34               |   8s_good4     |                b: "8s_good4" 0xa3-0xab (8)
     |                                               |                |              d{}: 0xab-0xad (2)
0x0a0|                                 00            |           .    |                tag: "funcidx" (0x0) 0xab-0xac (1)
0x0a0|                                    08         |            .   |                x: 8 (valid) 0xac-0xad (1)
     |                                               |                |            [9]{}: ex 0xad-0xb8 (11)
     |                                               |                |              nm{}: 0xad-0xb6 (9)
0x0a0|                                       08      |             .  |                n: 8 (valid) 0xad-0xae (1)
0x0a0|                                          38 73|              8s|                b: "8s_good5" 0xae-0xb6 (8)
0x0b0|5f 67 6f 6f 64 35                              |_good5          |
     |                                               |                |              d{}: 0xb6-0xb8 (2)
0x0b0|                  00                           |      .         |                tag: "funcidx" (0x0) 0xb6-0xb7 (1)
0x0b0|                     09                        |       .        |                x: 9 (valid) 0xb7-0xb8 (1)
     |                                               |                |            [10]{}: ex 0xb8-0xc4 (12)
     |                                               |                |              nm{}: 0xb8-0xc2 (10)
0x0b0|                        09                     |        .       |                n: 9 (valid) 0xb8-0xb9 (1)
0x0b0|                           31 36 75 5f 67 6f 6f|         16u_goo|                b: "16u_good1" 0xb9-0xc2 (9)
0x0c0|64 31                                          |d1              |
     |                                               |                |              d{}: 0xc2-0xc4 (2)
0x0c0|      00                                       |  .             |                tag: "funcidx" (0x0) 0xc2-0xc3 (1)
0x0c0|         0a                                    |   .            |                x: 10 (valid) 0xc3-0xc4 (1)
     |                                               |                |            [11]{}: ex 0xc4-0xd0 (12)
     |                                               |                |              nm{}: 0xc4-0xce (10)
0x0c0|            09                                 |    .           |                n: 9 (valid) 0xc4-0xc5 (1)
0x0c0|               31 36 75 5f 67 6f 6f 64 32      |     16u_good2  |                b: "16u_good2" 0xc5-0xce (9)
     |                                               |                |              d{}: 0xce-0xd0 (2)
0x0c0|                                          00   |              . |                tag: "funcidx" (0x0) 0xce-0xcf (1)
0x0c0|                                             0b|               .|                x: 11 (valid) 0xcf-0xd0 (1)
     |                                               |                |            [12]{}: ex 0xd0-0xdc (12)
     |                                               |                |              nm{}: 0xd0-0xda (10)
0x0d0|09                                             |.               |                n: 9 (valid) 0xd0-0xd1 (1)
0x0d0|   31 36 75 5f 67 6f 6f 64 33                  | 16u_good3      |                b: "16u_good3" 0xd1-0xda (9)
     |                                               |                |              d{}: 0xda-0xdc (2)
0x0d0|                              00               |          .     |                tag: "funcidx" (0x0) 0xda-0xdb (1)
0x0d0|                                 0c            |           .    |                x: 12 (valid) 0xdb-0xdc (1)
     |                                               |                |            [13]{}: ex 0xdc-0xe8 (12)
     |                                               |                |              nm{}: 0xdc-0xe6 (10)
0x0d0|                                    09         |            .   |                n: 9 (valid) 0xdc-0xdd (1)
0x0d0|                                       31 36 75|             16u|                b: "16u_good4" 0xdd-0xe6 (9)
0x0e0|5f 67 6f 6f 64 34                              |_good4          |
     |                                               |                |              d{}: 0xe6-0xe8 (2)
0x0e0|                  00                           |      .         |                tag: "funcidx" (0x0) 0xe6-0xe7 (1)
0x0e0|                     0d                        |       .        |                x: 13 (valid) 0xe7-0xe8 (1)
     |                                               |                |            [14]{}: ex 0xe8-0xf4 (12)
     |                                               |                |              nm{}: 0xe8-0xf2 (10)
0x0e0|                        09                     |        .       |                n: 9 (valid) 0xe8-0xe9 (1)
0x0e0|                           31 36 75 5f 67 6f 6f|         16u_goo|                b: "16u_good5" 0xe9-0xf2 (9)
0x0f0|64 35                                          |d5              |
     |                                               |                |              d{}: 0xf2-0xf4 (2)
0x0f0|      00                                       |  .             |                tag: "funcidx" (0x0) 0xf2-0xf3 (1)
0x0f0|         0e                                    |   .            |                x: 14 (valid) 0xf3-0xf4 (1)
     |                                               |                |            [15]{}: ex 0xf4-0x100 (12)
     |                                               |                |              nm{}: 0xf4-0xfe (10)
0x0f0|            09                                 |    .           |                n: 9 (valid) 0xf4-0xf5 (1)
0x0f0|               31 36 73 5f 67 6f 6f 64 31      |     16s_good1  |                b: "16s_good1" 0xf5-0xfe (9)
     |                                               |                |              d{}: 0xfe-0x100 (2)
0x0f0|                                          00   |              . |                tag: "funcidx" (0x0) 0xfe-0xff (1)
0x0f0|                                             0f|               .|                x: 15 (valid) 0xff-0x100 (1)
     |                                               |                |            [16]{}: ex 0x100-0x10c (12)
     |                                               |                |              nm{}: 0x100-0x10a (10)
0x100|09                                             |.               |                n: 9 (valid) 0x100-0x101 (1)
0x100|   31 36 73 5f 67 6f 6f 64 32                  | 16s_good2      |                b: "16s_good2" 0x101-0x10a (9)
     |                                               |                |              d{}: 0x10a-0x10c (2)
0x100|                              00               |          .     |                tag: "funcidx" (0x0) 0x10a-0x10b (1)
0x100|                                 10            |           .    |                x: 16 (valid) 0x10b-0x10c (1)
     |                                               |                |            [17]{}: ex 0x10c-0x118 (12)
     |                                               |                |              nm{}: 0x10c-0x116 (10)
0x100|                                    09         |            .   |                n: 9 (valid) 0x10c-0x10d (1)
0x100|                                       31 36 73|             16s|                b: "16s_good3" 0x10d-0x116 (9)
0x110|5f 67 6f 6f 64 33                              |_good3          |
     |                                               |                |              d{}: 0x116-0x118 (2)
0x110|                  00                           |      .         |                tag: "funcidx" (0x0) 0x116-0x117 (1)
0x110|                     11                        |       .        |                x: 17 (valid) 0x117-0x118 (1)
     |                                               |                |            [18]{}: ex 0x118-0x124 (12)
     |                                               |                |              nm{}: 0x118-0x122 (10)
0x110|                        09                     |        .       |                n: 9 (valid) 0x118-0x119 (1)
0x110|                           31 36 73 5f 67 6f 6f|         16s_goo|                b: "16s_good4" 0x119-0x122 (9)
0x120|64 34                                          |d4              |
     |                                               |                |              d{}: 0x122-0x124 (2)
0x120|      00                                       |  .             |                tag: "funcidx" (0x0) 0x122-0x123 (1)
0x120|         12                                    |   .            |                x: 18 (valid) 0x123-0x124 (1)
     |                                               |                |            [19]{}: ex 0x124-0x130 (12)
     |                                               |                |              nm{}: 0x124-0x12e (10)
0x120|            09                                 |    .           |                n: 9 (valid) 0x124-0x125 (1)
0x120|               31 36 73 5f 67 6f 6f 64 35      |     16s_good5  |                b: "16s_good5" 0x125-0x12e (9)
     |                                               |                |              d{}: 0x12e-0x130 (2)
0x120|                                          00   |              . |                tag: "funcidx" (0x0) 0x12e-0x12f (1)
0x120|                                             13|               .|                x: 19 (valid) 0x12f-0x130 (1)
     |                                               |                |            [20]{}: ex 0x130-0x13c (12)
     |                                               |                |              nm{}: 0x130-0x13a (10)
0x130|09                                             |.               |                n: 9 (valid) 0x130-0x131 (1)
0x130|   33 32 75 5f 67 6f 6f 64 31                  | 32u_good1      |                b: "32u_good1" 0x131-0x13a (9)
     |                                               |                |              d{}: 0x13a-0x13c (2)
0x130|                              00               |          .     |                tag: "funcidx" (0x0) 0x13a-0x13b (1)
0x130|                                 14            |           .    |                x: 20 (valid) 0x13b-0x13c (1)
     |                                               |                |            [21]{}: ex 0x13c-0x148 (12)
     |                                               |                |              nm{}: 0x13c-0x146 (10)
0x130|                                    09         |            .   |                n: 9 (valid) 0x13c-0x13d (1)
0x130|                                       33 32 75|             32u|                b: "32u_good2" 0x13d-0x146 (9)
0x140|5f 67 6f 6f 64 32                              |_good2          |
     |                                               |                |              d{}: 0x146-0x148 (2)
0x140|                  00                           |      .         |                tag: "funcidx" (0x0) 0x146-0x147 (1)
0x140|                     15                        |       .        |                x: 21 (valid) 0x147-0x148 (1)
     |                                               |                |            [22]{}: ex 0x148-0x154 (12)
     |                                               |                |              nm{}: 0x148-0x152 (10)
0x140|                        09                     |        .       |                n: 9 (valid) 0x148-0x149 (1)
0x140|                           33 32 75 5f 67 6f 6f|         32u_goo|                b: "32u_good3" 0x149-0x152 (9)
0x150|64 33                                          |d3              |
     |                                               |                |              d{}: 0x152-0x154 (2)
0x150|      00                                       |  .             |                tag: "funcidx" (0x0) 0x152-0x153 (1)
0x150|         16                                    |   .            |                x: 22 (valid) 0x153-0x154 (1)
     |                                               |                |            [23]{}: ex 0x154-0x160 (12)
     |                                               |                |              nm{}: 0x154-0x15e (10)
0x150|            09                                 |    .           |                n: 9 (valid) 0x154-0x155 (1)
0x150|               33 32 75 5f 67 6f 6f 64 34      |     32u_good4  |                b: "32u_good4" 0x155-0x15e (9)
     |                                               |                |              d{}: 0x15e-0x160 (2)
0x150|                                          00   |              . |                tag: "funcidx" (0x0) 0x15e-0x15f (1)
0x150|                                             17|               .|                x: 23 (valid) 0x15f-0x160 (1)
     |                                               |                |            [24]{}: ex 0x160-0x16c (12)
     |                                               |                |              nm{}: 0x160-0x16a (10)
0x160|09                                             |.               |                n: 9 (valid) 0x160-0x161 (1)
0x160|   33 32 75 5f 67 6f 6f 64 35                  | 32u_good5      |                b: "32u_good5" 0x161-0x16a (9)
     |                                               |                |              d{}: 0x16a-0x16c (2)
0x160|                              00               |          .     |                tag: "funcidx" (0x0) 0x16a-0x16b (1)
0x160|                                 18            |           .    |                x: 24 (valid) 0x16b-0x16c (1)
     |                                               |                |            [25]{}: ex 0x16c-0x178 (12)
     |                                               |                |              nm{}: 0x16c-0x176 (10)
0x160|                                    09         |            .   |                n: 9 (valid) 0x16c-0x16d (1)
0x160|                                       33 32 73|             32s|                b: "32s_good1" 0x16d-0x176 (9)
0x170|5f 67 6f 6f 64 31                              |_good1          |
     |                                               |                |              d{}: 0x176-0x178 (2)
0x170|                  00                           |      .         |                tag: "funcidx" (0x0) 0x176-0x177 (1)
0x170|                     19                        |       .        |                x: 25 (valid) 0x177-0x178 (1)
     |                                               |                |            [26]{}: ex 0x178-0x184 (12)
     |                                               |                |              nm{}: 0x178-0x182 (10)
0x170|                        09                     |        .       |                n: 9 (valid) 0x178-0x179 (1)
0x170|                           33 32 73 5f 67 6f 6f|         32s_goo|                b: "32s_good2" 0x179-0x182 (9)
0x180|64 32                                          |d2              |
     |                                               |                |              d{}: 0x182-0x184 (2)
0x180|      00                                       |  .             |                tag: "funcidx" (0x0) 0x182-0x183 (1)
0x180|         1a                                    |   .            |                x: 26 (valid) 0x183-0x184 (1)
     |                                               |                |            [27]{}: ex 0x184-0x190 (12)
     |                                               |                |              nm{}: 0x184-0x18e (10)
0x180|            09                                 |    .           |                n: 9 (valid) 0x184-0x185 (1)
0x180|               33 32 73 5f 67 6f 6f 64 33      |     32s_good3  |                b: "32s_good3" 0x185-0x18e (9)
     |                                               |                |              d{}: 0x18e-0x190 (2)
0x180|                                          00   |              . |                tag: "funcidx" (0x0) 0x18e-0x18f (1)
0x180|                                             1b|               .|                x: 27 (valid) 0x18f-0x190 (1)
     |                                               |                |            [28]{}: ex 0x190-0x19c (12)
     |                                               |                |              nm{}: 0x190-0x19a (10)
0x190|09                                             |.               |                n: 9 (valid) 0x190-0x191 (1)
0x190|   33 32 73 5f 67 6f 6f 64 34                  | 32s_good4      |                b: "32s_good4" 0x191-0x19a (9)
     |                                               |                |              d{}: 0x19a-0x19c (2)
0x190|                              00               |          .     |                tag: "funcidx" (0x0) 0x19a-0x19b (1)
0x190|                                 1c            |           .    |                x: 28 (valid) 0x19b-0x19c (1)
     |                                               |                |            [29]{}: ex 0x19c-0x1a8 (12)
     |                                               |                |              nm{}: 0x19c-0x1a6 (10)
0x190|                                    09         |            .   |                n: 9 (valid) 0x19c-0x19d (1)
0x190|                                       33 32 73|             32s|                b: "32s_good5" 0x19d-0x1a6 (9)
0x1a0|5f 67 6f 6f 64 35                              |_good5          |
     |                                               |                |              d{}: 0x1a6-0x1a8 (2)
0x1a0|                  00                           |      .         |                tag: "funcidx" (0x0) 0x1a6-0x1a7 (1)
0x1a0|                     1d                        |       .        |                x: 29 (valid) 0x1a7-0x1a8 (1)
     |                                               |                |            [30]{}: ex 0x1a8-0x1b3 (11)
     |                                               |                |              nm{}: 0x1a8-0x1b1 (9)
0x1a0|                        08                     |        .       |                n: 8 (valid) 0x1a8-0x1a9 (1)
0x1a0|                           36 34 5f 67 6f 6f 64|         64_good|                b: "64_good1" 0x1a9-0x1b1 (8)
0x1b0|31                                             |1               |
     |                                               |                |              d{}: 0x1b1-0x1b3 (2)
0x1b0|   00                                          | .              |                tag: "funcidx" (0x0) 0x1b1-0x1b2 (1)
0x1b0|      1e                                       |  .             |                x: 30 (valid) 0x1b2-0x1b3 (1)
     |                                               |                |            [31]{}: ex 0x1b3-0x1be (11)
     |                                               |                |              nm{}: 0x1b3-0x1bc (9)
0x1b0|         08                                    |   .            |                n: 8 (valid) 0x1b3-0x1b4 (1)
0x1b0|            36 34 5f 67 6f 6f 64 32            |    64_good2    |                b: "64_good2" 0x1b4-0x1bc (8)
     |                                               |                |              d{}: 0x1bc-0x1be (2)
0x1b0|                                    00         |            .   |                tag: "funcidx" (0x0) 0x1bc-0x1bd (1)
0x1b0|                                       1f      |             .  |                x: 31 (valid) 0x1bd-0x1be (1)
     |                                               |                |            [32]{}: ex 0x1be-0x1c9 (11)
     |                                               |                |              nm{}: 0x1be-0x1c7 (9)
0x1b0|                                          08   |              . |                n: 8 (valid) 0x1be-0x1bf (1)
0x1b0|                                             36|               6|                b: "64_good3" 0x1bf-0x1c7 (8)
0x1c0|34 5f 67 6f 6f 64 33                           |4_good3         |
     |                                               |                |              d{}: 0x1c7-0x1c9 (2)
0x1c0|                     00                        |       .        |                tag: "funcidx" (0x0) 0x1c7-0x1c8 (1)
0x1c0|                        20                     |                |                x: 32 (valid) 0x1c8-0x1c9 (1)
     |                                               |                |            [33]{}: ex 0x1c9-0x1d4 (11)
     |                                               |                |              nm{}: 0x1c9-0x1d2 (9)
0x1c0|                           08                  |         .      |                n: 8 (valid) 0x1c9-0x1ca (1)
0x1c0|                              36 34 5f 67 6f 6f|          64_goo|                b: "64_good4" 0x1ca-0x1d2 (8)
0x1d0|64 34                                          |d4              |
     |                                               |                |              d{}: 0x1d2-0x1d4 (2)
0x1d0|      00                                       |  .             |                tag: "funcidx" (0x0) 0x1d2-0x1d3 (1)
0x1d0|         21                                    |   !            |                x: 33 (valid) 0x1d3-0x1d4 (1)
     |                                               |                |            [34]{}: ex 0x1d4-0x1df (11)
     |                                               |                |              nm{}: 0x1d4-0x1dd (9)
0x1d0|            08                                 |    .           |                n: 8 (valid) 0x1d4-0x1d5 (1)
0x1d0|               36 34 5f 67 6f 6f 64 35         |     64_good5   |                b: "64_good5" 0x1d5-0x1dd (8)
     |                                               |                |              d{}: 0x1dd-0x1df (2)
0x1d0|                                       00      |             .  |                tag: "funcidx" (0x0) 0x1dd-0x1de (1)
0x1d0|                                          22   |              " |                x: 34 (valid) 0x1de-0x1df (1)
     |                                               |                |            [35]{}: ex 0x1df-0x1e8 (9)
     |                                               |                |              nm{}: 0x1df-0x1e6 (7)
0x1d0|                                             06|               .|                n: 6 (valid) 0x1df-0x1e0 (1)
0x1e0|38 75 5f 62 61 64                              |8u_bad          |                b: "8u_bad" 0x1e0-0x1e6 (6)
     |                                               |                |              d{}: 0x1e6-0x1e8 (2)
0x1e0|                  00                           |      .         |                tag: "funcidx" (0x0) 0x1e6-0x1e7 (1)
0x1e0|                     23                        |       #        |                x: 35 (valid) 0x1e7-0x1e8 (1)
     |                                               |                |            [36]{}: ex 0x1e8-0x1f1 (9)
     |                                               |                |              nm{}: 0x1e8-0x1ef (7)
0x1e0|                        06                     |        .       |                n: 6 (valid) 0x1e8-0x1e9 (1)
0x1e0|                           38 73 5f 62 61 64   |         8s_bad |                b: "8s_bad" 0x1e9-0x1ef (6)
     |                                               |                |              d{}: 0x1ef-0x1f1 (2)
0x1e0|                                             00|               .|                tag: "funcidx" (0x0) 0x1ef-0x1f0 (1)
0x1f0|24                                             |$               |                x: 36 (valid) 0x1f0-0x1f1 (1)
     |                                               |                |            [37]{}: ex 0x1f1-0x1fb (10)
     |                                               |                |              nm{}: 0x1f1-0x1f9 (8)
0x1f0|   07                                          | .              |                n: 7 (valid) 0x1f1-0x1f2 (1)
0x1f0|      31 36 75 5f 62 61 64                     |  16u_bad       |                b: "16u_bad" 0x1f2-0x1f9 (7)
     |                                               |                |              d{}: 0x1f9-0x1fb (2)
0x1f0|                           00                  |         .      |                tag: "funcidx" (0x0) 0x1f9-0x1fa (1)
0x1f0|                              25               |          %     |                x: 37 (valid) 0x1fa-0x1fb (1)
     |                                               |                |            [38]{}: ex 0x1fb-0x205 (10)
     |                                               |                |              nm{}: 0x1fb-0x203 (8)
0x1f0|                                 07            |           .    |                n: 7 (valid) 0x1fb-0x1fc (1)
0x1f0|                                    31 36 73 5f|            16s_|                b: "16s_bad" 0x1fc-0x203 (7)
0x200|62 61 64                                       |bad             |
     |                                               |                |              d{}: 0x203-0x205 (2)
0x200|         00                                    |   .            |                tag: "funcidx" (0x0) 0x203-0x204 (1)
0x200|            26                                 |    &           |                x: 38 (valid) 0x204-0x205 (1)
     |                                               |                |            [39]{}: ex 0x205-0x20f (10)
     |                                               |                |              nm{}: 0x205-0x20d (8)
0x200|               07                              |     .          |                n: 7 (valid) 0x205-0x206 (1)
0x200|                  33 32 75 5f 62 61 64         |      32u_bad   |                b: "32u_bad" 0x206-0x20d (7)
     |                                               |                |              d{}: 0x20d-0x20f (2)
0x200|                                       00      |             .  |                tag: "funcidx" (0x0) 0x20d-0x20e (1)
0x200|                                          27   |              ' |                x: 39 (valid) 0x20e-0x20f (1)
     |                                               |                |            [40]{}: ex 0x20f-0x219 (10)
     |                                               |                |              nm{}: 0x20f-0x217 (8)
0x200|                                             07|               .|                n: 7 (valid) 0x20f-0x210 (1)
0x210|33 32 73 5f 62 61 64                           |32s_bad         |                b: "32s_bad" 0x210-0x217 (7)
     |                                               |                |              d{}: 0x217-0x219 (2)
0x210|                     00                        |       .        |                tag: "funcidx" (0x0) 0x217-0x218 (1)
0x210|                        28                     |        (       |                x: 40 (valid) 0x218-0x219 (1)
     |                                               |                |            [41]{}: ex 0x219-0x222 (9)
     |                                               |                |              nm{}: 0x219-0x220 (7)
0x210|                           06                  |         .      |                n: 6 (valid) 0x219-0x21a (1)
0x210|                              36 34 5f 62 61 64|          64_bad|                b: "64_bad" 0x21a-0x220 (6)
     |                                               |                |              d{}: 0x220-0x222 (2)
0x220|00                                             |.               |                tag: "funcidx" (0x0) 0x220-0x221 (1)
0x220|   29                                          | )              |                x: 41 (valid) 0x221-0x222 (1)
     |                                               |                |    [4]{}: section 0x222-0x399 (375)
0x220|      0a                                       |  .             |      id: "code_section" (10) 0x222-0x223 (1)
0x220|         f4 02                                 |   ..           |      size: 372 (valid) 0x223-0x225 (2)
     |                                               |                |      content{}: 0x225-0x399 (372)
     |                                               |                |        code{}: 0x225-0x399 (372)
0x220|               2a                              |     *          |          n: 42 (valid) 0x225-0x226 (1)
     |                                               |                |          x[0:42]: 0x226-0x399 (371)
     |                                               |                |            [0]{}: code 0x226-0x22e (8)
0x220|                  07                           |      .         |              size: 7 (valid) 0x226-0x227 (1)
     |                                               |                |              code{}: 0x227-0x22e (7)
     |                                               |                |                t{}: 0x227-0x228 (1)
0x220|                     00                        |       .        |                  n: 0 (valid) 0x227-0x228 (1)
     |                                               |                |                  x[0:0]: 0x228-0x228 (0)
     |                                               |                |                e[0:3]: 0x228-0x22e (6)
     |                                               |                |                  [0]{}: in 0x228-0x22a (2)
0x220|                        20                     |                |                    opcode: "local.get" (0x20) 0x228-0x229 (1)
0x220|                           00                  |         .      |                    x: 0 (valid) 0x229-0x22a (1)
     |                                               |                |                  [1]{}: in 0x22a-0x22d (3)
0x220|                              31               |          1     |                    opcode: "i64.load8_u" (0x31) 0x22a-0x22b (1)
     |                                               |                |                    m{}: 0x22b-0x22d (2)
0x220|                                 00            |           .    |                      a: 0 (valid) 0x22b-0x22c (1)
0x220|                                    00         |            .   |                      o: 0 (valid) 0x22c-0x22d (1)
     |                                               |                |                  [2]{}: in 0x22d-0x22e (1)
0x220|                                       0b      |             .  |                    opcode: "end" (0xb) 0x22d-0x22e (1)
     |                                               |                |            [1]{}: code 0x22e-0x236 (8)
0x220|                                          07   |              . |              size: 7 (valid) 0x22e-0x22f (1)
     |                                               |                |              code{}: 0x22f-0x236 (7)
     |                                               |                |                t{}: 0x22f-0x230 (1)
0x220|                                             00|               .|                  n: 0 (valid) 0x22f-0x230 (1)
     |                                               |                |                  x[0:0]: 0x230-0x230 (0)
     |                                               |                |                e[0:3]: 0x230-0x236 (6)
     |                                               |                |                  [0]{}: in 0x230-0x232 (2)
0x230|20                                             |                |                    opcode: "local.get" (0x20) 0x230-0x231 (1)
0x230|   00                                          | .              |                    x: 0 (valid) 0x231-0x232 (1)
     |                                               |                |                  [1]{}: in 0x232-0x235 (3)
0x230|      31                                       |  1             |                    opcode: "i64.load8_u" (0x31) 0x232-0x233 (1)
     |                                               |                |                    m{}: 0x233-0x235 (2)
0x230|         00                                    |   .            |                      a: 0 (valid) 0x233-0x234 (1)
0x230|            00                                 |    .           |                      o: 0 (valid) 0x234-0x235 (1)
     |                                               |                |                  [2]{}: in 0x235-0x236 (1)
0x230|               0b                              |     .          |                    opcode: "end" (0xb) 0x235-0x236 (1)
     |                                               |                |            [2]{}: code 0x236-0x23e (8)
0x230|                  07                           |      .         |              size: 7 (valid) 0x236-0x237 (1)
     |                                               |                |              code{}: 0x237-0x23e (7)
     |                                               |                |                t{}: 0x237-0x238 (1)
0x230|                     00                        |       .        |                  n: 0 (valid) 0x237-0x238 (1)
     |                                               |                |                  x[0:0]: 0x238-0x238 (0)
     |                                               |                |                e[0:3]: 0x238-0x23e (6)
     |                                               |                |                  [0]{}: in 0x238-0x23a (2)
0x230|                        20                     |                |                    opcode: "local.get" (0x20) 0x238-0x239 (1)
0x230|                           00                  |         .      |                    x: 0 (valid) 0x239-0x23a (1)
     |                                               |                |                  [1]{}: in 0x23a-0x23d (3)
0x230|                              31               |          1     |                    opcode: "i64.load8_u" (0x31) 0x23a-0x23b (1)
     |                                               |                |                    m{}: 0x23b-0x23d (2)
0x230|                                 00            |           .    |                      a: 0 (valid) 0x23b-0x23c (1)
0x230|                                    01         |            .   |                      o: 1 (valid) 0x23c-0x23d (1)
     |                                               |                |                  [2]{}: in 0x23d-0x23e (1)
0x230|                                       0b      |             .  |                    opcode: "end" (0xb) 0x23d-0x23e (1)
     |                                               |                |            [3]{}: code 0x23e-0x246 (8)
0x230|                                          07   |              . |              size: 7 (valid) 0x23e-0x23f (1)
     |                                               |                |              code{}: 0x23f-0x246 (7)
     |                                               |                |                t{}: 0x23f-0x240 (1)
0x230|                                             00|               .|                  n: 0 (valid) 0x23f-0x240 (1)
     |                                               |                |                  x[0:0]: 0x240-0x240 (0)
     |                                               |                |                e[0:3]: 0x240-0x246 (6)
     |                                               |                |                  [0]{}: in 0x240-0x242 (2)
0x240|20                                             |                |                    opcode: "local.get" (0x20) 0x240-0x241 (1)
0x240|   00                                          | .              |                    x: 0 (valid) 0x241-0x242 (1)
     |                                               |                |                  [1]{}: in 0x242-0x245 (3)
0x240|      31                                       |  1             |                    opcode: "i64.load8_u" (0x31) 0x242-0x243 (1)
     |                                               |                |                    m{}: 0x243-0x245 (2)
0x240|         00                                    |   .            |                      a: 0 (valid) 0x243-0x244 (1)
0x240|            02                                 |    .           |                      o: 2 (valid) 0x244-0x245 (1)
     |                                               |                |                  [2]{}: in 0x245-0x246 (1)
0x240|               0b                              |     .          |                    opcode: "end" (0xb) 0x245-0x246 (1)
     |                                               |                |            [4]{}: code 0x246-0x24e (8)
0x240|                  07                           |      .         |              size: 7 (valid) 0x246-0x247 (1)
     |                                               |                |              code{}: 0x247-0x24e (7)
     |                                               |                |                t{}: 0x247-0x248 (1)
0x240|                     00                        |       .        |                  n: 0 (valid) 0x247-0x248 (1)
     |                                               |                |                  x[0:0]: 0x248-0x248 (0)
     |                                               |                |                e[0:3]: 0x248-0x24e (6)
     |                                               |                |                  [0]{}: in 0x248-0x24a (2)
0x240|                        20                     |                |                    opcode: "local.get" (0x20) 0x248-0x249 (1)
0x240|                           00                  |         .      |                    x: 0 (valid) 0x249-0x24a (1)
     |                                               |                |                  [1]{}: in 0x24a-0x24d (3)
0x240|                              31               |          1     |                    opcode: "i64.load8_u" (0x31) 0x24a-0x24b (1)
     |                                               |                |                    m{}: 0x24b-0x24d (2)
0x240|                                 00            |           .    |                      a: 0 (valid) 0x24b-0x24c (1)
0x240|                                    19         |            .   |                      o: 25 (valid) 0x24c-0x24d (1)
     |                                               |                |                  [2]{}: in 0x24d-0x24e (1)
0x240|                                       0b      |             .  |                    opcode: "end" (0xb) 0x24d-0x24e (1)
     |                                               |                |            [5]{}: code 0x24e-0x256 (8)
0x240|                                          07   |              . |              size: 7 (valid) 0x24e-0x24f (1)
     |                                               |                |              code{}: 0x24f-0x256 (7)
     |                                               |                |                t{}: 0x24f-0x250 (1)
0x240|                                             00|               .|                  n: 0 (valid) 0x24f-0x250 (1)
     |                                               |                |                  x[0:0]: 0x250-0x250 (0)
     |                                               |                |                e[0:3]: 0x250-0x256 (6)
     |                                               |                |                  [0]{}: in 0x250-0x252 (2)
0x250|20                                             |                |                    opcode: "local.get" (0x20) 0x250-0x251 (1)
0x250|   00                                          | .              |                    x: 0 (valid) 0x251-0x252 (1)
     |                                               |                |                  [1]{}: in 0x252-0x255 (3)
0x250|      30                                       |  0             |                    opcode: "i64.load8_s" (0x30) 0x252-0x253 (1)
     |                                               |                |                    m{}: 0x253-0x255 (2)
0x250|         00                                    |   .            |                      a: 0 (valid) 0x253-0x254 (1)
0x250|            00                                 |    .           |                      o: 0 (valid) 0x254-0x255 (1)
     |                                               |                |                  [2]{}: in 0x255-0x256 (1)
0x250|               0b                              |     .          |                    opcode: "end" (0xb) 0x255-0x256 (1)
     |                                               |                |            [6]{}: code 0x256-0x25e (8)
0x250|                  07                           |      .         |              size: 7 (valid) 0x256-0x257 (1)
     |                                               |                |              code{}: 0x257-0x25e (7)
     |                                               |                |                t{}: 0x257-0x258 (1)
0x250|                     00                        |       .        |                  n: 0 (valid) 0x257-0x258 (1)
     |                                               |                |                  x[0:0]: 0x258-0x258 (0)
     |                                               |                |                e[0:3]: 0x258-0x25e (6)
     |                                               |                |                  [0]{}: in 0x258-0x25a (2)
0x250|                        20                     |                |                    opcode: "local.get" (0x20) 0x258-0x259 (1)
0x250|                           00                  |         .      |                    x: 0 (valid) 0x259-0x25a (1)
     |                                               |                |                  [1]{}: in 0x25a-0x25d (3)
0x250|                              30               |          0     |                    opcode: "i64.load8_s" (0x30) 0x25a-0x25b (1)
     |                                               |                |                    m{}: 0x25b-0x25d (2)
0x250|                                 00            |           .    |                      a: 0 (valid) 0x25b-0x25c (1)
0x250|                                    00         |            .   |                      o: 0 (valid) 0x25c-0x25d (1)
     |                                               |                |                  [2]{}: in 0x25d-0x25e (1)
0x250|                                       0b      |             .  |                    opcode: "end" (0xb) 0x25d-0x25e (1)
     |                                               |                |            [7]{}: code 0x25e-0x266 (8)
0x250|                                          07   |              . |              size: 7 (valid) 0x25e-0x25f (1)
     |                                               |                |              code{}: 0x25f-0x266 (7)
     |                                               |                |                t{}: 0x25f-0x260 (1)
0x250|                                             00|               .|                  n: 0 (valid) 0x25f-0x260 (1)
     |                                               |                |                  x[0:0]: 0x260-0x260 (0)
     |                                               |                |                e[0:3]: 0x260-0x266 (6)
     |                                               |                |                  [0]{}: in 0x260-0x262 (2)
0x260|20                                             |                |                    opcode: "local.get" (0x20) 0x260-0x261 (1)
0x260|   00                                          | .              |                    x: 0 (valid) 0x261-0x262 (1)
     |                                               |                |                  [1]{}: in 0x262-0x265 (3)
0x260|      30                                       |  0             |                    opcode: "i64.load8_s" (0x30) 0x262-0x263 (1)
     |                                               |                |                    m{}: 0x263-0x265 (2)
0x260|         00                                    |   .            |                      a: 0 (valid) 0x263-0x264 (1)
0x260|            01                                 |    .           |                      o: 1 (valid) 0x264-0x265 (1)
     |                                               |                |                  [2]{}: in 0x265-0x266 (1)
0x260|               0b                              |     .          |                    opcode: "end" (0xb) 0x265-0x266 (1)
     |                                               |                |            [8]{}: code 0x266-0x26e (8)
0x260|                  07                           |      .         |              size: 7 (valid) 0x266-0x267 (1)
     |                                               |                |              code{}: 0x267-0x26e (7)
     |                                               |                |                t{}: 0x267-0x268 (1)
0x260|                     00                        |       .        |                  n: 0 (valid) 0x267-0x268 (1)
     |                                               |                |                  x[0:0]: 0x268-0x268 (0)
     |                                               |                |                e[0:3]: 0x268-0x26e (6)
     |                                               |                |                  [0]{}: in 0x268-0x26a (2)
0x260|                        20                     |                |                    opcode: "local.get" (0x20) 0x268-0x269 (1)
0x260|                           00                  |         .      |                    x: 0 (valid) 0x269-0x26a (1)
     |                                               |                |                  [1]{}: in 0x26a-0x26d (3)
0x260|                              30               |          0     |                    opcode: "i64.load8_s" (0x30) 0x26a-0x26b (1)
     |                                               |                |                    m{}: 0x26b-0x26d (2)
0x260|                                 00            |           .    |                      a: 0 (valid) 0x26b-0x26c (1)
0x260|                                    02         |            .   |                      o: 2 (valid) 0x26c-0x26d (1)
     |                                               |                |                  [2]{}: in 0x26d-0x26e (1)
0x260|                                       0b      |             .  |                    opcode: "end" (0xb) 0x26d-0x26e (1)
     |                                               |                |            [9]{}: code 0x26e-0x276 (8)
0x260|                                          07   |              . |              size: 7 (valid) 0x26e-0x26f (1)
     |                                               |                |              code{}: 0x26f-0x276 (7)
     |                                               |                |                t{}: 0x26f-0x270 (1)
0x260|                                             00|               .|                  n: 0 (valid) 0x26f-0x270 (1)
     |                                               |                |                  x[0:0]: 0x270-0x270 (0)
     |                                               |                |                e[0:3]: 0x270-0x276 (6)
     |                                               |                |                  [0]{}: in 0x270-0x272 (2)
0x270|20                                             |                |                    opcode: "local.get" (0x20) 0x270-0x271 (1)
0x270|   00                                          | .              |                    x: 0 (valid) 0x271-0x272 (1)
     |                                               |                |                  [1]{}: in 0x272-0x275 (3)
0x270|      30                                       |  0             |                    opcode: "i64.load8_s" (0x30) 0x272-0x273 (1)
     |                                               |                |                    m{}: 0x273-0x275 (2)
0x270|         00                                    |   .            |                      a: 0 (valid) 0x273-0x274 (1)
0x270|            19                                 |    .           |                      o: 25 (valid) 0x274-0x275 (1)
     |                                               |                |                  [2]{}: in 0x275-0x276 (1)
0x270|               0b                              |     .          |                    opcode: "end" (0xb) 0x275-0x276 (1)
     |                                               |                |            [10]{}: code 0x276-0x27e (8)
0x270|                  07                           |      .         |              size: 7 (valid) 0x276-0x277 (1)
     |                                               |                |              code{}: 0x277-0x27e (7)
     |                                               |                |                t{}: 0x277-0x278 (1)
0x270|                     00                        |       .        |                  n: 0 (valid) 0x277-0x278 (1)
     |                                               |                |                  x[0:0]: 0x278-0x278 (0)
     |                                               |                |                e[0:3]: 0x278-0x27e (6)
     |                                               |                |                  [0]{}: in 0x278-0x27a (2)
0x270|                        20                     |                |                    opcode: "local.get" (0x20) 0x278-0x279 (1)
0x270|                           00                  |         .      |                    x: 0 (valid) 0x279-0x27a (1)
     |                                               |                |                  [1]{}: in 0x27a-0x27d (3)
0x270|                              33               |          3     |                    opcode: "i64.load16_u" (0x33) 0x27a-0x27b (1)
     |                                               |                |                    m{}: 0x27b-0x27d (2)
0x270|                                 01            |           .    |                      a: 1 (valid) 0x27b-0x27c (1)
0x270|                                    00         |            .   |                      o: 0 (valid) 0x27c-0x27d (1)
     |                                               |                |                  [2]{}: in 0x27d-0x27e (1)
0x270|                                       0b      |             .  |                    opcode: "end" (0xb) 0x27d-0x27e (1)
     |                                               |                |            [11]{}: code 0x27e-0x286 (8)
0x270|                                          07   |              . |              size: 7 (valid) 0x27e-0x27f (1)
     |                                               |                |              code{}: 0x27f-0x286 (7)
     |                                               |                |                t{}: 0x27f-0x280 (1)
0x270|                                             00|               .|                  n: 0 (valid) 0x27f-0x280 (1)
     |                                               |                |                  x[0:0]: 0x280-0x280 (0)
     |                                               |                |                e[0:3]: 0x280-0x286 (6)
     |                                               |                |                  [0]{}: in 0x280-0x282 (2)
0x280|20                                             |                |                    opcode: "local.get" (0x20) 0x280-0x281 (1)
0x280|   00                                          | .              |                    x: 0 (valid) 0x281-0x282 (1)
     |                                               |                |                  [1]{}: in 0x282-0x285 (3)
0x280|      33                                       |  3             |                    opcode: "i64.load16_u" (0x33) 0x282-0x283 (1)
     |                                               |                |                    m{}: 0x283-0x285 (2)
0x280|         00                                    |   .            |                      a: 0 (valid) 0x283-0x284 (1)
0x280|            00                                 |    .           |                      o: 0 (valid) 0x284-0x285 (1)
     |                                               |                |                  [2]{}: in 0x285-0x286 (1)
0x280|               0b                              |     .          |                    opcode: "end" (0xb) 0x285-0x286 (1)
     |                                               |                |            [12]{}: code 0x286-0x28e (8)
0x280|                  07                           |      .         |              size: 7 (valid) 0x286-0x287 (1)
     |                                               |                |              code{}: 0x287-0x28e (7)
     |                                               |                |                t{}: 0x287-0x288 (1)
0x280|                     00                        |       .        |                  n: 0 (valid) 0x287-0x288 (1)
     |                                               |                |                  x[0:0]: 0x288-0x288 (0)
     |                                               |                |                e[0:3]: 0x288-0x28e (6)
     |                                               |                |                  [0]{}: in 0x288-0x28a (2)
0x280|                        20                     |                |                    opcode: "local.get" (0x20) 0x288-0x289 (1)
0x280|                           00                  |         .      |                    x: 0 (valid) 0x289-0x28a (1)
     |                                               |                |                  [1]{}: in 0x28a-0x28d (3)
0x280|                              33               |          3     |                    opcode: "i64.load16_u" (0x33) 0x28a-0x28b (1)
     |                                               |                |                    m{}: 0x28b-0x28d (2)
0x280|                                 00            |           .    |                      a: 0 (valid) 0x28b-0x28c (1)
0x280|                                    01         |            .   |                      o: 1 (valid) 0x28c-0x28d (1)
     |                                               |                |                  [2]{}: in 0x28d-0x28e (1)
0x280|                                       0b      |             .  |                    opcode: "end" (0xb) 0x28d-0x28e (1)
     |                                               |                |            [13]{}: code 0x28e-0x296 (8)
0x280|                                          07   |              . |              size: 7 (valid) 0x28e-0x28f (1)
     |                                               |                |              code{}: 0x28f-0x296 (7)
     |                                               |                |                t{}: 0x28f-0x290 (1)
0x280|                                             00|               .|                  n: 0 (valid) 0x28f-0x290 (1)
     |                                               |                |                  x[0:0]: 0x290-0x290 (0)
     |                                               |                |                e[0:3]: 0x290-0x296 (6)
     |                                               |                |                  [0]{}: in 0x290-0x292 (2)
0x290|20                                             |                |                    opcode: "local.get" (0x20) 0x290-0x291 (1)
0x290|   00                                          | .              |                    x: 0 (valid) 0x291-0x292 (1)
     |                                               |                |                  [1]{}: in 0x292-0x295 (3)
0x290|      33                                       |  3             |                    opcode: "i64.load16_u" (0x33) 0x292-0x293 (1)
     |                                               |                |                    m{}: 0x293-0x295 (2)
0x290|         01                                    |   .            |                      a: 1 (valid) 0x293-0x294 (1)
0x290|            02                                 |    .           |                      o: 2 (valid) 0x294-0x295 (1)
     |                                               |                |                  [2]{}: in 0x295-0x296 (1)
0x290|               0b                              |     .          |                    opcode: "end" (0xb) 0x295-0x296 (1)
     |                                               |                |            [14]{}: code 0x296-0x29e (8)
0x290|                  07                           |      .         |              size: 7 (valid) 0x296-0x297 (1)
     |                                               |                |              code{}: 0x297-0x29e (7)
     |                                               |                |                t{}: 0x297-0x298 (1)
0x290|                     00                        |       .        |                  n: 0 (valid) 0x297-0x298 (1)
     |                                               |                |                  x[0:0]: 0x298-0x298 (0)
     |                                               |                |                e[0:3]: 0x298-0x29e (6)
     |                                               |                |                  [0]{}: in 0x298-0x29a (2)
0x290|                        20                     |                |                    opcode: "local.get" (0x20) 0x298-0x299 (1)
0x290|                           00                  |         .      |                    x: 0 (valid) 0x299-0x29a (1)
     |                                               |                |                  [1]{}: in 0x29a-0x29d (3)
0x290|                              33               |          3     |                    opcode: "i64.load16_u" (0x33) 0x29a-0x29b (1)
     |                                               |                |                    m{}: 0x29b-0x29d (2)
0x290|                                 01            |           .    |                      a: 1 (valid) 0x29b-0x29c (1)
0x290|                                    19         |            .   |                      o: 25 (valid) 0x29c-0x29d (1)
     |                                               |                |                  [2]{}: in 0x29d-0x29e (1)
0x290|                                       0b      |             .  |                    opcode: "end" (0xb) 0x29d-0x29e (1)
     |                                               |                |            [15]{}: code 0x29e-0x2a6 (8)
0x290|                                          07   |              . |              size: 7 (valid) 0x29e-0x29f (1)
     |                                               |                |              code{}: 0x29f-0x2a6 (7)
     |                                               |                |                t{}: 0x29f-0x2a0 (1)
0x290|                                             00|               .|                  n: 0 (valid) 0x29f-0x2a0 (1)
     |                                               |                |                  x[0:0]: 0x2a0-0x2a0 (0)
     |                                               |                |                e[0:3]: 0x2a0-0x2a6 (6)
     |                                               |                |                  [0]{}: in 0x2a0-0x2a2 (2)
0x2a0|20                                             |                |                    opcode: "local.get" (0x20) 0x2a0-0x2a1 (1)
0x2a0|   00                                          | .              |                    x: 0 (valid) 0x2a1-0x2a2 (1)
     |                                               |                |                  [1]{}: in 0x2a2-0x2a5 (3)
0x2a0|      32                                       |  2             |                    opcode: "i64.load16_s" (0x32) 0x2a2-0x2a3 (1)
     |                                               |                |                    m{}: 0x2a3-0x2a5 (2)
0x2a0|         01                                    |   .            |                      a: 1 (valid) 0x2a3-0x2a4 (1)
0x2a0|            00                                 |    .           |                      o: 0 (valid) 0x2a4-0x2a5 (1)
     |                                               |                |                  [2]{}: in 0x2a5-0x2a6 (1)
0x2a0|               0b                              |     .          |                    opcode: "end" (0xb) 0x2a5-0x2a6 (1)
     |                                               |                |            [16]{}: code 0x2a6-0x2ae (8)
0x2a0|                  07                           |      .         |              size: 7 (valid) 0x2a6-0x2a7 (1)
     |                                               |                |              code{}: 0x2a7-0x2ae (7)
     |                                               |                |                t{}: 0x2a7-0x2a8 (1)
0x2a0|                     00                        |       .        |                  n: 0 (valid) 0x2a7-0x2a8 (1)
     |                                               |                |                  x[0:0]: 0x2a8-0x2a8 (0)
     |                                               |                |                e[0:3]: 0x2a8-0x2ae (6)
     |                                               |                |                  [0]{}: in 0x2a8-0x2aa (2)
0x2a0|                        20                     |                |                    opcode: "local.get" (0x20) 0x2a8-0x2a9 (1)
0x2a0|                           00                  |         .      |                    x: 0 (valid) 0x2a9-0x2aa (1)
     |                                               |                |                  [1]{}: in 0x2aa-0x2ad (3)
0x2a0|                              32               |          2     |                    opcode: "i64.load16_s" (0x32) 0x2aa-0x2ab (1)
     |                                               |                |                    m{}: 0x2ab-0x2ad (2)
0x2a0|                                 00            |           .    |                      a: 0 (valid) 0x2ab-0x2ac (1)
0x2a0|                                    00         |            .   |                      o: 0 (valid) 0x2ac-0x2ad (1)
     |                                               |                |                  [2]{}: in 0x2ad-0x2ae (1)
0x2a0|                                       0b      |             .  |                    opcode: "end" (0xb) 0x2ad-0x2ae (1)
     |                                               |                |            [17]{}: code 0x2ae-0x2b6 (8)
0x2a0|                                          07   |              . |              size: 7 (valid) 0x2ae-0x2af (1)
     |                                               |                |              code{}: 0x2af-0x2b6 (7)
     |                                               |                |                t{}: 0x2af-0x2b0 (1)
0x2a0|                                             00|               .|                  n: 0 (valid) 0x2af-0x2b0 (1)
     |                                               |                |                  x[0:0]: 0x2b0-0x2b0 (0)
     |                                               |                |                e[0:3]: 0x2b0-0x2b6 (6)
     |                                               |                |                  [0]{}: in 0x2b0-0x2b2 (2)
0x2b0|20                                             |                |                    opcode: "local.get" (0x20) 0x2b0-0x2b1 (1)
0x2b0|   00                                          | .              |                    x: 0 (valid) 0x2b1-0x2b2 (1)
     |                                               |                |                  [1]{}: in 0x2b2-0x2b5 (3)
0x2b0|      32                                       |  2             |                    opcode: "i64.load16_s" (0x32) 0x2b2-0x2b3 (1)
     |                                               |                |                    m{}: 0x2b3-0x2b5 (2)
0x2b0|         00                                    |   .            |                      a: 0 (valid) 0x2b3-0x2b4 (1)
0x2b0|            01                                 |    .           |                      o: 1 (valid) 0x2b4-0x2b5 (1)
     |                                               |                |                  [2]{}: in 0x2b5-0x2b6 (1)
0x2b0|               0b                              |     .          |                    opcode: "end" (0xb) 0x2b5-0x2b6 (1)
     |                                               |                |            [18]{}: code 0x2b6-0x2be (8)
0x2b0|                  07                           |      .         |              size: 7 (valid) 0x2b6-0x2b7 (1)
     |                                               |                |              code{}: 0x2b7-0x2be (7)
     |                                               |                |                t{}: 0x2b7-0x2b8 (1)
0x2b0|                     00                        |       .        |                  n: 0 (valid) 0x2b7-0x2b8 (1)
     |                                               |                |                  x[0:0]: 0x2b8-0x2b8 (0)
     |                                               |                |                e[0:3]: 0x2b8-0x2be (6)
     |                                               |                |                  [0]{}: in 0x2b8-0x2ba (2)
0x2b0|                        20                     |                |                    opcode: "local.get" (0x20) 0x2b8-0x2b9 (1)
0x2b0|                           00                  |         .      |                    x: 0 (valid) 0x2b9-0x2ba (1)
     |                                               |                |                  [1]{}: in 0x2ba-0x2bd (3)
0x2b0|                              32               |          2     |                    opcode: "i64.load16_s" (0x32) 0x2ba-0x2bb (1)
     |                                               |                |                    m{}: 0x2bb-0x2bd (2)
0x2b0|                                 01            |           .    |                      a: 1 (valid) 0x2bb-0x2bc (1)
0x2b0|                                    02         |            .   |                      o: 2 (valid) 0x2bc-0x2bd (1)
     |                                               |                |                  [2]{}: in 0x2bd-0x2be (1)
0x2b0|                                       0b      |             .  |                    opcode: "end" (0xb) 0x2bd-0x2be (1)
     |                                               |                |            [19]{}: code 0x2be-0x2c6 (8)
0x2b0|                                          07   |              . |              size: 7 (valid) 0x2be-0x2bf (1)
     |                                               |                |              code{}: 0x2bf-0x2c6 (7)
     |                                               |                |                t{}: 0x2bf-0x2c0 (1)
0x2b0|                                             00|               .|                  n: 0 (valid) 0x2bf-0x2c0 (1)
     |                                               |                |                  x[0:0]: 0x2c0-0x2c0 (0)
     |                                               |                |                e[0:3]: 0x2c0-0x2c6 (6)
     |                                               |                |                  [0]{}: in 0x2c0-0x2c2 (2)
0x2c0|20                                             |                |                    opcode: "local.get" (0x20) 0x2c0-0x2c1 (1)
0x2c0|   00                                          | .              |                    x: 0 (valid) 0x2c1-0x2c2 (1)
     |                                               |                |                  [1]{}: in 0x2c2-0x2c5 (3)
0x2c0|      32                                       |  2             |                    opcode: "i64.load16_s" (0x32) 0x2c2-0x2c3 (1)
     |                                               |                |                    m{}: 0x2c3-0x2c5 (2)
0x2c0|         01                                    |   .            |                      a: 1 (valid) 0x2c3-0x2c4 (1)
0x2c0|            19                                 |    .           |                      o: 25 (valid) 0x2c4-0x2c5 (1)
     |                                               |                |                  [2]{}: in 0x2c5-0x2c6 (1)
0x2c0|               0b                              |     .          |                    opcode: "end" (0xb) 0x2c5-0x2c6 (1)
     |                                               |                |            [20]{}: code 0x2c6-0x2ce (8)
0x2c0|                  07                           |      .         |              size: 7 (valid) 0x2c6-0x2c7 (1)
     |                                               |                |              code{}: 0x2c7-0x2ce (7)
     |                                               |                |                t{}: 0x2c7-0x2c8 (1)
0x2c0|                     00                        |       .        |                  n: 0 (valid) 0x2c7-0x2c8 (1)
     |                                               |                |                  x[0:0]: 0x2c8-0x2c8 (0)
     |                                               |                |                e[0:3]: 0x2c8-0x2ce (6)
     |                                               |                |                  [0]{}: in 0x2c8-0x2ca (2)
0x2c0|                        20                     |                |                    opcode: "local.get" (0x20) 0x2c8-0x2c9 (1)
0x2c0|                           00                  |         .      |                    x: 0 (valid) 0x2c9-0x2ca (1)
     |                                               |                |                  [1]{}: in 0x2ca-0x2cd (3)
0x2c0|                              35               |          5     |                    opcode: "i64.load32_u" (0x35) 0x2ca-0x2cb (1)
     |                                               |                |                    m{}: 0x2cb-0x2cd (2)
0x2c0|                                 02            |           .    |                      a: 2 (valid) 0x2cb-0x2cc (1)
0x2c0|                                    00         |            .   |                      o: 0 (valid) 0x2cc-0x2cd (1)
     |                                               |                |                  [2]{}: in 0x2cd-0x2ce (1)
0x2c0|                                       0b      |             .  |                    opcode: "end" (0xb) 0x2cd-0x2ce (1)
     |                                               |                |            [21]{}: code 0x2ce-0x2d6 (8)
0x2c0|                                          07   |              . |              size: 7 (valid) 0x2ce-0x2cf (1)
     |                                               |                |              code{}: 0x2cf-0x2d6 (7)
     |                                               |                |                t{}: 0x2cf-0x2d0 (1)
0x2c0|                                             00|               .|                  n: 0 (valid) 0x2cf-0x2d0 (1)
     |                                               |                |                  x[0:0]: 0x2d0-0x2d0 (0)
     |                                               |                |                e[0:3]: 0x2d0-0x2d6 (6)
     |                                               |                |                  [0]{}: in 0x2d0-0x2d2 (2)
0x2d0|20                                             |                |                    opcode: "local.get" (0x20) 0x2d0-0x2d1 (1)
0x2d0|   00                                          | .              |                    x: 0 (valid) 0x2d1-0x2d2 (1)
     |                                               |                |                  [1]{}: in 0x2d2-0x2d5 (3)
0x2d0|      35                                       |  5             |                    opcode: "i64.load32_u" (0x35) 0x2d2-0x2d3 (1)
     |                                               |                |                    m{}: 0x2d3-0x2d5 (2)
0x2d0|         00                                    |   .            |                      a: 0 (valid) 0x2d3-0x2d4 (1)
0x2d0|            00                                 |    .           |                      o: 0 (valid) 0x2d4-0x2d5 (1)
     |                                               |                |                  [2]{}: in 0x2d5-0x2d6 (1)
0x2d0|               0b                              |     .          |                    opcode: "end" (0xb) 0x2d5-0x2d6 (1)
     |                                               |                |            [22]{}: code 0x2d6-0x2de (8)
0x2d0|                  07                           |      .         |              size: 7 (valid) 0x2d6-0x2d7 (1)
     |                                               |                |              code{}: 0x2d7-0x2de (7)
     |                                               |                |                t{}: 0x2d7-0x2d8 (1)
0x2d0|                     00                        |       .        |                  n: 0 (valid) 0x2d7-0x2d8 (1)
     |                                               |                |                  x[0:0]: 0x2d8-0x2d8 (0)
     |                                               |                |                e[0:3]: 0x2d8-0x2de (6)
     |                                               |                |                  [0]{}: in 0x2d8-0x2da (2)
0x2d0|                        20                     |                |                    opcode: "local.get" (0x20) 0x2d8-0x2d9 (1)
0x2d0|                           00                  |         .      |                    x: 0 (valid) 0x2d9-0x2da (1)
     |                                               |                |                  [1]{}: in 0x2da-0x2dd (3)
0x2d0|                              35               |          5     |                    opcode: "i64.load32_u" (0x35) 0x2da-0x2db (1)
     |                                               |                |                    m{}: 0x2db-0x2dd (2)
0x2d0|                                 00            |           .    |                      a: 0 (valid) 0x2db-0x2dc (1)
0x2d0|                                    01         |            .   |                      o: 1 (valid) 0x2dc-0x2dd (1)
     |                                               |                |                  [2]{}: in 0x2dd-0x2de (1)
0x2d0|                                       0b      |             .  |                    opcode: "end" (0xb) 0x2dd-0x2de (1)
     |                                               |                |            [23]{}: code 0x2de-0x2e6 (8)
0x2d0|                                          07   |              . |              size: 7 (valid) 0x2de-0x2df (1)
     |                                               |                |              code{}: 0x2df-0x2e6 (7)
     |                                               |                |                t{}: 0x2df-0x2e0 (1)
0x2d0|                                             00|               .|                  n: 0 (valid) 0x2df-0x2e0 (1)
     |                                               |                |                  x[0:0]: 0x2e0-0x2e0 (0)
     |                                               |                |                e[0:3]: 0x2e0-0x2e6 (6)
     |                                               |                |                  [0]{}: in 0x2e0-0x2e2 (2)
0x2e0|20                                             |                |                    opcode: "local.get" (0x20) 0x2e0-0x2e1 (1)
0x2e0|   00                                          | .              |                    x: 0 (valid) 0x2e1-0x2e2 (1)
     |                                               |                |                  [1]{}: in 0x2e2-0x2e5 (3)
0x2e0|      35                                       |  5             |                    opcode: "i64.load32_u" (0x35) 0x2e2-0x2e3 (1)
     |                                               |                |                    m{}: 0x2e3-0x2e5 (2)
0x2e0|         01                                    |   .            |                      a: 1 (valid) 0x2e3-0x2e4 (1)
0x2e0|            02                                 |    .           |                      o: 2 (valid) 0x2e4-0x2e5 (1)
     |                                               |                |                  [2]{}: in 0x2e5-0x2e6 (1)
0x2e0|               0b                              |     .          |                    opcode: "end" (0xb) 0x2e5-0x2e6 (1)
     |                                               |                |            [24]{}: code 0x2e6-0x2ee (8)
0x2e0|                  07                           |      .         |              size: 7 (valid) 0x2e6-0x2e7 (1)
     |                                               |                |              code{}: 0x2e7-0x2ee (7)
     |                                               |                |                t{}: 0x2e7-0x2e8 (1)
0x2e0|                     00                        |       .        |                  n: 0 (valid) 0x2e7-0x2e8 (1)
     |                                               |                |                  x[0:0]: 0x2e8-0x2e8 (0)
     |                                               |                |                e[0:3]: 0x2e8-0x2ee (6)
     |                                               |                |                  [0]{}: in 0x2e8-0x2ea (2)
0x2e0|                        20                     |                |                    opcode: "local.get" (0x20) 0x2e8-0x2e9 (1)
0x2e0|                           00                  |         .      |                    x: 0 (valid) 0x2e9-0x2ea (1)
     |                                               |                |                  [1]{}: in 0x2ea-0x2ed (3)
0x2e0|                              35               |          5     |                    opcode: "i64.load32_u" (0x35) 0x2ea-0x2eb (1)
     |                                               |                |                    m{}: 0x2eb-0x2ed (2)
0x2e0|                                 02            |           .    |                      a: 2 (valid) 0x2eb-0x2ec (1)
0x2e0|                                    19         |            .   |                      o: 25 (valid) 0x2ec-0x2ed (1)
     |                                               |                |                  [2]{}: in 0x2ed-0x2ee (1)
0x2e0|                                       0b      |             .  |                    opcode: "end" (0xb) 0x2ed-0x2ee (1)
     |                                               |                |            [25]{}: code 0x2ee-0x2f6 (8)
0x2e0|                                          07   |              . |              size: 7 (valid) 0x2ee-0x2ef (1)
     |                                               |                |              code{}: 0x2ef-0x2f6 (7)
     |                                               |                |                t{}: 0x2ef-0x2f0 (1)
0x2e0|                                             00|               .|                  n: 0 (valid) 0x2ef-0x2f0 (1)
     |                                               |                |                  x[0:0]: 0x2f0-0x2f0 (0)
     |                                               |                |                e[0:3]: 0x2f0-0x2f6 (6)
     |                                               |                |                  [0]{}: in 0x2f0-0x2f2 (2)
0x2f0|20                                             |                |                    opcode: "local.get" (0x20) 0x2f0-0x2f1 (1)
0x2f0|   00                                          | .              |                    x: 0 (valid) 0x2f1-0x2f2 (1)
     |                                               |                |                  [1]{}: in 0x2f2-0x2f5 (3)
0x2f0|      34                                       |  4             |                    opcode: "i64.load32_s" (0x34) 0x2f2-0x2f3 (1)
     |                                               |                |                    m{}: 0x2f3-0x2f5 (2)
0x2f0|         02                                    |   .            |                      a: 2 (valid) 0x2f3-0x2f4 (1)
0x2f0|            00                                 |    .           |                      o: 0 (valid) 0x2f4-0x2f5 (1)
     |                                               |                |                  [2]{}: in 0x2f5-0x2f6 (1)
0x2f0|               0b                              |     .          |                    opcode: "end" (0xb) 0x2f5-0x2f6 (1)
     |                                               |                |            [26]{}: code 0x2f6-0x2fe (8)
0x2f0|                  07                           |      .         |              size: 7 (valid) 0x2f6-0x2f7 (1)
     |                                               |                |              code{}: 0x2f7-0x2fe (7)
     |                                               |                |                t{}: 0x2f7-0x2f8 (1)
0x2f0|                     00                        |       .        |                  n: 0 (valid) 0x2f7-0x2f8 (1)
     |                                               |                |                  x[0:0]: 0x2f8-0x2f8 (0)
     |                                               |                |                e[0:3]: 0x2f8-0x2fe (6)
     |                                               |                |                  [0]{}: in 0x2f8-0x2fa (2)
0x2f0|                        20                     |                |                    opcode: "local.get" (0x20) 0x2f8-0x2f9 (1)
0x2f0|                           00                  |         .      |                    x: 0 (valid) 0x2f9-0x2fa (1)
     |                                               |                |                  [1]{}: in 0x2fa-0x2fd (3)
0x2f0|                              34               |          4     |                    opcode: "i64.load32_s" (0x34) 0x2fa-0x2fb (1)
     |                                               |                |                    m{}: 0x2fb-0x2fd (2)
0x2f0|                                 00            |           .    |                      a: 0 (valid) 0x2fb-0x2fc (1)
0x2f0|                                    00         |            .   |                      o: 0 (valid) 0x2fc-0x2fd (1)
     |                                               |                |                  [2]{}: in 0x2fd-0x2fe (1)
0x2f0|                                       0b      |             .  |                    opcode: "end" (0xb) 0x2fd-0x2fe (1)
     |                                               |                |            [27]{}: code 0x2fe-0x306 (8)
0x2f0|                                          07   |              . |              size: 7 (valid) 0x2fe-0x2ff (1)
     |                                               |                |              code{}: 0x2ff-0x306 (7)
     |                                               |                |                t{}: 0x2ff-0x300 (1)
0x2f0|                                             00|               .|                  n: 0 (valid) 0x2ff-0x300 (1)
     |                                               |                |                  x[0:0]: 0x300-0x300 (0)
     |                                               |                |                e[0:3]: 0x300-0x306 (6)
     |                                               |                |                  [0]{}: in 0x300-0x302 (2)
0x300|20                                             |                |                    opcode: "local.get" (0x20) 0x300-0x301 (1)
0x300|   00                                          | .              |                    x: 0 (valid) 0x301-0x302 (1)
     |                                               |                |                  [1]{}: in 0x302-0x305 (3)
0x300|      34                                       |  4             |                    opcode: "i64.load32_s" (0x34) 0x302-0x303 (1)
     |                                               |                |                    m{}: 0x303-0x305 (2)
0x300|         00                                    |   .            |                      a: 0 (valid) 0x303-0x304 (1)
0x300|            01                                 |    .           |                      o: 1 (valid) 0x304-0x305 (1)
     |                                               |                |                  [2]{}: in 0x305-0x306 (1)
0x300|               0b                              |     .          |                    opcode: "end" (0xb) 0x305-0x306 (1)
     |                                               |                |            [28]{}: code 0x306-0x30e (8)
0x300|                  07                           |      .         |              size: 7 (valid) 0x306-0x307 (1)
     |                                               |                |              code{}: 0x307-0x30e (7)
     |                                               |                |                t{}: 0x307-0x308 (1)
0x300|                     00                        |       .        |                  n: 0 (valid) 0x307-0x308 (1)
     |                                               |                |                  x[0:0]: 0x308-0x308 (0)
     |                                               |                |                e[0:3]: 0x308-0x30e (6)
     |                                               |                |                  [0]{}: in 0x308-0x30a (2)
0x300|                        20                     |                |                    opcode: "local.get" (0x20) 0x308-0x309 (1)
0x300|                           00                  |         .      |                    x: 0 (valid) 0x309-0x30a (1)
     |                                               |                |                  [1]{}: in 0x30a-0x30d (3)
0x300|                              34               |          4     |                    opcode: "i64.load32_s" (0x34) 0x30a-0x30b (1)
     |                                               |                |                    m{}: 0x30b-0x30d (2)
0x300|                                 01            |           .    |                      a: 1 (valid) 0x30b-0x30c (1)
0x300|                                    02         |            .   |                      o: 2 (valid) 0x30c-0x30d (1)
     |                                               |                |                  [2]{}: in 0x30d-0x30e (1)
0x300|                                       0b      |             .  |                    opcode: "end" (0xb) 0x30d-0x30e (1)
     |                                               |                |            [29]{}: code 0x30e-0x316 (8)
0x300|                                          07   |              . |              size: 7 (valid) 0x30e-0x30f (1)
     |                                               |                |              code{}: 0x30f-0x316 (7)
     |                                               |                |                t{}: 0x30f-0x310 (1)
0x300|                                             00|               .|                  n: 0 (valid) 0x30f-0x310 (1)
     |                                               |                |                  x[0:0]: 0x310-0x310 (0)
     |                                               |                |                e[0:3]: 0x310-0x316 (6)
     |                                               |                |                  [0]{}: in 0x310-0x312 (2)
0x310|20                                             |                |                    opcode: "local.get" (0x20) 0x310-0x311 (1)
0x310|   00                                          | .              |                    x: 0 (valid) 0x311-0x312 (1)
     |                                               |                |                  [1]{}: in 0x312-0x315 (3)
0x310|      34                                       |  4             |                    opcode: "i64.load32_s" (0x34) 0x312-0x313 (1)
     |                                               |                |                    m{}: 0x313-0x315 (2)
0x310|         02                                    |   .            |                      a: 2 (valid) 0x313-0x314 (1)
0x310|            19                                 |    .           |                      o: 25 (valid) 0x314-0x315 (1)
     |                                               |                |                  [2]{}: in 0x315-0x316 (1)
0x310|               0b                              |     .          |                    opcode: "end" (0xb) 0x315-0x316 (1)
     |                                               |                |            [30]{}: code 0x316-0x31e (8)
0x310|                  07                           |      .         |              size: 7 (valid) 0x316-0x317 (1)
     |                                               |                |              code{}: 0x317-0x31e (7)
     |                                               |                |                t{}: 0x317-0x318 (1)
0x310|                     00                        |       .        |                  n: 0 (valid) 0x317-0x318 (1)
     |                                               |                |                  x[0:0]: 0x318-0x318 (0)
     |                                               |                |                e[0:3]: 0x318-0x31e (6)
     |                                               |                |                  [0]{}: in 0x318-0x31a (2)
0x310|                        20                     |                |                    opcode: "local.get" (0x20) 0x318-0x319 (1)
0x310|                           00                  |         .      |                    x: 0 (valid) 0x319-0x31a (1)
     |                                               |                |                  [1]{}: in 0x31a-0x31d (3)
0x310|                              29               |          )     |                    opcode: "i64.load" (0x29) 0x31a-0x31b (1)
     |                                               |                |                    m{}: 0x31b-0x31d (2)
0x310|                                 03            |           .    |                      a: 3 (valid) 0x31b-0x31c (1)
0x310|                                    00         |            .   |                      o: 0 (valid) 0x31c-0x31d (1)
     |                                               |                |                  [2]{}: in 0x31d-0x31e (1)
0x310|                                       0b      |             .  |                    opcode: "end" (0xb) 0x31d-0x31e (1)
     |                                               |                |            [31]{}: code 0x31e-0x326 (8)
0x310|                                          07   |              . |              size: 7 (valid) 0x31e-0x31f (1)
     |                                               |                |              code{}: 0x31f-0x326 (7)
     |                                               |                |                t{}: 0x31f-0x320 (1)
0x310|                                             00|               .|                  n: 0 (valid) 0x31f-0x320 (1)
     |                                               |                |                  x[0:0]: 0x320-0x320 (0)
     |                                               |                |                e[0:3]: 0x320-0x326 (6)
     |                                               |                |                  [0]{}: in 0x320-0x322 (2)
0x320|20                                             |                |                    opcode: "local.get" (0x20) 0x320-0x321 (1)
0x320|   00                                          | .              |                    x: 0 (valid) 0x321-0x322 (1)
     |                                               |                |                  [1]{}: in 0x322-0x325 (3)
0x320|      29                                       |  )             |                    opcode: "i64.load" (0x29) 0x322-0x323 (1)
     |                                               |                |                    m{}: 0x323-0x325 (2)
0x320|         00                                    |   .            |                      a: 0 (valid) 0x323-0x324 (1)
0x320|            00                                 |    .           |                      o: 0 (valid) 0x324-0x325 (1)
     |                                               |                |                  [2]{}: in 0x325-0x326 (1)
0x320|               0b                              |     .          |                    opcode: "end" (0xb) 0x325-0x326 (1)
     |                                               |                |            [32]{}: code 0x326-0x32e (8)
0x320|                  07                           |      .         |              size: 7 (valid) 0x326-0x327 (1)
     |                                               |                |              code{}: 0x327-0x32e (7)
     |                                               |                |                t{}: 0x327-0x328 (1)
0x320|                     00                        |       .        |                  n: 0 (valid) 0x327-0x328 (1)
     |                                               |                |                  x[0:0]: 0x328-0x328 (0)
     |                                               |                |                e[0:3]: 0x328-0x32e (6)
     |                                               |                |                  [0]{}: in 0x328-0x32a (2)
0x320|                        20                     |                |                    opcode: "local.get" (0x20) 0x328-0x329 (1)
0x320|                           00                  |         .      |                    x: 0 (valid) 0x329-0x32a (1)
     |                                               |                |                  [1]{}: in 0x32a-0x32d (3)
0x320|                              29               |          )     |                    opcode: "i64.load" (0x29) 0x32a-0x32b (1)
     |                                               |                |                    m{}: 0x32b-0x32d (2)
0x320|                                 00            |           .    |                      a: 0 (valid) 0x32b-0x32c (1)
0x320|                                    01         |            .   |                      o: 1 (valid) 0x32c-0x32d (1)
     |                                               |                |                  [2]{}: in 0x32d-0x32e (1)
0x320|                                       0b      |             .  |                    opcode: "end" (0xb) 0x32d-0x32e (1)
     |                                               |                |            [33]{}: code 0x32e-0x336 (8)
0x320|                                          07   |              . |              size: 7 (valid) 0x32e-0x32f (1)
     |                                               |                |              code{}: 0x32f-0x336 (7)
     |                                               |                |                t{}: 0x32f-0x330 (1)
0x320|                                             00|               .|                  n: 0 (valid) 0x32f-0x330 (1)
     |                                               |                |                  x[0:0]: 0x330-0x330 (0)
     |                                               |                |                e[0:3]: 0x330-0x336 (6)
     |                                               |                |                  [0]{}: in 0x330-0x332 (2)
0x330|20                                             |                |                    opcode: "local.get" (0x20) 0x330-0x331 (1)
0x330|   00                                          | .              |                    x: 0 (valid) 0x331-0x332 (1)
     |                                               |                |                  [1]{}: in 0x332-0x335 (3)
0x330|      29                                       |  )             |                    opcode: "i64.load" (0x29) 0x332-0x333 (1)
     |                                               |                |                    m{}: 0x333-0x335 (2)
0x330|         01                                    |   .            |                      a: 1 (valid) 0x333-0x334 (1)
0x330|            02                                 |    .           |                      o: 2 (valid) 0x334-0x335 (1)
     |                                               |                |                  [2]{}: in 0x335-0x336 (1)
0x330|               0b                              |     .          |                    opcode: "end" (0xb) 0x335-0x336 (1)
     |                                               |                |            [34]{}: code 0x336-0x33e (8)
0x330|                  07                           |      .         |              size: 7 (valid) 0x336-0x337 (1)
     |                                               |                |              code{}: 0x337-0x33e (7)
     |                                               |                |                t{}: 0x337-0x338 (1)
0x330|                     00                        |       .        |                  n: 0 (valid) 0x337-0x338 (1)
     |                                               |                |                  x[0:0]: 0x338-0x338 (0)
     |                                               |                |                e[0:3]: 0x338-0x33e (6)
     |                                               |                |                  [0]{}: in 0x338-0x33a (2)
0x330|                        20                     |                |                    opcode: "local.get" (0x20) 0x338-0x339 (1)
0x330|                           00                  |         .      |                    x: 0 (valid) 0x339-0x33a (1)
     |                                               |                |                  [1]{}: in 0x33a-0x33d (3)
0x330|                              29               |          )     |                    opcode: "i64.load" (0x29) 0x33a-0x33b (1)
     |                                               |                |                    m{}: 0x33b-0x33d (2)
0x330|                                 03            |           .    |                      a: 3 (valid) 0x33b-0x33c (1)
0x330|                                    19         |            .   |                      o: 25 (valid) 0x33c-0x33d (1)
     |                                               |                |                  [2]{}: in 0x33d-0x33e (1)
0x330|                                       0b      |             .  |                    opcode: "end" (0xb) 0x33d-0x33e (1)
     |                                               |                |            [35]{}: code 0x33e-0x34b (13)
0x330|                                          0c   |              . |              size: 12 (valid) 0x33e-0x33f (1)
     |                                               |                |              code{}: 0x33f-0x34b (12)
     |                                               |                |                t{}: 0x33f-0x340 (1)
0x330|                                             00|               .|                  n: 0 (valid) 0x33f-0x340 (1)
     |                                               |                |                  x[0:0]: 0x340-0x340 (0)
     |                                               |                |                e[0:4]: 0x340-0x34b (11)
     |                                               |                |                  [0]{}: in 0x340-0x342 (2)
0x340|20                                             |                |                    opcode: "local.get" (0x20) 0x340-0x341 (1)
0x340|   00                                          | .              |                    x: 0 (valid) 0x341-0x342 (1)
     |                                               |                |                  [1]{}: in 0x342-0x349 (7)
0x340|      31                                       |  1             |                    opcode: "i64.load8_u" (0x31) 0x342-0x343 (1)
     |                                               |                |                    m{}: 0x343-0x349 (6)
0x340|         00                                    |   .            |                      a: 0 (valid) 0x343-0x344 (1)
0x340|            ff ff ff ff 0f                     |    .....       |                      o: 4294967295 (valid) 0x344-0x349 (5)
     |                                               |                |                  [2]{}: in 0x349-0x34a (1)
0x340|                           1a                  |         .      |                    opcode: "drop" (0x1a) 0x349-0x34a (1)
     |                                               |                |                  [3]{}: in 0x34a-0x34b (1)
0x340|                              0b               |          .     |                    opcode: "end" (0xb) 0x34a-0x34b (1)
     |                                               |                |            [36]{}: code 0x34b-0x358 (13)
0x340|                                 0c            |           .    |              size: 12 (valid) 0x34b-0x34c (1)
     |                                               |                |              code{}: 0x34c-0x358 (12)
     |                                               |                |                t{}: 0x34c-0x34d (1)
0x340|                                    00         |            .   |                  n: 0 (valid) 0x34c-0x34d (1)
     |                                               |                |                  x[0:0]: 0x34d-0x34d (0)
     |                                               |                |                e[0:4]: 0x34d-0x358 (11)
     |                                               |                |                  [0]{}: in 0x34d-0x34f (2)
0x340|                                       20      |                |                    opcode: "local.get" (0x20) 0x34d-0x34e (1)
0x340|                                          00   |              . |                    x: 0 (valid) 0x34e-0x34f (1)
     |                                               |                |                  [1]{}: in 0x34f-0x356 (7)
0x340|                                             30|               0|                    opcode: "i64.load8_s" (0x30) 0x34f-0x350 (1)
     |                                               |                |                    m{}: 0x350-0x356 (6)
0x350|00                                             |.               |                      a: 0 (valid) 0x350-0x351 (1)
0x350|   ff ff ff ff 0f                              | .....          |                      o: 4294967295 (valid) 0x351-0x356 (5)
     |                                               |                |                  [2]{}: in 0x356-0x357 (1)
0x350|                  1a                           |      .         |                    opcode: "drop" (0x1a) 0x356-0x357 (1)
     |                                               |                |                  [3]{}: in 0x357-0x358 (1)
0x350|                     0b                        |       .        |                    opcode: "end" (0xb) 0x357-0x358 (1)
     |                                               |                |            [37]{}: code 0x358-0x365 (13)
0x350|                        0c                     |        .       |              size: 12 (valid) 0x358-0x359 (1)
     |                                               |                |              code{}: 0x359-0x365 (12)
     |                                               |                |                t{}: 0x359-0x35a (1)
0x350|                           00                  |         .      |                  n: 0 (valid) 0x359-0x35a (1)
     |                                               |                |                  x[0:0]: 0x35a-0x35a (0)
     |                                               |                |                e[0:4]: 0x35a-0x365 (11)
     |                                               |                |                  [0]{}: in 0x35a-0x35c (2)
0x350|                              20               |                |                    opcode: "local.get" (0x20) 0x35a-0x35b (1)
0x350|                                 00            |           .    |                    x: 0 (valid) 0x35b-0x35c (1)
     |                                               |                |                  [1]{}: in 0x35c-0x363 (7)
0x350|                                    33         |            3   |                    opcode: "i64.load16_u" (0x33) 0x35c-0x35d (1)
     |                                               |                |                    m{}: 0x35d-0x363 (6)
0x350|                                       01      |             .  |                      a: 1 (valid) 0x35d-0x35e (1)
0x350|                                          ff ff|              ..|                      o: 4294967295 (valid) 0x35e-0x363 (5)
0x360|ff ff 0f                                       |...             |
     |                                               |                |                  [2]{}: in 0x363-0x364 (1)
0x360|         1a                                    |   .            |                    opcode: "drop" (0x1a) 0x363-0x364 (1)
     |                                               |                |                  [3]{}: in 0x364-0x365 (1)
0x360|            0b                                 |    .           |                    opcode: "end" (0xb) 0x364-0x365 (1)
     |                                               |                |            [38]{}: code 0x365-0x372 (13)
0x360|               0c                              |     .          |              size: 12 (valid) 0x365-0x366 (1)
     |                                               |                |              code{}: 0x366-0x372 (12)
     |                                               |                |                t{}: 0x366-0x367 (1)
0x360|                  00                           |      .         |                  n: 0 (valid) 0x366-0x367 (1)
     |                                               |                |                  x[0:0]: 0x367-0x367 (0)
     |                                               |                |                e[0:4]: 0x367-0x372 (11)
     |                                               |                |                  [0]{}: in 0x367-0x369 (2)
0x360|                     20                        |                |                    opcode: "local.get" (0x20) 0x367-0x368 (1)
0x360|                        00                     |        .       |                    x: 0 (valid) 0x368-0x369 (1)
     |                                               |                |                  [1]{}: in 0x369-0x370 (7)
0x360|                           32                  |         2      |                    opcode: "i64.load16_s" (0x32) 0x369-0x36a (1)
     |                                               |                |                    m{}: 0x36a-0x370 (6)
0x360|                              01               |          .     |                      a: 1 (valid) 0x36a-0x36b (1)
0x360|                                 ff ff ff ff 0f|           .....|                      o: 4294967295 (valid) 0x36b-0x370 (5)
     |                                               |                |                  [2]{}: in 0x370-0x371 (1)
0x370|1a                                             |.               |                    opcode: "drop" (0x1a) 0x370-0x371 (1)
     |                                               |                |                  [3]{}: in 0x371-0x372 (1)
0x370|   0b                                          | .              |                    opcode: "end" (0xb) 0x371-0x372 (1)
     |                                               |                |            [39]{}: code 0x372-0x37f (13)
0x370|      0c                                       |  .             |              size: 12 (valid) 0x372-0x373 (1)
     |                                               |                |              code{}: 0x373-0x37f (12)
     |                                               |                |                t{}: 0x373-0x374 (1)
0x370|         00                                    |   .            |                  n: 0 (valid) 0x373-0x374 (1)
     |                                               |                |                  x[0:0]: 0x374-0x374 (0)
     |                                               |                |                e[0:4]: 0x374-0x37f (11)
     |                                               |                |                  [0]{}: in 0x374-0x376 (2)
0x370|            20                                 |                |                    opcode: "local.get" (0x20) 0x374-0x375 (1)
0x370|               00                              |     .          |                    x: 0 (valid) 0x375-0x376 (1)
     |                                               |                |                  [1]{}: in 0x376-0x37d (7)
0x370|                  35                           |      5         |                    opcode: "i64.load32_u" (0x35) 0x376-0x377 (1)
     |                                               |                |                    m{}: 0x377-0x37d (6)
0x370|                     02                        |       .        |                      a: 2 (valid) 0x377-0x378 (1)
0x370|                        ff ff ff ff 0f         |        .....   |                      o: 4294967295 (valid) 0x378-0x37d (5)
     |                                               |                |                  [2]{}: in 0x37d-0x37e (1)
0x370|                                       1a      |             .  |                    opcode: "drop" (0x1a) 0x37d-0x37e (1)
     |                                               |                |                  [3]{}: in 0x37e-0x37f (1)
0x370|                                          0b   |              . |                    opcode: "end" (0xb) 0x37e-0x37f (1)
     |                                               |                |            [40]{}: code 0x37f-0x38c (13)
0x370|                                             0c|               .|              size: 12 (valid) 0x37f-0x380 (1)
     |                                               |                |              code{}: 0x380-0x38c (12)
     |                                               |                |                t{}: 0x380-0x381 (1)
0x380|00                                             |.               |                  n: 0 (valid) 0x380-0x381 (1)
     |                                               |                |                  x[0:0]: 0x381-0x381 (0)
     |                                               |                |                e[0:4]: 0x381-0x38c (11)
     |                                               |                |                  [0]{}: in 0x381-0x383 (2)
0x380|   20                                          |                |                    opcode: "local.get" (0x20) 0x381-0x382 (1)
0x380|      00                                       |  .             |                    x: 0 (valid) 0x382-0x383 (1)
     |                                               |                |                  [1]{}: in 0x383-0x38a (7)
0x380|         34                                    |   4            |                    opcode: "i64.load32_s" (0x34) 0x383-0x384 (1)
     |                                               |                |                    m{}: 0x384-0x38a (6)
0x380|            02                                 |    .           |                      a: 2 (valid) 0x384-0x385 (1)
0x380|               ff ff ff ff 0f                  |     .....      |                      o: 4294967295 (valid) 0x385-0x38a (5)
     |                                               |                |                  [2]{}: in 0x38a-0x38b (1)
0x380|                              1a               |          .     |                    opcode: "drop" (0x1a) 0x38a-0x38b (1)
     |                                               |                |                  [3]{}: in 0x38b-0x38c (1)
0x380|                                 0b            |           .    |                    opcode: "end" (0xb) 0x38b-0x38c (1)
     |                                               |                |            [41]{}: code 0x38c-0x399 (13)
0x380|                                    0c         |            .   |              size: 12 (valid) 0x38c-0x38d (1)
     |                                               |                |              code{}: 0x38d-0x399 (12)
     |                                               |                |                t{}: 0x38d-0x38e (1)
0x380|                                       00      |             .  |                  n: 0 (valid) 0x38d-0x38e (1)
     |                                               |                |                  x[0:0]: 0x38e-0x38e (0)
     |                                               |                |                e[0:4]: 0x38e-0x399 (11)
     |                                               |                |                  [0]{}: in 0x38e-0x390 (2)
0x380|                                          20   |                |                    opcode: "local.get" (0x20) 0x38e-0x38f (1)
0x380|                                             00|               .|                    x: 0 (valid) 0x38f-0x390 (1)
     |                                               |                |                  [1]{}: in 0x390-0x397 (7)
0x390|29                                             |)               |                    opcode: "i64.load" (0x29) 0x390-0x391 (1)
     |                                               |                |                    m{}: 0x391-0x397 (6)
0x390|   03                                          | .              |                      a: 3 (valid) 0x391-0x392 (1)
0x390|      ff ff ff ff 0f                           |  .....         |                      o: 4294967295 (valid) 0x392-0x397 (5)
     |                                               |                |                  [2]{}: in 0x397-0x398 (1)
0x390|                     1a                        |       .        |                    opcode: "drop" (0x1a) 0x397-0x398 (1)
     |                                               |                |                  [3]{}: in 0x398-0x399 (1)
0x390|                        0b                     |        .       |                    opcode: "end" (0xb) 0x398-0x399 (1)
     |                                               |                |    [5]{}: section 0x399-0x3bb (34)
0x390|                           0b                  |         .      |      id: "data_section" (11) 0x399-0x39a (1)
0x390|                              20               |                |      size: 32 (valid) 0x39a-0x39b (1)
     |                                               |                |      content{}: 0x39b-0x3bb (32)
     |                                               |                |        seg{}: 0x39b-0x3bb (32)
0x390|                                 01            |           .    |          n: 1 (valid) 0x39b-0x39c (1)
     |                                               |                |          x[0:1]: 0x39c-0x3bb (31)
     |                                               |                |            [0]{}: seg 0x39c-0x3bb (31)
0x390|                                    00         |            .   |              tag: 0 (valid) 0x39c-0x39d (1)
     |                                               |                |              e[0:2]: 0x39d-0x3a0 (3)
     |                                               |                |                [0]{}: in 0x39d-0x39f (2)
0x390|                                       41      |             A  |                  opcode: "i32.const" (0x41) 0x39d-0x39e (1)
0x390|                                          00   |              . |                  n: 0 (valid) 0x39e-0x39f (1)
     |                                               |                |                [1]{}: in 0x39f-0x3a0 (1)
0x390|                                             0b|               .|                  opcode: "end" (0xb) 0x39f-0x3a0 (1)
     |                                               |                |              b{}: 0x3a0-0x3bb (27)
0x3a0|1a                                             |.               |                n: 26 (valid) 0x3a0-0x3a1 (1)
0x3a0|   61 62 63 64 65 66 67 68 69 6a 6b 6c 6d 6e 6f| abcdefghijklmno|                x: raw bits 0x3a1-0x3bb (26)
0x3b0|70 71 72 73 74 75 76 77 78 79 7a|              |pqrstuvwxyz|    |
