$ fq -d wasm dv align-24.wasm
    |00 01 02 03 04 05 06 07 08 09 0a 0b 0c 0d 0e 0f|0123456789abcdef|.{}: align-24.wasm (wasm) 0x0-0x45.7 (70)
0x00|00 61 73 6d                                    |.asm            |  magic: raw bits (valid) 0x0-0x3.7 (4)
0x00|            01 00 00 00                        |    ....        |  version: 1 0x4-0x7.7 (4)
    |                                               |                |  sections[0:5]: 0x8-0x45.7 (62)
    |                                               |                |    [0]{}: section 0x8-0x14.7 (13)
0x00|                        01                     |        .       |      id: "type section" (1) 0x8-0x8.7 (1)
0x00|                           0b                  |         .      |      size: 11 0x9-0x9.7 (1)
    |                                               |                |      content{}: 0xa-0x14.7 (11)
    |                                               |                |        ft{}: 0xa-0x14.7 (11)
0x00|                              02               |          .     |          n: 2 0xa-0xa.7 (1)
    |                                               |                |          x[0:2]: 0xb-0x14.7 (10)
    |                                               |                |            [0]{}: ft 0xb-0xf.7 (5)
0x00|                                 60            |           `    |              tag: 0x60 (valid) 0xb-0xb.7 (1)
    |                                               |                |              rt1{}: 0xc-0xe.7 (3)
0x00|                                    02         |            .   |                n: 2 0xc-0xc.7 (1)
    |                                               |                |                x[0:2]: 0xd-0xe.7 (2)
0x00|                                       7f      |             .  |                  [0]: "i32" (0x7f) t 0xd-0xd.7 (1)
0x00|                                          7e   |              ~ |                  [1]: "i64" (0x7e) t 0xe-0xe.7 (1)
    |                                               |                |              rt2{}: 0xf-0xf.7 (1)
0x00|                                             00|               .|                n: 0 0xf-0xf.7 (1)
    |                                               |                |                x[0:0]: 0x10-NA (0)
    |                                               |                |            [1]{}: ft 0x10-0x14.7 (5)
0x10|60                                             |`               |              tag: 0x60 (valid) 0x10-0x10.7 (1)
    |                                               |                |              rt1{}: 0x11-0x12.7 (2)
0x10|   01                                          | .              |                n: 1 0x11-0x11.7 (1)
    |                                               |                |                x[0:1]: 0x12-0x12.7 (1)
0x10|      7f                                       |  .             |                  [0]: "i32" (0x7f) t 0x12-0x12.7 (1)
    |                                               |                |              rt2{}: 0x13-0x14.7 (2)
0x10|         01                                    |   .            |                n: 1 0x13-0x13.7 (1)
    |                                               |                |                x[0:1]: 0x14-0x14.7 (1)
0x10|            7f                                 |    .           |                  [0]: "i32" (0x7f) t 0x14-0x14.7 (1)
    |                                               |                |    [1]{}: section 0x15-0x19.7 (5)
0x10|               03                              |     .          |      id: "function section" (3) 0x15-0x15.7 (1)
0x10|                  03                           |      .         |      size: 3 0x16-0x16.7 (1)
    |                                               |                |      content{}: 0x17-0x19.7 (3)
    |                                               |                |        x{}: 0x17-0x19.7 (3)
0x10|                     02                        |       .        |          n: 2 0x17-0x17.7 (1)
    |                                               |                |          x[0:2]: 0x18-0x19.7 (2)
0x10|                        00                     |        .       |            [0]: 0 x 0x18-0x18.7 (1)
0x10|                           01                  |         .      |            [1]: 1 x 0x19-0x19.7 (1)
    |                                               |                |    [2]{}: section 0x1a-0x1e.7 (5)
0x10|                              05               |          .     |      id: "memory section" (5) 0x1a-0x1a.7 (1)
0x10|                                 03            |           .    |      size: 3 0x1b-0x1b.7 (1)
    |                                               |                |      content{}: 0x1c-0x1e.7 (3)
    |                                               |                |        mem{}: 0x1c-0x1e.7 (3)
0x10|                                    01         |            .   |          n: 1 0x1c-0x1c.7 (1)
    |                                               |                |          x[0:1]: 0x1d-0x1e.7 (2)
    |                                               |                |            [0]{}: mem 0x1d-0x1e.7 (2)
    |                                               |                |              lim{}: 0x1d-0x1e.7 (2)
0x10|                                       00      |             .  |                tag: 0x0 0x1d-0x1d.7 (1)
0x10|                                          01   |              . |                n: 1 0x1e-0x1e.7 (1)
    |                                               |                |    [3]{}: section 0x1f-0x30.7 (18)
0x10|                                             07|               .|      id: "export section" (7) 0x1f-0x1f.7 (1)
0x20|10                                             |.               |      size: 16 0x20-0x20.7 (1)
    |                                               |                |      content{}: 0x21-0x30.7 (16)
    |                                               |                |        ex{}: 0x21-0x30.7 (16)
0x20|   02                                          | .              |          n: 2 0x21-0x21.7 (1)
    |                                               |                |          x[0:2]: 0x22-0x30.7 (15)
    |                                               |                |            [0]{}: ex 0x22-0x29.7 (8)
    |                                               |                |              nm{}: 0x22-0x27.7 (6)
0x20|      05                                       |  .             |                n: 5 0x22-0x22.7 (1)
0x20|         73 74 6f 72 65                        |   store        |                b: "store" 0x23-0x27.7 (5)
    |                                               |                |              d{}: 0x28-0x29.7 (2)
0x20|                        00                     |        .       |                tag: "funcidx" (0x0) 0x28-0x28.7 (1)
0x20|                           00                  |         .      |                x: 0 0x29-0x29.7 (1)
    |                                               |                |            [1]{}: ex 0x2a-0x30.7 (7)
    |                                               |                |              nm{}: 0x2a-0x2e.7 (5)
0x20|                              04               |          .     |                n: 4 0x2a-0x2a.7 (1)
0x20|                                 6c 6f 61 64   |           load |                b: "load" 0x2b-0x2e.7 (4)
    |                                               |                |              d{}: 0x2f-0x30.7 (2)
0x20|                                             00|               .|                tag: "funcidx" (0x0) 0x2f-0x2f.7 (1)
0x30|01                                             |.               |                x: 1 0x30-0x30.7 (1)
    |                                               |                |    [4]{}: section 0x31-0x45.7 (21)
0x30|   0a                                          | .              |      id: "code section" (10) 0x31-0x31.7 (1)
0x30|      13                                       |  .             |      size: 19 0x32-0x32.7 (1)
    |                                               |                |      content{}: 0x33-0x45.7 (19)
    |                                               |                |        code{}: 0x33-0x45.7 (19)
0x30|         02                                    |   .            |          n: 2 0x33-0x33.7 (1)
    |                                               |                |          x[0:2]: 0x34-0x45.7 (18)
    |                                               |                |            [0]{}: code 0x34-0x3d.7 (10)
0x30|            09                                 |    .           |              size: 9 0x34-0x34.7 (1)
    |                                               |                |              code{}: 0x35-0x3d.7 (9)
    |                                               |                |                t{}: 0x35-0x35.7 (1)
0x30|               00                              |     .          |                  n: 0 0x35-0x35.7 (1)
    |                                               |                |                  x[0:0]: 0x36-NA (0)
    |                                               |                |                e[0:4]: 0x36-0x3d.7 (8)
    |                                               |                |                  [0]{}: in 0x36-0x37.7 (2)
0x30|                  20                           |                |                    local.get: 0x20 (valid) 0x36-0x36.7 (1)
0x30|                     00                        |       .        |                    x: 0 0x37-0x37.7 (1)
    |                                               |                |                  [1]{}: in 0x38-0x39.7 (2)
0x30|                        20                     |                |                    local.get: 0x20 (valid) 0x38-0x38.7 (1)
0x30|                           01                  |         .      |                    x: 1 0x39-0x39.7 (1)
    |                                               |                |                  [2]{}: in 0x3a-0x3c.7 (3)
0x30|                              37               |          7     |                    i64.store: 0x37 (valid) 0x3a-0x3a.7 (1)
    |                                               |                |                    m{}: 0x3b-0x3c.7 (2)
0x30|                                 02            |           .    |                      a: 2 0x3b-0x3b.7 (1)
0x30|                                    00         |            .   |                      o: 0 0x3c-0x3c.7 (1)
    |                                               |                |                  [3]{}: in 0x3d-0x3d.7 (1)
0x30|                                       0b      |             .  |                    end: 0xb (valid) 0x3d-0x3d.7 (1)
    |                                               |                |            [1]{}: code 0x3e-0x45.7 (8)
0x30|                                          07   |              . |              size: 7 0x3e-0x3e.7 (1)
    |                                               |                |              code{}: 0x3f-0x45.7 (7)
    |                                               |                |                t{}: 0x3f-0x3f.7 (1)
0x30|                                             00|               .|                  n: 0 0x3f-0x3f.7 (1)
    |                                               |                |                  x[0:0]: 0x40-NA (0)
    |                                               |                |                e[0:3]: 0x40-0x45.7 (6)
    |                                               |                |                  [0]{}: in 0x40-0x41.7 (2)
0x40|20                                             |                |                    local.get: 0x20 (valid) 0x40-0x40.7 (1)
0x40|   00                                          | .              |                    x: 0 0x41-0x41.7 (1)
    |                                               |                |                  [1]{}: in 0x42-0x44.7 (3)
0x40|      28                                       |  (             |                    i32.load: 0x28 (valid) 0x42-0x42.7 (1)
    |                                               |                |                    m{}: 0x43-0x44.7 (2)
0x40|         02                                    |   .            |                      a: 2 0x43-0x43.7 (1)
0x40|            00                                 |    .           |                      o: 0 0x44-0x44.7 (1)
    |                                               |                |                  [2]{}: in 0x45-0x45.7 (1)
0x40|               0b|                             |     .|         |                    end: 0xb (valid) 0x45-0x45.7 (1)
