$ fq -d wasm dv align-23.wasm
     |00 01 02 03 04 05 06 07 08 09 0a 0b 0c 0d 0e 0f|0123456789abcdef|.{}: align-23.wasm (wasm) 0x0-0x4fa (1274)
0x000|00 61 73 6d                                    |.asm            |  magic: raw bits (valid) 0x0-0x4 (4)
0x000|            01 00 00 00                        |    ....        |  version: 1 0x4-0x8 (4)
     |                                               |                |  sections[0:5]: 0x8-0x4fa (1266)
     |                                               |                |    [0]{}: section 0x8-0x21 (25)
0x000|                        01                     |        .       |      id: "type_section" (1) 0x8-0x9 (1)
0x000|                           17                  |         .      |      size: 23 (valid) 0x9-0xa (1)
     |                                               |                |      content{}: 0xa-0x21 (23)
     |                                               |                |        ft{}: 0xa-0x21 (23)
0x000|                              04               |          .     |          n: 4 (valid) 0xa-0xb (1)
     |                                               |                |          x[0:4]: 0xb-0x21 (22)
     |                                               |                |            [0]{}: ft 0xb-0x10 (5)
0x000|                                 60            |           `    |              tag: 0x60 (valid) 0xb-0xc (1)
     |                                               |                |              rt1{}: 0xc-0xe (2)
0x000|                                    01         |            .   |                n: 1 (valid) 0xc-0xd (1)
     |                                               |                |                x[0:1]: 0xd-0xe (1)
0x000|                                       7f      |             .  |                  [0]: "i32" (0x7f) t 0xd-0xe (1)
     |                                               |                |              rt2{}: 0xe-0x10 (2)
0x000|                                          01   |              . |                n: 1 (valid) 0xe-0xf (1)
     |                                               |                |                x[0:1]: 0xf-0x10 (1)
0x000|                                             7d|               }|                  [0]: "f32" (0x7d) t 0xf-0x10 (1)
     |                                               |                |            [1]{}: ft 0x10-0x15 (5)
0x010|60                                             |`               |              tag: 0x60 (valid) 0x10-0x11 (1)
     |                                               |                |              rt1{}: 0x11-0x13 (2)
0x010|   01                                          | .              |                n: 1 (valid) 0x11-0x12 (1)
     |                                               |                |                x[0:1]: 0x12-0x13 (1)
0x010|      7f                                       |  .             |                  [0]: "i32" (0x7f) t 0x12-0x13 (1)
     |                                               |                |              rt2{}: 0x13-0x15 (2)
0x010|         01                                    |   .            |                n: 1 (valid) 0x13-0x14 (1)
     |                                               |                |                x[0:1]: 0x14-0x15 (1)
0x010|            7c                                 |    |           |                  [0]: "f64" (0x7c) t 0x14-0x15 (1)
     |                                               |                |            [2]{}: ft 0x15-0x1b (6)
0x010|               60                              |     `          |              tag: 0x60 (valid) 0x15-0x16 (1)
     |                                               |                |              rt1{}: 0x16-0x19 (3)
0x010|                  02                           |      .         |                n: 2 (valid) 0x16-0x17 (1)
     |                                               |                |                x[0:2]: 0x17-0x19 (2)
0x010|                     7f                        |       .        |                  [0]: "i32" (0x7f) t 0x17-0x18 (1)
0x010|                        7f                     |        .       |                  [1]: "i32" (0x7f) t 0x18-0x19 (1)
     |                                               |                |              rt2{}: 0x19-0x1b (2)
0x010|                           01                  |         .      |                n: 1 (valid) 0x19-0x1a (1)
     |                                               |                |                x[0:1]: 0x1a-0x1b (1)
0x010|                              7f               |          .     |                  [0]: "i32" (0x7f) t 0x1a-0x1b (1)
     |                                               |                |            [3]{}: ft 0x1b-0x21 (6)
0x010|                                 60            |           `    |              tag: 0x60 (valid) 0x1b-0x1c (1)
     |                                               |                |              rt1{}: 0x1c-0x1f (3)
0x010|                                    02         |            .   |                n: 2 (valid) 0x1c-0x1d (1)
     |                                               |                |                x[0:2]: 0x1d-0x1f (2)
0x010|                                       7f      |             .  |                  [0]: "i32" (0x7f) t 0x1d-0x1e (1)
0x010|                                          7f   |              . |                  [1]: "i32" (0x7f) t 0x1e-0x1f (1)
     |                                               |                |              rt2{}: 0x1f-0x21 (2)
0x010|                                             01|               .|                n: 1 (valid) 0x1f-0x20 (1)
     |                                               |                |                x[0:1]: 0x20-0x21 (1)
0x020|7e                                             |~               |                  [0]: "i64" (0x7e) t 0x20-0x21 (1)
     |                                               |                |    [1]{}: section 0x21-0x28 (7)
0x020|   03                                          | .              |      id: "function_section" (3) 0x21-0x22 (1)
0x020|      05                                       |  .             |      size: 5 (valid) 0x22-0x23 (1)
     |                                               |                |      content{}: 0x23-0x28 (5)
     |                                               |                |        x{}: 0x23-0x28 (5)
0x020|         04                                    |   .            |          n: 4 (valid) 0x23-0x24 (1)
     |                                               |                |          x[0:4]: 0x24-0x28 (4)
0x020|            00                                 |    .           |            [0]: 0 x (valid) 0x24-0x25 (1)
0x020|               01                              |     .          |            [1]: 1 x (valid) 0x25-0x26 (1)
0x020|                  02                           |      .         |            [2]: 2 x (valid) 0x26-0x27 (1)
0x020|                     03                        |       .        |            [3]: 3 x (valid) 0x27-0x28 (1)
     |                                               |                |    [2]{}: section 0x28-0x2d (5)
0x020|                        05                     |        .       |      id: "memory_section" (5) 0x28-0x29 (1)
0x020|                           03                  |         .      |      size: 3 (valid) 0x29-0x2a (1)
     |                                               |                |      content{}: 0x2a-0x2d (3)
     |                                               |                |        mem{}: 0x2a-0x2d (3)
0x020|                              01               |          .     |          n: 1 (valid) 0x2a-0x2b (1)
     |                                               |                |          x[0:1]: 0x2b-0x2d (2)
     |                                               |                |            [0]{}: mem 0x2b-0x2d (2)
     |                                               |                |              lim{}: 0x2b-0x2d (2)
0x020|                                 00            |           .    |                tag: 0x0 0x2b-0x2c (1)
0x020|                                    01         |            .   |                n: 1 (valid) 0x2c-0x2d (1)
     |                                               |                |    [3]{}: section 0x2d-0x7c (79)
0x020|                                       07      |             .  |      id: "export_section" (7) 0x2d-0x2e (1)
0x020|                                          4d   |              M |      size: 77 (valid) 0x2e-0x2f (1)
     |                                               |                |      content{}: 0x2f-0x7c (77)
     |                                               |                |        ex{}: 0x2f-0x7c (77)
0x020|                                             04|               .|          n: 4 (valid) 0x2f-0x30 (1)
     |                                               |                |          x[0:4]: 0x30-0x7c (76)
     |                                               |                |            [0]{}: ex 0x30-0x43 (19)
     |                                               |                |              nm{}: 0x30-0x41 (17)
0x030|10                                             |.               |                n: 16 (valid) 0x30-0x31 (1)
0x030|   66 33 32 5f 61 6c 69 67 6e 5f 73 77 69 74 63| f32_align_switc|                b: "f32_align_switch" 0x31-0x41 (16)
0x040|68                                             |h               |
     |                                               |                |              d{}: 0x41-0x43 (2)
0x040|   00                                          | .              |                tag: "funcidx" (0x0) 0x41-0x42 (1)
0x040|      00                                       |  .             |                x: 0 (valid) 0x42-0x43 (1)
     |                                               |                |            [1]{}: ex 0x43-0x56 (19)
     |                                               |                |              nm{}: 0x43-0x54 (17)
0x040|         10                                    |   .            |                n: 16 (valid) 0x43-0x44 (1)
0x040|            66 36 34 5f 61 6c 69 67 6e 5f 73 77|    f64_align_sw|                b: "f64_align_switch" 0x44-0x54 (16)
0x050|69 74 63 68                                    |itch            |
     |                                               |                |              d{}: 0x54-0x56 (2)
0x050|            00                                 |    .           |                tag: "funcidx" (0x0) 0x54-0x55 (1)
0x050|               01                              |     .          |                x: 1 (valid) 0x55-0x56 (1)
     |                                               |                |            [2]{}: ex 0x56-0x69 (19)
     |                                               |                |              nm{}: 0x56-0x67 (17)
0x050|                  10                           |      .         |                n: 16 (valid) 0x56-0x57 (1)
0x050|                     69 33 32 5f 61 6c 69 67 6e|       i32_align|                b: "i32_align_switch" 0x57-0x67 (16)
0x060|5f 73 77 69 74 63 68                           |_switch         |
     |                                               |                |              d{}: 0x67-0x69 (2)
0x060|                     00                        |       .        |                tag: "funcidx" (0x0) 0x67-0x68 (1)
0x060|                        02                     |        .       |                x: 2 (valid) 0x68-0x69 (1)
     |                                               |                |            [3]{}: ex 0x69-0x7c (19)
     |                                               |                |              nm{}: 0x69-0x7a (17)
0x060|                           10                  |         .      |                n: 16 (valid) 0x69-0x6a (1)
0x060|                              69 36 34 5f 61 6c|          i64_al|                b: "i64_align_switch" 0x6a-0x7a (16)
0x070|69 67 6e 5f 73 77 69 74 63 68                  |ign_switch      |
     |                                               |                |              d{}: 0x7a-0x7c (2)
0x070|                              00               |          .     |                tag: "funcidx" (0x0) 0x7a-0x7b (1)
0x070|                                 03            |           .    |                x: 3 (valid) 0x7b-0x7c (1)
     |                                               |                |    [4]{}: section 0x7c-0x4fa (1150)
0x070|                                    0a         |            .   |      id: "code_section" (10) 0x7c-0x7d (1)
0x070|                                       fb 08   |             .. |      size: 1147 (valid) 0x7d-0x7f (2)
     |                                               |                |      content{}: 0x7f-0x4fa (1147)
     |                                               |                |        code{}: 0x7f-0x4fa (1147)
0x070|                                             04|               .|          n: 4 (valid) 0x7f-0x80 (1)
     |                                               |                |          x[0:4]: 0x80-0x4fa (1146)
     |                                               |                |            [0]{}: code 0x80-0xe4 (100)
0x080|63                                             |c               |              size: 99 (valid) 0x80-0x81 (1)
     |                                               |                |              code{}: 0x81-0xe4 (99)
     |                                               |                |                t{}: 0x81-0x84 (3)
0x080|   01                                          | .              |                  n: 1 (valid) 0x81-0x82 (1)
     |                                               |                |                  x[0:1]: 0x82-0x84 (2)
     |                                               |                |                    [0]{}: t 0x82-0x84 (2)
0x080|      02                                       |  .             |                      n: 2 (valid) 0x82-0x83 (1)
0x080|         7d                                    |   }            |                      t: "f32" (0x7d) 0x83-0x84 (1)
     |                                               |                |                e[0:5]: 0x84-0xe4 (96)
     |                                               |                |                  [0]{}: in 0x84-0x89 (5)
0x080|            43                                 |    C           |                    opcode: "f32.const" (0x43) 0x84-0x85 (1)
0x080|               00 00 20 41                     |     .. A       |                    z: 10 0x85-0x89 (4)
     |                                               |                |                  [1]{}: in 0x89-0x8b (2)
0x080|                           21                  |         !      |                    opcode: "local.set" (0x21) 0x89-0x8a (1)
0x080|                              01               |          .     |                    x: 1 (valid) 0x8a-0x8b (1)
     |                                               |                |                  [2]{}: in 0x8b-0xe1 (86)
0x080|                                 02            |           .    |                    opcode: "block" (0x2) 0x8b-0x8c (1)
0x080|                                    40         |            @   |                    bt: "ε" (64) 0x8c-0x8d (1)
     |                                               |                |                    instructions[0:7]: 0x8d-0xe0 (83)
     |                                               |                |                      [0]{}: instr 0x8d-0xd2 (69)
0x080|                                       02      |             .  |                        opcode: "block" (0x2) 0x8d-0x8e (1)
0x080|                                          40   |              @ |                        bt: "ε" (64) 0x8e-0x8f (1)
     |                                               |                |                        instructions[0:8]: 0x8f-0xd1 (66)
     |                                               |                |                          [0]{}: instr 0x8f-0xc1 (50)
0x080|                                             02|               .|                            opcode: "block" (0x2) 0x8f-0x90 (1)
0x090|40                                             |@               |                            bt: "ε" (64) 0x90-0x91 (1)
     |                                               |                |                            instructions[0:8]: 0x91-0xc0 (47)
     |                                               |                |                              [0]{}: instr 0x91-0xb0 (31)
0x090|   02                                          | .              |                                opcode: "block" (0x2) 0x91-0x92 (1)
0x090|      40                                       |  @             |                                bt: "ε" (64) 0x92-0x93 (1)
     |                                               |                |                                instructions[0:8]: 0x93-0xaf (28)
     |                                               |                |                                  [0]{}: instr 0x93-0x9f (12)
0x090|         02                                    |   .            |                                    opcode: "block" (0x2) 0x93-0x94 (1)
0x090|            40                                 |    @           |                                    bt: "ε" (64) 0x94-0x95 (1)
     |                                               |                |                                    instructions[0:2]: 0x95-0x9e (9)
     |                                               |                |                                      [0]{}: instr 0x95-0x97 (2)
0x090|               20                              |                |                                        opcode: "local.get" (0x20) 0x95-0x96 (1)
0x090|                  00                           |      .         |                                        x: 0 (valid) 0x96-0x97 (1)
     |                                               |                |                                      [1]{}: instr 0x97-0x9e (7)
0x090|                     0e                        |       .        |                                        opcode: "br_table" (0xe) 0x97-0x98 (1)
     |                                               |                |                                        l{}: 0x98-0x9d (5)
0x090|                        04                     |        .       |                                          n: 4 (valid) 0x98-0x99 (1)
     |                                               |                |                                          x[0:4]: 0x99-0x9d (4)
0x090|                           00                  |         .      |                                            [0]: 0 l (valid) 0x99-0x9a (1)
0x090|                              01               |          .     |                                            [1]: 1 l (valid) 0x9a-0x9b (1)
0x090|                                 02            |           .    |                                            [2]: 2 l (valid) 0x9b-0x9c (1)
0x090|                                    03         |            .   |                                            [3]: 3 l (valid) 0x9c-0x9d (1)
0x090|                                       04      |             .  |                                        lN: 4 (valid) 0x9d-0x9e (1)
0x090|                                          0b   |              . |                                    end: 0xb (valid) 0x9e-0x9f (1)
     |                                               |                |                                  [1]{}: instr 0x9f-0xa1 (2)
0x090|                                             41|               A|                                    opcode: "i32.const" (0x41) 0x9f-0xa0 (1)
0x0a0|00                                             |.               |                                    n: 0 (valid) 0xa0-0xa1 (1)
     |                                               |                |                                  [2]{}: instr 0xa1-0xa3 (2)
0x0a0|   20                                          |                |                                    opcode: "local.get" (0x20) 0xa1-0xa2 (1)
0x0a0|      01                                       |  .             |                                    x: 1 (valid) 0xa2-0xa3 (1)
     |                                               |                |                                  [3]{}: instr 0xa3-0xa6 (3)
0x0a0|         38                                    |   8            |                                    opcode: "f32.store" (0x38) 0xa3-0xa4 (1)
     |                                               |                |                                    m{}: 0xa4-0xa6 (2)
0x0a0|            02                                 |    .           |                                      a: 2 (valid) 0xa4-0xa5 (1)
0x0a0|               00                              |     .          |                                      o: 0 (valid) 0xa5-0xa6 (1)
     |                                               |                |                                  [4]{}: instr 0xa6-0xa8 (2)
0x0a0|                  41                           |      A         |                                    opcode: "i32.const" (0x41) 0xa6-0xa7 (1)
0x0a0|                     00                        |       .        |                                    n: 0 (valid) 0xa7-0xa8 (1)
     |                                               |                |                                  [5]{}: instr 0xa8-0xab (3)
0x0a0|                        2a                     |        *       |                                    opcode: "f32.load" (0x2a) 0xa8-0xa9 (1)
     |                                               |                |                                    m{}: 0xa9-0xab (2)
0x0a0|                           02                  |         .      |                                      a: 2 (valid) 0xa9-0xaa (1)
0x0a0|                              00               |          .     |                                      o: 0 (valid) 0xaa-0xab (1)
     |                                               |                |                                  [6]{}: instr 0xab-0xad (2)
0x0a0|                                 21            |           !    |                                    opcode: "local.set" (0x21) 0xab-0xac (1)
0x0a0|                                    02         |            .   |                                    x: 2 (valid) 0xac-0xad (1)
     |                                               |                |                                  [7]{}: instr 0xad-0xaf (2)
0x0a0|                                       0c      |             .  |                                    opcode: "br" (0xc) 0xad-0xae (1)
0x0a0|                                          03   |              . |                                    l: 3 (valid) 0xae-0xaf (1)
0x0a0|                                             0b|               .|                                end: 0xb (valid) 0xaf-0xb0 (1)
     |                                               |                |                              [1]{}: instr 0xb0-0xb2 (2)
0x0b0|41                                             |A               |                                opcode: "i32.const" (0x41) 0xb0-0xb1 (1)
0x0b0|   00                                          | .              |                                n: 0 (valid) 0xb1-0xb2 (1)
     |                                               |                |                              [2]{}: instr 0xb2-0xb4 (2)
0x0b0|      20                                       |                |                                opcode: "local.get" (0x20) 0xb2-0xb3 (1)
0x0b0|         01                                    |   .            |                                x: 1 (valid) 0xb3-0xb4 (1)
     |                                               |                |                              [3]{}: instr 0xb4-0xb7 (3)
0x0b0|            38                                 |    8           |                                opcode: "f32.store" (0x38) 0xb4-0xb5 (1)
     |                                               |                |                                m{}: 0xb5-0xb7 (2)
0x0b0|               00                              |     .          |                                  a: 0 (valid) 0xb5-0xb6 (1)
0x0b0|                  00                           |      .         |                                  o: 0 (valid) 0xb6-0xb7 (1)
     |                                               |                |                              [4]{}: instr 0xb7-0xb9 (2)
0x0b0|                     41                        |       A        |                                opcode: "i32.const" (0x41) 0xb7-0xb8 (1)
0x0b0|                        00                     |        .       |                                n: 0 (valid) 0xb8-0xb9 (1)
     |                                               |                |                              [5]{}: instr 0xb9-0xbc (3)
0x0b0|                           2a                  |         *      |                                opcode: "f32.load" (0x2a) 0xb9-0xba (1)
     |                                               |                |                                m{}: 0xba-0xbc (2)
0x0b0|                              00               |          .     |                                  a: 0 (valid) 0xba-0xbb (1)
0x0b0|                                 00            |           .    |                                  o: 0 (valid) 0xbb-0xbc (1)
     |                                               |                |                              [6]{}: instr 0xbc-0xbe (2)
0x0b0|                                    21         |            !   |                                opcode: "local.set" (0x21) 0xbc-0xbd (1)
0x0b0|                                       02      |             .  |                                x: 2 (valid) 0xbd-0xbe (1)
     |                                               |                |                              [7]{}: instr 0xbe-0xc0 (2)
0x0b0|                                          0c   |              . |                                opcode: "br" (0xc) 0xbe-0xbf (1)
0x0b0|                                             02|               .|                                l: 2 (valid) 0xbf-0xc0 (1)
0x0c0|0b                                             |.               |                            end: 0xb (valid) 0xc0-0xc1 (1)
     |                                               |                |                          [1]{}: instr 0xc1-0xc3 (2)
0x0c0|   41                                          | A              |                            opcode: "i32.const" (0x41) 0xc1-0xc2 (1)
0x0c0|      00                                       |  .             |                            n: 0 (valid) 0xc2-0xc3 (1)
     |                                               |                |                          [2]{}: instr 0xc3-0xc5 (2)
0x0c0|         20                                    |                |                            opcode: "local.get" (0x20) 0xc3-0xc4 (1)
0x0c0|            01                                 |    .           |                            x: 1 (valid) 0xc4-0xc5 (1)
     |                                               |                |                          [3]{}: instr 0xc5-0xc8 (3)
0x0c0|               38                              |     8          |                            opcode: "f32.store" (0x38) 0xc5-0xc6 (1)
     |                                               |                |                            m{}: 0xc6-0xc8 (2)
0x0c0|                  01                           |      .         |                              a: 1 (valid) 0xc6-0xc7 (1)
0x0c0|                     00                        |       .        |                              o: 0 (valid) 0xc7-0xc8 (1)
     |                                               |                |                          [4]{}: instr 0xc8-0xca (2)
0x0c0|                        41                     |        A       |                            opcode: "i32.const" (0x41) 0xc8-0xc9 (1)
0x0c0|                           00                  |         .      |                            n: 0 (valid) 0xc9-0xca (1)
     |                                               |                |                          [5]{}: instr 0xca-0xcd (3)
0x0c0|                              2a               |          *     |                            opcode: "f32.load" (0x2a) 0xca-0xcb (1)
     |                                               |                |                            m{}: 0xcb-0xcd (2)
0x0c0|                                 01            |           .    |                              a: 1 (valid) 0xcb-0xcc (1)
0x0c0|                                    00         |            .   |                              o: 0 (valid) 0xcc-0xcd (1)
     |                                               |                |                          [6]{}: instr 0xcd-0xcf (2)
0x0c0|                                       21      |             !  |                            opcode: "local.set" (0x21) 0xcd-0xce (1)
0x0c0|                                          02   |              . |                            x: 2 (valid) 0xce-0xcf (1)
     |                                               |                |                          [7]{}: instr 0xcf-0xd1 (2)
0x0c0|                                             0c|               .|                            opcode: "br" (0xc) 0xcf-0xd0 (1)
0x0d0|01                                             |.               |                            l: 1 (valid) 0xd0-0xd1 (1)
0x0d0|   0b                                          | .              |                        end: 0xb (valid) 0xd1-0xd2 (1)
     |                                               |                |                      [1]{}: instr 0xd2-0xd4 (2)
0x0d0|      41                                       |  A             |                        opcode: "i32.const" (0x41) 0xd2-0xd3 (1)
0x0d0|         00                                    |   .            |                        n: 0 (valid) 0xd3-0xd4 (1)
     |                                               |                |                      [2]{}: instr 0xd4-0xd6 (2)
0x0d0|            20                                 |                |                        opcode: "local.get" (0x20) 0xd4-0xd5 (1)
0x0d0|               01                              |     .          |                        x: 1 (valid) 0xd5-0xd6 (1)
     |                                               |                |                      [3]{}: instr 0xd6-0xd9 (3)
0x0d0|                  38                           |      8         |                        opcode: "f32.store" (0x38) 0xd6-0xd7 (1)
     |                                               |                |                        m{}: 0xd7-0xd9 (2)
0x0d0|                     02                        |       .        |                          a: 2 (valid) 0xd7-0xd8 (1)
0x0d0|                        00                     |        .       |                          o: 0 (valid) 0xd8-0xd9 (1)
     |                                               |                |                      [4]{}: instr 0xd9-0xdb (2)
0x0d0|                           41                  |         A      |                        opcode: "i32.const" (0x41) 0xd9-0xda (1)
0x0d0|                              00               |          .     |                        n: 0 (valid) 0xda-0xdb (1)
     |                                               |                |                      [5]{}: instr 0xdb-0xde (3)
0x0d0|                                 2a            |           *    |                        opcode: "f32.load" (0x2a) 0xdb-0xdc (1)
     |                                               |                |                        m{}: 0xdc-0xde (2)
0x0d0|                                    02         |            .   |                          a: 2 (valid) 0xdc-0xdd (1)
0x0d0|                                       00      |             .  |                          o: 0 (valid) 0xdd-0xde (1)
     |                                               |                |                      [6]{}: instr 0xde-0xe0 (2)
0x0d0|                                          21   |              ! |                        opcode: "local.set" (0x21) 0xde-0xdf (1)
0x0d0|                                             02|               .|                        x: 2 (valid) 0xdf-0xe0 (1)
0x0e0|0b                                             |.               |                    end: 0xb (valid) 0xe0-0xe1 (1)
     |                                               |                |                  [3]{}: in 0xe1-0xe3 (2)
0x0e0|   20                                          |                |                    opcode: "local.get" (0x20) 0xe1-0xe2 (1)
0x0e0|      02                                       |  .             |                    x: 2 (valid) 0xe2-0xe3 (1)
     |                                               |                |                  [4]{}: in 0xe3-0xe4 (1)
0x0e0|         0b                                    |   .            |                    opcode: "end" (0xb) 0xe3-0xe4 (1)
     |                                               |                |            [1]{}: code 0xe4-0x160 (124)
0x0e0|            7b                                 |    {           |              size: 123 (valid) 0xe4-0xe5 (1)
     |                                               |                |              code{}: 0xe5-0x160 (123)
     |                                               |                |                t{}: 0xe5-0xe8 (3)
0x0e0|               01                              |     .          |                  n: 1 (valid) 0xe5-0xe6 (1)
     |                                               |                |                  x[0:1]: 0xe6-0xe8 (2)
     |                                               |                |                    [0]{}: t 0xe6-0xe8 (2)
0x0e0|                  02                           |      .         |                      n: 2 (valid) 0xe6-0xe7 (1)
0x0e0|                     7c                        |       |        |                      t: "f64" (0x7c) 0xe7-0xe8 (1)
     |                                               |                |                e[0:5]: 0xe8-0x160 (120)
     |                                               |                |                  [0]{}: in 0xe8-0xf1 (9)
0x0e0|                        44                     |        D       |                    opcode: "f64.const" (0x44) 0xe8-0xe9 (1)
0x0e0|                           00 00 00 00 00 00 24|         ......$|                    z: 10 0xe9-0xf1 (8)
0x0f0|40                                             |@               |
     |                                               |                |                  [1]{}: in 0xf1-0xf3 (2)
0x0f0|   21                                          | !              |                    opcode: "local.set" (0x21) 0xf1-0xf2 (1)
0x0f0|      01                                       |  .             |                    x: 1 (valid) 0xf2-0xf3 (1)
     |                                               |                |                  [2]{}: in 0xf3-0x15d (106)
0x0f0|         02                                    |   .            |                    opcode: "block" (0x2) 0xf3-0xf4 (1)
0x0f0|            40                                 |    @           |                    bt: "ε" (64) 0xf4-0xf5 (1)
     |                                               |                |                    instructions[0:7]: 0xf5-0x15c (103)
     |                                               |                |                      [0]{}: instr 0xf5-0x14e (89)
0x0f0|               02                              |     .          |                        opcode: "block" (0x2) 0xf5-0xf6 (1)
0x0f0|                  40                           |      @         |                        bt: "ε" (64) 0xf6-0xf7 (1)
     |                                               |                |                        instructions[0:8]: 0xf7-0x14d (86)
     |                                               |                |                          [0]{}: instr 0xf7-0x13d (70)
0x0f0|                     02                        |       .        |                            opcode: "block" (0x2) 0xf7-0xf8 (1)
0x0f0|                        40                     |        @       |                            bt: "ε" (64) 0xf8-0xf9 (1)
     |                                               |                |                            instructions[0:8]: 0xf9-0x13c (67)
     |                                               |                |                              [0]{}: instr 0xf9-0x12c (51)
0x0f0|                           02                  |         .      |                                opcode: "block" (0x2) 0xf9-0xfa (1)
0x0f0|                              40               |          @     |                                bt: "ε" (64) 0xfa-0xfb (1)
     |                                               |                |                                instructions[0:8]: 0xfb-0x12b (48)
     |                                               |                |                                  [0]{}: instr 0xfb-0x11b (32)
0x0f0|                                 02            |           .    |                                    opcode: "block" (0x2) 0xfb-0xfc (1)
0x0f0|                                    40         |            @   |                                    bt: "ε" (64) 0xfc-0xfd (1)
     |                                               |                |                                    instructions[0:8]: 0xfd-0x11a (29)
     |                                               |                |                                      [0]{}: instr 0xfd-0x10a (13)
0x0f0|                                       02      |             .  |                                        opcode: "block" (0x2) 0xfd-0xfe (1)
0x0f0|                                          40   |              @ |                                        bt: "ε" (64) 0xfe-0xff (1)
     |                                               |                |                                        instructions[0:2]: 0xff-0x109 (10)
     |                                               |                |                                          [0]{}: instr 0xff-0x101 (2)
0x0f0|                                             20|                |                                            opcode: "local.get" (0x20) 0xff-0x100 (1)
0x100|00                                             |.               |                                            x: 0 (valid) 0x100-0x101 (1)
     |                                               |                |                                          [1]{}: instr 0x101-0x109 (8)
0x100|   0e                                          | .              |                                            opcode: "br_table" (0xe) 0x101-0x102 (1)
     |                                               |                |                                            l{}: 0x102-0x108 (6)
0x100|      05                                       |  .             |                                              n: 5 (valid) 0x102-0x103 (1)
     |                                               |                |                                              x[0:5]: 0x103-0x108 (5)
0x100|         00                                    |   .            |                                                [0]: 0 l (valid) 0x103-0x104 (1)
0x100|            01                                 |    .           |                                                [1]: 1 l (valid) 0x104-0x105 (1)
0x100|               02                              |     .          |                                                [2]: 2 l (valid) 0x105-0x106 (1)
0x100|                  03                           |      .         |                                                [3]: 3 l (valid) 0x106-0x107 (1)
0x100|                     04                        |       .        |                                                [4]: 4 l (valid) 0x107-0x108 (1)
0x100|                        05                     |        .       |                                            lN: 5 (valid) 0x108-0x109 (1)
0x100|                           0b                  |         .      |                                        end: 0xb (valid) 0x109-0x10a (1)
     |                                               |                |                                      [1]{}: instr 0x10a-0x10c (2)
0x100|                              41               |          A     |                                        opcode: "i32.const" (0x41) 0x10a-0x10b (1)
0x100|                                 00            |           .    |                                        n: 0 (valid) 0x10b-0x10c (1)
     |                                               |                |                                      [2]{}: instr 0x10c-0x10e (2)
0x100|                                    20         |                |                                        opcode: "local.get" (0x20) 0x10c-0x10d (1)
0x100|                                       01      |             .  |                                        x: 1 (valid) 0x10d-0x10e (1)
     |                                               |                |                                      [3]{}: instr 0x10e-0x111 (3)
0x100|                                          39   |              9 |                                        opcode: "f64.store" (0x39) 0x10e-0x10f (1)
     |                                               |                |                                        m{}: 0x10f-0x111 (2)
0x100|                                             03|               .|                                          a: 3 (valid) 0x10f-0x110 (1)
0x110|00                                             |.               |                                          o: 0 (valid) 0x110-0x111 (1)
     |                                               |                |                                      [4]{}: instr 0x111-0x113 (2)
0x110|   41                                          | A              |                                        opcode: "i32.const" (0x41) 0x111-0x112 (1)
0x110|      00                                       |  .             |                                        n: 0 (valid) 0x112-0x113 (1)
     |                                               |                |                                      [5]{}: instr 0x113-0x116 (3)
0x110|         2b                                    |   +            |                                        opcode: "f64.load" (0x2b) 0x113-0x114 (1)
     |                                               |                |                                        m{}: 0x114-0x116 (2)
0x110|            03                                 |    .           |                                          a: 3 (valid) 0x114-0x115 (1)
0x110|               00                              |     .          |                                          o: 0 (valid) 0x115-0x116 (1)
     |                                               |                |                                      [6]{}: instr 0x116-0x118 (2)
0x110|                  21                           |      !         |                                        opcode: "local.set" (0x21) 0x116-0x117 (1)
0x110|                     02                        |       .        |                                        x: 2 (valid) 0x117-0x118 (1)
     |                                               |                |                                      [7]{}: instr 0x118-0x11a (2)
0x110|                        0c                     |        .       |                                        opcode: "br" (0xc) 0x118-0x119 (1)
0x110|                           04                  |         .      |                                        l: 4 (valid) 0x119-0x11a (1)
0x110|                              0b               |          .     |                                    end: 0xb (valid) 0x11a-0x11b (1)
     |                                               |                |                                  [1]{}: instr 0x11b-0x11d (2)
0x110|                                 41            |           A    |                                    opcode: "i32.const" (0x41) 0x11b-0x11c (1)
0x110|                                    00         |            .   |                                    n: 0 (valid) 0x11c-0x11d (1)
     |                                               |                |                                  [2]{}: instr 0x11d-0x11f (2)
0x110|                                       20      |                |                                    opcode: "local.get" (0x20) 0x11d-0x11e (1)
0x110|                                          01   |              . |                                    x: 1 (valid) 0x11e-0x11f (1)
     |                                               |                |                                  [3]{}: instr 0x11f-0x122 (3)
0x110|                                             39|               9|                                    opcode: "f64.store" (0x39) 0x11f-0x120 (1)
     |                                               |                |                                    m{}: 0x120-0x122 (2)
0x120|00                                             |.               |                                      a: 0 (valid) 0x120-0x121 (1)
0x120|   00                                          | .              |                                      o: 0 (valid) 0x121-0x122 (1)
     |                                               |                |                                  [4]{}: instr 0x122-0x124 (2)
0x120|      41                                       |  A             |                                    opcode: "i32.const" (0x41) 0x122-0x123 (1)
0x120|         00                                    |   .            |                                    n: 0 (valid) 0x123-0x124 (1)
     |                                               |                |                                  [5]{}: instr 0x124-0x127 (3)
0x120|            2b                                 |    +           |                                    opcode: "f64.load" (0x2b) 0x124-0x125 (1)
     |                                               |                |                                    m{}: 0x125-0x127 (2)
0x120|               00                              |     .          |                                      a: 0 (valid) 0x125-0x126 (1)
0x120|                  00                           |      .         |                                      o: 0 (valid) 0x126-0x127 (1)
     |                                               |                |                                  [6]{}: instr 0x127-0x129 (2)
0x120|                     21                        |       !        |                                    opcode: "local.set" (0x21) 0x127-0x128 (1)
0x120|                        02                     |        .       |                                    x: 2 (valid) 0x128-0x129 (1)
     |                                               |                |                                  [7]{}: instr 0x129-0x12b (2)
0x120|                           0c                  |         .      |                                    opcode: "br" (0xc) 0x129-0x12a (1)
0x120|                              03               |          .     |                                    l: 3 (valid) 0x12a-0x12b (1)
0x120|                                 0b            |           .    |                                end: 0xb (valid) 0x12b-0x12c (1)
     |                                               |                |                              [1]{}: instr 0x12c-0x12e (2)
0x120|                                    41         |            A   |                                opcode: "i32.const" (0x41) 0x12c-0x12d (1)
0x120|                                       00      |             .  |                                n: 0 (valid) 0x12d-0x12e (1)
     |                                               |                |                              [2]{}: instr 0x12e-0x130 (2)
0x120|                                          20   |                |                                opcode: "local.get" (0x20) 0x12e-0x12f (1)
0x120|                                             01|               .|                                x: 1 (valid) 0x12f-0x130 (1)
     |                                               |                |                              [3]{}: instr 0x130-0x133 (3)
0x130|39                                             |9               |                                opcode: "f64.store" (0x39) 0x130-0x131 (1)
     |                                               |                |                                m{}: 0x131-0x133 (2)
0x130|   01                                          | .              |                                  a: 1 (valid) 0x131-0x132 (1)
0x130|      00                                       |  .             |                                  o: 0 (valid) 0x132-0x133 (1)
     |                                               |                |                              [4]{}: instr 0x133-0x135 (2)
0x130|         41                                    |   A            |                                opcode: "i32.const" (0x41) 0x133-0x134 (1)
0x130|            00                                 |    .           |                                n: 0 (valid) 0x134-0x135 (1)
     |                                               |                |                              [5]{}: instr 0x135-0x138 (3)
0x130|               2b                              |     +          |                                opcode: "f64.load" (0x2b) 0x135-0x136 (1)
     |                                               |                |                                m{}: 0x136-0x138 (2)
0x130|                  01                           |      .         |                                  a: 1 (valid) 0x136-0x137 (1)
0x130|                     00                        |       .        |                                  o: 0 (valid) 0x137-0x138 (1)
     |                                               |                |                              [6]{}: instr 0x138-0x13a (2)
0x130|                        21                     |        !       |                                opcode: "local.set" (0x21) 0x138-0x139 (1)
0x130|                           02                  |         .      |                                x: 2 (valid) 0x139-0x13a (1)
     |                                               |                |                              [7]{}: instr 0x13a-0x13c (2)
0x130|                              0c               |          .     |                                opcode: "br" (0xc) 0x13a-0x13b (1)
0x130|                                 02            |           .    |                                l: 2 (valid) 0x13b-0x13c (1)
0x130|                                    0b         |            .   |                            end: 0xb (valid) 0x13c-0x13d (1)
     |                                               |                |                          [1]{}: instr 0x13d-0x13f (2)
0x130|                                       41      |             A  |                            opcode: "i32.const" (0x41) 0x13d-0x13e (1)
0x130|                                          00   |              . |                            n: 0 (valid) 0x13e-0x13f (1)
     |                                               |                |                          [2]{}: instr 0x13f-0x141 (2)
0x130|                                             20|                |                            opcode: "local.get" (0x20) 0x13f-0x140 (1)
0x140|01                                             |.               |                            x: 1 (valid) 0x140-0x141 (1)
     |                                               |                |                          [3]{}: instr 0x141-0x144 (3)
0x140|   39                                          | 9              |                            opcode: "f64.store" (0x39) 0x141-0x142 (1)
     |                                               |                |                            m{}: 0x142-0x144 (2)
0x140|      02                                       |  .             |                              a: 2 (valid) 0x142-0x143 (1)
0x140|         00                                    |   .            |                              o: 0 (valid) 0x143-0x144 (1)
     |                                               |                |                          [4]{}: instr 0x144-0x146 (2)
0x140|            41                                 |    A           |                            opcode: "i32.const" (0x41) 0x144-0x145 (1)
0x140|               00                              |     .          |                            n: 0 (valid) 0x145-0x146 (1)
     |                                               |                |                          [5]{}: instr 0x146-0x149 (3)
0x140|                  2b                           |      +         |                            opcode: "f64.load" (0x2b) 0x146-0x147 (1)
     |                                               |                |                            m{}: 0x147-0x149 (2)
0x140|                     02                        |       .        |                              a: 2 (valid) 0x147-0x148 (1)
0x140|                        00                     |        .       |                              o: 0 (valid) 0x148-0x149 (1)
     |                                               |                |                          [6]{}: instr 0x149-0x14b (2)
0x140|                           21                  |         !      |                            opcode: "local.set" (0x21) 0x149-0x14a (1)
0x140|                              02               |          .     |                            x: 2 (valid) 0x14a-0x14b (1)
     |                                               |                |                          [7]{}: instr 0x14b-0x14d (2)
0x140|                                 0c            |           .    |                            opcode: "br" (0xc) 0x14b-0x14c (1)
0x140|                                    01         |            .   |                            l: 1 (valid) 0x14c-0x14d (1)
0x140|                                       0b      |             .  |                        end: 0xb (valid) 0x14d-0x14e (1)
     |                                               |                |                      [1]{}: instr 0x14e-0x150 (2)
0x140|                                          41   |              A |                        opcode: "i32.const" (0x41) 0x14e-0x14f (1)
0x140|                                             00|               .|                        n: 0 (valid) 0x14f-0x150 (1)
     |                                               |                |                      [2]{}: instr 0x150-0x152 (2)
0x150|20                                             |                |                        opcode: "local.get" (0x20) 0x150-0x151 (1)
0x150|   01                                          | .              |                        x: 1 (valid) 0x151-0x152 (1)
     |                                               |                |                      [3]{}: instr 0x152-0x155 (3)
0x150|      39                                       |  9             |                        opcode: "f64.store" (0x39) 0x152-0x153 (1)
     |                                               |                |                        m{}: 0x153-0x155 (2)
0x150|         03                                    |   .            |                          a: 3 (valid) 0x153-0x154 (1)
0x150|            00                                 |    .           |                          o: 0 (valid) 0x154-0x155 (1)
     |                                               |                |                      [4]{}: instr 0x155-0x157 (2)
0x150|               41                              |     A          |                        opcode: "i32.const" (0x41) 0x155-0x156 (1)
0x150|                  00                           |      .         |                        n: 0 (valid) 0x156-0x157 (1)
     |                                               |                |                      [5]{}: instr 0x157-0x15a (3)
0x150|                     2b                        |       +        |                        opcode: "f64.load" (0x2b) 0x157-0x158 (1)
     |                                               |                |                        m{}: 0x158-0x15a (2)
0x150|                        03                     |        .       |                          a: 3 (valid) 0x158-0x159 (1)
0x150|                           00                  |         .      |                          o: 0 (valid) 0x159-0x15a (1)
     |                                               |                |                      [6]{}: instr 0x15a-0x15c (2)
0x150|                              21               |          !     |                        opcode: "local.set" (0x21) 0x15a-0x15b (1)
0x150|                                 02            |           .    |                        x: 2 (valid) 0x15b-0x15c (1)
0x150|                                    0b         |            .   |                    end: 0xb (valid) 0x15c-0x15d (1)
     |                                               |                |                  [3]{}: in 0x15d-0x15f (2)
0x150|                                       20      |                |                    opcode: "local.get" (0x20) 0x15d-0x15e (1)
0x150|                                          02   |              . |                    x: 2 (valid) 0x15e-0x15f (1)
     |                                               |                |                  [4]{}: in 0x15f-0x160 (1)
0x150|                                             0b|               .|                    opcode: "end" (0xb) 0x15f-0x160 (1)
     |                                               |                |            [2]{}: code 0x160-0x2c4 (356)
0x160|e2 02                                          |..              |              size: 354 (valid) 0x160-0x162 (2)
     |                                               |                |              code{}: 0x162-0x2c4 (354)
     |                                               |                |                t{}: 0x162-0x165 (3)
0x160|      01                                       |  .             |                  n: 1 (valid) 0x162-0x163 (1)
     |                                               |                |                  x[0:1]: 0x163-0x165 (2)
     |                                               |                |                    [0]{}: t 0x163-0x165 (2)
0x160|         02                                    |   .            |                      n: 2 (valid) 0x163-0x164 (1)
0x160|            7f                                 |    .           |                      t: "i32" (0x7f) 0x164-0x165 (1)
     |                                               |                |                e[0:5]: 0x165-0x2c4 (351)
     |                                               |                |                  [0]{}: in 0x165-0x167 (2)
0x160|               41                              |     A          |                    opcode: "i32.const" (0x41) 0x165-0x166 (1)
0x160|                  0a                           |      .         |                    n: 10 (valid) 0x166-0x167 (1)
     |                                               |                |                  [1]{}: in 0x167-0x169 (2)
0x160|                     21                        |       !        |                    opcode: "local.set" (0x21) 0x167-0x168 (1)
0x160|                        02                     |        .       |                    x: 2 (valid) 0x168-0x169 (1)
     |                                               |                |                  [2]{}: in 0x169-0x2c1 (344)
0x160|                           02                  |         .      |                    opcode: "block" (0x2) 0x169-0x16a (1)
0x160|                              40               |          @     |                    bt: "ε" (64) 0x16a-0x16b (1)
     |                                               |                |                    instructions[0:17]: 0x16b-0x2c0 (341)
     |                                               |                |                      [0]{}: instr 0x16b-0x268 (253)
0x160|                                 02            |           .    |                        opcode: "block" (0x2) 0x16b-0x16c (1)
0x160|                                    40         |            @   |                        bt: "ε" (64) 0x16c-0x16d (1)
     |                                               |                |                        instructions[0:14]: 0x16d-0x267 (250)
     |                                               |                |                          [0]{}: instr 0x16d-0x223 (182)
0x160|                                       02      |             .  |                            opcode: "block" (0x2) 0x16d-0x16e (1)
0x160|                                          40   |              @ |                            bt: "ε" (64) 0x16e-0x16f (1)
     |                                               |                |                            instructions[0:14]: 0x16f-0x222 (179)
     |                                               |                |                              [0]{}: instr 0x16f-0x1de (111)
0x160|                                             02|               .|                                opcode: "block" (0x2) 0x16f-0x170 (1)
0x170|40                                             |@               |                                bt: "ε" (64) 0x170-0x171 (1)
     |                                               |                |                                instructions[0:10]: 0x171-0x1dd (108)
     |                                               |                |                                  [0]{}: instr 0x171-0x1af (62)
0x170|   02                                          | .              |                                    opcode: "block" (0x2) 0x171-0x172 (1)
0x170|      40                                       |  @             |                                    bt: "ε" (64) 0x172-0x173 (1)
     |                                               |                |                                    instructions[0:10]: 0x173-0x1ae (59)
     |                                               |                |                                      [0]{}: instr 0x173-0x180 (13)
0x170|         02                                    |   .            |                                        opcode: "block" (0x2) 0x173-0x174 (1)
0x170|            40                                 |    @           |                                        bt: "ε" (64) 0x174-0x175 (1)
     |                                               |                |                                        instructions[0:2]: 0x175-0x17f (10)
     |                                               |                |                                          [0]{}: instr 0x175-0x177 (2)
0x170|               20                              |                |                                            opcode: "local.get" (0x20) 0x175-0x176 (1)
0x170|                  00                           |      .         |                                            x: 0 (valid) 0x176-0x177 (1)
     |                                               |                |                                          [1]{}: instr 0x177-0x17f (8)
0x170|                     0e                        |       .        |                                            opcode: "br_table" (0xe) 0x177-0x178 (1)
     |                                               |                |                                            l{}: 0x178-0x17e (6)
0x170|                        05                     |        .       |                                              n: 5 (valid) 0x178-0x179 (1)
     |                                               |                |                                              x[0:5]: 0x179-0x17e (5)
0x170|                           00                  |         .      |                                                [0]: 0 l (valid) 0x179-0x17a (1)
0x170|                              01               |          .     |                                                [1]: 1 l (valid) 0x17a-0x17b (1)
0x170|                                 02            |           .    |                                                [2]: 2 l (valid) 0x17b-0x17c (1)
0x170|                                    03         |            .   |                                                [3]: 3 l (valid) 0x17c-0x17d (1)
0x170|                                       04      |             .  |                                                [4]: 4 l (valid) 0x17d-0x17e (1)
0x170|                                          05   |              . |                                            lN: 5 (valid) 0x17e-0x17f (1)
0x170|                                             0b|               .|                                        end: 0xb (valid) 0x17f-0x180 (1)
     |                                               |                |                                      [1]{}: instr 0x180-0x182 (2)
0x180|20                                             |                |                                        opcode: "local.get" (0x20) 0x180-0x181 (1)
0x180|   01                                          | .              |                                        x: 1 (valid) 0x181-0x182 (1)
     |                                               |                |                                      [2]{}: instr 0x182-0x184 (2)
0x180|      41                                       |  A             |                                        opcode: "i32.const" (0x41) 0x182-0x183 (1)
0x180|         00                                    |   .            |                                        n: 0 (valid) 0x183-0x184 (1)
     |                                               |                |                                      [3]{}: instr 0x184-0x185 (1)
0x180|            46                                 |    F           |                                        opcode: "i32.eq" (0x46) 0x184-0x185 (1)
     |                                               |                |                                      [4]{}: instr 0x185-0x196 (17)
0x180|               04                              |     .          |                                        opcode: "if" (0x4) 0x185-0x186 (1)
0x180|                  40                           |      @         |                                        bt: "ε" (64) 0x186-0x187 (1)
     |                                               |                |                                        in1[0:6]: 0x187-0x195 (14)
     |                                               |                |                                          [0]{}: instr 0x187-0x189 (2)
0x180|                     41                        |       A        |                                            opcode: "i32.const" (0x41) 0x187-0x188 (1)
0x180|                        00                     |        .       |                                            n: 0 (valid) 0x188-0x189 (1)
     |                                               |                |                                          [1]{}: instr 0x189-0x18b (2)
0x180|                           20                  |                |                                            opcode: "local.get" (0x20) 0x189-0x18a (1)
0x180|                              02               |          .     |                                            x: 2 (valid) 0x18a-0x18b (1)
     |                                               |                |                                          [2]{}: instr 0x18b-0x18e (3)
0x180|                                 3a            |           :    |                                            opcode: "i32.store8" (0x3a) 0x18b-0x18c (1)
     |                                               |                |                                            m{}: 0x18c-0x18e (2)
0x180|                                    00         |            .   |                                              a: 0 (valid) 0x18c-0x18d (1)
0x180|                                       00      |             .  |                                              o: 0 (valid) 0x18d-0x18e (1)
     |                                               |                |                                          [3]{}: instr 0x18e-0x190 (2)
0x180|                                          41   |              A |                                            opcode: "i32.const" (0x41) 0x18e-0x18f (1)
0x180|                                             00|               .|                                            n: 0 (valid) 0x18f-0x190 (1)
     |                                               |                |                                          [4]{}: instr 0x190-0x193 (3)
0x190|2c                                             |,               |                                            opcode: "i32.load8_s" (0x2c) 0x190-0x191 (1)
     |                                               |                |                                            m{}: 0x191-0x193 (2)
0x190|   00                                          | .              |                                              a: 0 (valid) 0x191-0x192 (1)
0x190|      00                                       |  .             |                                              o: 0 (valid) 0x192-0x193 (1)
     |                                               |                |                                          [5]{}: instr 0x193-0x195 (2)
0x190|         21                                    |   !            |                                            opcode: "local.set" (0x21) 0x193-0x194 (1)
0x190|            03                                 |    .           |                                            x: 3 (valid) 0x194-0x195 (1)
0x190|               0b                              |     .          |                                        end: 0xb (valid) 0x195-0x196 (1)
     |                                               |                |                                      [5]{}: instr 0x196-0x198 (2)
0x190|                  20                           |                |                                        opcode: "local.get" (0x20) 0x196-0x197 (1)
0x190|                     01                        |       .        |                                        x: 1 (valid) 0x197-0x198 (1)
     |                                               |                |                                      [6]{}: instr 0x198-0x19a (2)
0x190|                        41                     |        A       |                                        opcode: "i32.const" (0x41) 0x198-0x199 (1)
0x190|                           01                  |         .      |                                        n: 1 (valid) 0x199-0x19a (1)
     |                                               |                |                                      [7]{}: instr 0x19a-0x19b (1)
0x190|                              46               |          F     |                                        opcode: "i32.eq" (0x46) 0x19a-0x19b (1)
     |                                               |                |                                      [8]{}: instr 0x19b-0x1ac (17)
0x190|                                 04            |           .    |                                        opcode: "if" (0x4) 0x19b-0x19c (1)
0x190|                                    40         |            @   |                                        bt: "ε" (64) 0x19c-0x19d (1)
     |                                               |                |                                        in1[0:6]: 0x19d-0x1ab (14)
     |                                               |                |                                          [0]{}: instr 0x19d-0x19f (2)
0x190|                                       41      |             A  |                                            opcode: "i32.const" (0x41) 0x19d-0x19e (1)
0x190|                                          00   |              . |                                            n: 0 (valid) 0x19e-0x19f (1)
     |                                               |                |                                          [1]{}: instr 0x19f-0x1a1 (2)
0x190|                                             20|                |                                            opcode: "local.get" (0x20) 0x19f-0x1a0 (1)
0x1a0|02                                             |.               |                                            x: 2 (valid) 0x1a0-0x1a1 (1)
     |                                               |                |                                          [2]{}: instr 0x1a1-0x1a4 (3)
0x1a0|   3a                                          | :              |                                            opcode: "i32.store8" (0x3a) 0x1a1-0x1a2 (1)
     |                                               |                |                                            m{}: 0x1a2-0x1a4 (2)
0x1a0|      00                                       |  .             |                                              a: 0 (valid) 0x1a2-0x1a3 (1)
0x1a0|         00                                    |   .            |                                              o: 0 (valid) 0x1a3-0x1a4 (1)
     |                                               |                |                                          [3]{}: instr 0x1a4-0x1a6 (2)
0x1a0|            41                                 |    A           |                                            opcode: "i32.const" (0x41) 0x1a4-0x1a5 (1)
0x1a0|               00                              |     .          |                                            n: 0 (valid) 0x1a5-0x1a6 (1)
     |                                               |                |                                          [4]{}: instr 0x1a6-0x1a9 (3)
0x1a0|                  2c                           |      ,         |                                            opcode: "i32.load8_s" (0x2c) 0x1a6-0x1a7 (1)
     |                                               |                |                                            m{}: 0x1a7-0x1a9 (2)
0x1a0|                     00                        |       .        |                                              a: 0 (valid) 0x1a7-0x1a8 (1)
0x1a0|                        00                     |        .       |                                              o: 0 (valid) 0x1a8-0x1a9 (1)
     |                                               |                |                                          [5]{}: instr 0x1a9-0x1ab (2)
0x1a0|                           21                  |         !      |                                            opcode: "local.set" (0x21) 0x1a9-0x1aa (1)
0x1a0|                              03               |          .     |                                            x: 3 (valid) 0x1aa-0x1ab (1)
0x1a0|                                 0b            |           .    |                                        end: 0xb (valid) 0x1ab-0x1ac (1)
     |                                               |                |                                      [9]{}: instr 0x1ac-0x1ae (2)
0x1a0|                                    0c         |            .   |                                        opcode: "br" (0xc) 0x1ac-0x1ad (1)
0x1a0|                                       04      |             .  |                                        l: 4 (valid) 0x1ad-0x1ae (1)
0x1a0|                                          0b   |              . |                                    end: 0xb (valid) 0x1ae-0x1af (1)
     |                                               |                |                                  [1]{}: instr 0x1af-0x1b1 (2)
0x1a0|                                             20|                |                                    opcode: "local.get" (0x20) 0x1af-0x1b0 (1)
0x1b0|01                                             |.               |                                    x: 1 (valid) 0x1b0-0x1b1 (1)
     |                                               |                |                                  [2]{}: instr 0x1b1-0x1b3 (2)
0x1b0|   41                                          | A              |                                    opcode: "i32.const" (0x41) 0x1b1-0x1b2 (1)
0x1b0|      00                                       |  .             |                                    n: 0 (valid) 0x1b2-0x1b3 (1)
     |                                               |                |                                  [3]{}: instr 0x1b3-0x1b4 (1)
0x1b0|         46                                    |   F            |                                    opcode: "i32.eq" (0x46) 0x1b3-0x1b4 (1)
     |                                               |                |                                  [4]{}: instr 0x1b4-0x1c5 (17)
0x1b0|            04                                 |    .           |                                    opcode: "if" (0x4) 0x1b4-0x1b5 (1)
0x1b0|               40                              |     @          |                                    bt: "ε" (64) 0x1b5-0x1b6 (1)
     |                                               |                |                                    in1[0:6]: 0x1b6-0x1c4 (14)
     |                                               |                |                                      [0]{}: instr 0x1b6-0x1b8 (2)
0x1b0|                  41                           |      A         |                                        opcode: "i32.const" (0x41) 0x1b6-0x1b7 (1)
0x1b0|                     00                        |       .        |                                        n: 0 (valid) 0x1b7-0x1b8 (1)
     |                                               |                |                                      [1]{}: instr 0x1b8-0x1ba (2)
0x1b0|                        20                     |                |                                        opcode: "local.get" (0x20) 0x1b8-0x1b9 (1)
0x1b0|                           02                  |         .      |                                        x: 2 (valid) 0x1b9-0x1ba (1)
     |                                               |                |                                      [2]{}: instr 0x1ba-0x1bd (3)
0x1b0|                              3a               |          :     |                                        opcode: "i32.store8" (0x3a) 0x1ba-0x1bb (1)
     |                                               |                |                                        m{}: 0x1bb-0x1bd (2)
0x1b0|                                 00            |           .    |                                          a: 0 (valid) 0x1bb-0x1bc (1)
0x1b0|                                    00         |            .   |                                          o: 0 (valid) 0x1bc-0x1bd (1)
     |                                               |                |                                      [3]{}: instr 0x1bd-0x1bf (2)
0x1b0|                                       41      |             A  |                                        opcode: "i32.const" (0x41) 0x1bd-0x1be (1)
0x1b0|                                          00   |              . |                                        n: 0 (valid) 0x1be-0x1bf (1)
     |                                               |                |                                      [4]{}: instr 0x1bf-0x1c2 (3)
0x1b0|                                             2d|               -|                                        opcode: "i32.load8_u" (0x2d) 0x1bf-0x1c0 (1)
     |                                               |                |                                        m{}: 0x1c0-0x1c2 (2)
0x1c0|00                                             |.               |                                          a: 0 (valid) 0x1c0-0x1c1 (1)
0x1c0|   00                                          | .              |                                          o: 0 (valid) 0x1c1-0x1c2 (1)
     |                                               |                |                                      [5]{}: instr 0x1c2-0x1c4 (2)
0x1c0|      21                                       |  !             |                                        opcode: "local.set" (0x21) 0x1c2-0x1c3 (1)
0x1c0|         03                                    |   .            |                                        x: 3 (valid) 0x1c3-0x1c4 (1)
0x1c0|            0b                                 |    .           |                                    end: 0xb (valid) 0x1c4-0x1c5 (1)
     |                                               |                |                                  [5]{}: instr 0x1c5-0x1c7 (2)
0x1c0|               20                              |                |                                    opcode: "local.get" (0x20) 0x1c5-0x1c6 (1)
0x1c0|                  01                           |      .         |                                    x: 1 (valid) 0x1c6-0x1c7 (1)
     |                                               |                |                                  [6]{}: instr 0x1c7-0x1c9 (2)
0x1c0|                     41                        |       A        |                                    opcode: "i32.const" (0x41) 0x1c7-0x1c8 (1)
0x1c0|                        01                     |        .       |                                    n: 1 (valid) 0x1c8-0x1c9 (1)
     |                                               |                |                                  [7]{}: instr 0x1c9-0x1ca (1)
0x1c0|                           46                  |         F      |                                    opcode: "i32.eq" (0x46) 0x1c9-0x1ca (1)
     |                                               |                |                                  [8]{}: instr 0x1ca-0x1db (17)
0x1c0|                              04               |          .     |                                    opcode: "if" (0x4) 0x1ca-0x1cb (1)
0x1c0|                                 40            |           @    |                                    bt: "ε" (64) 0x1cb-0x1cc (1)
     |                                               |                |                                    in1[0:6]: 0x1cc-0x1da (14)
     |                                               |                |                                      [0]{}: instr 0x1cc-0x1ce (2)
0x1c0|                                    41         |            A   |                                        opcode: "i32.const" (0x41) 0x1cc-0x1cd (1)
0x1c0|                                       00      |             .  |                                        n: 0 (valid) 0x1cd-0x1ce (1)
     |                                               |                |                                      [1]{}: instr 0x1ce-0x1d0 (2)
0x1c0|                                          20   |                |                                        opcode: "local.get" (0x20) 0x1ce-0x1cf (1)
0x1c0|                                             02|               .|                                        x: 2 (valid) 0x1cf-0x1d0 (1)
     |                                               |                |                                      [2]{}: instr 0x1d0-0x1d3 (3)
0x1d0|3a                                             |:               |                                        opcode: "i32.store8" (0x3a) 0x1d0-0x1d1 (1)
     |                                               |                |                                        m{}: 0x1d1-0x1d3 (2)
0x1d0|   00                                          | .              |                                          a: 0 (valid) 0x1d1-0x1d2 (1)
0x1d0|      00                                       |  .             |                                          o: 0 (valid) 0x1d2-0x1d3 (1)
     |                                               |                |                                      [3]{}: instr 0x1d3-0x1d5 (2)
0x1d0|         41                                    |   A            |                                        opcode: "i32.const" (0x41) 0x1d3-0x1d4 (1)
0x1d0|            00                                 |    .           |                                        n: 0 (valid) 0x1d4-0x1d5 (1)
     |                                               |                |                                      [4]{}: instr 0x1d5-0x1d8 (3)
0x1d0|               2d                              |     -          |                                        opcode: "i32.load8_u" (0x2d) 0x1d5-0x1d6 (1)
     |                                               |                |                                        m{}: 0x1d6-0x1d8 (2)
0x1d0|                  00                           |      .         |                                          a: 0 (valid) 0x1d6-0x1d7 (1)
0x1d0|                     00                        |       .        |                                          o: 0 (valid) 0x1d7-0x1d8 (1)
     |                                               |                |                                      [5]{}: instr 0x1d8-0x1da (2)
0x1d0|                        21                     |        !       |                                        opcode: "local.set" (0x21) 0x1d8-0x1d9 (1)
0x1d0|                           03                  |         .      |                                        x: 3 (valid) 0x1d9-0x1da (1)
0x1d0|                              0b               |          .     |                                    end: 0xb (valid) 0x1da-0x1db (1)
     |                                               |                |                                  [9]{}: instr 0x1db-0x1dd (2)
0x1d0|                                 0c            |           .    |                                    opcode: "br" (0xc) 0x1db-0x1dc (1)
0x1d0|                                    03         |            .   |                                    l: 3 (valid) 0x1dc-0x1dd (1)
0x1d0|                                       0b      |             .  |                                end: 0xb (valid) 0x1dd-0x1de (1)
     |                                               |                |                              [1]{}: instr 0x1de-0x1e0 (2)
0x1d0|                                          20   |                |                                opcode: "local.get" (0x20) 0x1de-0x1df (1)
0x1d0|                                             01|               .|                                x: 1 (valid) 0x1df-0x1e0 (1)
     |                                               |                |                              [2]{}: instr 0x1e0-0x1e2 (2)
0x1e0|41                                             |A               |                                opcode: "i32.const" (0x41) 0x1e0-0x1e1 (1)
0x1e0|   00                                          | .              |                                n: 0 (valid) 0x1e1-0x1e2 (1)
     |                                               |                |                              [3]{}: instr 0x1e2-0x1e3 (1)
0x1e0|      46                                       |  F             |                                opcode: "i32.eq" (0x46) 0x1e2-0x1e3 (1)
     |                                               |                |                              [4]{}: instr 0x1e3-0x1f4 (17)
0x1e0|         04                                    |   .            |                                opcode: "if" (0x4) 0x1e3-0x1e4 (1)
0x1e0|            40                                 |    @           |                                bt: "ε" (64) 0x1e4-0x1e5 (1)
     |                                               |                |                                in1[0:6]: 0x1e5-0x1f3 (14)
     |                                               |                |                                  [0]{}: instr 0x1e5-0x1e7 (2)
0x1e0|               41                              |     A          |                                    opcode: "i32.const" (0x41) 0x1e5-0x1e6 (1)
0x1e0|                  00                           |      .         |                                    n: 0 (valid) 0x1e6-0x1e7 (1)
     |                                               |                |                                  [1]{}: instr 0x1e7-0x1e9 (2)
0x1e0|                     20                        |                |                                    opcode: "local.get" (0x20) 0x1e7-0x1e8 (1)
0x1e0|                        02                     |        .       |                                    x: 2 (valid) 0x1e8-0x1e9 (1)
     |                                               |                |                                  [2]{}: instr 0x1e9-0x1ec (3)
0x1e0|                           3b                  |         ;      |                                    opcode: "i32.store16" (0x3b) 0x1e9-0x1ea (1)
     |                                               |                |                                    m{}: 0x1ea-0x1ec (2)
0x1e0|                              01               |          .     |                                      a: 1 (valid) 0x1ea-0x1eb (1)
0x1e0|                                 00            |           .    |                                      o: 0 (valid) 0x1eb-0x1ec (1)
     |                                               |                |                                  [3]{}: instr 0x1ec-0x1ee (2)
0x1e0|                                    41         |            A   |                                    opcode: "i32.const" (0x41) 0x1ec-0x1ed (1)
0x1e0|                                       00      |             .  |                                    n: 0 (valid) 0x1ed-0x1ee (1)
     |                                               |                |                                  [4]{}: instr 0x1ee-0x1f1 (3)
0x1e0|                                          2e   |              . |                                    opcode: "i32.load16_s" (0x2e) 0x1ee-0x1ef (1)
     |                                               |                |                                    m{}: 0x1ef-0x1f1 (2)
0x1e0|                                             01|               .|                                      a: 1 (valid) 0x1ef-0x1f0 (1)
0x1f0|00                                             |.               |                                      o: 0 (valid) 0x1f0-0x1f1 (1)
     |                                               |                |                                  [5]{}: instr 0x1f1-0x1f3 (2)
0x1f0|   21                                          | !              |                                    opcode: "local.set" (0x21) 0x1f1-0x1f2 (1)
0x1f0|      03                                       |  .             |                                    x: 3 (valid) 0x1f2-0x1f3 (1)
0x1f0|         0b                                    |   .            |                                end: 0xb (valid) 0x1f3-0x1f4 (1)
     |                                               |                |                              [5]{}: instr 0x1f4-0x1f6 (2)
0x1f0|            20                                 |                |                                opcode: "local.get" (0x20) 0x1f4-0x1f5 (1)
0x1f0|               01                              |     .          |                                x: 1 (valid) 0x1f5-0x1f6 (1)
     |                                               |                |                              [6]{}: instr 0x1f6-0x1f8 (2)
0x1f0|                  41                           |      A         |                                opcode: "i32.const" (0x41) 0x1f6-0x1f7 (1)
0x1f0|                     01                        |       .        |                                n: 1 (valid) 0x1f7-0x1f8 (1)
     |                                               |                |                              [7]{}: instr 0x1f8-0x1f9 (1)
0x1f0|                        46                     |        F       |                                opcode: "i32.eq" (0x46) 0x1f8-0x1f9 (1)
     |                                               |                |                              [8]{}: instr 0x1f9-0x20a (17)
0x1f0|                           04                  |         .      |                                opcode: "if" (0x4) 0x1f9-0x1fa (1)
0x1f0|                              40               |          @     |                                bt: "ε" (64) 0x1fa-0x1fb (1)
     |                                               |                |                                in1[0:6]: 0x1fb-0x209 (14)
     |                                               |                |                                  [0]{}: instr 0x1fb-0x1fd (2)
0x1f0|                                 41            |           A    |                                    opcode: "i32.const" (0x41) 0x1fb-0x1fc (1)
0x1f0|                                    00         |            .   |                                    n: 0 (valid) 0x1fc-0x1fd (1)
     |                                               |                |                                  [1]{}: instr 0x1fd-0x1ff (2)
0x1f0|                                       20      |                |                                    opcode: "local.get" (0x20) 0x1fd-0x1fe (1)
0x1f0|                                          02   |              . |                                    x: 2 (valid) 0x1fe-0x1ff (1)
     |                                               |                |                                  [2]{}: instr 0x1ff-0x202 (3)
0x1f0|                                             3b|               ;|                                    opcode: "i32.store16" (0x3b) 0x1ff-0x200 (1)
     |                                               |                |                                    m{}: 0x200-0x202 (2)
0x200|00                                             |.               |                                      a: 0 (valid) 0x200-0x201 (1)
0x200|   00                                          | .              |                                      o: 0 (valid) 0x201-0x202 (1)
     |                                               |                |                                  [3]{}: instr 0x202-0x204 (2)
0x200|      41                                       |  A             |                                    opcode: "i32.const" (0x41) 0x202-0x203 (1)
0x200|         00                                    |   .            |                                    n: 0 (valid) 0x203-0x204 (1)
     |                                               |                |                                  [4]{}: instr 0x204-0x207 (3)
0x200|            2e                                 |    .           |                                    opcode: "i32.load16_s" (0x2e) 0x204-0x205 (1)
     |                                               |                |                                    m{}: 0x205-0x207 (2)
0x200|               00                              |     .          |                                      a: 0 (valid) 0x205-0x206 (1)
0x200|                  00                           |      .         |                                      o: 0 (valid) 0x206-0x207 (1)
     |                                               |                |                                  [5]{}: instr 0x207-0x209 (2)
0x200|                     21                        |       !        |                                    opcode: "local.set" (0x21) 0x207-0x208 (1)
0x200|                        03                     |        .       |                                    x: 3 (valid) 0x208-0x209 (1)
0x200|                           0b                  |         .      |                                end: 0xb (valid) 0x209-0x20a (1)
     |                                               |                |                              [9]{}: instr 0x20a-0x20c (2)
0x200|                              20               |                |                                opcode: "local.get" (0x20) 0x20a-0x20b (1)
0x200|                                 01            |           .    |                                x: 1 (valid) 0x20b-0x20c (1)
     |                                               |                |                              [10]{}: instr 0x20c-0x20e (2)
0x200|                                    41         |            A   |                                opcode: "i32.const" (0x41) 0x20c-0x20d (1)
0x200|                                       02      |             .  |                                n: 2 (valid) 0x20d-0x20e (1)
     |                                               |                |                              [11]{}: instr 0x20e-0x20f (1)
0x200|                                          46   |              F |                                opcode: "i32.eq" (0x46) 0x20e-0x20f (1)
     |                                               |                |                              [12]{}: instr 0x20f-0x220 (17)
0x200|                                             04|               .|                                opcode: "if" (0x4) 0x20f-0x210 (1)
0x210|40                                             |@               |                                bt: "ε" (64) 0x210-0x211 (1)
     |                                               |                |                                in1[0:6]: 0x211-0x21f (14)
     |                                               |                |                                  [0]{}: instr 0x211-0x213 (2)
0x210|   41                                          | A              |                                    opcode: "i32.const" (0x41) 0x211-0x212 (1)
0x210|      00                                       |  .             |                                    n: 0 (valid) 0x212-0x213 (1)
     |                                               |                |                                  [1]{}: instr 0x213-0x215 (2)
0x210|         20                                    |                |                                    opcode: "local.get" (0x20) 0x213-0x214 (1)
0x210|            02                                 |    .           |                                    x: 2 (valid) 0x214-0x215 (1)
     |                                               |                |                                  [2]{}: instr 0x215-0x218 (3)
0x210|               3b                              |     ;          |                                    opcode: "i32.store16" (0x3b) 0x215-0x216 (1)
     |                                               |                |                                    m{}: 0x216-0x218 (2)
0x210|                  01                           |      .         |                                      a: 1 (valid) 0x216-0x217 (1)
0x210|                     00                        |       .        |                                      o: 0 (valid) 0x217-0x218 (1)
     |                                               |                |                                  [3]{}: instr 0x218-0x21a (2)
0x210|                        41                     |        A       |                                    opcode: "i32.const" (0x41) 0x218-0x219 (1)
0x210|                           00                  |         .      |                                    n: 0 (valid) 0x219-0x21a (1)
     |                                               |                |                                  [4]{}: instr 0x21a-0x21d (3)
0x210|                              2e               |          .     |                                    opcode: "i32.load16_s" (0x2e) 0x21a-0x21b (1)
     |                                               |                |                                    m{}: 0x21b-0x21d (2)
0x210|                                 01            |           .    |                                      a: 1 (valid) 0x21b-0x21c (1)
0x210|                                    00         |            .   |                                      o: 0 (valid) 0x21c-0x21d (1)
     |                                               |                |                                  [5]{}: instr 0x21d-0x21f (2)
0x210|                                       21      |             !  |                                    opcode: "local.set" (0x21) 0x21d-0x21e (1)
0x210|                                          03   |              . |                                    x: 3 (valid) 0x21e-0x21f (1)
0x210|                                             0b|               .|                                end: 0xb (valid) 0x21f-0x220 (1)
     |                                               |                |                              [13]{}: instr 0x220-0x222 (2)
0x220|0c                                             |.               |                                opcode: "br" (0xc) 0x220-0x221 (1)
0x220|   02                                          | .              |                                l: 2 (valid) 0x221-0x222 (1)
0x220|      0b                                       |  .             |                            end: 0xb (valid) 0x222-0x223 (1)
     |                                               |                |                          [1]{}: instr 0x223-0x225 (2)
0x220|         20                                    |                |                            opcode: "local.get" (0x20) 0x223-0x224 (1)
0x220|            01                                 |    .           |                            x: 1 (valid) 0x224-0x225 (1)
     |                                               |                |                          [2]{}: instr 0x225-0x227 (2)
0x220|               41                              |     A          |                            opcode: "i32.const" (0x41) 0x225-0x226 (1)
0x220|                  00                           |      .         |                            n: 0 (valid) 0x226-0x227 (1)
     |                                               |                |                          [3]{}: instr 0x227-0x228 (1)
0x220|                     46                        |       F        |                            opcode: "i32.eq" (0x46) 0x227-0x228 (1)
     |                                               |                |                          [4]{}: instr 0x228-0x239 (17)
0x220|                        04                     |        .       |                            opcode: "if" (0x4) 0x228-0x229 (1)
0x220|                           40                  |         @      |                            bt: "ε" (64) 0x229-0x22a (1)
     |                                               |                |                            in1[0:6]: 0x22a-0x238 (14)
     |                                               |                |                              [0]{}: instr 0x22a-0x22c (2)
0x220|                              41               |          A     |                                opcode: "i32.const" (0x41) 0x22a-0x22b (1)
0x220|                                 00            |           .    |                                n: 0 (valid) 0x22b-0x22c (1)
     |                                               |                |                              [1]{}: instr 0x22c-0x22e (2)
0x220|                                    20         |                |                                opcode: "local.get" (0x20) 0x22c-0x22d (1)
0x220|                                       02      |             .  |                                x: 2 (valid) 0x22d-0x22e (1)
     |                                               |                |                              [2]{}: instr 0x22e-0x231 (3)
0x220|                                          3b   |              ; |                                opcode: "i32.store16" (0x3b) 0x22e-0x22f (1)
     |                                               |                |                                m{}: 0x22f-0x231 (2)
0x220|                                             01|               .|                                  a: 1 (valid) 0x22f-0x230 (1)
0x230|00                                             |.               |                                  o: 0 (valid) 0x230-0x231 (1)
     |                                               |                |                              [3]{}: instr 0x231-0x233 (2)
0x230|   41                                          | A              |                                opcode: "i32.const" (0x41) 0x231-0x232 (1)
0x230|      00                                       |  .             |                                n: 0 (valid) 0x232-0x233 (1)
     |                                               |                |                              [4]{}: instr 0x233-0x236 (3)
0x230|         2f                                    |   /            |                                opcode: "i32.load16_u" (0x2f) 0x233-0x234 (1)
     |                                               |                |                                m{}: 0x234-0x236 (2)
0x230|            01                                 |    .           |                                  a: 1 (valid) 0x234-0x235 (1)
0x230|               00                              |     .          |                                  o: 0 (valid) 0x235-0x236 (1)
     |                                               |                |                              [5]{}: instr 0x236-0x238 (2)
0x230|                  21                           |      !         |                                opcode: "local.set" (0x21) 0x236-0x237 (1)
0x230|                     03                        |       .        |                                x: 3 (valid) 0x237-0x238 (1)
0x230|                        0b                     |        .       |                            end: 0xb (valid) 0x238-0x239 (1)
     |                                               |                |                          [5]{}: instr 0x239-0x23b (2)
0x230|                           20                  |                |                            opcode: "local.get" (0x20) 0x239-0x23a (1)
0x230|                              01               |          .     |                            x: 1 (valid) 0x23a-0x23b (1)
     |                                               |                |                          [6]{}: instr 0x23b-0x23d (2)
0x230|                                 41            |           A    |                            opcode: "i32.const" (0x41) 0x23b-0x23c (1)
0x230|                                    01         |            .   |                            n: 1 (valid) 0x23c-0x23d (1)
     |                                               |                |                          [7]{}: instr 0x23d-0x23e (1)
0x230|                                       46      |             F  |                            opcode: "i32.eq" (0x46) 0x23d-0x23e (1)
     |                                               |                |                          [8]{}: instr 0x23e-0x24f (17)
0x230|                                          04   |              . |                            opcode: "if" (0x4) 0x23e-0x23f (1)
0x230|                                             40|               @|                            bt: "ε" (64) 0x23f-0x240 (1)
     |                                               |                |                            in1[0:6]: 0x240-0x24e (14)
     |                                               |                |                              [0]{}: instr 0x240-0x242 (2)
0x240|41                                             |A               |                                opcode: "i32.const" (0x41) 0x240-0x241 (1)
0x240|   00                                          | .              |                                n: 0 (valid) 0x241-0x242 (1)
     |                                               |                |                              [1]{}: instr 0x242-0x244 (2)
0x240|      20                                       |                |                                opcode: "local.get" (0x20) 0x242-0x243 (1)
0x240|         02                                    |   .            |                                x: 2 (valid) 0x243-0x244 (1)
     |                                               |                |                              [2]{}: instr 0x244-0x247 (3)
0x240|            3b                                 |    ;           |                                opcode: "i32.store16" (0x3b) 0x244-0x245 (1)
     |                                               |                |                                m{}: 0x245-0x247 (2)
0x240|               00                              |     .          |                                  a: 0 (valid) 0x245-0x246 (1)
0x240|                  00                           |      .         |                                  o: 0 (valid) 0x246-0x247 (1)
     |                                               |                |                              [3]{}: instr 0x247-0x249 (2)
0x240|                     41                        |       A        |                                opcode: "i32.const" (0x41) 0x247-0x248 (1)
0x240|                        00                     |        .       |                                n: 0 (valid) 0x248-0x249 (1)
     |                                               |                |                              [4]{}: instr 0x249-0x24c (3)
0x240|                           2f                  |         /      |                                opcode: "i32.load16_u" (0x2f) 0x249-0x24a (1)
     |                                               |                |                                m{}: 0x24a-0x24c (2)
0x240|                              00               |          .     |                                  a: 0 (valid) 0x24a-0x24b (1)
0x240|                                 00            |           .    |                                  o: 0 (valid) 0x24b-0x24c (1)
     |                                               |                |                              [5]{}: instr 0x24c-0x24e (2)
0x240|                                    21         |            !   |                                opcode: "local.set" (0x21) 0x24c-0x24d (1)
0x240|                                       03      |             .  |                                x: 3 (valid) 0x24d-0x24e (1)
0x240|                                          0b   |              . |                            end: 0xb (valid) 0x24e-0x24f (1)
     |                                               |                |                          [9]{}: instr 0x24f-0x251 (2)
0x240|                                             20|                |                            opcode: "local.get" (0x20) 0x24f-0x250 (1)
0x250|01                                             |.               |                            x: 1 (valid) 0x250-0x251 (1)
     |                                               |                |                          [10]{}: instr 0x251-0x253 (2)
0x250|   41                                          | A              |                            opcode: "i32.const" (0x41) 0x251-0x252 (1)
0x250|      02                                       |  .             |                            n: 2 (valid) 0x252-0x253 (1)
     |                                               |                |                          [11]{}: instr 0x253-0x254 (1)
0x250|         46                                    |   F            |                            opcode: "i32.eq" (0x46) 0x253-0x254 (1)
     |                                               |                |                          [12]{}: instr 0x254-0x265 (17)
0x250|            04                                 |    .           |                            opcode: "if" (0x4) 0x254-0x255 (1)
0x250|               40                              |     @          |                            bt: "ε" (64) 0x255-0x256 (1)
     |                                               |                |                            in1[0:6]: 0x256-0x264 (14)
     |                                               |                |                              [0]{}: instr 0x256-0x258 (2)
0x250|                  41                           |      A         |                                opcode: "i32.const" (0x41) 0x256-0x257 (1)
0x250|                     00                        |       .        |                                n: 0 (valid) 0x257-0x258 (1)
     |                                               |                |                              [1]{}: instr 0x258-0x25a (2)
0x250|                        20                     |                |                                opcode: "local.get" (0x20) 0x258-0x259 (1)
0x250|                           02                  |         .      |                                x: 2 (valid) 0x259-0x25a (1)
     |                                               |                |                              [2]{}: instr 0x25a-0x25d (3)
0x250|                              3b               |          ;     |                                opcode: "i32.store16" (0x3b) 0x25a-0x25b (1)
     |                                               |                |                                m{}: 0x25b-0x25d (2)
0x250|                                 01            |           .    |                                  a: 1 (valid) 0x25b-0x25c (1)
0x250|                                    00         |            .   |                                  o: 0 (valid) 0x25c-0x25d (1)
     |                                               |                |                              [3]{}: instr 0x25d-0x25f (2)
0x250|                                       41      |             A  |                                opcode: "i32.const" (0x41) 0x25d-0x25e (1)
0x250|                                          00   |              . |                                n: 0 (valid) 0x25e-0x25f (1)
     |                                               |                |                              [4]{}: instr 0x25f-0x262 (3)
0x250|                                             2f|               /|                                opcode: "i32.load16_u" (0x2f) 0x25f-0x260 (1)
     |                                               |                |                                m{}: 0x260-0x262 (2)
0x260|01                                             |.               |                                  a: 1 (valid) 0x260-0x261 (1)
0x260|   00                                          | .              |                                  o: 0 (valid) 0x261-0x262 (1)
     |                                               |                |                              [5]{}: instr 0x262-0x264 (2)
0x260|      21                                       |  !             |                                opcode: "local.set" (0x21) 0x262-0x263 (1)
0x260|         03                                    |   .            |                                x: 3 (valid) 0x263-0x264 (1)
0x260|            0b                                 |    .           |                            end: 0xb (valid) 0x264-0x265 (1)
     |                                               |                |                          [13]{}: instr 0x265-0x267 (2)
0x260|               0c                              |     .          |                            opcode: "br" (0xc) 0x265-0x266 (1)
0x260|                  01                           |      .         |                            l: 1 (valid) 0x266-0x267 (1)
0x260|                     0b                        |       .        |                        end: 0xb (valid) 0x267-0x268 (1)
     |                                               |                |                      [1]{}: instr 0x268-0x26a (2)
0x260|                        20                     |                |                        opcode: "local.get" (0x20) 0x268-0x269 (1)
0x260|                           01                  |         .      |                        x: 1 (valid) 0x269-0x26a (1)
     |                                               |                |                      [2]{}: instr 0x26a-0x26c (2)
0x260|                              41               |          A     |                        opcode: "i32.const" (0x41) 0x26a-0x26b (1)
0x260|                                 00            |           .    |                        n: 0 (valid) 0x26b-0x26c (1)
     |                                               |                |                      [3]{}: instr 0x26c-0x26d (1)
0x260|                                    46         |            F   |                        opcode: "i32.eq" (0x46) 0x26c-0x26d (1)
     |                                               |                |                      [4]{}: instr 0x26d-0x27e (17)
0x260|                                       04      |             .  |                        opcode: "if" (0x4) 0x26d-0x26e (1)
0x260|                                          40   |              @ |                        bt: "ε" (64) 0x26e-0x26f (1)
     |                                               |                |                        in1[0:6]: 0x26f-0x27d (14)
     |                                               |                |                          [0]{}: instr 0x26f-0x271 (2)
0x260|                                             41|               A|                            opcode: "i32.const" (0x41) 0x26f-0x270 (1)
0x270|00                                             |.               |                            n: 0 (valid) 0x270-0x271 (1)
     |                                               |                |                          [1]{}: instr 0x271-0x273 (2)
0x270|   20                                          |                |                            opcode: "local.get" (0x20) 0x271-0x272 (1)
0x270|      02                                       |  .             |                            x: 2 (valid) 0x272-0x273 (1)
     |                                               |                |                          [2]{}: instr 0x273-0x276 (3)
0x270|         36                                    |   6            |                            opcode: "i32.store" (0x36) 0x273-0x274 (1)
     |                                               |                |                            m{}: 0x274-0x276 (2)
0x270|            02                                 |    .           |                              a: 2 (valid) 0x274-0x275 (1)
0x270|               00                              |     .          |                              o: 0 (valid) 0x275-0x276 (1)
     |                                               |                |                          [3]{}: instr 0x276-0x278 (2)
0x270|                  41                           |      A         |                            opcode: "i32.const" (0x41) 0x276-0x277 (1)
0x270|                     00                        |       .        |                            n: 0 (valid) 0x277-0x278 (1)
     |                                               |                |                          [4]{}: instr 0x278-0x27b (3)
0x270|                        28                     |        (       |                            opcode: "i32.load" (0x28) 0x278-0x279 (1)
     |                                               |                |                            m{}: 0x279-0x27b (2)
0x270|                           02                  |         .      |                              a: 2 (valid) 0x279-0x27a (1)
0x270|                              00               |          .     |                              o: 0 (valid) 0x27a-0x27b (1)
     |                                               |                |                          [5]{}: instr 0x27b-0x27d (2)
0x270|                                 21            |           !    |                            opcode: "local.set" (0x21) 0x27b-0x27c (1)
0x270|                                    03         |            .   |                            x: 3 (valid) 0x27c-0x27d (1)
0x270|                                       0b      |             .  |                        end: 0xb (valid) 0x27d-0x27e (1)
     |                                               |                |                      [5]{}: instr 0x27e-0x280 (2)
0x270|                                          20   |                |                        opcode: "local.get" (0x20) 0x27e-0x27f (1)
0x270|                                             01|               .|                        x: 1 (valid) 0x27f-0x280 (1)
     |                                               |                |                      [6]{}: instr 0x280-0x282 (2)
0x280|41                                             |A               |                        opcode: "i32.const" (0x41) 0x280-0x281 (1)
0x280|   01                                          | .              |                        n: 1 (valid) 0x281-0x282 (1)
     |                                               |                |                      [7]{}: instr 0x282-0x283 (1)
0x280|      46                                       |  F             |                        opcode: "i32.eq" (0x46) 0x282-0x283 (1)
     |                                               |                |                      [8]{}: instr 0x283-0x294 (17)
0x280|         04                                    |   .            |                        opcode: "if" (0x4) 0x283-0x284 (1)
0x280|            40                                 |    @           |                        bt: "ε" (64) 0x284-0x285 (1)
     |                                               |                |                        in1[0:6]: 0x285-0x293 (14)
     |                                               |                |                          [0]{}: instr 0x285-0x287 (2)
0x280|               41                              |     A          |                            opcode: "i32.const" (0x41) 0x285-0x286 (1)
0x280|                  00                           |      .         |                            n: 0 (valid) 0x286-0x287 (1)
     |                                               |                |                          [1]{}: instr 0x287-0x289 (2)
0x280|                     20                        |                |                            opcode: "local.get" (0x20) 0x287-0x288 (1)
0x280|                        02                     |        .       |                            x: 2 (valid) 0x288-0x289 (1)
     |                                               |                |                          [2]{}: instr 0x289-0x28c (3)
0x280|                           36                  |         6      |                            opcode: "i32.store" (0x36) 0x289-0x28a (1)
     |                                               |                |                            m{}: 0x28a-0x28c (2)
0x280|                              00               |          .     |                              a: 0 (valid) 0x28a-0x28b (1)
0x280|                                 00            |           .    |                              o: 0 (valid) 0x28b-0x28c (1)
     |                                               |                |                          [3]{}: instr 0x28c-0x28e (2)
0x280|                                    41         |            A   |                            opcode: "i32.const" (0x41) 0x28c-0x28d (1)
0x280|                                       00      |             .  |                            n: 0 (valid) 0x28d-0x28e (1)
     |                                               |                |                          [4]{}: instr 0x28e-0x291 (3)
0x280|                                          28   |              ( |                            opcode: "i32.load" (0x28) 0x28e-0x28f (1)
     |                                               |                |                            m{}: 0x28f-0x291 (2)
0x280|                                             00|               .|                              a: 0 (valid) 0x28f-0x290 (1)
0x290|00                                             |.               |                              o: 0 (valid) 0x290-0x291 (1)
     |                                               |                |                          [5]{}: instr 0x291-0x293 (2)
0x290|   21                                          | !              |                            opcode: "local.set" (0x21) 0x291-0x292 (1)
0x290|      03                                       |  .             |                            x: 3 (valid) 0x292-0x293 (1)
0x290|         0b                                    |   .            |                        end: 0xb (valid) 0x293-0x294 (1)
     |                                               |                |                      [9]{}: instr 0x294-0x296 (2)
0x290|            20                                 |                |                        opcode: "local.get" (0x20) 0x294-0x295 (1)
0x290|               01                              |     .          |                        x: 1 (valid) 0x295-0x296 (1)
     |                                               |                |                      [10]{}: instr 0x296-0x298 (2)
0x290|                  41                           |      A         |                        opcode: "i32.const" (0x41) 0x296-0x297 (1)
0x290|                     02                        |       .        |                        n: 2 (valid) 0x297-0x298 (1)
     |                                               |                |                      [11]{}: instr 0x298-0x299 (1)
0x290|                        46                     |        F       |                        opcode: "i32.eq" (0x46) 0x298-0x299 (1)
     |                                               |                |                      [12]{}: instr 0x299-0x2aa (17)
0x290|                           04                  |         .      |                        opcode: "if" (0x4) 0x299-0x29a (1)
0x290|                              40               |          @     |                        bt: "ε" (64) 0x29a-0x29b (1)
     |                                               |                |                        in1[0:6]: 0x29b-0x2a9 (14)
     |                                               |                |                          [0]{}: instr 0x29b-0x29d (2)
0x290|                                 41            |           A    |                            opcode: "i32.const" (0x41) 0x29b-0x29c (1)
0x290|                                    00         |            .   |                            n: 0 (valid) 0x29c-0x29d (1)
     |                                               |                |                          [1]{}: instr 0x29d-0x29f (2)
0x290|                                       20      |                |                            opcode: "local.get" (0x20) 0x29d-0x29e (1)
0x290|                                          02   |              . |                            x: 2 (valid) 0x29e-0x29f (1)
     |                                               |                |                          [2]{}: instr 0x29f-0x2a2 (3)
0x290|                                             36|               6|                            opcode: "i32.store" (0x36) 0x29f-0x2a0 (1)
     |                                               |                |                            m{}: 0x2a0-0x2a2 (2)
0x2a0|01                                             |.               |                              a: 1 (valid) 0x2a0-0x2a1 (1)
0x2a0|   00                                          | .              |                              o: 0 (valid) 0x2a1-0x2a2 (1)
     |                                               |                |                          [3]{}: instr 0x2a2-0x2a4 (2)
0x2a0|      41                                       |  A             |                            opcode: "i32.const" (0x41) 0x2a2-0x2a3 (1)
0x2a0|         00                                    |   .            |                            n: 0 (valid) 0x2a3-0x2a4 (1)
     |                                               |                |                          [4]{}: instr 0x2a4-0x2a7 (3)
0x2a0|            28                                 |    (           |                            opcode: "i32.load" (0x28) 0x2a4-0x2a5 (1)
     |                                               |                |                            m{}: 0x2a5-0x2a7 (2)
0x2a0|               01                              |     .          |                              a: 1 (valid) 0x2a5-0x2a6 (1)
0x2a0|                  00                           |      .         |                              o: 0 (valid) 0x2a6-0x2a7 (1)
     |                                               |                |                          [5]{}: instr 0x2a7-0x2a9 (2)
0x2a0|                     21                        |       !        |                            opcode: "local.set" (0x21) 0x2a7-0x2a8 (1)
0x2a0|                        03                     |        .       |                            x: 3 (valid) 0x2a8-0x2a9 (1)
0x2a0|                           0b                  |         .      |                        end: 0xb (valid) 0x2a9-0x2aa (1)
     |                                               |                |                      [13]{}: instr 0x2aa-0x2ac (2)
0x2a0|                              20               |                |                        opcode: "local.get" (0x20) 0x2aa-0x2ab (1)
0x2a0|                                 01            |           .    |                        x: 1 (valid) 0x2ab-0x2ac (1)
     |                                               |                |                      [14]{}: instr 0x2ac-0x2ae (2)
0x2a0|                                    41         |            A   |                        opcode: "i32.const" (0x41) 0x2ac-0x2ad (1)
0x2a0|                                       04      |             .  |                        n: 4 (valid) 0x2ad-0x2ae (1)
     |                                               |                |                      [15]{}: instr 0x2ae-0x2af (1)
0x2a0|                                          46   |              F |                        opcode: "i32.eq" (0x46) 0x2ae-0x2af (1)
     |                                               |                |                      [16]{}: instr 0x2af-0x2c0 (17)
0x2a0|                                             04|               .|                        opcode: "if" (0x4) 0x2af-0x2b0 (1)
0x2b0|40                                             |@               |                        bt: "ε" (64) 0x2b0-0x2b1 (1)
     |                                               |                |                        in1[0:6]: 0x2b1-0x2bf (14)
     |                                               |                |                          [0]{}: instr 0x2b1-0x2b3 (2)
0x2b0|   41                                          | A              |                            opcode: "i32.const" (0x41) 0x2b1-0x2b2 (1)
0x2b0|      00                                       |  .             |                            n: 0 (valid) 0x2b2-0x2b3 (1)
     |                                               |                |                          [1]{}: instr 0x2b3-0x2b5 (2)
0x2b0|         20                                    |                |                            opcode: "local.get" (0x20) 0x2b3-0x2b4 (1)
0x2b0|            02                                 |    .           |                            x: 2 (valid) 0x2b4-0x2b5 (1)
     |                                               |                |                          [2]{}: instr 0x2b5-0x2b8 (3)
0x2b0|               36                              |     6          |                            opcode: "i32.store" (0x36) 0x2b5-0x2b6 (1)
     |                                               |                |                            m{}: 0x2b6-0x2b8 (2)
0x2b0|                  02                           |      .         |                              a: 2 (valid) 0x2b6-0x2b7 (1)
0x2b0|                     00                        |       .        |                              o: 0 (valid) 0x2b7-0x2b8 (1)
     |                                               |                |                          [3]{}: instr 0x2b8-0x2ba (2)
0x2b0|                        41                     |        A       |                            opcode: "i32.const" (0x41) 0x2b8-0x2b9 (1)
0x2b0|                           00                  |         .      |                            n: 0 (valid) 0x2b9-0x2ba (1)
     |                                               |                |                          [4]{}: instr 0x2ba-0x2bd (3)
0x2b0|                              28               |          (     |                            opcode: "i32.load" (0x28) 0x2ba-0x2bb (1)
     |                                               |                |                            m{}: 0x2bb-0x2bd (2)
0x2b0|                                 02            |           .    |                              a: 2 (valid) 0x2bb-0x2bc (1)
0x2b0|                                    00         |            .   |                              o: 0 (valid) 0x2bc-0x2bd (1)
     |                                               |                |                          [5]{}: instr 0x2bd-0x2bf (2)
0x2b0|                                       21      |             !  |                            opcode: "local.set" (0x21) 0x2bd-0x2be (1)
0x2b0|                                          03   |              . |                            x: 3 (valid) 0x2be-0x2bf (1)
0x2b0|                                             0b|               .|                        end: 0xb (valid) 0x2bf-0x2c0 (1)
0x2c0|0b                                             |.               |                    end: 0xb (valid) 0x2c0-0x2c1 (1)
     |                                               |                |                  [3]{}: in 0x2c1-0x2c3 (2)
0x2c0|   20                                          |                |                    opcode: "local.get" (0x20) 0x2c1-0x2c2 (1)
0x2c0|      03                                       |  .             |                    x: 3 (valid) 0x2c2-0x2c3 (1)
     |                                               |                |                  [4]{}: in 0x2c3-0x2c4 (1)
0x2c0|         0b                                    |   .            |                    opcode: "end" (0xb) 0x2c3-0x2c4 (1)
     |                                               |                |            [3]{}: code 0x2c4-0x4fa (566)
0x2c0|            b4 04                              |    ..          |              size: 564 (valid) 0x2c4-0x2c6 (2)
     |                                               |                |              code{}: 0x2c6-0x4fa (564)
     |                                               |                |                t{}: 0x2c6-0x2c9 (3)
0x2c0|                  01                           |      .         |                  n: 1 (valid) 0x2c6-0x2c7 (1)
     |                                               |                |                  x[0:1]: 0x2c7-0x2c9 (2)
     |                                               |                |                    [0]{}: t 0x2c7-0x2c9 (2)
0x2c0|                     02                        |       .        |                      n: 2 (valid) 0x2c7-0x2c8 (1)
0x2c0|                        7e                     |        ~       |                      t: "i64" (0x7e) 0x2c8-0x2c9 (1)
     |                                               |                |                e[0:5]: 0x2c9-0x4fa (561)
     |                                               |                |                  [0]{}: in 0x2c9-0x2cb (2)
0x2c0|                           42                  |         B      |                    opcode: "i64.const" (0x42) 0x2c9-0x2ca (1)
0x2c0|                              0a               |          .     |                    n: 10 0x2ca-0x2cb (1)
     |                                               |                |                  [1]{}: in 0x2cb-0x2cd (2)
0x2c0|                                 21            |           !    |                    opcode: "local.set" (0x21) 0x2cb-0x2cc (1)
0x2c0|                                    02         |            .   |                    x: 2 (valid) 0x2cc-0x2cd (1)
     |                                               |                |                  [2]{}: in 0x2cd-0x4f7 (554)
0x2c0|                                       02      |             .  |                    opcode: "block" (0x2) 0x2cd-0x2ce (1)
0x2c0|                                          40   |              @ |                    bt: "ε" (64) 0x2ce-0x2cf (1)
     |                                               |                |                    instructions[0:21]: 0x2cf-0x4f6 (551)
     |                                               |                |                      [0]{}: instr 0x2cf-0x488 (441)
0x2c0|                                             02|               .|                        opcode: "block" (0x2) 0x2cf-0x2d0 (1)
0x2d0|40                                             |@               |                        bt: "ε" (64) 0x2d0-0x2d1 (1)
     |                                               |                |                        instructions[0:18]: 0x2d1-0x487 (438)
     |                                               |                |                          [0]{}: instr 0x2d1-0x42d (348)
0x2d0|   02                                          | .              |                            opcode: "block" (0x2) 0x2d1-0x2d2 (1)
0x2d0|      40                                       |  @             |                            bt: "ε" (64) 0x2d2-0x2d3 (1)
     |                                               |                |                            instructions[0:18]: 0x2d3-0x42c (345)
     |                                               |                |                              [0]{}: instr 0x2d3-0x3d2 (255)
0x2d0|         02                                    |   .            |                                opcode: "block" (0x2) 0x2d3-0x2d4 (1)
0x2d0|            40                                 |    @           |                                bt: "ε" (64) 0x2d4-0x2d5 (1)
     |                                               |                |                                instructions[0:14]: 0x2d5-0x3d1 (252)
     |                                               |                |                                  [0]{}: instr 0x2d5-0x38d (184)
0x2d0|               02                              |     .          |                                    opcode: "block" (0x2) 0x2d5-0x2d6 (1)
0x2d0|                  40                           |      @         |                                    bt: "ε" (64) 0x2d6-0x2d7 (1)
     |                                               |                |                                    instructions[0:14]: 0x2d7-0x38c (181)
     |                                               |                |                                      [0]{}: instr 0x2d7-0x348 (113)
0x2d0|                     02                        |       .        |                                        opcode: "block" (0x2) 0x2d7-0x2d8 (1)
0x2d0|                        40                     |        @       |                                        bt: "ε" (64) 0x2d8-0x2d9 (1)
     |                                               |                |                                        instructions[0:10]: 0x2d9-0x347 (110)
     |                                               |                |                                          [0]{}: instr 0x2d9-0x319 (64)
0x2d0|                           02                  |         .      |                                            opcode: "block" (0x2) 0x2d9-0x2da (1)
0x2d0|                              40               |          @     |                                            bt: "ε" (64) 0x2da-0x2db (1)
     |                                               |                |                                            instructions[0:10]: 0x2db-0x318 (61)
     |                                               |                |                                              [0]{}: instr 0x2db-0x2ea (15)
0x2d0|                                 02            |           .    |                                                opcode: "block" (0x2) 0x2db-0x2dc (1)
0x2d0|                                    40         |            @   |                                                bt: "ε" (64) 0x2dc-0x2dd (1)
     |                                               |                |                                                instructions[0:2]: 0x2dd-0x2e9 (12)
     |                                               |                |                                                  [0]{}: instr 0x2dd-0x2df (2)
0x2d0|                                       20      |                |                                                    opcode: "local.get" (0x20) 0x2dd-0x2de (1)
0x2d0|                                          00   |              . |                                                    x: 0 (valid) 0x2de-0x2df (1)
     |                                               |                |                                                  [1]{}: instr 0x2df-0x2e9 (10)
0x2d0|                                             0e|               .|                                                    opcode: "br_table" (0xe) 0x2df-0x2e0 (1)
     |                                               |                |                                                    l{}: 0x2e0-0x2e8 (8)
0x2e0|07                                             |.               |                                                      n: 7 (valid) 0x2e0-0x2e1 (1)
     |                                               |                |                                                      x[0:7]: 0x2e1-0x2e8 (7)
0x2e0|   00                                          | .              |                                                        [0]: 0 l (valid) 0x2e1-0x2e2 (1)
0x2e0|      01                                       |  .             |                                                        [1]: 1 l (valid) 0x2e2-0x2e3 (1)
0x2e0|         02                                    |   .            |                                                        [2]: 2 l (valid) 0x2e3-0x2e4 (1)
0x2e0|            03                                 |    .           |                                                        [3]: 3 l (valid) 0x2e4-0x2e5 (1)
0x2e0|               04                              |     .          |                                                        [4]: 4 l (valid) 0x2e5-0x2e6 (1)
0x2e0|                  05                           |      .         |                                                        [5]: 5 l (valid) 0x2e6-0x2e7 (1)
0x2e0|                     06                        |       .        |                                                        [6]: 6 l (valid) 0x2e7-0x2e8 (1)
0x2e0|                        07                     |        .       |                                                    lN: 7 (valid) 0x2e8-0x2e9 (1)
0x2e0|                           0b                  |         .      |                                                end: 0xb (valid) 0x2e9-0x2ea (1)
     |                                               |                |                                              [1]{}: instr 0x2ea-0x2ec (2)
0x2e0|                              20               |                |                                                opcode: "local.get" (0x20) 0x2ea-0x2eb (1)
0x2e0|                                 01            |           .    |                                                x: 1 (valid) 0x2eb-0x2ec (1)
     |                                               |                |                                              [2]{}: instr 0x2ec-0x2ee (2)
0x2e0|                                    41         |            A   |                                                opcode: "i32.const" (0x41) 0x2ec-0x2ed (1)
0x2e0|                                       00      |             .  |                                                n: 0 (valid) 0x2ed-0x2ee (1)
     |                                               |                |                                              [3]{}: instr 0x2ee-0x2ef (1)
0x2e0|                                          46   |              F |                                                opcode: "i32.eq" (0x46) 0x2ee-0x2ef (1)
     |                                               |                |                                              [4]{}: instr 0x2ef-0x300 (17)
0x2e0|                                             04|               .|                                                opcode: "if" (0x4) 0x2ef-0x2f0 (1)
0x2f0|40                                             |@               |                                                bt: "ε" (64) 0x2f0-0x2f1 (1)
     |                                               |                |                                                in1[0:6]: 0x2f1-0x2ff (14)
     |                                               |                |                                                  [0]{}: instr 0x2f1-0x2f3 (2)
0x2f0|   41                                          | A              |                                                    opcode: "i32.const" (0x41) 0x2f1-0x2f2 (1)
0x2f0|      00                                       |  .             |                                                    n: 0 (valid) 0x2f2-0x2f3 (1)
     |                                               |                |                                                  [1]{}: instr 0x2f3-0x2f5 (2)
0x2f0|         20                                    |                |                                                    opcode: "local.get" (0x20) 0x2f3-0x2f4 (1)
0x2f0|            02                                 |    .           |                                                    x: 2 (valid) 0x2f4-0x2f5 (1)
     |                                               |                |                                                  [2]{}: instr 0x2f5-0x2f8 (3)
0x2f0|               3c                              |     <          |                                                    opcode: "i64.store8" (0x3c) 0x2f5-0x2f6 (1)
     |                                               |                |                                                    m{}: 0x2f6-0x2f8 (2)
0x2f0|                  00                           |      .         |                                                      a: 0 (valid) 0x2f6-0x2f7 (1)
0x2f0|                     00                        |       .        |                                                      o: 0 (valid) 0x2f7-0x2f8 (1)
     |                                               |                |                                                  [3]{}: instr 0x2f8-0x2fa (2)
0x2f0|                        41                     |        A       |                                                    opcode: "i32.const" (0x41) 0x2f8-0x2f9 (1)
0x2f0|                           00                  |         .      |                                                    n: 0 (valid) 0x2f9-0x2fa (1)
     |                                               |                |                                                  [4]{}: instr 0x2fa-0x2fd (3)
0x2f0|                              30               |          0     |                                                    opcode: "i64.load8_s" (0x30) 0x2fa-0x2fb (1)
     |                                               |                |                                                    m{}: 0x2fb-0x2fd (2)
0x2f0|                                 00            |           .    |                                                      a: 0 (valid) 0x2fb-0x2fc (1)
0x2f0|                                    00         |            .   |                                                      o: 0 (valid) 0x2fc-0x2fd (1)
     |                                               |                |                                                  [5]{}: instr 0x2fd-0x2ff (2)
0x2f0|                                       21      |             !  |                                                    opcode: "local.set" (0x21) 0x2fd-0x2fe (1)
0x2f0|                                          03   |              . |                                                    x: 3 (valid) 0x2fe-0x2ff (1)
0x2f0|                                             0b|               .|                                                end: 0xb (valid) 0x2ff-0x300 (1)
     |                                               |                |                                              [5]{}: instr 0x300-0x302 (2)
0x300|20                                             |                |                                                opcode: "local.get" (0x20) 0x300-0x301 (1)
0x300|   01                                          | .              |                                                x: 1 (valid) 0x301-0x302 (1)
     |                                               |                |                                              [6]{}: instr 0x302-0x304 (2)
0x300|      41                                       |  A             |                                                opcode: "i32.const" (0x41) 0x302-0x303 (1)
0x300|         01                                    |   .            |                                                n: 1 (valid) 0x303-0x304 (1)
     |                                               |                |                                              [7]{}: instr 0x304-0x305 (1)
0x300|            46                                 |    F           |                                                opcode: "i32.eq" (0x46) 0x304-0x305 (1)
     |                                               |                |                                              [8]{}: instr 0x305-0x316 (17)
0x300|               04                              |     .          |                                                opcode: "if" (0x4) 0x305-0x306 (1)
0x300|                  40                           |      @         |                                                bt: "ε" (64) 0x306-0x307 (1)
     |                                               |                |                                                in1[0:6]: 0x307-0x315 (14)
     |                                               |                |                                                  [0]{}: instr 0x307-0x309 (2)
0x300|                     41                        |       A        |                                                    opcode: "i32.const" (0x41) 0x307-0x308 (1)
0x300|                        00                     |        .       |                                                    n: 0 (valid) 0x308-0x309 (1)
     |                                               |                |                                                  [1]{}: instr 0x309-0x30b (2)
0x300|                           20                  |                |                                                    opcode: "local.get" (0x20) 0x309-0x30a (1)
0x300|                              02               |          .     |                                                    x: 2 (valid) 0x30a-0x30b (1)
     |                                               |                |                                                  [2]{}: instr 0x30b-0x30e (3)
0x300|                                 3c            |           <    |                                                    opcode: "i64.store8" (0x3c) 0x30b-0x30c (1)
     |                                               |                |                                                    m{}: 0x30c-0x30e (2)
0x300|                                    00         |            .   |                                                      a: 0 (valid) 0x30c-0x30d (1)
0x300|                                       00      |             .  |                                                      o: 0 (valid) 0x30d-0x30e (1)
     |                                               |                |                                                  [3]{}: instr 0x30e-0x310 (2)
0x300|                                          41   |              A |                                                    opcode: "i32.const" (0x41) 0x30e-0x30f (1)
0x300|                                             00|               .|                                                    n: 0 (valid) 0x30f-0x310 (1)
     |                                               |                |                                                  [4]{}: instr 0x310-0x313 (3)
0x310|30                                             |0               |                                                    opcode: "i64.load8_s" (0x30) 0x310-0x311 (1)
     |                                               |                |                                                    m{}: 0x311-0x313 (2)
0x310|   00                                          | .              |                                                      a: 0 (valid) 0x311-0x312 (1)
0x310|      00                                       |  .             |                                                      o: 0 (valid) 0x312-0x313 (1)
     |                                               |                |                                                  [5]{}: instr 0x313-0x315 (2)
0x310|         21                                    |   !            |                                                    opcode: "local.set" (0x21) 0x313-0x314 (1)
0x310|            03                                 |    .           |                                                    x: 3 (valid) 0x314-0x315 (1)
0x310|               0b                              |     .          |                                                end: 0xb (valid) 0x315-0x316 (1)
     |                                               |                |                                              [9]{}: instr 0x316-0x318 (2)
0x310|                  0c                           |      .         |                                                opcode: "br" (0xc) 0x316-0x317 (1)
0x310|                     06                        |       .        |                                                l: 6 (valid) 0x317-0x318 (1)
0x310|                        0b                     |        .       |                                            end: 0xb (valid) 0x318-0x319 (1)
     |                                               |                |                                          [1]{}: instr 0x319-0x31b (2)
0x310|                           20                  |                |                                            opcode: "local.get" (0x20) 0x319-0x31a (1)
0x310|                              01               |          .     |                                            x: 1 (valid) 0x31a-0x31b (1)
     |                                               |                |                                          [2]{}: instr 0x31b-0x31d (2)
0x310|                                 41            |           A    |                                            opcode: "i32.const" (0x41) 0x31b-0x31c (1)
0x310|                                    00         |            .   |                                            n: 0 (valid) 0x31c-0x31d (1)
     |                                               |                |                                          [3]{}: instr 0x31d-0x31e (1)
0x310|                                       46      |             F  |                                            opcode: "i32.eq" (0x46) 0x31d-0x31e (1)
     |                                               |                |                                          [4]{}: instr 0x31e-0x32f (17)
0x310|                                          04   |              . |                                            opcode: "if" (0x4) 0x31e-0x31f (1)
0x310|                                             40|               @|                                            bt: "ε" (64) 0x31f-0x320 (1)
     |                                               |                |                                            in1[0:6]: 0x320-0x32e (14)
     |                                               |                |                                              [0]{}: instr 0x320-0x322 (2)
0x320|41                                             |A               |                                                opcode: "i32.const" (0x41) 0x320-0x321 (1)
0x320|   00                                          | .              |                                                n: 0 (valid) 0x321-0x322 (1)
     |                                               |                |                                              [1]{}: instr 0x322-0x324 (2)
0x320|      20                                       |                |                                                opcode: "local.get" (0x20) 0x322-0x323 (1)
0x320|         02                                    |   .            |                                                x: 2 (valid) 0x323-0x324 (1)
     |                                               |                |                                              [2]{}: instr 0x324-0x327 (3)
0x320|            3c                                 |    <           |                                                opcode: "i64.store8" (0x3c) 0x324-0x325 (1)
     |                                               |                |                                                m{}: 0x325-0x327 (2)
0x320|               00                              |     .          |                                                  a: 0 (valid) 0x325-0x326 (1)
0x320|                  00                           |      .         |                                                  o: 0 (valid) 0x326-0x327 (1)
     |                                               |                |                                              [3]{}: instr 0x327-0x329 (2)
0x320|                     41                        |       A        |                                                opcode: "i32.const" (0x41) 0x327-0x328 (1)
0x320|                        00                     |        .       |                                                n: 0 (valid) 0x328-0x329 (1)
     |                                               |                |                                              [4]{}: instr 0x329-0x32c (3)
0x320|                           31                  |         1      |                                                opcode: "i64.load8_u" (0x31) 0x329-0x32a (1)
     |                                               |                |                                                m{}: 0x32a-0x32c (2)
0x320|                              00               |          .     |                                                  a: 0 (valid) 0x32a-0x32b (1)
0x320|                                 00            |           .    |                                                  o: 0 (valid) 0x32b-0x32c (1)
     |                                               |                |                                              [5]{}: instr 0x32c-0x32e (2)
0x320|                                    21         |            !   |                                                opcode: "local.set" (0x21) 0x32c-0x32d (1)
0x320|                                       03      |             .  |                                                x: 3 (valid) 0x32d-0x32e (1)
0x320|                                          0b   |              . |                                            end: 0xb (valid) 0x32e-0x32f (1)
     |                                               |                |                                          [5]{}: instr 0x32f-0x331 (2)
0x320|                                             20|                |                                            opcode: "local.get" (0x20) 0x32f-0x330 (1)
0x330|01                                             |.               |                                            x: 1 (valid) 0x330-0x331 (1)
     |                                               |                |                                          [6]{}: instr 0x331-0x333 (2)
0x330|   41                                          | A              |                                            opcode: "i32.const" (0x41) 0x331-0x332 (1)
0x330|      01                                       |  .             |                                            n: 1 (valid) 0x332-0x333 (1)
     |                                               |                |                                          [7]{}: instr 0x333-0x334 (1)
0x330|         46                                    |   F            |                                            opcode: "i32.eq" (0x46) 0x333-0x334 (1)
     |                                               |                |                                          [8]{}: instr 0x334-0x345 (17)
0x330|            04                                 |    .           |                                            opcode: "if" (0x4) 0x334-0x335 (1)
0x330|               40                              |     @          |                                            bt: "ε" (64) 0x335-0x336 (1)
     |                                               |                |                                            in1[0:6]: 0x336-0x344 (14)
     |                                               |                |                                              [0]{}: instr 0x336-0x338 (2)
0x330|                  41                           |      A         |                                                opcode: "i32.const" (0x41) 0x336-0x337 (1)
0x330|                     00                        |       .        |                                                n: 0 (valid) 0x337-0x338 (1)
     |                                               |                |                                              [1]{}: instr 0x338-0x33a (2)
0x330|                        20                     |                |                                                opcode: "local.get" (0x20) 0x338-0x339 (1)
0x330|                           02                  |         .      |                                                x: 2 (valid) 0x339-0x33a (1)
     |                                               |                |                                              [2]{}: instr 0x33a-0x33d (3)
0x330|                              3c               |          <     |                                                opcode: "i64.store8" (0x3c) 0x33a-0x33b (1)
     |                                               |                |                                                m{}: 0x33b-0x33d (2)
0x330|                                 00            |           .    |                                                  a: 0 (valid) 0x33b-0x33c (1)
0x330|                                    00         |            .   |                                                  o: 0 (valid) 0x33c-0x33d (1)
     |                                               |                |                                              [3]{}: instr 0x33d-0x33f (2)
0x330|                                       41      |             A  |                                                opcode: "i32.const" (0x41) 0x33d-0x33e (1)
0x330|                                          00   |              . |                                                n: 0 (valid) 0x33e-0x33f (1)
     |                                               |                |                                              [4]{}: instr 0x33f-0x342 (3)
0x330|                                             31|               1|                                                opcode: "i64.load8_u" (0x31) 0x33f-0x340 (1)
     |                                               |                |                                                m{}: 0x340-0x342 (2)
0x340|00                                             |.               |                                                  a: 0 (valid) 0x340-0x341 (1)
0x340|   00                                          | .              |                                                  o: 0 (valid) 0x341-0x342 (1)
     |                                               |                |                                              [5]{}: instr 0x342-0x344 (2)
0x340|      21                                       |  !             |                                                opcode: "local.set" (0x21) 0x342-0x343 (1)
0x340|         03                                    |   .            |                                                x: 3 (valid) 0x343-0x344 (1)
0x340|            0b                                 |    .           |                                            end: 0xb (valid) 0x344-0x345 (1)
     |                                               |                |                                          [9]{}: instr 0x345-0x347 (2)
0x340|               0c                              |     .          |                                            opcode: "br" (0xc) 0x345-0x346 (1)
0x340|                  05                           |      .         |                                            l: 5 (valid) 0x346-0x347 (1)
0x340|                     0b                        |       .        |                                        end: 0xb (valid) 0x347-0x348 (1)
     |                                               |                |                                      [1]{}: instr 0x348-0x34a (2)
0x340|                        20                     |                |                                        opcode: "local.get" (0x20) 0x348-0x349 (1)
0x340|                           01                  |         .      |                                        x: 1 (valid) 0x349-0x34a (1)
     |                                               |                |                                      [2]{}: instr 0x34a-0x34c (2)
0x340|                              41               |          A     |                                        opcode: "i32.const" (0x41) 0x34a-0x34b (1)
0x340|                                 00            |           .    |                                        n: 0 (valid) 0x34b-0x34c (1)
     |                                               |                |                                      [3]{}: instr 0x34c-0x34d (1)
0x340|                                    46         |            F   |                                        opcode: "i32.eq" (0x46) 0x34c-0x34d (1)
     |                                               |                |                                      [4]{}: instr 0x34d-0x35e (17)
0x340|                                       04      |             .  |                                        opcode: "if" (0x4) 0x34d-0x34e (1)
0x340|                                          40   |              @ |                                        bt: "ε" (64) 0x34e-0x34f (1)
     |                                               |                |                                        in1[0:6]: 0x34f-0x35d (14)
     |                                               |                |                                          [0]{}: instr 0x34f-0x351 (2)
0x340|                                             41|               A|                                            opcode: "i32.const" (0x41) 0x34f-0x350 (1)
0x350|00                                             |.               |                                            n: 0 (valid) 0x350-0x351 (1)
     |                                               |                |                                          [1]{}: instr 0x351-0x353 (2)
0x350|   20                                          |                |                                            opcode: "local.get" (0x20) 0x351-0x352 (1)
0x350|      02                                       |  .             |                                            x: 2 (valid) 0x352-0x353 (1)
     |                                               |                |                                          [2]{}: instr 0x353-0x356 (3)
0x350|         3d                                    |   =            |                                            opcode: "i64.store16" (0x3d) 0x353-0x354 (1)
     |                                               |                |                                            m{}: 0x354-0x356 (2)
0x350|            01                                 |    .           |                                              a: 1 (valid) 0x354-0x355 (1)
0x350|               00                              |     .          |                                              o: 0 (valid) 0x355-0x356 (1)
     |                                               |                |                                          [3]{}: instr 0x356-0x358 (2)
0x350|                  41                           |      A         |                                            opcode: "i32.const" (0x41) 0x356-0x357 (1)
0x350|                     00                        |       .        |                                            n: 0 (valid) 0x357-0x358 (1)
     |                                               |                |                                          [4]{}: instr 0x358-0x35b (3)
0x350|                        32                     |        2       |                                            opcode: "i64.load16_s" (0x32) 0x358-0x359 (1)
     |                                               |                |                                            m{}: 0x359-0x35b (2)
0x350|                           01                  |         .      |                                              a: 1 (valid) 0x359-0x35a (1)
0x350|                              00               |          .     |                                              o: 0 (valid) 0x35a-0x35b (1)
     |                                               |                |                                          [5]{}: instr 0x35b-0x35d (2)
0x350|                                 21            |           !    |                                            opcode: "local.set" (0x21) 0x35b-0x35c (1)
0x350|                                    03         |            .   |                                            x: 3 (valid) 0x35c-0x35d (1)
0x350|                                       0b      |             .  |                                        end: 0xb (valid) 0x35d-0x35e (1)
     |                                               |                |                                      [5]{}: instr 0x35e-0x360 (2)
0x350|                                          20   |                |                                        opcode: "local.get" (0x20) 0x35e-0x35f (1)
0x350|                                             01|               .|                                        x: 1 (valid) 0x35f-0x360 (1)
     |                                               |                |                                      [6]{}: instr 0x360-0x362 (2)
0x360|41                                             |A               |                                        opcode: "i32.const" (0x41) 0x360-0x361 (1)
0x360|   01                                          | .              |                                        n: 1 (valid) 0x361-0x362 (1)
     |                                               |                |                                      [7]{}: instr 0x362-0x363 (1)
0x360|      46                                       |  F             |                                        opcode: "i32.eq" (0x46) 0x362-0x363 (1)
     |                                               |                |                                      [8]{}: instr 0x363-0x374 (17)
0x360|         04                                    |   .            |                                        opcode: "if" (0x4) 0x363-0x364 (1)
0x360|            40                                 |    @           |                                        bt: "ε" (64) 0x364-0x365 (1)
     |                                               |                |                                        in1[0:6]: 0x365-0x373 (14)
     |                                               |                |                                          [0]{}: instr 0x365-0x367 (2)
0x360|               41                              |     A          |                                            opcode: "i32.const" (0x41) 0x365-0x366 (1)
0x360|                  00                           |      .         |                                            n: 0 (valid) 0x366-0x367 (1)
     |                                               |                |                                          [1]{}: instr 0x367-0x369 (2)
0x360|                     20                        |                |                                            opcode: "local.get" (0x20) 0x367-0x368 (1)
0x360|                        02                     |        .       |                                            x: 2 (valid) 0x368-0x369 (1)
     |                                               |                |                                          [2]{}: instr 0x369-0x36c (3)
0x360|                           3d                  |         =      |                                            opcode: "i64.store16" (0x3d) 0x369-0x36a (1)
     |                                               |                |                                            m{}: 0x36a-0x36c (2)
0x360|                              00               |          .     |                                              a: 0 (valid) 0x36a-0x36b (1)
0x360|                                 00            |           .    |                                              o: 0 (valid) 0x36b-0x36c (1)
     |                                               |                |                                          [3]{}: instr 0x36c-0x36e (2)
0x360|                                    41         |            A   |                                            opcode: "i32.const" (0x41) 0x36c-0x36d (1)
0x360|                                       00      |             .  |                                            n: 0 (valid) 0x36d-0x36e (1)
     |                                               |                |                                          [4]{}: instr 0x36e-0x371 (3)
0x360|                                          32   |              2 |                                            opcode: "i64.load16_s" (0x32) 0x36e-0x36f (1)
     |                                               |                |                                            m{}: 0x36f-0x371 (2)
0x360|                                             00|               .|                                              a: 0 (valid) 0x36f-0x370 (1)
0x370|00                                             |.               |                                              o: 0 (valid) 0x370-0x371 (1)
     |                                               |                |                                          [5]{}: instr 0x371-0x373 (2)
0x370|   21                                          | !              |                                            opcode: "local.set" (0x21) 0x371-0x372 (1)
0x370|      03                                       |  .             |                                            x: 3 (valid) 0x372-0x373 (1)
0x370|         0b                                    |   .            |                                        end: 0xb (valid) 0x373-0x374 (1)
     |                                               |                |                                      [9]{}: instr 0x374-0x376 (2)
0x370|            20                                 |                |                                        opcode: "local.get" (0x20) 0x374-0x375 (1)
0x370|               01                              |     .          |                                        x: 1 (valid) 0x375-0x376 (1)
     |                                               |                |                                      [10]{}: instr 0x376-0x378 (2)
0x370|                  41                           |      A         |                                        opcode: "i32.const" (0x41) 0x376-0x377 (1)
0x370|                     02                        |       .        |                                        n: 2 (valid) 0x377-0x378 (1)
     |                                               |                |                                      [11]{}: instr 0x378-0x379 (1)
0x370|                        46                     |        F       |                                        opcode: "i32.eq" (0x46) 0x378-0x379 (1)
     |                                               |                |                                      [12]{}: instr 0x379-0x38a (17)
0x370|                           04                  |         .      |                                        opcode: "if" (0x4) 0x379-0x37a (1)
0x370|                              40               |          @     |                                        bt: "ε" (64) 0x37a-0x37b (1)
     |                                               |                |                                        in1[0:6]: 0x37b-0x389 (14)
     |                                               |                |                                          [0]{}: instr 0x37b-0x37d (2)
0x370|                                 41            |           A    |                                            opcode: "i32.const" (0x41) 0x37b-0x37c (1)
0x370|                                    00         |            .   |                                            n: 0 (valid) 0x37c-0x37d (1)
     |                                               |                |                                          [1]{}: instr 0x37d-0x37f (2)
0x370|                                       20      |                |                                            opcode: "local.get" (0x20) 0x37d-0x37e (1)
0x370|                                          02   |              . |                                            x: 2 (valid) 0x37e-0x37f (1)
     |                                               |                |                                          [2]{}: instr 0x37f-0x382 (3)
0x370|                                             3d|               =|                                            opcode: "i64.store16" (0x3d) 0x37f-0x380 (1)
     |                                               |                |                                            m{}: 0x380-0x382 (2)
0x380|01                                             |.               |                                              a: 1 (valid) 0x380-0x381 (1)
0x380|   00                                          | .              |                                              o: 0 (valid) 0x381-0x382 (1)
     |                                               |                |                                          [3]{}: instr 0x382-0x384 (2)
0x380|      41                                       |  A             |                                            opcode: "i32.const" (0x41) 0x382-0x383 (1)
0x380|         00                                    |   .            |                                            n: 0 (valid) 0x383-0x384 (1)
     |                                               |                |                                          [4]{}: instr 0x384-0x387 (3)
0x380|            32                                 |    2           |                                            opcode: "i64.load16_s" (0x32) 0x384-0x385 (1)
     |                                               |                |                                            m{}: 0x385-0x387 (2)
0x380|               01                              |     .          |                                              a: 1 (valid) 0x385-0x386 (1)
0x380|                  00                           |      .         |                                              o: 0 (valid) 0x386-0x387 (1)
     |                                               |                |                                          [5]{}: instr 0x387-0x389 (2)
0x380|                     21                        |       !        |                                            opcode: "local.set" (0x21) 0x387-0x388 (1)
0x380|                        03                     |        .       |                                            x: 3 (valid) 0x388-0x389 (1)
0x380|                           0b                  |         .      |                                        end: 0xb (valid) 0x389-0x38a (1)
     |                                               |                |                                      [13]{}: instr 0x38a-0x38c (2)
0x380|                              0c               |          .     |                                        opcode: "br" (0xc) 0x38a-0x38b (1)
0x380|                                 04            |           .    |                                        l: 4 (valid) 0x38b-0x38c (1)
0x380|                                    0b         |            .   |                                    end: 0xb (valid) 0x38c-0x38d (1)
     |                                               |                |                                  [1]{}: instr 0x38d-0x38f (2)
0x380|                                       20      |                |                                    opcode: "local.get" (0x20) 0x38d-0x38e (1)
0x380|                                          01   |              . |                                    x: 1 (valid) 0x38e-0x38f (1)
     |                                               |                |                                  [2]{}: instr 0x38f-0x391 (2)
0x380|                                             41|               A|                                    opcode: "i32.const" (0x41) 0x38f-0x390 (1)
0x390|00                                             |.               |                                    n: 0 (valid) 0x390-0x391 (1)
     |                                               |                |                                  [3]{}: instr 0x391-0x392 (1)
0x390|   46                                          | F              |                                    opcode: "i32.eq" (0x46) 0x391-0x392 (1)
     |                                               |                |                                  [4]{}: instr 0x392-0x3a3 (17)
0x390|      04                                       |  .             |                                    opcode: "if" (0x4) 0x392-0x393 (1)
0x390|         40                                    |   @            |                                    bt: "ε" (64) 0x393-0x394 (1)
     |                                               |                |                                    in1[0:6]: 0x394-0x3a2 (14)
     |                                               |                |                                      [0]{}: instr 0x394-0x396 (2)
0x390|            41                                 |    A           |                                        opcode: "i32.const" (0x41) 0x394-0x395 (1)
0x390|               00                              |     .          |                                        n: 0 (valid) 0x395-0x396 (1)
     |                                               |                |                                      [1]{}: instr 0x396-0x398 (2)
0x390|                  20                           |                |                                        opcode: "local.get" (0x20) 0x396-0x397 (1)
0x390|                     02                        |       .        |                                        x: 2 (valid) 0x397-0x398 (1)
     |                                               |                |                                      [2]{}: instr 0x398-0x39b (3)
0x390|                        3d                     |        =       |                                        opcode: "i64.store16" (0x3d) 0x398-0x399 (1)
     |                                               |                |                                        m{}: 0x399-0x39b (2)
0x390|                           01                  |         .      |                                          a: 1 (valid) 0x399-0x39a (1)
0x390|                              00               |          .     |                                          o: 0 (valid) 0x39a-0x39b (1)
     |                                               |                |                                      [3]{}: instr 0x39b-0x39d (2)
0x390|                                 41            |           A    |                                        opcode: "i32.const" (0x41) 0x39b-0x39c (1)
0x390|                                    00         |            .   |                                        n: 0 (valid) 0x39c-0x39d (1)
     |                                               |                |                                      [4]{}: instr 0x39d-0x3a0 (3)
0x390|                                       33      |             3  |                                        opcode: "i64.load16_u" (0x33) 0x39d-0x39e (1)
     |                                               |                |                                        m{}: 0x39e-0x3a0 (2)
0x390|                                          01   |              . |                                          a: 1 (valid) 0x39e-0x39f (1)
0x390|                                             00|               .|                                          o: 0 (valid) 0x39f-0x3a0 (1)
     |                                               |                |                                      [5]{}: instr 0x3a0-0x3a2 (2)
0x3a0|21                                             |!               |                                        opcode: "local.set" (0x21) 0x3a0-0x3a1 (1)
0x3a0|   03                                          | .              |                                        x: 3 (valid) 0x3a1-0x3a2 (1)
0x3a0|      0b                                       |  .             |                                    end: 0xb (valid) 0x3a2-0x3a3 (1)
     |                                               |                |                                  [5]{}: instr 0x3a3-0x3a5 (2)
0x3a0|         20                                    |                |                                    opcode: "local.get" (0x20) 0x3a3-0x3a4 (1)
0x3a0|            01                                 |    .           |                                    x: 1 (valid) 0x3a4-0x3a5 (1)
     |                                               |                |                                  [6]{}: instr 0x3a5-0x3a7 (2)
0x3a0|               41                              |     A          |                                    opcode: "i32.const" (0x41) 0x3a5-0x3a6 (1)
0x3a0|                  01                           |      .         |                                    n: 1 (valid) 0x3a6-0x3a7 (1)
     |                                               |                |                                  [7]{}: instr 0x3a7-0x3a8 (1)
0x3a0|                     46                        |       F        |                                    opcode: "i32.eq" (0x46) 0x3a7-0x3a8 (1)
     |                                               |                |                                  [8]{}: instr 0x3a8-0x3b9 (17)
0x3a0|                        04                     |        .       |                                    opcode: "if" (0x4) 0x3a8-0x3a9 (1)
0x3a0|                           40                  |         @      |                                    bt: "ε" (64) 0x3a9-0x3aa (1)
     |                                               |                |                                    in1[0:6]: 0x3aa-0x3b8 (14)
     |                                               |                |                                      [0]{}: instr 0x3aa-0x3ac (2)
0x3a0|                              41               |          A     |                                        opcode: "i32.const" (0x41) 0x3aa-0x3ab (1)
0x3a0|                                 00            |           .    |                                        n: 0 (valid) 0x3ab-0x3ac (1)
     |                                               |                |                                      [1]{}: instr 0x3ac-0x3ae (2)
0x3a0|                                    20         |                |                                        opcode: "local.get" (0x20) 0x3ac-0x3ad (1)
0x3a0|                                       02      |             .  |                                        x: 2 (valid) 0x3ad-0x3ae (1)
     |                                               |                |                                      [2]{}: instr 0x3ae-0x3b1 (3)
0x3a0|                                          3d   |              = |                                        opcode: "i64.store16" (0x3d) 0x3ae-0x3af (1)
     |                                               |                |                                        m{}: 0x3af-0x3b1 (2)
0x3a0|                                             00|               .|                                          a: 0 (valid) 0x3af-0x3b0 (1)
0x3b0|00                                             |.               |                                          o: 0 (valid) 0x3b0-0x3b1 (1)
     |                                               |                |                                      [3]{}: instr 0x3b1-0x3b3 (2)
0x3b0|   41                                          | A              |                                        opcode: "i32.const" (0x41) 0x3b1-0x3b2 (1)
0x3b0|      00                                       |  .             |                                        n: 0 (valid) 0x3b2-0x3b3 (1)
     |                                               |                |                                      [4]{}: instr 0x3b3-0x3b6 (3)
0x3b0|         33                                    |   3            |                                        opcode: "i64.load16_u" (0x33) 0x3b3-0x3b4 (1)
     |                                               |                |                                        m{}: 0x3b4-0x3b6 (2)
0x3b0|            00                                 |    .           |                                          a: 0 (valid) 0x3b4-0x3b5 (1)
0x3b0|               00                              |     .          |                                          o: 0 (valid) 0x3b5-0x3b6 (1)
     |                                               |                |                                      [5]{}: instr 0x3b6-0x3b8 (2)
0x3b0|                  21                           |      !         |                                        opcode: "local.set" (0x21) 0x3b6-0x3b7 (1)
0x3b0|                     03                        |       .        |                                        x: 3 (valid) 0x3b7-0x3b8 (1)
0x3b0|                        0b                     |        .       |                                    end: 0xb (valid) 0x3b8-0x3b9 (1)
     |                                               |                |                                  [9]{}: instr 0x3b9-0x3bb (2)
0x3b0|                           20                  |                |                                    opcode: "local.get" (0x20) 0x3b9-0x3ba (1)
0x3b0|                              01               |          .     |                                    x: 1 (valid) 0x3ba-0x3bb (1)
     |                                               |                |                                  [10]{}: instr 0x3bb-0x3bd (2)
0x3b0|                                 41            |           A    |                                    opcode: "i32.const" (0x41) 0x3bb-0x3bc (1)
0x3b0|                                    02         |            .   |                                    n: 2 (valid) 0x3bc-0x3bd (1)
     |                                               |                |                                  [11]{}: instr 0x3bd-0x3be (1)
0x3b0|                                       46      |             F  |                                    opcode: "i32.eq" (0x46) 0x3bd-0x3be (1)
     |                                               |                |                                  [12]{}: instr 0x3be-0x3cf (17)
0x3b0|                                          04   |              . |                                    opcode: "if" (0x4) 0x3be-0x3bf (1)
0x3b0|                                             40|               @|                                    bt: "ε" (64) 0x3bf-0x3c0 (1)
     |                                               |                |                                    in1[0:6]: 0x3c0-0x3ce (14)
     |                                               |                |                                      [0]{}: instr 0x3c0-0x3c2 (2)
0x3c0|41                                             |A               |                                        opcode: "i32.const" (0x41) 0x3c0-0x3c1 (1)
0x3c0|   00                                          | .              |                                        n: 0 (valid) 0x3c1-0x3c2 (1)
     |                                               |                |                                      [1]{}: instr 0x3c2-0x3c4 (2)
0x3c0|      20                                       |                |                                        opcode: "local.get" (0x20) 0x3c2-0x3c3 (1)
0x3c0|         02                                    |   .            |                                        x: 2 (valid) 0x3c3-0x3c4 (1)
     |                                               |                |                                      [2]{}: instr 0x3c4-0x3c7 (3)
0x3c0|            3d                                 |    =           |                                        opcode: "i64.store16" (0x3d) 0x3c4-0x3c5 (1)
     |                                               |                |                                        m{}: 0x3c5-0x3c7 (2)
0x3c0|               01                              |     .          |                                          a: 1 (valid) 0x3c5-0x3c6 (1)
0x3c0|                  00                           |      .         |                                          o: 0 (valid) 0x3c6-0x3c7 (1)
     |                                               |                |                                      [3]{}: instr 0x3c7-0x3c9 (2)
0x3c0|                     41                        |       A        |                                        opcode: "i32.const" (0x41) 0x3c7-0x3c8 (1)
0x3c0|                        00                     |        .       |                                        n: 0 (valid) 0x3c8-0x3c9 (1)
     |                                               |                |                                      [4]{}: instr 0x3c9-0x3cc (3)
0x3c0|                           33                  |         3      |                                        opcode: "i64.load16_u" (0x33) 0x3c9-0x3ca (1)
     |                                               |                |                                        m{}: 0x3ca-0x3cc (2)
0x3c0|                              01               |          .     |                                          a: 1 (valid) 0x3ca-0x3cb (1)
0x3c0|                                 00            |           .    |                                          o: 0 (valid) 0x3cb-0x3cc (1)
     |                                               |                |                                      [5]{}: instr 0x3cc-0x3ce (2)
0x3c0|                                    21         |            !   |                                        opcode: "local.set" (0x21) 0x3cc-0x3cd (1)
0x3c0|                                       03      |             .  |                                        x: 3 (valid) 0x3cd-0x3ce (1)
0x3c0|                                          0b   |              . |                                    end: 0xb (valid) 0x3ce-0x3cf (1)
     |                                               |                |                                  [13]{}: instr 0x3cf-0x3d1 (2)
0x3c0|                                             0c|               .|                                    opcode: "br" (0xc) 0x3cf-0x3d0 (1)
0x3d0|03                                             |.               |                                    l: 3 (valid) 0x3d0-0x3d1 (1)
0x3d0|   0b                                          | .              |                                end: 0xb (valid) 0x3d1-0x3d2 (1)
     |                                               |                |                              [1]{}: instr 0x3d2-0x3d4 (2)
0x3d0|      20                                       |                |                                opcode: "local.get" (0x20) 0x3d2-0x3d3 (1)
0x3d0|         01                                    |   .            |                                x: 1 (valid) 0x3d3-0x3d4 (1)
     |                                               |                |                              [2]{}: instr 0x3d4-0x3d6 (2)
0x3d0|            41                                 |    A           |                                opcode: "i32.const" (0x41) 0x3d4-0x3d5 (1)
0x3d0|               00                              |     .          |                                n: 0 (valid) 0x3d5-0x3d6 (1)
     |                                               |                |                              [3]{}: instr 0x3d6-0x3d7 (1)
0x3d0|                  46                           |      F         |                                opcode: "i32.eq" (0x46) 0x3d6-0x3d7 (1)
     |                                               |                |                              [4]{}: instr 0x3d7-0x3e8 (17)
0x3d0|                     04                        |       .        |                                opcode: "if" (0x4) 0x3d7-0x3d8 (1)
0x3d0|                        40                     |        @       |                                bt: "ε" (64) 0x3d8-0x3d9 (1)
     |                                               |                |                                in1[0:6]: 0x3d9-0x3e7 (14)
     |                                               |                |                                  [0]{}: instr 0x3d9-0x3db (2)
0x3d0|                           41                  |         A      |                                    opcode: "i32.const" (0x41) 0x3d9-0x3da (1)
0x3d0|                              00               |          .     |                                    n: 0 (valid) 0x3da-0x3db (1)
     |                                               |                |                                  [1]{}: instr 0x3db-0x3dd (2)
0x3d0|                                 20            |                |                                    opcode: "local.get" (0x20) 0x3db-0x3dc (1)
0x3d0|                                    02         |            .   |                                    x: 2 (valid) 0x3dc-0x3dd (1)
     |                                               |                |                                  [2]{}: instr 0x3dd-0x3e0 (3)
0x3d0|                                       3e      |             >  |                                    opcode: "i64.store32" (0x3e) 0x3dd-0x3de (1)
     |                                               |                |                                    m{}: 0x3de-0x3e0 (2)
0x3d0|                                          02   |              . |                                      a: 2 (valid) 0x3de-0x3df (1)
0x3d0|                                             00|               .|                                      o: 0 (valid) 0x3df-0x3e0 (1)
     |                                               |                |                                  [3]{}: instr 0x3e0-0x3e2 (2)
0x3e0|41                                             |A               |                                    opcode: "i32.const" (0x41) 0x3e0-0x3e1 (1)
0x3e0|   00                                          | .              |                                    n: 0 (valid) 0x3e1-0x3e2 (1)
     |                                               |                |                                  [4]{}: instr 0x3e2-0x3e5 (3)
0x3e0|      34                                       |  4             |                                    opcode: "i64.load32_s" (0x34) 0x3e2-0x3e3 (1)
     |                                               |                |                                    m{}: 0x3e3-0x3e5 (2)
0x3e0|         02                                    |   .            |                                      a: 2 (valid) 0x3e3-0x3e4 (1)
0x3e0|            00                                 |    .           |                                      o: 0 (valid) 0x3e4-0x3e5 (1)
     |                                               |                |                                  [5]{}: instr 0x3e5-0x3e7 (2)
0x3e0|               21                              |     !          |                                    opcode: "local.set" (0x21) 0x3e5-0x3e6 (1)
0x3e0|                  03                           |      .         |                                    x: 3 (valid) 0x3e6-0x3e7 (1)
0x3e0|                     0b                        |       .        |                                end: 0xb (valid) 0x3e7-0x3e8 (1)
     |                                               |                |                              [5]{}: instr 0x3e8-0x3ea (2)
0x3e0|                        20                     |                |                                opcode: "local.get" (0x20) 0x3e8-0x3e9 (1)
0x3e0|                           01                  |         .      |                                x: 1 (valid) 0x3e9-0x3ea (1)
     |                                               |                |                              [6]{}: instr 0x3ea-0x3ec (2)
0x3e0|                              41               |          A     |                                opcode: "i32.const" (0x41) 0x3ea-0x3eb (1)
0x3e0|                                 01            |           .    |                                n: 1 (valid) 0x3eb-0x3ec (1)
     |                                               |                |                              [7]{}: instr 0x3ec-0x3ed (1)
0x3e0|                                    46         |            F   |                                opcode: "i32.eq" (0x46) 0x3ec-0x3ed (1)
     |                                               |                |                              [8]{}: instr 0x3ed-0x3fe (17)
0x3e0|                                       04      |             .  |                                opcode: "if" (0x4) 0x3ed-0x3ee (1)
0x3e0|                                          40   |              @ |                                bt: "ε" (64) 0x3ee-0x3ef (1)
     |                                               |                |                                in1[0:6]: 0x3ef-0x3fd (14)
     |                                               |                |                                  [0]{}: instr 0x3ef-0x3f1 (2)
0x3e0|                                             41|               A|                                    opcode: "i32.const" (0x41) 0x3ef-0x3f0 (1)
0x3f0|00                                             |.               |                                    n: 0 (valid) 0x3f0-0x3f1 (1)
     |                                               |                |                                  [1]{}: instr 0x3f1-0x3f3 (2)
0x3f0|   20                                          |                |                                    opcode: "local.get" (0x20) 0x3f1-0x3f2 (1)
0x3f0|      02                                       |  .             |                                    x: 2 (valid) 0x3f2-0x3f3 (1)
     |                                               |                |                                  [2]{}: instr 0x3f3-0x3f6 (3)
0x3f0|         3e                                    |   >            |                                    opcode: "i64.store32" (0x3e) 0x3f3-0x3f4 (1)
     |                                               |                |                                    m{}: 0x3f4-0x3f6 (2)
0x3f0|            00                                 |    .           |                                      a: 0 (valid) 0x3f4-0x3f5 (1)
0x3f0|               00                              |     .          |                                      o: 0 (valid) 0x3f5-0x3f6 (1)
     |                                               |                |                                  [3]{}: instr 0x3f6-0x3f8 (2)
0x3f0|                  41                           |      A         |                                    opcode: "i32.const" (0x41) 0x3f6-0x3f7 (1)
0x3f0|                     00                        |       .        |                                    n: 0 (valid) 0x3f7-0x3f8 (1)
     |                                               |                |                                  [4]{}: instr 0x3f8-0x3fb (3)
0x3f0|                        34                     |        4       |                                    opcode: "i64.load32_s" (0x34) 0x3f8-0x3f9 (1)
     |                                               |                |                                    m{}: 0x3f9-0x3fb (2)
0x3f0|                           00                  |         .      |                                      a: 0 (valid) 0x3f9-0x3fa (1)
0x3f0|                              00               |          .     |                                      o: 0 (valid) 0x3fa-0x3fb (1)
     |                                               |                |                                  [5]{}: instr 0x3fb-0x3fd (2)
0x3f0|                                 21            |           !    |                                    opcode: "local.set" (0x21) 0x3fb-0x3fc (1)
0x3f0|                                    03         |            .   |                                    x: 3 (valid) 0x3fc-0x3fd (1)
0x3f0|                                       0b      |             .  |                                end: 0xb (valid) 0x3fd-0x3fe (1)
     |                                               |                |                              [9]{}: instr 0x3fe-0x400 (2)
0x3f0|                                          20   |                |                                opcode: "local.get" (0x20) 0x3fe-0x3ff (1)
0x3f0|                                             01|               .|                                x: 1 (valid) 0x3ff-0x400 (1)
     |                                               |                |                              [10]{}: instr 0x400-0x402 (2)
0x400|41                                             |A               |                                opcode: "i32.const" (0x41) 0x400-0x401 (1)
0x400|   02                                          | .              |                                n: 2 (valid) 0x401-0x402 (1)
     |                                               |                |                              [11]{}: instr 0x402-0x403 (1)
0x400|      46                                       |  F             |                                opcode: "i32.eq" (0x46) 0x402-0x403 (1)
     |                                               |                |                              [12]{}: instr 0x403-0x414 (17)
0x400|         04                                    |   .            |                                opcode: "if" (0x4) 0x403-0x404 (1)
0x400|            40                                 |    @           |                                bt: "ε" (64) 0x404-0x405 (1)
     |                                               |                |                                in1[0:6]: 0x405-0x413 (14)
     |                                               |                |                                  [0]{}: instr 0x405-0x407 (2)
0x400|               41                              |     A          |                                    opcode: "i32.const" (0x41) 0x405-0x406 (1)
0x400|                  00                           |      .         |                                    n: 0 (valid) 0x406-0x407 (1)
     |                                               |                |                                  [1]{}: instr 0x407-0x409 (2)
0x400|                     20                        |                |                                    opcode: "local.get" (0x20) 0x407-0x408 (1)
0x400|                        02                     |        .       |                                    x: 2 (valid) 0x408-0x409 (1)
     |                                               |                |                                  [2]{}: instr 0x409-0x40c (3)
0x400|                           3e                  |         >      |                                    opcode: "i64.store32" (0x3e) 0x409-0x40a (1)
     |                                               |                |                                    m{}: 0x40a-0x40c (2)
0x400|                              01               |          .     |                                      a: 1 (valid) 0x40a-0x40b (1)
0x400|                                 00            |           .    |                                      o: 0 (valid) 0x40b-0x40c (1)
     |                                               |                |                                  [3]{}: instr 0x40c-0x40e (2)
0x400|                                    41         |            A   |                                    opcode: "i32.const" (0x41) 0x40c-0x40d (1)
0x400|                                       00      |             .  |                                    n: 0 (valid) 0x40d-0x40e (1)
     |                                               |                |                                  [4]{}: instr 0x40e-0x411 (3)
0x400|                                          34   |              4 |                                    opcode: "i64.load32_s" (0x34) 0x40e-0x40f (1)
     |                                               |                |                                    m{}: 0x40f-0x411 (2)
0x400|                                             01|               .|                                      a: 1 (valid) 0x40f-0x410 (1)
0x410|00                                             |.               |                                      o: 0 (valid) 0x410-0x411 (1)
     |                                               |                |                                  [5]{}: instr 0x411-0x413 (2)
0x410|   21                                          | !              |                                    opcode: "local.set" (0x21) 0x411-0x412 (1)
0x410|      03                                       |  .             |                                    x: 3 (valid) 0x412-0x413 (1)
0x410|         0b                                    |   .            |                                end: 0xb (valid) 0x413-0x414 (1)
     |                                               |                |                              [13]{}: instr 0x414-0x416 (2)
0x410|            20                                 |                |                                opcode: "local.get" (0x20) 0x414-0x415 (1)
0x410|               01                              |     .          |                                x: 1 (valid) 0x415-0x416 (1)
     |                                               |                |                              [14]{}: instr 0x416-0x418 (2)
0x410|                  41                           |      A         |                                opcode: "i32.const" (0x41) 0x416-0x417 (1)
0x410|                     04                        |       .        |                                n: 4 (valid) 0x417-0x418 (1)
     |                                               |                |                              [15]{}: instr 0x418-0x419 (1)
0x410|                        46                     |        F       |                                opcode: "i32.eq" (0x46) 0x418-0x419 (1)
     |                                               |                |                              [16]{}: instr 0x419-0x42a (17)
0x410|                           04                  |         .      |                                opcode: "if" (0x4) 0x419-0x41a (1)
0x410|                              40               |          @     |                                bt: "ε" (64) 0x41a-0x41b (1)
     |                                               |                |                                in1[0:6]: 0x41b-0x429 (14)
     |                                               |                |                                  [0]{}: instr 0x41b-0x41d (2)
0x410|                                 41            |           A    |                                    opcode: "i32.const" (0x41) 0x41b-0x41c (1)
0x410|                                    00         |            .   |                                    n: 0 (valid) 0x41c-0x41d (1)
     |                                               |                |                                  [1]{}: instr 0x41d-0x41f (2)
0x410|                                       20      |                |                                    opcode: "local.get" (0x20) 0x41d-0x41e (1)
0x410|                                          02   |              . |                                    x: 2 (valid) 0x41e-0x41f (1)
     |                                               |                |                                  [2]{}: instr 0x41f-0x422 (3)
0x410|                                             3e|               >|                                    opcode: "i64.store32" (0x3e) 0x41f-0x420 (1)
     |                                               |                |                                    m{}: 0x420-0x422 (2)
0x420|02                                             |.               |                                      a: 2 (valid) 0x420-0x421 (1)
0x420|   00                                          | .              |                                      o: 0 (valid) 0x421-0x422 (1)
     |                                               |                |                                  [3]{}: instr 0x422-0x424 (2)
0x420|      41                                       |  A             |                                    opcode: "i32.const" (0x41) 0x422-0x423 (1)
0x420|         00                                    |   .            |                                    n: 0 (valid) 0x423-0x424 (1)
     |                                               |                |                                  [4]{}: instr 0x424-0x427 (3)
0x420|            34                                 |    4           |                                    opcode: "i64.load32_s" (0x34) 0x424-0x425 (1)
     |                                               |                |                                    m{}: 0x425-0x427 (2)
0x420|               02                              |     .          |                                      a: 2 (valid) 0x425-0x426 (1)
0x420|                  00                           |      .         |                                      o: 0 (valid) 0x426-0x427 (1)
     |                                               |                |                                  [5]{}: instr 0x427-0x429 (2)
0x420|                     21                        |       !        |                                    opcode: "local.set" (0x21) 0x427-0x428 (1)
0x420|                        03                     |        .       |                                    x: 3 (valid) 0x428-0x429 (1)
0x420|                           0b                  |         .      |                                end: 0xb (valid) 0x429-0x42a (1)
     |                                               |                |                              [17]{}: instr 0x42a-0x42c (2)
0x420|                              0c               |          .     |                                opcode: "br" (0xc) 0x42a-0x42b (1)
0x420|                                 02            |           .    |                                l: 2 (valid) 0x42b-0x42c (1)
0x420|                                    0b         |            .   |                            end: 0xb (valid) 0x42c-0x42d (1)
     |                                               |                |                          [1]{}: instr 0x42d-0x42f (2)
0x420|                                       20      |                |                            opcode: "local.get" (0x20) 0x42d-0x42e (1)
0x420|                                          01   |              . |                            x: 1 (valid) 0x42e-0x42f (1)
     |                                               |                |                          [2]{}: instr 0x42f-0x431 (2)
0x420|                                             41|               A|                            opcode: "i32.const" (0x41) 0x42f-0x430 (1)
0x430|00                                             |.               |                            n: 0 (valid) 0x430-0x431 (1)
     |                                               |                |                          [3]{}: instr 0x431-0x432 (1)
0x430|   46                                          | F              |                            opcode: "i32.eq" (0x46) 0x431-0x432 (1)
     |                                               |                |                          [4]{}: instr 0x432-0x443 (17)
0x430|      04                                       |  .             |                            opcode: "if" (0x4) 0x432-0x433 (1)
0x430|         40                                    |   @            |                            bt: "ε" (64) 0x433-0x434 (1)
     |                                               |                |                            in1[0:6]: 0x434-0x442 (14)
     |                                               |                |                              [0]{}: instr 0x434-0x436 (2)
0x430|            41                                 |    A           |                                opcode: "i32.const" (0x41) 0x434-0x435 (1)
0x430|               00                              |     .          |                                n: 0 (valid) 0x435-0x436 (1)
     |                                               |                |                              [1]{}: instr 0x436-0x438 (2)
0x430|                  20                           |                |                                opcode: "local.get" (0x20) 0x436-0x437 (1)
0x430|                     02                        |       .        |                                x: 2 (valid) 0x437-0x438 (1)
     |                                               |                |                              [2]{}: instr 0x438-0x43b (3)
0x430|                        3e                     |        >       |                                opcode: "i64.store32" (0x3e) 0x438-0x439 (1)
     |                                               |                |                                m{}: 0x439-0x43b (2)
0x430|                           02                  |         .      |                                  a: 2 (valid) 0x439-0x43a (1)
0x430|                              00               |          .     |                                  o: 0 (valid) 0x43a-0x43b (1)
     |                                               |                |                              [3]{}: instr 0x43b-0x43d (2)
0x430|                                 41            |           A    |                                opcode: "i32.const" (0x41) 0x43b-0x43c (1)
0x430|                                    00         |            .   |                                n: 0 (valid) 0x43c-0x43d (1)
     |                                               |                |                              [4]{}: instr 0x43d-0x440 (3)
0x430|                                       35      |             5  |                                opcode: "i64.load32_u" (0x35) 0x43d-0x43e (1)
     |                                               |                |                                m{}: 0x43e-0x440 (2)
0x430|                                          02   |              . |                                  a: 2 (valid) 0x43e-0x43f (1)
0x430|                                             00|               .|                                  o: 0 (valid) 0x43f-0x440 (1)
     |                                               |                |                              [5]{}: instr 0x440-0x442 (2)
0x440|21                                             |!               |                                opcode: "local.set" (0x21) 0x440-0x441 (1)
0x440|   03                                          | .              |                                x: 3 (valid) 0x441-0x442 (1)
0x440|      0b                                       |  .             |                            end: 0xb (valid) 0x442-0x443 (1)
     |                                               |                |                          [5]{}: instr 0x443-0x445 (2)
0x440|         20                                    |                |                            opcode: "local.get" (0x20) 0x443-0x444 (1)
0x440|            01                                 |    .           |                            x: 1 (valid) 0x444-0x445 (1)
     |                                               |                |                          [6]{}: instr 0x445-0x447 (2)
0x440|               41                              |     A          |                            opcode: "i32.const" (0x41) 0x445-0x446 (1)
0x440|                  01                           |      .         |                            n: 1 (valid) 0x446-0x447 (1)
     |                                               |                |                          [7]{}: instr 0x447-0x448 (1)
0x440|                     46                        |       F        |                            opcode: "i32.eq" (0x46) 0x447-0x448 (1)
     |                                               |                |                          [8]{}: instr 0x448-0x459 (17)
0x440|                        04                     |        .       |                            opcode: "if" (0x4) 0x448-0x449 (1)
0x440|                           40                  |         @      |                            bt: "ε" (64) 0x449-0x44a (1)
     |                                               |                |                            in1[0:6]: 0x44a-0x458 (14)
     |                                               |                |                              [0]{}: instr 0x44a-0x44c (2)
0x440|                              41               |          A     |                                opcode: "i32.const" (0x41) 0x44a-0x44b (1)
0x440|                                 00            |           .    |                                n: 0 (valid) 0x44b-0x44c (1)
     |                                               |                |                              [1]{}: instr 0x44c-0x44e (2)
0x440|                                    20         |                |                                opcode: "local.get" (0x20) 0x44c-0x44d (1)
0x440|                                       02      |             .  |                                x: 2 (valid) 0x44d-0x44e (1)
     |                                               |                |                              [2]{}: instr 0x44e-0x451 (3)
0x440|                                          3e   |              > |                                opcode: "i64.store32" (0x3e) 0x44e-0x44f (1)
     |                                               |                |                                m{}: 0x44f-0x451 (2)
0x440|                                             00|               .|                                  a: 0 (valid) 0x44f-0x450 (1)
0x450|00                                             |.               |                                  o: 0 (valid) 0x450-0x451 (1)
     |                                               |                |                              [3]{}: instr 0x451-0x453 (2)
0x450|   41                                          | A              |                                opcode: "i32.const" (0x41) 0x451-0x452 (1)
0x450|      00                                       |  .             |                                n: 0 (valid) 0x452-0x453 (1)
     |                                               |                |                              [4]{}: instr 0x453-0x456 (3)
0x450|         35                                    |   5            |                                opcode: "i64.load32_u" (0x35) 0x453-0x454 (1)
     |                                               |                |                                m{}: 0x454-0x456 (2)
0x450|            00                                 |    .           |                                  a: 0 (valid) 0x454-0x455 (1)
0x450|               00                              |     .          |                                  o: 0 (valid) 0x455-0x456 (1)
     |                                               |                |                              [5]{}: instr 0x456-0x458 (2)
0x450|                  21                           |      !         |                                opcode: "local.set" (0x21) 0x456-0x457 (1)
0x450|                     03                        |       .        |                                x: 3 (valid) 0x457-0x458 (1)
0x450|                        0b                     |        .       |                            end: 0xb (valid) 0x458-0x459 (1)
     |                                               |                |                          [9]{}: instr 0x459-0x45b (2)
0x450|                           20                  |                |                            opcode: "local.get" (0x20) 0x459-0x45a (1)
0x450|                              01               |          .     |                            x: 1 (valid) 0x45a-0x45b (1)
     |                                               |                |                          [10]{}: instr 0x45b-0x45d (2)
0x450|                                 41            |           A    |                            opcode: "i32.const" (0x41) 0x45b-0x45c (1)
0x450|                                    02         |            .   |                            n: 2 (valid) 0x45c-0x45d (1)
     |                                               |                |                          [11]{}: instr 0x45d-0x45e (1)
0x450|                                       46      |             F  |                            opcode: "i32.eq" (0x46) 0x45d-0x45e (1)
     |                                               |                |                          [12]{}: instr 0x45e-0x46f (17)
0x450|                                          04   |              . |                            opcode: "if" (0x4) 0x45e-0x45f (1)
0x450|                                             40|               @|                            bt: "ε" (64) 0x45f-0x460 (1)
     |                                               |                |                            in1[0:6]: 0x460-0x46e (14)
     |                                               |                |                              [0]{}: instr 0x460-0x462 (2)
0x460|41                                             |A               |                                opcode: "i32.const" (0x41) 0x460-0x461 (1)
0x460|   00                                          | .              |                                n: 0 (valid) 0x461-0x462 (1)
     |                                               |                |                              [1]{}: instr 0x462-0x464 (2)
0x460|      20                                       |                |                                opcode: "local.get" (0x20) 0x462-0x463 (1)
0x460|         02                                    |   .            |                                x: 2 (valid) 0x463-0x464 (1)
     |                                               |                |                              [2]{}: instr 0x464-0x467 (3)
0x460|            3e                                 |    >           |                                opcode: "i64.store32" (0x3e) 0x464-0x465 (1)
     |                                               |                |                                m{}: 0x465-0x467 (2)
0x460|               01                              |     .          |                                  a: 1 (valid) 0x465-0x466 (1)
0x460|                  00                           |      .         |                                  o: 0 (valid) 0x466-0x467 (1)
     |                                               |                |                              [3]{}: instr 0x467-0x469 (2)
0x460|                     41                        |       A        |                                opcode: "i32.const" (0x41) 0x467-0x468 (1)
0x460|                        00                     |        .       |                                n: 0 (valid) 0x468-0x469 (1)
     |                                               |                |                              [4]{}: instr 0x469-0x46c (3)
0x460|                           35                  |         5      |                                opcode: "i64.load32_u" (0x35) 0x469-0x46a (1)
     |                                               |                |                                m{}: 0x46a-0x46c (2)
0x460|                              01               |          .     |                                  a: 1 (valid) 0x46a-0x46b (1)
0x460|                                 00            |           .    |                                  o: 0 (valid) 0x46b-0x46c (1)
     |                                               |                |                              [5]{}: instr 0x46c-0x46e (2)
0x460|                                    21         |            !   |                                opcode: "local.set" (0x21) 0x46c-0x46d (1)
0x460|                                       03      |             .  |                                x: 3 (valid) 0x46d-0x46e (1)
0x460|                                          0b   |              . |                            end: 0xb (valid) 0x46e-0x46f (1)
     |                                               |                |                          [13]{}: instr 0x46f-0x471 (2)
0x460|                                             20|                |                            opcode: "local.get" (0x20) 0x46f-0x470 (1)
0x470|01                                             |.               |                            x: 1 (valid) 0x470-0x471 (1)
     |                                               |                |                          [14]{}: instr 0x471-0x473 (2)
0x470|   41                                          | A              |                            opcode: "i32.const" (0x41) 0x471-0x472 (1)
0x470|      04                                       |  .             |                            n: 4 (valid) 0x472-0x473 (1)
     |                                               |                |                          [15]{}: instr 0x473-0x474 (1)
0x470|         46                                    |   F            |                            opcode: "i32.eq" (0x46) 0x473-0x474 (1)
     |                                               |                |                          [16]{}: instr 0x474-0x485 (17)
0x470|            04                                 |    .           |                            opcode: "if" (0x4) 0x474-0x475 (1)
0x470|               40                              |     @          |                            bt: "ε" (64) 0x475-0x476 (1)
     |                                               |                |                            in1[0:6]: 0x476-0x484 (14)
     |                                               |                |                              [0]{}: instr 0x476-0x478 (2)
0x470|                  41                           |      A         |                                opcode: "i32.const" (0x41) 0x476-0x477 (1)
0x470|                     00                        |       .        |                                n: 0 (valid) 0x477-0x478 (1)
     |                                               |                |                              [1]{}: instr 0x478-0x47a (2)
0x470|                        20                     |                |                                opcode: "local.get" (0x20) 0x478-0x479 (1)
0x470|                           02                  |         .      |                                x: 2 (valid) 0x479-0x47a (1)
     |                                               |                |                              [2]{}: instr 0x47a-0x47d (3)
0x470|                              3e               |          >     |                                opcode: "i64.store32" (0x3e) 0x47a-0x47b (1)
     |                                               |                |                                m{}: 0x47b-0x47d (2)
0x470|                                 02            |           .    |                                  a: 2 (valid) 0x47b-0x47c (1)
0x470|                                    00         |            .   |                                  o: 0 (valid) 0x47c-0x47d (1)
     |                                               |                |                              [3]{}: instr 0x47d-0x47f (2)
0x470|                                       41      |             A  |                                opcode: "i32.const" (0x41) 0x47d-0x47e (1)
0x470|                                          00   |              . |                                n: 0 (valid) 0x47e-0x47f (1)
     |                                               |                |                              [4]{}: instr 0x47f-0x482 (3)
0x470|                                             35|               5|                                opcode: "i64.load32_u" (0x35) 0x47f-0x480 (1)
     |                                               |                |                                m{}: 0x480-0x482 (2)
0x480|02                                             |.               |                                  a: 2 (valid) 0x480-0x481 (1)
0x480|   00                                          | .              |                                  o: 0 (valid) 0x481-0x482 (1)
     |                                               |                |                              [5]{}: instr 0x482-0x484 (2)
0x480|      21                                       |  !             |                                opcode: "local.set" (0x21) 0x482-0x483 (1)
0x480|         03                                    |   .            |                                x: 3 (valid) 0x483-0x484 (1)
0x480|            0b                                 |    .           |                            end: 0xb (valid) 0x484-0x485 (1)
     |                                               |                |                          [17]{}: instr 0x485-0x487 (2)
0x480|               0c                              |     .          |                            opcode: "br" (0xc) 0x485-0x486 (1)
0x480|                  01                           |      .         |                            l: 1 (valid) 0x486-0x487 (1)
0x480|                     0b                        |       .        |                        end: 0xb (valid) 0x487-0x488 (1)
     |                                               |                |                      [1]{}: instr 0x488-0x48a (2)
0x480|                        20                     |                |                        opcode: "local.get" (0x20) 0x488-0x489 (1)
0x480|                           01                  |         .      |                        x: 1 (valid) 0x489-0x48a (1)
     |                                               |                |                      [2]{}: instr 0x48a-0x48c (2)
0x480|                              41               |          A     |                        opcode: "i32.const" (0x41) 0x48a-0x48b (1)
0x480|                                 00            |           .    |                        n: 0 (valid) 0x48b-0x48c (1)
     |                                               |                |                      [3]{}: instr 0x48c-0x48d (1)
0x480|                                    46         |            F   |                        opcode: "i32.eq" (0x46) 0x48c-0x48d (1)
     |                                               |                |                      [4]{}: instr 0x48d-0x49e (17)
0x480|                                       04      |             .  |                        opcode: "if" (0x4) 0x48d-0x48e (1)
0x480|                                          40   |              @ |                        bt: "ε" (64) 0x48e-0x48f (1)
     |                                               |                |                        in1[0:6]: 0x48f-0x49d (14)
     |                                               |                |                          [0]{}: instr 0x48f-0x491 (2)
0x480|                                             41|               A|                            opcode: "i32.const" (0x41) 0x48f-0x490 (1)
0x490|00                                             |.               |                            n: 0 (valid) 0x490-0x491 (1)
     |                                               |                |                          [1]{}: instr 0x491-0x493 (2)
0x490|   20                                          |                |                            opcode: "local.get" (0x20) 0x491-0x492 (1)
0x490|      02                                       |  .             |                            x: 2 (valid) 0x492-0x493 (1)
     |                                               |                |                          [2]{}: instr 0x493-0x496 (3)
0x490|         37                                    |   7            |                            opcode: "i64.store" (0x37) 0x493-0x494 (1)
     |                                               |                |                            m{}: 0x494-0x496 (2)
0x490|            03                                 |    .           |                              a: 3 (valid) 0x494-0x495 (1)
0x490|               00                              |     .          |                              o: 0 (valid) 0x495-0x496 (1)
     |                                               |                |                          [3]{}: instr 0x496-0x498 (2)
0x490|                  41                           |      A         |                            opcode: "i32.const" (0x41) 0x496-0x497 (1)
0x490|                     00                        |       .        |                            n: 0 (valid) 0x497-0x498 (1)
     |                                               |                |                          [4]{}: instr 0x498-0x49b (3)
0x490|                        29                     |        )       |                            opcode: "i64.load" (0x29) 0x498-0x499 (1)
     |                                               |                |                            m{}: 0x499-0x49b (2)
0x490|                           03                  |         .      |                              a: 3 (valid) 0x499-0x49a (1)
0x490|                              00               |          .     |                              o: 0 (valid) 0x49a-0x49b (1)
     |                                               |                |                          [5]{}: instr 0x49b-0x49d (2)
0x490|                                 21            |           !    |                            opcode: "local.set" (0x21) 0x49b-0x49c (1)
0x490|                                    03         |            .   |                            x: 3 (valid) 0x49c-0x49d (1)
0x490|                                       0b      |             .  |                        end: 0xb (valid) 0x49d-0x49e (1)
     |                                               |                |                      [5]{}: instr 0x49e-0x4a0 (2)
0x490|                                          20   |                |                        opcode: "local.get" (0x20) 0x49e-0x49f (1)
0x490|                                             01|               .|                        x: 1 (valid) 0x49f-0x4a0 (1)
     |                                               |                |                      [6]{}: instr 0x4a0-0x4a2 (2)
0x4a0|41                                             |A               |                        opcode: "i32.const" (0x41) 0x4a0-0x4a1 (1)
0x4a0|   01                                          | .              |                        n: 1 (valid) 0x4a1-0x4a2 (1)
     |                                               |                |                      [7]{}: instr 0x4a2-0x4a3 (1)
0x4a0|      46                                       |  F             |                        opcode: "i32.eq" (0x46) 0x4a2-0x4a3 (1)
     |                                               |                |                      [8]{}: instr 0x4a3-0x4b4 (17)
0x4a0|         04                                    |   .            |                        opcode: "if" (0x4) 0x4a3-0x4a4 (1)
0x4a0|            40                                 |    @           |                        bt: "ε" (64) 0x4a4-0x4a5 (1)
     |                                               |                |                        in1[0:6]: 0x4a5-0x4b3 (14)
     |                                               |                |                          [0]{}: instr 0x4a5-0x4a7 (2)
0x4a0|               41                              |     A          |                            opcode: "i32.const" (0x41) 0x4a5-0x4a6 (1)
0x4a0|                  00                           |      .         |                            n: 0 (valid) 0x4a6-0x4a7 (1)
     |                                               |                |                          [1]{}: instr 0x4a7-0x4a9 (2)
0x4a0|                     20                        |                |                            opcode: "local.get" (0x20) 0x4a7-0x4a8 (1)
0x4a0|                        02                     |        .       |                            x: 2 (valid) 0x4a8-0x4a9 (1)
     |                                               |                |                          [2]{}: instr 0x4a9-0x4ac (3)
0x4a0|                           37                  |         7      |                            opcode: "i64.store" (0x37) 0x4a9-0x4aa (1)
     |                                               |                |                            m{}: 0x4aa-0x4ac (2)
0x4a0|                              00               |          .     |                              a: 0 (valid) 0x4aa-0x4ab (1)
0x4a0|                                 00            |           .    |                              o: 0 (valid) 0x4ab-0x4ac (1)
     |                                               |                |                          [3]{}: instr 0x4ac-0x4ae (2)
0x4a0|                                    41         |            A   |                            opcode: "i32.const" (0x41) 0x4ac-0x4ad (1)
0x4a0|                                       00      |             .  |                            n: 0 (valid) 0x4ad-0x4ae (1)
     |                                               |                |                          [4]{}: instr 0x4ae-0x4b1 (3)
0x4a0|                                          29   |              ) |                            opcode: "i64.load" (0x29) 0x4ae-0x4af (1)
     |                                               |                |                            m{}: 0x4af-0x4b1 (2)
0x4a0|                                             00|               .|                              a: 0 (valid) 0x4af-0x4b0 (1)
0x4b0|00                                             |.               |                              o: 0 (valid) 0x4b0-0x4b1 (1)
     |                                               |                |                          [5]{}: instr 0x4b1-0x4b3 (2)
0x4b0|   21                                          | !              |                            opcode: "local.set" (0x21) 0x4b1-0x4b2 (1)
0x4b0|      03                                       |  .             |                            x: 3 (valid) 0x4b2-0x4b3 (1)
0x4b0|         0b                                    |   .            |                        end: 0xb (valid) 0x4b3-0x4b4 (1)
     |                                               |                |                      [9]{}: instr 0x4b4-0x4b6 (2)
0x4b0|            20                                 |                |                        opcode: "local.get" (0x20) 0x4b4-0x4b5 (1)
0x4b0|               01                              |     .          |                        x: 1 (valid) 0x4b5-0x4b6 (1)
     |                                               |                |                      [10]{}: instr 0x4b6-0x4b8 (2)
0x4b0|                  41                           |      A         |                        opcode: "i32.const" (0x41) 0x4b6-0x4b7 (1)
0x4b0|                     02                        |       .        |                        n: 2 (valid) 0x4b7-0x4b8 (1)
     |                                               |                |                      [11]{}: instr 0x4b8-0x4b9 (1)
0x4b0|                        46                     |        F       |                        opcode: "i32.eq" (0x46) 0x4b8-0x4b9 (1)
     |                                               |                |                      [12]{}: instr 0x4b9-0x4ca (17)
0x4b0|                           04                  |         .      |                        opcode: "if" (0x4) 0x4b9-0x4ba (1)
0x4b0|                              40               |          @     |                        bt: "ε" (64) 0x4ba-0x4bb (1)
     |                                               |                |                        in1[0:6]: 0x4bb-0x4c9 (14)
     |                                               |                |                          [0]{}: instr 0x4bb-0x4bd (2)
0x4b0|                                 41            |           A    |                            opcode: "i32.const" (0x41) 0x4bb-0x4bc (1)
0x4b0|                                    00         |            .   |                            n: 0 (valid) 0x4bc-0x4bd (1)
     |                                               |                |                          [1]{}: instr 0x4bd-0x4bf (2)
0x4b0|                                       20      |                |                            opcode: "local.get" (0x20) 0x4bd-0x4be (1)
0x4b0|                                          02   |              . |                            x: 2 (valid) 0x4be-0x4bf (1)
     |                                               |                |                          [2]{}: instr 0x4bf-0x4c2 (3)
0x4b0|                                             37|               7|                            opcode: "i64.store" (0x37) 0x4bf-0x4c0 (1)
     |                                               |                |                            m{}: 0x4c0-0x4c2 (2)
0x4c0|01                                             |.               |                              a: 1 (valid) 0x4c0-0x4c1 (1)
0x4c0|   00                                          | .              |                              o: 0 (valid) 0x4c1-0x4c2 (1)
     |                                               |                |                          [3]{}: instr 0x4c2-0x4c4 (2)
0x4c0|      41                                       |  A             |                            opcode: "i32.const" (0x41) 0x4c2-0x4c3 (1)
0x4c0|         00                                    |   .            |                            n: 0 (valid) 0x4c3-0x4c4 (1)
     |                                               |                |                          [4]{}: instr 0x4c4-0x4c7 (3)
0x4c0|            29                                 |    )           |                            opcode: "i64.load" (0x29) 0x4c4-0x4c5 (1)
     |                                               |                |                            m{}: 0x4c5-0x4c7 (2)
0x4c0|               01                              |     .          |                              a: 1 (valid) 0x4c5-0x4c6 (1)
0x4c0|                  00                           |      .         |                              o: 0 (valid) 0x4c6-0x4c7 (1)
     |                                               |                |                          [5]{}: instr 0x4c7-0x4c9 (2)
0x4c0|                     21                        |       !        |                            opcode: "local.set" (0x21) 0x4c7-0x4c8 (1)
0x4c0|                        03                     |        .       |                            x: 3 (valid) 0x4c8-0x4c9 (1)
0x4c0|                           0b                  |         .      |                        end: 0xb (valid) 0x4c9-0x4ca (1)
     |                                               |                |                      [13]{}: instr 0x4ca-0x4cc (2)
0x4c0|                              20               |                |                        opcode: "local.get" (0x20) 0x4ca-0x4cb (1)
0x4c0|                                 01            |           .    |                        x: 1 (valid) 0x4cb-0x4cc (1)
     |                                               |                |                      [14]{}: instr 0x4cc-0x4ce (2)
0x4c0|                                    41         |            A   |                        opcode: "i32.const" (0x41) 0x4cc-0x4cd (1)
0x4c0|                                       04      |             .  |                        n: 4 (valid) 0x4cd-0x4ce (1)
     |                                               |                |                      [15]{}: instr 0x4ce-0x4cf (1)
0x4c0|                                          46   |              F |                        opcode: "i32.eq" (0x46) 0x4ce-0x4cf (1)
     |                                               |                |                      [16]{}: instr 0x4cf-0x4e0 (17)
0x4c0|                                             04|               .|                        opcode: "if" (0x4) 0x4cf-0x4d0 (1)
0x4d0|40                                             |@               |                        bt: "ε" (64) 0x4d0-0x4d1 (1)
     |                                               |                |                        in1[0:6]: 0x4d1-0x4df (14)
     |                                               |                |                          [0]{}: instr 0x4d1-0x4d3 (2)
0x4d0|   41                                          | A              |                            opcode: "i32.const" (0x41) 0x4d1-0x4d2 (1)
0x4d0|      00                                       |  .             |                            n: 0 (valid) 0x4d2-0x4d3 (1)
     |                                               |                |                          [1]{}: instr 0x4d3-0x4d5 (2)
0x4d0|         20                                    |                |                            opcode: "local.get" (0x20) 0x4d3-0x4d4 (1)
0x4d0|            02                                 |    .           |                            x: 2 (valid) 0x4d4-0x4d5 (1)
     |                                               |                |                          [2]{}: instr 0x4d5-0x4d8 (3)
0x4d0|               37                              |     7          |                            opcode: "i64.store" (0x37) 0x4d5-0x4d6 (1)
     |                                               |                |                            m{}: 0x4d6-0x4d8 (2)
0x4d0|                  02                           |      .         |                              a: 2 (valid) 0x4d6-0x4d7 (1)
0x4d0|                     00                        |       .        |                              o: 0 (valid) 0x4d7-0x4d8 (1)
     |                                               |                |                          [3]{}: instr 0x4d8-0x4da (2)
0x4d0|                        41                     |        A       |                            opcode: "i32.const" (0x41) 0x4d8-0x4d9 (1)
0x4d0|                           00                  |         .      |                            n: 0 (valid) 0x4d9-0x4da (1)
     |                                               |                |                          [4]{}: instr 0x4da-0x4dd (3)
0x4d0|                              29               |          )     |                            opcode: "i64.load" (0x29) 0x4da-0x4db (1)
     |                                               |                |                            m{}: 0x4db-0x4dd (2)
0x4d0|                                 02            |           .    |                              a: 2 (valid) 0x4db-0x4dc (1)
0x4d0|                                    00         |            .   |                              o: 0 (valid) 0x4dc-0x4dd (1)
     |                                               |                |                          [5]{}: instr 0x4dd-0x4df (2)
0x4d0|                                       21      |             !  |                            opcode: "local.set" (0x21) 0x4dd-0x4de (1)
0x4d0|                                          03   |              . |                            x: 3 (valid) 0x4de-0x4df (1)
0x4d0|                                             0b|               .|                        end: 0xb (valid) 0x4df-0x4e0 (1)
     |                                               |                |                      [17]{}: instr 0x4e0-0x4e2 (2)
0x4e0|20                                             |                |                        opcode: "local.get" (0x20) 0x4e0-0x4e1 (1)
0x4e0|   01                                          | .              |                        x: 1 (valid) 0x4e1-0x4e2 (1)
     |                                               |                |                      [18]{}: instr 0x4e2-0x4e4 (2)
0x4e0|      41                                       |  A             |                        opcode: "i32.const" (0x41) 0x4e2-0x4e3 (1)
0x4e0|         08                                    |   .            |                        n: 8 (valid) 0x4e3-0x4e4 (1)
     |                                               |                |                      [19]{}: instr 0x4e4-0x4e5 (1)
0x4e0|            46                                 |    F           |                        opcode: "i32.eq" (0x46) 0x4e4-0x4e5 (1)
     |                                               |                |                      [20]{}: instr 0x4e5-0x4f6 (17)
0x4e0|               04                              |     .          |                        opcode: "if" (0x4) 0x4e5-0x4e6 (1)
0x4e0|                  40                           |      @         |                        bt: "ε" (64) 0x4e6-0x4e7 (1)
     |                                               |                |                        in1[0:6]: 0x4e7-0x4f5 (14)
     |                                               |                |                          [0]{}: instr 0x4e7-0x4e9 (2)
0x4e0|                     41                        |       A        |                            opcode: "i32.const" (0x41) 0x4e7-0x4e8 (1)
0x4e0|                        00                     |        .       |                            n: 0 (valid) 0x4e8-0x4e9 (1)
     |                                               |                |                          [1]{}: instr 0x4e9-0x4eb (2)
0x4e0|                           20                  |                |                            opcode: "local.get" (0x20) 0x4e9-0x4ea (1)
0x4e0|                              02               |          .     |                            x: 2 (valid) 0x4ea-0x4eb (1)
     |                                               |                |                          [2]{}: instr 0x4eb-0x4ee (3)
0x4e0|                                 37            |           7    |                            opcode: "i64.store" (0x37) 0x4eb-0x4ec (1)
     |                                               |                |                            m{}: 0x4ec-0x4ee (2)
0x4e0|                                    03         |            .   |                              a: 3 (valid) 0x4ec-0x4ed (1)
0x4e0|                                       00      |             .  |                              o: 0 (valid) 0x4ed-0x4ee (1)
     |                                               |                |                          [3]{}: instr 0x4ee-0x4f0 (2)
0x4e0|                                          41   |              A |                            opcode: "i32.const" (0x41) 0x4ee-0x4ef (1)
0x4e0|                                             00|               .|                            n: 0 (valid) 0x4ef-0x4f0 (1)
     |                                               |                |                          [4]{}: instr 0x4f0-0x4f3 (3)
0x4f0|29                                             |)               |                            opcode: "i64.load" (0x29) 0x4f0-0x4f1 (1)
     |                                               |                |                            m{}: 0x4f1-0x4f3 (2)
0x4f0|   03                                          | .              |                              a: 3 (valid) 0x4f1-0x4f2 (1)
0x4f0|      00                                       |  .             |                              o: 0 (valid) 0x4f2-0x4f3 (1)
     |                                               |                |                          [5]{}: instr 0x4f3-0x4f5 (2)
0x4f0|         21                                    |   !            |                            opcode: "local.set" (0x21) 0x4f3-0x4f4 (1)
0x4f0|            03                                 |    .           |                            x: 3 (valid) 0x4f4-0x4f5 (1)
0x4f0|               0b                              |     .          |                        end: 0xb (valid) 0x4f5-0x4f6 (1)
0x4f0|                  0b                           |      .         |                    end: 0xb (valid) 0x4f6-0x4f7 (1)
     |                                               |                |                  [3]{}: in 0x4f7-0x4f9 (2)
0x4f0|                     20                        |                |                    opcode: "local.get" (0x20) 0x4f7-0x4f8 (1)
0x4f0|                        03                     |        .       |                    x: 3 (valid) 0x4f8-0x4f9 (1)
     |                                               |                |                  [4]{}: in 0x4f9-0x4fa (1)
0x4f0|                           0b|                 |         .|     |                    opcode: "end" (0xb) 0x4f9-0x4fa (1)
