$ fq -d wasm dv align-23.wasm
     |00 01 02 03 04 05 06 07 08 09 0a 0b 0c 0d 0e 0f|0123456789abcdef|.{}: align-23.wasm (wasm) 0x0-0x4f9.7 (1274)
0x000|00 61 73 6d                                    |.asm            |  magic: raw bits (valid) 0x0-0x3.7 (4)
0x000|            01 00 00 00                        |    ....        |  version: 1 0x4-0x7.7 (4)
     |                                               |                |  sections[0:5]: 0x8-0x4f9.7 (1266)
     |                                               |                |    [0]{}: section 0x8-0x20.7 (25)
0x000|                        01                     |        .       |      id: "type section" (1) 0x8-0x8.7 (1)
0x000|                           17                  |         .      |      size: 23 0x9-0x9.7 (1)
     |                                               |                |      content{}: 0xa-0x20.7 (23)
     |                                               |                |        ft{}: 0xa-0x20.7 (23)
0x000|                              04               |          .     |          n: 4 0xa-0xa.7 (1)
     |                                               |                |          x[0:4]: 0xb-0x20.7 (22)
     |                                               |                |            [0]{}: ft 0xb-0xf.7 (5)
0x000|                                 60            |           `    |              tag: 0x60 (valid) 0xb-0xb.7 (1)
     |                                               |                |              rt1{}: 0xc-0xd.7 (2)
0x000|                                    01         |            .   |                n: 1 0xc-0xc.7 (1)
     |                                               |                |                x[0:1]: 0xd-0xd.7 (1)
0x000|                                       7f      |             .  |                  [0]: "i32" (0x7f) t 0xd-0xd.7 (1)
     |                                               |                |              rt2{}: 0xe-0xf.7 (2)
0x000|                                          01   |              . |                n: 1 0xe-0xe.7 (1)
     |                                               |                |                x[0:1]: 0xf-0xf.7 (1)
0x000|                                             7d|               }|                  [0]: "f32" (0x7d) t 0xf-0xf.7 (1)
     |                                               |                |            [1]{}: ft 0x10-0x14.7 (5)
0x010|60                                             |`               |              tag: 0x60 (valid) 0x10-0x10.7 (1)
     |                                               |                |              rt1{}: 0x11-0x12.7 (2)
0x010|   01                                          | .              |                n: 1 0x11-0x11.7 (1)
     |                                               |                |                x[0:1]: 0x12-0x12.7 (1)
0x010|      7f                                       |  .             |                  [0]: "i32" (0x7f) t 0x12-0x12.7 (1)
     |                                               |                |              rt2{}: 0x13-0x14.7 (2)
0x010|         01                                    |   .            |                n: 1 0x13-0x13.7 (1)
     |                                               |                |                x[0:1]: 0x14-0x14.7 (1)
0x010|            7c                                 |    |           |                  [0]: "f64" (0x7c) t 0x14-0x14.7 (1)
     |                                               |                |            [2]{}: ft 0x15-0x1a.7 (6)
0x010|               60                              |     `          |              tag: 0x60 (valid) 0x15-0x15.7 (1)
     |                                               |                |              rt1{}: 0x16-0x18.7 (3)
0x010|                  02                           |      .         |                n: 2 0x16-0x16.7 (1)
     |                                               |                |                x[0:2]: 0x17-0x18.7 (2)
0x010|                     7f                        |       .        |                  [0]: "i32" (0x7f) t 0x17-0x17.7 (1)
0x010|                        7f                     |        .       |                  [1]: "i32" (0x7f) t 0x18-0x18.7 (1)
     |                                               |                |              rt2{}: 0x19-0x1a.7 (2)
0x010|                           01                  |         .      |                n: 1 0x19-0x19.7 (1)
     |                                               |                |                x[0:1]: 0x1a-0x1a.7 (1)
0x010|                              7f               |          .     |                  [0]: "i32" (0x7f) t 0x1a-0x1a.7 (1)
     |                                               |                |            [3]{}: ft 0x1b-0x20.7 (6)
0x010|                                 60            |           `    |              tag: 0x60 (valid) 0x1b-0x1b.7 (1)
     |                                               |                |              rt1{}: 0x1c-0x1e.7 (3)
0x010|                                    02         |            .   |                n: 2 0x1c-0x1c.7 (1)
     |                                               |                |                x[0:2]: 0x1d-0x1e.7 (2)
0x010|                                       7f      |             .  |                  [0]: "i32" (0x7f) t 0x1d-0x1d.7 (1)
0x010|                                          7f   |              . |                  [1]: "i32" (0x7f) t 0x1e-0x1e.7 (1)
     |                                               |                |              rt2{}: 0x1f-0x20.7 (2)
0x010|                                             01|               .|                n: 1 0x1f-0x1f.7 (1)
     |                                               |                |                x[0:1]: 0x20-0x20.7 (1)
0x020|7e                                             |~               |                  [0]: "i64" (0x7e) t 0x20-0x20.7 (1)
     |                                               |                |    [1]{}: section 0x21-0x27.7 (7)
0x020|   03                                          | .              |      id: "function section" (3) 0x21-0x21.7 (1)
0x020|      05                                       |  .             |      size: 5 0x22-0x22.7 (1)
     |                                               |                |      content{}: 0x23-0x27.7 (5)
     |                                               |                |        x{}: 0x23-0x27.7 (5)
0x020|         04                                    |   .            |          n: 4 0x23-0x23.7 (1)
     |                                               |                |          x[0:4]: 0x24-0x27.7 (4)
0x020|            00                                 |    .           |            [0]: 0 x 0x24-0x24.7 (1)
0x020|               01                              |     .          |            [1]: 1 x 0x25-0x25.7 (1)
0x020|                  02                           |      .         |            [2]: 2 x 0x26-0x26.7 (1)
0x020|                     03                        |       .        |            [3]: 3 x 0x27-0x27.7 (1)
     |                                               |                |    [2]{}: section 0x28-0x2c.7 (5)
0x020|                        05                     |        .       |      id: "memory section" (5) 0x28-0x28.7 (1)
0x020|                           03                  |         .      |      size: 3 0x29-0x29.7 (1)
     |                                               |                |      content{}: 0x2a-0x2c.7 (3)
     |                                               |                |        mem{}: 0x2a-0x2c.7 (3)
0x020|                              01               |          .     |          n: 1 0x2a-0x2a.7 (1)
     |                                               |                |          x[0:1]: 0x2b-0x2c.7 (2)
     |                                               |                |            [0]{}: mem 0x2b-0x2c.7 (2)
     |                                               |                |              lim{}: 0x2b-0x2c.7 (2)
0x020|                                 00            |           .    |                tag: 0x0 0x2b-0x2b.7 (1)
0x020|                                    01         |            .   |                n: 1 0x2c-0x2c.7 (1)
     |                                               |                |    [3]{}: section 0x2d-0x7b.7 (79)
0x020|                                       07      |             .  |      id: "export section" (7) 0x2d-0x2d.7 (1)
0x020|                                          4d   |              M |      size: 77 0x2e-0x2e.7 (1)
     |                                               |                |      content{}: 0x2f-0x7b.7 (77)
     |                                               |                |        ex{}: 0x2f-0x7b.7 (77)
0x020|                                             04|               .|          n: 4 0x2f-0x2f.7 (1)
     |                                               |                |          x[0:4]: 0x30-0x7b.7 (76)
     |                                               |                |            [0]{}: ex 0x30-0x42.7 (19)
     |                                               |                |              nm{}: 0x30-0x40.7 (17)
0x030|10                                             |.               |                n: 16 0x30-0x30.7 (1)
0x030|   66 33 32 5f 61 6c 69 67 6e 5f 73 77 69 74 63| f32_align_switc|                b: "f32_align_switch" 0x31-0x40.7 (16)
0x040|68                                             |h               |
     |                                               |                |              d{}: 0x41-0x42.7 (2)
0x040|   00                                          | .              |                tag: "funcidx" (0x0) 0x41-0x41.7 (1)
0x040|      00                                       |  .             |                x: 0 0x42-0x42.7 (1)
     |                                               |                |            [1]{}: ex 0x43-0x55.7 (19)
     |                                               |                |              nm{}: 0x43-0x53.7 (17)
0x040|         10                                    |   .            |                n: 16 0x43-0x43.7 (1)
0x040|            66 36 34 5f 61 6c 69 67 6e 5f 73 77|    f64_align_sw|                b: "f64_align_switch" 0x44-0x53.7 (16)
0x050|69 74 63 68                                    |itch            |
     |                                               |                |              d{}: 0x54-0x55.7 (2)
0x050|            00                                 |    .           |                tag: "funcidx" (0x0) 0x54-0x54.7 (1)
0x050|               01                              |     .          |                x: 1 0x55-0x55.7 (1)
     |                                               |                |            [2]{}: ex 0x56-0x68.7 (19)
     |                                               |                |              nm{}: 0x56-0x66.7 (17)
0x050|                  10                           |      .         |                n: 16 0x56-0x56.7 (1)
0x050|                     69 33 32 5f 61 6c 69 67 6e|       i32_align|                b: "i32_align_switch" 0x57-0x66.7 (16)
0x060|5f 73 77 69 74 63 68                           |_switch         |
     |                                               |                |              d{}: 0x67-0x68.7 (2)
0x060|                     00                        |       .        |                tag: "funcidx" (0x0) 0x67-0x67.7 (1)
0x060|                        02                     |        .       |                x: 2 0x68-0x68.7 (1)
     |                                               |                |            [3]{}: ex 0x69-0x7b.7 (19)
     |                                               |                |              nm{}: 0x69-0x79.7 (17)
0x060|                           10                  |         .      |                n: 16 0x69-0x69.7 (1)
0x060|                              69 36 34 5f 61 6c|          i64_al|                b: "i64_align_switch" 0x6a-0x79.7 (16)
0x070|69 67 6e 5f 73 77 69 74 63 68                  |ign_switch      |
     |                                               |                |              d{}: 0x7a-0x7b.7 (2)
0x070|                              00               |          .     |                tag: "funcidx" (0x0) 0x7a-0x7a.7 (1)
0x070|                                 03            |           .    |                x: 3 0x7b-0x7b.7 (1)
     |                                               |                |    [4]{}: section 0x7c-0x4f9.7 (1150)
0x070|                                    0a         |            .   |      id: "code section" (10) 0x7c-0x7c.7 (1)
0x070|                                       fb 08   |             .. |      size: 1147 0x7d-0x7e.7 (2)
     |                                               |                |      content{}: 0x7f-0x4f9.7 (1147)
     |                                               |                |        code{}: 0x7f-0x4f9.7 (1147)
0x070|                                             04|               .|          n: 4 0x7f-0x7f.7 (1)
     |                                               |                |          x[0:4]: 0x80-0x4f9.7 (1146)
     |                                               |                |            [0]{}: code 0x80-0xe3.7 (100)
0x080|63                                             |c               |              size: 99 0x80-0x80.7 (1)
     |                                               |                |              code{}: 0x81-0xe3.7 (99)
     |                                               |                |                t{}: 0x81-0x83.7 (3)
0x080|   01                                          | .              |                  n: 1 0x81-0x81.7 (1)
     |                                               |                |                  x[0:1]: 0x82-0x83.7 (2)
     |                                               |                |                    [0]{}: t 0x82-0x83.7 (2)
0x080|      02                                       |  .             |                      n: 2 0x82-0x82.7 (1)
0x080|         7d                                    |   }            |                      t: "f32" (0x7d) 0x83-0x83.7 (1)
     |                                               |                |                e[0:5]: 0x84-0xe3.7 (96)
     |                                               |                |                  [0]{}: in 0x84-0x88.7 (5)
0x080|            43                                 |    C           |                    f32.const: 0x43 (valid) 0x84-0x84.7 (1)
0x080|               00 00 20 41                     |     .. A       |                    z: 10 0x85-0x88.7 (4)
     |                                               |                |                  [1]{}: in 0x89-0x8a.7 (2)
0x080|                           21                  |         !      |                    local.set: 0x21 (valid) 0x89-0x89.7 (1)
0x080|                              01               |          .     |                    x: 1 0x8a-0x8a.7 (1)
     |                                               |                |                  [2]{}: in 0x8b-0xe0.7 (86)
0x080|                                 02            |           .    |                    block: 0x2 (valid) 0x8b-0x8b.7 (1)
0x080|                                    40         |            @   |                    bt: "ε" (64) 0x8c-0x8c.7 (1)
     |                                               |                |                    instructions[0:7]: 0x8d-0xdf.7 (83)
     |                                               |                |                      [0]{}: instr 0x8d-0xd1.7 (69)
0x080|                                       02      |             .  |                        block: 0x2 (valid) 0x8d-0x8d.7 (1)
0x080|                                          40   |              @ |                        bt: "ε" (64) 0x8e-0x8e.7 (1)
     |                                               |                |                        instructions[0:8]: 0x8f-0xd0.7 (66)
     |                                               |                |                          [0]{}: instr 0x8f-0xc0.7 (50)
0x080|                                             02|               .|                            block: 0x2 (valid) 0x8f-0x8f.7 (1)
0x090|40                                             |@               |                            bt: "ε" (64) 0x90-0x90.7 (1)
     |                                               |                |                            instructions[0:8]: 0x91-0xbf.7 (47)
     |                                               |                |                              [0]{}: instr 0x91-0xaf.7 (31)
0x090|   02                                          | .              |                                block: 0x2 (valid) 0x91-0x91.7 (1)
0x090|      40                                       |  @             |                                bt: "ε" (64) 0x92-0x92.7 (1)
     |                                               |                |                                instructions[0:8]: 0x93-0xae.7 (28)
     |                                               |                |                                  [0]{}: instr 0x93-0x9e.7 (12)
0x090|         02                                    |   .            |                                    block: 0x2 (valid) 0x93-0x93.7 (1)
0x090|            40                                 |    @           |                                    bt: "ε" (64) 0x94-0x94.7 (1)
     |                                               |                |                                    instructions[0:2]: 0x95-0x9d.7 (9)
     |                                               |                |                                      [0]{}: instr 0x95-0x96.7 (2)
0x090|               20                              |                |                                        local.get: 0x20 (valid) 0x95-0x95.7 (1)
0x090|                  00                           |      .         |                                        x: 0 0x96-0x96.7 (1)
     |                                               |                |                                      [1]{}: instr 0x97-0x9d.7 (7)
0x090|                     0e                        |       .        |                                        br_table: 0xe (valid) 0x97-0x97.7 (1)
     |                                               |                |                                        l{}: 0x98-0x9c.7 (5)
0x090|                        04                     |        .       |                                          n: 4 0x98-0x98.7 (1)
     |                                               |                |                                          x[0:4]: 0x99-0x9c.7 (4)
0x090|                           00                  |         .      |                                            [0]: 0 l 0x99-0x99.7 (1)
0x090|                              01               |          .     |                                            [1]: 1 l 0x9a-0x9a.7 (1)
0x090|                                 02            |           .    |                                            [2]: 2 l 0x9b-0x9b.7 (1)
0x090|                                    03         |            .   |                                            [3]: 3 l 0x9c-0x9c.7 (1)
0x090|                                       04      |             .  |                                        lN: 4 0x9d-0x9d.7 (1)
0x090|                                          0b   |              . |                                    end: 11 (valid) 0x9e-0x9e.7 (1)
     |                                               |                |                                  [1]{}: instr 0x9f-0xa0.7 (2)
0x090|                                             41|               A|                                    i32.const: 0x41 (valid) 0x9f-0x9f.7 (1)
0x0a0|00                                             |.               |                                    n: 0 0xa0-0xa0.7 (1)
     |                                               |                |                                  [2]{}: instr 0xa1-0xa2.7 (2)
0x0a0|   20                                          |                |                                    local.get: 0x20 (valid) 0xa1-0xa1.7 (1)
0x0a0|      01                                       |  .             |                                    x: 1 0xa2-0xa2.7 (1)
     |                                               |                |                                  [3]{}: instr 0xa3-0xa5.7 (3)
0x0a0|         38                                    |   8            |                                    f32.store: 0x38 (valid) 0xa3-0xa3.7 (1)
     |                                               |                |                                    m{}: 0xa4-0xa5.7 (2)
0x0a0|            02                                 |    .           |                                      a: 2 0xa4-0xa4.7 (1)
0x0a0|               00                              |     .          |                                      o: 0 0xa5-0xa5.7 (1)
     |                                               |                |                                  [4]{}: instr 0xa6-0xa7.7 (2)
0x0a0|                  41                           |      A         |                                    i32.const: 0x41 (valid) 0xa6-0xa6.7 (1)
0x0a0|                     00                        |       .        |                                    n: 0 0xa7-0xa7.7 (1)
     |                                               |                |                                  [5]{}: instr 0xa8-0xaa.7 (3)
0x0a0|                        2a                     |        *       |                                    f32.load: 0x2a (valid) 0xa8-0xa8.7 (1)
     |                                               |                |                                    m{}: 0xa9-0xaa.7 (2)
0x0a0|                           02                  |         .      |                                      a: 2 0xa9-0xa9.7 (1)
0x0a0|                              00               |          .     |                                      o: 0 0xaa-0xaa.7 (1)
     |                                               |                |                                  [6]{}: instr 0xab-0xac.7 (2)
0x0a0|                                 21            |           !    |                                    local.set: 0x21 (valid) 0xab-0xab.7 (1)
0x0a0|                                    02         |            .   |                                    x: 2 0xac-0xac.7 (1)
     |                                               |                |                                  [7]{}: instr 0xad-0xae.7 (2)
0x0a0|                                       0c      |             .  |                                    br: 0xc (valid) 0xad-0xad.7 (1)
0x0a0|                                          03   |              . |                                    l: 3 0xae-0xae.7 (1)
0x0a0|                                             0b|               .|                                end: 11 (valid) 0xaf-0xaf.7 (1)
     |                                               |                |                              [1]{}: instr 0xb0-0xb1.7 (2)
0x0b0|41                                             |A               |                                i32.const: 0x41 (valid) 0xb0-0xb0.7 (1)
0x0b0|   00                                          | .              |                                n: 0 0xb1-0xb1.7 (1)
     |                                               |                |                              [2]{}: instr 0xb2-0xb3.7 (2)
0x0b0|      20                                       |                |                                local.get: 0x20 (valid) 0xb2-0xb2.7 (1)
0x0b0|         01                                    |   .            |                                x: 1 0xb3-0xb3.7 (1)
     |                                               |                |                              [3]{}: instr 0xb4-0xb6.7 (3)
0x0b0|            38                                 |    8           |                                f32.store: 0x38 (valid) 0xb4-0xb4.7 (1)
     |                                               |                |                                m{}: 0xb5-0xb6.7 (2)
0x0b0|               00                              |     .          |                                  a: 0 0xb5-0xb5.7 (1)
0x0b0|                  00                           |      .         |                                  o: 0 0xb6-0xb6.7 (1)
     |                                               |                |                              [4]{}: instr 0xb7-0xb8.7 (2)
0x0b0|                     41                        |       A        |                                i32.const: 0x41 (valid) 0xb7-0xb7.7 (1)
0x0b0|                        00                     |        .       |                                n: 0 0xb8-0xb8.7 (1)
     |                                               |                |                              [5]{}: instr 0xb9-0xbb.7 (3)
0x0b0|                           2a                  |         *      |                                f32.load: 0x2a (valid) 0xb9-0xb9.7 (1)
     |                                               |                |                                m{}: 0xba-0xbb.7 (2)
0x0b0|                              00               |          .     |                                  a: 0 0xba-0xba.7 (1)
0x0b0|                                 00            |           .    |                                  o: 0 0xbb-0xbb.7 (1)
     |                                               |                |                              [6]{}: instr 0xbc-0xbd.7 (2)
0x0b0|                                    21         |            !   |                                local.set: 0x21 (valid) 0xbc-0xbc.7 (1)
0x0b0|                                       02      |             .  |                                x: 2 0xbd-0xbd.7 (1)
     |                                               |                |                              [7]{}: instr 0xbe-0xbf.7 (2)
0x0b0|                                          0c   |              . |                                br: 0xc (valid) 0xbe-0xbe.7 (1)
0x0b0|                                             02|               .|                                l: 2 0xbf-0xbf.7 (1)
0x0c0|0b                                             |.               |                            end: 11 (valid) 0xc0-0xc0.7 (1)
     |                                               |                |                          [1]{}: instr 0xc1-0xc2.7 (2)
0x0c0|   41                                          | A              |                            i32.const: 0x41 (valid) 0xc1-0xc1.7 (1)
0x0c0|      00                                       |  .             |                            n: 0 0xc2-0xc2.7 (1)
     |                                               |                |                          [2]{}: instr 0xc3-0xc4.7 (2)
0x0c0|         20                                    |                |                            local.get: 0x20 (valid) 0xc3-0xc3.7 (1)
0x0c0|            01                                 |    .           |                            x: 1 0xc4-0xc4.7 (1)
     |                                               |                |                          [3]{}: instr 0xc5-0xc7.7 (3)
0x0c0|               38                              |     8          |                            f32.store: 0x38 (valid) 0xc5-0xc5.7 (1)
     |                                               |                |                            m{}: 0xc6-0xc7.7 (2)
0x0c0|                  01                           |      .         |                              a: 1 0xc6-0xc6.7 (1)
0x0c0|                     00                        |       .        |                              o: 0 0xc7-0xc7.7 (1)
     |                                               |                |                          [4]{}: instr 0xc8-0xc9.7 (2)
0x0c0|                        41                     |        A       |                            i32.const: 0x41 (valid) 0xc8-0xc8.7 (1)
0x0c0|                           00                  |         .      |                            n: 0 0xc9-0xc9.7 (1)
     |                                               |                |                          [5]{}: instr 0xca-0xcc.7 (3)
0x0c0|                              2a               |          *     |                            f32.load: 0x2a (valid) 0xca-0xca.7 (1)
     |                                               |                |                            m{}: 0xcb-0xcc.7 (2)
0x0c0|                                 01            |           .    |                              a: 1 0xcb-0xcb.7 (1)
0x0c0|                                    00         |            .   |                              o: 0 0xcc-0xcc.7 (1)
     |                                               |                |                          [6]{}: instr 0xcd-0xce.7 (2)
0x0c0|                                       21      |             !  |                            local.set: 0x21 (valid) 0xcd-0xcd.7 (1)
0x0c0|                                          02   |              . |                            x: 2 0xce-0xce.7 (1)
     |                                               |                |                          [7]{}: instr 0xcf-0xd0.7 (2)
0x0c0|                                             0c|               .|                            br: 0xc (valid) 0xcf-0xcf.7 (1)
0x0d0|01                                             |.               |                            l: 1 0xd0-0xd0.7 (1)
0x0d0|   0b                                          | .              |                        end: 11 (valid) 0xd1-0xd1.7 (1)
     |                                               |                |                      [1]{}: instr 0xd2-0xd3.7 (2)
0x0d0|      41                                       |  A             |                        i32.const: 0x41 (valid) 0xd2-0xd2.7 (1)
0x0d0|         00                                    |   .            |                        n: 0 0xd3-0xd3.7 (1)
     |                                               |                |                      [2]{}: instr 0xd4-0xd5.7 (2)
0x0d0|            20                                 |                |                        local.get: 0x20 (valid) 0xd4-0xd4.7 (1)
0x0d0|               01                              |     .          |                        x: 1 0xd5-0xd5.7 (1)
     |                                               |                |                      [3]{}: instr 0xd6-0xd8.7 (3)
0x0d0|                  38                           |      8         |                        f32.store: 0x38 (valid) 0xd6-0xd6.7 (1)
     |                                               |                |                        m{}: 0xd7-0xd8.7 (2)
0x0d0|                     02                        |       .        |                          a: 2 0xd7-0xd7.7 (1)
0x0d0|                        00                     |        .       |                          o: 0 0xd8-0xd8.7 (1)
     |                                               |                |                      [4]{}: instr 0xd9-0xda.7 (2)
0x0d0|                           41                  |         A      |                        i32.const: 0x41 (valid) 0xd9-0xd9.7 (1)
0x0d0|                              00               |          .     |                        n: 0 0xda-0xda.7 (1)
     |                                               |                |                      [5]{}: instr 0xdb-0xdd.7 (3)
0x0d0|                                 2a            |           *    |                        f32.load: 0x2a (valid) 0xdb-0xdb.7 (1)
     |                                               |                |                        m{}: 0xdc-0xdd.7 (2)
0x0d0|                                    02         |            .   |                          a: 2 0xdc-0xdc.7 (1)
0x0d0|                                       00      |             .  |                          o: 0 0xdd-0xdd.7 (1)
     |                                               |                |                      [6]{}: instr 0xde-0xdf.7 (2)
0x0d0|                                          21   |              ! |                        local.set: 0x21 (valid) 0xde-0xde.7 (1)
0x0d0|                                             02|               .|                        x: 2 0xdf-0xdf.7 (1)
0x0e0|0b                                             |.               |                    end: 11 (valid) 0xe0-0xe0.7 (1)
     |                                               |                |                  [3]{}: in 0xe1-0xe2.7 (2)
0x0e0|   20                                          |                |                    local.get: 0x20 (valid) 0xe1-0xe1.7 (1)
0x0e0|      02                                       |  .             |                    x: 2 0xe2-0xe2.7 (1)
     |                                               |                |                  [4]{}: in 0xe3-0xe3.7 (1)
0x0e0|         0b                                    |   .            |                    end: 0xb (valid) 0xe3-0xe3.7 (1)
     |                                               |                |            [1]{}: code 0xe4-0x15f.7 (124)
0x0e0|            7b                                 |    {           |              size: 123 0xe4-0xe4.7 (1)
     |                                               |                |              code{}: 0xe5-0x15f.7 (123)
     |                                               |                |                t{}: 0xe5-0xe7.7 (3)
0x0e0|               01                              |     .          |                  n: 1 0xe5-0xe5.7 (1)
     |                                               |                |                  x[0:1]: 0xe6-0xe7.7 (2)
     |                                               |                |                    [0]{}: t 0xe6-0xe7.7 (2)
0x0e0|                  02                           |      .         |                      n: 2 0xe6-0xe6.7 (1)
0x0e0|                     7c                        |       |        |                      t: "f64" (0x7c) 0xe7-0xe7.7 (1)
     |                                               |                |                e[0:5]: 0xe8-0x15f.7 (120)
     |                                               |                |                  [0]{}: in 0xe8-0xf0.7 (9)
0x0e0|                        44                     |        D       |                    f64.const: 0x44 (valid) 0xe8-0xe8.7 (1)
0x0e0|                           00 00 00 00 00 00 24|         ......$|                    z: 10 0xe9-0xf0.7 (8)
0x0f0|40                                             |@               |
     |                                               |                |                  [1]{}: in 0xf1-0xf2.7 (2)
0x0f0|   21                                          | !              |                    local.set: 0x21 (valid) 0xf1-0xf1.7 (1)
0x0f0|      01                                       |  .             |                    x: 1 0xf2-0xf2.7 (1)
     |                                               |                |                  [2]{}: in 0xf3-0x15c.7 (106)
0x0f0|         02                                    |   .            |                    block: 0x2 (valid) 0xf3-0xf3.7 (1)
0x0f0|            40                                 |    @           |                    bt: "ε" (64) 0xf4-0xf4.7 (1)
     |                                               |                |                    instructions[0:7]: 0xf5-0x15b.7 (103)
     |                                               |                |                      [0]{}: instr 0xf5-0x14d.7 (89)
0x0f0|               02                              |     .          |                        block: 0x2 (valid) 0xf5-0xf5.7 (1)
0x0f0|                  40                           |      @         |                        bt: "ε" (64) 0xf6-0xf6.7 (1)
     |                                               |                |                        instructions[0:8]: 0xf7-0x14c.7 (86)
     |                                               |                |                          [0]{}: instr 0xf7-0x13c.7 (70)
0x0f0|                     02                        |       .        |                            block: 0x2 (valid) 0xf7-0xf7.7 (1)
0x0f0|                        40                     |        @       |                            bt: "ε" (64) 0xf8-0xf8.7 (1)
     |                                               |                |                            instructions[0:8]: 0xf9-0x13b.7 (67)
     |                                               |                |                              [0]{}: instr 0xf9-0x12b.7 (51)
0x0f0|                           02                  |         .      |                                block: 0x2 (valid) 0xf9-0xf9.7 (1)
0x0f0|                              40               |          @     |                                bt: "ε" (64) 0xfa-0xfa.7 (1)
     |                                               |                |                                instructions[0:8]: 0xfb-0x12a.7 (48)
     |                                               |                |                                  [0]{}: instr 0xfb-0x11a.7 (32)
0x0f0|                                 02            |           .    |                                    block: 0x2 (valid) 0xfb-0xfb.7 (1)
0x0f0|                                    40         |            @   |                                    bt: "ε" (64) 0xfc-0xfc.7 (1)
     |                                               |                |                                    instructions[0:8]: 0xfd-0x119.7 (29)
     |                                               |                |                                      [0]{}: instr 0xfd-0x109.7 (13)
0x0f0|                                       02      |             .  |                                        block: 0x2 (valid) 0xfd-0xfd.7 (1)
0x0f0|                                          40   |              @ |                                        bt: "ε" (64) 0xfe-0xfe.7 (1)
     |                                               |                |                                        instructions[0:2]: 0xff-0x108.7 (10)
     |                                               |                |                                          [0]{}: instr 0xff-0x100.7 (2)
0x0f0|                                             20|                |                                            local.get: 0x20 (valid) 0xff-0xff.7 (1)
0x100|00                                             |.               |                                            x: 0 0x100-0x100.7 (1)
     |                                               |                |                                          [1]{}: instr 0x101-0x108.7 (8)
0x100|   0e                                          | .              |                                            br_table: 0xe (valid) 0x101-0x101.7 (1)
     |                                               |                |                                            l{}: 0x102-0x107.7 (6)
0x100|      05                                       |  .             |                                              n: 5 0x102-0x102.7 (1)
     |                                               |                |                                              x[0:5]: 0x103-0x107.7 (5)
0x100|         00                                    |   .            |                                                [0]: 0 l 0x103-0x103.7 (1)
0x100|            01                                 |    .           |                                                [1]: 1 l 0x104-0x104.7 (1)
0x100|               02                              |     .          |                                                [2]: 2 l 0x105-0x105.7 (1)
0x100|                  03                           |      .         |                                                [3]: 3 l 0x106-0x106.7 (1)
0x100|                     04                        |       .        |                                                [4]: 4 l 0x107-0x107.7 (1)
0x100|                        05                     |        .       |                                            lN: 5 0x108-0x108.7 (1)
0x100|                           0b                  |         .      |                                        end: 11 (valid) 0x109-0x109.7 (1)
     |                                               |                |                                      [1]{}: instr 0x10a-0x10b.7 (2)
0x100|                              41               |          A     |                                        i32.const: 0x41 (valid) 0x10a-0x10a.7 (1)
0x100|                                 00            |           .    |                                        n: 0 0x10b-0x10b.7 (1)
     |                                               |                |                                      [2]{}: instr 0x10c-0x10d.7 (2)
0x100|                                    20         |                |                                        local.get: 0x20 (valid) 0x10c-0x10c.7 (1)
0x100|                                       01      |             .  |                                        x: 1 0x10d-0x10d.7 (1)
     |                                               |                |                                      [3]{}: instr 0x10e-0x110.7 (3)
0x100|                                          39   |              9 |                                        f64.store: 0x39 (valid) 0x10e-0x10e.7 (1)
     |                                               |                |                                        m{}: 0x10f-0x110.7 (2)
0x100|                                             03|               .|                                          a: 3 0x10f-0x10f.7 (1)
0x110|00                                             |.               |                                          o: 0 0x110-0x110.7 (1)
     |                                               |                |                                      [4]{}: instr 0x111-0x112.7 (2)
0x110|   41                                          | A              |                                        i32.const: 0x41 (valid) 0x111-0x111.7 (1)
0x110|      00                                       |  .             |                                        n: 0 0x112-0x112.7 (1)
     |                                               |                |                                      [5]{}: instr 0x113-0x115.7 (3)
0x110|         2b                                    |   +            |                                        f64.load: 0x2b (valid) 0x113-0x113.7 (1)
     |                                               |                |                                        m{}: 0x114-0x115.7 (2)
0x110|            03                                 |    .           |                                          a: 3 0x114-0x114.7 (1)
0x110|               00                              |     .          |                                          o: 0 0x115-0x115.7 (1)
     |                                               |                |                                      [6]{}: instr 0x116-0x117.7 (2)
0x110|                  21                           |      !         |                                        local.set: 0x21 (valid) 0x116-0x116.7 (1)
0x110|                     02                        |       .        |                                        x: 2 0x117-0x117.7 (1)
     |                                               |                |                                      [7]{}: instr 0x118-0x119.7 (2)
0x110|                        0c                     |        .       |                                        br: 0xc (valid) 0x118-0x118.7 (1)
0x110|                           04                  |         .      |                                        l: 4 0x119-0x119.7 (1)
0x110|                              0b               |          .     |                                    end: 11 (valid) 0x11a-0x11a.7 (1)
     |                                               |                |                                  [1]{}: instr 0x11b-0x11c.7 (2)
0x110|                                 41            |           A    |                                    i32.const: 0x41 (valid) 0x11b-0x11b.7 (1)
0x110|                                    00         |            .   |                                    n: 0 0x11c-0x11c.7 (1)
     |                                               |                |                                  [2]{}: instr 0x11d-0x11e.7 (2)
0x110|                                       20      |                |                                    local.get: 0x20 (valid) 0x11d-0x11d.7 (1)
0x110|                                          01   |              . |                                    x: 1 0x11e-0x11e.7 (1)
     |                                               |                |                                  [3]{}: instr 0x11f-0x121.7 (3)
0x110|                                             39|               9|                                    f64.store: 0x39 (valid) 0x11f-0x11f.7 (1)
     |                                               |                |                                    m{}: 0x120-0x121.7 (2)
0x120|00                                             |.               |                                      a: 0 0x120-0x120.7 (1)
0x120|   00                                          | .              |                                      o: 0 0x121-0x121.7 (1)
     |                                               |                |                                  [4]{}: instr 0x122-0x123.7 (2)
0x120|      41                                       |  A             |                                    i32.const: 0x41 (valid) 0x122-0x122.7 (1)
0x120|         00                                    |   .            |                                    n: 0 0x123-0x123.7 (1)
     |                                               |                |                                  [5]{}: instr 0x124-0x126.7 (3)
0x120|            2b                                 |    +           |                                    f64.load: 0x2b (valid) 0x124-0x124.7 (1)
     |                                               |                |                                    m{}: 0x125-0x126.7 (2)
0x120|               00                              |     .          |                                      a: 0 0x125-0x125.7 (1)
0x120|                  00                           |      .         |                                      o: 0 0x126-0x126.7 (1)
     |                                               |                |                                  [6]{}: instr 0x127-0x128.7 (2)
0x120|                     21                        |       !        |                                    local.set: 0x21 (valid) 0x127-0x127.7 (1)
0x120|                        02                     |        .       |                                    x: 2 0x128-0x128.7 (1)
     |                                               |                |                                  [7]{}: instr 0x129-0x12a.7 (2)
0x120|                           0c                  |         .      |                                    br: 0xc (valid) 0x129-0x129.7 (1)
0x120|                              03               |          .     |                                    l: 3 0x12a-0x12a.7 (1)
0x120|                                 0b            |           .    |                                end: 11 (valid) 0x12b-0x12b.7 (1)
     |                                               |                |                              [1]{}: instr 0x12c-0x12d.7 (2)
0x120|                                    41         |            A   |                                i32.const: 0x41 (valid) 0x12c-0x12c.7 (1)
0x120|                                       00      |             .  |                                n: 0 0x12d-0x12d.7 (1)
     |                                               |                |                              [2]{}: instr 0x12e-0x12f.7 (2)
0x120|                                          20   |                |                                local.get: 0x20 (valid) 0x12e-0x12e.7 (1)
0x120|                                             01|               .|                                x: 1 0x12f-0x12f.7 (1)
     |                                               |                |                              [3]{}: instr 0x130-0x132.7 (3)
0x130|39                                             |9               |                                f64.store: 0x39 (valid) 0x130-0x130.7 (1)
     |                                               |                |                                m{}: 0x131-0x132.7 (2)
0x130|   01                                          | .              |                                  a: 1 0x131-0x131.7 (1)
0x130|      00                                       |  .             |                                  o: 0 0x132-0x132.7 (1)
     |                                               |                |                              [4]{}: instr 0x133-0x134.7 (2)
0x130|         41                                    |   A            |                                i32.const: 0x41 (valid) 0x133-0x133.7 (1)
0x130|            00                                 |    .           |                                n: 0 0x134-0x134.7 (1)
     |                                               |                |                              [5]{}: instr 0x135-0x137.7 (3)
0x130|               2b                              |     +          |                                f64.load: 0x2b (valid) 0x135-0x135.7 (1)
     |                                               |                |                                m{}: 0x136-0x137.7 (2)
0x130|                  01                           |      .         |                                  a: 1 0x136-0x136.7 (1)
0x130|                     00                        |       .        |                                  o: 0 0x137-0x137.7 (1)
     |                                               |                |                              [6]{}: instr 0x138-0x139.7 (2)
0x130|                        21                     |        !       |                                local.set: 0x21 (valid) 0x138-0x138.7 (1)
0x130|                           02                  |         .      |                                x: 2 0x139-0x139.7 (1)
     |                                               |                |                              [7]{}: instr 0x13a-0x13b.7 (2)
0x130|                              0c               |          .     |                                br: 0xc (valid) 0x13a-0x13a.7 (1)
0x130|                                 02            |           .    |                                l: 2 0x13b-0x13b.7 (1)
0x130|                                    0b         |            .   |                            end: 11 (valid) 0x13c-0x13c.7 (1)
     |                                               |                |                          [1]{}: instr 0x13d-0x13e.7 (2)
0x130|                                       41      |             A  |                            i32.const: 0x41 (valid) 0x13d-0x13d.7 (1)
0x130|                                          00   |              . |                            n: 0 0x13e-0x13e.7 (1)
     |                                               |                |                          [2]{}: instr 0x13f-0x140.7 (2)
0x130|                                             20|                |                            local.get: 0x20 (valid) 0x13f-0x13f.7 (1)
0x140|01                                             |.               |                            x: 1 0x140-0x140.7 (1)
     |                                               |                |                          [3]{}: instr 0x141-0x143.7 (3)
0x140|   39                                          | 9              |                            f64.store: 0x39 (valid) 0x141-0x141.7 (1)
     |                                               |                |                            m{}: 0x142-0x143.7 (2)
0x140|      02                                       |  .             |                              a: 2 0x142-0x142.7 (1)
0x140|         00                                    |   .            |                              o: 0 0x143-0x143.7 (1)
     |                                               |                |                          [4]{}: instr 0x144-0x145.7 (2)
0x140|            41                                 |    A           |                            i32.const: 0x41 (valid) 0x144-0x144.7 (1)
0x140|               00                              |     .          |                            n: 0 0x145-0x145.7 (1)
     |                                               |                |                          [5]{}: instr 0x146-0x148.7 (3)
0x140|                  2b                           |      +         |                            f64.load: 0x2b (valid) 0x146-0x146.7 (1)
     |                                               |                |                            m{}: 0x147-0x148.7 (2)
0x140|                     02                        |       .        |                              a: 2 0x147-0x147.7 (1)
0x140|                        00                     |        .       |                              o: 0 0x148-0x148.7 (1)
     |                                               |                |                          [6]{}: instr 0x149-0x14a.7 (2)
0x140|                           21                  |         !      |                            local.set: 0x21 (valid) 0x149-0x149.7 (1)
0x140|                              02               |          .     |                            x: 2 0x14a-0x14a.7 (1)
     |                                               |                |                          [7]{}: instr 0x14b-0x14c.7 (2)
0x140|                                 0c            |           .    |                            br: 0xc (valid) 0x14b-0x14b.7 (1)
0x140|                                    01         |            .   |                            l: 1 0x14c-0x14c.7 (1)
0x140|                                       0b      |             .  |                        end: 11 (valid) 0x14d-0x14d.7 (1)
     |                                               |                |                      [1]{}: instr 0x14e-0x14f.7 (2)
0x140|                                          41   |              A |                        i32.const: 0x41 (valid) 0x14e-0x14e.7 (1)
0x140|                                             00|               .|                        n: 0 0x14f-0x14f.7 (1)
     |                                               |                |                      [2]{}: instr 0x150-0x151.7 (2)
0x150|20                                             |                |                        local.get: 0x20 (valid) 0x150-0x150.7 (1)
0x150|   01                                          | .              |                        x: 1 0x151-0x151.7 (1)
     |                                               |                |                      [3]{}: instr 0x152-0x154.7 (3)
0x150|      39                                       |  9             |                        f64.store: 0x39 (valid) 0x152-0x152.7 (1)
     |                                               |                |                        m{}: 0x153-0x154.7 (2)
0x150|         03                                    |   .            |                          a: 3 0x153-0x153.7 (1)
0x150|            00                                 |    .           |                          o: 0 0x154-0x154.7 (1)
     |                                               |                |                      [4]{}: instr 0x155-0x156.7 (2)
0x150|               41                              |     A          |                        i32.const: 0x41 (valid) 0x155-0x155.7 (1)
0x150|                  00                           |      .         |                        n: 0 0x156-0x156.7 (1)
     |                                               |                |                      [5]{}: instr 0x157-0x159.7 (3)
0x150|                     2b                        |       +        |                        f64.load: 0x2b (valid) 0x157-0x157.7 (1)
     |                                               |                |                        m{}: 0x158-0x159.7 (2)
0x150|                        03                     |        .       |                          a: 3 0x158-0x158.7 (1)
0x150|                           00                  |         .      |                          o: 0 0x159-0x159.7 (1)
     |                                               |                |                      [6]{}: instr 0x15a-0x15b.7 (2)
0x150|                              21               |          !     |                        local.set: 0x21 (valid) 0x15a-0x15a.7 (1)
0x150|                                 02            |           .    |                        x: 2 0x15b-0x15b.7 (1)
0x150|                                    0b         |            .   |                    end: 11 (valid) 0x15c-0x15c.7 (1)
     |                                               |                |                  [3]{}: in 0x15d-0x15e.7 (2)
0x150|                                       20      |                |                    local.get: 0x20 (valid) 0x15d-0x15d.7 (1)
0x150|                                          02   |              . |                    x: 2 0x15e-0x15e.7 (1)
     |                                               |                |                  [4]{}: in 0x15f-0x15f.7 (1)
0x150|                                             0b|               .|                    end: 0xb (valid) 0x15f-0x15f.7 (1)
     |                                               |                |            [2]{}: code 0x160-0x2c3.7 (356)
0x160|e2 02                                          |..              |              size: 354 0x160-0x161.7 (2)
     |                                               |                |              code{}: 0x162-0x2c3.7 (354)
     |                                               |                |                t{}: 0x162-0x164.7 (3)
0x160|      01                                       |  .             |                  n: 1 0x162-0x162.7 (1)
     |                                               |                |                  x[0:1]: 0x163-0x164.7 (2)
     |                                               |                |                    [0]{}: t 0x163-0x164.7 (2)
0x160|         02                                    |   .            |                      n: 2 0x163-0x163.7 (1)
0x160|            7f                                 |    .           |                      t: "i32" (0x7f) 0x164-0x164.7 (1)
     |                                               |                |                e[0:5]: 0x165-0x2c3.7 (351)
     |                                               |                |                  [0]{}: in 0x165-0x166.7 (2)
0x160|               41                              |     A          |                    i32.const: 0x41 (valid) 0x165-0x165.7 (1)
0x160|                  0a                           |      .         |                    n: 10 0x166-0x166.7 (1)
     |                                               |                |                  [1]{}: in 0x167-0x168.7 (2)
0x160|                     21                        |       !        |                    local.set: 0x21 (valid) 0x167-0x167.7 (1)
0x160|                        02                     |        .       |                    x: 2 0x168-0x168.7 (1)
     |                                               |                |                  [2]{}: in 0x169-0x2c0.7 (344)
0x160|                           02                  |         .      |                    block: 0x2 (valid) 0x169-0x169.7 (1)
0x160|                              40               |          @     |                    bt: "ε" (64) 0x16a-0x16a.7 (1)
     |                                               |                |                    instructions[0:17]: 0x16b-0x2bf.7 (341)
     |                                               |                |                      [0]{}: instr 0x16b-0x267.7 (253)
0x160|                                 02            |           .    |                        block: 0x2 (valid) 0x16b-0x16b.7 (1)
0x160|                                    40         |            @   |                        bt: "ε" (64) 0x16c-0x16c.7 (1)
     |                                               |                |                        instructions[0:14]: 0x16d-0x266.7 (250)
     |                                               |                |                          [0]{}: instr 0x16d-0x222.7 (182)
0x160|                                       02      |             .  |                            block: 0x2 (valid) 0x16d-0x16d.7 (1)
0x160|                                          40   |              @ |                            bt: "ε" (64) 0x16e-0x16e.7 (1)
     |                                               |                |                            instructions[0:14]: 0x16f-0x221.7 (179)
     |                                               |                |                              [0]{}: instr 0x16f-0x1dd.7 (111)
0x160|                                             02|               .|                                block: 0x2 (valid) 0x16f-0x16f.7 (1)
0x170|40                                             |@               |                                bt: "ε" (64) 0x170-0x170.7 (1)
     |                                               |                |                                instructions[0:10]: 0x171-0x1dc.7 (108)
     |                                               |                |                                  [0]{}: instr 0x171-0x1ae.7 (62)
0x170|   02                                          | .              |                                    block: 0x2 (valid) 0x171-0x171.7 (1)
0x170|      40                                       |  @             |                                    bt: "ε" (64) 0x172-0x172.7 (1)
     |                                               |                |                                    instructions[0:10]: 0x173-0x1ad.7 (59)
     |                                               |                |                                      [0]{}: instr 0x173-0x17f.7 (13)
0x170|         02                                    |   .            |                                        block: 0x2 (valid) 0x173-0x173.7 (1)
0x170|            40                                 |    @           |                                        bt: "ε" (64) 0x174-0x174.7 (1)
     |                                               |                |                                        instructions[0:2]: 0x175-0x17e.7 (10)
     |                                               |                |                                          [0]{}: instr 0x175-0x176.7 (2)
0x170|               20                              |                |                                            local.get: 0x20 (valid) 0x175-0x175.7 (1)
0x170|                  00                           |      .         |                                            x: 0 0x176-0x176.7 (1)
     |                                               |                |                                          [1]{}: instr 0x177-0x17e.7 (8)
0x170|                     0e                        |       .        |                                            br_table: 0xe (valid) 0x177-0x177.7 (1)
     |                                               |                |                                            l{}: 0x178-0x17d.7 (6)
0x170|                        05                     |        .       |                                              n: 5 0x178-0x178.7 (1)
     |                                               |                |                                              x[0:5]: 0x179-0x17d.7 (5)
0x170|                           00                  |         .      |                                                [0]: 0 l 0x179-0x179.7 (1)
0x170|                              01               |          .     |                                                [1]: 1 l 0x17a-0x17a.7 (1)
0x170|                                 02            |           .    |                                                [2]: 2 l 0x17b-0x17b.7 (1)
0x170|                                    03         |            .   |                                                [3]: 3 l 0x17c-0x17c.7 (1)
0x170|                                       04      |             .  |                                                [4]: 4 l 0x17d-0x17d.7 (1)
0x170|                                          05   |              . |                                            lN: 5 0x17e-0x17e.7 (1)
0x170|                                             0b|               .|                                        end: 11 (valid) 0x17f-0x17f.7 (1)
     |                                               |                |                                      [1]{}: instr 0x180-0x181.7 (2)
0x180|20                                             |                |                                        local.get: 0x20 (valid) 0x180-0x180.7 (1)
0x180|   01                                          | .              |                                        x: 1 0x181-0x181.7 (1)
     |                                               |                |                                      [2]{}: instr 0x182-0x183.7 (2)
0x180|      41                                       |  A             |                                        i32.const: 0x41 (valid) 0x182-0x182.7 (1)
0x180|         00                                    |   .            |                                        n: 0 0x183-0x183.7 (1)
     |                                               |                |                                      [3]{}: instr 0x184-0x184.7 (1)
0x180|            46                                 |    F           |                                        i32.eq: 0x46 (valid) 0x184-0x184.7 (1)
     |                                               |                |                                      [4]{}: instr 0x185-0x195.7 (17)
0x180|               04                              |     .          |                                        if: 0x4 (valid) 0x185-0x185.7 (1)
0x180|                  40                           |      @         |                                        bt: "ε" (64) 0x186-0x186.7 (1)
     |                                               |                |                                        in1[0:6]: 0x187-0x194.7 (14)
     |                                               |                |                                          [0]{}: instr 0x187-0x188.7 (2)
0x180|                     41                        |       A        |                                            i32.const: 0x41 (valid) 0x187-0x187.7 (1)
0x180|                        00                     |        .       |                                            n: 0 0x188-0x188.7 (1)
     |                                               |                |                                          [1]{}: instr 0x189-0x18a.7 (2)
0x180|                           20                  |                |                                            local.get: 0x20 (valid) 0x189-0x189.7 (1)
0x180|                              02               |          .     |                                            x: 2 0x18a-0x18a.7 (1)
     |                                               |                |                                          [2]{}: instr 0x18b-0x18d.7 (3)
0x180|                                 3a            |           :    |                                            i32.store8: 0x3a (valid) 0x18b-0x18b.7 (1)
     |                                               |                |                                            m{}: 0x18c-0x18d.7 (2)
0x180|                                    00         |            .   |                                              a: 0 0x18c-0x18c.7 (1)
0x180|                                       00      |             .  |                                              o: 0 0x18d-0x18d.7 (1)
     |                                               |                |                                          [3]{}: instr 0x18e-0x18f.7 (2)
0x180|                                          41   |              A |                                            i32.const: 0x41 (valid) 0x18e-0x18e.7 (1)
0x180|                                             00|               .|                                            n: 0 0x18f-0x18f.7 (1)
     |                                               |                |                                          [4]{}: instr 0x190-0x192.7 (3)
0x190|2c                                             |,               |                                            i32.load8_s: 0x2c (valid) 0x190-0x190.7 (1)
     |                                               |                |                                            m{}: 0x191-0x192.7 (2)
0x190|   00                                          | .              |                                              a: 0 0x191-0x191.7 (1)
0x190|      00                                       |  .             |                                              o: 0 0x192-0x192.7 (1)
     |                                               |                |                                          [5]{}: instr 0x193-0x194.7 (2)
0x190|         21                                    |   !            |                                            local.set: 0x21 (valid) 0x193-0x193.7 (1)
0x190|            03                                 |    .           |                                            x: 3 0x194-0x194.7 (1)
0x190|               0b                              |     .          |                                        end: 11 (valid) 0x195-0x195.7 (1)
     |                                               |                |                                      [5]{}: instr 0x196-0x197.7 (2)
0x190|                  20                           |                |                                        local.get: 0x20 (valid) 0x196-0x196.7 (1)
0x190|                     01                        |       .        |                                        x: 1 0x197-0x197.7 (1)
     |                                               |                |                                      [6]{}: instr 0x198-0x199.7 (2)
0x190|                        41                     |        A       |                                        i32.const: 0x41 (valid) 0x198-0x198.7 (1)
0x190|                           01                  |         .      |                                        n: 1 0x199-0x199.7 (1)
     |                                               |                |                                      [7]{}: instr 0x19a-0x19a.7 (1)
0x190|                              46               |          F     |                                        i32.eq: 0x46 (valid) 0x19a-0x19a.7 (1)
     |                                               |                |                                      [8]{}: instr 0x19b-0x1ab.7 (17)
0x190|                                 04            |           .    |                                        if: 0x4 (valid) 0x19b-0x19b.7 (1)
0x190|                                    40         |            @   |                                        bt: "ε" (64) 0x19c-0x19c.7 (1)
     |                                               |                |                                        in1[0:6]: 0x19d-0x1aa.7 (14)
     |                                               |                |                                          [0]{}: instr 0x19d-0x19e.7 (2)
0x190|                                       41      |             A  |                                            i32.const: 0x41 (valid) 0x19d-0x19d.7 (1)
0x190|                                          00   |              . |                                            n: 0 0x19e-0x19e.7 (1)
     |                                               |                |                                          [1]{}: instr 0x19f-0x1a0.7 (2)
0x190|                                             20|                |                                            local.get: 0x20 (valid) 0x19f-0x19f.7 (1)
0x1a0|02                                             |.               |                                            x: 2 0x1a0-0x1a0.7 (1)
     |                                               |                |                                          [2]{}: instr 0x1a1-0x1a3.7 (3)
0x1a0|   3a                                          | :              |                                            i32.store8: 0x3a (valid) 0x1a1-0x1a1.7 (1)
     |                                               |                |                                            m{}: 0x1a2-0x1a3.7 (2)
0x1a0|      00                                       |  .             |                                              a: 0 0x1a2-0x1a2.7 (1)
0x1a0|         00                                    |   .            |                                              o: 0 0x1a3-0x1a3.7 (1)
     |                                               |                |                                          [3]{}: instr 0x1a4-0x1a5.7 (2)
0x1a0|            41                                 |    A           |                                            i32.const: 0x41 (valid) 0x1a4-0x1a4.7 (1)
0x1a0|               00                              |     .          |                                            n: 0 0x1a5-0x1a5.7 (1)
     |                                               |                |                                          [4]{}: instr 0x1a6-0x1a8.7 (3)
0x1a0|                  2c                           |      ,         |                                            i32.load8_s: 0x2c (valid) 0x1a6-0x1a6.7 (1)
     |                                               |                |                                            m{}: 0x1a7-0x1a8.7 (2)
0x1a0|                     00                        |       .        |                                              a: 0 0x1a7-0x1a7.7 (1)
0x1a0|                        00                     |        .       |                                              o: 0 0x1a8-0x1a8.7 (1)
     |                                               |                |                                          [5]{}: instr 0x1a9-0x1aa.7 (2)
0x1a0|                           21                  |         !      |                                            local.set: 0x21 (valid) 0x1a9-0x1a9.7 (1)
0x1a0|                              03               |          .     |                                            x: 3 0x1aa-0x1aa.7 (1)
0x1a0|                                 0b            |           .    |                                        end: 11 (valid) 0x1ab-0x1ab.7 (1)
     |                                               |                |                                      [9]{}: instr 0x1ac-0x1ad.7 (2)
0x1a0|                                    0c         |            .   |                                        br: 0xc (valid) 0x1ac-0x1ac.7 (1)
0x1a0|                                       04      |             .  |                                        l: 4 0x1ad-0x1ad.7 (1)
0x1a0|                                          0b   |              . |                                    end: 11 (valid) 0x1ae-0x1ae.7 (1)
     |                                               |                |                                  [1]{}: instr 0x1af-0x1b0.7 (2)
0x1a0|                                             20|                |                                    local.get: 0x20 (valid) 0x1af-0x1af.7 (1)
0x1b0|01                                             |.               |                                    x: 1 0x1b0-0x1b0.7 (1)
     |                                               |                |                                  [2]{}: instr 0x1b1-0x1b2.7 (2)
0x1b0|   41                                          | A              |                                    i32.const: 0x41 (valid) 0x1b1-0x1b1.7 (1)
0x1b0|      00                                       |  .             |                                    n: 0 0x1b2-0x1b2.7 (1)
     |                                               |                |                                  [3]{}: instr 0x1b3-0x1b3.7 (1)
0x1b0|         46                                    |   F            |                                    i32.eq: 0x46 (valid) 0x1b3-0x1b3.7 (1)
     |                                               |                |                                  [4]{}: instr 0x1b4-0x1c4.7 (17)
0x1b0|            04                                 |    .           |                                    if: 0x4 (valid) 0x1b4-0x1b4.7 (1)
0x1b0|               40                              |     @          |                                    bt: "ε" (64) 0x1b5-0x1b5.7 (1)
     |                                               |                |                                    in1[0:6]: 0x1b6-0x1c3.7 (14)
     |                                               |                |                                      [0]{}: instr 0x1b6-0x1b7.7 (2)
0x1b0|                  41                           |      A         |                                        i32.const: 0x41 (valid) 0x1b6-0x1b6.7 (1)
0x1b0|                     00                        |       .        |                                        n: 0 0x1b7-0x1b7.7 (1)
     |                                               |                |                                      [1]{}: instr 0x1b8-0x1b9.7 (2)
0x1b0|                        20                     |                |                                        local.get: 0x20 (valid) 0x1b8-0x1b8.7 (1)
0x1b0|                           02                  |         .      |                                        x: 2 0x1b9-0x1b9.7 (1)
     |                                               |                |                                      [2]{}: instr 0x1ba-0x1bc.7 (3)
0x1b0|                              3a               |          :     |                                        i32.store8: 0x3a (valid) 0x1ba-0x1ba.7 (1)
     |                                               |                |                                        m{}: 0x1bb-0x1bc.7 (2)
0x1b0|                                 00            |           .    |                                          a: 0 0x1bb-0x1bb.7 (1)
0x1b0|                                    00         |            .   |                                          o: 0 0x1bc-0x1bc.7 (1)
     |                                               |                |                                      [3]{}: instr 0x1bd-0x1be.7 (2)
0x1b0|                                       41      |             A  |                                        i32.const: 0x41 (valid) 0x1bd-0x1bd.7 (1)
0x1b0|                                          00   |              . |                                        n: 0 0x1be-0x1be.7 (1)
     |                                               |                |                                      [4]{}: instr 0x1bf-0x1c1.7 (3)
0x1b0|                                             2d|               -|                                        i32.load8_u: 0x2d (valid) 0x1bf-0x1bf.7 (1)
     |                                               |                |                                        m{}: 0x1c0-0x1c1.7 (2)
0x1c0|00                                             |.               |                                          a: 0 0x1c0-0x1c0.7 (1)
0x1c0|   00                                          | .              |                                          o: 0 0x1c1-0x1c1.7 (1)
     |                                               |                |                                      [5]{}: instr 0x1c2-0x1c3.7 (2)
0x1c0|      21                                       |  !             |                                        local.set: 0x21 (valid) 0x1c2-0x1c2.7 (1)
0x1c0|         03                                    |   .            |                                        x: 3 0x1c3-0x1c3.7 (1)
0x1c0|            0b                                 |    .           |                                    end: 11 (valid) 0x1c4-0x1c4.7 (1)
     |                                               |                |                                  [5]{}: instr 0x1c5-0x1c6.7 (2)
0x1c0|               20                              |                |                                    local.get: 0x20 (valid) 0x1c5-0x1c5.7 (1)
0x1c0|                  01                           |      .         |                                    x: 1 0x1c6-0x1c6.7 (1)
     |                                               |                |                                  [6]{}: instr 0x1c7-0x1c8.7 (2)
0x1c0|                     41                        |       A        |                                    i32.const: 0x41 (valid) 0x1c7-0x1c7.7 (1)
0x1c0|                        01                     |        .       |                                    n: 1 0x1c8-0x1c8.7 (1)
     |                                               |                |                                  [7]{}: instr 0x1c9-0x1c9.7 (1)
0x1c0|                           46                  |         F      |                                    i32.eq: 0x46 (valid) 0x1c9-0x1c9.7 (1)
     |                                               |                |                                  [8]{}: instr 0x1ca-0x1da.7 (17)
0x1c0|                              04               |          .     |                                    if: 0x4 (valid) 0x1ca-0x1ca.7 (1)
0x1c0|                                 40            |           @    |                                    bt: "ε" (64) 0x1cb-0x1cb.7 (1)
     |                                               |                |                                    in1[0:6]: 0x1cc-0x1d9.7 (14)
     |                                               |                |                                      [0]{}: instr 0x1cc-0x1cd.7 (2)
0x1c0|                                    41         |            A   |                                        i32.const: 0x41 (valid) 0x1cc-0x1cc.7 (1)
0x1c0|                                       00      |             .  |                                        n: 0 0x1cd-0x1cd.7 (1)
     |                                               |                |                                      [1]{}: instr 0x1ce-0x1cf.7 (2)
0x1c0|                                          20   |                |                                        local.get: 0x20 (valid) 0x1ce-0x1ce.7 (1)
0x1c0|                                             02|               .|                                        x: 2 0x1cf-0x1cf.7 (1)
     |                                               |                |                                      [2]{}: instr 0x1d0-0x1d2.7 (3)
0x1d0|3a                                             |:               |                                        i32.store8: 0x3a (valid) 0x1d0-0x1d0.7 (1)
     |                                               |                |                                        m{}: 0x1d1-0x1d2.7 (2)
0x1d0|   00                                          | .              |                                          a: 0 0x1d1-0x1d1.7 (1)
0x1d0|      00                                       |  .             |                                          o: 0 0x1d2-0x1d2.7 (1)
     |                                               |                |                                      [3]{}: instr 0x1d3-0x1d4.7 (2)
0x1d0|         41                                    |   A            |                                        i32.const: 0x41 (valid) 0x1d3-0x1d3.7 (1)
0x1d0|            00                                 |    .           |                                        n: 0 0x1d4-0x1d4.7 (1)
     |                                               |                |                                      [4]{}: instr 0x1d5-0x1d7.7 (3)
0x1d0|               2d                              |     -          |                                        i32.load8_u: 0x2d (valid) 0x1d5-0x1d5.7 (1)
     |                                               |                |                                        m{}: 0x1d6-0x1d7.7 (2)
0x1d0|                  00                           |      .         |                                          a: 0 0x1d6-0x1d6.7 (1)
0x1d0|                     00                        |       .        |                                          o: 0 0x1d7-0x1d7.7 (1)
     |                                               |                |                                      [5]{}: instr 0x1d8-0x1d9.7 (2)
0x1d0|                        21                     |        !       |                                        local.set: 0x21 (valid) 0x1d8-0x1d8.7 (1)
0x1d0|                           03                  |         .      |                                        x: 3 0x1d9-0x1d9.7 (1)
0x1d0|                              0b               |          .     |                                    end: 11 (valid) 0x1da-0x1da.7 (1)
     |                                               |                |                                  [9]{}: instr 0x1db-0x1dc.7 (2)
0x1d0|                                 0c            |           .    |                                    br: 0xc (valid) 0x1db-0x1db.7 (1)
0x1d0|                                    03         |            .   |                                    l: 3 0x1dc-0x1dc.7 (1)
0x1d0|                                       0b      |             .  |                                end: 11 (valid) 0x1dd-0x1dd.7 (1)
     |                                               |                |                              [1]{}: instr 0x1de-0x1df.7 (2)
0x1d0|                                          20   |                |                                local.get: 0x20 (valid) 0x1de-0x1de.7 (1)
0x1d0|                                             01|               .|                                x: 1 0x1df-0x1df.7 (1)
     |                                               |                |                              [2]{}: instr 0x1e0-0x1e1.7 (2)
0x1e0|41                                             |A               |                                i32.const: 0x41 (valid) 0x1e0-0x1e0.7 (1)
0x1e0|   00                                          | .              |                                n: 0 0x1e1-0x1e1.7 (1)
     |                                               |                |                              [3]{}: instr 0x1e2-0x1e2.7 (1)
0x1e0|      46                                       |  F             |                                i32.eq: 0x46 (valid) 0x1e2-0x1e2.7 (1)
     |                                               |                |                              [4]{}: instr 0x1e3-0x1f3.7 (17)
0x1e0|         04                                    |   .            |                                if: 0x4 (valid) 0x1e3-0x1e3.7 (1)
0x1e0|            40                                 |    @           |                                bt: "ε" (64) 0x1e4-0x1e4.7 (1)
     |                                               |                |                                in1[0:6]: 0x1e5-0x1f2.7 (14)
     |                                               |                |                                  [0]{}: instr 0x1e5-0x1e6.7 (2)
0x1e0|               41                              |     A          |                                    i32.const: 0x41 (valid) 0x1e5-0x1e5.7 (1)
0x1e0|                  00                           |      .         |                                    n: 0 0x1e6-0x1e6.7 (1)
     |                                               |                |                                  [1]{}: instr 0x1e7-0x1e8.7 (2)
0x1e0|                     20                        |                |                                    local.get: 0x20 (valid) 0x1e7-0x1e7.7 (1)
0x1e0|                        02                     |        .       |                                    x: 2 0x1e8-0x1e8.7 (1)
     |                                               |                |                                  [2]{}: instr 0x1e9-0x1eb.7 (3)
0x1e0|                           3b                  |         ;      |                                    i32.store16: 0x3b (valid) 0x1e9-0x1e9.7 (1)
     |                                               |                |                                    m{}: 0x1ea-0x1eb.7 (2)
0x1e0|                              01               |          .     |                                      a: 1 0x1ea-0x1ea.7 (1)
0x1e0|                                 00            |           .    |                                      o: 0 0x1eb-0x1eb.7 (1)
     |                                               |                |                                  [3]{}: instr 0x1ec-0x1ed.7 (2)
0x1e0|                                    41         |            A   |                                    i32.const: 0x41 (valid) 0x1ec-0x1ec.7 (1)
0x1e0|                                       00      |             .  |                                    n: 0 0x1ed-0x1ed.7 (1)
     |                                               |                |                                  [4]{}: instr 0x1ee-0x1f0.7 (3)
0x1e0|                                          2e   |              . |                                    i32.load16_s: 0x2e (valid) 0x1ee-0x1ee.7 (1)
     |                                               |                |                                    m{}: 0x1ef-0x1f0.7 (2)
0x1e0|                                             01|               .|                                      a: 1 0x1ef-0x1ef.7 (1)
0x1f0|00                                             |.               |                                      o: 0 0x1f0-0x1f0.7 (1)
     |                                               |                |                                  [5]{}: instr 0x1f1-0x1f2.7 (2)
0x1f0|   21                                          | !              |                                    local.set: 0x21 (valid) 0x1f1-0x1f1.7 (1)
0x1f0|      03                                       |  .             |                                    x: 3 0x1f2-0x1f2.7 (1)
0x1f0|         0b                                    |   .            |                                end: 11 (valid) 0x1f3-0x1f3.7 (1)
     |                                               |                |                              [5]{}: instr 0x1f4-0x1f5.7 (2)
0x1f0|            20                                 |                |                                local.get: 0x20 (valid) 0x1f4-0x1f4.7 (1)
0x1f0|               01                              |     .          |                                x: 1 0x1f5-0x1f5.7 (1)
     |                                               |                |                              [6]{}: instr 0x1f6-0x1f7.7 (2)
0x1f0|                  41                           |      A         |                                i32.const: 0x41 (valid) 0x1f6-0x1f6.7 (1)
0x1f0|                     01                        |       .        |                                n: 1 0x1f7-0x1f7.7 (1)
     |                                               |                |                              [7]{}: instr 0x1f8-0x1f8.7 (1)
0x1f0|                        46                     |        F       |                                i32.eq: 0x46 (valid) 0x1f8-0x1f8.7 (1)
     |                                               |                |                              [8]{}: instr 0x1f9-0x209.7 (17)
0x1f0|                           04                  |         .      |                                if: 0x4 (valid) 0x1f9-0x1f9.7 (1)
0x1f0|                              40               |          @     |                                bt: "ε" (64) 0x1fa-0x1fa.7 (1)
     |                                               |                |                                in1[0:6]: 0x1fb-0x208.7 (14)
     |                                               |                |                                  [0]{}: instr 0x1fb-0x1fc.7 (2)
0x1f0|                                 41            |           A    |                                    i32.const: 0x41 (valid) 0x1fb-0x1fb.7 (1)
0x1f0|                                    00         |            .   |                                    n: 0 0x1fc-0x1fc.7 (1)
     |                                               |                |                                  [1]{}: instr 0x1fd-0x1fe.7 (2)
0x1f0|                                       20      |                |                                    local.get: 0x20 (valid) 0x1fd-0x1fd.7 (1)
0x1f0|                                          02   |              . |                                    x: 2 0x1fe-0x1fe.7 (1)
     |                                               |                |                                  [2]{}: instr 0x1ff-0x201.7 (3)
0x1f0|                                             3b|               ;|                                    i32.store16: 0x3b (valid) 0x1ff-0x1ff.7 (1)
     |                                               |                |                                    m{}: 0x200-0x201.7 (2)
0x200|00                                             |.               |                                      a: 0 0x200-0x200.7 (1)
0x200|   00                                          | .              |                                      o: 0 0x201-0x201.7 (1)
     |                                               |                |                                  [3]{}: instr 0x202-0x203.7 (2)
0x200|      41                                       |  A             |                                    i32.const: 0x41 (valid) 0x202-0x202.7 (1)
0x200|         00                                    |   .            |                                    n: 0 0x203-0x203.7 (1)
     |                                               |                |                                  [4]{}: instr 0x204-0x206.7 (3)
0x200|            2e                                 |    .           |                                    i32.load16_s: 0x2e (valid) 0x204-0x204.7 (1)
     |                                               |                |                                    m{}: 0x205-0x206.7 (2)
0x200|               00                              |     .          |                                      a: 0 0x205-0x205.7 (1)
0x200|                  00                           |      .         |                                      o: 0 0x206-0x206.7 (1)
     |                                               |                |                                  [5]{}: instr 0x207-0x208.7 (2)
0x200|                     21                        |       !        |                                    local.set: 0x21 (valid) 0x207-0x207.7 (1)
0x200|                        03                     |        .       |                                    x: 3 0x208-0x208.7 (1)
0x200|                           0b                  |         .      |                                end: 11 (valid) 0x209-0x209.7 (1)
     |                                               |                |                              [9]{}: instr 0x20a-0x20b.7 (2)
0x200|                              20               |                |                                local.get: 0x20 (valid) 0x20a-0x20a.7 (1)
0x200|                                 01            |           .    |                                x: 1 0x20b-0x20b.7 (1)
     |                                               |                |                              [10]{}: instr 0x20c-0x20d.7 (2)
0x200|                                    41         |            A   |                                i32.const: 0x41 (valid) 0x20c-0x20c.7 (1)
0x200|                                       02      |             .  |                                n: 2 0x20d-0x20d.7 (1)
     |                                               |                |                              [11]{}: instr 0x20e-0x20e.7 (1)
0x200|                                          46   |              F |                                i32.eq: 0x46 (valid) 0x20e-0x20e.7 (1)
     |                                               |                |                              [12]{}: instr 0x20f-0x21f.7 (17)
0x200|                                             04|               .|                                if: 0x4 (valid) 0x20f-0x20f.7 (1)
0x210|40                                             |@               |                                bt: "ε" (64) 0x210-0x210.7 (1)
     |                                               |                |                                in1[0:6]: 0x211-0x21e.7 (14)
     |                                               |                |                                  [0]{}: instr 0x211-0x212.7 (2)
0x210|   41                                          | A              |                                    i32.const: 0x41 (valid) 0x211-0x211.7 (1)
0x210|      00                                       |  .             |                                    n: 0 0x212-0x212.7 (1)
     |                                               |                |                                  [1]{}: instr 0x213-0x214.7 (2)
0x210|         20                                    |                |                                    local.get: 0x20 (valid) 0x213-0x213.7 (1)
0x210|            02                                 |    .           |                                    x: 2 0x214-0x214.7 (1)
     |                                               |                |                                  [2]{}: instr 0x215-0x217.7 (3)
0x210|               3b                              |     ;          |                                    i32.store16: 0x3b (valid) 0x215-0x215.7 (1)
     |                                               |                |                                    m{}: 0x216-0x217.7 (2)
0x210|                  01                           |      .         |                                      a: 1 0x216-0x216.7 (1)
0x210|                     00                        |       .        |                                      o: 0 0x217-0x217.7 (1)
     |                                               |                |                                  [3]{}: instr 0x218-0x219.7 (2)
0x210|                        41                     |        A       |                                    i32.const: 0x41 (valid) 0x218-0x218.7 (1)
0x210|                           00                  |         .      |                                    n: 0 0x219-0x219.7 (1)
     |                                               |                |                                  [4]{}: instr 0x21a-0x21c.7 (3)
0x210|                              2e               |          .     |                                    i32.load16_s: 0x2e (valid) 0x21a-0x21a.7 (1)
     |                                               |                |                                    m{}: 0x21b-0x21c.7 (2)
0x210|                                 01            |           .    |                                      a: 1 0x21b-0x21b.7 (1)
0x210|                                    00         |            .   |                                      o: 0 0x21c-0x21c.7 (1)
     |                                               |                |                                  [5]{}: instr 0x21d-0x21e.7 (2)
0x210|                                       21      |             !  |                                    local.set: 0x21 (valid) 0x21d-0x21d.7 (1)
0x210|                                          03   |              . |                                    x: 3 0x21e-0x21e.7 (1)
0x210|                                             0b|               .|                                end: 11 (valid) 0x21f-0x21f.7 (1)
     |                                               |                |                              [13]{}: instr 0x220-0x221.7 (2)
0x220|0c                                             |.               |                                br: 0xc (valid) 0x220-0x220.7 (1)
0x220|   02                                          | .              |                                l: 2 0x221-0x221.7 (1)
0x220|      0b                                       |  .             |                            end: 11 (valid) 0x222-0x222.7 (1)
     |                                               |                |                          [1]{}: instr 0x223-0x224.7 (2)
0x220|         20                                    |                |                            local.get: 0x20 (valid) 0x223-0x223.7 (1)
0x220|            01                                 |    .           |                            x: 1 0x224-0x224.7 (1)
     |                                               |                |                          [2]{}: instr 0x225-0x226.7 (2)
0x220|               41                              |     A          |                            i32.const: 0x41 (valid) 0x225-0x225.7 (1)
0x220|                  00                           |      .         |                            n: 0 0x226-0x226.7 (1)
     |                                               |                |                          [3]{}: instr 0x227-0x227.7 (1)
0x220|                     46                        |       F        |                            i32.eq: 0x46 (valid) 0x227-0x227.7 (1)
     |                                               |                |                          [4]{}: instr 0x228-0x238.7 (17)
0x220|                        04                     |        .       |                            if: 0x4 (valid) 0x228-0x228.7 (1)
0x220|                           40                  |         @      |                            bt: "ε" (64) 0x229-0x229.7 (1)
     |                                               |                |                            in1[0:6]: 0x22a-0x237.7 (14)
     |                                               |                |                              [0]{}: instr 0x22a-0x22b.7 (2)
0x220|                              41               |          A     |                                i32.const: 0x41 (valid) 0x22a-0x22a.7 (1)
0x220|                                 00            |           .    |                                n: 0 0x22b-0x22b.7 (1)
     |                                               |                |                              [1]{}: instr 0x22c-0x22d.7 (2)
0x220|                                    20         |                |                                local.get: 0x20 (valid) 0x22c-0x22c.7 (1)
0x220|                                       02      |             .  |                                x: 2 0x22d-0x22d.7 (1)
     |                                               |                |                              [2]{}: instr 0x22e-0x230.7 (3)
0x220|                                          3b   |              ; |                                i32.store16: 0x3b (valid) 0x22e-0x22e.7 (1)
     |                                               |                |                                m{}: 0x22f-0x230.7 (2)
0x220|                                             01|               .|                                  a: 1 0x22f-0x22f.7 (1)
0x230|00                                             |.               |                                  o: 0 0x230-0x230.7 (1)
     |                                               |                |                              [3]{}: instr 0x231-0x232.7 (2)
0x230|   41                                          | A              |                                i32.const: 0x41 (valid) 0x231-0x231.7 (1)
0x230|      00                                       |  .             |                                n: 0 0x232-0x232.7 (1)
     |                                               |                |                              [4]{}: instr 0x233-0x235.7 (3)
0x230|         2f                                    |   /            |                                i32.load16_u: 0x2f (valid) 0x233-0x233.7 (1)
     |                                               |                |                                m{}: 0x234-0x235.7 (2)
0x230|            01                                 |    .           |                                  a: 1 0x234-0x234.7 (1)
0x230|               00                              |     .          |                                  o: 0 0x235-0x235.7 (1)
     |                                               |                |                              [5]{}: instr 0x236-0x237.7 (2)
0x230|                  21                           |      !         |                                local.set: 0x21 (valid) 0x236-0x236.7 (1)
0x230|                     03                        |       .        |                                x: 3 0x237-0x237.7 (1)
0x230|                        0b                     |        .       |                            end: 11 (valid) 0x238-0x238.7 (1)
     |                                               |                |                          [5]{}: instr 0x239-0x23a.7 (2)
0x230|                           20                  |                |                            local.get: 0x20 (valid) 0x239-0x239.7 (1)
0x230|                              01               |          .     |                            x: 1 0x23a-0x23a.7 (1)
     |                                               |                |                          [6]{}: instr 0x23b-0x23c.7 (2)
0x230|                                 41            |           A    |                            i32.const: 0x41 (valid) 0x23b-0x23b.7 (1)
0x230|                                    01         |            .   |                            n: 1 0x23c-0x23c.7 (1)
     |                                               |                |                          [7]{}: instr 0x23d-0x23d.7 (1)
0x230|                                       46      |             F  |                            i32.eq: 0x46 (valid) 0x23d-0x23d.7 (1)
     |                                               |                |                          [8]{}: instr 0x23e-0x24e.7 (17)
0x230|                                          04   |              . |                            if: 0x4 (valid) 0x23e-0x23e.7 (1)
0x230|                                             40|               @|                            bt: "ε" (64) 0x23f-0x23f.7 (1)
     |                                               |                |                            in1[0:6]: 0x240-0x24d.7 (14)
     |                                               |                |                              [0]{}: instr 0x240-0x241.7 (2)
0x240|41                                             |A               |                                i32.const: 0x41 (valid) 0x240-0x240.7 (1)
0x240|   00                                          | .              |                                n: 0 0x241-0x241.7 (1)
     |                                               |                |                              [1]{}: instr 0x242-0x243.7 (2)
0x240|      20                                       |                |                                local.get: 0x20 (valid) 0x242-0x242.7 (1)
0x240|         02                                    |   .            |                                x: 2 0x243-0x243.7 (1)
     |                                               |                |                              [2]{}: instr 0x244-0x246.7 (3)
0x240|            3b                                 |    ;           |                                i32.store16: 0x3b (valid) 0x244-0x244.7 (1)
     |                                               |                |                                m{}: 0x245-0x246.7 (2)
0x240|               00                              |     .          |                                  a: 0 0x245-0x245.7 (1)
0x240|                  00                           |      .         |                                  o: 0 0x246-0x246.7 (1)
     |                                               |                |                              [3]{}: instr 0x247-0x248.7 (2)
0x240|                     41                        |       A        |                                i32.const: 0x41 (valid) 0x247-0x247.7 (1)
0x240|                        00                     |        .       |                                n: 0 0x248-0x248.7 (1)
     |                                               |                |                              [4]{}: instr 0x249-0x24b.7 (3)
0x240|                           2f                  |         /      |                                i32.load16_u: 0x2f (valid) 0x249-0x249.7 (1)
     |                                               |                |                                m{}: 0x24a-0x24b.7 (2)
0x240|                              00               |          .     |                                  a: 0 0x24a-0x24a.7 (1)
0x240|                                 00            |           .    |                                  o: 0 0x24b-0x24b.7 (1)
     |                                               |                |                              [5]{}: instr 0x24c-0x24d.7 (2)
0x240|                                    21         |            !   |                                local.set: 0x21 (valid) 0x24c-0x24c.7 (1)
0x240|                                       03      |             .  |                                x: 3 0x24d-0x24d.7 (1)
0x240|                                          0b   |              . |                            end: 11 (valid) 0x24e-0x24e.7 (1)
     |                                               |                |                          [9]{}: instr 0x24f-0x250.7 (2)
0x240|                                             20|                |                            local.get: 0x20 (valid) 0x24f-0x24f.7 (1)
0x250|01                                             |.               |                            x: 1 0x250-0x250.7 (1)
     |                                               |                |                          [10]{}: instr 0x251-0x252.7 (2)
0x250|   41                                          | A              |                            i32.const: 0x41 (valid) 0x251-0x251.7 (1)
0x250|      02                                       |  .             |                            n: 2 0x252-0x252.7 (1)
     |                                               |                |                          [11]{}: instr 0x253-0x253.7 (1)
0x250|         46                                    |   F            |                            i32.eq: 0x46 (valid) 0x253-0x253.7 (1)
     |                                               |                |                          [12]{}: instr 0x254-0x264.7 (17)
0x250|            04                                 |    .           |                            if: 0x4 (valid) 0x254-0x254.7 (1)
0x250|               40                              |     @          |                            bt: "ε" (64) 0x255-0x255.7 (1)
     |                                               |                |                            in1[0:6]: 0x256-0x263.7 (14)
     |                                               |                |                              [0]{}: instr 0x256-0x257.7 (2)
0x250|                  41                           |      A         |                                i32.const: 0x41 (valid) 0x256-0x256.7 (1)
0x250|                     00                        |       .        |                                n: 0 0x257-0x257.7 (1)
     |                                               |                |                              [1]{}: instr 0x258-0x259.7 (2)
0x250|                        20                     |                |                                local.get: 0x20 (valid) 0x258-0x258.7 (1)
0x250|                           02                  |         .      |                                x: 2 0x259-0x259.7 (1)
     |                                               |                |                              [2]{}: instr 0x25a-0x25c.7 (3)
0x250|                              3b               |          ;     |                                i32.store16: 0x3b (valid) 0x25a-0x25a.7 (1)
     |                                               |                |                                m{}: 0x25b-0x25c.7 (2)
0x250|                                 01            |           .    |                                  a: 1 0x25b-0x25b.7 (1)
0x250|                                    00         |            .   |                                  o: 0 0x25c-0x25c.7 (1)
     |                                               |                |                              [3]{}: instr 0x25d-0x25e.7 (2)
0x250|                                       41      |             A  |                                i32.const: 0x41 (valid) 0x25d-0x25d.7 (1)
0x250|                                          00   |              . |                                n: 0 0x25e-0x25e.7 (1)
     |                                               |                |                              [4]{}: instr 0x25f-0x261.7 (3)
0x250|                                             2f|               /|                                i32.load16_u: 0x2f (valid) 0x25f-0x25f.7 (1)
     |                                               |                |                                m{}: 0x260-0x261.7 (2)
0x260|01                                             |.               |                                  a: 1 0x260-0x260.7 (1)
0x260|   00                                          | .              |                                  o: 0 0x261-0x261.7 (1)
     |                                               |                |                              [5]{}: instr 0x262-0x263.7 (2)
0x260|      21                                       |  !             |                                local.set: 0x21 (valid) 0x262-0x262.7 (1)
0x260|         03                                    |   .            |                                x: 3 0x263-0x263.7 (1)
0x260|            0b                                 |    .           |                            end: 11 (valid) 0x264-0x264.7 (1)
     |                                               |                |                          [13]{}: instr 0x265-0x266.7 (2)
0x260|               0c                              |     .          |                            br: 0xc (valid) 0x265-0x265.7 (1)
0x260|                  01                           |      .         |                            l: 1 0x266-0x266.7 (1)
0x260|                     0b                        |       .        |                        end: 11 (valid) 0x267-0x267.7 (1)
     |                                               |                |                      [1]{}: instr 0x268-0x269.7 (2)
0x260|                        20                     |                |                        local.get: 0x20 (valid) 0x268-0x268.7 (1)
0x260|                           01                  |         .      |                        x: 1 0x269-0x269.7 (1)
     |                                               |                |                      [2]{}: instr 0x26a-0x26b.7 (2)
0x260|                              41               |          A     |                        i32.const: 0x41 (valid) 0x26a-0x26a.7 (1)
0x260|                                 00            |           .    |                        n: 0 0x26b-0x26b.7 (1)
     |                                               |                |                      [3]{}: instr 0x26c-0x26c.7 (1)
0x260|                                    46         |            F   |                        i32.eq: 0x46 (valid) 0x26c-0x26c.7 (1)
     |                                               |                |                      [4]{}: instr 0x26d-0x27d.7 (17)
0x260|                                       04      |             .  |                        if: 0x4 (valid) 0x26d-0x26d.7 (1)
0x260|                                          40   |              @ |                        bt: "ε" (64) 0x26e-0x26e.7 (1)
     |                                               |                |                        in1[0:6]: 0x26f-0x27c.7 (14)
     |                                               |                |                          [0]{}: instr 0x26f-0x270.7 (2)
0x260|                                             41|               A|                            i32.const: 0x41 (valid) 0x26f-0x26f.7 (1)
0x270|00                                             |.               |                            n: 0 0x270-0x270.7 (1)
     |                                               |                |                          [1]{}: instr 0x271-0x272.7 (2)
0x270|   20                                          |                |                            local.get: 0x20 (valid) 0x271-0x271.7 (1)
0x270|      02                                       |  .             |                            x: 2 0x272-0x272.7 (1)
     |                                               |                |                          [2]{}: instr 0x273-0x275.7 (3)
0x270|         36                                    |   6            |                            i32.store: 0x36 (valid) 0x273-0x273.7 (1)
     |                                               |                |                            m{}: 0x274-0x275.7 (2)
0x270|            02                                 |    .           |                              a: 2 0x274-0x274.7 (1)
0x270|               00                              |     .          |                              o: 0 0x275-0x275.7 (1)
     |                                               |                |                          [3]{}: instr 0x276-0x277.7 (2)
0x270|                  41                           |      A         |                            i32.const: 0x41 (valid) 0x276-0x276.7 (1)
0x270|                     00                        |       .        |                            n: 0 0x277-0x277.7 (1)
     |                                               |                |                          [4]{}: instr 0x278-0x27a.7 (3)
0x270|                        28                     |        (       |                            i32.load: 0x28 (valid) 0x278-0x278.7 (1)
     |                                               |                |                            m{}: 0x279-0x27a.7 (2)
0x270|                           02                  |         .      |                              a: 2 0x279-0x279.7 (1)
0x270|                              00               |          .     |                              o: 0 0x27a-0x27a.7 (1)
     |                                               |                |                          [5]{}: instr 0x27b-0x27c.7 (2)
0x270|                                 21            |           !    |                            local.set: 0x21 (valid) 0x27b-0x27b.7 (1)
0x270|                                    03         |            .   |                            x: 3 0x27c-0x27c.7 (1)
0x270|                                       0b      |             .  |                        end: 11 (valid) 0x27d-0x27d.7 (1)
     |                                               |                |                      [5]{}: instr 0x27e-0x27f.7 (2)
0x270|                                          20   |                |                        local.get: 0x20 (valid) 0x27e-0x27e.7 (1)
0x270|                                             01|               .|                        x: 1 0x27f-0x27f.7 (1)
     |                                               |                |                      [6]{}: instr 0x280-0x281.7 (2)
0x280|41                                             |A               |                        i32.const: 0x41 (valid) 0x280-0x280.7 (1)
0x280|   01                                          | .              |                        n: 1 0x281-0x281.7 (1)
     |                                               |                |                      [7]{}: instr 0x282-0x282.7 (1)
0x280|      46                                       |  F             |                        i32.eq: 0x46 (valid) 0x282-0x282.7 (1)
     |                                               |                |                      [8]{}: instr 0x283-0x293.7 (17)
0x280|         04                                    |   .            |                        if: 0x4 (valid) 0x283-0x283.7 (1)
0x280|            40                                 |    @           |                        bt: "ε" (64) 0x284-0x284.7 (1)
     |                                               |                |                        in1[0:6]: 0x285-0x292.7 (14)
     |                                               |                |                          [0]{}: instr 0x285-0x286.7 (2)
0x280|               41                              |     A          |                            i32.const: 0x41 (valid) 0x285-0x285.7 (1)
0x280|                  00                           |      .         |                            n: 0 0x286-0x286.7 (1)
     |                                               |                |                          [1]{}: instr 0x287-0x288.7 (2)
0x280|                     20                        |                |                            local.get: 0x20 (valid) 0x287-0x287.7 (1)
0x280|                        02                     |        .       |                            x: 2 0x288-0x288.7 (1)
     |                                               |                |                          [2]{}: instr 0x289-0x28b.7 (3)
0x280|                           36                  |         6      |                            i32.store: 0x36 (valid) 0x289-0x289.7 (1)
     |                                               |                |                            m{}: 0x28a-0x28b.7 (2)
0x280|                              00               |          .     |                              a: 0 0x28a-0x28a.7 (1)
0x280|                                 00            |           .    |                              o: 0 0x28b-0x28b.7 (1)
     |                                               |                |                          [3]{}: instr 0x28c-0x28d.7 (2)
0x280|                                    41         |            A   |                            i32.const: 0x41 (valid) 0x28c-0x28c.7 (1)
0x280|                                       00      |             .  |                            n: 0 0x28d-0x28d.7 (1)
     |                                               |                |                          [4]{}: instr 0x28e-0x290.7 (3)
0x280|                                          28   |              ( |                            i32.load: 0x28 (valid) 0x28e-0x28e.7 (1)
     |                                               |                |                            m{}: 0x28f-0x290.7 (2)
0x280|                                             00|               .|                              a: 0 0x28f-0x28f.7 (1)
0x290|00                                             |.               |                              o: 0 0x290-0x290.7 (1)
     |                                               |                |                          [5]{}: instr 0x291-0x292.7 (2)
0x290|   21                                          | !              |                            local.set: 0x21 (valid) 0x291-0x291.7 (1)
0x290|      03                                       |  .             |                            x: 3 0x292-0x292.7 (1)
0x290|         0b                                    |   .            |                        end: 11 (valid) 0x293-0x293.7 (1)
     |                                               |                |                      [9]{}: instr 0x294-0x295.7 (2)
0x290|            20                                 |                |                        local.get: 0x20 (valid) 0x294-0x294.7 (1)
0x290|               01                              |     .          |                        x: 1 0x295-0x295.7 (1)
     |                                               |                |                      [10]{}: instr 0x296-0x297.7 (2)
0x290|                  41                           |      A         |                        i32.const: 0x41 (valid) 0x296-0x296.7 (1)
0x290|                     02                        |       .        |                        n: 2 0x297-0x297.7 (1)
     |                                               |                |                      [11]{}: instr 0x298-0x298.7 (1)
0x290|                        46                     |        F       |                        i32.eq: 0x46 (valid) 0x298-0x298.7 (1)
     |                                               |                |                      [12]{}: instr 0x299-0x2a9.7 (17)
0x290|                           04                  |         .      |                        if: 0x4 (valid) 0x299-0x299.7 (1)
0x290|                              40               |          @     |                        bt: "ε" (64) 0x29a-0x29a.7 (1)
     |                                               |                |                        in1[0:6]: 0x29b-0x2a8.7 (14)
     |                                               |                |                          [0]{}: instr 0x29b-0x29c.7 (2)
0x290|                                 41            |           A    |                            i32.const: 0x41 (valid) 0x29b-0x29b.7 (1)
0x290|                                    00         |            .   |                            n: 0 0x29c-0x29c.7 (1)
     |                                               |                |                          [1]{}: instr 0x29d-0x29e.7 (2)
0x290|                                       20      |                |                            local.get: 0x20 (valid) 0x29d-0x29d.7 (1)
0x290|                                          02   |              . |                            x: 2 0x29e-0x29e.7 (1)
     |                                               |                |                          [2]{}: instr 0x29f-0x2a1.7 (3)
0x290|                                             36|               6|                            i32.store: 0x36 (valid) 0x29f-0x29f.7 (1)
     |                                               |                |                            m{}: 0x2a0-0x2a1.7 (2)
0x2a0|01                                             |.               |                              a: 1 0x2a0-0x2a0.7 (1)
0x2a0|   00                                          | .              |                              o: 0 0x2a1-0x2a1.7 (1)
     |                                               |                |                          [3]{}: instr 0x2a2-0x2a3.7 (2)
0x2a0|      41                                       |  A             |                            i32.const: 0x41 (valid) 0x2a2-0x2a2.7 (1)
0x2a0|         00                                    |   .            |                            n: 0 0x2a3-0x2a3.7 (1)
     |                                               |                |                          [4]{}: instr 0x2a4-0x2a6.7 (3)
0x2a0|            28                                 |    (           |                            i32.load: 0x28 (valid) 0x2a4-0x2a4.7 (1)
     |                                               |                |                            m{}: 0x2a5-0x2a6.7 (2)
0x2a0|               01                              |     .          |                              a: 1 0x2a5-0x2a5.7 (1)
0x2a0|                  00                           |      .         |                              o: 0 0x2a6-0x2a6.7 (1)
     |                                               |                |                          [5]{}: instr 0x2a7-0x2a8.7 (2)
0x2a0|                     21                        |       !        |                            local.set: 0x21 (valid) 0x2a7-0x2a7.7 (1)
0x2a0|                        03                     |        .       |                            x: 3 0x2a8-0x2a8.7 (1)
0x2a0|                           0b                  |         .      |                        end: 11 (valid) 0x2a9-0x2a9.7 (1)
     |                                               |                |                      [13]{}: instr 0x2aa-0x2ab.7 (2)
0x2a0|                              20               |                |                        local.get: 0x20 (valid) 0x2aa-0x2aa.7 (1)
0x2a0|                                 01            |           .    |                        x: 1 0x2ab-0x2ab.7 (1)
     |                                               |                |                      [14]{}: instr 0x2ac-0x2ad.7 (2)
0x2a0|                                    41         |            A   |                        i32.const: 0x41 (valid) 0x2ac-0x2ac.7 (1)
0x2a0|                                       04      |             .  |                        n: 4 0x2ad-0x2ad.7 (1)
     |                                               |                |                      [15]{}: instr 0x2ae-0x2ae.7 (1)
0x2a0|                                          46   |              F |                        i32.eq: 0x46 (valid) 0x2ae-0x2ae.7 (1)
     |                                               |                |                      [16]{}: instr 0x2af-0x2bf.7 (17)
0x2a0|                                             04|               .|                        if: 0x4 (valid) 0x2af-0x2af.7 (1)
0x2b0|40                                             |@               |                        bt: "ε" (64) 0x2b0-0x2b0.7 (1)
     |                                               |                |                        in1[0:6]: 0x2b1-0x2be.7 (14)
     |                                               |                |                          [0]{}: instr 0x2b1-0x2b2.7 (2)
0x2b0|   41                                          | A              |                            i32.const: 0x41 (valid) 0x2b1-0x2b1.7 (1)
0x2b0|      00                                       |  .             |                            n: 0 0x2b2-0x2b2.7 (1)
     |                                               |                |                          [1]{}: instr 0x2b3-0x2b4.7 (2)
0x2b0|         20                                    |                |                            local.get: 0x20 (valid) 0x2b3-0x2b3.7 (1)
0x2b0|            02                                 |    .           |                            x: 2 0x2b4-0x2b4.7 (1)
     |                                               |                |                          [2]{}: instr 0x2b5-0x2b7.7 (3)
0x2b0|               36                              |     6          |                            i32.store: 0x36 (valid) 0x2b5-0x2b5.7 (1)
     |                                               |                |                            m{}: 0x2b6-0x2b7.7 (2)
0x2b0|                  02                           |      .         |                              a: 2 0x2b6-0x2b6.7 (1)
0x2b0|                     00                        |       .        |                              o: 0 0x2b7-0x2b7.7 (1)
     |                                               |                |                          [3]{}: instr 0x2b8-0x2b9.7 (2)
0x2b0|                        41                     |        A       |                            i32.const: 0x41 (valid) 0x2b8-0x2b8.7 (1)
0x2b0|                           00                  |         .      |                            n: 0 0x2b9-0x2b9.7 (1)
     |                                               |                |                          [4]{}: instr 0x2ba-0x2bc.7 (3)
0x2b0|                              28               |          (     |                            i32.load: 0x28 (valid) 0x2ba-0x2ba.7 (1)
     |                                               |                |                            m{}: 0x2bb-0x2bc.7 (2)
0x2b0|                                 02            |           .    |                              a: 2 0x2bb-0x2bb.7 (1)
0x2b0|                                    00         |            .   |                              o: 0 0x2bc-0x2bc.7 (1)
     |                                               |                |                          [5]{}: instr 0x2bd-0x2be.7 (2)
0x2b0|                                       21      |             !  |                            local.set: 0x21 (valid) 0x2bd-0x2bd.7 (1)
0x2b0|                                          03   |              . |                            x: 3 0x2be-0x2be.7 (1)
0x2b0|                                             0b|               .|                        end: 11 (valid) 0x2bf-0x2bf.7 (1)
0x2c0|0b                                             |.               |                    end: 11 (valid) 0x2c0-0x2c0.7 (1)
     |                                               |                |                  [3]{}: in 0x2c1-0x2c2.7 (2)
0x2c0|   20                                          |                |                    local.get: 0x20 (valid) 0x2c1-0x2c1.7 (1)
0x2c0|      03                                       |  .             |                    x: 3 0x2c2-0x2c2.7 (1)
     |                                               |                |                  [4]{}: in 0x2c3-0x2c3.7 (1)
0x2c0|         0b                                    |   .            |                    end: 0xb (valid) 0x2c3-0x2c3.7 (1)
     |                                               |                |            [3]{}: code 0x2c4-0x4f9.7 (566)
0x2c0|            b4 04                              |    ..          |              size: 564 0x2c4-0x2c5.7 (2)
     |                                               |                |              code{}: 0x2c6-0x4f9.7 (564)
     |                                               |                |                t{}: 0x2c6-0x2c8.7 (3)
0x2c0|                  01                           |      .         |                  n: 1 0x2c6-0x2c6.7 (1)
     |                                               |                |                  x[0:1]: 0x2c7-0x2c8.7 (2)
     |                                               |                |                    [0]{}: t 0x2c7-0x2c8.7 (2)
0x2c0|                     02                        |       .        |                      n: 2 0x2c7-0x2c7.7 (1)
0x2c0|                        7e                     |        ~       |                      t: "i64" (0x7e) 0x2c8-0x2c8.7 (1)
     |                                               |                |                e[0:5]: 0x2c9-0x4f9.7 (561)
     |                                               |                |                  [0]{}: in 0x2c9-0x2ca.7 (2)
0x2c0|                           42                  |         B      |                    i64.const: 0x42 (valid) 0x2c9-0x2c9.7 (1)
0x2c0|                              0a               |          .     |                    n: 10 0x2ca-0x2ca.7 (1)
     |                                               |                |                  [1]{}: in 0x2cb-0x2cc.7 (2)
0x2c0|                                 21            |           !    |                    local.set: 0x21 (valid) 0x2cb-0x2cb.7 (1)
0x2c0|                                    02         |            .   |                    x: 2 0x2cc-0x2cc.7 (1)
     |                                               |                |                  [2]{}: in 0x2cd-0x4f6.7 (554)
0x2c0|                                       02      |             .  |                    block: 0x2 (valid) 0x2cd-0x2cd.7 (1)
0x2c0|                                          40   |              @ |                    bt: "ε" (64) 0x2ce-0x2ce.7 (1)
     |                                               |                |                    instructions[0:21]: 0x2cf-0x4f5.7 (551)
     |                                               |                |                      [0]{}: instr 0x2cf-0x487.7 (441)
0x2c0|                                             02|               .|                        block: 0x2 (valid) 0x2cf-0x2cf.7 (1)
0x2d0|40                                             |@               |                        bt: "ε" (64) 0x2d0-0x2d0.7 (1)
     |                                               |                |                        instructions[0:18]: 0x2d1-0x486.7 (438)
     |                                               |                |                          [0]{}: instr 0x2d1-0x42c.7 (348)
0x2d0|   02                                          | .              |                            block: 0x2 (valid) 0x2d1-0x2d1.7 (1)
0x2d0|      40                                       |  @             |                            bt: "ε" (64) 0x2d2-0x2d2.7 (1)
     |                                               |                |                            instructions[0:18]: 0x2d3-0x42b.7 (345)
     |                                               |                |                              [0]{}: instr 0x2d3-0x3d1.7 (255)
0x2d0|         02                                    |   .            |                                block: 0x2 (valid) 0x2d3-0x2d3.7 (1)
0x2d0|            40                                 |    @           |                                bt: "ε" (64) 0x2d4-0x2d4.7 (1)
     |                                               |                |                                instructions[0:14]: 0x2d5-0x3d0.7 (252)
     |                                               |                |                                  [0]{}: instr 0x2d5-0x38c.7 (184)
0x2d0|               02                              |     .          |                                    block: 0x2 (valid) 0x2d5-0x2d5.7 (1)
0x2d0|                  40                           |      @         |                                    bt: "ε" (64) 0x2d6-0x2d6.7 (1)
     |                                               |                |                                    instructions[0:14]: 0x2d7-0x38b.7 (181)
     |                                               |                |                                      [0]{}: instr 0x2d7-0x347.7 (113)
0x2d0|                     02                        |       .        |                                        block: 0x2 (valid) 0x2d7-0x2d7.7 (1)
0x2d0|                        40                     |        @       |                                        bt: "ε" (64) 0x2d8-0x2d8.7 (1)
     |                                               |                |                                        instructions[0:10]: 0x2d9-0x346.7 (110)
     |                                               |                |                                          [0]{}: instr 0x2d9-0x318.7 (64)
0x2d0|                           02                  |         .      |                                            block: 0x2 (valid) 0x2d9-0x2d9.7 (1)
0x2d0|                              40               |          @     |                                            bt: "ε" (64) 0x2da-0x2da.7 (1)
     |                                               |                |                                            instructions[0:10]: 0x2db-0x317.7 (61)
     |                                               |                |                                              [0]{}: instr 0x2db-0x2e9.7 (15)
0x2d0|                                 02            |           .    |                                                block: 0x2 (valid) 0x2db-0x2db.7 (1)
0x2d0|                                    40         |            @   |                                                bt: "ε" (64) 0x2dc-0x2dc.7 (1)
     |                                               |                |                                                instructions[0:2]: 0x2dd-0x2e8.7 (12)
     |                                               |                |                                                  [0]{}: instr 0x2dd-0x2de.7 (2)
0x2d0|                                       20      |                |                                                    local.get: 0x20 (valid) 0x2dd-0x2dd.7 (1)
0x2d0|                                          00   |              . |                                                    x: 0 0x2de-0x2de.7 (1)
     |                                               |                |                                                  [1]{}: instr 0x2df-0x2e8.7 (10)
0x2d0|                                             0e|               .|                                                    br_table: 0xe (valid) 0x2df-0x2df.7 (1)
     |                                               |                |                                                    l{}: 0x2e0-0x2e7.7 (8)
0x2e0|07                                             |.               |                                                      n: 7 0x2e0-0x2e0.7 (1)
     |                                               |                |                                                      x[0:7]: 0x2e1-0x2e7.7 (7)
0x2e0|   00                                          | .              |                                                        [0]: 0 l 0x2e1-0x2e1.7 (1)
0x2e0|      01                                       |  .             |                                                        [1]: 1 l 0x2e2-0x2e2.7 (1)
0x2e0|         02                                    |   .            |                                                        [2]: 2 l 0x2e3-0x2e3.7 (1)
0x2e0|            03                                 |    .           |                                                        [3]: 3 l 0x2e4-0x2e4.7 (1)
0x2e0|               04                              |     .          |                                                        [4]: 4 l 0x2e5-0x2e5.7 (1)
0x2e0|                  05                           |      .         |                                                        [5]: 5 l 0x2e6-0x2e6.7 (1)
0x2e0|                     06                        |       .        |                                                        [6]: 6 l 0x2e7-0x2e7.7 (1)
0x2e0|                        07                     |        .       |                                                    lN: 7 0x2e8-0x2e8.7 (1)
0x2e0|                           0b                  |         .      |                                                end: 11 (valid) 0x2e9-0x2e9.7 (1)
     |                                               |                |                                              [1]{}: instr 0x2ea-0x2eb.7 (2)
0x2e0|                              20               |                |                                                local.get: 0x20 (valid) 0x2ea-0x2ea.7 (1)
0x2e0|                                 01            |           .    |                                                x: 1 0x2eb-0x2eb.7 (1)
     |                                               |                |                                              [2]{}: instr 0x2ec-0x2ed.7 (2)
0x2e0|                                    41         |            A   |                                                i32.const: 0x41 (valid) 0x2ec-0x2ec.7 (1)
0x2e0|                                       00      |             .  |                                                n: 0 0x2ed-0x2ed.7 (1)
     |                                               |                |                                              [3]{}: instr 0x2ee-0x2ee.7 (1)
0x2e0|                                          46   |              F |                                                i32.eq: 0x46 (valid) 0x2ee-0x2ee.7 (1)
     |                                               |                |                                              [4]{}: instr 0x2ef-0x2ff.7 (17)
0x2e0|                                             04|               .|                                                if: 0x4 (valid) 0x2ef-0x2ef.7 (1)
0x2f0|40                                             |@               |                                                bt: "ε" (64) 0x2f0-0x2f0.7 (1)
     |                                               |                |                                                in1[0:6]: 0x2f1-0x2fe.7 (14)
     |                                               |                |                                                  [0]{}: instr 0x2f1-0x2f2.7 (2)
0x2f0|   41                                          | A              |                                                    i32.const: 0x41 (valid) 0x2f1-0x2f1.7 (1)
0x2f0|      00                                       |  .             |                                                    n: 0 0x2f2-0x2f2.7 (1)
     |                                               |                |                                                  [1]{}: instr 0x2f3-0x2f4.7 (2)
0x2f0|         20                                    |                |                                                    local.get: 0x20 (valid) 0x2f3-0x2f3.7 (1)
0x2f0|            02                                 |    .           |                                                    x: 2 0x2f4-0x2f4.7 (1)
     |                                               |                |                                                  [2]{}: instr 0x2f5-0x2f7.7 (3)
0x2f0|               3c                              |     <          |                                                    i64.store8: 0x3c (valid) 0x2f5-0x2f5.7 (1)
     |                                               |                |                                                    m{}: 0x2f6-0x2f7.7 (2)
0x2f0|                  00                           |      .         |                                                      a: 0 0x2f6-0x2f6.7 (1)
0x2f0|                     00                        |       .        |                                                      o: 0 0x2f7-0x2f7.7 (1)
     |                                               |                |                                                  [3]{}: instr 0x2f8-0x2f9.7 (2)
0x2f0|                        41                     |        A       |                                                    i32.const: 0x41 (valid) 0x2f8-0x2f8.7 (1)
0x2f0|                           00                  |         .      |                                                    n: 0 0x2f9-0x2f9.7 (1)
     |                                               |                |                                                  [4]{}: instr 0x2fa-0x2fc.7 (3)
0x2f0|                              30               |          0     |                                                    i64.load8_s: 0x30 (valid) 0x2fa-0x2fa.7 (1)
     |                                               |                |                                                    m{}: 0x2fb-0x2fc.7 (2)
0x2f0|                                 00            |           .    |                                                      a: 0 0x2fb-0x2fb.7 (1)
0x2f0|                                    00         |            .   |                                                      o: 0 0x2fc-0x2fc.7 (1)
     |                                               |                |                                                  [5]{}: instr 0x2fd-0x2fe.7 (2)
0x2f0|                                       21      |             !  |                                                    local.set: 0x21 (valid) 0x2fd-0x2fd.7 (1)
0x2f0|                                          03   |              . |                                                    x: 3 0x2fe-0x2fe.7 (1)
0x2f0|                                             0b|               .|                                                end: 11 (valid) 0x2ff-0x2ff.7 (1)
     |                                               |                |                                              [5]{}: instr 0x300-0x301.7 (2)
0x300|20                                             |                |                                                local.get: 0x20 (valid) 0x300-0x300.7 (1)
0x300|   01                                          | .              |                                                x: 1 0x301-0x301.7 (1)
     |                                               |                |                                              [6]{}: instr 0x302-0x303.7 (2)
0x300|      41                                       |  A             |                                                i32.const: 0x41 (valid) 0x302-0x302.7 (1)
0x300|         01                                    |   .            |                                                n: 1 0x303-0x303.7 (1)
     |                                               |                |                                              [7]{}: instr 0x304-0x304.7 (1)
0x300|            46                                 |    F           |                                                i32.eq: 0x46 (valid) 0x304-0x304.7 (1)
     |                                               |                |                                              [8]{}: instr 0x305-0x315.7 (17)
0x300|               04                              |     .          |                                                if: 0x4 (valid) 0x305-0x305.7 (1)
0x300|                  40                           |      @         |                                                bt: "ε" (64) 0x306-0x306.7 (1)
     |                                               |                |                                                in1[0:6]: 0x307-0x314.7 (14)
     |                                               |                |                                                  [0]{}: instr 0x307-0x308.7 (2)
0x300|                     41                        |       A        |                                                    i32.const: 0x41 (valid) 0x307-0x307.7 (1)
0x300|                        00                     |        .       |                                                    n: 0 0x308-0x308.7 (1)
     |                                               |                |                                                  [1]{}: instr 0x309-0x30a.7 (2)
0x300|                           20                  |                |                                                    local.get: 0x20 (valid) 0x309-0x309.7 (1)
0x300|                              02               |          .     |                                                    x: 2 0x30a-0x30a.7 (1)
     |                                               |                |                                                  [2]{}: instr 0x30b-0x30d.7 (3)
0x300|                                 3c            |           <    |                                                    i64.store8: 0x3c (valid) 0x30b-0x30b.7 (1)
     |                                               |                |                                                    m{}: 0x30c-0x30d.7 (2)
0x300|                                    00         |            .   |                                                      a: 0 0x30c-0x30c.7 (1)
0x300|                                       00      |             .  |                                                      o: 0 0x30d-0x30d.7 (1)
     |                                               |                |                                                  [3]{}: instr 0x30e-0x30f.7 (2)
0x300|                                          41   |              A |                                                    i32.const: 0x41 (valid) 0x30e-0x30e.7 (1)
0x300|                                             00|               .|                                                    n: 0 0x30f-0x30f.7 (1)
     |                                               |                |                                                  [4]{}: instr 0x310-0x312.7 (3)
0x310|30                                             |0               |                                                    i64.load8_s: 0x30 (valid) 0x310-0x310.7 (1)
     |                                               |                |                                                    m{}: 0x311-0x312.7 (2)
0x310|   00                                          | .              |                                                      a: 0 0x311-0x311.7 (1)
0x310|      00                                       |  .             |                                                      o: 0 0x312-0x312.7 (1)
     |                                               |                |                                                  [5]{}: instr 0x313-0x314.7 (2)
0x310|         21                                    |   !            |                                                    local.set: 0x21 (valid) 0x313-0x313.7 (1)
0x310|            03                                 |    .           |                                                    x: 3 0x314-0x314.7 (1)
0x310|               0b                              |     .          |                                                end: 11 (valid) 0x315-0x315.7 (1)
     |                                               |                |                                              [9]{}: instr 0x316-0x317.7 (2)
0x310|                  0c                           |      .         |                                                br: 0xc (valid) 0x316-0x316.7 (1)
0x310|                     06                        |       .        |                                                l: 6 0x317-0x317.7 (1)
0x310|                        0b                     |        .       |                                            end: 11 (valid) 0x318-0x318.7 (1)
     |                                               |                |                                          [1]{}: instr 0x319-0x31a.7 (2)
0x310|                           20                  |                |                                            local.get: 0x20 (valid) 0x319-0x319.7 (1)
0x310|                              01               |          .     |                                            x: 1 0x31a-0x31a.7 (1)
     |                                               |                |                                          [2]{}: instr 0x31b-0x31c.7 (2)
0x310|                                 41            |           A    |                                            i32.const: 0x41 (valid) 0x31b-0x31b.7 (1)
0x310|                                    00         |            .   |                                            n: 0 0x31c-0x31c.7 (1)
     |                                               |                |                                          [3]{}: instr 0x31d-0x31d.7 (1)
0x310|                                       46      |             F  |                                            i32.eq: 0x46 (valid) 0x31d-0x31d.7 (1)
     |                                               |                |                                          [4]{}: instr 0x31e-0x32e.7 (17)
0x310|                                          04   |              . |                                            if: 0x4 (valid) 0x31e-0x31e.7 (1)
0x310|                                             40|               @|                                            bt: "ε" (64) 0x31f-0x31f.7 (1)
     |                                               |                |                                            in1[0:6]: 0x320-0x32d.7 (14)
     |                                               |                |                                              [0]{}: instr 0x320-0x321.7 (2)
0x320|41                                             |A               |                                                i32.const: 0x41 (valid) 0x320-0x320.7 (1)
0x320|   00                                          | .              |                                                n: 0 0x321-0x321.7 (1)
     |                                               |                |                                              [1]{}: instr 0x322-0x323.7 (2)
0x320|      20                                       |                |                                                local.get: 0x20 (valid) 0x322-0x322.7 (1)
0x320|         02                                    |   .            |                                                x: 2 0x323-0x323.7 (1)
     |                                               |                |                                              [2]{}: instr 0x324-0x326.7 (3)
0x320|            3c                                 |    <           |                                                i64.store8: 0x3c (valid) 0x324-0x324.7 (1)
     |                                               |                |                                                m{}: 0x325-0x326.7 (2)
0x320|               00                              |     .          |                                                  a: 0 0x325-0x325.7 (1)
0x320|                  00                           |      .         |                                                  o: 0 0x326-0x326.7 (1)
     |                                               |                |                                              [3]{}: instr 0x327-0x328.7 (2)
0x320|                     41                        |       A        |                                                i32.const: 0x41 (valid) 0x327-0x327.7 (1)
0x320|                        00                     |        .       |                                                n: 0 0x328-0x328.7 (1)
     |                                               |                |                                              [4]{}: instr 0x329-0x32b.7 (3)
0x320|                           31                  |         1      |                                                i64.load8_u: 0x31 (valid) 0x329-0x329.7 (1)
     |                                               |                |                                                m{}: 0x32a-0x32b.7 (2)
0x320|                              00               |          .     |                                                  a: 0 0x32a-0x32a.7 (1)
0x320|                                 00            |           .    |                                                  o: 0 0x32b-0x32b.7 (1)
     |                                               |                |                                              [5]{}: instr 0x32c-0x32d.7 (2)
0x320|                                    21         |            !   |                                                local.set: 0x21 (valid) 0x32c-0x32c.7 (1)
0x320|                                       03      |             .  |                                                x: 3 0x32d-0x32d.7 (1)
0x320|                                          0b   |              . |                                            end: 11 (valid) 0x32e-0x32e.7 (1)
     |                                               |                |                                          [5]{}: instr 0x32f-0x330.7 (2)
0x320|                                             20|                |                                            local.get: 0x20 (valid) 0x32f-0x32f.7 (1)
0x330|01                                             |.               |                                            x: 1 0x330-0x330.7 (1)
     |                                               |                |                                          [6]{}: instr 0x331-0x332.7 (2)
0x330|   41                                          | A              |                                            i32.const: 0x41 (valid) 0x331-0x331.7 (1)
0x330|      01                                       |  .             |                                            n: 1 0x332-0x332.7 (1)
     |                                               |                |                                          [7]{}: instr 0x333-0x333.7 (1)
0x330|         46                                    |   F            |                                            i32.eq: 0x46 (valid) 0x333-0x333.7 (1)
     |                                               |                |                                          [8]{}: instr 0x334-0x344.7 (17)
0x330|            04                                 |    .           |                                            if: 0x4 (valid) 0x334-0x334.7 (1)
0x330|               40                              |     @          |                                            bt: "ε" (64) 0x335-0x335.7 (1)
     |                                               |                |                                            in1[0:6]: 0x336-0x343.7 (14)
     |                                               |                |                                              [0]{}: instr 0x336-0x337.7 (2)
0x330|                  41                           |      A         |                                                i32.const: 0x41 (valid) 0x336-0x336.7 (1)
0x330|                     00                        |       .        |                                                n: 0 0x337-0x337.7 (1)
     |                                               |                |                                              [1]{}: instr 0x338-0x339.7 (2)
0x330|                        20                     |                |                                                local.get: 0x20 (valid) 0x338-0x338.7 (1)
0x330|                           02                  |         .      |                                                x: 2 0x339-0x339.7 (1)
     |                                               |                |                                              [2]{}: instr 0x33a-0x33c.7 (3)
0x330|                              3c               |          <     |                                                i64.store8: 0x3c (valid) 0x33a-0x33a.7 (1)
     |                                               |                |                                                m{}: 0x33b-0x33c.7 (2)
0x330|                                 00            |           .    |                                                  a: 0 0x33b-0x33b.7 (1)
0x330|                                    00         |            .   |                                                  o: 0 0x33c-0x33c.7 (1)
     |                                               |                |                                              [3]{}: instr 0x33d-0x33e.7 (2)
0x330|                                       41      |             A  |                                                i32.const: 0x41 (valid) 0x33d-0x33d.7 (1)
0x330|                                          00   |              . |                                                n: 0 0x33e-0x33e.7 (1)
     |                                               |                |                                              [4]{}: instr 0x33f-0x341.7 (3)
0x330|                                             31|               1|                                                i64.load8_u: 0x31 (valid) 0x33f-0x33f.7 (1)
     |                                               |                |                                                m{}: 0x340-0x341.7 (2)
0x340|00                                             |.               |                                                  a: 0 0x340-0x340.7 (1)
0x340|   00                                          | .              |                                                  o: 0 0x341-0x341.7 (1)
     |                                               |                |                                              [5]{}: instr 0x342-0x343.7 (2)
0x340|      21                                       |  !             |                                                local.set: 0x21 (valid) 0x342-0x342.7 (1)
0x340|         03                                    |   .            |                                                x: 3 0x343-0x343.7 (1)
0x340|            0b                                 |    .           |                                            end: 11 (valid) 0x344-0x344.7 (1)
     |                                               |                |                                          [9]{}: instr 0x345-0x346.7 (2)
0x340|               0c                              |     .          |                                            br: 0xc (valid) 0x345-0x345.7 (1)
0x340|                  05                           |      .         |                                            l: 5 0x346-0x346.7 (1)
0x340|                     0b                        |       .        |                                        end: 11 (valid) 0x347-0x347.7 (1)
     |                                               |                |                                      [1]{}: instr 0x348-0x349.7 (2)
0x340|                        20                     |                |                                        local.get: 0x20 (valid) 0x348-0x348.7 (1)
0x340|                           01                  |         .      |                                        x: 1 0x349-0x349.7 (1)
     |                                               |                |                                      [2]{}: instr 0x34a-0x34b.7 (2)
0x340|                              41               |          A     |                                        i32.const: 0x41 (valid) 0x34a-0x34a.7 (1)
0x340|                                 00            |           .    |                                        n: 0 0x34b-0x34b.7 (1)
     |                                               |                |                                      [3]{}: instr 0x34c-0x34c.7 (1)
0x340|                                    46         |            F   |                                        i32.eq: 0x46 (valid) 0x34c-0x34c.7 (1)
     |                                               |                |                                      [4]{}: instr 0x34d-0x35d.7 (17)
0x340|                                       04      |             .  |                                        if: 0x4 (valid) 0x34d-0x34d.7 (1)
0x340|                                          40   |              @ |                                        bt: "ε" (64) 0x34e-0x34e.7 (1)
     |                                               |                |                                        in1[0:6]: 0x34f-0x35c.7 (14)
     |                                               |                |                                          [0]{}: instr 0x34f-0x350.7 (2)
0x340|                                             41|               A|                                            i32.const: 0x41 (valid) 0x34f-0x34f.7 (1)
0x350|00                                             |.               |                                            n: 0 0x350-0x350.7 (1)
     |                                               |                |                                          [1]{}: instr 0x351-0x352.7 (2)
0x350|   20                                          |                |                                            local.get: 0x20 (valid) 0x351-0x351.7 (1)
0x350|      02                                       |  .             |                                            x: 2 0x352-0x352.7 (1)
     |                                               |                |                                          [2]{}: instr 0x353-0x355.7 (3)
0x350|         3d                                    |   =            |                                            i64.store16: 0x3d (valid) 0x353-0x353.7 (1)
     |                                               |                |                                            m{}: 0x354-0x355.7 (2)
0x350|            01                                 |    .           |                                              a: 1 0x354-0x354.7 (1)
0x350|               00                              |     .          |                                              o: 0 0x355-0x355.7 (1)
     |                                               |                |                                          [3]{}: instr 0x356-0x357.7 (2)
0x350|                  41                           |      A         |                                            i32.const: 0x41 (valid) 0x356-0x356.7 (1)
0x350|                     00                        |       .        |                                            n: 0 0x357-0x357.7 (1)
     |                                               |                |                                          [4]{}: instr 0x358-0x35a.7 (3)
0x350|                        32                     |        2       |                                            i64.load16_s: 0x32 (valid) 0x358-0x358.7 (1)
     |                                               |                |                                            m{}: 0x359-0x35a.7 (2)
0x350|                           01                  |         .      |                                              a: 1 0x359-0x359.7 (1)
0x350|                              00               |          .     |                                              o: 0 0x35a-0x35a.7 (1)
     |                                               |                |                                          [5]{}: instr 0x35b-0x35c.7 (2)
0x350|                                 21            |           !    |                                            local.set: 0x21 (valid) 0x35b-0x35b.7 (1)
0x350|                                    03         |            .   |                                            x: 3 0x35c-0x35c.7 (1)
0x350|                                       0b      |             .  |                                        end: 11 (valid) 0x35d-0x35d.7 (1)
     |                                               |                |                                      [5]{}: instr 0x35e-0x35f.7 (2)
0x350|                                          20   |                |                                        local.get: 0x20 (valid) 0x35e-0x35e.7 (1)
0x350|                                             01|               .|                                        x: 1 0x35f-0x35f.7 (1)
     |                                               |                |                                      [6]{}: instr 0x360-0x361.7 (2)
0x360|41                                             |A               |                                        i32.const: 0x41 (valid) 0x360-0x360.7 (1)
0x360|   01                                          | .              |                                        n: 1 0x361-0x361.7 (1)
     |                                               |                |                                      [7]{}: instr 0x362-0x362.7 (1)
0x360|      46                                       |  F             |                                        i32.eq: 0x46 (valid) 0x362-0x362.7 (1)
     |                                               |                |                                      [8]{}: instr 0x363-0x373.7 (17)
0x360|         04                                    |   .            |                                        if: 0x4 (valid) 0x363-0x363.7 (1)
0x360|            40                                 |    @           |                                        bt: "ε" (64) 0x364-0x364.7 (1)
     |                                               |                |                                        in1[0:6]: 0x365-0x372.7 (14)
     |                                               |                |                                          [0]{}: instr 0x365-0x366.7 (2)
0x360|               41                              |     A          |                                            i32.const: 0x41 (valid) 0x365-0x365.7 (1)
0x360|                  00                           |      .         |                                            n: 0 0x366-0x366.7 (1)
     |                                               |                |                                          [1]{}: instr 0x367-0x368.7 (2)
0x360|                     20                        |                |                                            local.get: 0x20 (valid) 0x367-0x367.7 (1)
0x360|                        02                     |        .       |                                            x: 2 0x368-0x368.7 (1)
     |                                               |                |                                          [2]{}: instr 0x369-0x36b.7 (3)
0x360|                           3d                  |         =      |                                            i64.store16: 0x3d (valid) 0x369-0x369.7 (1)
     |                                               |                |                                            m{}: 0x36a-0x36b.7 (2)
0x360|                              00               |          .     |                                              a: 0 0x36a-0x36a.7 (1)
0x360|                                 00            |           .    |                                              o: 0 0x36b-0x36b.7 (1)
     |                                               |                |                                          [3]{}: instr 0x36c-0x36d.7 (2)
0x360|                                    41         |            A   |                                            i32.const: 0x41 (valid) 0x36c-0x36c.7 (1)
0x360|                                       00      |             .  |                                            n: 0 0x36d-0x36d.7 (1)
     |                                               |                |                                          [4]{}: instr 0x36e-0x370.7 (3)
0x360|                                          32   |              2 |                                            i64.load16_s: 0x32 (valid) 0x36e-0x36e.7 (1)
     |                                               |                |                                            m{}: 0x36f-0x370.7 (2)
0x360|                                             00|               .|                                              a: 0 0x36f-0x36f.7 (1)
0x370|00                                             |.               |                                              o: 0 0x370-0x370.7 (1)
     |                                               |                |                                          [5]{}: instr 0x371-0x372.7 (2)
0x370|   21                                          | !              |                                            local.set: 0x21 (valid) 0x371-0x371.7 (1)
0x370|      03                                       |  .             |                                            x: 3 0x372-0x372.7 (1)
0x370|         0b                                    |   .            |                                        end: 11 (valid) 0x373-0x373.7 (1)
     |                                               |                |                                      [9]{}: instr 0x374-0x375.7 (2)
0x370|            20                                 |                |                                        local.get: 0x20 (valid) 0x374-0x374.7 (1)
0x370|               01                              |     .          |                                        x: 1 0x375-0x375.7 (1)
     |                                               |                |                                      [10]{}: instr 0x376-0x377.7 (2)
0x370|                  41                           |      A         |                                        i32.const: 0x41 (valid) 0x376-0x376.7 (1)
0x370|                     02                        |       .        |                                        n: 2 0x377-0x377.7 (1)
     |                                               |                |                                      [11]{}: instr 0x378-0x378.7 (1)
0x370|                        46                     |        F       |                                        i32.eq: 0x46 (valid) 0x378-0x378.7 (1)
     |                                               |                |                                      [12]{}: instr 0x379-0x389.7 (17)
0x370|                           04                  |         .      |                                        if: 0x4 (valid) 0x379-0x379.7 (1)
0x370|                              40               |          @     |                                        bt: "ε" (64) 0x37a-0x37a.7 (1)
     |                                               |                |                                        in1[0:6]: 0x37b-0x388.7 (14)
     |                                               |                |                                          [0]{}: instr 0x37b-0x37c.7 (2)
0x370|                                 41            |           A    |                                            i32.const: 0x41 (valid) 0x37b-0x37b.7 (1)
0x370|                                    00         |            .   |                                            n: 0 0x37c-0x37c.7 (1)
     |                                               |                |                                          [1]{}: instr 0x37d-0x37e.7 (2)
0x370|                                       20      |                |                                            local.get: 0x20 (valid) 0x37d-0x37d.7 (1)
0x370|                                          02   |              . |                                            x: 2 0x37e-0x37e.7 (1)
     |                                               |                |                                          [2]{}: instr 0x37f-0x381.7 (3)
0x370|                                             3d|               =|                                            i64.store16: 0x3d (valid) 0x37f-0x37f.7 (1)
     |                                               |                |                                            m{}: 0x380-0x381.7 (2)
0x380|01                                             |.               |                                              a: 1 0x380-0x380.7 (1)
0x380|   00                                          | .              |                                              o: 0 0x381-0x381.7 (1)
     |                                               |                |                                          [3]{}: instr 0x382-0x383.7 (2)
0x380|      41                                       |  A             |                                            i32.const: 0x41 (valid) 0x382-0x382.7 (1)
0x380|         00                                    |   .            |                                            n: 0 0x383-0x383.7 (1)
     |                                               |                |                                          [4]{}: instr 0x384-0x386.7 (3)
0x380|            32                                 |    2           |                                            i64.load16_s: 0x32 (valid) 0x384-0x384.7 (1)
     |                                               |                |                                            m{}: 0x385-0x386.7 (2)
0x380|               01                              |     .          |                                              a: 1 0x385-0x385.7 (1)
0x380|                  00                           |      .         |                                              o: 0 0x386-0x386.7 (1)
     |                                               |                |                                          [5]{}: instr 0x387-0x388.7 (2)
0x380|                     21                        |       !        |                                            local.set: 0x21 (valid) 0x387-0x387.7 (1)
0x380|                        03                     |        .       |                                            x: 3 0x388-0x388.7 (1)
0x380|                           0b                  |         .      |                                        end: 11 (valid) 0x389-0x389.7 (1)
     |                                               |                |                                      [13]{}: instr 0x38a-0x38b.7 (2)
0x380|                              0c               |          .     |                                        br: 0xc (valid) 0x38a-0x38a.7 (1)
0x380|                                 04            |           .    |                                        l: 4 0x38b-0x38b.7 (1)
0x380|                                    0b         |            .   |                                    end: 11 (valid) 0x38c-0x38c.7 (1)
     |                                               |                |                                  [1]{}: instr 0x38d-0x38e.7 (2)
0x380|                                       20      |                |                                    local.get: 0x20 (valid) 0x38d-0x38d.7 (1)
0x380|                                          01   |              . |                                    x: 1 0x38e-0x38e.7 (1)
     |                                               |                |                                  [2]{}: instr 0x38f-0x390.7 (2)
0x380|                                             41|               A|                                    i32.const: 0x41 (valid) 0x38f-0x38f.7 (1)
0x390|00                                             |.               |                                    n: 0 0x390-0x390.7 (1)
     |                                               |                |                                  [3]{}: instr 0x391-0x391.7 (1)
0x390|   46                                          | F              |                                    i32.eq: 0x46 (valid) 0x391-0x391.7 (1)
     |                                               |                |                                  [4]{}: instr 0x392-0x3a2.7 (17)
0x390|      04                                       |  .             |                                    if: 0x4 (valid) 0x392-0x392.7 (1)
0x390|         40                                    |   @            |                                    bt: "ε" (64) 0x393-0x393.7 (1)
     |                                               |                |                                    in1[0:6]: 0x394-0x3a1.7 (14)
     |                                               |                |                                      [0]{}: instr 0x394-0x395.7 (2)
0x390|            41                                 |    A           |                                        i32.const: 0x41 (valid) 0x394-0x394.7 (1)
0x390|               00                              |     .          |                                        n: 0 0x395-0x395.7 (1)
     |                                               |                |                                      [1]{}: instr 0x396-0x397.7 (2)
0x390|                  20                           |                |                                        local.get: 0x20 (valid) 0x396-0x396.7 (1)
0x390|                     02                        |       .        |                                        x: 2 0x397-0x397.7 (1)
     |                                               |                |                                      [2]{}: instr 0x398-0x39a.7 (3)
0x390|                        3d                     |        =       |                                        i64.store16: 0x3d (valid) 0x398-0x398.7 (1)
     |                                               |                |                                        m{}: 0x399-0x39a.7 (2)
0x390|                           01                  |         .      |                                          a: 1 0x399-0x399.7 (1)
0x390|                              00               |          .     |                                          o: 0 0x39a-0x39a.7 (1)
     |                                               |                |                                      [3]{}: instr 0x39b-0x39c.7 (2)
0x390|                                 41            |           A    |                                        i32.const: 0x41 (valid) 0x39b-0x39b.7 (1)
0x390|                                    00         |            .   |                                        n: 0 0x39c-0x39c.7 (1)
     |                                               |                |                                      [4]{}: instr 0x39d-0x39f.7 (3)
0x390|                                       33      |             3  |                                        i64.load16_u: 0x33 (valid) 0x39d-0x39d.7 (1)
     |                                               |                |                                        m{}: 0x39e-0x39f.7 (2)
0x390|                                          01   |              . |                                          a: 1 0x39e-0x39e.7 (1)
0x390|                                             00|               .|                                          o: 0 0x39f-0x39f.7 (1)
     |                                               |                |                                      [5]{}: instr 0x3a0-0x3a1.7 (2)
0x3a0|21                                             |!               |                                        local.set: 0x21 (valid) 0x3a0-0x3a0.7 (1)
0x3a0|   03                                          | .              |                                        x: 3 0x3a1-0x3a1.7 (1)
0x3a0|      0b                                       |  .             |                                    end: 11 (valid) 0x3a2-0x3a2.7 (1)
     |                                               |                |                                  [5]{}: instr 0x3a3-0x3a4.7 (2)
0x3a0|         20                                    |                |                                    local.get: 0x20 (valid) 0x3a3-0x3a3.7 (1)
0x3a0|            01                                 |    .           |                                    x: 1 0x3a4-0x3a4.7 (1)
     |                                               |                |                                  [6]{}: instr 0x3a5-0x3a6.7 (2)
0x3a0|               41                              |     A          |                                    i32.const: 0x41 (valid) 0x3a5-0x3a5.7 (1)
0x3a0|                  01                           |      .         |                                    n: 1 0x3a6-0x3a6.7 (1)
     |                                               |                |                                  [7]{}: instr 0x3a7-0x3a7.7 (1)
0x3a0|                     46                        |       F        |                                    i32.eq: 0x46 (valid) 0x3a7-0x3a7.7 (1)
     |                                               |                |                                  [8]{}: instr 0x3a8-0x3b8.7 (17)
0x3a0|                        04                     |        .       |                                    if: 0x4 (valid) 0x3a8-0x3a8.7 (1)
0x3a0|                           40                  |         @      |                                    bt: "ε" (64) 0x3a9-0x3a9.7 (1)
     |                                               |                |                                    in1[0:6]: 0x3aa-0x3b7.7 (14)
     |                                               |                |                                      [0]{}: instr 0x3aa-0x3ab.7 (2)
0x3a0|                              41               |          A     |                                        i32.const: 0x41 (valid) 0x3aa-0x3aa.7 (1)
0x3a0|                                 00            |           .    |                                        n: 0 0x3ab-0x3ab.7 (1)
     |                                               |                |                                      [1]{}: instr 0x3ac-0x3ad.7 (2)
0x3a0|                                    20         |                |                                        local.get: 0x20 (valid) 0x3ac-0x3ac.7 (1)
0x3a0|                                       02      |             .  |                                        x: 2 0x3ad-0x3ad.7 (1)
     |                                               |                |                                      [2]{}: instr 0x3ae-0x3b0.7 (3)
0x3a0|                                          3d   |              = |                                        i64.store16: 0x3d (valid) 0x3ae-0x3ae.7 (1)
     |                                               |                |                                        m{}: 0x3af-0x3b0.7 (2)
0x3a0|                                             00|               .|                                          a: 0 0x3af-0x3af.7 (1)
0x3b0|00                                             |.               |                                          o: 0 0x3b0-0x3b0.7 (1)
     |                                               |                |                                      [3]{}: instr 0x3b1-0x3b2.7 (2)
0x3b0|   41                                          | A              |                                        i32.const: 0x41 (valid) 0x3b1-0x3b1.7 (1)
0x3b0|      00                                       |  .             |                                        n: 0 0x3b2-0x3b2.7 (1)
     |                                               |                |                                      [4]{}: instr 0x3b3-0x3b5.7 (3)
0x3b0|         33                                    |   3            |                                        i64.load16_u: 0x33 (valid) 0x3b3-0x3b3.7 (1)
     |                                               |                |                                        m{}: 0x3b4-0x3b5.7 (2)
0x3b0|            00                                 |    .           |                                          a: 0 0x3b4-0x3b4.7 (1)
0x3b0|               00                              |     .          |                                          o: 0 0x3b5-0x3b5.7 (1)
     |                                               |                |                                      [5]{}: instr 0x3b6-0x3b7.7 (2)
0x3b0|                  21                           |      !         |                                        local.set: 0x21 (valid) 0x3b6-0x3b6.7 (1)
0x3b0|                     03                        |       .        |                                        x: 3 0x3b7-0x3b7.7 (1)
0x3b0|                        0b                     |        .       |                                    end: 11 (valid) 0x3b8-0x3b8.7 (1)
     |                                               |                |                                  [9]{}: instr 0x3b9-0x3ba.7 (2)
0x3b0|                           20                  |                |                                    local.get: 0x20 (valid) 0x3b9-0x3b9.7 (1)
0x3b0|                              01               |          .     |                                    x: 1 0x3ba-0x3ba.7 (1)
     |                                               |                |                                  [10]{}: instr 0x3bb-0x3bc.7 (2)
0x3b0|                                 41            |           A    |                                    i32.const: 0x41 (valid) 0x3bb-0x3bb.7 (1)
0x3b0|                                    02         |            .   |                                    n: 2 0x3bc-0x3bc.7 (1)
     |                                               |                |                                  [11]{}: instr 0x3bd-0x3bd.7 (1)
0x3b0|                                       46      |             F  |                                    i32.eq: 0x46 (valid) 0x3bd-0x3bd.7 (1)
     |                                               |                |                                  [12]{}: instr 0x3be-0x3ce.7 (17)
0x3b0|                                          04   |              . |                                    if: 0x4 (valid) 0x3be-0x3be.7 (1)
0x3b0|                                             40|               @|                                    bt: "ε" (64) 0x3bf-0x3bf.7 (1)
     |                                               |                |                                    in1[0:6]: 0x3c0-0x3cd.7 (14)
     |                                               |                |                                      [0]{}: instr 0x3c0-0x3c1.7 (2)
0x3c0|41                                             |A               |                                        i32.const: 0x41 (valid) 0x3c0-0x3c0.7 (1)
0x3c0|   00                                          | .              |                                        n: 0 0x3c1-0x3c1.7 (1)
     |                                               |                |                                      [1]{}: instr 0x3c2-0x3c3.7 (2)
0x3c0|      20                                       |                |                                        local.get: 0x20 (valid) 0x3c2-0x3c2.7 (1)
0x3c0|         02                                    |   .            |                                        x: 2 0x3c3-0x3c3.7 (1)
     |                                               |                |                                      [2]{}: instr 0x3c4-0x3c6.7 (3)
0x3c0|            3d                                 |    =           |                                        i64.store16: 0x3d (valid) 0x3c4-0x3c4.7 (1)
     |                                               |                |                                        m{}: 0x3c5-0x3c6.7 (2)
0x3c0|               01                              |     .          |                                          a: 1 0x3c5-0x3c5.7 (1)
0x3c0|                  00                           |      .         |                                          o: 0 0x3c6-0x3c6.7 (1)
     |                                               |                |                                      [3]{}: instr 0x3c7-0x3c8.7 (2)
0x3c0|                     41                        |       A        |                                        i32.const: 0x41 (valid) 0x3c7-0x3c7.7 (1)
0x3c0|                        00                     |        .       |                                        n: 0 0x3c8-0x3c8.7 (1)
     |                                               |                |                                      [4]{}: instr 0x3c9-0x3cb.7 (3)
0x3c0|                           33                  |         3      |                                        i64.load16_u: 0x33 (valid) 0x3c9-0x3c9.7 (1)
     |                                               |                |                                        m{}: 0x3ca-0x3cb.7 (2)
0x3c0|                              01               |          .     |                                          a: 1 0x3ca-0x3ca.7 (1)
0x3c0|                                 00            |           .    |                                          o: 0 0x3cb-0x3cb.7 (1)
     |                                               |                |                                      [5]{}: instr 0x3cc-0x3cd.7 (2)
0x3c0|                                    21         |            !   |                                        local.set: 0x21 (valid) 0x3cc-0x3cc.7 (1)
0x3c0|                                       03      |             .  |                                        x: 3 0x3cd-0x3cd.7 (1)
0x3c0|                                          0b   |              . |                                    end: 11 (valid) 0x3ce-0x3ce.7 (1)
     |                                               |                |                                  [13]{}: instr 0x3cf-0x3d0.7 (2)
0x3c0|                                             0c|               .|                                    br: 0xc (valid) 0x3cf-0x3cf.7 (1)
0x3d0|03                                             |.               |                                    l: 3 0x3d0-0x3d0.7 (1)
0x3d0|   0b                                          | .              |                                end: 11 (valid) 0x3d1-0x3d1.7 (1)
     |                                               |                |                              [1]{}: instr 0x3d2-0x3d3.7 (2)
0x3d0|      20                                       |                |                                local.get: 0x20 (valid) 0x3d2-0x3d2.7 (1)
0x3d0|         01                                    |   .            |                                x: 1 0x3d3-0x3d3.7 (1)
     |                                               |                |                              [2]{}: instr 0x3d4-0x3d5.7 (2)
0x3d0|            41                                 |    A           |                                i32.const: 0x41 (valid) 0x3d4-0x3d4.7 (1)
0x3d0|               00                              |     .          |                                n: 0 0x3d5-0x3d5.7 (1)
     |                                               |                |                              [3]{}: instr 0x3d6-0x3d6.7 (1)
0x3d0|                  46                           |      F         |                                i32.eq: 0x46 (valid) 0x3d6-0x3d6.7 (1)
     |                                               |                |                              [4]{}: instr 0x3d7-0x3e7.7 (17)
0x3d0|                     04                        |       .        |                                if: 0x4 (valid) 0x3d7-0x3d7.7 (1)
0x3d0|                        40                     |        @       |                                bt: "ε" (64) 0x3d8-0x3d8.7 (1)
     |                                               |                |                                in1[0:6]: 0x3d9-0x3e6.7 (14)
     |                                               |                |                                  [0]{}: instr 0x3d9-0x3da.7 (2)
0x3d0|                           41                  |         A      |                                    i32.const: 0x41 (valid) 0x3d9-0x3d9.7 (1)
0x3d0|                              00               |          .     |                                    n: 0 0x3da-0x3da.7 (1)
     |                                               |                |                                  [1]{}: instr 0x3db-0x3dc.7 (2)
0x3d0|                                 20            |                |                                    local.get: 0x20 (valid) 0x3db-0x3db.7 (1)
0x3d0|                                    02         |            .   |                                    x: 2 0x3dc-0x3dc.7 (1)
     |                                               |                |                                  [2]{}: instr 0x3dd-0x3df.7 (3)
0x3d0|                                       3e      |             >  |                                    i64.store32: 0x3e (valid) 0x3dd-0x3dd.7 (1)
     |                                               |                |                                    m{}: 0x3de-0x3df.7 (2)
0x3d0|                                          02   |              . |                                      a: 2 0x3de-0x3de.7 (1)
0x3d0|                                             00|               .|                                      o: 0 0x3df-0x3df.7 (1)
     |                                               |                |                                  [3]{}: instr 0x3e0-0x3e1.7 (2)
0x3e0|41                                             |A               |                                    i32.const: 0x41 (valid) 0x3e0-0x3e0.7 (1)
0x3e0|   00                                          | .              |                                    n: 0 0x3e1-0x3e1.7 (1)
     |                                               |                |                                  [4]{}: instr 0x3e2-0x3e4.7 (3)
0x3e0|      34                                       |  4             |                                    i64.load32_s: 0x34 (valid) 0x3e2-0x3e2.7 (1)
     |                                               |                |                                    m{}: 0x3e3-0x3e4.7 (2)
0x3e0|         02                                    |   .            |                                      a: 2 0x3e3-0x3e3.7 (1)
0x3e0|            00                                 |    .           |                                      o: 0 0x3e4-0x3e4.7 (1)
     |                                               |                |                                  [5]{}: instr 0x3e5-0x3e6.7 (2)
0x3e0|               21                              |     !          |                                    local.set: 0x21 (valid) 0x3e5-0x3e5.7 (1)
0x3e0|                  03                           |      .         |                                    x: 3 0x3e6-0x3e6.7 (1)
0x3e0|                     0b                        |       .        |                                end: 11 (valid) 0x3e7-0x3e7.7 (1)
     |                                               |                |                              [5]{}: instr 0x3e8-0x3e9.7 (2)
0x3e0|                        20                     |                |                                local.get: 0x20 (valid) 0x3e8-0x3e8.7 (1)
0x3e0|                           01                  |         .      |                                x: 1 0x3e9-0x3e9.7 (1)
     |                                               |                |                              [6]{}: instr 0x3ea-0x3eb.7 (2)
0x3e0|                              41               |          A     |                                i32.const: 0x41 (valid) 0x3ea-0x3ea.7 (1)
0x3e0|                                 01            |           .    |                                n: 1 0x3eb-0x3eb.7 (1)
     |                                               |                |                              [7]{}: instr 0x3ec-0x3ec.7 (1)
0x3e0|                                    46         |            F   |                                i32.eq: 0x46 (valid) 0x3ec-0x3ec.7 (1)
     |                                               |                |                              [8]{}: instr 0x3ed-0x3fd.7 (17)
0x3e0|                                       04      |             .  |                                if: 0x4 (valid) 0x3ed-0x3ed.7 (1)
0x3e0|                                          40   |              @ |                                bt: "ε" (64) 0x3ee-0x3ee.7 (1)
     |                                               |                |                                in1[0:6]: 0x3ef-0x3fc.7 (14)
     |                                               |                |                                  [0]{}: instr 0x3ef-0x3f0.7 (2)
0x3e0|                                             41|               A|                                    i32.const: 0x41 (valid) 0x3ef-0x3ef.7 (1)
0x3f0|00                                             |.               |                                    n: 0 0x3f0-0x3f0.7 (1)
     |                                               |                |                                  [1]{}: instr 0x3f1-0x3f2.7 (2)
0x3f0|   20                                          |                |                                    local.get: 0x20 (valid) 0x3f1-0x3f1.7 (1)
0x3f0|      02                                       |  .             |                                    x: 2 0x3f2-0x3f2.7 (1)
     |                                               |                |                                  [2]{}: instr 0x3f3-0x3f5.7 (3)
0x3f0|         3e                                    |   >            |                                    i64.store32: 0x3e (valid) 0x3f3-0x3f3.7 (1)
     |                                               |                |                                    m{}: 0x3f4-0x3f5.7 (2)
0x3f0|            00                                 |    .           |                                      a: 0 0x3f4-0x3f4.7 (1)
0x3f0|               00                              |     .          |                                      o: 0 0x3f5-0x3f5.7 (1)
     |                                               |                |                                  [3]{}: instr 0x3f6-0x3f7.7 (2)
0x3f0|                  41                           |      A         |                                    i32.const: 0x41 (valid) 0x3f6-0x3f6.7 (1)
0x3f0|                     00                        |       .        |                                    n: 0 0x3f7-0x3f7.7 (1)
     |                                               |                |                                  [4]{}: instr 0x3f8-0x3fa.7 (3)
0x3f0|                        34                     |        4       |                                    i64.load32_s: 0x34 (valid) 0x3f8-0x3f8.7 (1)
     |                                               |                |                                    m{}: 0x3f9-0x3fa.7 (2)
0x3f0|                           00                  |         .      |                                      a: 0 0x3f9-0x3f9.7 (1)
0x3f0|                              00               |          .     |                                      o: 0 0x3fa-0x3fa.7 (1)
     |                                               |                |                                  [5]{}: instr 0x3fb-0x3fc.7 (2)
0x3f0|                                 21            |           !    |                                    local.set: 0x21 (valid) 0x3fb-0x3fb.7 (1)
0x3f0|                                    03         |            .   |                                    x: 3 0x3fc-0x3fc.7 (1)
0x3f0|                                       0b      |             .  |                                end: 11 (valid) 0x3fd-0x3fd.7 (1)
     |                                               |                |                              [9]{}: instr 0x3fe-0x3ff.7 (2)
0x3f0|                                          20   |                |                                local.get: 0x20 (valid) 0x3fe-0x3fe.7 (1)
0x3f0|                                             01|               .|                                x: 1 0x3ff-0x3ff.7 (1)
     |                                               |                |                              [10]{}: instr 0x400-0x401.7 (2)
0x400|41                                             |A               |                                i32.const: 0x41 (valid) 0x400-0x400.7 (1)
0x400|   02                                          | .              |                                n: 2 0x401-0x401.7 (1)
     |                                               |                |                              [11]{}: instr 0x402-0x402.7 (1)
0x400|      46                                       |  F             |                                i32.eq: 0x46 (valid) 0x402-0x402.7 (1)
     |                                               |                |                              [12]{}: instr 0x403-0x413.7 (17)
0x400|         04                                    |   .            |                                if: 0x4 (valid) 0x403-0x403.7 (1)
0x400|            40                                 |    @           |                                bt: "ε" (64) 0x404-0x404.7 (1)
     |                                               |                |                                in1[0:6]: 0x405-0x412.7 (14)
     |                                               |                |                                  [0]{}: instr 0x405-0x406.7 (2)
0x400|               41                              |     A          |                                    i32.const: 0x41 (valid) 0x405-0x405.7 (1)
0x400|                  00                           |      .         |                                    n: 0 0x406-0x406.7 (1)
     |                                               |                |                                  [1]{}: instr 0x407-0x408.7 (2)
0x400|                     20                        |                |                                    local.get: 0x20 (valid) 0x407-0x407.7 (1)
0x400|                        02                     |        .       |                                    x: 2 0x408-0x408.7 (1)
     |                                               |                |                                  [2]{}: instr 0x409-0x40b.7 (3)
0x400|                           3e                  |         >      |                                    i64.store32: 0x3e (valid) 0x409-0x409.7 (1)
     |                                               |                |                                    m{}: 0x40a-0x40b.7 (2)
0x400|                              01               |          .     |                                      a: 1 0x40a-0x40a.7 (1)
0x400|                                 00            |           .    |                                      o: 0 0x40b-0x40b.7 (1)
     |                                               |                |                                  [3]{}: instr 0x40c-0x40d.7 (2)
0x400|                                    41         |            A   |                                    i32.const: 0x41 (valid) 0x40c-0x40c.7 (1)
0x400|                                       00      |             .  |                                    n: 0 0x40d-0x40d.7 (1)
     |                                               |                |                                  [4]{}: instr 0x40e-0x410.7 (3)
0x400|                                          34   |              4 |                                    i64.load32_s: 0x34 (valid) 0x40e-0x40e.7 (1)
     |                                               |                |                                    m{}: 0x40f-0x410.7 (2)
0x400|                                             01|               .|                                      a: 1 0x40f-0x40f.7 (1)
0x410|00                                             |.               |                                      o: 0 0x410-0x410.7 (1)
     |                                               |                |                                  [5]{}: instr 0x411-0x412.7 (2)
0x410|   21                                          | !              |                                    local.set: 0x21 (valid) 0x411-0x411.7 (1)
0x410|      03                                       |  .             |                                    x: 3 0x412-0x412.7 (1)
0x410|         0b                                    |   .            |                                end: 11 (valid) 0x413-0x413.7 (1)
     |                                               |                |                              [13]{}: instr 0x414-0x415.7 (2)
0x410|            20                                 |                |                                local.get: 0x20 (valid) 0x414-0x414.7 (1)
0x410|               01                              |     .          |                                x: 1 0x415-0x415.7 (1)
     |                                               |                |                              [14]{}: instr 0x416-0x417.7 (2)
0x410|                  41                           |      A         |                                i32.const: 0x41 (valid) 0x416-0x416.7 (1)
0x410|                     04                        |       .        |                                n: 4 0x417-0x417.7 (1)
     |                                               |                |                              [15]{}: instr 0x418-0x418.7 (1)
0x410|                        46                     |        F       |                                i32.eq: 0x46 (valid) 0x418-0x418.7 (1)
     |                                               |                |                              [16]{}: instr 0x419-0x429.7 (17)
0x410|                           04                  |         .      |                                if: 0x4 (valid) 0x419-0x419.7 (1)
0x410|                              40               |          @     |                                bt: "ε" (64) 0x41a-0x41a.7 (1)
     |                                               |                |                                in1[0:6]: 0x41b-0x428.7 (14)
     |                                               |                |                                  [0]{}: instr 0x41b-0x41c.7 (2)
0x410|                                 41            |           A    |                                    i32.const: 0x41 (valid) 0x41b-0x41b.7 (1)
0x410|                                    00         |            .   |                                    n: 0 0x41c-0x41c.7 (1)
     |                                               |                |                                  [1]{}: instr 0x41d-0x41e.7 (2)
0x410|                                       20      |                |                                    local.get: 0x20 (valid) 0x41d-0x41d.7 (1)
0x410|                                          02   |              . |                                    x: 2 0x41e-0x41e.7 (1)
     |                                               |                |                                  [2]{}: instr 0x41f-0x421.7 (3)
0x410|                                             3e|               >|                                    i64.store32: 0x3e (valid) 0x41f-0x41f.7 (1)
     |                                               |                |                                    m{}: 0x420-0x421.7 (2)
0x420|02                                             |.               |                                      a: 2 0x420-0x420.7 (1)
0x420|   00                                          | .              |                                      o: 0 0x421-0x421.7 (1)
     |                                               |                |                                  [3]{}: instr 0x422-0x423.7 (2)
0x420|      41                                       |  A             |                                    i32.const: 0x41 (valid) 0x422-0x422.7 (1)
0x420|         00                                    |   .            |                                    n: 0 0x423-0x423.7 (1)
     |                                               |                |                                  [4]{}: instr 0x424-0x426.7 (3)
0x420|            34                                 |    4           |                                    i64.load32_s: 0x34 (valid) 0x424-0x424.7 (1)
     |                                               |                |                                    m{}: 0x425-0x426.7 (2)
0x420|               02                              |     .          |                                      a: 2 0x425-0x425.7 (1)
0x420|                  00                           |      .         |                                      o: 0 0x426-0x426.7 (1)
     |                                               |                |                                  [5]{}: instr 0x427-0x428.7 (2)
0x420|                     21                        |       !        |                                    local.set: 0x21 (valid) 0x427-0x427.7 (1)
0x420|                        03                     |        .       |                                    x: 3 0x428-0x428.7 (1)
0x420|                           0b                  |         .      |                                end: 11 (valid) 0x429-0x429.7 (1)
     |                                               |                |                              [17]{}: instr 0x42a-0x42b.7 (2)
0x420|                              0c               |          .     |                                br: 0xc (valid) 0x42a-0x42a.7 (1)
0x420|                                 02            |           .    |                                l: 2 0x42b-0x42b.7 (1)
0x420|                                    0b         |            .   |                            end: 11 (valid) 0x42c-0x42c.7 (1)
     |                                               |                |                          [1]{}: instr 0x42d-0x42e.7 (2)
0x420|                                       20      |                |                            local.get: 0x20 (valid) 0x42d-0x42d.7 (1)
0x420|                                          01   |              . |                            x: 1 0x42e-0x42e.7 (1)
     |                                               |                |                          [2]{}: instr 0x42f-0x430.7 (2)
0x420|                                             41|               A|                            i32.const: 0x41 (valid) 0x42f-0x42f.7 (1)
0x430|00                                             |.               |                            n: 0 0x430-0x430.7 (1)
     |                                               |                |                          [3]{}: instr 0x431-0x431.7 (1)
0x430|   46                                          | F              |                            i32.eq: 0x46 (valid) 0x431-0x431.7 (1)
     |                                               |                |                          [4]{}: instr 0x432-0x442.7 (17)
0x430|      04                                       |  .             |                            if: 0x4 (valid) 0x432-0x432.7 (1)
0x430|         40                                    |   @            |                            bt: "ε" (64) 0x433-0x433.7 (1)
     |                                               |                |                            in1[0:6]: 0x434-0x441.7 (14)
     |                                               |                |                              [0]{}: instr 0x434-0x435.7 (2)
0x430|            41                                 |    A           |                                i32.const: 0x41 (valid) 0x434-0x434.7 (1)
0x430|               00                              |     .          |                                n: 0 0x435-0x435.7 (1)
     |                                               |                |                              [1]{}: instr 0x436-0x437.7 (2)
0x430|                  20                           |                |                                local.get: 0x20 (valid) 0x436-0x436.7 (1)
0x430|                     02                        |       .        |                                x: 2 0x437-0x437.7 (1)
     |                                               |                |                              [2]{}: instr 0x438-0x43a.7 (3)
0x430|                        3e                     |        >       |                                i64.store32: 0x3e (valid) 0x438-0x438.7 (1)
     |                                               |                |                                m{}: 0x439-0x43a.7 (2)
0x430|                           02                  |         .      |                                  a: 2 0x439-0x439.7 (1)
0x430|                              00               |          .     |                                  o: 0 0x43a-0x43a.7 (1)
     |                                               |                |                              [3]{}: instr 0x43b-0x43c.7 (2)
0x430|                                 41            |           A    |                                i32.const: 0x41 (valid) 0x43b-0x43b.7 (1)
0x430|                                    00         |            .   |                                n: 0 0x43c-0x43c.7 (1)
     |                                               |                |                              [4]{}: instr 0x43d-0x43f.7 (3)
0x430|                                       35      |             5  |                                i64.load32_u: 0x35 (valid) 0x43d-0x43d.7 (1)
     |                                               |                |                                m{}: 0x43e-0x43f.7 (2)
0x430|                                          02   |              . |                                  a: 2 0x43e-0x43e.7 (1)
0x430|                                             00|               .|                                  o: 0 0x43f-0x43f.7 (1)
     |                                               |                |                              [5]{}: instr 0x440-0x441.7 (2)
0x440|21                                             |!               |                                local.set: 0x21 (valid) 0x440-0x440.7 (1)
0x440|   03                                          | .              |                                x: 3 0x441-0x441.7 (1)
0x440|      0b                                       |  .             |                            end: 11 (valid) 0x442-0x442.7 (1)
     |                                               |                |                          [5]{}: instr 0x443-0x444.7 (2)
0x440|         20                                    |                |                            local.get: 0x20 (valid) 0x443-0x443.7 (1)
0x440|            01                                 |    .           |                            x: 1 0x444-0x444.7 (1)
     |                                               |                |                          [6]{}: instr 0x445-0x446.7 (2)
0x440|               41                              |     A          |                            i32.const: 0x41 (valid) 0x445-0x445.7 (1)
0x440|                  01                           |      .         |                            n: 1 0x446-0x446.7 (1)
     |                                               |                |                          [7]{}: instr 0x447-0x447.7 (1)
0x440|                     46                        |       F        |                            i32.eq: 0x46 (valid) 0x447-0x447.7 (1)
     |                                               |                |                          [8]{}: instr 0x448-0x458.7 (17)
0x440|                        04                     |        .       |                            if: 0x4 (valid) 0x448-0x448.7 (1)
0x440|                           40                  |         @      |                            bt: "ε" (64) 0x449-0x449.7 (1)
     |                                               |                |                            in1[0:6]: 0x44a-0x457.7 (14)
     |                                               |                |                              [0]{}: instr 0x44a-0x44b.7 (2)
0x440|                              41               |          A     |                                i32.const: 0x41 (valid) 0x44a-0x44a.7 (1)
0x440|                                 00            |           .    |                                n: 0 0x44b-0x44b.7 (1)
     |                                               |                |                              [1]{}: instr 0x44c-0x44d.7 (2)
0x440|                                    20         |                |                                local.get: 0x20 (valid) 0x44c-0x44c.7 (1)
0x440|                                       02      |             .  |                                x: 2 0x44d-0x44d.7 (1)
     |                                               |                |                              [2]{}: instr 0x44e-0x450.7 (3)
0x440|                                          3e   |              > |                                i64.store32: 0x3e (valid) 0x44e-0x44e.7 (1)
     |                                               |                |                                m{}: 0x44f-0x450.7 (2)
0x440|                                             00|               .|                                  a: 0 0x44f-0x44f.7 (1)
0x450|00                                             |.               |                                  o: 0 0x450-0x450.7 (1)
     |                                               |                |                              [3]{}: instr 0x451-0x452.7 (2)
0x450|   41                                          | A              |                                i32.const: 0x41 (valid) 0x451-0x451.7 (1)
0x450|      00                                       |  .             |                                n: 0 0x452-0x452.7 (1)
     |                                               |                |                              [4]{}: instr 0x453-0x455.7 (3)
0x450|         35                                    |   5            |                                i64.load32_u: 0x35 (valid) 0x453-0x453.7 (1)
     |                                               |                |                                m{}: 0x454-0x455.7 (2)
0x450|            00                                 |    .           |                                  a: 0 0x454-0x454.7 (1)
0x450|               00                              |     .          |                                  o: 0 0x455-0x455.7 (1)
     |                                               |                |                              [5]{}: instr 0x456-0x457.7 (2)
0x450|                  21                           |      !         |                                local.set: 0x21 (valid) 0x456-0x456.7 (1)
0x450|                     03                        |       .        |                                x: 3 0x457-0x457.7 (1)
0x450|                        0b                     |        .       |                            end: 11 (valid) 0x458-0x458.7 (1)
     |                                               |                |                          [9]{}: instr 0x459-0x45a.7 (2)
0x450|                           20                  |                |                            local.get: 0x20 (valid) 0x459-0x459.7 (1)
0x450|                              01               |          .     |                            x: 1 0x45a-0x45a.7 (1)
     |                                               |                |                          [10]{}: instr 0x45b-0x45c.7 (2)
0x450|                                 41            |           A    |                            i32.const: 0x41 (valid) 0x45b-0x45b.7 (1)
0x450|                                    02         |            .   |                            n: 2 0x45c-0x45c.7 (1)
     |                                               |                |                          [11]{}: instr 0x45d-0x45d.7 (1)
0x450|                                       46      |             F  |                            i32.eq: 0x46 (valid) 0x45d-0x45d.7 (1)
     |                                               |                |                          [12]{}: instr 0x45e-0x46e.7 (17)
0x450|                                          04   |              . |                            if: 0x4 (valid) 0x45e-0x45e.7 (1)
0x450|                                             40|               @|                            bt: "ε" (64) 0x45f-0x45f.7 (1)
     |                                               |                |                            in1[0:6]: 0x460-0x46d.7 (14)
     |                                               |                |                              [0]{}: instr 0x460-0x461.7 (2)
0x460|41                                             |A               |                                i32.const: 0x41 (valid) 0x460-0x460.7 (1)
0x460|   00                                          | .              |                                n: 0 0x461-0x461.7 (1)
     |                                               |                |                              [1]{}: instr 0x462-0x463.7 (2)
0x460|      20                                       |                |                                local.get: 0x20 (valid) 0x462-0x462.7 (1)
0x460|         02                                    |   .            |                                x: 2 0x463-0x463.7 (1)
     |                                               |                |                              [2]{}: instr 0x464-0x466.7 (3)
0x460|            3e                                 |    >           |                                i64.store32: 0x3e (valid) 0x464-0x464.7 (1)
     |                                               |                |                                m{}: 0x465-0x466.7 (2)
0x460|               01                              |     .          |                                  a: 1 0x465-0x465.7 (1)
0x460|                  00                           |      .         |                                  o: 0 0x466-0x466.7 (1)
     |                                               |                |                              [3]{}: instr 0x467-0x468.7 (2)
0x460|                     41                        |       A        |                                i32.const: 0x41 (valid) 0x467-0x467.7 (1)
0x460|                        00                     |        .       |                                n: 0 0x468-0x468.7 (1)
     |                                               |                |                              [4]{}: instr 0x469-0x46b.7 (3)
0x460|                           35                  |         5      |                                i64.load32_u: 0x35 (valid) 0x469-0x469.7 (1)
     |                                               |                |                                m{}: 0x46a-0x46b.7 (2)
0x460|                              01               |          .     |                                  a: 1 0x46a-0x46a.7 (1)
0x460|                                 00            |           .    |                                  o: 0 0x46b-0x46b.7 (1)
     |                                               |                |                              [5]{}: instr 0x46c-0x46d.7 (2)
0x460|                                    21         |            !   |                                local.set: 0x21 (valid) 0x46c-0x46c.7 (1)
0x460|                                       03      |             .  |                                x: 3 0x46d-0x46d.7 (1)
0x460|                                          0b   |              . |                            end: 11 (valid) 0x46e-0x46e.7 (1)
     |                                               |                |                          [13]{}: instr 0x46f-0x470.7 (2)
0x460|                                             20|                |                            local.get: 0x20 (valid) 0x46f-0x46f.7 (1)
0x470|01                                             |.               |                            x: 1 0x470-0x470.7 (1)
     |                                               |                |                          [14]{}: instr 0x471-0x472.7 (2)
0x470|   41                                          | A              |                            i32.const: 0x41 (valid) 0x471-0x471.7 (1)
0x470|      04                                       |  .             |                            n: 4 0x472-0x472.7 (1)
     |                                               |                |                          [15]{}: instr 0x473-0x473.7 (1)
0x470|         46                                    |   F            |                            i32.eq: 0x46 (valid) 0x473-0x473.7 (1)
     |                                               |                |                          [16]{}: instr 0x474-0x484.7 (17)
0x470|            04                                 |    .           |                            if: 0x4 (valid) 0x474-0x474.7 (1)
0x470|               40                              |     @          |                            bt: "ε" (64) 0x475-0x475.7 (1)
     |                                               |                |                            in1[0:6]: 0x476-0x483.7 (14)
     |                                               |                |                              [0]{}: instr 0x476-0x477.7 (2)
0x470|                  41                           |      A         |                                i32.const: 0x41 (valid) 0x476-0x476.7 (1)
0x470|                     00                        |       .        |                                n: 0 0x477-0x477.7 (1)
     |                                               |                |                              [1]{}: instr 0x478-0x479.7 (2)
0x470|                        20                     |                |                                local.get: 0x20 (valid) 0x478-0x478.7 (1)
0x470|                           02                  |         .      |                                x: 2 0x479-0x479.7 (1)
     |                                               |                |                              [2]{}: instr 0x47a-0x47c.7 (3)
0x470|                              3e               |          >     |                                i64.store32: 0x3e (valid) 0x47a-0x47a.7 (1)
     |                                               |                |                                m{}: 0x47b-0x47c.7 (2)
0x470|                                 02            |           .    |                                  a: 2 0x47b-0x47b.7 (1)
0x470|                                    00         |            .   |                                  o: 0 0x47c-0x47c.7 (1)
     |                                               |                |                              [3]{}: instr 0x47d-0x47e.7 (2)
0x470|                                       41      |             A  |                                i32.const: 0x41 (valid) 0x47d-0x47d.7 (1)
0x470|                                          00   |              . |                                n: 0 0x47e-0x47e.7 (1)
     |                                               |                |                              [4]{}: instr 0x47f-0x481.7 (3)
0x470|                                             35|               5|                                i64.load32_u: 0x35 (valid) 0x47f-0x47f.7 (1)
     |                                               |                |                                m{}: 0x480-0x481.7 (2)
0x480|02                                             |.               |                                  a: 2 0x480-0x480.7 (1)
0x480|   00                                          | .              |                                  o: 0 0x481-0x481.7 (1)
     |                                               |                |                              [5]{}: instr 0x482-0x483.7 (2)
0x480|      21                                       |  !             |                                local.set: 0x21 (valid) 0x482-0x482.7 (1)
0x480|         03                                    |   .            |                                x: 3 0x483-0x483.7 (1)
0x480|            0b                                 |    .           |                            end: 11 (valid) 0x484-0x484.7 (1)
     |                                               |                |                          [17]{}: instr 0x485-0x486.7 (2)
0x480|               0c                              |     .          |                            br: 0xc (valid) 0x485-0x485.7 (1)
0x480|                  01                           |      .         |                            l: 1 0x486-0x486.7 (1)
0x480|                     0b                        |       .        |                        end: 11 (valid) 0x487-0x487.7 (1)
     |                                               |                |                      [1]{}: instr 0x488-0x489.7 (2)
0x480|                        20                     |                |                        local.get: 0x20 (valid) 0x488-0x488.7 (1)
0x480|                           01                  |         .      |                        x: 1 0x489-0x489.7 (1)
     |                                               |                |                      [2]{}: instr 0x48a-0x48b.7 (2)
0x480|                              41               |          A     |                        i32.const: 0x41 (valid) 0x48a-0x48a.7 (1)
0x480|                                 00            |           .    |                        n: 0 0x48b-0x48b.7 (1)
     |                                               |                |                      [3]{}: instr 0x48c-0x48c.7 (1)
0x480|                                    46         |            F   |                        i32.eq: 0x46 (valid) 0x48c-0x48c.7 (1)
     |                                               |                |                      [4]{}: instr 0x48d-0x49d.7 (17)
0x480|                                       04      |             .  |                        if: 0x4 (valid) 0x48d-0x48d.7 (1)
0x480|                                          40   |              @ |                        bt: "ε" (64) 0x48e-0x48e.7 (1)
     |                                               |                |                        in1[0:6]: 0x48f-0x49c.7 (14)
     |                                               |                |                          [0]{}: instr 0x48f-0x490.7 (2)
0x480|                                             41|               A|                            i32.const: 0x41 (valid) 0x48f-0x48f.7 (1)
0x490|00                                             |.               |                            n: 0 0x490-0x490.7 (1)
     |                                               |                |                          [1]{}: instr 0x491-0x492.7 (2)
0x490|   20                                          |                |                            local.get: 0x20 (valid) 0x491-0x491.7 (1)
0x490|      02                                       |  .             |                            x: 2 0x492-0x492.7 (1)
     |                                               |                |                          [2]{}: instr 0x493-0x495.7 (3)
0x490|         37                                    |   7            |                            i64.store: 0x37 (valid) 0x493-0x493.7 (1)
     |                                               |                |                            m{}: 0x494-0x495.7 (2)
0x490|            03                                 |    .           |                              a: 3 0x494-0x494.7 (1)
0x490|               00                              |     .          |                              o: 0 0x495-0x495.7 (1)
     |                                               |                |                          [3]{}: instr 0x496-0x497.7 (2)
0x490|                  41                           |      A         |                            i32.const: 0x41 (valid) 0x496-0x496.7 (1)
0x490|                     00                        |       .        |                            n: 0 0x497-0x497.7 (1)
     |                                               |                |                          [4]{}: instr 0x498-0x49a.7 (3)
0x490|                        29                     |        )       |                            i64.load: 0x29 (valid) 0x498-0x498.7 (1)
     |                                               |                |                            m{}: 0x499-0x49a.7 (2)
0x490|                           03                  |         .      |                              a: 3 0x499-0x499.7 (1)
0x490|                              00               |          .     |                              o: 0 0x49a-0x49a.7 (1)
     |                                               |                |                          [5]{}: instr 0x49b-0x49c.7 (2)
0x490|                                 21            |           !    |                            local.set: 0x21 (valid) 0x49b-0x49b.7 (1)
0x490|                                    03         |            .   |                            x: 3 0x49c-0x49c.7 (1)
0x490|                                       0b      |             .  |                        end: 11 (valid) 0x49d-0x49d.7 (1)
     |                                               |                |                      [5]{}: instr 0x49e-0x49f.7 (2)
0x490|                                          20   |                |                        local.get: 0x20 (valid) 0x49e-0x49e.7 (1)
0x490|                                             01|               .|                        x: 1 0x49f-0x49f.7 (1)
     |                                               |                |                      [6]{}: instr 0x4a0-0x4a1.7 (2)
0x4a0|41                                             |A               |                        i32.const: 0x41 (valid) 0x4a0-0x4a0.7 (1)
0x4a0|   01                                          | .              |                        n: 1 0x4a1-0x4a1.7 (1)
     |                                               |                |                      [7]{}: instr 0x4a2-0x4a2.7 (1)
0x4a0|      46                                       |  F             |                        i32.eq: 0x46 (valid) 0x4a2-0x4a2.7 (1)
     |                                               |                |                      [8]{}: instr 0x4a3-0x4b3.7 (17)
0x4a0|         04                                    |   .            |                        if: 0x4 (valid) 0x4a3-0x4a3.7 (1)
0x4a0|            40                                 |    @           |                        bt: "ε" (64) 0x4a4-0x4a4.7 (1)
     |                                               |                |                        in1[0:6]: 0x4a5-0x4b2.7 (14)
     |                                               |                |                          [0]{}: instr 0x4a5-0x4a6.7 (2)
0x4a0|               41                              |     A          |                            i32.const: 0x41 (valid) 0x4a5-0x4a5.7 (1)
0x4a0|                  00                           |      .         |                            n: 0 0x4a6-0x4a6.7 (1)
     |                                               |                |                          [1]{}: instr 0x4a7-0x4a8.7 (2)
0x4a0|                     20                        |                |                            local.get: 0x20 (valid) 0x4a7-0x4a7.7 (1)
0x4a0|                        02                     |        .       |                            x: 2 0x4a8-0x4a8.7 (1)
     |                                               |                |                          [2]{}: instr 0x4a9-0x4ab.7 (3)
0x4a0|                           37                  |         7      |                            i64.store: 0x37 (valid) 0x4a9-0x4a9.7 (1)
     |                                               |                |                            m{}: 0x4aa-0x4ab.7 (2)
0x4a0|                              00               |          .     |                              a: 0 0x4aa-0x4aa.7 (1)
0x4a0|                                 00            |           .    |                              o: 0 0x4ab-0x4ab.7 (1)
     |                                               |                |                          [3]{}: instr 0x4ac-0x4ad.7 (2)
0x4a0|                                    41         |            A   |                            i32.const: 0x41 (valid) 0x4ac-0x4ac.7 (1)
0x4a0|                                       00      |             .  |                            n: 0 0x4ad-0x4ad.7 (1)
     |                                               |                |                          [4]{}: instr 0x4ae-0x4b0.7 (3)
0x4a0|                                          29   |              ) |                            i64.load: 0x29 (valid) 0x4ae-0x4ae.7 (1)
     |                                               |                |                            m{}: 0x4af-0x4b0.7 (2)
0x4a0|                                             00|               .|                              a: 0 0x4af-0x4af.7 (1)
0x4b0|00                                             |.               |                              o: 0 0x4b0-0x4b0.7 (1)
     |                                               |                |                          [5]{}: instr 0x4b1-0x4b2.7 (2)
0x4b0|   21                                          | !              |                            local.set: 0x21 (valid) 0x4b1-0x4b1.7 (1)
0x4b0|      03                                       |  .             |                            x: 3 0x4b2-0x4b2.7 (1)
0x4b0|         0b                                    |   .            |                        end: 11 (valid) 0x4b3-0x4b3.7 (1)
     |                                               |                |                      [9]{}: instr 0x4b4-0x4b5.7 (2)
0x4b0|            20                                 |                |                        local.get: 0x20 (valid) 0x4b4-0x4b4.7 (1)
0x4b0|               01                              |     .          |                        x: 1 0x4b5-0x4b5.7 (1)
     |                                               |                |                      [10]{}: instr 0x4b6-0x4b7.7 (2)
0x4b0|                  41                           |      A         |                        i32.const: 0x41 (valid) 0x4b6-0x4b6.7 (1)
0x4b0|                     02                        |       .        |                        n: 2 0x4b7-0x4b7.7 (1)
     |                                               |                |                      [11]{}: instr 0x4b8-0x4b8.7 (1)
0x4b0|                        46                     |        F       |                        i32.eq: 0x46 (valid) 0x4b8-0x4b8.7 (1)
     |                                               |                |                      [12]{}: instr 0x4b9-0x4c9.7 (17)
0x4b0|                           04                  |         .      |                        if: 0x4 (valid) 0x4b9-0x4b9.7 (1)
0x4b0|                              40               |          @     |                        bt: "ε" (64) 0x4ba-0x4ba.7 (1)
     |                                               |                |                        in1[0:6]: 0x4bb-0x4c8.7 (14)
     |                                               |                |                          [0]{}: instr 0x4bb-0x4bc.7 (2)
0x4b0|                                 41            |           A    |                            i32.const: 0x41 (valid) 0x4bb-0x4bb.7 (1)
0x4b0|                                    00         |            .   |                            n: 0 0x4bc-0x4bc.7 (1)
     |                                               |                |                          [1]{}: instr 0x4bd-0x4be.7 (2)
0x4b0|                                       20      |                |                            local.get: 0x20 (valid) 0x4bd-0x4bd.7 (1)
0x4b0|                                          02   |              . |                            x: 2 0x4be-0x4be.7 (1)
     |                                               |                |                          [2]{}: instr 0x4bf-0x4c1.7 (3)
0x4b0|                                             37|               7|                            i64.store: 0x37 (valid) 0x4bf-0x4bf.7 (1)
     |                                               |                |                            m{}: 0x4c0-0x4c1.7 (2)
0x4c0|01                                             |.               |                              a: 1 0x4c0-0x4c0.7 (1)
0x4c0|   00                                          | .              |                              o: 0 0x4c1-0x4c1.7 (1)
     |                                               |                |                          [3]{}: instr 0x4c2-0x4c3.7 (2)
0x4c0|      41                                       |  A             |                            i32.const: 0x41 (valid) 0x4c2-0x4c2.7 (1)
0x4c0|         00                                    |   .            |                            n: 0 0x4c3-0x4c3.7 (1)
     |                                               |                |                          [4]{}: instr 0x4c4-0x4c6.7 (3)
0x4c0|            29                                 |    )           |                            i64.load: 0x29 (valid) 0x4c4-0x4c4.7 (1)
     |                                               |                |                            m{}: 0x4c5-0x4c6.7 (2)
0x4c0|               01                              |     .          |                              a: 1 0x4c5-0x4c5.7 (1)
0x4c0|                  00                           |      .         |                              o: 0 0x4c6-0x4c6.7 (1)
     |                                               |                |                          [5]{}: instr 0x4c7-0x4c8.7 (2)
0x4c0|                     21                        |       !        |                            local.set: 0x21 (valid) 0x4c7-0x4c7.7 (1)
0x4c0|                        03                     |        .       |                            x: 3 0x4c8-0x4c8.7 (1)
0x4c0|                           0b                  |         .      |                        end: 11 (valid) 0x4c9-0x4c9.7 (1)
     |                                               |                |                      [13]{}: instr 0x4ca-0x4cb.7 (2)
0x4c0|                              20               |                |                        local.get: 0x20 (valid) 0x4ca-0x4ca.7 (1)
0x4c0|                                 01            |           .    |                        x: 1 0x4cb-0x4cb.7 (1)
     |                                               |                |                      [14]{}: instr 0x4cc-0x4cd.7 (2)
0x4c0|                                    41         |            A   |                        i32.const: 0x41 (valid) 0x4cc-0x4cc.7 (1)
0x4c0|                                       04      |             .  |                        n: 4 0x4cd-0x4cd.7 (1)
     |                                               |                |                      [15]{}: instr 0x4ce-0x4ce.7 (1)
0x4c0|                                          46   |              F |                        i32.eq: 0x46 (valid) 0x4ce-0x4ce.7 (1)
     |                                               |                |                      [16]{}: instr 0x4cf-0x4df.7 (17)
0x4c0|                                             04|               .|                        if: 0x4 (valid) 0x4cf-0x4cf.7 (1)
0x4d0|40                                             |@               |                        bt: "ε" (64) 0x4d0-0x4d0.7 (1)
     |                                               |                |                        in1[0:6]: 0x4d1-0x4de.7 (14)
     |                                               |                |                          [0]{}: instr 0x4d1-0x4d2.7 (2)
0x4d0|   41                                          | A              |                            i32.const: 0x41 (valid) 0x4d1-0x4d1.7 (1)
0x4d0|      00                                       |  .             |                            n: 0 0x4d2-0x4d2.7 (1)
     |                                               |                |                          [1]{}: instr 0x4d3-0x4d4.7 (2)
0x4d0|         20                                    |                |                            local.get: 0x20 (valid) 0x4d3-0x4d3.7 (1)
0x4d0|            02                                 |    .           |                            x: 2 0x4d4-0x4d4.7 (1)
     |                                               |                |                          [2]{}: instr 0x4d5-0x4d7.7 (3)
0x4d0|               37                              |     7          |                            i64.store: 0x37 (valid) 0x4d5-0x4d5.7 (1)
     |                                               |                |                            m{}: 0x4d6-0x4d7.7 (2)
0x4d0|                  02                           |      .         |                              a: 2 0x4d6-0x4d6.7 (1)
0x4d0|                     00                        |       .        |                              o: 0 0x4d7-0x4d7.7 (1)
     |                                               |                |                          [3]{}: instr 0x4d8-0x4d9.7 (2)
0x4d0|                        41                     |        A       |                            i32.const: 0x41 (valid) 0x4d8-0x4d8.7 (1)
0x4d0|                           00                  |         .      |                            n: 0 0x4d9-0x4d9.7 (1)
     |                                               |                |                          [4]{}: instr 0x4da-0x4dc.7 (3)
0x4d0|                              29               |          )     |                            i64.load: 0x29 (valid) 0x4da-0x4da.7 (1)
     |                                               |                |                            m{}: 0x4db-0x4dc.7 (2)
0x4d0|                                 02            |           .    |                              a: 2 0x4db-0x4db.7 (1)
0x4d0|                                    00         |            .   |                              o: 0 0x4dc-0x4dc.7 (1)
     |                                               |                |                          [5]{}: instr 0x4dd-0x4de.7 (2)
0x4d0|                                       21      |             !  |                            local.set: 0x21 (valid) 0x4dd-0x4dd.7 (1)
0x4d0|                                          03   |              . |                            x: 3 0x4de-0x4de.7 (1)
0x4d0|                                             0b|               .|                        end: 11 (valid) 0x4df-0x4df.7 (1)
     |                                               |                |                      [17]{}: instr 0x4e0-0x4e1.7 (2)
0x4e0|20                                             |                |                        local.get: 0x20 (valid) 0x4e0-0x4e0.7 (1)
0x4e0|   01                                          | .              |                        x: 1 0x4e1-0x4e1.7 (1)
     |                                               |                |                      [18]{}: instr 0x4e2-0x4e3.7 (2)
0x4e0|      41                                       |  A             |                        i32.const: 0x41 (valid) 0x4e2-0x4e2.7 (1)
0x4e0|         08                                    |   .            |                        n: 8 0x4e3-0x4e3.7 (1)
     |                                               |                |                      [19]{}: instr 0x4e4-0x4e4.7 (1)
0x4e0|            46                                 |    F           |                        i32.eq: 0x46 (valid) 0x4e4-0x4e4.7 (1)
     |                                               |                |                      [20]{}: instr 0x4e5-0x4f5.7 (17)
0x4e0|               04                              |     .          |                        if: 0x4 (valid) 0x4e5-0x4e5.7 (1)
0x4e0|                  40                           |      @         |                        bt: "ε" (64) 0x4e6-0x4e6.7 (1)
     |                                               |                |                        in1[0:6]: 0x4e7-0x4f4.7 (14)
     |                                               |                |                          [0]{}: instr 0x4e7-0x4e8.7 (2)
0x4e0|                     41                        |       A        |                            i32.const: 0x41 (valid) 0x4e7-0x4e7.7 (1)
0x4e0|                        00                     |        .       |                            n: 0 0x4e8-0x4e8.7 (1)
     |                                               |                |                          [1]{}: instr 0x4e9-0x4ea.7 (2)
0x4e0|                           20                  |                |                            local.get: 0x20 (valid) 0x4e9-0x4e9.7 (1)
0x4e0|                              02               |          .     |                            x: 2 0x4ea-0x4ea.7 (1)
     |                                               |                |                          [2]{}: instr 0x4eb-0x4ed.7 (3)
0x4e0|                                 37            |           7    |                            i64.store: 0x37 (valid) 0x4eb-0x4eb.7 (1)
     |                                               |                |                            m{}: 0x4ec-0x4ed.7 (2)
0x4e0|                                    03         |            .   |                              a: 3 0x4ec-0x4ec.7 (1)
0x4e0|                                       00      |             .  |                              o: 0 0x4ed-0x4ed.7 (1)
     |                                               |                |                          [3]{}: instr 0x4ee-0x4ef.7 (2)
0x4e0|                                          41   |              A |                            i32.const: 0x41 (valid) 0x4ee-0x4ee.7 (1)
0x4e0|                                             00|               .|                            n: 0 0x4ef-0x4ef.7 (1)
     |                                               |                |                          [4]{}: instr 0x4f0-0x4f2.7 (3)
0x4f0|29                                             |)               |                            i64.load: 0x29 (valid) 0x4f0-0x4f0.7 (1)
     |                                               |                |                            m{}: 0x4f1-0x4f2.7 (2)
0x4f0|   03                                          | .              |                              a: 3 0x4f1-0x4f1.7 (1)
0x4f0|      00                                       |  .             |                              o: 0 0x4f2-0x4f2.7 (1)
     |                                               |                |                          [5]{}: instr 0x4f3-0x4f4.7 (2)
0x4f0|         21                                    |   !            |                            local.set: 0x21 (valid) 0x4f3-0x4f3.7 (1)
0x4f0|            03                                 |    .           |                            x: 3 0x4f4-0x4f4.7 (1)
0x4f0|               0b                              |     .          |                        end: 11 (valid) 0x4f5-0x4f5.7 (1)
0x4f0|                  0b                           |      .         |                    end: 11 (valid) 0x4f6-0x4f6.7 (1)
     |                                               |                |                  [3]{}: in 0x4f7-0x4f8.7 (2)
0x4f0|                     20                        |                |                    local.get: 0x20 (valid) 0x4f7-0x4f7.7 (1)
0x4f0|                        03                     |        .       |                    x: 3 0x4f8-0x4f8.7 (1)
     |                                               |                |                  [4]{}: in 0x4f9-0x4f9.7 (1)
0x4f0|                           0b|                 |         .|     |                    end: 0xb (valid) 0x4f9-0x4f9.7 (1)
