$ fq -d wasm dv align-20.wasm
    |00 01 02 03 04 05 06 07 08 09 0a 0b 0c 0d 0e 0f|0123456789abcdef|.{}: align-20.wasm (wasm) 0x0-0x24 (36)
0x00|00 61 73 6d                                    |.asm            |  magic: raw bits (valid) 0x0-0x4 (4)
0x00|            01 00 00 00                        |    ....        |  version: 1 0x4-0x8 (4)
    |                                               |                |  sections[0:4]: 0x8-0x24 (28)
    |                                               |                |    [0]{}: section 0x8-0xe (6)
0x00|                        01                     |        .       |      id: "type_section" (1) 0x8-0x9 (1)
0x00|                           04                  |         .      |      size: 4 (valid) 0x9-0xa (1)
    |                                               |                |      content{}: 0xa-0xe (4)
    |                                               |                |        ft{}: 0xa-0xe (4)
0x00|                              01               |          .     |          n: 1 (valid) 0xa-0xb (1)
    |                                               |                |          x[0:1]: 0xb-0xe (3)
    |                                               |                |            [0]{}: ft 0xb-0xe (3)
0x00|                                 60            |           `    |              tag: 0x60 (valid) 0xb-0xc (1)
    |                                               |                |              rt1{}: 0xc-0xd (1)
0x00|                                    00         |            .   |                n: 0 (valid) 0xc-0xd (1)
    |                                               |                |                x[0:0]: 0xd-0xd (0)
    |                                               |                |              rt2{}: 0xd-0xe (1)
0x00|                                       00      |             .  |                n: 0 (valid) 0xd-0xe (1)
    |                                               |                |                x[0:0]: 0xe-0xe (0)
    |                                               |                |    [1]{}: section 0xe-0x12 (4)
0x00|                                          03   |              . |      id: "function_section" (3) 0xe-0xf (1)
0x00|                                             02|               .|      size: 2 (valid) 0xf-0x10 (1)
    |                                               |                |      content{}: 0x10-0x12 (2)
    |                                               |                |        x{}: 0x10-0x12 (2)
0x10|01                                             |.               |          n: 1 (valid) 0x10-0x11 (1)
    |                                               |                |          x[0:1]: 0x11-0x12 (1)
0x10|   00                                          | .              |            [0]: 0 x (valid) 0x11-0x12 (1)
    |                                               |                |    [2]{}: section 0x12-0x17 (5)
0x10|      05                                       |  .             |      id: "memory_section" (5) 0x12-0x13 (1)
0x10|         03                                    |   .            |      size: 3 (valid) 0x13-0x14 (1)
    |                                               |                |      content{}: 0x14-0x17 (3)
    |                                               |                |        mem{}: 0x14-0x17 (3)
0x10|            01                                 |    .           |          n: 1 (valid) 0x14-0x15 (1)
    |                                               |                |          x[0:1]: 0x15-0x17 (2)
    |                                               |                |            [0]{}: mem 0x15-0x17 (2)
    |                                               |                |              lim{}: 0x15-0x17 (2)
0x10|               00                              |     .          |                tag: 0x0 0x15-0x16 (1)
0x10|                  00                           |      .         |                n: 0 (valid) 0x16-0x17 (1)
    |                                               |                |    [3]{}: section 0x17-0x24 (13)
0x10|                     0a                        |       .        |      id: "code_section" (10) 0x17-0x18 (1)
0x10|                        0b                     |        .       |      size: 11 (valid) 0x18-0x19 (1)
    |                                               |                |      content{}: 0x19-0x24 (11)
    |                                               |                |        code{}: 0x19-0x24 (11)
0x10|                           01                  |         .      |          n: 1 (valid) 0x19-0x1a (1)
    |                                               |                |          x[0:1]: 0x1a-0x24 (10)
    |                                               |                |            [0]{}: code 0x1a-0x24 (10)
0x10|                              09               |          .     |              size: 9 (valid) 0x1a-0x1b (1)
    |                                               |                |              code{}: 0x1b-0x24 (9)
    |                                               |                |                t{}: 0x1b-0x1c (1)
0x10|                                 00            |           .    |                  n: 0 (valid) 0x1b-0x1c (1)
    |                                               |                |                  x[0:0]: 0x1c-0x1c (0)
    |                                               |                |                e[0:4]: 0x1c-0x24 (8)
    |                                               |                |                  [0]{}: in 0x1c-0x1e (2)
0x10|                                    41         |            A   |                    opcode: "i32.const" (0x41) 0x1c-0x1d (1)
0x10|                                       00      |             .  |                    n: 0 (valid) 0x1d-0x1e (1)
    |                                               |                |                  [1]{}: in 0x1e-0x20 (2)
0x10|                                          42   |              B |                    opcode: "i64.const" (0x42) 0x1e-0x1f (1)
0x10|                                             01|               .|                    n: 1 0x1f-0x20 (1)
    |                                               |                |                  [2]{}: in 0x20-0x23 (3)
0x20|37                                             |7               |                    opcode: "i64.store" (0x37) 0x20-0x21 (1)
    |                                               |                |                    m{}: 0x21-0x23 (2)
0x20|   03                                          | .              |                      a: 3 (valid) 0x21-0x22 (1)
0x20|      00                                       |  .             |                      o: 0 (valid) 0x22-0x23 (1)
    |                                               |                |                  [3]{}: in 0x23-0x24 (1)
0x20|         0b|                                   |   .|           |                    opcode: "end" (0xb) 0x23-0x24 (1)
