$ fq -d wasm dv align-24.wasm
    |00 01 02 03 04 05 06 07 08 09 0a 0b 0c 0d 0e 0f|0123456789abcdef|.{}: align-24.wasm (wasm) 0x0-0x46 (70)
0x00|00 61 73 6d                                    |.asm            |  magic: raw bits (valid) 0x0-0x4 (4)
0x00|            01 00 00 00                        |    ....        |  version: 1 0x4-0x8 (4)
    |                                               |                |  sections[0:5]: 0x8-0x46 (62)
    |                                               |                |    [0]{}: section 0x8-0x15 (13)
0x00|                        01                     |        .       |      id: "type_section" (1) 0x8-0x9 (1)
0x00|                           0b                  |         .      |      size: 11 (valid) 0x9-0xa (1)
    |                                               |                |      content{}: 0xa-0x15 (11)
    |                                               |                |        ft{}: 0xa-0x15 (11)
0x00|                              02               |          .     |          n: 2 (valid) 0xa-0xb (1)
    |                                               |                |          x[0:2]: 0xb-0x15 (10)
    |                                               |                |            [0]{}: ft 0xb-0x10 (5)
0x00|                                 60            |           `    |              tag: 0x60 (valid) 0xb-0xc (1)
    |                                               |                |              rt1{}: 0xc-0xf (3)
0x00|                                    02         |            .   |                n: 2 (valid) 0xc-0xd (1)
    |                                               |                |                x[0:2]: 0xd-0xf (2)
0x00|                                       7f      |             .  |                  [0]: "i32" (0x7f) t 0xd-0xe (1)
0x00|                                          7e   |              ~ |                  [1]: "i64" (0x7e) t 0xe-0xf (1)
    |                                               |                |              rt2{}: 0xf-0x10 (1)
0x00|                                             00|               .|                n: 0 (valid) 0xf-0x10 (1)
    |                                               |                |                x[0:0]: 0x10-0x10 (0)
    |                                               |                |            [1]{}: ft 0x10-0x15 (5)
0x10|60                                             |`               |              tag: 0x60 (valid) 0x10-0x11 (1)
    |                                               |                |              rt1{}: 0x11-0x13 (2)
0x10|   01                                          | .              |                n: 1 (valid) 0x11-0x12 (1)
    |                                               |                |                x[0:1]: 0x12-0x13 (1)
0x10|      7f                                       |  .             |                  [0]: "i32" (0x7f) t 0x12-0x13 (1)
    |                                               |                |              rt2{}: 0x13-0x15 (2)
0x10|         01                                    |   .            |                n: 1 (valid) 0x13-0x14 (1)
    |                                               |                |                x[0:1]: 0x14-0x15 (1)
0x10|            7f                                 |    .           |                  [0]: "i32" (0x7f) t 0x14-0x15 (1)
    |                                               |                |    [1]{}: section 0x15-0x1a (5)
0x10|               03                              |     .          |      id: "function_section" (3) 0x15-0x16 (1)
0x10|                  03                           |      .         |      size: 3 (valid) 0x16-0x17 (1)
    |                                               |                |      content{}: 0x17-0x1a (3)
    |                                               |                |        x{}: 0x17-0x1a (3)
0x10|                     02                        |       .        |          n: 2 (valid) 0x17-0x18 (1)
    |                                               |                |          x[0:2]: 0x18-0x1a (2)
0x10|                        00                     |        .       |            [0]: 0 x (valid) 0x18-0x19 (1)
0x10|                           01                  |         .      |            [1]: 1 x (valid) 0x19-0x1a (1)
    |                                               |                |    [2]{}: section 0x1a-0x1f (5)
0x10|                              05               |          .     |      id: "memory_section" (5) 0x1a-0x1b (1)
0x10|                                 03            |           .    |      size: 3 (valid) 0x1b-0x1c (1)
    |                                               |                |      content{}: 0x1c-0x1f (3)
    |                                               |                |        mem{}: 0x1c-0x1f (3)
0x10|                                    01         |            .   |          n: 1 (valid) 0x1c-0x1d (1)
    |                                               |                |          x[0:1]: 0x1d-0x1f (2)
    |                                               |                |            [0]{}: mem 0x1d-0x1f (2)
    |                                               |                |              lim{}: 0x1d-0x1f (2)
0x10|                                       00      |             .  |                tag: 0x0 0x1d-0x1e (1)
0x10|                                          01   |              . |                n: 1 (valid) 0x1e-0x1f (1)
    |                                               |                |    [3]{}: section 0x1f-0x31 (18)
0x10|                                             07|               .|      id: "export_section" (7) 0x1f-0x20 (1)
0x20|10                                             |.               |      size: 16 (valid) 0x20-0x21 (1)
    |                                               |                |      content{}: 0x21-0x31 (16)
    |                                               |                |        ex{}: 0x21-0x31 (16)
0x20|   02                                          | .              |          n: 2 (valid) 0x21-0x22 (1)
    |                                               |                |          x[0:2]: 0x22-0x31 (15)
    |                                               |                |            [0]{}: ex 0x22-0x2a (8)
    |                                               |                |              nm{}: 0x22-0x28 (6)
0x20|      05                                       |  .             |                n: 5 (valid) 0x22-0x23 (1)
0x20|         73 74 6f 72 65                        |   store        |                b: "store" 0x23-0x28 (5)
    |                                               |                |              d{}: 0x28-0x2a (2)
0x20|                        00                     |        .       |                tag: "funcidx" (0x0) 0x28-0x29 (1)
0x20|                           00                  |         .      |                x: 0 (valid) 0x29-0x2a (1)
    |                                               |                |            [1]{}: ex 0x2a-0x31 (7)
    |                                               |                |              nm{}: 0x2a-0x2f (5)
0x20|                              04               |          .     |                n: 4 (valid) 0x2a-0x2b (1)
0x20|                                 6c 6f 61 64   |           load |                b: "load" 0x2b-0x2f (4)
    |                                               |                |              d{}: 0x2f-0x31 (2)
0x20|                                             00|               .|                tag: "funcidx" (0x0) 0x2f-0x30 (1)
0x30|01                                             |.               |                x: 1 (valid) 0x30-0x31 (1)
    |                                               |                |    [4]{}: section 0x31-0x46 (21)
0x30|   0a                                          | .              |      id: "code_section" (10) 0x31-0x32 (1)
0x30|      13                                       |  .             |      size: 19 (valid) 0x32-0x33 (1)
    |                                               |                |      content{}: 0x33-0x46 (19)
    |                                               |                |        code{}: 0x33-0x46 (19)
0x30|         02                                    |   .            |          n: 2 (valid) 0x33-0x34 (1)
    |                                               |                |          x[0:2]: 0x34-0x46 (18)
    |                                               |                |            [0]{}: code 0x34-0x3e (10)
0x30|            09                                 |    .           |              size: 9 (valid) 0x34-0x35 (1)
    |                                               |                |              code{}: 0x35-0x3e (9)
    |                                               |                |                t{}: 0x35-0x36 (1)
0x30|               00                              |     .          |                  n: 0 (valid) 0x35-0x36 (1)
    |                                               |                |                  x[0:0]: 0x36-0x36 (0)
    |                                               |                |                e[0:4]: 0x36-0x3e (8)
    |                                               |                |                  [0]{}: in 0x36-0x38 (2)
0x30|                  20                           |                |                    opcode: "local.get" (0x20) 0x36-0x37 (1)
0x30|                     00                        |       .        |                    x: 0 (valid) 0x37-0x38 (1)
    |                                               |                |                  [1]{}: in 0x38-0x3a (2)
0x30|                        20                     |                |                    opcode: "local.get" (0x20) 0x38-0x39 (1)
0x30|                           01                  |         .      |                    x: 1 (valid) 0x39-0x3a (1)
    |                                               |                |                  [2]{}: in 0x3a-0x3d (3)
0x30|                              37               |          7     |                    opcode: "i64.store" (0x37) 0x3a-0x3b (1)
    |                                               |                |                    m{}: 0x3b-0x3d (2)
0x30|                                 02            |           .    |                      a: 2 (valid) 0x3b-0x3c (1)
0x30|                                    00         |            .   |                      o: 0 (valid) 0x3c-0x3d (1)
    |                                               |                |                  [3]{}: in 0x3d-0x3e (1)
0x30|                                       0b      |             .  |                    opcode: "end" (0xb) 0x3d-0x3e (1)
    |                                               |                |            [1]{}: code 0x3e-0x46 (8)
0x30|                                          07   |              . |              size: 7 (valid) 0x3e-0x3f (1)
    |                                               |                |              code{}: 0x3f-0x46 (7)
    |                                               |                |                t{}: 0x3f-0x40 (1)
0x30|                                             00|               .|                  n: 0 (valid) 0x3f-0x40 (1)
    |                                               |                |                  x[0:0]: 0x40-0x40 (0)
    |                                               |                |                e[0:3]: 0x40-0x46 (6)
    |                                               |                |                  [0]{}: in 0x40-0x42 (2)
0x40|20                                             |                |                    opcode: "local.get" (0x20) 0x40-0x41 (1)
0x40|   00                                          | .              |                    x: 0 (valid) 0x41-0x42 (1)
    |                                               |                |                  [1]{}: in 0x42-0x45 (3)
0x40|      28                                       |  (             |                    opcode: "i32.load" (0x28) 0x42-0x43 (1)
    |                                               |                |                    m{}: 0x43-0x45 (2)
0x40|         02                                    |   .            |                      a: 2 (valid) 0x43-0x44 (1)
0x40|            00                                 |    .           |                      o: 0 (valid) 0x44-0x45 (1)
    |                                               |                |                  [2]{}: in 0x45-0x46 (1)
0x40|               0b|                             |     .|         |                    opcode: "end" (0xb) 0x45-0x46 (1)
