$ fq -d wasm dv binary-leb128-12.wasm
    |00 01 02 03 04 05 06 07 08 09 0a 0b 0c 0d 0e 0f|0123456789abcdef|.{}: binary-leb128-12.wasm (wasm) 0x0-0x27 (39)
0x00|00 61 73 6d                                    |.asm            |  magic: raw bits (valid) 0x0-0x4 (4)
0x00|            01 00 00 00                        |    ....        |  version: 1 0x4-0x8 (4)
    |                                               |                |  sections[0:2]: 0x8-0x27 (31)
    |                                               |                |    [0]{}: section 0x8-0xf (7)
0x00|                        01                     |        .       |      id: "type_section" (1) 0x8-0x9 (1)
0x00|                           05                  |         .      |      size: 5 (valid) 0x9-0xa (1)
    |                                               |                |      content{}: 0xa-0xf (5)
    |                                               |                |        ft{}: 0xa-0xf (5)
0x00|                              01               |          .     |          n: 1 (valid) 0xa-0xb (1)
    |                                               |                |          x[0:1]: 0xb-0xf (4)
    |                                               |                |            [0]{}: ft 0xb-0xf (4)
0x00|                                 60            |           `    |              tag: 0x60 (valid) 0xb-0xc (1)
    |                                               |                |              rt1{}: 0xc-0xe (2)
0x00|                                    01         |            .   |                n: 1 (valid) 0xc-0xd (1)
    |                                               |                |                x[0:1]: 0xd-0xe (1)
0x00|                                       7f      |             .  |                  [0]: "i32" (0x7f) t 0xd-0xe (1)
    |                                               |                |              rt2{}: 0xe-0xf (1)
0x00|                                          00   |              . |                n: 0 (valid) 0xe-0xf (1)
    |                                               |                |                x[0:0]: 0xf-0xf (0)
    |                                               |                |    [1]{}: section 0xf-0x27 (24)
0x00|                                             02|               .|      id: "import_section" (2) 0xf-0x10 (1)
0x10|16                                             |.               |      size: 22 (valid) 0x10-0x11 (1)
    |                                               |                |      content{}: 0x11-0x27 (22)
    |                                               |                |        im{}: 0x11-0x27 (22)
0x10|   01                                          | .              |          n: 1 (valid) 0x11-0x12 (1)
    |                                               |                |          x[0:1]: 0x12-0x27 (21)
    |                                               |                |            [0]{}: im 0x12-0x27 (21)
    |                                               |                |              mod{}: 0x12-0x1b (9)
0x10|      08                                       |  .             |                n: 8 (valid) 0x12-0x13 (1)
0x10|         73 70 65 63 74 65 73 74               |   spectest     |                b: "spectest" 0x13-0x1b (8)
    |                                               |                |              nm{}: 0x1b-0x25 (10)
0x10|                                 09            |           .    |                n: 9 (valid) 0x1b-0x1c (1)
0x10|                                    70 72 69 6e|            prin|                b: "print_i32" 0x1c-0x25 (9)
0x20|74 5f 69 33 32                                 |t_i32           |
    |                                               |                |              d{}: 0x25-0x27 (2)
0x20|               00                              |     .          |                tag: "func" (0x0) 0x25-0x26 (1)
0x20|                  00|                          |      .|        |                x: 0 (valid) 0x26-0x27 (1)
