$ fq -d wasm dv binary-leb128-8.wasm
    |00 01 02 03 04 05 06 07 08 09 0a 0b 0c 0d 0e 0f|0123456789abcdef|.{}: binary-leb128-8.wasm (wasm) 0x0-0x11 (17)
0x00|00 61 73 6d                                    |.asm            |  magic: raw bits (valid) 0x0-0x4 (4)
0x00|            01 00 00 00                        |    ....        |  version: 1 0x4-0x8 (4)
    |                                               |                |  sections[0:1]: 0x8-0x11 (9)
    |                                               |                |    [0]{}: section 0x8-0x11 (9)
0x00|                        01                     |        .       |      id: "type_section" (1) 0x8-0x9 (1)
0x00|                           07                  |         .      |      size: 7 (valid) 0x9-0xa (1)
    |                                               |                |      content{}: 0xa-0x11 (7)
    |                                               |                |        ft{}: 0xa-0x11 (7)
0x00|                              01               |          .     |          n: 1 (valid) 0xa-0xb (1)
    |                                               |                |          x[0:1]: 0xb-0x11 (6)
    |                                               |                |            [0]{}: ft 0xb-0x11 (6)
0x00|                                 60            |           `    |              tag: 0x60 (valid) 0xb-0xc (1)
    |                                               |                |              rt1{}: 0xc-0xf (3)
0x00|                                    02         |            .   |                n: 2 (valid) 0xc-0xd (1)
    |                                               |                |                x[0:2]: 0xd-0xf (2)
0x00|                                       7f      |             .  |                  [0]: "i32" (0x7f) t 0xd-0xe (1)
0x00|                                          7e   |              ~ |                  [1]: "i64" (0x7e) t 0xe-0xf (1)
    |                                               |                |              rt2{}: 0xf-0x11 (2)
0x00|                                             01|               .|                n: 1 (valid) 0xf-0x10 (1)
    |                                               |                |                x[0:1]: 0x10-0x11 (1)
0x10|7f|                                            |.|              |                  [0]: "i32" (0x7f) t 0x10-0x11 (1)
