$ fq -d wasm dv binary-9.wasm
    |00 01 02 03 04 05 06 07 08 09 0a 0b 0c 0d 0e 0f|0123456789abcdef|.{}: binary-9.wasm (wasm) 0x0-0x10 (16)
0x00|00 61 73 6d                                    |.asm            |  magic: raw bits (valid) 0x0-0x4 (4)
0x00|            01 00 00 00                        |    ....        |  version: 1 0x4-0x8 (4)
    |                                               |                |  sections[0:1]: 0x8-0x10 (8)
    |                                               |                |    [0]{}: section 0x8-0x10 (8)
0x00|                        06                     |        .       |      id: "global_section" (6) 0x8-0x9 (1)
0x00|                           06                  |         .      |      size: 6 (valid) 0x9-0xa (1)
    |                                               |                |      content{}: 0xa-0x10 (6)
    |                                               |                |        glob{}: 0xa-0x10 (6)
0x00|                              01               |          .     |          n: 1 (valid) 0xa-0xb (1)
    |                                               |                |          x[0:1]: 0xb-0x10 (5)
    |                                               |                |            [0]{}: glob 0xb-0x10 (5)
    |                                               |                |              gt{}: 0xb-0xd (2)
0x00|                                 7f            |           .    |                t: "i32" (0x7f) 0xb-0xc (1)
0x00|                                    00         |            .   |                m: "const" (0) 0xc-0xd (1)
    |                                               |                |              e[0:2]: 0xd-0x10 (3)
    |                                               |                |                [0]{}: in 0xd-0xf (2)
0x00|                                       41      |             A  |                  opcode: "i32.const" (0x41) 0xd-0xe (1)
0x00|                                          7f   |              . |                  n: -1 (valid) 0xe-0xf (1)
    |                                               |                |                [1]{}: in 0xf-0x10 (1)
0x00|                                             0b|               .|                  opcode: "end" (0xb) 0xf-0x10 (1)
