$ fq -d wasm dv binary-29.wasm
   |00 01 02 03 04 05 06 07 08 09 0a 0b 0c 0d 0e 0f|0123456789abcdef|.{}: binary-29.wasm (wasm) 0x0-0xe.7 (15)
0x0|00 61 73 6d                                    |.asm            |  magic: raw bits (valid) 0x0-0x3.7 (4)
0x0|            01 00 00 00                        |    ....        |  version: 1 0x4-0x7.7 (4)
   |                                               |                |  sections[0:1]: 0x8-0xe.7 (7)
   |                                               |                |    [0]{}: section 0x8-0xe.7 (7)
0x0|                        01                     |        .       |      id: "type_section" (1) 0x8-0x8.7 (1)
0x0|                           05                  |         .      |      size: 5 (valid) 0x9-0x9.7 (1)
   |                                               |                |      content{}: 0xa-0xe.7 (5)
   |                                               |                |        ft{}: 0xa-0xe.7 (5)
0x0|                              01               |          .     |          n: 1 (valid) 0xa-0xa.7 (1)
   |                                               |                |          x[0:1]: 0xb-0xe.7 (4)
   |                                               |                |            [0]{}: ft 0xb-0xe.7 (4)
0x0|                                 60            |           `    |              tag: 0x60 (valid) 0xb-0xb.7 (1)
   |                                               |                |              rt1{}: 0xc-0xd.7 (2)
0x0|                                    01         |            .   |                n: 1 (valid) 0xc-0xc.7 (1)
   |                                               |                |                x[0:1]: 0xd-0xd.7 (1)
0x0|                                       7f      |             .  |                  [0]: "i32" (0x7f) t 0xd-0xd.7 (1)
   |                                               |                |              rt2{}: 0xe-0xe.7 (1)
0x0|                                          00|  |              .||                n: 0 (valid) 0xe-0xe.7 (1)
   |                                               |                |                x[0:0]: 0xf-NA (0)
