$ fq -d wasm dv binary-leb128-0.wasm
   |00 01 02 03 04 05 06 07 08 09 0a 0b 0c 0d 0e 0f|0123456789abcdef|.{}: binary-leb128-0.wasm (wasm) 0x0-0xc.7 (13)
0x0|00 61 73 6d                                    |.asm            |  magic: raw bits (valid) 0x0-0x3.7 (4)
0x0|            01 00 00 00                        |    ....        |  version: 1 0x4-0x7.7 (4)
   |                                               |                |  sections[0:1]: 0x8-0xc.7 (5)
   |                                               |                |    [0]{}: section 0x8-0xc.7 (5)
0x0|                        05                     |        .       |      id: "memory section" (5) 0x8-0x8.7 (1)
0x0|                           03                  |         .      |      size: 3 0x9-0x9.7 (1)
   |                                               |                |      content{}: 0xa-0xc.7 (3)
   |                                               |                |        mem{}: 0xa-0xc.7 (3)
0x0|                              01               |          .     |          n: 1 0xa-0xa.7 (1)
   |                                               |                |          x[0:1]: 0xb-0xc.7 (2)
   |                                               |                |            [0]{}: mem 0xb-0xc.7 (2)
   |                                               |                |              lim{}: 0xb-0xc.7 (2)
0x0|                                 00            |           .    |                tag: 0x0 0xb-0xb.7 (1)
0x0|                                    02|        |            .|  |                n: 2 0xc-0xc.7 (1)
