$ fq -d wasm dv binary-4.wasm
   |00 01 02 03 04 05 06 07 08 09 0a 0b 0c 0d 0e 0f|0123456789abcdef|.{}: binary-4.wasm (wasm) 0x0-0xd (13)
0x0|00 61 73 6d                                    |.asm            |  magic: raw bits (valid) 0x0-0x4 (4)
0x0|            01 00 00 00                        |    ....        |  version: 1 0x4-0x8 (4)
   |                                               |                |  sections[0:1]: 0x8-0xd (5)
   |                                               |                |    [0]{}: section 0x8-0xd (5)
0x0|                        05                     |        .       |      id: "memory_section" (5) 0x8-0x9 (1)
0x0|                           03                  |         .      |      size: 3 (valid) 0x9-0xa (1)
   |                                               |                |      content{}: 0xa-0xd (3)
   |                                               |                |        mem{}: 0xa-0xd (3)
0x0|                              01               |          .     |          n: 1 (valid) 0xa-0xb (1)
   |                                               |                |          x[0:1]: 0xb-0xd (2)
   |                                               |                |            [0]{}: mem 0xb-0xd (2)
   |                                               |                |              lim{}: 0xb-0xd (2)
0x0|                                 00            |           .    |                tag: 0x0 0xb-0xc (1)
0x0|                                    02|        |            .|  |                n: 2 (valid) 0xc-0xd (1)
