$ fq -d wasm dv binary-15.wasm
    |00 01 02 03 04 05 06 07 08 09 0a 0b 0c 0d 0e 0f|0123456789abcdef|.{}: binary-15.wasm (wasm) 0x0-0x16 (22)
0x00|00 61 73 6d                                    |.asm            |  magic: raw bits (valid) 0x0-0x4 (4)
0x00|            01 00 00 00                        |    ....        |  version: 1 0x4-0x8 (4)
    |                                               |                |  sections[0:2]: 0x8-0x16 (14)
    |                                               |                |    [0]{}: section 0x8-0xe (6)
0x00|                        04                     |        .       |      id: "table_section" (4) 0x8-0x9 (1)
0x00|                           04                  |         .      |      size: 4 (valid) 0x9-0xa (1)
    |                                               |                |      content{}: 0xa-0xe (4)
    |                                               |                |        tab{}: 0xa-0xe (4)
0x00|                              01               |          .     |          n: 1 (valid) 0xa-0xb (1)
    |                                               |                |          x[0:1]: 0xb-0xe (3)
    |                                               |                |            [0]{}: tab 0xb-0xe (3)
0x00|                                 70            |           p    |              et: "funcref" (112) 0xb-0xc (1)
    |                                               |                |              lim{}: 0xc-0xe (2)
0x00|                                    00         |            .   |                tag: 0x0 0xc-0xd (1)
0x00|                                       00      |             .  |                n: 0 (valid) 0xd-0xe (1)
    |                                               |                |    [1]{}: section 0xe-0x16 (8)
0x00|                                          09   |              . |      id: "element_section" (9) 0xe-0xf (1)
0x00|                                             06|               .|      size: 6 (valid) 0xf-0x10 (1)
    |                                               |                |      element{}: 0x10-0x16 (6)
    |                                               |                |        seg{}: 0x10-0x16 (6)
0x10|01                                             |.               |          n: 1 (valid) 0x10-0x11 (1)
    |                                               |                |          x[0:1]: 0x11-0x16 (5)
    |                                               |                |            [0]{}: seg 0x11-0x16 (5)
0x10|   00                                          | .              |              tag: 0 (valid) 0x11-0x12 (1)
    |                                               |                |              e[0:2]: 0x12-0x15 (3)
    |                                               |                |                [0]{}: in 0x12-0x14 (2)
0x10|      41                                       |  A             |                  opcode: "i32.const" (0x41) 0x12-0x13 (1)
0x10|         00                                    |   .            |                  n: 0 (valid) 0x13-0x14 (1)
    |                                               |                |                [1]{}: in 0x14-0x15 (1)
0x10|            0b                                 |    .           |                  opcode: "end" (0xb) 0x14-0x15 (1)
    |                                               |                |              y{}: 0x15-0x16 (1)
0x10|               00|                             |     .|         |                n: 0 (valid) 0x15-0x16 (1)
    |                                               |                |                x[0:0]: 0x16-0x16 (0)
