$ fq -d wasm dv bulk-5.wasm
    |00 01 02 03 04 05 06 07 08 09 0a 0b 0c 0d 0e 0f|0123456789abcdef|.{}: bulk-5.wasm (wasm) 0x0-0x93 (147)
0x00|00 61 73 6d                                    |.asm            |  magic: raw bits (valid) 0x0-0x4 (4)
0x00|            01 00 00 00                        |    ....        |  version: 1 0x4-0x8 (4)
    |                                               |                |  sections[0:7]: 0x8-0x93 (139)
    |                                               |                |    [0]{}: section 0x8-0x12 (10)
0x00|                        01                     |        .       |      id: "type_section" (1) 0x8-0x9 (1)
0x00|                           08                  |         .      |      size: 8 (valid) 0x9-0xa (1)
    |                                               |                |      content{}: 0xa-0x12 (8)
    |                                               |                |        ft{}: 0xa-0x12 (8)
0x00|                              02               |          .     |          n: 2 (valid) 0xa-0xb (1)
    |                                               |                |          x[0:2]: 0xb-0x12 (7)
    |                                               |                |            [0]{}: ft 0xb-0xe (3)
0x00|                                 60            |           `    |              tag: 0x60 (valid) 0xb-0xc (1)
    |                                               |                |              rt1{}: 0xc-0xd (1)
0x00|                                    00         |            .   |                n: 0 (valid) 0xc-0xd (1)
    |                                               |                |                x[0:0]: 0xd-0xd (0)
    |                                               |                |              rt2{}: 0xd-0xe (1)
0x00|                                       00      |             .  |                n: 0 (valid) 0xd-0xe (1)
    |                                               |                |                x[0:0]: 0xe-0xe (0)
    |                                               |                |            [1]{}: ft 0xe-0x12 (4)
0x00|                                          60   |              ` |              tag: 0x60 (valid) 0xe-0xf (1)
    |                                               |                |              rt1{}: 0xf-0x11 (2)
0x00|                                             01|               .|                n: 1 (valid) 0xf-0x10 (1)
    |                                               |                |                x[0:1]: 0x10-0x11 (1)
0x10|7f                                             |.               |                  [0]: "i32" (0x7f) t 0x10-0x11 (1)
    |                                               |                |              rt2{}: 0x11-0x12 (1)
0x10|   00                                          | .              |                n: 0 (valid) 0x11-0x12 (1)
    |                                               |                |                x[0:0]: 0x12-0x12 (0)
    |                                               |                |    [1]{}: section 0x12-0x19 (7)
0x10|      03                                       |  .             |      id: "function_section" (3) 0x12-0x13 (1)
0x10|         05                                    |   .            |      size: 5 (valid) 0x13-0x14 (1)
    |                                               |                |      content{}: 0x14-0x19 (5)
    |                                               |                |        x{}: 0x14-0x19 (5)
0x10|            04                                 |    .           |          n: 4 (valid) 0x14-0x15 (1)
    |                                               |                |          x[0:4]: 0x15-0x19 (4)
0x10|               00                              |     .          |            [0]: 0 x (valid) 0x15-0x16 (1)
0x10|                  01                           |      .         |            [1]: 1 x (valid) 0x16-0x17 (1)
0x10|                     00                        |       .        |            [2]: 0 x (valid) 0x17-0x18 (1)
0x10|                        01                     |        .       |            [3]: 1 x (valid) 0x18-0x19 (1)
    |                                               |                |    [2]{}: section 0x19-0x1e (5)
0x10|                           05                  |         .      |      id: "memory_section" (5) 0x19-0x1a (1)
0x10|                              03               |          .     |      size: 3 (valid) 0x1a-0x1b (1)
    |                                               |                |      content{}: 0x1b-0x1e (3)
    |                                               |                |        mem{}: 0x1b-0x1e (3)
0x10|                                 01            |           .    |          n: 1 (valid) 0x1b-0x1c (1)
    |                                               |                |          x[0:1]: 0x1c-0x1e (2)
    |                                               |                |            [0]{}: mem 0x1c-0x1e (2)
    |                                               |                |              lim{}: 0x1c-0x1e (2)
0x10|                                    00         |            .   |                tag: 0x0 0x1c-0x1d (1)
0x10|                                       01      |             .  |                n: 1 (valid) 0x1d-0x1e (1)
    |                                               |                |    [3]{}: section 0x1e-0x5b (61)
0x10|                                          07   |              . |      id: "export_section" (7) 0x1e-0x1f (1)
0x10|                                             3b|               ;|      size: 59 (valid) 0x1f-0x20 (1)
    |                                               |                |      content{}: 0x20-0x5b (59)
    |                                               |                |        ex{}: 0x20-0x5b (59)
0x20|04                                             |.               |          n: 4 (valid) 0x20-0x21 (1)
    |                                               |                |          x[0:4]: 0x21-0x5b (58)
    |                                               |                |            [0]{}: ex 0x21-0x30 (15)
    |                                               |                |              nm{}: 0x21-0x2e (13)
0x20|   0c                                          | .              |                n: 12 (valid) 0x21-0x22 (1)
0x20|      64 72 6f 70 5f 70 61 73 73 69 76 65      |  drop_passive  |                b: "drop_passive" 0x22-0x2e (12)
    |                                               |                |              d{}: 0x2e-0x30 (2)
0x20|                                          00   |              . |                tag: "funcidx" (0x0) 0x2e-0x2f (1)
0x20|                                             00|               .|                x: 0 (valid) 0x2f-0x30 (1)
    |                                               |                |            [1]{}: ex 0x30-0x3f (15)
    |                                               |                |              nm{}: 0x30-0x3d (13)
0x30|0c                                             |.               |                n: 12 (valid) 0x30-0x31 (1)
0x30|   69 6e 69 74 5f 70 61 73 73 69 76 65         | init_passive   |                b: "init_passive" 0x31-0x3d (12)
    |                                               |                |              d{}: 0x3d-0x3f (2)
0x30|                                       00      |             .  |                tag: "funcidx" (0x0) 0x3d-0x3e (1)
0x30|                                          01   |              . |                x: 1 (valid) 0x3e-0x3f (1)
    |                                               |                |            [2]{}: ex 0x3f-0x4d (14)
    |                                               |                |              nm{}: 0x3f-0x4b (12)
0x30|                                             0b|               .|                n: 11 (valid) 0x3f-0x40 (1)
0x40|64 72 6f 70 5f 61 63 74 69 76 65               |drop_active     |                b: "drop_active" 0x40-0x4b (11)
    |                                               |                |              d{}: 0x4b-0x4d (2)
0x40|                                 00            |           .    |                tag: "funcidx" (0x0) 0x4b-0x4c (1)
0x40|                                    02         |            .   |                x: 2 (valid) 0x4c-0x4d (1)
    |                                               |                |            [3]{}: ex 0x4d-0x5b (14)
    |                                               |                |              nm{}: 0x4d-0x59 (12)
0x40|                                       0b      |             .  |                n: 11 (valid) 0x4d-0x4e (1)
0x40|                                          69 6e|              in|                b: "init_active" 0x4e-0x59 (11)
0x50|69 74 5f 61 63 74 69 76 65                     |it_active       |
    |                                               |                |              d{}: 0x59-0x5b (2)
0x50|                           00                  |         .      |                tag: "funcidx" (0x0) 0x59-0x5a (1)
0x50|                              03               |          .     |                x: 3 (valid) 0x5a-0x5b (1)
    |                                               |                |    [4]{}: section 0x5b-0x5e (3)
0x50|                                 0c            |           .    |      id: "data_count_section" (12) 0x5b-0x5c (1)
0x50|                                    01         |            .   |      size: 1 (valid) 0x5c-0x5d (1)
    |                                               |                |      content{}: 0x5d-0x5e (1)
0x50|                                       02      |             .  |        n: 2 (valid) 0x5d-0x5e (1)
    |                                               |                |    [5]{}: section 0x5e-0x87 (41)
0x50|                                          0a   |              . |      id: "code_section" (10) 0x5e-0x5f (1)
0x50|                                             27|               '|      size: 39 (valid) 0x5f-0x60 (1)
    |                                               |                |      content{}: 0x60-0x87 (39)
    |                                               |                |        code{}: 0x60-0x87 (39)
0x60|04                                             |.               |          n: 4 (valid) 0x60-0x61 (1)
    |                                               |                |          x[0:4]: 0x61-0x87 (38)
    |                                               |                |            [0]{}: code 0x61-0x67 (6)
0x60|   05                                          | .              |              size: 5 (valid) 0x61-0x62 (1)
    |                                               |                |              code{}: 0x62-0x67 (5)
    |                                               |                |                t{}: 0x62-0x63 (1)
0x60|      00                                       |  .             |                  n: 0 (valid) 0x62-0x63 (1)
    |                                               |                |                  x[0:0]: 0x63-0x63 (0)
    |                                               |                |                e[0:2]: 0x63-0x67 (4)
    |                                               |                |                  [0]{}: in 0x63-0x66 (3)
0x60|         fc                                    |   .            |                    opcode: "prefix" (0xfc) 0x63-0x64 (1)
0x60|            09                                 |    .           |                    p_opcode: "data.drop" (9) 0x64-0x65 (1)
0x60|               00                              |     .          |                    x: 0 (valid) 0x65-0x66 (1)
    |                                               |                |                  [1]{}: in 0x66-0x67 (1)
0x60|                  0b                           |      .         |                    opcode: "end" (0xb) 0x66-0x67 (1)
    |                                               |                |            [1]{}: code 0x67-0x74 (13)
0x60|                     0c                        |       .        |              size: 12 (valid) 0x67-0x68 (1)
    |                                               |                |              code{}: 0x68-0x74 (12)
    |                                               |                |                t{}: 0x68-0x69 (1)
0x60|                        00                     |        .       |                  n: 0 (valid) 0x68-0x69 (1)
    |                                               |                |                  x[0:0]: 0x69-0x69 (0)
    |                                               |                |                e[0:5]: 0x69-0x74 (11)
    |                                               |                |                  [0]{}: in 0x69-0x6b (2)
0x60|                           41                  |         A      |                    opcode: "i32.const" (0x41) 0x69-0x6a (1)
0x60|                              00               |          .     |                    n: 0 (valid) 0x6a-0x6b (1)
    |                                               |                |                  [1]{}: in 0x6b-0x6d (2)
0x60|                                 41            |           A    |                    opcode: "i32.const" (0x41) 0x6b-0x6c (1)
0x60|                                    00         |            .   |                    n: 0 (valid) 0x6c-0x6d (1)
    |                                               |                |                  [2]{}: in 0x6d-0x6f (2)
0x60|                                       20      |                |                    opcode: "local.get" (0x20) 0x6d-0x6e (1)
0x60|                                          00   |              . |                    x: 0 (valid) 0x6e-0x6f (1)
    |                                               |                |                  [3]{}: in 0x6f-0x73 (4)
0x60|                                             fc|               .|                    opcode: "prefix" (0xfc) 0x6f-0x70 (1)
0x70|08                                             |.               |                    p_opcode: "memory.init" (8) 0x70-0x71 (1)
0x70|   00                                          | .              |                    x: 0 (valid) 0x71-0x72 (1)
0x70|      00                                       |  .             |                    reserved: 0x0 (valid) 0x72-0x73 (1)
    |                                               |                |                  [4]{}: in 0x73-0x74 (1)
0x70|         0b                                    |   .            |                    opcode: "end" (0xb) 0x73-0x74 (1)
    |                                               |                |            [2]{}: code 0x74-0x7a (6)
0x70|            05                                 |    .           |              size: 5 (valid) 0x74-0x75 (1)
    |                                               |                |              code{}: 0x75-0x7a (5)
    |                                               |                |                t{}: 0x75-0x76 (1)
0x70|               00                              |     .          |                  n: 0 (valid) 0x75-0x76 (1)
    |                                               |                |                  x[0:0]: 0x76-0x76 (0)
    |                                               |                |                e[0:2]: 0x76-0x7a (4)
    |                                               |                |                  [0]{}: in 0x76-0x79 (3)
0x70|                  fc                           |      .         |                    opcode: "prefix" (0xfc) 0x76-0x77 (1)
0x70|                     09                        |       .        |                    p_opcode: "data.drop" (9) 0x77-0x78 (1)
0x70|                        01                     |        .       |                    x: 1 (valid) 0x78-0x79 (1)
    |                                               |                |                  [1]{}: in 0x79-0x7a (1)
0x70|                           0b                  |         .      |                    opcode: "end" (0xb) 0x79-0x7a (1)
    |                                               |                |            [3]{}: code 0x7a-0x87 (13)
0x70|                              0c               |          .     |              size: 12 (valid) 0x7a-0x7b (1)
    |                                               |                |              code{}: 0x7b-0x87 (12)
    |                                               |                |                t{}: 0x7b-0x7c (1)
0x70|                                 00            |           .    |                  n: 0 (valid) 0x7b-0x7c (1)
    |                                               |                |                  x[0:0]: 0x7c-0x7c (0)
    |                                               |                |                e[0:5]: 0x7c-0x87 (11)
    |                                               |                |                  [0]{}: in 0x7c-0x7e (2)
0x70|                                    41         |            A   |                    opcode: "i32.const" (0x41) 0x7c-0x7d (1)
0x70|                                       00      |             .  |                    n: 0 (valid) 0x7d-0x7e (1)
    |                                               |                |                  [1]{}: in 0x7e-0x80 (2)
0x70|                                          41   |              A |                    opcode: "i32.const" (0x41) 0x7e-0x7f (1)
0x70|                                             00|               .|                    n: 0 (valid) 0x7f-0x80 (1)
    |                                               |                |                  [2]{}: in 0x80-0x82 (2)
0x80|20                                             |                |                    opcode: "local.get" (0x20) 0x80-0x81 (1)
0x80|   00                                          | .              |                    x: 0 (valid) 0x81-0x82 (1)
    |                                               |                |                  [3]{}: in 0x82-0x86 (4)
0x80|      fc                                       |  .             |                    opcode: "prefix" (0xfc) 0x82-0x83 (1)
0x80|         08                                    |   .            |                    p_opcode: "memory.init" (8) 0x83-0x84 (1)
0x80|            01                                 |    .           |                    x: 1 (valid) 0x84-0x85 (1)
0x80|               00                              |     .          |                    reserved: 0x0 (valid) 0x85-0x86 (1)
    |                                               |                |                  [4]{}: in 0x86-0x87 (1)
0x80|                  0b                           |      .         |                    opcode: "end" (0xb) 0x86-0x87 (1)
    |                                               |                |    [6]{}: section 0x87-0x93 (12)
0x80|                     0b                        |       .        |      id: "data_section" (11) 0x87-0x88 (1)
0x80|                        0a                     |        .       |      size: 10 (valid) 0x88-0x89 (1)
    |                                               |                |      content{}: 0x89-0x93 (10)
    |                                               |                |        seg{}: 0x89-0x93 (10)
0x80|                           02                  |         .      |          n: 2 (valid) 0x89-0x8a (1)
    |                                               |                |          x[0:2]: 0x8a-0x93 (9)
    |                                               |                |            [0]{}: seg 0x8a-0x8d (3)
0x80|                              01               |          .     |              tag: 1 (valid) 0x8a-0x8b (1)
    |                                               |                |              b{}: 0x8b-0x8d (2)
0x80|                                 01            |           .    |                n: 1 (valid) 0x8b-0x8c (1)
0x80|                                    78         |            x   |                x: raw bits 0x8c-0x8d (1)
    |                                               |                |            [1]{}: seg 0x8d-0x93 (6)
0x80|                                       00      |             .  |              tag: 0 (valid) 0x8d-0x8e (1)
    |                                               |                |              e[0:2]: 0x8e-0x91 (3)
    |                                               |                |                [0]{}: in 0x8e-0x90 (2)
0x80|                                          41   |              A |                  opcode: "i32.const" (0x41) 0x8e-0x8f (1)
0x80|                                             00|               .|                  n: 0 (valid) 0x8f-0x90 (1)
    |                                               |                |                [1]{}: in 0x90-0x91 (1)
0x90|0b                                             |.               |                  opcode: "end" (0xb) 0x90-0x91 (1)
    |                                               |                |              b{}: 0x91-0x93 (2)
0x90|   01                                          | .              |                n: 1 (valid) 0x91-0x92 (1)
0x90|      78|                                      |  x|            |                x: raw bits 0x92-0x93 (1)
