$ fq -d wasm dv bulk-9.wasm
    |00 01 02 03 04 05 06 07 08 09 0a 0b 0c 0d 0e 0f|0123456789abcdef|.{}: bulk-9.wasm (wasm) 0x0-0x96 (150)
0x00|00 61 73 6d                                    |.asm            |  magic: raw bits (valid) 0x0-0x4 (4)
0x00|            01 00 00 00                        |    ....        |  version: 1 0x4-0x8 (4)
    |                                               |                |  sections[0:6]: 0x8-0x96 (142)
    |                                               |                |    [0]{}: section 0x8-0x12 (10)
0x00|                        01                     |        .       |      id: "type_section" (1) 0x8-0x9 (1)
0x00|                           08                  |         .      |      size: 8 (valid) 0x9-0xa (1)
    |                                               |                |      content{}: 0xa-0x12 (8)
    |                                               |                |        ft{}: 0xa-0x12 (8)
0x00|                              02               |          .     |          n: 2 (valid) 0xa-0xb (1)
    |                                               |                |          x[0:2]: 0xb-0x12 (7)
    |                                               |                |            [0]{}: ft 0xb-0xe (3)
0x00|                                 60            |           `    |              tag: 0x60 (valid) 0xb-0xc (1)
    |                                               |                |              rt1{}: 0xc-0xd (1)
0x00|                                    00         |            .   |                n: 0 (valid) 0xc-0xd (1)
    |                                               |                |                x[0:0]: 0xd-0xd (0)
    |                                               |                |              rt2{}: 0xd-0xe (1)
0x00|                                       00      |             .  |                n: 0 (valid) 0xd-0xe (1)
    |                                               |                |                x[0:0]: 0xe-0xe (0)
    |                                               |                |            [1]{}: ft 0xe-0x12 (4)
0x00|                                          60   |              ` |              tag: 0x60 (valid) 0xe-0xf (1)
    |                                               |                |              rt1{}: 0xf-0x11 (2)
0x00|                                             01|               .|                n: 1 (valid) 0xf-0x10 (1)
    |                                               |                |                x[0:1]: 0x10-0x11 (1)
0x10|7f                                             |.               |                  [0]: "i32" (0x7f) t 0x10-0x11 (1)
    |                                               |                |              rt2{}: 0x11-0x12 (1)
0x10|   00                                          | .              |                n: 0 (valid) 0x11-0x12 (1)
    |                                               |                |                x[0:0]: 0x12-0x12 (0)
    |                                               |                |    [1]{}: section 0x12-0x1a (8)
0x10|      03                                       |  .             |      id: "function_section" (3) 0x12-0x13 (1)
0x10|         06                                    |   .            |      size: 6 (valid) 0x13-0x14 (1)
    |                                               |                |      content{}: 0x14-0x1a (6)
    |                                               |                |        x{}: 0x14-0x1a (6)
0x10|            05                                 |    .           |          n: 5 (valid) 0x14-0x15 (1)
    |                                               |                |          x[0:5]: 0x15-0x1a (5)
0x10|               00                              |     .          |            [0]: 0 x (valid) 0x15-0x16 (1)
0x10|                  00                           |      .         |            [1]: 0 x (valid) 0x16-0x17 (1)
0x10|                     01                        |       .        |            [2]: 1 x (valid) 0x17-0x18 (1)
0x10|                        00                     |        .       |            [3]: 0 x (valid) 0x18-0x19 (1)
0x10|                           01                  |         .      |            [4]: 1 x (valid) 0x19-0x1a (1)
    |                                               |                |    [2]{}: section 0x1a-0x20 (6)
0x10|                              04               |          .     |      id: "table_section" (4) 0x1a-0x1b (1)
0x10|                                 04            |           .    |      size: 4 (valid) 0x1b-0x1c (1)
    |                                               |                |      content{}: 0x1c-0x20 (4)
    |                                               |                |        tab{}: 0x1c-0x20 (4)
0x10|                                    01         |            .   |          n: 1 (valid) 0x1c-0x1d (1)
    |                                               |                |          x[0:1]: 0x1d-0x20 (3)
    |                                               |                |            [0]{}: tab 0x1d-0x20 (3)
0x10|                                       70      |             p  |              et: "funcref" (112) 0x1d-0x1e (1)
    |                                               |                |              lim{}: 0x1e-0x20 (2)
0x10|                                          00   |              . |                tag: 0x0 0x1e-0x1f (1)
0x10|                                             01|               .|                n: 1 (valid) 0x1f-0x20 (1)
    |                                               |                |    [3]{}: section 0x20-0x5d (61)
0x20|07                                             |.               |      id: "export_section" (7) 0x20-0x21 (1)
0x20|   3b                                          | ;              |      size: 59 (valid) 0x21-0x22 (1)
    |                                               |                |      content{}: 0x22-0x5d (59)
    |                                               |                |        ex{}: 0x22-0x5d (59)
0x20|      04                                       |  .             |          n: 4 (valid) 0x22-0x23 (1)
    |                                               |                |          x[0:4]: 0x23-0x5d (58)
    |                                               |                |            [0]{}: ex 0x23-0x32 (15)
    |                                               |                |              nm{}: 0x23-0x30 (13)
0x20|         0c                                    |   .            |                n: 12 (valid) 0x23-0x24 (1)
0x20|            64 72 6f 70 5f 70 61 73 73 69 76 65|    drop_passive|                b: "drop_passive" 0x24-0x30 (12)
    |                                               |                |              d{}: 0x30-0x32 (2)
0x30|00                                             |.               |                tag: "funcidx" (0x0) 0x30-0x31 (1)
0x30|   01                                          | .              |                x: 1 (valid) 0x31-0x32 (1)
    |                                               |                |            [1]{}: ex 0x32-0x41 (15)
    |                                               |                |              nm{}: 0x32-0x3f (13)
0x30|      0c                                       |  .             |                n: 12 (valid) 0x32-0x33 (1)
0x30|         69 6e 69 74 5f 70 61 73 73 69 76 65   |   init_passive |                b: "init_passive" 0x33-0x3f (12)
    |                                               |                |              d{}: 0x3f-0x41 (2)
0x30|                                             00|               .|                tag: "funcidx" (0x0) 0x3f-0x40 (1)
0x40|02                                             |.               |                x: 2 (valid) 0x40-0x41 (1)
    |                                               |                |            [2]{}: ex 0x41-0x4f (14)
    |                                               |                |              nm{}: 0x41-0x4d (12)
0x40|   0b                                          | .              |                n: 11 (valid) 0x41-0x42 (1)
0x40|      64 72 6f 70 5f 61 63 74 69 76 65         |  drop_active   |                b: "drop_active" 0x42-0x4d (11)
    |                                               |                |              d{}: 0x4d-0x4f (2)
0x40|                                       00      |             .  |                tag: "funcidx" (0x0) 0x4d-0x4e (1)
0x40|                                          03   |              . |                x: 3 (valid) 0x4e-0x4f (1)
    |                                               |                |            [3]{}: ex 0x4f-0x5d (14)
    |                                               |                |              nm{}: 0x4f-0x5b (12)
0x40|                                             0b|               .|                n: 11 (valid) 0x4f-0x50 (1)
0x50|69 6e 69 74 5f 61 63 74 69 76 65               |init_active     |                b: "init_active" 0x50-0x5b (11)
    |                                               |                |              d{}: 0x5b-0x5d (2)
0x50|                                 00            |           .    |                tag: "funcidx" (0x0) 0x5b-0x5c (1)
0x50|                                    04         |            .   |                x: 4 (valid) 0x5c-0x5d (1)
    |                                               |                |    [4]{}: section 0x5d-0x6a (13)
0x50|                                       09      |             .  |      id: "element_section" (9) 0x5d-0x5e (1)
0x50|                                          0b   |              . |      size: 11 (valid) 0x5e-0x5f (1)
    |                                               |                |      element{}: 0x5f-0x6a (11)
    |                                               |                |        seg{}: 0x5f-0x6a (11)
0x50|                                             02|               .|          n: 2 (valid) 0x5f-0x60 (1)
    |                                               |                |          x[0:2]: 0x60-0x6a (10)
    |                                               |                |            [0]{}: seg 0x60-0x64 (4)
0x60|01                                             |.               |              tag: 1 (valid) 0x60-0x61 (1)
0x60|   00                                          | .              |              et: "funcref" (0) (valid) 0x61-0x62 (1)
    |                                               |                |              y{}: 0x62-0x64 (2)
0x60|      01                                       |  .             |                n: 1 (valid) 0x62-0x63 (1)
    |                                               |                |                x[0:1]: 0x63-0x64 (1)
0x60|         00                                    |   .            |                  [0]: 0 y (valid) 0x63-0x64 (1)
    |                                               |                |            [1]{}: seg 0x64-0x6a (6)
0x60|            00                                 |    .           |              tag: 0 (valid) 0x64-0x65 (1)
    |                                               |                |              e[0:2]: 0x65-0x68 (3)
    |                                               |                |                [0]{}: in 0x65-0x67 (2)
0x60|               41                              |     A          |                  opcode: "i32.const" (0x41) 0x65-0x66 (1)
0x60|                  00                           |      .         |                  n: 0 (valid) 0x66-0x67 (1)
    |                                               |                |                [1]{}: in 0x67-0x68 (1)
0x60|                     0b                        |       .        |                  opcode: "end" (0xb) 0x67-0x68 (1)
    |                                               |                |              y{}: 0x68-0x6a (2)
0x60|                        01                     |        .       |                n: 1 (valid) 0x68-0x69 (1)
    |                                               |                |                x[0:1]: 0x69-0x6a (1)
0x60|                           00                  |         .      |                  [0]: 0 y (valid) 0x69-0x6a (1)
    |                                               |                |    [5]{}: section 0x6a-0x96 (44)
0x60|                              0a               |          .     |      id: "code_section" (10) 0x6a-0x6b (1)
0x60|                                 2a            |           *    |      size: 42 (valid) 0x6b-0x6c (1)
    |                                               |                |      content{}: 0x6c-0x96 (42)
    |                                               |                |        code{}: 0x6c-0x96 (42)
0x60|                                    05         |            .   |          n: 5 (valid) 0x6c-0x6d (1)
    |                                               |                |          x[0:5]: 0x6d-0x96 (41)
    |                                               |                |            [0]{}: code 0x6d-0x70 (3)
0x60|                                       02      |             .  |              size: 2 (valid) 0x6d-0x6e (1)
    |                                               |                |              code{}: 0x6e-0x70 (2)
    |                                               |                |                t{}: 0x6e-0x6f (1)
0x60|                                          00   |              . |                  n: 0 (valid) 0x6e-0x6f (1)
    |                                               |                |                  x[0:0]: 0x6f-0x6f (0)
    |                                               |                |                e[0:1]: 0x6f-0x70 (1)
    |                                               |                |                  [0]{}: in 0x6f-0x70 (1)
0x60|                                             0b|               .|                    opcode: "end" (0xb) 0x6f-0x70 (1)
    |                                               |                |            [1]{}: code 0x70-0x76 (6)
0x70|05                                             |.               |              size: 5 (valid) 0x70-0x71 (1)
    |                                               |                |              code{}: 0x71-0x76 (5)
    |                                               |                |                t{}: 0x71-0x72 (1)
0x70|   00                                          | .              |                  n: 0 (valid) 0x71-0x72 (1)
    |                                               |                |                  x[0:0]: 0x72-0x72 (0)
    |                                               |                |                e[0:2]: 0x72-0x76 (4)
    |                                               |                |                  [0]{}: in 0x72-0x75 (3)
0x70|      fc                                       |  .             |                    opcode: "prefix" (0xfc) 0x72-0x73 (1)
0x70|         0d                                    |   .            |                    p_opcode: "elem.drop" (13) 0x73-0x74 (1)
0x70|            00                                 |    .           |                    x: 0 (valid) 0x74-0x75 (1)
    |                                               |                |                  [1]{}: in 0x75-0x76 (1)
0x70|               0b                              |     .          |                    opcode: "end" (0xb) 0x75-0x76 (1)
    |                                               |                |            [2]{}: code 0x76-0x83 (13)
0x70|                  0c                           |      .         |              size: 12 (valid) 0x76-0x77 (1)
    |                                               |                |              code{}: 0x77-0x83 (12)
    |                                               |                |                t{}: 0x77-0x78 (1)
0x70|                     00                        |       .        |                  n: 0 (valid) 0x77-0x78 (1)
    |                                               |                |                  x[0:0]: 0x78-0x78 (0)
    |                                               |                |                e[0:5]: 0x78-0x83 (11)
    |                                               |                |                  [0]{}: in 0x78-0x7a (2)
0x70|                        41                     |        A       |                    opcode: "i32.const" (0x41) 0x78-0x79 (1)
0x70|                           00                  |         .      |                    n: 0 (valid) 0x79-0x7a (1)
    |                                               |                |                  [1]{}: in 0x7a-0x7c (2)
0x70|                              41               |          A     |                    opcode: "i32.const" (0x41) 0x7a-0x7b (1)
0x70|                                 00            |           .    |                    n: 0 (valid) 0x7b-0x7c (1)
    |                                               |                |                  [2]{}: in 0x7c-0x7e (2)
0x70|                                    20         |                |                    opcode: "local.get" (0x20) 0x7c-0x7d (1)
0x70|                                       00      |             .  |                    x: 0 (valid) 0x7d-0x7e (1)
    |                                               |                |                  [3]{}: in 0x7e-0x82 (4)
0x70|                                          fc   |              . |                    opcode: "prefix" (0xfc) 0x7e-0x7f (1)
0x70|                                             0c|               .|                    p_opcode: "table.init" (12) 0x7f-0x80 (1)
0x80|00                                             |.               |                    y: 0 (valid) 0x80-0x81 (1)
0x80|   00                                          | .              |                    x: 0 (valid) 0x81-0x82 (1)
    |                                               |                |                  [4]{}: in 0x82-0x83 (1)
0x80|      0b                                       |  .             |                    opcode: "end" (0xb) 0x82-0x83 (1)
    |                                               |                |            [3]{}: code 0x83-0x89 (6)
0x80|         05                                    |   .            |              size: 5 (valid) 0x83-0x84 (1)
    |                                               |                |              code{}: 0x84-0x89 (5)
    |                                               |                |                t{}: 0x84-0x85 (1)
0x80|            00                                 |    .           |                  n: 0 (valid) 0x84-0x85 (1)
    |                                               |                |                  x[0:0]: 0x85-0x85 (0)
    |                                               |                |                e[0:2]: 0x85-0x89 (4)
    |                                               |                |                  [0]{}: in 0x85-0x88 (3)
0x80|               fc                              |     .          |                    opcode: "prefix" (0xfc) 0x85-0x86 (1)
0x80|                  0d                           |      .         |                    p_opcode: "elem.drop" (13) 0x86-0x87 (1)
0x80|                     01                        |       .        |                    x: 1 (valid) 0x87-0x88 (1)
    |                                               |                |                  [1]{}: in 0x88-0x89 (1)
0x80|                        0b                     |        .       |                    opcode: "end" (0xb) 0x88-0x89 (1)
    |                                               |                |            [4]{}: code 0x89-0x96 (13)
0x80|                           0c                  |         .      |              size: 12 (valid) 0x89-0x8a (1)
    |                                               |                |              code{}: 0x8a-0x96 (12)
    |                                               |                |                t{}: 0x8a-0x8b (1)
0x80|                              00               |          .     |                  n: 0 (valid) 0x8a-0x8b (1)
    |                                               |                |                  x[0:0]: 0x8b-0x8b (0)
    |                                               |                |                e[0:5]: 0x8b-0x96 (11)
    |                                               |                |                  [0]{}: in 0x8b-0x8d (2)
0x80|                                 41            |           A    |                    opcode: "i32.const" (0x41) 0x8b-0x8c (1)
0x80|                                    00         |            .   |                    n: 0 (valid) 0x8c-0x8d (1)
    |                                               |                |                  [1]{}: in 0x8d-0x8f (2)
0x80|                                       41      |             A  |                    opcode: "i32.const" (0x41) 0x8d-0x8e (1)
0x80|                                          00   |              . |                    n: 0 (valid) 0x8e-0x8f (1)
    |                                               |                |                  [2]{}: in 0x8f-0x91 (2)
0x80|                                             20|                |                    opcode: "local.get" (0x20) 0x8f-0x90 (1)
0x90|00                                             |.               |                    x: 0 (valid) 0x90-0x91 (1)
    |                                               |                |                  [3]{}: in 0x91-0x95 (4)
0x90|   fc                                          | .              |                    opcode: "prefix" (0xfc) 0x91-0x92 (1)
0x90|      0c                                       |  .             |                    p_opcode: "table.init" (12) 0x92-0x93 (1)
0x90|         01                                    |   .            |                    y: 1 (valid) 0x93-0x94 (1)
0x90|            00                                 |    .           |                    x: 0 (valid) 0x94-0x95 (1)
    |                                               |                |                  [4]{}: in 0x95-0x96 (1)
0x90|               0b|                             |     .|         |                    opcode: "end" (0xb) 0x95-0x96 (1)
