$ fq -d wasm dv bulk-6.wasm
    |00 01 02 03 04 05 06 07 08 09 0a 0b 0c 0d 0e 0f|0123456789abcdef|.{}: bulk-6.wasm (wasm) 0x0-0xa4 (164)
0x00|00 61 73 6d                                    |.asm            |  magic: raw bits (valid) 0x0-0x4 (4)
0x00|            01 00 00 00                        |    ....        |  version: 1 0x4-0x8 (4)
    |                                               |                |  sections[0:5]: 0x8-0xa4 (156)
    |                                               |                |    [0]{}: section 0x8-0xe (6)
0x00|                        01                     |        .       |      id: "type_section" (1) 0x8-0x9 (1)
0x00|                           04                  |         .      |      size: 4 (valid) 0x9-0xa (1)
    |                                               |                |      content{}: 0xa-0xe (4)
    |                                               |                |        ft{}: 0xa-0xe (4)
0x00|                              01               |          .     |          n: 1 (valid) 0xa-0xb (1)
    |                                               |                |          x[0:1]: 0xb-0xe (3)
    |                                               |                |            [0]{}: ft 0xb-0xe (3)
0x00|                                 60            |           `    |              tag: 0x60 (valid) 0xb-0xc (1)
    |                                               |                |              rt1{}: 0xc-0xd (1)
0x00|                                    00         |            .   |                n: 0 (valid) 0xc-0xd (1)
    |                                               |                |                x[0:0]: 0xd-0xd (0)
    |                                               |                |              rt2{}: 0xd-0xe (1)
0x00|                                       00      |             .  |                n: 0 (valid) 0xd-0xe (1)
    |                                               |                |                x[0:0]: 0xe-0xe (0)
    |                                               |                |    [1]{}: section 0xe-0x12 (4)
0x00|                                          03   |              . |      id: "function_section" (3) 0xe-0xf (1)
0x00|                                             02|               .|      size: 2 (valid) 0xf-0x10 (1)
    |                                               |                |      content{}: 0x10-0x12 (2)
    |                                               |                |        x{}: 0x10-0x12 (2)
0x10|01                                             |.               |          n: 1 (valid) 0x10-0x11 (1)
    |                                               |                |          x[0:1]: 0x11-0x12 (1)
0x10|   00                                          | .              |            [0]: 0 x (valid) 0x11-0x12 (1)
    |                                               |                |    [2]{}: section 0x12-0x15 (3)
0x10|      0c                                       |  .             |      id: "data_count_section" (12) 0x12-0x13 (1)
0x10|         01                                    |   .            |      size: 1 (valid) 0x13-0x14 (1)
    |                                               |                |      content{}: 0x14-0x15 (1)
0x10|            41                                 |    A           |        n: 65 (valid) 0x14-0x15 (1)
    |                                               |                |    [3]{}: section 0x15-0x1e (9)
0x10|               0a                              |     .          |      id: "code_section" (10) 0x15-0x16 (1)
0x10|                  07                           |      .         |      size: 7 (valid) 0x16-0x17 (1)
    |                                               |                |      content{}: 0x17-0x1e (7)
    |                                               |                |        code{}: 0x17-0x1e (7)
0x10|                     01                        |       .        |          n: 1 (valid) 0x17-0x18 (1)
    |                                               |                |          x[0:1]: 0x18-0x1e (6)
    |                                               |                |            [0]{}: code 0x18-0x1e (6)
0x10|                        05                     |        .       |              size: 5 (valid) 0x18-0x19 (1)
    |                                               |                |              code{}: 0x19-0x1e (5)
    |                                               |                |                t{}: 0x19-0x1a (1)
0x10|                           00                  |         .      |                  n: 0 (valid) 0x19-0x1a (1)
    |                                               |                |                  x[0:0]: 0x1a-0x1a (0)
    |                                               |                |                e[0:2]: 0x1a-0x1e (4)
    |                                               |                |                  [0]{}: in 0x1a-0x1d (3)
0x10|                              fc               |          .     |                    opcode: "prefix" (0xfc) 0x1a-0x1b (1)
0x10|                                 09            |           .    |                    p_opcode: "data.drop" (9) 0x1b-0x1c (1)
0x10|                                    40         |            @   |                    x: 64 (valid) 0x1c-0x1d (1)
    |                                               |                |                  [1]{}: in 0x1d-0x1e (1)
0x10|                                       0b      |             .  |                    opcode: "end" (0xb) 0x1d-0x1e (1)
    |                                               |                |    [4]{}: section 0x1e-0xa4 (134)
0x10|                                          0b   |              . |      id: "data_section" (11) 0x1e-0x1f (1)
0x10|                                             83|               .|      size: 131 (valid) 0x1f-0x21 (2)
0x20|01                                             |.               |
    |                                               |                |      content{}: 0x21-0xa4 (131)
    |                                               |                |        seg{}: 0x21-0xa4 (131)
0x20|   41                                          | A              |          n: 65 (valid) 0x21-0x22 (1)
    |                                               |                |          x[0:65]: 0x22-0xa4 (130)
    |                                               |                |            [0]{}: seg 0x22-0x24 (2)
0x20|      01                                       |  .             |              tag: 1 (valid) 0x22-0x23 (1)
    |                                               |                |              b{}: 0x23-0x24 (1)
0x20|         00                                    |   .            |                n: 0 (valid) 0x23-0x24 (1)
    |                                               |                |                x: raw bits 0x24-0x24 (0)
    |                                               |                |            [1]{}: seg 0x24-0x26 (2)
0x20|            01                                 |    .           |              tag: 1 (valid) 0x24-0x25 (1)
    |                                               |                |              b{}: 0x25-0x26 (1)
0x20|               00                              |     .          |                n: 0 (valid) 0x25-0x26 (1)
    |                                               |                |                x: raw bits 0x26-0x26 (0)
    |                                               |                |            [2]{}: seg 0x26-0x28 (2)
0x20|                  01                           |      .         |              tag: 1 (valid) 0x26-0x27 (1)
    |                                               |                |              b{}: 0x27-0x28 (1)
0x20|                     00                        |       .        |                n: 0 (valid) 0x27-0x28 (1)
    |                                               |                |                x: raw bits 0x28-0x28 (0)
    |                                               |                |            [3]{}: seg 0x28-0x2a (2)
0x20|                        01                     |        .       |              tag: 1 (valid) 0x28-0x29 (1)
    |                                               |                |              b{}: 0x29-0x2a (1)
0x20|                           00                  |         .      |                n: 0 (valid) 0x29-0x2a (1)
    |                                               |                |                x: raw bits 0x2a-0x2a (0)
    |                                               |                |            [4]{}: seg 0x2a-0x2c (2)
0x20|                              01               |          .     |              tag: 1 (valid) 0x2a-0x2b (1)
    |                                               |                |              b{}: 0x2b-0x2c (1)
0x20|                                 00            |           .    |                n: 0 (valid) 0x2b-0x2c (1)
    |                                               |                |                x: raw bits 0x2c-0x2c (0)
    |                                               |                |            [5]{}: seg 0x2c-0x2e (2)
0x20|                                    01         |            .   |              tag: 1 (valid) 0x2c-0x2d (1)
    |                                               |                |              b{}: 0x2d-0x2e (1)
0x20|                                       00      |             .  |                n: 0 (valid) 0x2d-0x2e (1)
    |                                               |                |                x: raw bits 0x2e-0x2e (0)
    |                                               |                |            [6]{}: seg 0x2e-0x30 (2)
0x20|                                          01   |              . |              tag: 1 (valid) 0x2e-0x2f (1)
    |                                               |                |              b{}: 0x2f-0x30 (1)
0x20|                                             00|               .|                n: 0 (valid) 0x2f-0x30 (1)
    |                                               |                |                x: raw bits 0x30-0x30 (0)
    |                                               |                |            [7]{}: seg 0x30-0x32 (2)
0x30|01                                             |.               |              tag: 1 (valid) 0x30-0x31 (1)
    |                                               |                |              b{}: 0x31-0x32 (1)
0x30|   00                                          | .              |                n: 0 (valid) 0x31-0x32 (1)
    |                                               |                |                x: raw bits 0x32-0x32 (0)
    |                                               |                |            [8]{}: seg 0x32-0x34 (2)
0x30|      01                                       |  .             |              tag: 1 (valid) 0x32-0x33 (1)
    |                                               |                |              b{}: 0x33-0x34 (1)
0x30|         00                                    |   .            |                n: 0 (valid) 0x33-0x34 (1)
    |                                               |                |                x: raw bits 0x34-0x34 (0)
    |                                               |                |            [9]{}: seg 0x34-0x36 (2)
0x30|            01                                 |    .           |              tag: 1 (valid) 0x34-0x35 (1)
    |                                               |                |              b{}: 0x35-0x36 (1)
0x30|               00                              |     .          |                n: 0 (valid) 0x35-0x36 (1)
    |                                               |                |                x: raw bits 0x36-0x36 (0)
    |                                               |                |            [10]{}: seg 0x36-0x38 (2)
0x30|                  01                           |      .         |              tag: 1 (valid) 0x36-0x37 (1)
    |                                               |                |              b{}: 0x37-0x38 (1)
0x30|                     00                        |       .        |                n: 0 (valid) 0x37-0x38 (1)
    |                                               |                |                x: raw bits 0x38-0x38 (0)
    |                                               |                |            [11]{}: seg 0x38-0x3a (2)
0x30|                        01                     |        .       |              tag: 1 (valid) 0x38-0x39 (1)
    |                                               |                |              b{}: 0x39-0x3a (1)
0x30|                           00                  |         .      |                n: 0 (valid) 0x39-0x3a (1)
    |                                               |                |                x: raw bits 0x3a-0x3a (0)
    |                                               |                |            [12]{}: seg 0x3a-0x3c (2)
0x30|                              01               |          .     |              tag: 1 (valid) 0x3a-0x3b (1)
    |                                               |                |              b{}: 0x3b-0x3c (1)
0x30|                                 00            |           .    |                n: 0 (valid) 0x3b-0x3c (1)
    |                                               |                |                x: raw bits 0x3c-0x3c (0)
    |                                               |                |            [13]{}: seg 0x3c-0x3e (2)
0x30|                                    01         |            .   |              tag: 1 (valid) 0x3c-0x3d (1)
    |                                               |                |              b{}: 0x3d-0x3e (1)
0x30|                                       00      |             .  |                n: 0 (valid) 0x3d-0x3e (1)
    |                                               |                |                x: raw bits 0x3e-0x3e (0)
    |                                               |                |            [14]{}: seg 0x3e-0x40 (2)
0x30|                                          01   |              . |              tag: 1 (valid) 0x3e-0x3f (1)
    |                                               |                |              b{}: 0x3f-0x40 (1)
0x30|                                             00|               .|                n: 0 (valid) 0x3f-0x40 (1)
    |                                               |                |                x: raw bits 0x40-0x40 (0)
    |                                               |                |            [15]{}: seg 0x40-0x42 (2)
0x40|01                                             |.               |              tag: 1 (valid) 0x40-0x41 (1)
    |                                               |                |              b{}: 0x41-0x42 (1)
0x40|   00                                          | .              |                n: 0 (valid) 0x41-0x42 (1)
    |                                               |                |                x: raw bits 0x42-0x42 (0)
    |                                               |                |            [16]{}: seg 0x42-0x44 (2)
0x40|      01                                       |  .             |              tag: 1 (valid) 0x42-0x43 (1)
    |                                               |                |              b{}: 0x43-0x44 (1)
0x40|         00                                    |   .            |                n: 0 (valid) 0x43-0x44 (1)
    |                                               |                |                x: raw bits 0x44-0x44 (0)
    |                                               |                |            [17]{}: seg 0x44-0x46 (2)
0x40|            01                                 |    .           |              tag: 1 (valid) 0x44-0x45 (1)
    |                                               |                |              b{}: 0x45-0x46 (1)
0x40|               00                              |     .          |                n: 0 (valid) 0x45-0x46 (1)
    |                                               |                |                x: raw bits 0x46-0x46 (0)
    |                                               |                |            [18]{}: seg 0x46-0x48 (2)
0x40|                  01                           |      .         |              tag: 1 (valid) 0x46-0x47 (1)
    |                                               |                |              b{}: 0x47-0x48 (1)
0x40|                     00                        |       .        |                n: 0 (valid) 0x47-0x48 (1)
    |                                               |                |                x: raw bits 0x48-0x48 (0)
    |                                               |                |            [19]{}: seg 0x48-0x4a (2)
0x40|                        01                     |        .       |              tag: 1 (valid) 0x48-0x49 (1)
    |                                               |                |              b{}: 0x49-0x4a (1)
0x40|                           00                  |         .      |                n: 0 (valid) 0x49-0x4a (1)
    |                                               |                |                x: raw bits 0x4a-0x4a (0)
    |                                               |                |            [20]{}: seg 0x4a-0x4c (2)
0x40|                              01               |          .     |              tag: 1 (valid) 0x4a-0x4b (1)
    |                                               |                |              b{}: 0x4b-0x4c (1)
0x40|                                 00            |           .    |                n: 0 (valid) 0x4b-0x4c (1)
    |                                               |                |                x: raw bits 0x4c-0x4c (0)
    |                                               |                |            [21]{}: seg 0x4c-0x4e (2)
0x40|                                    01         |            .   |              tag: 1 (valid) 0x4c-0x4d (1)
    |                                               |                |              b{}: 0x4d-0x4e (1)
0x40|                                       00      |             .  |                n: 0 (valid) 0x4d-0x4e (1)
    |                                               |                |                x: raw bits 0x4e-0x4e (0)
    |                                               |                |            [22]{}: seg 0x4e-0x50 (2)
0x40|                                          01   |              . |              tag: 1 (valid) 0x4e-0x4f (1)
    |                                               |                |              b{}: 0x4f-0x50 (1)
0x40|                                             00|               .|                n: 0 (valid) 0x4f-0x50 (1)
    |                                               |                |                x: raw bits 0x50-0x50 (0)
    |                                               |                |            [23]{}: seg 0x50-0x52 (2)
0x50|01                                             |.               |              tag: 1 (valid) 0x50-0x51 (1)
    |                                               |                |              b{}: 0x51-0x52 (1)
0x50|   00                                          | .              |                n: 0 (valid) 0x51-0x52 (1)
    |                                               |                |                x: raw bits 0x52-0x52 (0)
    |                                               |                |            [24]{}: seg 0x52-0x54 (2)
0x50|      01                                       |  .             |              tag: 1 (valid) 0x52-0x53 (1)
    |                                               |                |              b{}: 0x53-0x54 (1)
0x50|         00                                    |   .            |                n: 0 (valid) 0x53-0x54 (1)
    |                                               |                |                x: raw bits 0x54-0x54 (0)
    |                                               |                |            [25]{}: seg 0x54-0x56 (2)
0x50|            01                                 |    .           |              tag: 1 (valid) 0x54-0x55 (1)
    |                                               |                |              b{}: 0x55-0x56 (1)
0x50|               00                              |     .          |                n: 0 (valid) 0x55-0x56 (1)
    |                                               |                |                x: raw bits 0x56-0x56 (0)
    |                                               |                |            [26]{}: seg 0x56-0x58 (2)
0x50|                  01                           |      .         |              tag: 1 (valid) 0x56-0x57 (1)
    |                                               |                |              b{}: 0x57-0x58 (1)
0x50|                     00                        |       .        |                n: 0 (valid) 0x57-0x58 (1)
    |                                               |                |                x: raw bits 0x58-0x58 (0)
    |                                               |                |            [27]{}: seg 0x58-0x5a (2)
0x50|                        01                     |        .       |              tag: 1 (valid) 0x58-0x59 (1)
    |                                               |                |              b{}: 0x59-0x5a (1)
0x50|                           00                  |         .      |                n: 0 (valid) 0x59-0x5a (1)
    |                                               |                |                x: raw bits 0x5a-0x5a (0)
    |                                               |                |            [28]{}: seg 0x5a-0x5c (2)
0x50|                              01               |          .     |              tag: 1 (valid) 0x5a-0x5b (1)
    |                                               |                |              b{}: 0x5b-0x5c (1)
0x50|                                 00            |           .    |                n: 0 (valid) 0x5b-0x5c (1)
    |                                               |                |                x: raw bits 0x5c-0x5c (0)
    |                                               |                |            [29]{}: seg 0x5c-0x5e (2)
0x50|                                    01         |            .   |              tag: 1 (valid) 0x5c-0x5d (1)
    |                                               |                |              b{}: 0x5d-0x5e (1)
0x50|                                       00      |             .  |                n: 0 (valid) 0x5d-0x5e (1)
    |                                               |                |                x: raw bits 0x5e-0x5e (0)
    |                                               |                |            [30]{}: seg 0x5e-0x60 (2)
0x50|                                          01   |              . |              tag: 1 (valid) 0x5e-0x5f (1)
    |                                               |                |              b{}: 0x5f-0x60 (1)
0x50|                                             00|               .|                n: 0 (valid) 0x5f-0x60 (1)
    |                                               |                |                x: raw bits 0x60-0x60 (0)
    |                                               |                |            [31]{}: seg 0x60-0x62 (2)
0x60|01                                             |.               |              tag: 1 (valid) 0x60-0x61 (1)
    |                                               |                |              b{}: 0x61-0x62 (1)
0x60|   00                                          | .              |                n: 0 (valid) 0x61-0x62 (1)
    |                                               |                |                x: raw bits 0x62-0x62 (0)
    |                                               |                |            [32]{}: seg 0x62-0x64 (2)
0x60|      01                                       |  .             |              tag: 1 (valid) 0x62-0x63 (1)
    |                                               |                |              b{}: 0x63-0x64 (1)
0x60|         00                                    |   .            |                n: 0 (valid) 0x63-0x64 (1)
    |                                               |                |                x: raw bits 0x64-0x64 (0)
    |                                               |                |            [33]{}: seg 0x64-0x66 (2)
0x60|            01                                 |    .           |              tag: 1 (valid) 0x64-0x65 (1)
    |                                               |                |              b{}: 0x65-0x66 (1)
0x60|               00                              |     .          |                n: 0 (valid) 0x65-0x66 (1)
    |                                               |                |                x: raw bits 0x66-0x66 (0)
    |                                               |                |            [34]{}: seg 0x66-0x68 (2)
0x60|                  01                           |      .         |              tag: 1 (valid) 0x66-0x67 (1)
    |                                               |                |              b{}: 0x67-0x68 (1)
0x60|                     00                        |       .        |                n: 0 (valid) 0x67-0x68 (1)
    |                                               |                |                x: raw bits 0x68-0x68 (0)
    |                                               |                |            [35]{}: seg 0x68-0x6a (2)
0x60|                        01                     |        .       |              tag: 1 (valid) 0x68-0x69 (1)
    |                                               |                |              b{}: 0x69-0x6a (1)
0x60|                           00                  |         .      |                n: 0 (valid) 0x69-0x6a (1)
    |                                               |                |                x: raw bits 0x6a-0x6a (0)
    |                                               |                |            [36]{}: seg 0x6a-0x6c (2)
0x60|                              01               |          .     |              tag: 1 (valid) 0x6a-0x6b (1)
    |                                               |                |              b{}: 0x6b-0x6c (1)
0x60|                                 00            |           .    |                n: 0 (valid) 0x6b-0x6c (1)
    |                                               |                |                x: raw bits 0x6c-0x6c (0)
    |                                               |                |            [37]{}: seg 0x6c-0x6e (2)
0x60|                                    01         |            .   |              tag: 1 (valid) 0x6c-0x6d (1)
    |                                               |                |              b{}: 0x6d-0x6e (1)
0x60|                                       00      |             .  |                n: 0 (valid) 0x6d-0x6e (1)
    |                                               |                |                x: raw bits 0x6e-0x6e (0)
    |                                               |                |            [38]{}: seg 0x6e-0x70 (2)
0x60|                                          01   |              . |              tag: 1 (valid) 0x6e-0x6f (1)
    |                                               |                |              b{}: 0x6f-0x70 (1)
0x60|                                             00|               .|                n: 0 (valid) 0x6f-0x70 (1)
    |                                               |                |                x: raw bits 0x70-0x70 (0)
    |                                               |                |            [39]{}: seg 0x70-0x72 (2)
0x70|01                                             |.               |              tag: 1 (valid) 0x70-0x71 (1)
    |                                               |                |              b{}: 0x71-0x72 (1)
0x70|   00                                          | .              |                n: 0 (valid) 0x71-0x72 (1)
    |                                               |                |                x: raw bits 0x72-0x72 (0)
    |                                               |                |            [40]{}: seg 0x72-0x74 (2)
0x70|      01                                       |  .             |              tag: 1 (valid) 0x72-0x73 (1)
    |                                               |                |              b{}: 0x73-0x74 (1)
0x70|         00                                    |   .            |                n: 0 (valid) 0x73-0x74 (1)
    |                                               |                |                x: raw bits 0x74-0x74 (0)
    |                                               |                |            [41]{}: seg 0x74-0x76 (2)
0x70|            01                                 |    .           |              tag: 1 (valid) 0x74-0x75 (1)
    |                                               |                |              b{}: 0x75-0x76 (1)
0x70|               00                              |     .          |                n: 0 (valid) 0x75-0x76 (1)
    |                                               |                |                x: raw bits 0x76-0x76 (0)
    |                                               |                |            [42]{}: seg 0x76-0x78 (2)
0x70|                  01                           |      .         |              tag: 1 (valid) 0x76-0x77 (1)
    |                                               |                |              b{}: 0x77-0x78 (1)
0x70|                     00                        |       .        |                n: 0 (valid) 0x77-0x78 (1)
    |                                               |                |                x: raw bits 0x78-0x78 (0)
    |                                               |                |            [43]{}: seg 0x78-0x7a (2)
0x70|                        01                     |        .       |              tag: 1 (valid) 0x78-0x79 (1)
    |                                               |                |              b{}: 0x79-0x7a (1)
0x70|                           00                  |         .      |                n: 0 (valid) 0x79-0x7a (1)
    |                                               |                |                x: raw bits 0x7a-0x7a (0)
    |                                               |                |            [44]{}: seg 0x7a-0x7c (2)
0x70|                              01               |          .     |              tag: 1 (valid) 0x7a-0x7b (1)
    |                                               |                |              b{}: 0x7b-0x7c (1)
0x70|                                 00            |           .    |                n: 0 (valid) 0x7b-0x7c (1)
    |                                               |                |                x: raw bits 0x7c-0x7c (0)
    |                                               |                |            [45]{}: seg 0x7c-0x7e (2)
0x70|                                    01         |            .   |              tag: 1 (valid) 0x7c-0x7d (1)
    |                                               |                |              b{}: 0x7d-0x7e (1)
0x70|                                       00      |             .  |                n: 0 (valid) 0x7d-0x7e (1)
    |                                               |                |                x: raw bits 0x7e-0x7e (0)
    |                                               |                |            [46]{}: seg 0x7e-0x80 (2)
0x70|                                          01   |              . |              tag: 1 (valid) 0x7e-0x7f (1)
    |                                               |                |              b{}: 0x7f-0x80 (1)
0x70|                                             00|               .|                n: 0 (valid) 0x7f-0x80 (1)
    |                                               |                |                x: raw bits 0x80-0x80 (0)
    |                                               |                |            [47]{}: seg 0x80-0x82 (2)
0x80|01                                             |.               |              tag: 1 (valid) 0x80-0x81 (1)
    |                                               |                |              b{}: 0x81-0x82 (1)
0x80|   00                                          | .              |                n: 0 (valid) 0x81-0x82 (1)
    |                                               |                |                x: raw bits 0x82-0x82 (0)
    |                                               |                |            [48]{}: seg 0x82-0x84 (2)
0x80|      01                                       |  .             |              tag: 1 (valid) 0x82-0x83 (1)
    |                                               |                |              b{}: 0x83-0x84 (1)
0x80|         00                                    |   .            |                n: 0 (valid) 0x83-0x84 (1)
    |                                               |                |                x: raw bits 0x84-0x84 (0)
    |                                               |                |            [49]{}: seg 0x84-0x86 (2)
0x80|            01                                 |    .           |              tag: 1 (valid) 0x84-0x85 (1)
    |                                               |                |              b{}: 0x85-0x86 (1)
0x80|               00                              |     .          |                n: 0 (valid) 0x85-0x86 (1)
    |                                               |                |                x: raw bits 0x86-0x86 (0)
    |                                               |                |            [50]{}: seg 0x86-0x88 (2)
0x80|                  01                           |      .         |              tag: 1 (valid) 0x86-0x87 (1)
    |                                               |                |              b{}: 0x87-0x88 (1)
0x80|                     00                        |       .        |                n: 0 (valid) 0x87-0x88 (1)
    |                                               |                |                x: raw bits 0x88-0x88 (0)
    |                                               |                |            [51]{}: seg 0x88-0x8a (2)
0x80|                        01                     |        .       |              tag: 1 (valid) 0x88-0x89 (1)
    |                                               |                |              b{}: 0x89-0x8a (1)
0x80|                           00                  |         .      |                n: 0 (valid) 0x89-0x8a (1)
    |                                               |                |                x: raw bits 0x8a-0x8a (0)
    |                                               |                |            [52]{}: seg 0x8a-0x8c (2)
0x80|                              01               |          .     |              tag: 1 (valid) 0x8a-0x8b (1)
    |                                               |                |              b{}: 0x8b-0x8c (1)
0x80|                                 00            |           .    |                n: 0 (valid) 0x8b-0x8c (1)
    |                                               |                |                x: raw bits 0x8c-0x8c (0)
    |                                               |                |            [53]{}: seg 0x8c-0x8e (2)
0x80|                                    01         |            .   |              tag: 1 (valid) 0x8c-0x8d (1)
    |                                               |                |              b{}: 0x8d-0x8e (1)
0x80|                                       00      |             .  |                n: 0 (valid) 0x8d-0x8e (1)
    |                                               |                |                x: raw bits 0x8e-0x8e (0)
    |                                               |                |            [54]{}: seg 0x8e-0x90 (2)
0x80|                                          01   |              . |              tag: 1 (valid) 0x8e-0x8f (1)
    |                                               |                |              b{}: 0x8f-0x90 (1)
0x80|                                             00|               .|                n: 0 (valid) 0x8f-0x90 (1)
    |                                               |                |                x: raw bits 0x90-0x90 (0)
    |                                               |                |            [55]{}: seg 0x90-0x92 (2)
0x90|01                                             |.               |              tag: 1 (valid) 0x90-0x91 (1)
    |                                               |                |              b{}: 0x91-0x92 (1)
0x90|   00                                          | .              |                n: 0 (valid) 0x91-0x92 (1)
    |                                               |                |                x: raw bits 0x92-0x92 (0)
    |                                               |                |            [56]{}: seg 0x92-0x94 (2)
0x90|      01                                       |  .             |              tag: 1 (valid) 0x92-0x93 (1)
    |                                               |                |              b{}: 0x93-0x94 (1)
0x90|         00                                    |   .            |                n: 0 (valid) 0x93-0x94 (1)
    |                                               |                |                x: raw bits 0x94-0x94 (0)
    |                                               |                |            [57]{}: seg 0x94-0x96 (2)
0x90|            01                                 |    .           |              tag: 1 (valid) 0x94-0x95 (1)
    |                                               |                |              b{}: 0x95-0x96 (1)
0x90|               00                              |     .          |                n: 0 (valid) 0x95-0x96 (1)
    |                                               |                |                x: raw bits 0x96-0x96 (0)
    |                                               |                |            [58]{}: seg 0x96-0x98 (2)
0x90|                  01                           |      .         |              tag: 1 (valid) 0x96-0x97 (1)
    |                                               |                |              b{}: 0x97-0x98 (1)
0x90|                     00                        |       .        |                n: 0 (valid) 0x97-0x98 (1)
    |                                               |                |                x: raw bits 0x98-0x98 (0)
    |                                               |                |            [59]{}: seg 0x98-0x9a (2)
0x90|                        01                     |        .       |              tag: 1 (valid) 0x98-0x99 (1)
    |                                               |                |              b{}: 0x99-0x9a (1)
0x90|                           00                  |         .      |                n: 0 (valid) 0x99-0x9a (1)
    |                                               |                |                x: raw bits 0x9a-0x9a (0)
    |                                               |                |            [60]{}: seg 0x9a-0x9c (2)
0x90|                              01               |          .     |              tag: 1 (valid) 0x9a-0x9b (1)
    |                                               |                |              b{}: 0x9b-0x9c (1)
0x90|                                 00            |           .    |                n: 0 (valid) 0x9b-0x9c (1)
    |                                               |                |                x: raw bits 0x9c-0x9c (0)
    |                                               |                |            [61]{}: seg 0x9c-0x9e (2)
0x90|                                    01         |            .   |              tag: 1 (valid) 0x9c-0x9d (1)
    |                                               |                |              b{}: 0x9d-0x9e (1)
0x90|                                       00      |             .  |                n: 0 (valid) 0x9d-0x9e (1)
    |                                               |                |                x: raw bits 0x9e-0x9e (0)
    |                                               |                |            [62]{}: seg 0x9e-0xa0 (2)
0x90|                                          01   |              . |              tag: 1 (valid) 0x9e-0x9f (1)
    |                                               |                |              b{}: 0x9f-0xa0 (1)
0x90|                                             00|               .|                n: 0 (valid) 0x9f-0xa0 (1)
    |                                               |                |                x: raw bits 0xa0-0xa0 (0)
    |                                               |                |            [63]{}: seg 0xa0-0xa2 (2)
0xa0|01                                             |.               |              tag: 1 (valid) 0xa0-0xa1 (1)
    |                                               |                |              b{}: 0xa1-0xa2 (1)
0xa0|   00                                          | .              |                n: 0 (valid) 0xa1-0xa2 (1)
    |                                               |                |                x: raw bits 0xa2-0xa2 (0)
    |                                               |                |            [64]{}: seg 0xa2-0xa4 (2)
0xa0|      01                                       |  .             |              tag: 1 (valid) 0xa2-0xa3 (1)
    |                                               |                |              b{}: 0xa3-0xa4 (1)
0xa0|         00|                                   |   .|           |                n: 0 (valid) 0xa3-0xa4 (1)
    |                                               |                |                x: raw bits 0xa4-0xa4 (0)
