$ fq -d wasm dv bulk-12.wasm
    |00 01 02 03 04 05 06 07 08 09 0a 0b 0c 0d 0e 0f|0123456789abcdef|.{}: bulk-12.wasm (wasm) 0x0-0x6a.7 (107)
0x00|00 61 73 6d                                    |.asm            |  magic: raw bits (valid) 0x0-0x3.7 (4)
0x00|            01 00 00 00                        |    ....        |  version: 1 0x4-0x7.7 (4)
    |                                               |                |  sections[0:6]: 0x8-0x6a.7 (99)
    |                                               |                |    [0]{}: section 0x8-0x19.7 (18)
0x00|                        01                     |        .       |      id: "type section" (1) 0x8-0x8.7 (1)
0x00|                           10                  |         .      |      size: 16 0x9-0x9.7 (1)
    |                                               |                |      content{}: 0xa-0x19.7 (16)
    |                                               |                |        ft{}: 0xa-0x19.7 (16)
0x00|                              03               |          .     |          n: 3 0xa-0xa.7 (1)
    |                                               |                |          x[0:3]: 0xb-0x19.7 (15)
    |                                               |                |            [0]{}: ft 0xb-0xe.7 (4)
0x00|                                 60            |           `    |              tag: 0x60 (valid) 0xb-0xb.7 (1)
    |                                               |                |              rt1{}: 0xc-0xc.7 (1)
0x00|                                    00         |            .   |                n: 0 0xc-0xc.7 (1)
    |                                               |                |                x[0:0]: 0xd-NA (0)
    |                                               |                |              rt2{}: 0xd-0xe.7 (2)
0x00|                                       01      |             .  |                n: 1 0xd-0xd.7 (1)
    |                                               |                |                x[0:1]: 0xe-0xe.7 (1)
0x00|                                          7f   |              . |                  [0]: "i32" (0x7f) t 0xe-0xe.7 (1)
    |                                               |                |            [1]{}: ft 0xf-0x14.7 (6)
0x00|                                             60|               `|              tag: 0x60 (valid) 0xf-0xf.7 (1)
    |                                               |                |              rt1{}: 0x10-0x13.7 (4)
0x10|03                                             |.               |                n: 3 0x10-0x10.7 (1)
    |                                               |                |                x[0:3]: 0x11-0x13.7 (3)
0x10|   7f                                          | .              |                  [0]: "i32" (0x7f) t 0x11-0x11.7 (1)
0x10|      7f                                       |  .             |                  [1]: "i32" (0x7f) t 0x12-0x12.7 (1)
0x10|         7f                                    |   .            |                  [2]: "i32" (0x7f) t 0x13-0x13.7 (1)
    |                                               |                |              rt2{}: 0x14-0x14.7 (1)
0x10|            00                                 |    .           |                n: 0 0x14-0x14.7 (1)
    |                                               |                |                x[0:0]: 0x15-NA (0)
    |                                               |                |            [2]{}: ft 0x15-0x19.7 (5)
0x10|               60                              |     `          |              tag: 0x60 (valid) 0x15-0x15.7 (1)
    |                                               |                |              rt1{}: 0x16-0x17.7 (2)
0x10|                  01                           |      .         |                n: 1 0x16-0x16.7 (1)
    |                                               |                |                x[0:1]: 0x17-0x17.7 (1)
0x10|                     7f                        |       .        |                  [0]: "i32" (0x7f) t 0x17-0x17.7 (1)
    |                                               |                |              rt2{}: 0x18-0x19.7 (2)
0x10|                        01                     |        .       |                n: 1 0x18-0x18.7 (1)
    |                                               |                |                x[0:1]: 0x19-0x19.7 (1)
0x10|                           7f                  |         .      |                  [0]: "i32" (0x7f) t 0x19-0x19.7 (1)
    |                                               |                |    [1]{}: section 0x1a-0x21.7 (8)
0x10|                              03               |          .     |      id: "function section" (3) 0x1a-0x1a.7 (1)
0x10|                                 06            |           .    |      size: 6 0x1b-0x1b.7 (1)
    |                                               |                |      content{}: 0x1c-0x21.7 (6)
    |                                               |                |        x{}: 0x1c-0x21.7 (6)
0x10|                                    05         |            .   |          n: 5 0x1c-0x1c.7 (1)
    |                                               |                |          x[0:5]: 0x1d-0x21.7 (5)
0x10|                                       00      |             .  |            [0]: 0 x 0x1d-0x1d.7 (1)
0x10|                                          00   |              . |            [1]: 0 x 0x1e-0x1e.7 (1)
0x10|                                             00|               .|            [2]: 0 x 0x1f-0x1f.7 (1)
0x20|01                                             |.               |            [3]: 1 x 0x20-0x20.7 (1)
0x20|   02                                          | .              |            [4]: 2 x 0x21-0x21.7 (1)
    |                                               |                |    [2]{}: section 0x22-0x27.7 (6)
0x20|      04                                       |  .             |      id: "table section" (4) 0x22-0x22.7 (1)
0x20|         04                                    |   .            |      size: 4 0x23-0x23.7 (1)
    |                                               |                |      content{}: 0x24-0x27.7 (4)
    |                                               |                |        tab{}: 0x24-0x27.7 (4)
0x20|            01                                 |    .           |          n: 1 0x24-0x24.7 (1)
    |                                               |                |          x[0:1]: 0x25-0x27.7 (3)
    |                                               |                |            [0]{}: tab 0x25-0x27.7 (3)
0x20|               70                              |     p          |              et: "funcref" (112) 0x25-0x25.7 (1)
    |                                               |                |              lim{}: 0x26-0x27.7 (2)
0x20|                  00                           |      .         |                tag: 0x0 0x26-0x26.7 (1)
0x20|                     0a                        |       .        |                n: 10 0x27-0x27.7 (1)
    |                                               |                |    [3]{}: section 0x28-0x38.7 (17)
0x20|                        07                     |        .       |      id: "export section" (7) 0x28-0x28.7 (1)
0x20|                           0f                  |         .      |      size: 15 0x29-0x29.7 (1)
    |                                               |                |      content{}: 0x2a-0x38.7 (15)
    |                                               |                |        ex{}: 0x2a-0x38.7 (15)
0x20|                              02               |          .     |          n: 2 0x2a-0x2a.7 (1)
    |                                               |                |          x[0:2]: 0x2b-0x38.7 (14)
    |                                               |                |            [0]{}: ex 0x2b-0x31.7 (7)
    |                                               |                |              nm{}: 0x2b-0x2f.7 (5)
0x20|                                 04            |           .    |                n: 4 0x2b-0x2b.7 (1)
0x20|                                    63 6f 70 79|            copy|                b: "copy" 0x2c-0x2f.7 (4)
    |                                               |                |              d{}: 0x30-0x31.7 (2)
0x30|00                                             |.               |                tag: "funcidx" (0x0) 0x30-0x30.7 (1)
0x30|   03                                          | .              |                x: 3 0x31-0x31.7 (1)
    |                                               |                |            [1]{}: ex 0x32-0x38.7 (7)
    |                                               |                |              nm{}: 0x32-0x36.7 (5)
0x30|      04                                       |  .             |                n: 4 0x32-0x32.7 (1)
0x30|         63 61 6c 6c                           |   call         |                b: "call" 0x33-0x36.7 (4)
    |                                               |                |              d{}: 0x37-0x38.7 (2)
0x30|                     00                        |       .        |                tag: "funcidx" (0x0) 0x37-0x37.7 (1)
0x30|                        04                     |        .       |                x: 4 0x38-0x38.7 (1)
    |                                               |                |    [4]{}: section 0x39-0x43.7 (11)
0x30|                           09                  |         .      |      id: "element section" (9) 0x39-0x39.7 (1)
0x30|                              09               |          .     |      size: 9 0x3a-0x3a.7 (1)
    |                                               |                |      element{}: 0x3b-0x43.7 (9)
    |                                               |                |        seg{}: 0x3b-0x43.7 (9)
0x30|                                 01            |           .    |          n: 1 0x3b-0x3b.7 (1)
    |                                               |                |          x[0:1]: 0x3c-0x43.7 (8)
    |                                               |                |            [0]{}: seg 0x3c-0x43.7 (8)
0x30|                                    00         |            .   |              tag: 0 0x3c-0x3c.7 (1)
    |                                               |                |              e[0:2]: 0x3d-0x3f.7 (3)
    |                                               |                |                [0]{}: in 0x3d-0x3e.7 (2)
0x30|                                       41      |             A  |                  i32.const: 0x41 (valid) 0x3d-0x3d.7 (1)
0x30|                                          00   |              . |                  n: 0 0x3e-0x3e.7 (1)
    |                                               |                |                [1]{}: in 0x3f-0x3f.7 (1)
0x30|                                             0b|               .|                  end: 0xb (valid) 0x3f-0x3f.7 (1)
    |                                               |                |              y{}: 0x40-0x43.7 (4)
0x40|03                                             |.               |                n: 3 0x40-0x40.7 (1)
    |                                               |                |                x[0:3]: 0x41-0x43.7 (3)
0x40|   00                                          | .              |                  [0]: 0 y 0x41-0x41.7 (1)
0x40|      01                                       |  .             |                  [1]: 1 y 0x42-0x42.7 (1)
0x40|         02                                    |   .            |                  [2]: 2 y 0x43-0x43.7 (1)
    |                                               |                |    [5]{}: section 0x44-0x6a.7 (39)
0x40|            0a                                 |    .           |      id: "code section" (10) 0x44-0x44.7 (1)
0x40|               25                              |     %          |      size: 37 0x45-0x45.7 (1)
    |                                               |                |      content{}: 0x46-0x6a.7 (37)
    |                                               |                |        code{}: 0x46-0x6a.7 (37)
0x40|                  05                           |      .         |          n: 5 0x46-0x46.7 (1)
    |                                               |                |          x[0:5]: 0x47-0x6a.7 (36)
    |                                               |                |            [0]{}: code 0x47-0x4b.7 (5)
0x40|                     04                        |       .        |              size: 4 0x47-0x47.7 (1)
    |                                               |                |              code{}: 0x48-0x4b.7 (4)
    |                                               |                |                t{}: 0x48-0x48.7 (1)
0x40|                        00                     |        .       |                  n: 0 0x48-0x48.7 (1)
    |                                               |                |                  x[0:0]: 0x49-NA (0)
    |                                               |                |                e[0:2]: 0x49-0x4b.7 (3)
    |                                               |                |                  [0]{}: in 0x49-0x4a.7 (2)
0x40|                           41                  |         A      |                    i32.const: 0x41 (valid) 0x49-0x49.7 (1)
0x40|                              00               |          .     |                    n: 0 0x4a-0x4a.7 (1)
    |                                               |                |                  [1]{}: in 0x4b-0x4b.7 (1)
0x40|                                 0b            |           .    |                    end: 0xb (valid) 0x4b-0x4b.7 (1)
    |                                               |                |            [1]{}: code 0x4c-0x50.7 (5)
0x40|                                    04         |            .   |              size: 4 0x4c-0x4c.7 (1)
    |                                               |                |              code{}: 0x4d-0x50.7 (4)
    |                                               |                |                t{}: 0x4d-0x4d.7 (1)
0x40|                                       00      |             .  |                  n: 0 0x4d-0x4d.7 (1)
    |                                               |                |                  x[0:0]: 0x4e-NA (0)
    |                                               |                |                e[0:2]: 0x4e-0x50.7 (3)
    |                                               |                |                  [0]{}: in 0x4e-0x4f.7 (2)
0x40|                                          41   |              A |                    i32.const: 0x41 (valid) 0x4e-0x4e.7 (1)
0x40|                                             01|               .|                    n: 1 0x4f-0x4f.7 (1)
    |                                               |                |                  [1]{}: in 0x50-0x50.7 (1)
0x50|0b                                             |.               |                    end: 0xb (valid) 0x50-0x50.7 (1)
    |                                               |                |            [2]{}: code 0x51-0x55.7 (5)
0x50|   04                                          | .              |              size: 4 0x51-0x51.7 (1)
    |                                               |                |              code{}: 0x52-0x55.7 (4)
    |                                               |                |                t{}: 0x52-0x52.7 (1)
0x50|      00                                       |  .             |                  n: 0 0x52-0x52.7 (1)
    |                                               |                |                  x[0:0]: 0x53-NA (0)
    |                                               |                |                e[0:2]: 0x53-0x55.7 (3)
    |                                               |                |                  [0]{}: in 0x53-0x54.7 (2)
0x50|         41                                    |   A            |                    i32.const: 0x41 (valid) 0x53-0x53.7 (1)
0x50|            02                                 |    .           |                    n: 2 0x54-0x54.7 (1)
    |                                               |                |                  [1]{}: in 0x55-0x55.7 (1)
0x50|               0b                              |     .          |                    end: 0xb (valid) 0x55-0x55.7 (1)
    |                                               |                |            [3]{}: code 0x56-0x62.7 (13)
0x50|                  0c                           |      .         |              size: 12 0x56-0x56.7 (1)
    |                                               |                |              code{}: 0x57-0x62.7 (12)
    |                                               |                |                t{}: 0x57-0x57.7 (1)
0x50|                     00                        |       .        |                  n: 0 0x57-0x57.7 (1)
    |                                               |                |                  x[0:0]: 0x58-NA (0)
    |                                               |                |                e[0:5]: 0x58-0x62.7 (11)
    |                                               |                |                  [0]{}: in 0x58-0x59.7 (2)
0x50|                        20                     |                |                    local.get: 0x20 (valid) 0x58-0x58.7 (1)
0x50|                           00                  |         .      |                    x: 0 0x59-0x59.7 (1)
    |                                               |                |                  [1]{}: in 0x5a-0x5b.7 (2)
0x50|                              20               |                |                    local.get: 0x20 (valid) 0x5a-0x5a.7 (1)
0x50|                                 01            |           .    |                    x: 1 0x5b-0x5b.7 (1)
    |                                               |                |                  [2]{}: in 0x5c-0x5d.7 (2)
0x50|                                    20         |                |                    local.get: 0x20 (valid) 0x5c-0x5c.7 (1)
0x50|                                       02      |             .  |                    x: 2 0x5d-0x5d.7 (1)
    |                                               |                |                  [3]{}: in 0x5e-0x61.7 (4)
0x50|                                          fc   |              . |                    prefix: 0xfc (valid) 0x5e-0x5e.7 (1)
0x50|                                             0e|               .|                    table.copy: 14 (valid) 0x5f-0x5f.7 (1)
0x60|00                                             |.               |                    x: 0 0x60-0x60.7 (1)
0x60|   00                                          | .              |                    y: 0 0x61-0x61.7 (1)
    |                                               |                |                  [4]{}: in 0x62-0x62.7 (1)
0x60|      0b                                       |  .             |                    end: 0xb (valid) 0x62-0x62.7 (1)
    |                                               |                |            [4]{}: code 0x63-0x6a.7 (8)
0x60|         07                                    |   .            |              size: 7 0x63-0x63.7 (1)
    |                                               |                |              code{}: 0x64-0x6a.7 (7)
    |                                               |                |                t{}: 0x64-0x64.7 (1)
0x60|            00                                 |    .           |                  n: 0 0x64-0x64.7 (1)
    |                                               |                |                  x[0:0]: 0x65-NA (0)
    |                                               |                |                e[0:3]: 0x65-0x6a.7 (6)
    |                                               |                |                  [0]{}: in 0x65-0x66.7 (2)
0x60|               20                              |                |                    local.get: 0x20 (valid) 0x65-0x65.7 (1)
0x60|                  00                           |      .         |                    x: 0 0x66-0x66.7 (1)
    |                                               |                |                  [1]{}: in 0x67-0x69.7 (3)
0x60|                     11                        |       .        |                    call: 0x11 (valid) 0x67-0x67.7 (1)
0x60|                        00                     |        .       |                    y: 0 0x68-0x68.7 (1)
0x60|                           00                  |         .      |                    x: 0 0x69-0x69.7 (1)
    |                                               |                |                  [2]{}: in 0x6a-0x6a.7 (1)
0x60|                              0b|              |          .|    |                    end: 0xb (valid) 0x6a-0x6a.7 (1)
