$ fq -d wasm dv bulk-2.wasm
    |00 01 02 03 04 05 06 07 08 09 0a 0b 0c 0d 0e 0f|0123456789abcdef|.{}: bulk-2.wasm (wasm) 0x0-0x4b (75)
0x00|00 61 73 6d                                    |.asm            |  magic: raw bits (valid) 0x0-0x4 (4)
0x00|            01 00 00 00                        |    ....        |  version: 1 0x4-0x8 (4)
    |                                               |                |  sections[0:5]: 0x8-0x4b (67)
    |                                               |                |    [0]{}: section 0x8-0x16 (14)
0x00|                        01                     |        .       |      id: "type_section" (1) 0x8-0x9 (1)
0x00|                           0c                  |         .      |      size: 12 (valid) 0x9-0xa (1)
    |                                               |                |      content{}: 0xa-0x16 (12)
    |                                               |                |        ft{}: 0xa-0x16 (12)
0x00|                              02               |          .     |          n: 2 (valid) 0xa-0xb (1)
    |                                               |                |          x[0:2]: 0xb-0x16 (11)
    |                                               |                |            [0]{}: ft 0xb-0x11 (6)
0x00|                                 60            |           `    |              tag: 0x60 (valid) 0xb-0xc (1)
    |                                               |                |              rt1{}: 0xc-0x10 (4)
0x00|                                    03         |            .   |                n: 3 (valid) 0xc-0xd (1)
    |                                               |                |                x[0:3]: 0xd-0x10 (3)
0x00|                                       7f      |             .  |                  [0]: "i32" (0x7f) t 0xd-0xe (1)
0x00|                                          7f   |              . |                  [1]: "i32" (0x7f) t 0xe-0xf (1)
0x00|                                             7f|               .|                  [2]: "i32" (0x7f) t 0xf-0x10 (1)
    |                                               |                |              rt2{}: 0x10-0x11 (1)
0x10|00                                             |.               |                n: 0 (valid) 0x10-0x11 (1)
    |                                               |                |                x[0:0]: 0x11-0x11 (0)
    |                                               |                |            [1]{}: ft 0x11-0x16 (5)
0x10|   60                                          | `              |              tag: 0x60 (valid) 0x11-0x12 (1)
    |                                               |                |              rt1{}: 0x12-0x14 (2)
0x10|      01                                       |  .             |                n: 1 (valid) 0x12-0x13 (1)
    |                                               |                |                x[0:1]: 0x13-0x14 (1)
0x10|         7f                                    |   .            |                  [0]: "i32" (0x7f) t 0x13-0x14 (1)
    |                                               |                |              rt2{}: 0x14-0x16 (2)
0x10|            01                                 |    .           |                n: 1 (valid) 0x14-0x15 (1)
    |                                               |                |                x[0:1]: 0x15-0x16 (1)
0x10|               7f                              |     .          |                  [0]: "i32" (0x7f) t 0x15-0x16 (1)
    |                                               |                |    [1]{}: section 0x16-0x1b (5)
0x10|                  03                           |      .         |      id: "function_section" (3) 0x16-0x17 (1)
0x10|                     03                        |       .        |      size: 3 (valid) 0x17-0x18 (1)
    |                                               |                |      content{}: 0x18-0x1b (3)
    |                                               |                |        x{}: 0x18-0x1b (3)
0x10|                        02                     |        .       |          n: 2 (valid) 0x18-0x19 (1)
    |                                               |                |          x[0:2]: 0x19-0x1b (2)
0x10|                           00                  |         .      |            [0]: 0 x (valid) 0x19-0x1a (1)
0x10|                              01               |          .     |            [1]: 1 x (valid) 0x1a-0x1b (1)
    |                                               |                |    [2]{}: section 0x1b-0x20 (5)
0x10|                                 05            |           .    |      id: "memory_section" (5) 0x1b-0x1c (1)
0x10|                                    03         |            .   |      size: 3 (valid) 0x1c-0x1d (1)
    |                                               |                |      content{}: 0x1d-0x20 (3)
    |                                               |                |        mem{}: 0x1d-0x20 (3)
0x10|                                       01      |             .  |          n: 1 (valid) 0x1d-0x1e (1)
    |                                               |                |          x[0:1]: 0x1e-0x20 (2)
    |                                               |                |            [0]{}: mem 0x1e-0x20 (2)
    |                                               |                |              lim{}: 0x1e-0x20 (2)
0x10|                                          00   |              . |                tag: 0x0 0x1e-0x1f (1)
0x10|                                             01|               .|                n: 1 (valid) 0x1f-0x20 (1)
    |                                               |                |    [3]{}: section 0x20-0x34 (20)
0x20|07                                             |.               |      id: "export_section" (7) 0x20-0x21 (1)
0x20|   12                                          | .              |      size: 18 (valid) 0x21-0x22 (1)
    |                                               |                |      content{}: 0x22-0x34 (18)
    |                                               |                |        ex{}: 0x22-0x34 (18)
0x20|      02                                       |  .             |          n: 2 (valid) 0x22-0x23 (1)
    |                                               |                |          x[0:2]: 0x23-0x34 (17)
    |                                               |                |            [0]{}: ex 0x23-0x2a (7)
    |                                               |                |              nm{}: 0x23-0x28 (5)
0x20|         04                                    |   .            |                n: 4 (valid) 0x23-0x24 (1)
0x20|            66 69 6c 6c                        |    fill        |                b: "fill" 0x24-0x28 (4)
    |                                               |                |              d{}: 0x28-0x2a (2)
0x20|                        00                     |        .       |                tag: "funcidx" (0x0) 0x28-0x29 (1)
0x20|                           00                  |         .      |                x: 0 (valid) 0x29-0x2a (1)
    |                                               |                |            [1]{}: ex 0x2a-0x34 (10)
    |                                               |                |              nm{}: 0x2a-0x32 (8)
0x20|                              07               |          .     |                n: 7 (valid) 0x2a-0x2b (1)
0x20|                                 6c 6f 61 64 38|           load8|                b: "load8_u" 0x2b-0x32 (7)
0x30|5f 75                                          |_u              |
    |                                               |                |              d{}: 0x32-0x34 (2)
0x30|      00                                       |  .             |                tag: "funcidx" (0x0) 0x32-0x33 (1)
0x30|         01                                    |   .            |                x: 1 (valid) 0x33-0x34 (1)
    |                                               |                |    [4]{}: section 0x34-0x4b (23)
0x30|            0a                                 |    .           |      id: "code_section" (10) 0x34-0x35 (1)
0x30|               15                              |     .          |      size: 21 (valid) 0x35-0x36 (1)
    |                                               |                |      content{}: 0x36-0x4b (21)
    |                                               |                |        code{}: 0x36-0x4b (21)
0x30|                  02                           |      .         |          n: 2 (valid) 0x36-0x37 (1)
    |                                               |                |          x[0:2]: 0x37-0x4b (20)
    |                                               |                |            [0]{}: code 0x37-0x43 (12)
0x30|                     0b                        |       .        |              size: 11 (valid) 0x37-0x38 (1)
    |                                               |                |              code{}: 0x38-0x43 (11)
    |                                               |                |                t{}: 0x38-0x39 (1)
0x30|                        00                     |        .       |                  n: 0 (valid) 0x38-0x39 (1)
    |                                               |                |                  x[0:0]: 0x39-0x39 (0)
    |                                               |                |                e[0:5]: 0x39-0x43 (10)
    |                                               |                |                  [0]{}: in 0x39-0x3b (2)
0x30|                           20                  |                |                    opcode: "local.get" (0x20) 0x39-0x3a (1)
0x30|                              00               |          .     |                    x: 0 (valid) 0x3a-0x3b (1)
    |                                               |                |                  [1]{}: in 0x3b-0x3d (2)
0x30|                                 20            |                |                    opcode: "local.get" (0x20) 0x3b-0x3c (1)
0x30|                                    01         |            .   |                    x: 1 (valid) 0x3c-0x3d (1)
    |                                               |                |                  [2]{}: in 0x3d-0x3f (2)
0x30|                                       20      |                |                    opcode: "local.get" (0x20) 0x3d-0x3e (1)
0x30|                                          02   |              . |                    x: 2 (valid) 0x3e-0x3f (1)
    |                                               |                |                  [3]{}: in 0x3f-0x42 (3)
0x30|                                             fc|               .|                    opcode: "prefix" (0xfc) 0x3f-0x40 (1)
0x40|0b                                             |.               |                    p_opcode: "memory.fill" (11) 0x40-0x41 (1)
0x40|   00                                          | .              |                    reserved: 0x0 (valid) 0x41-0x42 (1)
    |                                               |                |                  [4]{}: in 0x42-0x43 (1)
0x40|      0b                                       |  .             |                    opcode: "end" (0xb) 0x42-0x43 (1)
    |                                               |                |            [1]{}: code 0x43-0x4b (8)
0x40|         07                                    |   .            |              size: 7 (valid) 0x43-0x44 (1)
    |                                               |                |              code{}: 0x44-0x4b (7)
    |                                               |                |                t{}: 0x44-0x45 (1)
0x40|            00                                 |    .           |                  n: 0 (valid) 0x44-0x45 (1)
    |                                               |                |                  x[0:0]: 0x45-0x45 (0)
    |                                               |                |                e[0:3]: 0x45-0x4b (6)
    |                                               |                |                  [0]{}: in 0x45-0x47 (2)
0x40|               20                              |                |                    opcode: "local.get" (0x20) 0x45-0x46 (1)
0x40|                  00                           |      .         |                    x: 0 (valid) 0x46-0x47 (1)
    |                                               |                |                  [1]{}: in 0x47-0x4a (3)
0x40|                     2d                        |       -        |                    opcode: "i32.load8_u" (0x2d) 0x47-0x48 (1)
    |                                               |                |                    m{}: 0x48-0x4a (2)
0x40|                        00                     |        .       |                      a: 0 (valid) 0x48-0x49 (1)
0x40|                           00                  |         .      |                      o: 0 (valid) 0x49-0x4a (1)
    |                                               |                |                  [2]{}: in 0x4a-0x4b (1)
0x40|                              0b|              |          .|    |                    opcode: "end" (0xb) 0x4a-0x4b (1)
