$ fq -d wasm dv bulk-5.wasm
    |00 01 02 03 04 05 06 07 08 09 0a 0b 0c 0d 0e 0f|0123456789abcdef|.{}: bulk-5.wasm (wasm) 0x0-0x92.7 (147)
0x00|00 61 73 6d                                    |.asm            |  magic: raw bits (valid) 0x0-0x3.7 (4)
0x00|            01 00 00 00                        |    ....        |  version: 1 0x4-0x7.7 (4)
    |                                               |                |  sections[0:7]: 0x8-0x92.7 (139)
    |                                               |                |    [0]{}: section 0x8-0x11.7 (10)
0x00|                        01                     |        .       |      id: "type section" (1) 0x8-0x8.7 (1)
0x00|                           08                  |         .      |      size: 8 0x9-0x9.7 (1)
    |                                               |                |      content{}: 0xa-0x11.7 (8)
    |                                               |                |        ft{}: 0xa-0x11.7 (8)
0x00|                              02               |          .     |          n: 2 0xa-0xa.7 (1)
    |                                               |                |          x[0:2]: 0xb-0x11.7 (7)
    |                                               |                |            [0]{}: ft 0xb-0xd.7 (3)
0x00|                                 60            |           `    |              tag: 0x60 (valid) 0xb-0xb.7 (1)
    |                                               |                |              rt1{}: 0xc-0xc.7 (1)
0x00|                                    00         |            .   |                n: 0 0xc-0xc.7 (1)
    |                                               |                |                x[0:0]: 0xd-NA (0)
    |                                               |                |              rt2{}: 0xd-0xd.7 (1)
0x00|                                       00      |             .  |                n: 0 0xd-0xd.7 (1)
    |                                               |                |                x[0:0]: 0xe-NA (0)
    |                                               |                |            [1]{}: ft 0xe-0x11.7 (4)
0x00|                                          60   |              ` |              tag: 0x60 (valid) 0xe-0xe.7 (1)
    |                                               |                |              rt1{}: 0xf-0x10.7 (2)
0x00|                                             01|               .|                n: 1 0xf-0xf.7 (1)
    |                                               |                |                x[0:1]: 0x10-0x10.7 (1)
0x10|7f                                             |.               |                  [0]: "i32" (0x7f) t 0x10-0x10.7 (1)
    |                                               |                |              rt2{}: 0x11-0x11.7 (1)
0x10|   00                                          | .              |                n: 0 0x11-0x11.7 (1)
    |                                               |                |                x[0:0]: 0x12-NA (0)
    |                                               |                |    [1]{}: section 0x12-0x18.7 (7)
0x10|      03                                       |  .             |      id: "function section" (3) 0x12-0x12.7 (1)
0x10|         05                                    |   .            |      size: 5 0x13-0x13.7 (1)
    |                                               |                |      content{}: 0x14-0x18.7 (5)
    |                                               |                |        x{}: 0x14-0x18.7 (5)
0x10|            04                                 |    .           |          n: 4 0x14-0x14.7 (1)
    |                                               |                |          x[0:4]: 0x15-0x18.7 (4)
0x10|               00                              |     .          |            [0]: 0 x 0x15-0x15.7 (1)
0x10|                  01                           |      .         |            [1]: 1 x 0x16-0x16.7 (1)
0x10|                     00                        |       .        |            [2]: 0 x 0x17-0x17.7 (1)
0x10|                        01                     |        .       |            [3]: 1 x 0x18-0x18.7 (1)
    |                                               |                |    [2]{}: section 0x19-0x1d.7 (5)
0x10|                           05                  |         .      |      id: "memory section" (5) 0x19-0x19.7 (1)
0x10|                              03               |          .     |      size: 3 0x1a-0x1a.7 (1)
    |                                               |                |      content{}: 0x1b-0x1d.7 (3)
    |                                               |                |        mem{}: 0x1b-0x1d.7 (3)
0x10|                                 01            |           .    |          n: 1 0x1b-0x1b.7 (1)
    |                                               |                |          x[0:1]: 0x1c-0x1d.7 (2)
    |                                               |                |            [0]{}: mem 0x1c-0x1d.7 (2)
    |                                               |                |              lim{}: 0x1c-0x1d.7 (2)
0x10|                                    00         |            .   |                tag: 0x0 0x1c-0x1c.7 (1)
0x10|                                       01      |             .  |                n: 1 0x1d-0x1d.7 (1)
    |                                               |                |    [3]{}: section 0x1e-0x5a.7 (61)
0x10|                                          07   |              . |      id: "export section" (7) 0x1e-0x1e.7 (1)
0x10|                                             3b|               ;|      size: 59 0x1f-0x1f.7 (1)
    |                                               |                |      content{}: 0x20-0x5a.7 (59)
    |                                               |                |        ex{}: 0x20-0x5a.7 (59)
0x20|04                                             |.               |          n: 4 0x20-0x20.7 (1)
    |                                               |                |          x[0:4]: 0x21-0x5a.7 (58)
    |                                               |                |            [0]{}: ex 0x21-0x2f.7 (15)
    |                                               |                |              nm{}: 0x21-0x2d.7 (13)
0x20|   0c                                          | .              |                n: 12 0x21-0x21.7 (1)
0x20|      64 72 6f 70 5f 70 61 73 73 69 76 65      |  drop_passive  |                b: "drop_passive" 0x22-0x2d.7 (12)
    |                                               |                |              d{}: 0x2e-0x2f.7 (2)
0x20|                                          00   |              . |                tag: "funcidx" (0x0) 0x2e-0x2e.7 (1)
0x20|                                             00|               .|                x: 0 0x2f-0x2f.7 (1)
    |                                               |                |            [1]{}: ex 0x30-0x3e.7 (15)
    |                                               |                |              nm{}: 0x30-0x3c.7 (13)
0x30|0c                                             |.               |                n: 12 0x30-0x30.7 (1)
0x30|   69 6e 69 74 5f 70 61 73 73 69 76 65         | init_passive   |                b: "init_passive" 0x31-0x3c.7 (12)
    |                                               |                |              d{}: 0x3d-0x3e.7 (2)
0x30|                                       00      |             .  |                tag: "funcidx" (0x0) 0x3d-0x3d.7 (1)
0x30|                                          01   |              . |                x: 1 0x3e-0x3e.7 (1)
    |                                               |                |            [2]{}: ex 0x3f-0x4c.7 (14)
    |                                               |                |              nm{}: 0x3f-0x4a.7 (12)
0x30|                                             0b|               .|                n: 11 0x3f-0x3f.7 (1)
0x40|64 72 6f 70 5f 61 63 74 69 76 65               |drop_active     |                b: "drop_active" 0x40-0x4a.7 (11)
    |                                               |                |              d{}: 0x4b-0x4c.7 (2)
0x40|                                 00            |           .    |                tag: "funcidx" (0x0) 0x4b-0x4b.7 (1)
0x40|                                    02         |            .   |                x: 2 0x4c-0x4c.7 (1)
    |                                               |                |            [3]{}: ex 0x4d-0x5a.7 (14)
    |                                               |                |              nm{}: 0x4d-0x58.7 (12)
0x40|                                       0b      |             .  |                n: 11 0x4d-0x4d.7 (1)
0x40|                                          69 6e|              in|                b: "init_active" 0x4e-0x58.7 (11)
0x50|69 74 5f 61 63 74 69 76 65                     |it_active       |
    |                                               |                |              d{}: 0x59-0x5a.7 (2)
0x50|                           00                  |         .      |                tag: "funcidx" (0x0) 0x59-0x59.7 (1)
0x50|                              03               |          .     |                x: 3 0x5a-0x5a.7 (1)
    |                                               |                |    [4]{}: section 0x5b-0x5d.7 (3)
0x50|                                 0c            |           .    |      id: "data count section" (12) 0x5b-0x5b.7 (1)
0x50|                                    01         |            .   |      size: 1 0x5c-0x5c.7 (1)
    |                                               |                |      content{}: 0x5d-0x5d.7 (1)
0x50|                                       02      |             .  |        n: 2 0x5d-0x5d.7 (1)
    |                                               |                |    [5]{}: section 0x5e-0x86.7 (41)
0x50|                                          0a   |              . |      id: "code section" (10) 0x5e-0x5e.7 (1)
0x50|                                             27|               '|      size: 39 0x5f-0x5f.7 (1)
    |                                               |                |      content{}: 0x60-0x86.7 (39)
    |                                               |                |        code{}: 0x60-0x86.7 (39)
0x60|04                                             |.               |          n: 4 0x60-0x60.7 (1)
    |                                               |                |          x[0:4]: 0x61-0x86.7 (38)
    |                                               |                |            [0]{}: code 0x61-0x66.7 (6)
0x60|   05                                          | .              |              size: 5 0x61-0x61.7 (1)
    |                                               |                |              code{}: 0x62-0x66.7 (5)
    |                                               |                |                t{}: 0x62-0x62.7 (1)
0x60|      00                                       |  .             |                  n: 0 0x62-0x62.7 (1)
    |                                               |                |                  x[0:0]: 0x63-NA (0)
    |                                               |                |                e[0:2]: 0x63-0x66.7 (4)
    |                                               |                |                  [0]{}: in 0x63-0x65.7 (3)
0x60|         fc                                    |   .            |                    prefix: 0xfc (valid) 0x63-0x63.7 (1)
0x60|            09                                 |    .           |                    data.drop: 9 (valid) 0x64-0x64.7 (1)
0x60|               00                              |     .          |                    x: 0 0x65-0x65.7 (1)
    |                                               |                |                  [1]{}: in 0x66-0x66.7 (1)
0x60|                  0b                           |      .         |                    end: 0xb (valid) 0x66-0x66.7 (1)
    |                                               |                |            [1]{}: code 0x67-0x73.7 (13)
0x60|                     0c                        |       .        |              size: 12 0x67-0x67.7 (1)
    |                                               |                |              code{}: 0x68-0x73.7 (12)
    |                                               |                |                t{}: 0x68-0x68.7 (1)
0x60|                        00                     |        .       |                  n: 0 0x68-0x68.7 (1)
    |                                               |                |                  x[0:0]: 0x69-NA (0)
    |                                               |                |                e[0:5]: 0x69-0x73.7 (11)
    |                                               |                |                  [0]{}: in 0x69-0x6a.7 (2)
0x60|                           41                  |         A      |                    i32.const: 0x41 (valid) 0x69-0x69.7 (1)
0x60|                              00               |          .     |                    n: 0 0x6a-0x6a.7 (1)
    |                                               |                |                  [1]{}: in 0x6b-0x6c.7 (2)
0x60|                                 41            |           A    |                    i32.const: 0x41 (valid) 0x6b-0x6b.7 (1)
0x60|                                    00         |            .   |                    n: 0 0x6c-0x6c.7 (1)
    |                                               |                |                  [2]{}: in 0x6d-0x6e.7 (2)
0x60|                                       20      |                |                    local.get: 0x20 (valid) 0x6d-0x6d.7 (1)
0x60|                                          00   |              . |                    x: 0 0x6e-0x6e.7 (1)
    |                                               |                |                  [3]{}: in 0x6f-0x72.7 (4)
0x60|                                             fc|               .|                    prefix: 0xfc (valid) 0x6f-0x6f.7 (1)
0x70|08                                             |.               |                    memory.init: 8 (valid) 0x70-0x70.7 (1)
0x70|   00                                          | .              |                    x: 0 0x71-0x71.7 (1)
0x70|      00                                       |  .             |                    reserved: 0x0 (valid) 0x72-0x72.7 (1)
    |                                               |                |                  [4]{}: in 0x73-0x73.7 (1)
0x70|         0b                                    |   .            |                    end: 0xb (valid) 0x73-0x73.7 (1)
    |                                               |                |            [2]{}: code 0x74-0x79.7 (6)
0x70|            05                                 |    .           |              size: 5 0x74-0x74.7 (1)
    |                                               |                |              code{}: 0x75-0x79.7 (5)
    |                                               |                |                t{}: 0x75-0x75.7 (1)
0x70|               00                              |     .          |                  n: 0 0x75-0x75.7 (1)
    |                                               |                |                  x[0:0]: 0x76-NA (0)
    |                                               |                |                e[0:2]: 0x76-0x79.7 (4)
    |                                               |                |                  [0]{}: in 0x76-0x78.7 (3)
0x70|                  fc                           |      .         |                    prefix: 0xfc (valid) 0x76-0x76.7 (1)
0x70|                     09                        |       .        |                    data.drop: 9 (valid) 0x77-0x77.7 (1)
0x70|                        01                     |        .       |                    x: 1 0x78-0x78.7 (1)
    |                                               |                |                  [1]{}: in 0x79-0x79.7 (1)
0x70|                           0b                  |         .      |                    end: 0xb (valid) 0x79-0x79.7 (1)
    |                                               |                |            [3]{}: code 0x7a-0x86.7 (13)
0x70|                              0c               |          .     |              size: 12 0x7a-0x7a.7 (1)
    |                                               |                |              code{}: 0x7b-0x86.7 (12)
    |                                               |                |                t{}: 0x7b-0x7b.7 (1)
0x70|                                 00            |           .    |                  n: 0 0x7b-0x7b.7 (1)
    |                                               |                |                  x[0:0]: 0x7c-NA (0)
    |                                               |                |                e[0:5]: 0x7c-0x86.7 (11)
    |                                               |                |                  [0]{}: in 0x7c-0x7d.7 (2)
0x70|                                    41         |            A   |                    i32.const: 0x41 (valid) 0x7c-0x7c.7 (1)
0x70|                                       00      |             .  |                    n: 0 0x7d-0x7d.7 (1)
    |                                               |                |                  [1]{}: in 0x7e-0x7f.7 (2)
0x70|                                          41   |              A |                    i32.const: 0x41 (valid) 0x7e-0x7e.7 (1)
0x70|                                             00|               .|                    n: 0 0x7f-0x7f.7 (1)
    |                                               |                |                  [2]{}: in 0x80-0x81.7 (2)
0x80|20                                             |                |                    local.get: 0x20 (valid) 0x80-0x80.7 (1)
0x80|   00                                          | .              |                    x: 0 0x81-0x81.7 (1)
    |                                               |                |                  [3]{}: in 0x82-0x85.7 (4)
0x80|      fc                                       |  .             |                    prefix: 0xfc (valid) 0x82-0x82.7 (1)
0x80|         08                                    |   .            |                    memory.init: 8 (valid) 0x83-0x83.7 (1)
0x80|            01                                 |    .           |                    x: 1 0x84-0x84.7 (1)
0x80|               00                              |     .          |                    reserved: 0x0 (valid) 0x85-0x85.7 (1)
    |                                               |                |                  [4]{}: in 0x86-0x86.7 (1)
0x80|                  0b                           |      .         |                    end: 0xb (valid) 0x86-0x86.7 (1)
    |                                               |                |    [6]{}: section 0x87-0x92.7 (12)
0x80|                     0b                        |       .        |      id: "data section" (11) 0x87-0x87.7 (1)
0x80|                        0a                     |        .       |      size: 10 0x88-0x88.7 (1)
    |                                               |                |      content{}: 0x89-0x92.7 (10)
    |                                               |                |        seg{}: 0x89-0x92.7 (10)
0x80|                           02                  |         .      |          n: 2 0x89-0x89.7 (1)
    |                                               |                |          x[0:2]: 0x8a-0x92.7 (9)
    |                                               |                |            [0]{}: seg 0x8a-0x8c.7 (3)
0x80|                              01               |          .     |              tag: 1 0x8a-0x8a.7 (1)
    |                                               |                |              b{}: 0x8b-0x8c.7 (2)
0x80|                                 01            |           .    |                n: 1 0x8b-0x8b.7 (1)
0x80|                                    78         |            x   |                x: raw bits 0x8c-0x8c.7 (1)
    |                                               |                |            [1]{}: seg 0x8d-0x92.7 (6)
0x80|                                       00      |             .  |              tag: 0 0x8d-0x8d.7 (1)
    |                                               |                |              e[0:2]: 0x8e-0x90.7 (3)
    |                                               |                |                [0]{}: in 0x8e-0x8f.7 (2)
0x80|                                          41   |              A |                  i32.const: 0x41 (valid) 0x8e-0x8e.7 (1)
0x80|                                             00|               .|                  n: 0 0x8f-0x8f.7 (1)
    |                                               |                |                [1]{}: in 0x90-0x90.7 (1)
0x90|0b                                             |.               |                  end: 0xb (valid) 0x90-0x90.7 (1)
    |                                               |                |              b{}: 0x91-0x92.7 (2)
0x90|   01                                          | .              |                n: 1 0x91-0x91.7 (1)
0x90|      78|                                      |  x|            |                x: raw bits 0x92-0x92.7 (1)
