$ fq -d wasm dv bulk-8.wasm
    |00 01 02 03 04 05 06 07 08 09 0a 0b 0c 0d 0e 0f|0123456789abcdef|.{}: bulk-8.wasm (wasm) 0x0-0x64 (100)
0x00|00 61 73 6d                                    |.asm            |  magic: raw bits (valid) 0x0-0x4 (4)
0x00|            01 00 00 00                        |    ....        |  version: 1 0x4-0x8 (4)
    |                                               |                |  sections[0:6]: 0x8-0x64 (92)
    |                                               |                |    [0]{}: section 0x8-0x1a (18)
0x00|                        01                     |        .       |      id: "type_section" (1) 0x8-0x9 (1)
0x00|                           10                  |         .      |      size: 16 (valid) 0x9-0xa (1)
    |                                               |                |      content{}: 0xa-0x1a (16)
    |                                               |                |        ft{}: 0xa-0x1a (16)
0x00|                              03               |          .     |          n: 3 (valid) 0xa-0xb (1)
    |                                               |                |          x[0:3]: 0xb-0x1a (15)
    |                                               |                |            [0]{}: ft 0xb-0xf (4)
0x00|                                 60            |           `    |              tag: 0x60 (valid) 0xb-0xc (1)
    |                                               |                |              rt1{}: 0xc-0xd (1)
0x00|                                    00         |            .   |                n: 0 (valid) 0xc-0xd (1)
    |                                               |                |                x[0:0]: 0xd-0xd (0)
    |                                               |                |              rt2{}: 0xd-0xf (2)
0x00|                                       01      |             .  |                n: 1 (valid) 0xd-0xe (1)
    |                                               |                |                x[0:1]: 0xe-0xf (1)
0x00|                                          7f   |              . |                  [0]: "i32" (0x7f) t 0xe-0xf (1)
    |                                               |                |            [1]{}: ft 0xf-0x15 (6)
0x00|                                             60|               `|              tag: 0x60 (valid) 0xf-0x10 (1)
    |                                               |                |              rt1{}: 0x10-0x14 (4)
0x10|03                                             |.               |                n: 3 (valid) 0x10-0x11 (1)
    |                                               |                |                x[0:3]: 0x11-0x14 (3)
0x10|   7f                                          | .              |                  [0]: "i32" (0x7f) t 0x11-0x12 (1)
0x10|      7f                                       |  .             |                  [1]: "i32" (0x7f) t 0x12-0x13 (1)
0x10|         7f                                    |   .            |                  [2]: "i32" (0x7f) t 0x13-0x14 (1)
    |                                               |                |              rt2{}: 0x14-0x15 (1)
0x10|            00                                 |    .           |                n: 0 (valid) 0x14-0x15 (1)
    |                                               |                |                x[0:0]: 0x15-0x15 (0)
    |                                               |                |            [2]{}: ft 0x15-0x1a (5)
0x10|               60                              |     `          |              tag: 0x60 (valid) 0x15-0x16 (1)
    |                                               |                |              rt1{}: 0x16-0x18 (2)
0x10|                  01                           |      .         |                n: 1 (valid) 0x16-0x17 (1)
    |                                               |                |                x[0:1]: 0x17-0x18 (1)
0x10|                     7f                        |       .        |                  [0]: "i32" (0x7f) t 0x17-0x18 (1)
    |                                               |                |              rt2{}: 0x18-0x1a (2)
0x10|                        01                     |        .       |                n: 1 (valid) 0x18-0x19 (1)
    |                                               |                |                x[0:1]: 0x19-0x1a (1)
0x10|                           7f                  |         .      |                  [0]: "i32" (0x7f) t 0x19-0x1a (1)
    |                                               |                |    [1]{}: section 0x1a-0x21 (7)
0x10|                              03               |          .     |      id: "function_section" (3) 0x1a-0x1b (1)
0x10|                                 05            |           .    |      size: 5 (valid) 0x1b-0x1c (1)
    |                                               |                |      content{}: 0x1c-0x21 (5)
    |                                               |                |        x{}: 0x1c-0x21 (5)
0x10|                                    04         |            .   |          n: 4 (valid) 0x1c-0x1d (1)
    |                                               |                |          x[0:4]: 0x1d-0x21 (4)
0x10|                                       00      |             .  |            [0]: 0 x (valid) 0x1d-0x1e (1)
0x10|                                          00   |              . |            [1]: 0 x (valid) 0x1e-0x1f (1)
0x10|                                             01|               .|            [2]: 1 x (valid) 0x1f-0x20 (1)
0x20|02                                             |.               |            [3]: 2 x (valid) 0x20-0x21 (1)
    |                                               |                |    [2]{}: section 0x21-0x27 (6)
0x20|   04                                          | .              |      id: "table_section" (4) 0x21-0x22 (1)
0x20|      04                                       |  .             |      size: 4 (valid) 0x22-0x23 (1)
    |                                               |                |      content{}: 0x23-0x27 (4)
    |                                               |                |        tab{}: 0x23-0x27 (4)
0x20|         01                                    |   .            |          n: 1 (valid) 0x23-0x24 (1)
    |                                               |                |          x[0:1]: 0x24-0x27 (3)
    |                                               |                |            [0]{}: tab 0x24-0x27 (3)
0x20|            70                                 |    p           |              et: "funcref" (112) 0x24-0x25 (1)
    |                                               |                |              lim{}: 0x25-0x27 (2)
0x20|               00                              |     .          |                tag: 0x0 0x25-0x26 (1)
0x20|                  03                           |      .         |                n: 3 (valid) 0x26-0x27 (1)
    |                                               |                |    [3]{}: section 0x27-0x38 (17)
0x20|                     07                        |       .        |      id: "export_section" (7) 0x27-0x28 (1)
0x20|                        0f                     |        .       |      size: 15 (valid) 0x28-0x29 (1)
    |                                               |                |      content{}: 0x29-0x38 (15)
    |                                               |                |        ex{}: 0x29-0x38 (15)
0x20|                           02                  |         .      |          n: 2 (valid) 0x29-0x2a (1)
    |                                               |                |          x[0:2]: 0x2a-0x38 (14)
    |                                               |                |            [0]{}: ex 0x2a-0x31 (7)
    |                                               |                |              nm{}: 0x2a-0x2f (5)
0x20|                              04               |          .     |                n: 4 (valid) 0x2a-0x2b (1)
0x20|                                 69 6e 69 74   |           init |                b: "init" 0x2b-0x2f (4)
    |                                               |                |              d{}: 0x2f-0x31 (2)
0x20|                                             00|               .|                tag: "funcidx" (0x0) 0x2f-0x30 (1)
0x30|02                                             |.               |                x: 2 (valid) 0x30-0x31 (1)
    |                                               |                |            [1]{}: ex 0x31-0x38 (7)
    |                                               |                |              nm{}: 0x31-0x36 (5)
0x30|   04                                          | .              |                n: 4 (valid) 0x31-0x32 (1)
0x30|      63 61 6c 6c                              |  call          |                b: "call" 0x32-0x36 (4)
    |                                               |                |              d{}: 0x36-0x38 (2)
0x30|                  00                           |      .         |                tag: "funcidx" (0x0) 0x36-0x37 (1)
0x30|                     03                        |       .        |                x: 3 (valid) 0x37-0x38 (1)
    |                                               |                |    [4]{}: section 0x38-0x42 (10)
0x30|                        09                     |        .       |      id: "element_section" (9) 0x38-0x39 (1)
0x30|                           08                  |         .      |      size: 8 (valid) 0x39-0x3a (1)
    |                                               |                |      element{}: 0x3a-0x42 (8)
    |                                               |                |        seg{}: 0x3a-0x42 (8)
0x30|                              01               |          .     |          n: 1 (valid) 0x3a-0x3b (1)
    |                                               |                |          x[0:1]: 0x3b-0x42 (7)
    |                                               |                |            [0]{}: seg 0x3b-0x42 (7)
0x30|                                 01            |           .    |              tag: 1 (valid) 0x3b-0x3c (1)
0x30|                                    00         |            .   |              et: "funcref" (0) (valid) 0x3c-0x3d (1)
    |                                               |                |              y{}: 0x3d-0x42 (5)
0x30|                                       04      |             .  |                n: 4 (valid) 0x3d-0x3e (1)
    |                                               |                |                x[0:4]: 0x3e-0x42 (4)
0x30|                                          00   |              . |                  [0]: 0 y (valid) 0x3e-0x3f (1)
0x30|                                             01|               .|                  [1]: 1 y (valid) 0x3f-0x40 (1)
0x40|00                                             |.               |                  [2]: 0 y (valid) 0x40-0x41 (1)
0x40|   01                                          | .              |                  [3]: 1 y (valid) 0x41-0x42 (1)
    |                                               |                |    [5]{}: section 0x42-0x64 (34)
0x40|      0a                                       |  .             |      id: "code_section" (10) 0x42-0x43 (1)
0x40|         20                                    |                |      size: 32 (valid) 0x43-0x44 (1)
    |                                               |                |      content{}: 0x44-0x64 (32)
    |                                               |                |        code{}: 0x44-0x64 (32)
0x40|            04                                 |    .           |          n: 4 (valid) 0x44-0x45 (1)
    |                                               |                |          x[0:4]: 0x45-0x64 (31)
    |                                               |                |            [0]{}: code 0x45-0x4a (5)
0x40|               04                              |     .          |              size: 4 (valid) 0x45-0x46 (1)
    |                                               |                |              code{}: 0x46-0x4a (4)
    |                                               |                |                t{}: 0x46-0x47 (1)
0x40|                  00                           |      .         |                  n: 0 (valid) 0x46-0x47 (1)
    |                                               |                |                  x[0:0]: 0x47-0x47 (0)
    |                                               |                |                e[0:2]: 0x47-0x4a (3)
    |                                               |                |                  [0]{}: in 0x47-0x49 (2)
0x40|                     41                        |       A        |                    opcode: "i32.const" (0x41) 0x47-0x48 (1)
0x40|                        00                     |        .       |                    n: 0 (valid) 0x48-0x49 (1)
    |                                               |                |                  [1]{}: in 0x49-0x4a (1)
0x40|                           0b                  |         .      |                    opcode: "end" (0xb) 0x49-0x4a (1)
    |                                               |                |            [1]{}: code 0x4a-0x4f (5)
0x40|                              04               |          .     |              size: 4 (valid) 0x4a-0x4b (1)
    |                                               |                |              code{}: 0x4b-0x4f (4)
    |                                               |                |                t{}: 0x4b-0x4c (1)
0x40|                                 00            |           .    |                  n: 0 (valid) 0x4b-0x4c (1)
    |                                               |                |                  x[0:0]: 0x4c-0x4c (0)
    |                                               |                |                e[0:2]: 0x4c-0x4f (3)
    |                                               |                |                  [0]{}: in 0x4c-0x4e (2)
0x40|                                    41         |            A   |                    opcode: "i32.const" (0x41) 0x4c-0x4d (1)
0x40|                                       01      |             .  |                    n: 1 (valid) 0x4d-0x4e (1)
    |                                               |                |                  [1]{}: in 0x4e-0x4f (1)
0x40|                                          0b   |              . |                    opcode: "end" (0xb) 0x4e-0x4f (1)
    |                                               |                |            [2]{}: code 0x4f-0x5c (13)
0x40|                                             0c|               .|              size: 12 (valid) 0x4f-0x50 (1)
    |                                               |                |              code{}: 0x50-0x5c (12)
    |                                               |                |                t{}: 0x50-0x51 (1)
0x50|00                                             |.               |                  n: 0 (valid) 0x50-0x51 (1)
    |                                               |                |                  x[0:0]: 0x51-0x51 (0)
    |                                               |                |                e[0:5]: 0x51-0x5c (11)
    |                                               |                |                  [0]{}: in 0x51-0x53 (2)
0x50|   20                                          |                |                    opcode: "local.get" (0x20) 0x51-0x52 (1)
0x50|      00                                       |  .             |                    x: 0 (valid) 0x52-0x53 (1)
    |                                               |                |                  [1]{}: in 0x53-0x55 (2)
0x50|         20                                    |                |                    opcode: "local.get" (0x20) 0x53-0x54 (1)
0x50|            01                                 |    .           |                    x: 1 (valid) 0x54-0x55 (1)
    |                                               |                |                  [2]{}: in 0x55-0x57 (2)
0x50|               20                              |                |                    opcode: "local.get" (0x20) 0x55-0x56 (1)
0x50|                  02                           |      .         |                    x: 2 (valid) 0x56-0x57 (1)
    |                                               |                |                  [3]{}: in 0x57-0x5b (4)
0x50|                     fc                        |       .        |                    opcode: "prefix" (0xfc) 0x57-0x58 (1)
0x50|                        0c                     |        .       |                    p_opcode: "table.init" (12) 0x58-0x59 (1)
0x50|                           00                  |         .      |                    y: 0 (valid) 0x59-0x5a (1)
0x50|                              00               |          .     |                    x: 0 (valid) 0x5a-0x5b (1)
    |                                               |                |                  [4]{}: in 0x5b-0x5c (1)
0x50|                                 0b            |           .    |                    opcode: "end" (0xb) 0x5b-0x5c (1)
    |                                               |                |            [3]{}: code 0x5c-0x64 (8)
0x50|                                    07         |            .   |              size: 7 (valid) 0x5c-0x5d (1)
    |                                               |                |              code{}: 0x5d-0x64 (7)
    |                                               |                |                t{}: 0x5d-0x5e (1)
0x50|                                       00      |             .  |                  n: 0 (valid) 0x5d-0x5e (1)
    |                                               |                |                  x[0:0]: 0x5e-0x5e (0)
    |                                               |                |                e[0:3]: 0x5e-0x64 (6)
    |                                               |                |                  [0]{}: in 0x5e-0x60 (2)
0x50|                                          20   |                |                    opcode: "local.get" (0x20) 0x5e-0x5f (1)
0x50|                                             00|               .|                    x: 0 (valid) 0x5f-0x60 (1)
    |                                               |                |                  [1]{}: in 0x60-0x63 (3)
0x60|11                                             |.               |                    opcode: "call_indirect" (0x11) 0x60-0x61 (1)
0x60|   00                                          | .              |                    y: 0 (valid) 0x61-0x62 (1)
0x60|      00                                       |  .             |                    x: 0 (valid) 0x62-0x63 (1)
    |                                               |                |                  [2]{}: in 0x63-0x64 (1)
0x60|         0b|                                   |   .|           |                    opcode: "end" (0xb) 0x63-0x64 (1)
