$ fq -d wasm dv call_indirect-1.wasm
    |00 01 02 03 04 05 06 07 08 09 0a 0b 0c 0d 0e 0f|0123456789abcdef|.{}: call_indirect-1.wasm (wasm) 0x0-0xc9.7 (202)
0x00|00 61 73 6d                                    |.asm            |  magic: raw bits (valid) 0x0-0x3.7 (4)
0x00|            01 00 00 00                        |    ....        |  version: 1 0x4-0x7.7 (4)
    |                                               |                |  sections[0:6]: 0x8-0xc9.7 (194)
    |                                               |                |    [0]{}: section 0x8-0x1a.7 (19)
0x00|                        01                     |        .       |      id: "type section" (1) 0x8-0x8.7 (1)
0x00|                           11                  |         .      |      size: 17 0x9-0x9.7 (1)
    |                                               |                |      content{}: 0xa-0x1a.7 (17)
    |                                               |                |        ft{}: 0xa-0x1a.7 (17)
0x00|                              03               |          .     |          n: 3 0xa-0xa.7 (1)
    |                                               |                |          x[0:3]: 0xb-0x1a.7 (16)
    |                                               |                |            [0]{}: ft 0xb-0x10.7 (6)
0x00|                                 60            |           `    |              tag: 0x60 (valid) 0xb-0xb.7 (1)
    |                                               |                |              rt1{}: 0xc-0xe.7 (3)
0x00|                                    02         |            .   |                n: 2 0xc-0xc.7 (1)
    |                                               |                |                x[0:2]: 0xd-0xe.7 (2)
0x00|                                       7f      |             .  |                  [0]: "i32" (0x7f) t 0xd-0xd.7 (1)
0x00|                                          7f   |              . |                  [1]: "i32" (0x7f) t 0xe-0xe.7 (1)
    |                                               |                |              rt2{}: 0xf-0x10.7 (2)
0x00|                                             01|               .|                n: 1 0xf-0xf.7 (1)
    |                                               |                |                x[0:1]: 0x10-0x10.7 (1)
0x10|7f                                             |.               |                  [0]: "i32" (0x7f) t 0x10-0x10.7 (1)
    |                                               |                |            [1]{}: ft 0x11-0x13.7 (3)
0x10|   60                                          | `              |              tag: 0x60 (valid) 0x11-0x11.7 (1)
    |                                               |                |              rt1{}: 0x12-0x12.7 (1)
0x10|      00                                       |  .             |                n: 0 0x12-0x12.7 (1)
    |                                               |                |                x[0:0]: 0x13-NA (0)
    |                                               |                |              rt2{}: 0x13-0x13.7 (1)
0x10|         00                                    |   .            |                n: 0 0x13-0x13.7 (1)
    |                                               |                |                x[0:0]: 0x14-NA (0)
    |                                               |                |            [2]{}: ft 0x14-0x1a.7 (7)
0x10|            60                                 |    `           |              tag: 0x60 (valid) 0x14-0x14.7 (1)
    |                                               |                |              rt1{}: 0x15-0x18.7 (4)
0x10|               03                              |     .          |                n: 3 0x15-0x15.7 (1)
    |                                               |                |                x[0:3]: 0x16-0x18.7 (3)
0x10|                  7f                           |      .         |                  [0]: "i32" (0x7f) t 0x16-0x16.7 (1)
0x10|                     7f                        |       .        |                  [1]: "i32" (0x7f) t 0x17-0x17.7 (1)
0x10|                        7f                     |        .       |                  [2]: "i32" (0x7f) t 0x18-0x18.7 (1)
    |                                               |                |              rt2{}: 0x19-0x1a.7 (2)
0x10|                           01                  |         .      |                n: 1 0x19-0x19.7 (1)
    |                                               |                |                x[0:1]: 0x1a-0x1a.7 (1)
0x10|                              7f               |          .     |                  [0]: "i32" (0x7f) t 0x1a-0x1a.7 (1)
    |                                               |                |    [1]{}: section 0x1b-0x26.7 (12)
0x10|                                 03            |           .    |      id: "function section" (3) 0x1b-0x1b.7 (1)
0x10|                                    0a         |            .   |      size: 10 0x1c-0x1c.7 (1)
    |                                               |                |      content{}: 0x1d-0x26.7 (10)
    |                                               |                |        x{}: 0x1d-0x26.7 (10)
0x10|                                       09      |             .  |          n: 9 0x1d-0x1d.7 (1)
    |                                               |                |          x[0:9]: 0x1e-0x26.7 (9)
0x10|                                          00   |              . |            [0]: 0 x 0x1e-0x1e.7 (1)
0x10|                                             00|               .|            [1]: 0 x 0x1f-0x1f.7 (1)
0x20|00                                             |.               |            [2]: 0 x 0x20-0x20.7 (1)
0x20|   00                                          | .              |            [3]: 0 x 0x21-0x21.7 (1)
0x20|      00                                       |  .             |            [4]: 0 x 0x22-0x22.7 (1)
0x20|         01                                    |   .            |            [5]: 1 x 0x23-0x23.7 (1)
0x20|            02                                 |    .           |            [6]: 2 x 0x24-0x24.7 (1)
0x20|               02                              |     .          |            [7]: 2 x 0x25-0x25.7 (1)
0x20|                  02                           |      .         |            [8]: 2 x 0x26-0x26.7 (1)
    |                                               |                |    [2]{}: section 0x27-0x34.7 (14)
0x20|                     04                        |       .        |      id: "table section" (4) 0x27-0x27.7 (1)
0x20|                        0c                     |        .       |      size: 12 0x28-0x28.7 (1)
    |                                               |                |      content{}: 0x29-0x34.7 (12)
    |                                               |                |        tab{}: 0x29-0x34.7 (12)
0x20|                           03                  |         .      |          n: 3 0x29-0x29.7 (1)
    |                                               |                |          x[0:3]: 0x2a-0x34.7 (11)
    |                                               |                |            [0]{}: tab 0x2a-0x2d.7 (4)
0x20|                              70               |          p     |              et: "funcref" (112) 0x2a-0x2a.7 (1)
    |                                               |                |              lim{}: 0x2b-0x2d.7 (3)
0x20|                                 01            |           .    |                tag: 0x1 0x2b-0x2b.7 (1)
0x20|                                    02         |            .   |                n: 2 0x2c-0x2c.7 (1)
0x20|                                       02      |             .  |                m: 2 0x2d-0x2d.7 (1)
    |                                               |                |            [1]{}: tab 0x2e-0x31.7 (4)
0x20|                                          70   |              p |              et: "funcref" (112) 0x2e-0x2e.7 (1)
    |                                               |                |              lim{}: 0x2f-0x31.7 (3)
0x20|                                             01|               .|                tag: 0x1 0x2f-0x2f.7 (1)
0x30|03                                             |.               |                n: 3 0x30-0x30.7 (1)
0x30|   03                                          | .              |                m: 3 0x31-0x31.7 (1)
    |                                               |                |            [2]{}: tab 0x32-0x34.7 (3)
0x30|      70                                       |  p             |              et: "funcref" (112) 0x32-0x32.7 (1)
    |                                               |                |              lim{}: 0x33-0x34.7 (2)
0x30|         00                                    |   .            |                tag: 0x0 0x33-0x33.7 (1)
0x30|            04                                 |    .           |                n: 4 0x34-0x34.7 (1)
    |                                               |                |    [3]{}: section 0x35-0x52.7 (30)
0x30|               07                              |     .          |      id: "export section" (7) 0x35-0x35.7 (1)
0x30|                  1c                           |      .         |      size: 28 0x36-0x36.7 (1)
    |                                               |                |      content{}: 0x37-0x52.7 (28)
    |                                               |                |        ex{}: 0x37-0x52.7 (28)
0x30|                     03                        |       .        |          n: 3 0x37-0x37.7 (1)
    |                                               |                |          x[0:3]: 0x38-0x52.7 (27)
    |                                               |                |            [0]{}: ex 0x38-0x40.7 (9)
    |                                               |                |              nm{}: 0x38-0x3e.7 (7)
0x30|                        06                     |        .       |                n: 6 0x38-0x38.7 (1)
0x30|                           63 61 6c 6c 2d 31   |         call-1 |                b: "call-1" 0x39-0x3e.7 (6)
    |                                               |                |              d{}: 0x3f-0x40.7 (2)
0x30|                                             00|               .|                tag: "funcidx" (0x0) 0x3f-0x3f.7 (1)
0x40|06                                             |.               |                x: 6 0x40-0x40.7 (1)
    |                                               |                |            [1]{}: ex 0x41-0x49.7 (9)
    |                                               |                |              nm{}: 0x41-0x47.7 (7)
0x40|   06                                          | .              |                n: 6 0x41-0x41.7 (1)
0x40|      63 61 6c 6c 2d 32                        |  call-2        |                b: "call-2" 0x42-0x47.7 (6)
    |                                               |                |              d{}: 0x48-0x49.7 (2)
0x40|                        00                     |        .       |                tag: "funcidx" (0x0) 0x48-0x48.7 (1)
0x40|                           07                  |         .      |                x: 7 0x49-0x49.7 (1)
    |                                               |                |            [2]{}: ex 0x4a-0x52.7 (9)
    |                                               |                |              nm{}: 0x4a-0x50.7 (7)
0x40|                              06               |          .     |                n: 6 0x4a-0x4a.7 (1)
0x40|                                 63 61 6c 6c 2d|           call-|                b: "call-3" 0x4b-0x50.7 (6)
0x50|33                                             |3               |
    |                                               |                |              d{}: 0x51-0x52.7 (2)
0x50|   00                                          | .              |                tag: "funcidx" (0x0) 0x51-0x51.7 (1)
0x50|      08                                       |  .             |                x: 8 0x52-0x52.7 (1)
    |                                               |                |    [4]{}: section 0x53-0x77.7 (37)
0x50|         09                                    |   .            |      id: "element section" (9) 0x53-0x53.7 (1)
0x50|            23                                 |    #           |      size: 35 0x54-0x54.7 (1)
    |                                               |                |      element{}: 0x55-0x77.7 (35)
    |                                               |                |        seg{}: 0x55-0x77.7 (35)
0x50|               04                              |     .          |          n: 4 0x55-0x55.7 (1)
    |                                               |                |          x[0:4]: 0x56-0x77.7 (34)
    |                                               |                |            [0]{}: seg 0x56-0x5c.7 (7)
0x50|                  00                           |      .         |              tag: 0 0x56-0x56.7 (1)
    |                                               |                |              e[0:2]: 0x57-0x59.7 (3)
    |                                               |                |                [0]{}: in 0x57-0x58.7 (2)
0x50|                     41                        |       A        |                  i32.const: 0x41 (valid) 0x57-0x57.7 (1)
0x50|                        00                     |        .       |                  n: 0 0x58-0x58.7 (1)
    |                                               |                |                [1]{}: in 0x59-0x59.7 (1)
0x50|                           0b                  |         .      |                  end: 0xb (valid) 0x59-0x59.7 (1)
    |                                               |                |              y{}: 0x5a-0x5c.7 (3)
0x50|                              02               |          .     |                n: 2 0x5a-0x5a.7 (1)
    |                                               |                |                x[0:2]: 0x5b-0x5c.7 (2)
0x50|                                 00            |           .    |                  [0]: 0 y 0x5b-0x5b.7 (1)
0x50|                                    01         |            .   |                  [1]: 1 y 0x5c-0x5c.7 (1)
    |                                               |                |            [1]{}: seg 0x5d-0x66.7 (10)
0x50|                                       02      |             .  |              tag: 2 0x5d-0x5d.7 (1)
0x50|                                          01   |              . |              x: 1 0x5e-0x5e.7 (1)
    |                                               |                |              e[0:2]: 0x5f-0x61.7 (3)
    |                                               |                |                [0]{}: in 0x5f-0x60.7 (2)
0x50|                                             41|               A|                  i32.const: 0x41 (valid) 0x5f-0x5f.7 (1)
0x60|00                                             |.               |                  n: 0 0x60-0x60.7 (1)
    |                                               |                |                [1]{}: in 0x61-0x61.7 (1)
0x60|   0b                                          | .              |                  end: 0xb (valid) 0x61-0x61.7 (1)
0x60|      00                                       |  .             |              et: "funcref" (0) (valid) 0x62-0x62.7 (1)
    |                                               |                |              y{}: 0x63-0x66.7 (4)
0x60|         03                                    |   .            |                n: 3 0x63-0x63.7 (1)
    |                                               |                |                x[0:3]: 0x64-0x66.7 (3)
0x60|            02                                 |    .           |                  [0]: 2 y 0x64-0x64.7 (1)
0x60|               03                              |     .          |                  [1]: 3 y 0x65-0x65.7 (1)
0x60|                  04                           |      .         |                  [2]: 4 y 0x66-0x66.7 (1)
    |                                               |                |            [2]{}: seg 0x67-0x6f.7 (9)
0x60|                     02                        |       .        |              tag: 2 0x67-0x67.7 (1)
0x60|                        02                     |        .       |              x: 2 0x68-0x68.7 (1)
    |                                               |                |              e[0:2]: 0x69-0x6b.7 (3)
    |                                               |                |                [0]{}: in 0x69-0x6a.7 (2)
0x60|                           41                  |         A      |                  i32.const: 0x41 (valid) 0x69-0x69.7 (1)
0x60|                              00               |          .     |                  n: 0 0x6a-0x6a.7 (1)
    |                                               |                |                [1]{}: in 0x6b-0x6b.7 (1)
0x60|                                 0b            |           .    |                  end: 0xb (valid) 0x6b-0x6b.7 (1)
0x60|                                    00         |            .   |              et: "funcref" (0) (valid) 0x6c-0x6c.7 (1)
    |                                               |                |              y{}: 0x6d-0x6f.7 (3)
0x60|                                       02      |             .  |                n: 2 0x6d-0x6d.7 (1)
    |                                               |                |                x[0:2]: 0x6e-0x6f.7 (2)
0x60|                                          01   |              . |                  [0]: 1 y 0x6e-0x6e.7 (1)
0x60|                                             02|               .|                  [1]: 2 y 0x6f-0x6f.7 (1)
    |                                               |                |            [3]{}: seg 0x70-0x77.7 (8)
0x70|02                                             |.               |              tag: 2 0x70-0x70.7 (1)
0x70|   02                                          | .              |              x: 2 0x71-0x71.7 (1)
    |                                               |                |              e[0:2]: 0x72-0x74.7 (3)
    |                                               |                |                [0]{}: in 0x72-0x73.7 (2)
0x70|      41                                       |  A             |                  i32.const: 0x41 (valid) 0x72-0x72.7 (1)
0x70|         03                                    |   .            |                  n: 3 0x73-0x73.7 (1)
    |                                               |                |                [1]{}: in 0x74-0x74.7 (1)
0x70|            0b                                 |    .           |                  end: 0xb (valid) 0x74-0x74.7 (1)
0x70|               00                              |     .          |              et: "funcref" (0) (valid) 0x75-0x75.7 (1)
    |                                               |                |              y{}: 0x76-0x77.7 (2)
0x70|                  01                           |      .         |                n: 1 0x76-0x76.7 (1)
    |                                               |                |                x[0:1]: 0x77-0x77.7 (1)
0x70|                     05                        |       .        |                  [0]: 5 y 0x77-0x77.7 (1)
    |                                               |                |    [5]{}: section 0x78-0xc9.7 (82)
0x70|                        0a                     |        .       |      id: "code section" (10) 0x78-0x78.7 (1)
0x70|                           50                  |         P      |      size: 80 0x79-0x79.7 (1)
    |                                               |                |      content{}: 0x7a-0xc9.7 (80)
    |                                               |                |        code{}: 0x7a-0xc9.7 (80)
0x70|                              09               |          .     |          n: 9 0x7a-0x7a.7 (1)
    |                                               |                |          x[0:9]: 0x7b-0xc9.7 (79)
    |                                               |                |            [0]{}: code 0x7b-0x82.7 (8)
0x70|                                 07            |           .    |              size: 7 0x7b-0x7b.7 (1)
    |                                               |                |              code{}: 0x7c-0x82.7 (7)
    |                                               |                |                t{}: 0x7c-0x7c.7 (1)
0x70|                                    00         |            .   |                  n: 0 0x7c-0x7c.7 (1)
    |                                               |                |                  x[0:0]: 0x7d-NA (0)
    |                                               |                |                e[0:4]: 0x7d-0x82.7 (6)
    |                                               |                |                  [0]{}: in 0x7d-0x7e.7 (2)
0x70|                                       20      |                |                    local.get: 0x20 (valid) 0x7d-0x7d.7 (1)
0x70|                                          00   |              . |                    x: 0 0x7e-0x7e.7 (1)
    |                                               |                |                  [1]{}: in 0x7f-0x80.7 (2)
0x70|                                             20|                |                    local.get: 0x20 (valid) 0x7f-0x7f.7 (1)
0x80|01                                             |.               |                    x: 1 0x80-0x80.7 (1)
    |                                               |                |                  [2]{}: in 0x81-0x81.7 (1)
0x80|   6a                                          | j              |                    i32.add: 0x6a (valid) 0x81-0x81.7 (1)
    |                                               |                |                  [3]{}: in 0x82-0x82.7 (1)
0x80|      0b                                       |  .             |                    end: 0xb (valid) 0x82-0x82.7 (1)
    |                                               |                |            [1]{}: code 0x83-0x8a.7 (8)
0x80|         07                                    |   .            |              size: 7 0x83-0x83.7 (1)
    |                                               |                |              code{}: 0x84-0x8a.7 (7)
    |                                               |                |                t{}: 0x84-0x84.7 (1)
0x80|            00                                 |    .           |                  n: 0 0x84-0x84.7 (1)
    |                                               |                |                  x[0:0]: 0x85-NA (0)
    |                                               |                |                e[0:4]: 0x85-0x8a.7 (6)
    |                                               |                |                  [0]{}: in 0x85-0x86.7 (2)
0x80|               20                              |                |                    local.get: 0x20 (valid) 0x85-0x85.7 (1)
0x80|                  00                           |      .         |                    x: 0 0x86-0x86.7 (1)
    |                                               |                |                  [1]{}: in 0x87-0x88.7 (2)
0x80|                     20                        |                |                    local.get: 0x20 (valid) 0x87-0x87.7 (1)
0x80|                        01                     |        .       |                    x: 1 0x88-0x88.7 (1)
    |                                               |                |                  [2]{}: in 0x89-0x89.7 (1)
0x80|                           6b                  |         k      |                    i32.sub: 0x6b (valid) 0x89-0x89.7 (1)
    |                                               |                |                  [3]{}: in 0x8a-0x8a.7 (1)
0x80|                              0b               |          .     |                    end: 0xb (valid) 0x8a-0x8a.7 (1)
    |                                               |                |            [2]{}: code 0x8b-0x92.7 (8)
0x80|                                 07            |           .    |              size: 7 0x8b-0x8b.7 (1)
    |                                               |                |              code{}: 0x8c-0x92.7 (7)
    |                                               |                |                t{}: 0x8c-0x8c.7 (1)
0x80|                                    00         |            .   |                  n: 0 0x8c-0x8c.7 (1)
    |                                               |                |                  x[0:0]: 0x8d-NA (0)
    |                                               |                |                e[0:4]: 0x8d-0x92.7 (6)
    |                                               |                |                  [0]{}: in 0x8d-0x8e.7 (2)
0x80|                                       20      |                |                    local.get: 0x20 (valid) 0x8d-0x8d.7 (1)
0x80|                                          00   |              . |                    x: 0 0x8e-0x8e.7 (1)
    |                                               |                |                  [1]{}: in 0x8f-0x90.7 (2)
0x80|                                             20|                |                    local.get: 0x20 (valid) 0x8f-0x8f.7 (1)
0x90|01                                             |.               |                    x: 1 0x90-0x90.7 (1)
    |                                               |                |                  [2]{}: in 0x91-0x91.7 (1)
0x90|   6c                                          | l              |                    i32.mul: 0x6c (valid) 0x91-0x91.7 (1)
    |                                               |                |                  [3]{}: in 0x92-0x92.7 (1)
0x90|      0b                                       |  .             |                    end: 0xb (valid) 0x92-0x92.7 (1)
    |                                               |                |            [3]{}: code 0x93-0x9a.7 (8)
0x90|         07                                    |   .            |              size: 7 0x93-0x93.7 (1)
    |                                               |                |              code{}: 0x94-0x9a.7 (7)
    |                                               |                |                t{}: 0x94-0x94.7 (1)
0x90|            00                                 |    .           |                  n: 0 0x94-0x94.7 (1)
    |                                               |                |                  x[0:0]: 0x95-NA (0)
    |                                               |                |                e[0:4]: 0x95-0x9a.7 (6)
    |                                               |                |                  [0]{}: in 0x95-0x96.7 (2)
0x90|               20                              |                |                    local.get: 0x20 (valid) 0x95-0x95.7 (1)
0x90|                  00                           |      .         |                    x: 0 0x96-0x96.7 (1)
    |                                               |                |                  [1]{}: in 0x97-0x98.7 (2)
0x90|                     20                        |                |                    local.get: 0x20 (valid) 0x97-0x97.7 (1)
0x90|                        01                     |        .       |                    x: 1 0x98-0x98.7 (1)
    |                                               |                |                  [2]{}: in 0x99-0x99.7 (1)
0x90|                           6e                  |         n      |                    i32.div_u: 0x6e (valid) 0x99-0x99.7 (1)
    |                                               |                |                  [3]{}: in 0x9a-0x9a.7 (1)
0x90|                              0b               |          .     |                    end: 0xb (valid) 0x9a-0x9a.7 (1)
    |                                               |                |            [4]{}: code 0x9b-0xa2.7 (8)
0x90|                                 07            |           .    |              size: 7 0x9b-0x9b.7 (1)
    |                                               |                |              code{}: 0x9c-0xa2.7 (7)
    |                                               |                |                t{}: 0x9c-0x9c.7 (1)
0x90|                                    00         |            .   |                  n: 0 0x9c-0x9c.7 (1)
    |                                               |                |                  x[0:0]: 0x9d-NA (0)
    |                                               |                |                e[0:4]: 0x9d-0xa2.7 (6)
    |                                               |                |                  [0]{}: in 0x9d-0x9e.7 (2)
0x90|                                       20      |                |                    local.get: 0x20 (valid) 0x9d-0x9d.7 (1)
0x90|                                          00   |              . |                    x: 0 0x9e-0x9e.7 (1)
    |                                               |                |                  [1]{}: in 0x9f-0xa0.7 (2)
0x90|                                             20|                |                    local.get: 0x20 (valid) 0x9f-0x9f.7 (1)
0xa0|01                                             |.               |                    x: 1 0xa0-0xa0.7 (1)
    |                                               |                |                  [2]{}: in 0xa1-0xa1.7 (1)
0xa0|   70                                          | p              |                    i32.rem_u: 0x70 (valid) 0xa1-0xa1.7 (1)
    |                                               |                |                  [3]{}: in 0xa2-0xa2.7 (1)
0xa0|      0b                                       |  .             |                    end: 0xb (valid) 0xa2-0xa2.7 (1)
    |                                               |                |            [5]{}: code 0xa3-0xa5.7 (3)
0xa0|         02                                    |   .            |              size: 2 0xa3-0xa3.7 (1)
    |                                               |                |              code{}: 0xa4-0xa5.7 (2)
    |                                               |                |                t{}: 0xa4-0xa4.7 (1)
0xa0|            00                                 |    .           |                  n: 0 0xa4-0xa4.7 (1)
    |                                               |                |                  x[0:0]: 0xa5-NA (0)
    |                                               |                |                e[0:1]: 0xa5-0xa5.7 (1)
    |                                               |                |                  [0]{}: in 0xa5-0xa5.7 (1)
0xa0|               0b                              |     .          |                    end: 0xb (valid) 0xa5-0xa5.7 (1)
    |                                               |                |            [6]{}: code 0xa6-0xb1.7 (12)
0xa0|                  0b                           |      .         |              size: 11 0xa6-0xa6.7 (1)
    |                                               |                |              code{}: 0xa7-0xb1.7 (11)
    |                                               |                |                t{}: 0xa7-0xa7.7 (1)
0xa0|                     00                        |       .        |                  n: 0 0xa7-0xa7.7 (1)
    |                                               |                |                  x[0:0]: 0xa8-NA (0)
    |                                               |                |                e[0:5]: 0xa8-0xb1.7 (10)
    |                                               |                |                  [0]{}: in 0xa8-0xa9.7 (2)
0xa0|                        20                     |                |                    local.get: 0x20 (valid) 0xa8-0xa8.7 (1)
0xa0|                           00                  |         .      |                    x: 0 0xa9-0xa9.7 (1)
    |                                               |                |                  [1]{}: in 0xaa-0xab.7 (2)
0xa0|                              20               |                |                    local.get: 0x20 (valid) 0xaa-0xaa.7 (1)
0xa0|                                 01            |           .    |                    x: 1 0xab-0xab.7 (1)
    |                                               |                |                  [2]{}: in 0xac-0xad.7 (2)
0xa0|                                    20         |                |                    local.get: 0x20 (valid) 0xac-0xac.7 (1)
0xa0|                                       02      |             .  |                    x: 2 0xad-0xad.7 (1)
    |                                               |                |                  [3]{}: in 0xae-0xb0.7 (3)
0xa0|                                          11   |              . |                    call: 0x11 (valid) 0xae-0xae.7 (1)
0xa0|                                             00|               .|                    y: 0 0xaf-0xaf.7 (1)
0xb0|00                                             |.               |                    x: 0 0xb0-0xb0.7 (1)
    |                                               |                |                  [4]{}: in 0xb1-0xb1.7 (1)
0xb0|   0b                                          | .              |                    end: 0xb (valid) 0xb1-0xb1.7 (1)
    |                                               |                |            [7]{}: code 0xb2-0xbd.7 (12)
0xb0|      0b                                       |  .             |              size: 11 0xb2-0xb2.7 (1)
    |                                               |                |              code{}: 0xb3-0xbd.7 (11)
    |                                               |                |                t{}: 0xb3-0xb3.7 (1)
0xb0|         00                                    |   .            |                  n: 0 0xb3-0xb3.7 (1)
    |                                               |                |                  x[0:0]: 0xb4-NA (0)
    |                                               |                |                e[0:5]: 0xb4-0xbd.7 (10)
    |                                               |                |                  [0]{}: in 0xb4-0xb5.7 (2)
0xb0|            20                                 |                |                    local.get: 0x20 (valid) 0xb4-0xb4.7 (1)
0xb0|               00                              |     .          |                    x: 0 0xb5-0xb5.7 (1)
    |                                               |                |                  [1]{}: in 0xb6-0xb7.7 (2)
0xb0|                  20                           |                |                    local.get: 0x20 (valid) 0xb6-0xb6.7 (1)
0xb0|                     01                        |       .        |                    x: 1 0xb7-0xb7.7 (1)
    |                                               |                |                  [2]{}: in 0xb8-0xb9.7 (2)
0xb0|                        20                     |                |                    local.get: 0x20 (valid) 0xb8-0xb8.7 (1)
0xb0|                           02                  |         .      |                    x: 2 0xb9-0xb9.7 (1)
    |                                               |                |                  [3]{}: in 0xba-0xbc.7 (3)
0xb0|                              11               |          .     |                    call: 0x11 (valid) 0xba-0xba.7 (1)
0xb0|                                 00            |           .    |                    y: 0 0xbb-0xbb.7 (1)
0xb0|                                    01         |            .   |                    x: 1 0xbc-0xbc.7 (1)
    |                                               |                |                  [4]{}: in 0xbd-0xbd.7 (1)
0xb0|                                       0b      |             .  |                    end: 0xb (valid) 0xbd-0xbd.7 (1)
    |                                               |                |            [8]{}: code 0xbe-0xc9.7 (12)
0xb0|                                          0b   |              . |              size: 11 0xbe-0xbe.7 (1)
    |                                               |                |              code{}: 0xbf-0xc9.7 (11)
    |                                               |                |                t{}: 0xbf-0xbf.7 (1)
0xb0|                                             00|               .|                  n: 0 0xbf-0xbf.7 (1)
    |                                               |                |                  x[0:0]: 0xc0-NA (0)
    |                                               |                |                e[0:5]: 0xc0-0xc9.7 (10)
    |                                               |                |                  [0]{}: in 0xc0-0xc1.7 (2)
0xc0|20                                             |                |                    local.get: 0x20 (valid) 0xc0-0xc0.7 (1)
0xc0|   00                                          | .              |                    x: 0 0xc1-0xc1.7 (1)
    |                                               |                |                  [1]{}: in 0xc2-0xc3.7 (2)
0xc0|      20                                       |                |                    local.get: 0x20 (valid) 0xc2-0xc2.7 (1)
0xc0|         01                                    |   .            |                    x: 1 0xc3-0xc3.7 (1)
    |                                               |                |                  [2]{}: in 0xc4-0xc5.7 (2)
0xc0|            20                                 |                |                    local.get: 0x20 (valid) 0xc4-0xc4.7 (1)
0xc0|               02                              |     .          |                    x: 2 0xc5-0xc5.7 (1)
    |                                               |                |                  [3]{}: in 0xc6-0xc8.7 (3)
0xc0|                  11                           |      .         |                    call: 0x11 (valid) 0xc6-0xc6.7 (1)
0xc0|                     00                        |       .        |                    y: 0 0xc7-0xc7.7 (1)
0xc0|                        02                     |        .       |                    x: 2 0xc8-0xc8.7 (1)
    |                                               |                |                  [4]{}: in 0xc9-0xc9.7 (1)
0xc0|                           0b|                 |         .|     |                    end: 0xb (valid) 0xc9-0xc9.7 (1)
