$ fq -d wasm dv call_indirect-1.wasm
    |00 01 02 03 04 05 06 07 08 09 0a 0b 0c 0d 0e 0f|0123456789abcdef|.{}: call_indirect-1.wasm (wasm) 0x0-0xca (202)
0x00|00 61 73 6d                                    |.asm            |  magic: raw bits (valid) 0x0-0x4 (4)
0x00|            01 00 00 00                        |    ....        |  version: 1 0x4-0x8 (4)
    |                                               |                |  sections[0:6]: 0x8-0xca (194)
    |                                               |                |    [0]{}: section 0x8-0x1b (19)
0x00|                        01                     |        .       |      id: "type_section" (1) 0x8-0x9 (1)
0x00|                           11                  |         .      |      size: 17 (valid) 0x9-0xa (1)
    |                                               |                |      content{}: 0xa-0x1b (17)
    |                                               |                |        ft{}: 0xa-0x1b (17)
0x00|                              03               |          .     |          n: 3 (valid) 0xa-0xb (1)
    |                                               |                |          x[0:3]: 0xb-0x1b (16)
    |                                               |                |            [0]{}: ft 0xb-0x11 (6)
0x00|                                 60            |           `    |              tag: 0x60 (valid) 0xb-0xc (1)
    |                                               |                |              rt1{}: 0xc-0xf (3)
0x00|                                    02         |            .   |                n: 2 (valid) 0xc-0xd (1)
    |                                               |                |                x[0:2]: 0xd-0xf (2)
0x00|                                       7f      |             .  |                  [0]: "i32" (0x7f) t 0xd-0xe (1)
0x00|                                          7f   |              . |                  [1]: "i32" (0x7f) t 0xe-0xf (1)
    |                                               |                |              rt2{}: 0xf-0x11 (2)
0x00|                                             01|               .|                n: 1 (valid) 0xf-0x10 (1)
    |                                               |                |                x[0:1]: 0x10-0x11 (1)
0x10|7f                                             |.               |                  [0]: "i32" (0x7f) t 0x10-0x11 (1)
    |                                               |                |            [1]{}: ft 0x11-0x14 (3)
0x10|   60                                          | `              |              tag: 0x60 (valid) 0x11-0x12 (1)
    |                                               |                |              rt1{}: 0x12-0x13 (1)
0x10|      00                                       |  .             |                n: 0 (valid) 0x12-0x13 (1)
    |                                               |                |                x[0:0]: 0x13-0x13 (0)
    |                                               |                |              rt2{}: 0x13-0x14 (1)
0x10|         00                                    |   .            |                n: 0 (valid) 0x13-0x14 (1)
    |                                               |                |                x[0:0]: 0x14-0x14 (0)
    |                                               |                |            [2]{}: ft 0x14-0x1b (7)
0x10|            60                                 |    `           |              tag: 0x60 (valid) 0x14-0x15 (1)
    |                                               |                |              rt1{}: 0x15-0x19 (4)
0x10|               03                              |     .          |                n: 3 (valid) 0x15-0x16 (1)
    |                                               |                |                x[0:3]: 0x16-0x19 (3)
0x10|                  7f                           |      .         |                  [0]: "i32" (0x7f) t 0x16-0x17 (1)
0x10|                     7f                        |       .        |                  [1]: "i32" (0x7f) t 0x17-0x18 (1)
0x10|                        7f                     |        .       |                  [2]: "i32" (0x7f) t 0x18-0x19 (1)
    |                                               |                |              rt2{}: 0x19-0x1b (2)
0x10|                           01                  |         .      |                n: 1 (valid) 0x19-0x1a (1)
    |                                               |                |                x[0:1]: 0x1a-0x1b (1)
0x10|                              7f               |          .     |                  [0]: "i32" (0x7f) t 0x1a-0x1b (1)
    |                                               |                |    [1]{}: section 0x1b-0x27 (12)
0x10|                                 03            |           .    |      id: "function_section" (3) 0x1b-0x1c (1)
0x10|                                    0a         |            .   |      size: 10 (valid) 0x1c-0x1d (1)
    |                                               |                |      content{}: 0x1d-0x27 (10)
    |                                               |                |        x{}: 0x1d-0x27 (10)
0x10|                                       09      |             .  |          n: 9 (valid) 0x1d-0x1e (1)
    |                                               |                |          x[0:9]: 0x1e-0x27 (9)
0x10|                                          00   |              . |            [0]: 0 x (valid) 0x1e-0x1f (1)
0x10|                                             00|               .|            [1]: 0 x (valid) 0x1f-0x20 (1)
0x20|00                                             |.               |            [2]: 0 x (valid) 0x20-0x21 (1)
0x20|   00                                          | .              |            [3]: 0 x (valid) 0x21-0x22 (1)
0x20|      00                                       |  .             |            [4]: 0 x (valid) 0x22-0x23 (1)
0x20|         01                                    |   .            |            [5]: 1 x (valid) 0x23-0x24 (1)
0x20|            02                                 |    .           |            [6]: 2 x (valid) 0x24-0x25 (1)
0x20|               02                              |     .          |            [7]: 2 x (valid) 0x25-0x26 (1)
0x20|                  02                           |      .         |            [8]: 2 x (valid) 0x26-0x27 (1)
    |                                               |                |    [2]{}: section 0x27-0x35 (14)
0x20|                     04                        |       .        |      id: "table_section" (4) 0x27-0x28 (1)
0x20|                        0c                     |        .       |      size: 12 (valid) 0x28-0x29 (1)
    |                                               |                |      content{}: 0x29-0x35 (12)
    |                                               |                |        tab{}: 0x29-0x35 (12)
0x20|                           03                  |         .      |          n: 3 (valid) 0x29-0x2a (1)
    |                                               |                |          x[0:3]: 0x2a-0x35 (11)
    |                                               |                |            [0]{}: tab 0x2a-0x2e (4)
0x20|                              70               |          p     |              et: "funcref" (112) 0x2a-0x2b (1)
    |                                               |                |              lim{}: 0x2b-0x2e (3)
0x20|                                 01            |           .    |                tag: 0x1 0x2b-0x2c (1)
0x20|                                    02         |            .   |                n: 2 (valid) 0x2c-0x2d (1)
0x20|                                       02      |             .  |                m: 2 (valid) 0x2d-0x2e (1)
    |                                               |                |            [1]{}: tab 0x2e-0x32 (4)
0x20|                                          70   |              p |              et: "funcref" (112) 0x2e-0x2f (1)
    |                                               |                |              lim{}: 0x2f-0x32 (3)
0x20|                                             01|               .|                tag: 0x1 0x2f-0x30 (1)
0x30|03                                             |.               |                n: 3 (valid) 0x30-0x31 (1)
0x30|   03                                          | .              |                m: 3 (valid) 0x31-0x32 (1)
    |                                               |                |            [2]{}: tab 0x32-0x35 (3)
0x30|      70                                       |  p             |              et: "funcref" (112) 0x32-0x33 (1)
    |                                               |                |              lim{}: 0x33-0x35 (2)
0x30|         00                                    |   .            |                tag: 0x0 0x33-0x34 (1)
0x30|            04                                 |    .           |                n: 4 (valid) 0x34-0x35 (1)
    |                                               |                |    [3]{}: section 0x35-0x53 (30)
0x30|               07                              |     .          |      id: "export_section" (7) 0x35-0x36 (1)
0x30|                  1c                           |      .         |      size: 28 (valid) 0x36-0x37 (1)
    |                                               |                |      content{}: 0x37-0x53 (28)
    |                                               |                |        ex{}: 0x37-0x53 (28)
0x30|                     03                        |       .        |          n: 3 (valid) 0x37-0x38 (1)
    |                                               |                |          x[0:3]: 0x38-0x53 (27)
    |                                               |                |            [0]{}: ex 0x38-0x41 (9)
    |                                               |                |              nm{}: 0x38-0x3f (7)
0x30|                        06                     |        .       |                n: 6 (valid) 0x38-0x39 (1)
0x30|                           63 61 6c 6c 2d 31   |         call-1 |                b: "call-1" 0x39-0x3f (6)
    |                                               |                |              d{}: 0x3f-0x41 (2)
0x30|                                             00|               .|                tag: "funcidx" (0x0) 0x3f-0x40 (1)
0x40|06                                             |.               |                x: 6 (valid) 0x40-0x41 (1)
    |                                               |                |            [1]{}: ex 0x41-0x4a (9)
    |                                               |                |              nm{}: 0x41-0x48 (7)
0x40|   06                                          | .              |                n: 6 (valid) 0x41-0x42 (1)
0x40|      63 61 6c 6c 2d 32                        |  call-2        |                b: "call-2" 0x42-0x48 (6)
    |                                               |                |              d{}: 0x48-0x4a (2)
0x40|                        00                     |        .       |                tag: "funcidx" (0x0) 0x48-0x49 (1)
0x40|                           07                  |         .      |                x: 7 (valid) 0x49-0x4a (1)
    |                                               |                |            [2]{}: ex 0x4a-0x53 (9)
    |                                               |                |              nm{}: 0x4a-0x51 (7)
0x40|                              06               |          .     |                n: 6 (valid) 0x4a-0x4b (1)
0x40|                                 63 61 6c 6c 2d|           call-|                b: "call-3" 0x4b-0x51 (6)
0x50|33                                             |3               |
    |                                               |                |              d{}: 0x51-0x53 (2)
0x50|   00                                          | .              |                tag: "funcidx" (0x0) 0x51-0x52 (1)
0x50|      08                                       |  .             |                x: 8 (valid) 0x52-0x53 (1)
    |                                               |                |    [4]{}: section 0x53-0x78 (37)
0x50|         09                                    |   .            |      id: "element_section" (9) 0x53-0x54 (1)
0x50|            23                                 |    #           |      size: 35 (valid) 0x54-0x55 (1)
    |                                               |                |      element{}: 0x55-0x78 (35)
    |                                               |                |        seg{}: 0x55-0x78 (35)
0x50|               04                              |     .          |          n: 4 (valid) 0x55-0x56 (1)
    |                                               |                |          x[0:4]: 0x56-0x78 (34)
    |                                               |                |            [0]{}: seg 0x56-0x5d (7)
0x50|                  00                           |      .         |              tag: 0 (valid) 0x56-0x57 (1)
    |                                               |                |              e[0:2]: 0x57-0x5a (3)
    |                                               |                |                [0]{}: in 0x57-0x59 (2)
0x50|                     41                        |       A        |                  opcode: "i32.const" (0x41) 0x57-0x58 (1)
0x50|                        00                     |        .       |                  n: 0 (valid) 0x58-0x59 (1)
    |                                               |                |                [1]{}: in 0x59-0x5a (1)
0x50|                           0b                  |         .      |                  opcode: "end" (0xb) 0x59-0x5a (1)
    |                                               |                |              y{}: 0x5a-0x5d (3)
0x50|                              02               |          .     |                n: 2 (valid) 0x5a-0x5b (1)
    |                                               |                |                x[0:2]: 0x5b-0x5d (2)
0x50|                                 00            |           .    |                  [0]: 0 y (valid) 0x5b-0x5c (1)
0x50|                                    01         |            .   |                  [1]: 1 y (valid) 0x5c-0x5d (1)
    |                                               |                |            [1]{}: seg 0x5d-0x67 (10)
0x50|                                       02      |             .  |              tag: 2 (valid) 0x5d-0x5e (1)
0x50|                                          01   |              . |              x: 1 (valid) 0x5e-0x5f (1)
    |                                               |                |              e[0:2]: 0x5f-0x62 (3)
    |                                               |                |                [0]{}: in 0x5f-0x61 (2)
0x50|                                             41|               A|                  opcode: "i32.const" (0x41) 0x5f-0x60 (1)
0x60|00                                             |.               |                  n: 0 (valid) 0x60-0x61 (1)
    |                                               |                |                [1]{}: in 0x61-0x62 (1)
0x60|   0b                                          | .              |                  opcode: "end" (0xb) 0x61-0x62 (1)
0x60|      00                                       |  .             |              et: "funcref" (0) (valid) 0x62-0x63 (1)
    |                                               |                |              y{}: 0x63-0x67 (4)
0x60|         03                                    |   .            |                n: 3 (valid) 0x63-0x64 (1)
    |                                               |                |                x[0:3]: 0x64-0x67 (3)
0x60|            02                                 |    .           |                  [0]: 2 y (valid) 0x64-0x65 (1)
0x60|               03                              |     .          |                  [1]: 3 y (valid) 0x65-0x66 (1)
0x60|                  04                           |      .         |                  [2]: 4 y (valid) 0x66-0x67 (1)
    |                                               |                |            [2]{}: seg 0x67-0x70 (9)
0x60|                     02                        |       .        |              tag: 2 (valid) 0x67-0x68 (1)
0x60|                        02                     |        .       |              x: 2 (valid) 0x68-0x69 (1)
    |                                               |                |              e[0:2]: 0x69-0x6c (3)
    |                                               |                |                [0]{}: in 0x69-0x6b (2)
0x60|                           41                  |         A      |                  opcode: "i32.const" (0x41) 0x69-0x6a (1)
0x60|                              00               |          .     |                  n: 0 (valid) 0x6a-0x6b (1)
    |                                               |                |                [1]{}: in 0x6b-0x6c (1)
0x60|                                 0b            |           .    |                  opcode: "end" (0xb) 0x6b-0x6c (1)
0x60|                                    00         |            .   |              et: "funcref" (0) (valid) 0x6c-0x6d (1)
    |                                               |                |              y{}: 0x6d-0x70 (3)
0x60|                                       02      |             .  |                n: 2 (valid) 0x6d-0x6e (1)
    |                                               |                |                x[0:2]: 0x6e-0x70 (2)
0x60|                                          01   |              . |                  [0]: 1 y (valid) 0x6e-0x6f (1)
0x60|                                             02|               .|                  [1]: 2 y (valid) 0x6f-0x70 (1)
    |                                               |                |            [3]{}: seg 0x70-0x78 (8)
0x70|02                                             |.               |              tag: 2 (valid) 0x70-0x71 (1)
0x70|   02                                          | .              |              x: 2 (valid) 0x71-0x72 (1)
    |                                               |                |              e[0:2]: 0x72-0x75 (3)
    |                                               |                |                [0]{}: in 0x72-0x74 (2)
0x70|      41                                       |  A             |                  opcode: "i32.const" (0x41) 0x72-0x73 (1)
0x70|         03                                    |   .            |                  n: 3 (valid) 0x73-0x74 (1)
    |                                               |                |                [1]{}: in 0x74-0x75 (1)
0x70|            0b                                 |    .           |                  opcode: "end" (0xb) 0x74-0x75 (1)
0x70|               00                              |     .          |              et: "funcref" (0) (valid) 0x75-0x76 (1)
    |                                               |                |              y{}: 0x76-0x78 (2)
0x70|                  01                           |      .         |                n: 1 (valid) 0x76-0x77 (1)
    |                                               |                |                x[0:1]: 0x77-0x78 (1)
0x70|                     05                        |       .        |                  [0]: 5 y (valid) 0x77-0x78 (1)
    |                                               |                |    [5]{}: section 0x78-0xca (82)
0x70|                        0a                     |        .       |      id: "code_section" (10) 0x78-0x79 (1)
0x70|                           50                  |         P      |      size: 80 (valid) 0x79-0x7a (1)
    |                                               |                |      content{}: 0x7a-0xca (80)
    |                                               |                |        code{}: 0x7a-0xca (80)
0x70|                              09               |          .     |          n: 9 (valid) 0x7a-0x7b (1)
    |                                               |                |          x[0:9]: 0x7b-0xca (79)
    |                                               |                |            [0]{}: code 0x7b-0x83 (8)
0x70|                                 07            |           .    |              size: 7 (valid) 0x7b-0x7c (1)
    |                                               |                |              code{}: 0x7c-0x83 (7)
    |                                               |                |                t{}: 0x7c-0x7d (1)
0x70|                                    00         |            .   |                  n: 0 (valid) 0x7c-0x7d (1)
    |                                               |                |                  x[0:0]: 0x7d-0x7d (0)
    |                                               |                |                e[0:4]: 0x7d-0x83 (6)
    |                                               |                |                  [0]{}: in 0x7d-0x7f (2)
0x70|                                       20      |                |                    opcode: "local.get" (0x20) 0x7d-0x7e (1)
0x70|                                          00   |              . |                    x: 0 (valid) 0x7e-0x7f (1)
    |                                               |                |                  [1]{}: in 0x7f-0x81 (2)
0x70|                                             20|                |                    opcode: "local.get" (0x20) 0x7f-0x80 (1)
0x80|01                                             |.               |                    x: 1 (valid) 0x80-0x81 (1)
    |                                               |                |                  [2]{}: in 0x81-0x82 (1)
0x80|   6a                                          | j              |                    opcode: "i32.add" (0x6a) 0x81-0x82 (1)
    |                                               |                |                  [3]{}: in 0x82-0x83 (1)
0x80|      0b                                       |  .             |                    opcode: "end" (0xb) 0x82-0x83 (1)
    |                                               |                |            [1]{}: code 0x83-0x8b (8)
0x80|         07                                    |   .            |              size: 7 (valid) 0x83-0x84 (1)
    |                                               |                |              code{}: 0x84-0x8b (7)
    |                                               |                |                t{}: 0x84-0x85 (1)
0x80|            00                                 |    .           |                  n: 0 (valid) 0x84-0x85 (1)
    |                                               |                |                  x[0:0]: 0x85-0x85 (0)
    |                                               |                |                e[0:4]: 0x85-0x8b (6)
    |                                               |                |                  [0]{}: in 0x85-0x87 (2)
0x80|               20                              |                |                    opcode: "local.get" (0x20) 0x85-0x86 (1)
0x80|                  00                           |      .         |                    x: 0 (valid) 0x86-0x87 (1)
    |                                               |                |                  [1]{}: in 0x87-0x89 (2)
0x80|                     20                        |                |                    opcode: "local.get" (0x20) 0x87-0x88 (1)
0x80|                        01                     |        .       |                    x: 1 (valid) 0x88-0x89 (1)
    |                                               |                |                  [2]{}: in 0x89-0x8a (1)
0x80|                           6b                  |         k      |                    opcode: "i32.sub" (0x6b) 0x89-0x8a (1)
    |                                               |                |                  [3]{}: in 0x8a-0x8b (1)
0x80|                              0b               |          .     |                    opcode: "end" (0xb) 0x8a-0x8b (1)
    |                                               |                |            [2]{}: code 0x8b-0x93 (8)
0x80|                                 07            |           .    |              size: 7 (valid) 0x8b-0x8c (1)
    |                                               |                |              code{}: 0x8c-0x93 (7)
    |                                               |                |                t{}: 0x8c-0x8d (1)
0x80|                                    00         |            .   |                  n: 0 (valid) 0x8c-0x8d (1)
    |                                               |                |                  x[0:0]: 0x8d-0x8d (0)
    |                                               |                |                e[0:4]: 0x8d-0x93 (6)
    |                                               |                |                  [0]{}: in 0x8d-0x8f (2)
0x80|                                       20      |                |                    opcode: "local.get" (0x20) 0x8d-0x8e (1)
0x80|                                          00   |              . |                    x: 0 (valid) 0x8e-0x8f (1)
    |                                               |                |                  [1]{}: in 0x8f-0x91 (2)
0x80|                                             20|                |                    opcode: "local.get" (0x20) 0x8f-0x90 (1)
0x90|01                                             |.               |                    x: 1 (valid) 0x90-0x91 (1)
    |                                               |                |                  [2]{}: in 0x91-0x92 (1)
0x90|   6c                                          | l              |                    opcode: "i32.mul" (0x6c) 0x91-0x92 (1)
    |                                               |                |                  [3]{}: in 0x92-0x93 (1)
0x90|      0b                                       |  .             |                    opcode: "end" (0xb) 0x92-0x93 (1)
    |                                               |                |            [3]{}: code 0x93-0x9b (8)
0x90|         07                                    |   .            |              size: 7 (valid) 0x93-0x94 (1)
    |                                               |                |              code{}: 0x94-0x9b (7)
    |                                               |                |                t{}: 0x94-0x95 (1)
0x90|            00                                 |    .           |                  n: 0 (valid) 0x94-0x95 (1)
    |                                               |                |                  x[0:0]: 0x95-0x95 (0)
    |                                               |                |                e[0:4]: 0x95-0x9b (6)
    |                                               |                |                  [0]{}: in 0x95-0x97 (2)
0x90|               20                              |                |                    opcode: "local.get" (0x20) 0x95-0x96 (1)
0x90|                  00                           |      .         |                    x: 0 (valid) 0x96-0x97 (1)
    |                                               |                |                  [1]{}: in 0x97-0x99 (2)
0x90|                     20                        |                |                    opcode: "local.get" (0x20) 0x97-0x98 (1)
0x90|                        01                     |        .       |                    x: 1 (valid) 0x98-0x99 (1)
    |                                               |                |                  [2]{}: in 0x99-0x9a (1)
0x90|                           6e                  |         n      |                    opcode: "i32.div_u" (0x6e) 0x99-0x9a (1)
    |                                               |                |                  [3]{}: in 0x9a-0x9b (1)
0x90|                              0b               |          .     |                    opcode: "end" (0xb) 0x9a-0x9b (1)
    |                                               |                |            [4]{}: code 0x9b-0xa3 (8)
0x90|                                 07            |           .    |              size: 7 (valid) 0x9b-0x9c (1)
    |                                               |                |              code{}: 0x9c-0xa3 (7)
    |                                               |                |                t{}: 0x9c-0x9d (1)
0x90|                                    00         |            .   |                  n: 0 (valid) 0x9c-0x9d (1)
    |                                               |                |                  x[0:0]: 0x9d-0x9d (0)
    |                                               |                |                e[0:4]: 0x9d-0xa3 (6)
    |                                               |                |                  [0]{}: in 0x9d-0x9f (2)
0x90|                                       20      |                |                    opcode: "local.get" (0x20) 0x9d-0x9e (1)
0x90|                                          00   |              . |                    x: 0 (valid) 0x9e-0x9f (1)
    |                                               |                |                  [1]{}: in 0x9f-0xa1 (2)
0x90|                                             20|                |                    opcode: "local.get" (0x20) 0x9f-0xa0 (1)
0xa0|01                                             |.               |                    x: 1 (valid) 0xa0-0xa1 (1)
    |                                               |                |                  [2]{}: in 0xa1-0xa2 (1)
0xa0|   70                                          | p              |                    opcode: "i32.rem_u" (0x70) 0xa1-0xa2 (1)
    |                                               |                |                  [3]{}: in 0xa2-0xa3 (1)
0xa0|      0b                                       |  .             |                    opcode: "end" (0xb) 0xa2-0xa3 (1)
    |                                               |                |            [5]{}: code 0xa3-0xa6 (3)
0xa0|         02                                    |   .            |              size: 2 (valid) 0xa3-0xa4 (1)
    |                                               |                |              code{}: 0xa4-0xa6 (2)
    |                                               |                |                t{}: 0xa4-0xa5 (1)
0xa0|            00                                 |    .           |                  n: 0 (valid) 0xa4-0xa5 (1)
    |                                               |                |                  x[0:0]: 0xa5-0xa5 (0)
    |                                               |                |                e[0:1]: 0xa5-0xa6 (1)
    |                                               |                |                  [0]{}: in 0xa5-0xa6 (1)
0xa0|               0b                              |     .          |                    opcode: "end" (0xb) 0xa5-0xa6 (1)
    |                                               |                |            [6]{}: code 0xa6-0xb2 (12)
0xa0|                  0b                           |      .         |              size: 11 (valid) 0xa6-0xa7 (1)
    |                                               |                |              code{}: 0xa7-0xb2 (11)
    |                                               |                |                t{}: 0xa7-0xa8 (1)
0xa0|                     00                        |       .        |                  n: 0 (valid) 0xa7-0xa8 (1)
    |                                               |                |                  x[0:0]: 0xa8-0xa8 (0)
    |                                               |                |                e[0:5]: 0xa8-0xb2 (10)
    |                                               |                |                  [0]{}: in 0xa8-0xaa (2)
0xa0|                        20                     |                |                    opcode: "local.get" (0x20) 0xa8-0xa9 (1)
0xa0|                           00                  |         .      |                    x: 0 (valid) 0xa9-0xaa (1)
    |                                               |                |                  [1]{}: in 0xaa-0xac (2)
0xa0|                              20               |                |                    opcode: "local.get" (0x20) 0xaa-0xab (1)
0xa0|                                 01            |           .    |                    x: 1 (valid) 0xab-0xac (1)
    |                                               |                |                  [2]{}: in 0xac-0xae (2)
0xa0|                                    20         |                |                    opcode: "local.get" (0x20) 0xac-0xad (1)
0xa0|                                       02      |             .  |                    x: 2 (valid) 0xad-0xae (1)
    |                                               |                |                  [3]{}: in 0xae-0xb1 (3)
0xa0|                                          11   |              . |                    opcode: "call_indirect" (0x11) 0xae-0xaf (1)
0xa0|                                             00|               .|                    y: 0 (valid) 0xaf-0xb0 (1)
0xb0|00                                             |.               |                    x: 0 (valid) 0xb0-0xb1 (1)
    |                                               |                |                  [4]{}: in 0xb1-0xb2 (1)
0xb0|   0b                                          | .              |                    opcode: "end" (0xb) 0xb1-0xb2 (1)
    |                                               |                |            [7]{}: code 0xb2-0xbe (12)
0xb0|      0b                                       |  .             |              size: 11 (valid) 0xb2-0xb3 (1)
    |                                               |                |              code{}: 0xb3-0xbe (11)
    |                                               |                |                t{}: 0xb3-0xb4 (1)
0xb0|         00                                    |   .            |                  n: 0 (valid) 0xb3-0xb4 (1)
    |                                               |                |                  x[0:0]: 0xb4-0xb4 (0)
    |                                               |                |                e[0:5]: 0xb4-0xbe (10)
    |                                               |                |                  [0]{}: in 0xb4-0xb6 (2)
0xb0|            20                                 |                |                    opcode: "local.get" (0x20) 0xb4-0xb5 (1)
0xb0|               00                              |     .          |                    x: 0 (valid) 0xb5-0xb6 (1)
    |                                               |                |                  [1]{}: in 0xb6-0xb8 (2)
0xb0|                  20                           |                |                    opcode: "local.get" (0x20) 0xb6-0xb7 (1)
0xb0|                     01                        |       .        |                    x: 1 (valid) 0xb7-0xb8 (1)
    |                                               |                |                  [2]{}: in 0xb8-0xba (2)
0xb0|                        20                     |                |                    opcode: "local.get" (0x20) 0xb8-0xb9 (1)
0xb0|                           02                  |         .      |                    x: 2 (valid) 0xb9-0xba (1)
    |                                               |                |                  [3]{}: in 0xba-0xbd (3)
0xb0|                              11               |          .     |                    opcode: "call_indirect" (0x11) 0xba-0xbb (1)
0xb0|                                 00            |           .    |                    y: 0 (valid) 0xbb-0xbc (1)
0xb0|                                    01         |            .   |                    x: 1 (valid) 0xbc-0xbd (1)
    |                                               |                |                  [4]{}: in 0xbd-0xbe (1)
0xb0|                                       0b      |             .  |                    opcode: "end" (0xb) 0xbd-0xbe (1)
    |                                               |                |            [8]{}: code 0xbe-0xca (12)
0xb0|                                          0b   |              . |              size: 11 (valid) 0xbe-0xbf (1)
    |                                               |                |              code{}: 0xbf-0xca (11)
    |                                               |                |                t{}: 0xbf-0xc0 (1)
0xb0|                                             00|               .|                  n: 0 (valid) 0xbf-0xc0 (1)
    |                                               |                |                  x[0:0]: 0xc0-0xc0 (0)
    |                                               |                |                e[0:5]: 0xc0-0xca (10)
    |                                               |                |                  [0]{}: in 0xc0-0xc2 (2)
0xc0|20                                             |                |                    opcode: "local.get" (0x20) 0xc0-0xc1 (1)
0xc0|   00                                          | .              |                    x: 0 (valid) 0xc1-0xc2 (1)
    |                                               |                |                  [1]{}: in 0xc2-0xc4 (2)
0xc0|      20                                       |                |                    opcode: "local.get" (0x20) 0xc2-0xc3 (1)
0xc0|         01                                    |   .            |                    x: 1 (valid) 0xc3-0xc4 (1)
    |                                               |                |                  [2]{}: in 0xc4-0xc6 (2)
0xc0|            20                                 |                |                    opcode: "local.get" (0x20) 0xc4-0xc5 (1)
0xc0|               02                              |     .          |                    x: 2 (valid) 0xc5-0xc6 (1)
    |                                               |                |                  [3]{}: in 0xc6-0xc9 (3)
0xc0|                  11                           |      .         |                    opcode: "call_indirect" (0x11) 0xc6-0xc7 (1)
0xc0|                     00                        |       .        |                    y: 0 (valid) 0xc7-0xc8 (1)
0xc0|                        02                     |        .       |                    x: 2 (valid) 0xc8-0xc9 (1)
    |                                               |                |                  [4]{}: in 0xc9-0xca (1)
0xc0|                           0b|                 |         .|     |                    opcode: "end" (0xb) 0xc9-0xca (1)
