$ fq -d wasm dv const-71.wasm
    |00 01 02 03 04 05 06 07 08 09 0a 0b 0c 0d 0e 0f|0123456789abcdef|.{}: const-71.wasm (wasm) 0x0-0x23.7 (36)
0x00|00 61 73 6d                                    |.asm            |  magic: raw bits (valid) 0x0-0x3.7 (4)
0x00|            01 00 00 00                        |    ....        |  version: 1 0x4-0x7.7 (4)
    |                                               |                |  sections[0:3]: 0x8-0x23.7 (28)
    |                                               |                |    [0]{}: section 0x8-0xd.7 (6)
0x00|                        01                     |        .       |      id: "type_section" (1) 0x8-0x8.7 (1)
0x00|                           04                  |         .      |      size: 4 (valid) 0x9-0x9.7 (1)
    |                                               |                |      content{}: 0xa-0xd.7 (4)
    |                                               |                |        ft{}: 0xa-0xd.7 (4)
0x00|                              01               |          .     |          n: 1 (valid) 0xa-0xa.7 (1)
    |                                               |                |          x[0:1]: 0xb-0xd.7 (3)
    |                                               |                |            [0]{}: ft 0xb-0xd.7 (3)
0x00|                                 60            |           `    |              tag: 0x60 (valid) 0xb-0xb.7 (1)
    |                                               |                |              rt1{}: 0xc-0xc.7 (1)
0x00|                                    00         |            .   |                n: 0 (valid) 0xc-0xc.7 (1)
    |                                               |                |                x[0:0]: 0xd-NA (0)
    |                                               |                |              rt2{}: 0xd-0xd.7 (1)
0x00|                                       00      |             .  |                n: 0 (valid) 0xd-0xd.7 (1)
    |                                               |                |                x[0:0]: 0xe-NA (0)
    |                                               |                |    [1]{}: section 0xe-0x11.7 (4)
0x00|                                          03   |              . |      id: "function_section" (3) 0xe-0xe.7 (1)
0x00|                                             02|               .|      size: 2 (valid) 0xf-0xf.7 (1)
    |                                               |                |      content{}: 0x10-0x11.7 (2)
    |                                               |                |        x{}: 0x10-0x11.7 (2)
0x10|01                                             |.               |          n: 1 (valid) 0x10-0x10.7 (1)
    |                                               |                |          x[0:1]: 0x11-0x11.7 (1)
0x10|   00                                          | .              |            [0]: 0 x (valid) 0x11-0x11.7 (1)
    |                                               |                |    [2]{}: section 0x12-0x23.7 (18)
0x10|      0a                                       |  .             |      id: "code_section" (10) 0x12-0x12.7 (1)
0x10|         10                                    |   .            |      size: 16 (valid) 0x13-0x13.7 (1)
    |                                               |                |      content{}: 0x14-0x23.7 (16)
    |                                               |                |        code{}: 0x14-0x23.7 (16)
0x10|            01                                 |    .           |          n: 1 (valid) 0x14-0x14.7 (1)
    |                                               |                |          x[0:1]: 0x15-0x23.7 (15)
    |                                               |                |            [0]{}: code 0x15-0x23.7 (15)
0x10|               0e                              |     .          |              size: 14 (valid) 0x15-0x15.7 (1)
    |                                               |                |              code{}: 0x16-0x23.7 (14)
    |                                               |                |                t{}: 0x16-0x16.7 (1)
0x10|                  00                           |      .         |                  n: 0 (valid) 0x16-0x16.7 (1)
    |                                               |                |                  x[0:0]: 0x17-NA (0)
    |                                               |                |                e[0:3]: 0x17-0x23.7 (13)
    |                                               |                |                  [0]{}: in 0x17-0x21.7 (11)
0x10|                     42                        |       B        |                    opcode: "i64.const" (0x42) 0x17-0x17.7 (1)
0x10|                        80 80 80 80 80 80 80 80|        ........|                    n: -9223372036854775808 0x18-0x21.7 (10)
0x20|80 7f                                          |..              |
    |                                               |                |                  [1]{}: in 0x22-0x22.7 (1)
0x20|      1a                                       |  .             |                    opcode: "drop" (0x1a) 0x22-0x22.7 (1)
    |                                               |                |                  [2]{}: in 0x23-0x23.7 (1)
0x20|         0b|                                   |   .|           |                    opcode: "end" (0xb) 0x23-0x23.7 (1)
