$ fq -d wasm dv conversions-0.wasm
     |00 01 02 03 04 05 06 07 08 09 0a 0b 0c 0d 0e 0f|0123456789abcdef|.{}: conversions-0.wasm (wasm) 0x0-0x3d0.7 (977)
0x000|00 61 73 6d                                    |.asm            |  magic: raw bits (valid) 0x0-0x3.7 (4)
0x000|            01 00 00 00                        |    ....        |  version: 1 0x4-0x7.7 (4)
     |                                               |                |  sections[0:4]: 0x8-0x3d0.7 (969)
     |                                               |                |    [0]{}: section 0x8-0x46.7 (63)
0x000|                        01                     |        .       |      id: "type section" (1) 0x8-0x8.7 (1)
0x000|                           3d                  |         =      |      size: 61 0x9-0x9.7 (1)
     |                                               |                |      content{}: 0xa-0x46.7 (61)
     |                                               |                |        ft{}: 0xa-0x46.7 (61)
0x000|                              0c               |          .     |          n: 12 0xa-0xa.7 (1)
     |                                               |                |          x[0:12]: 0xb-0x46.7 (60)
     |                                               |                |            [0]{}: ft 0xb-0xf.7 (5)
0x000|                                 60            |           `    |              tag: 0x60 (valid) 0xb-0xb.7 (1)
     |                                               |                |              rt1{}: 0xc-0xd.7 (2)
0x000|                                    01         |            .   |                n: 1 0xc-0xc.7 (1)
     |                                               |                |                x[0:1]: 0xd-0xd.7 (1)
0x000|                                       7f      |             .  |                  [0]: "i32" (0x7f) t 0xd-0xd.7 (1)
     |                                               |                |              rt2{}: 0xe-0xf.7 (2)
0x000|                                          01   |              . |                n: 1 0xe-0xe.7 (1)
     |                                               |                |                x[0:1]: 0xf-0xf.7 (1)
0x000|                                             7e|               ~|                  [0]: "i64" (0x7e) t 0xf-0xf.7 (1)
     |                                               |                |            [1]{}: ft 0x10-0x14.7 (5)
0x010|60                                             |`               |              tag: 0x60 (valid) 0x10-0x10.7 (1)
     |                                               |                |              rt1{}: 0x11-0x12.7 (2)
0x010|   01                                          | .              |                n: 1 0x11-0x11.7 (1)
     |                                               |                |                x[0:1]: 0x12-0x12.7 (1)
0x010|      7e                                       |  ~             |                  [0]: "i64" (0x7e) t 0x12-0x12.7 (1)
     |                                               |                |              rt2{}: 0x13-0x14.7 (2)
0x010|         01                                    |   .            |                n: 1 0x13-0x13.7 (1)
     |                                               |                |                x[0:1]: 0x14-0x14.7 (1)
0x010|            7f                                 |    .           |                  [0]: "i32" (0x7f) t 0x14-0x14.7 (1)
     |                                               |                |            [2]{}: ft 0x15-0x19.7 (5)
0x010|               60                              |     `          |              tag: 0x60 (valid) 0x15-0x15.7 (1)
     |                                               |                |              rt1{}: 0x16-0x17.7 (2)
0x010|                  01                           |      .         |                n: 1 0x16-0x16.7 (1)
     |                                               |                |                x[0:1]: 0x17-0x17.7 (1)
0x010|                     7d                        |       }        |                  [0]: "f32" (0x7d) t 0x17-0x17.7 (1)
     |                                               |                |              rt2{}: 0x18-0x19.7 (2)
0x010|                        01                     |        .       |                n: 1 0x18-0x18.7 (1)
     |                                               |                |                x[0:1]: 0x19-0x19.7 (1)
0x010|                           7f                  |         .      |                  [0]: "i32" (0x7f) t 0x19-0x19.7 (1)
     |                                               |                |            [3]{}: ft 0x1a-0x1e.7 (5)
0x010|                              60               |          `     |              tag: 0x60 (valid) 0x1a-0x1a.7 (1)
     |                                               |                |              rt1{}: 0x1b-0x1c.7 (2)
0x010|                                 01            |           .    |                n: 1 0x1b-0x1b.7 (1)
     |                                               |                |                x[0:1]: 0x1c-0x1c.7 (1)
0x010|                                    7c         |            |   |                  [0]: "f64" (0x7c) t 0x1c-0x1c.7 (1)
     |                                               |                |              rt2{}: 0x1d-0x1e.7 (2)
0x010|                                       01      |             .  |                n: 1 0x1d-0x1d.7 (1)
     |                                               |                |                x[0:1]: 0x1e-0x1e.7 (1)
0x010|                                          7f   |              . |                  [0]: "i32" (0x7f) t 0x1e-0x1e.7 (1)
     |                                               |                |            [4]{}: ft 0x1f-0x23.7 (5)
0x010|                                             60|               `|              tag: 0x60 (valid) 0x1f-0x1f.7 (1)
     |                                               |                |              rt1{}: 0x20-0x21.7 (2)
0x020|01                                             |.               |                n: 1 0x20-0x20.7 (1)
     |                                               |                |                x[0:1]: 0x21-0x21.7 (1)
0x020|   7d                                          | }              |                  [0]: "f32" (0x7d) t 0x21-0x21.7 (1)
     |                                               |                |              rt2{}: 0x22-0x23.7 (2)
0x020|      01                                       |  .             |                n: 1 0x22-0x22.7 (1)
     |                                               |                |                x[0:1]: 0x23-0x23.7 (1)
0x020|         7e                                    |   ~            |                  [0]: "i64" (0x7e) t 0x23-0x23.7 (1)
     |                                               |                |            [5]{}: ft 0x24-0x28.7 (5)
0x020|            60                                 |    `           |              tag: 0x60 (valid) 0x24-0x24.7 (1)
     |                                               |                |              rt1{}: 0x25-0x26.7 (2)
0x020|               01                              |     .          |                n: 1 0x25-0x25.7 (1)
     |                                               |                |                x[0:1]: 0x26-0x26.7 (1)
0x020|                  7c                           |      |         |                  [0]: "f64" (0x7c) t 0x26-0x26.7 (1)
     |                                               |                |              rt2{}: 0x27-0x28.7 (2)
0x020|                     01                        |       .        |                n: 1 0x27-0x27.7 (1)
     |                                               |                |                x[0:1]: 0x28-0x28.7 (1)
0x020|                        7e                     |        ~       |                  [0]: "i64" (0x7e) t 0x28-0x28.7 (1)
     |                                               |                |            [6]{}: ft 0x29-0x2d.7 (5)
0x020|                           60                  |         `      |              tag: 0x60 (valid) 0x29-0x29.7 (1)
     |                                               |                |              rt1{}: 0x2a-0x2b.7 (2)
0x020|                              01               |          .     |                n: 1 0x2a-0x2a.7 (1)
     |                                               |                |                x[0:1]: 0x2b-0x2b.7 (1)
0x020|                                 7f            |           .    |                  [0]: "i32" (0x7f) t 0x2b-0x2b.7 (1)
     |                                               |                |              rt2{}: 0x2c-0x2d.7 (2)
0x020|                                    01         |            .   |                n: 1 0x2c-0x2c.7 (1)
     |                                               |                |                x[0:1]: 0x2d-0x2d.7 (1)
0x020|                                       7d      |             }  |                  [0]: "f32" (0x7d) t 0x2d-0x2d.7 (1)
     |                                               |                |            [7]{}: ft 0x2e-0x32.7 (5)
0x020|                                          60   |              ` |              tag: 0x60 (valid) 0x2e-0x2e.7 (1)
     |                                               |                |              rt1{}: 0x2f-0x30.7 (2)
0x020|                                             01|               .|                n: 1 0x2f-0x2f.7 (1)
     |                                               |                |                x[0:1]: 0x30-0x30.7 (1)
0x030|7e                                             |~               |                  [0]: "i64" (0x7e) t 0x30-0x30.7 (1)
     |                                               |                |              rt2{}: 0x31-0x32.7 (2)
0x030|   01                                          | .              |                n: 1 0x31-0x31.7 (1)
     |                                               |                |                x[0:1]: 0x32-0x32.7 (1)
0x030|      7d                                       |  }             |                  [0]: "f32" (0x7d) t 0x32-0x32.7 (1)
     |                                               |                |            [8]{}: ft 0x33-0x37.7 (5)
0x030|         60                                    |   `            |              tag: 0x60 (valid) 0x33-0x33.7 (1)
     |                                               |                |              rt1{}: 0x34-0x35.7 (2)
0x030|            01                                 |    .           |                n: 1 0x34-0x34.7 (1)
     |                                               |                |                x[0:1]: 0x35-0x35.7 (1)
0x030|               7f                              |     .          |                  [0]: "i32" (0x7f) t 0x35-0x35.7 (1)
     |                                               |                |              rt2{}: 0x36-0x37.7 (2)
0x030|                  01                           |      .         |                n: 1 0x36-0x36.7 (1)
     |                                               |                |                x[0:1]: 0x37-0x37.7 (1)
0x030|                     7c                        |       |        |                  [0]: "f64" (0x7c) t 0x37-0x37.7 (1)
     |                                               |                |            [9]{}: ft 0x38-0x3c.7 (5)
0x030|                        60                     |        `       |              tag: 0x60 (valid) 0x38-0x38.7 (1)
     |                                               |                |              rt1{}: 0x39-0x3a.7 (2)
0x030|                           01                  |         .      |                n: 1 0x39-0x39.7 (1)
     |                                               |                |                x[0:1]: 0x3a-0x3a.7 (1)
0x030|                              7e               |          ~     |                  [0]: "i64" (0x7e) t 0x3a-0x3a.7 (1)
     |                                               |                |              rt2{}: 0x3b-0x3c.7 (2)
0x030|                                 01            |           .    |                n: 1 0x3b-0x3b.7 (1)
     |                                               |                |                x[0:1]: 0x3c-0x3c.7 (1)
0x030|                                    7c         |            |   |                  [0]: "f64" (0x7c) t 0x3c-0x3c.7 (1)
     |                                               |                |            [10]{}: ft 0x3d-0x41.7 (5)
0x030|                                       60      |             `  |              tag: 0x60 (valid) 0x3d-0x3d.7 (1)
     |                                               |                |              rt1{}: 0x3e-0x3f.7 (2)
0x030|                                          01   |              . |                n: 1 0x3e-0x3e.7 (1)
     |                                               |                |                x[0:1]: 0x3f-0x3f.7 (1)
0x030|                                             7d|               }|                  [0]: "f32" (0x7d) t 0x3f-0x3f.7 (1)
     |                                               |                |              rt2{}: 0x40-0x41.7 (2)
0x040|01                                             |.               |                n: 1 0x40-0x40.7 (1)
     |                                               |                |                x[0:1]: 0x41-0x41.7 (1)
0x040|   7c                                          | |              |                  [0]: "f64" (0x7c) t 0x41-0x41.7 (1)
     |                                               |                |            [11]{}: ft 0x42-0x46.7 (5)
0x040|      60                                       |  `             |              tag: 0x60 (valid) 0x42-0x42.7 (1)
     |                                               |                |              rt1{}: 0x43-0x44.7 (2)
0x040|         01                                    |   .            |                n: 1 0x43-0x43.7 (1)
     |                                               |                |                x[0:1]: 0x44-0x44.7 (1)
0x040|            7c                                 |    |           |                  [0]: "f64" (0x7c) t 0x44-0x44.7 (1)
     |                                               |                |              rt2{}: 0x45-0x46.7 (2)
0x040|               01                              |     .          |                n: 1 0x45-0x45.7 (1)
     |                                               |                |                x[0:1]: 0x46-0x46.7 (1)
0x040|                  7d                           |      }         |                  [0]: "f32" (0x7d) t 0x46-0x46.7 (1)
     |                                               |                |    [1]{}: section 0x47-0x6a.7 (36)
0x040|                     03                        |       .        |      id: "function section" (3) 0x47-0x47.7 (1)
0x040|                        22                     |        "       |      size: 34 0x48-0x48.7 (1)
     |                                               |                |      content{}: 0x49-0x6a.7 (34)
     |                                               |                |        x{}: 0x49-0x6a.7 (34)
0x040|                           21                  |         !      |          n: 33 0x49-0x49.7 (1)
     |                                               |                |          x[0:33]: 0x4a-0x6a.7 (33)
0x040|                              00               |          .     |            [0]: 0 x 0x4a-0x4a.7 (1)
0x040|                                 00            |           .    |            [1]: 0 x 0x4b-0x4b.7 (1)
0x040|                                    01         |            .   |            [2]: 1 x 0x4c-0x4c.7 (1)
0x040|                                       02      |             .  |            [3]: 2 x 0x4d-0x4d.7 (1)
0x040|                                          02   |              . |            [4]: 2 x 0x4e-0x4e.7 (1)
0x040|                                             03|               .|            [5]: 3 x 0x4f-0x4f.7 (1)
0x050|03                                             |.               |            [6]: 3 x 0x50-0x50.7 (1)
0x050|   04                                          | .              |            [7]: 4 x 0x51-0x51.7 (1)
0x050|      04                                       |  .             |            [8]: 4 x 0x52-0x52.7 (1)
0x050|         05                                    |   .            |            [9]: 5 x 0x53-0x53.7 (1)
0x050|            05                                 |    .           |            [10]: 5 x 0x54-0x54.7 (1)
0x050|               02                              |     .          |            [11]: 2 x 0x55-0x55.7 (1)
0x050|                  02                           |      .         |            [12]: 2 x 0x56-0x56.7 (1)
0x050|                     03                        |       .        |            [13]: 3 x 0x57-0x57.7 (1)
0x050|                        03                     |        .       |            [14]: 3 x 0x58-0x58.7 (1)
0x050|                           04                  |         .      |            [15]: 4 x 0x59-0x59.7 (1)
0x050|                              04               |          .     |            [16]: 4 x 0x5a-0x5a.7 (1)
0x050|                                 05            |           .    |            [17]: 5 x 0x5b-0x5b.7 (1)
0x050|                                    05         |            .   |            [18]: 5 x 0x5c-0x5c.7 (1)
0x050|                                       06      |             .  |            [19]: 6 x 0x5d-0x5d.7 (1)
0x050|                                          07   |              . |            [20]: 7 x 0x5e-0x5e.7 (1)
0x050|                                             08|               .|            [21]: 8 x 0x5f-0x5f.7 (1)
0x060|09                                             |.               |            [22]: 9 x 0x60-0x60.7 (1)
0x060|   06                                          | .              |            [23]: 6 x 0x61-0x61.7 (1)
0x060|      07                                       |  .             |            [24]: 7 x 0x62-0x62.7 (1)
0x060|         08                                    |   .            |            [25]: 8 x 0x63-0x63.7 (1)
0x060|            09                                 |    .           |            [26]: 9 x 0x64-0x64.7 (1)
0x060|               0a                              |     .          |            [27]: 10 x 0x65-0x65.7 (1)
0x060|                  0b                           |      .         |            [28]: 11 x 0x66-0x66.7 (1)
0x060|                     06                        |       .        |            [29]: 6 x 0x67-0x67.7 (1)
0x060|                        09                     |        .       |            [30]: 9 x 0x68-0x68.7 (1)
0x060|                           02                  |         .      |            [31]: 2 x 0x69-0x69.7 (1)
0x060|                              05               |          .     |            [32]: 5 x 0x6a-0x6a.7 (1)
     |                                               |                |    [2]{}: section 0x6b-0x2fe.7 (660)
0x060|                                 07            |           .    |      id: "export section" (7) 0x6b-0x6b.7 (1)
0x060|                                    91 05      |            ..  |      size: 657 0x6c-0x6d.7 (2)
     |                                               |                |      content{}: 0x6e-0x2fe.7 (657)
     |                                               |                |        ex{}: 0x6e-0x2fe.7 (657)
0x060|                                          21   |              ! |          n: 33 0x6e-0x6e.7 (1)
     |                                               |                |          x[0:33]: 0x6f-0x2fe.7 (656)
     |                                               |                |            [0]{}: ex 0x6f-0x81.7 (19)
     |                                               |                |              nm{}: 0x6f-0x7f.7 (17)
0x060|                                             10|               .|                n: 16 0x6f-0x6f.7 (1)
0x070|69 36 34 2e 65 78 74 65 6e 64 5f 69 33 32 5f 73|i64.extend_i32_s|                b: "i64.extend_i32_s" 0x70-0x7f.7 (16)
     |                                               |                |              d{}: 0x80-0x81.7 (2)
0x080|00                                             |.               |                tag: "funcidx" (0x0) 0x80-0x80.7 (1)
0x080|   00                                          | .              |                x: 0 0x81-0x81.7 (1)
     |                                               |                |            [1]{}: ex 0x82-0x94.7 (19)
     |                                               |                |              nm{}: 0x82-0x92.7 (17)
0x080|      10                                       |  .             |                n: 16 0x82-0x82.7 (1)
0x080|         69 36 34 2e 65 78 74 65 6e 64 5f 69 33|   i64.extend_i3|                b: "i64.extend_i32_u" 0x83-0x92.7 (16)
0x090|32 5f 75                                       |2_u             |
     |                                               |                |              d{}: 0x93-0x94.7 (2)
0x090|         00                                    |   .            |                tag: "funcidx" (0x0) 0x93-0x93.7 (1)
0x090|            01                                 |    .           |                x: 1 0x94-0x94.7 (1)
     |                                               |                |            [2]{}: ex 0x95-0xa3.7 (15)
     |                                               |                |              nm{}: 0x95-0xa1.7 (13)
0x090|               0c                              |     .          |                n: 12 0x95-0x95.7 (1)
0x090|                  69 33 32 2e 77 72 61 70 5f 69|      i32.wrap_i|                b: "i32.wrap_i64" 0x96-0xa1.7 (12)
0x0a0|36 34                                          |64              |
     |                                               |                |              d{}: 0xa2-0xa3.7 (2)
0x0a0|      00                                       |  .             |                tag: "funcidx" (0x0) 0xa2-0xa2.7 (1)
0x0a0|         02                                    |   .            |                x: 2 0xa3-0xa3.7 (1)
     |                                               |                |            [3]{}: ex 0xa4-0xb5.7 (18)
     |                                               |                |              nm{}: 0xa4-0xb3.7 (16)
0x0a0|            0f                                 |    .           |                n: 15 0xa4-0xa4.7 (1)
0x0a0|               69 33 32 2e 74 72 75 6e 63 5f 66|     i32.trunc_f|                b: "i32.trunc_f32_s" 0xa5-0xb3.7 (15)
0x0b0|33 32 5f 73                                    |32_s            |
     |                                               |                |              d{}: 0xb4-0xb5.7 (2)
0x0b0|            00                                 |    .           |                tag: "funcidx" (0x0) 0xb4-0xb4.7 (1)
0x0b0|               03                              |     .          |                x: 3 0xb5-0xb5.7 (1)
     |                                               |                |            [4]{}: ex 0xb6-0xc7.7 (18)
     |                                               |                |              nm{}: 0xb6-0xc5.7 (16)
0x0b0|                  0f                           |      .         |                n: 15 0xb6-0xb6.7 (1)
0x0b0|                     69 33 32 2e 74 72 75 6e 63|       i32.trunc|                b: "i32.trunc_f32_u" 0xb7-0xc5.7 (15)
0x0c0|5f 66 33 32 5f 75                              |_f32_u          |
     |                                               |                |              d{}: 0xc6-0xc7.7 (2)
0x0c0|                  00                           |      .         |                tag: "funcidx" (0x0) 0xc6-0xc6.7 (1)
0x0c0|                     04                        |       .        |                x: 4 0xc7-0xc7.7 (1)
     |                                               |                |            [5]{}: ex 0xc8-0xd9.7 (18)
     |                                               |                |              nm{}: 0xc8-0xd7.7 (16)
0x0c0|                        0f                     |        .       |                n: 15 0xc8-0xc8.7 (1)
0x0c0|                           69 33 32 2e 74 72 75|         i32.tru|                b: "i32.trunc_f64_s" 0xc9-0xd7.7 (15)
0x0d0|6e 63 5f 66 36 34 5f 73                        |nc_f64_s        |
     |                                               |                |              d{}: 0xd8-0xd9.7 (2)
0x0d0|                        00                     |        .       |                tag: "funcidx" (0x0) 0xd8-0xd8.7 (1)
0x0d0|                           05                  |         .      |                x: 5 0xd9-0xd9.7 (1)
     |                                               |                |            [6]{}: ex 0xda-0xeb.7 (18)
     |                                               |                |              nm{}: 0xda-0xe9.7 (16)
0x0d0|                              0f               |          .     |                n: 15 0xda-0xda.7 (1)
0x0d0|                                 69 33 32 2e 74|           i32.t|                b: "i32.trunc_f64_u" 0xdb-0xe9.7 (15)
0x0e0|72 75 6e 63 5f 66 36 34 5f 75                  |runc_f64_u      |
     |                                               |                |              d{}: 0xea-0xeb.7 (2)
0x0e0|                              00               |          .     |                tag: "funcidx" (0x0) 0xea-0xea.7 (1)
0x0e0|                                 06            |           .    |                x: 6 0xeb-0xeb.7 (1)
     |                                               |                |            [7]{}: ex 0xec-0xfd.7 (18)
     |                                               |                |              nm{}: 0xec-0xfb.7 (16)
0x0e0|                                    0f         |            .   |                n: 15 0xec-0xec.7 (1)
0x0e0|                                       69 36 34|             i64|                b: "i64.trunc_f32_s" 0xed-0xfb.7 (15)
0x0f0|2e 74 72 75 6e 63 5f 66 33 32 5f 73            |.trunc_f32_s    |
     |                                               |                |              d{}: 0xfc-0xfd.7 (2)
0x0f0|                                    00         |            .   |                tag: "funcidx" (0x0) 0xfc-0xfc.7 (1)
0x0f0|                                       07      |             .  |                x: 7 0xfd-0xfd.7 (1)
     |                                               |                |            [8]{}: ex 0xfe-0x10f.7 (18)
     |                                               |                |              nm{}: 0xfe-0x10d.7 (16)
0x0f0|                                          0f   |              . |                n: 15 0xfe-0xfe.7 (1)
0x0f0|                                             69|               i|                b: "i64.trunc_f32_u" 0xff-0x10d.7 (15)
0x100|36 34 2e 74 72 75 6e 63 5f 66 33 32 5f 75      |64.trunc_f32_u  |
     |                                               |                |              d{}: 0x10e-0x10f.7 (2)
0x100|                                          00   |              . |                tag: "funcidx" (0x0) 0x10e-0x10e.7 (1)
0x100|                                             08|               .|                x: 8 0x10f-0x10f.7 (1)
     |                                               |                |            [9]{}: ex 0x110-0x121.7 (18)
     |                                               |                |              nm{}: 0x110-0x11f.7 (16)
0x110|0f                                             |.               |                n: 15 0x110-0x110.7 (1)
0x110|   69 36 34 2e 74 72 75 6e 63 5f 66 36 34 5f 73| i64.trunc_f64_s|                b: "i64.trunc_f64_s" 0x111-0x11f.7 (15)
     |                                               |                |              d{}: 0x120-0x121.7 (2)
0x120|00                                             |.               |                tag: "funcidx" (0x0) 0x120-0x120.7 (1)
0x120|   09                                          | .              |                x: 9 0x121-0x121.7 (1)
     |                                               |                |            [10]{}: ex 0x122-0x133.7 (18)
     |                                               |                |              nm{}: 0x122-0x131.7 (16)
0x120|      0f                                       |  .             |                n: 15 0x122-0x122.7 (1)
0x120|         69 36 34 2e 74 72 75 6e 63 5f 66 36 34|   i64.trunc_f64|                b: "i64.trunc_f64_u" 0x123-0x131.7 (15)
0x130|5f 75                                          |_u              |
     |                                               |                |              d{}: 0x132-0x133.7 (2)
0x130|      00                                       |  .             |                tag: "funcidx" (0x0) 0x132-0x132.7 (1)
0x130|         0a                                    |   .            |                x: 10 0x133-0x133.7 (1)
     |                                               |                |            [11]{}: ex 0x134-0x149.7 (22)
     |                                               |                |              nm{}: 0x134-0x147.7 (20)
0x130|            13                                 |    .           |                n: 19 0x134-0x134.7 (1)
0x130|               69 33 32 2e 74 72 75 6e 63 5f 73|     i32.trunc_s|                b: "i32.trunc_sat_f32_s" 0x135-0x147.7 (19)
0x140|61 74 5f 66 33 32 5f 73                        |at_f32_s        |
     |                                               |                |              d{}: 0x148-0x149.7 (2)
0x140|                        00                     |        .       |                tag: "funcidx" (0x0) 0x148-0x148.7 (1)
0x140|                           0b                  |         .      |                x: 11 0x149-0x149.7 (1)
     |                                               |                |            [12]{}: ex 0x14a-0x15f.7 (22)
     |                                               |                |              nm{}: 0x14a-0x15d.7 (20)
0x140|                              13               |          .     |                n: 19 0x14a-0x14a.7 (1)
0x140|                                 69 33 32 2e 74|           i32.t|                b: "i32.trunc_sat_f32_u" 0x14b-0x15d.7 (19)
0x150|72 75 6e 63 5f 73 61 74 5f 66 33 32 5f 75      |runc_sat_f32_u  |
     |                                               |                |              d{}: 0x15e-0x15f.7 (2)
0x150|                                          00   |              . |                tag: "funcidx" (0x0) 0x15e-0x15e.7 (1)
0x150|                                             0c|               .|                x: 12 0x15f-0x15f.7 (1)
     |                                               |                |            [13]{}: ex 0x160-0x175.7 (22)
     |                                               |                |              nm{}: 0x160-0x173.7 (20)
0x160|13                                             |.               |                n: 19 0x160-0x160.7 (1)
0x160|   69 33 32 2e 74 72 75 6e 63 5f 73 61 74 5f 66| i32.trunc_sat_f|                b: "i32.trunc_sat_f64_s" 0x161-0x173.7 (19)
0x170|36 34 5f 73                                    |64_s            |
     |                                               |                |              d{}: 0x174-0x175.7 (2)
0x170|            00                                 |    .           |                tag: "funcidx" (0x0) 0x174-0x174.7 (1)
0x170|               0d                              |     .          |                x: 13 0x175-0x175.7 (1)
     |                                               |                |            [14]{}: ex 0x176-0x18b.7 (22)
     |                                               |                |              nm{}: 0x176-0x189.7 (20)
0x170|                  13                           |      .         |                n: 19 0x176-0x176.7 (1)
0x170|                     69 33 32 2e 74 72 75 6e 63|       i32.trunc|                b: "i32.trunc_sat_f64_u" 0x177-0x189.7 (19)
0x180|5f 73 61 74 5f 66 36 34 5f 75                  |_sat_f64_u      |
     |                                               |                |              d{}: 0x18a-0x18b.7 (2)
0x180|                              00               |          .     |                tag: "funcidx" (0x0) 0x18a-0x18a.7 (1)
0x180|                                 0e            |           .    |                x: 14 0x18b-0x18b.7 (1)
     |                                               |                |            [15]{}: ex 0x18c-0x1a1.7 (22)
     |                                               |                |              nm{}: 0x18c-0x19f.7 (20)
0x180|                                    13         |            .   |                n: 19 0x18c-0x18c.7 (1)
0x180|                                       69 36 34|             i64|                b: "i64.trunc_sat_f32_s" 0x18d-0x19f.7 (19)
0x190|2e 74 72 75 6e 63 5f 73 61 74 5f 66 33 32 5f 73|.trunc_sat_f32_s|
     |                                               |                |              d{}: 0x1a0-0x1a1.7 (2)
0x1a0|00                                             |.               |                tag: "funcidx" (0x0) 0x1a0-0x1a0.7 (1)
0x1a0|   0f                                          | .              |                x: 15 0x1a1-0x1a1.7 (1)
     |                                               |                |            [16]{}: ex 0x1a2-0x1b7.7 (22)
     |                                               |                |              nm{}: 0x1a2-0x1b5.7 (20)
0x1a0|      13                                       |  .             |                n: 19 0x1a2-0x1a2.7 (1)
0x1a0|         69 36 34 2e 74 72 75 6e 63 5f 73 61 74|   i64.trunc_sat|                b: "i64.trunc_sat_f32_u" 0x1a3-0x1b5.7 (19)
0x1b0|5f 66 33 32 5f 75                              |_f32_u          |
     |                                               |                |              d{}: 0x1b6-0x1b7.7 (2)
0x1b0|                  00                           |      .         |                tag: "funcidx" (0x0) 0x1b6-0x1b6.7 (1)
0x1b0|                     10                        |       .        |                x: 16 0x1b7-0x1b7.7 (1)
     |                                               |                |            [17]{}: ex 0x1b8-0x1cd.7 (22)
     |                                               |                |              nm{}: 0x1b8-0x1cb.7 (20)
0x1b0|                        13                     |        .       |                n: 19 0x1b8-0x1b8.7 (1)
0x1b0|                           69 36 34 2e 74 72 75|         i64.tru|                b: "i64.trunc_sat_f64_s" 0x1b9-0x1cb.7 (19)
0x1c0|6e 63 5f 73 61 74 5f 66 36 34 5f 73            |nc_sat_f64_s    |
     |                                               |                |              d{}: 0x1cc-0x1cd.7 (2)
0x1c0|                                    00         |            .   |                tag: "funcidx" (0x0) 0x1cc-0x1cc.7 (1)
0x1c0|                                       11      |             .  |                x: 17 0x1cd-0x1cd.7 (1)
     |                                               |                |            [18]{}: ex 0x1ce-0x1e3.7 (22)
     |                                               |                |              nm{}: 0x1ce-0x1e1.7 (20)
0x1c0|                                          13   |              . |                n: 19 0x1ce-0x1ce.7 (1)
0x1c0|                                             69|               i|                b: "i64.trunc_sat_f64_u" 0x1cf-0x1e1.7 (19)
0x1d0|36 34 2e 74 72 75 6e 63 5f 73 61 74 5f 66 36 34|64.trunc_sat_f64|
0x1e0|5f 75                                          |_u              |
     |                                               |                |              d{}: 0x1e2-0x1e3.7 (2)
0x1e0|      00                                       |  .             |                tag: "funcidx" (0x0) 0x1e2-0x1e2.7 (1)
0x1e0|         12                                    |   .            |                x: 18 0x1e3-0x1e3.7 (1)
     |                                               |                |            [19]{}: ex 0x1e4-0x1f7.7 (20)
     |                                               |                |              nm{}: 0x1e4-0x1f5.7 (18)
0x1e0|            11                                 |    .           |                n: 17 0x1e4-0x1e4.7 (1)
0x1e0|               66 33 32 2e 63 6f 6e 76 65 72 74|     f32.convert|                b: "f32.convert_i32_s" 0x1e5-0x1f5.7 (17)
0x1f0|5f 69 33 32 5f 73                              |_i32_s          |
     |                                               |                |              d{}: 0x1f6-0x1f7.7 (2)
0x1f0|                  00                           |      .         |                tag: "funcidx" (0x0) 0x1f6-0x1f6.7 (1)
0x1f0|                     13                        |       .        |                x: 19 0x1f7-0x1f7.7 (1)
     |                                               |                |            [20]{}: ex 0x1f8-0x20b.7 (20)
     |                                               |                |              nm{}: 0x1f8-0x209.7 (18)
0x1f0|                        11                     |        .       |                n: 17 0x1f8-0x1f8.7 (1)
0x1f0|                           66 33 32 2e 63 6f 6e|         f32.con|                b: "f32.convert_i64_s" 0x1f9-0x209.7 (17)
0x200|76 65 72 74 5f 69 36 34 5f 73                  |vert_i64_s      |
     |                                               |                |              d{}: 0x20a-0x20b.7 (2)
0x200|                              00               |          .     |                tag: "funcidx" (0x0) 0x20a-0x20a.7 (1)
0x200|                                 14            |           .    |                x: 20 0x20b-0x20b.7 (1)
     |                                               |                |            [21]{}: ex 0x20c-0x21f.7 (20)
     |                                               |                |              nm{}: 0x20c-0x21d.7 (18)
0x200|                                    11         |            .   |                n: 17 0x20c-0x20c.7 (1)
0x200|                                       66 36 34|             f64|                b: "f64.convert_i32_s" 0x20d-0x21d.7 (17)
0x210|2e 63 6f 6e 76 65 72 74 5f 69 33 32 5f 73      |.convert_i32_s  |
     |                                               |                |              d{}: 0x21e-0x21f.7 (2)
0x210|                                          00   |              . |                tag: "funcidx" (0x0) 0x21e-0x21e.7 (1)
0x210|                                             15|               .|                x: 21 0x21f-0x21f.7 (1)
     |                                               |                |            [22]{}: ex 0x220-0x233.7 (20)
     |                                               |                |              nm{}: 0x220-0x231.7 (18)
0x220|11                                             |.               |                n: 17 0x220-0x220.7 (1)
0x220|   66 36 34 2e 63 6f 6e 76 65 72 74 5f 69 36 34| f64.convert_i64|                b: "f64.convert_i64_s" 0x221-0x231.7 (17)
0x230|5f 73                                          |_s              |
     |                                               |                |              d{}: 0x232-0x233.7 (2)
0x230|      00                                       |  .             |                tag: "funcidx" (0x0) 0x232-0x232.7 (1)
0x230|         16                                    |   .            |                x: 22 0x233-0x233.7 (1)
     |                                               |                |            [23]{}: ex 0x234-0x247.7 (20)
     |                                               |                |              nm{}: 0x234-0x245.7 (18)
0x230|            11                                 |    .           |                n: 17 0x234-0x234.7 (1)
0x230|               66 33 32 2e 63 6f 6e 76 65 72 74|     f32.convert|                b: "f32.convert_i32_u" 0x235-0x245.7 (17)
0x240|5f 69 33 32 5f 75                              |_i32_u          |
     |                                               |                |              d{}: 0x246-0x247.7 (2)
0x240|                  00                           |      .         |                tag: "funcidx" (0x0) 0x246-0x246.7 (1)
0x240|                     17                        |       .        |                x: 23 0x247-0x247.7 (1)
     |                                               |                |            [24]{}: ex 0x248-0x25b.7 (20)
     |                                               |                |              nm{}: 0x248-0x259.7 (18)
0x240|                        11                     |        .       |                n: 17 0x248-0x248.7 (1)
0x240|                           66 33 32 2e 63 6f 6e|         f32.con|                b: "f32.convert_i64_u" 0x249-0x259.7 (17)
0x250|76 65 72 74 5f 69 36 34 5f 75                  |vert_i64_u      |
     |                                               |                |              d{}: 0x25a-0x25b.7 (2)
0x250|                              00               |          .     |                tag: "funcidx" (0x0) 0x25a-0x25a.7 (1)
0x250|                                 18            |           .    |                x: 24 0x25b-0x25b.7 (1)
     |                                               |                |            [25]{}: ex 0x25c-0x26f.7 (20)
     |                                               |                |              nm{}: 0x25c-0x26d.7 (18)
0x250|                                    11         |            .   |                n: 17 0x25c-0x25c.7 (1)
0x250|                                       66 36 34|             f64|                b: "f64.convert_i32_u" 0x25d-0x26d.7 (17)
0x260|2e 63 6f 6e 76 65 72 74 5f 69 33 32 5f 75      |.convert_i32_u  |
     |                                               |                |              d{}: 0x26e-0x26f.7 (2)
0x260|                                          00   |              . |                tag: "funcidx" (0x0) 0x26e-0x26e.7 (1)
0x260|                                             19|               .|                x: 25 0x26f-0x26f.7 (1)
     |                                               |                |            [26]{}: ex 0x270-0x283.7 (20)
     |                                               |                |              nm{}: 0x270-0x281.7 (18)
0x270|11                                             |.               |                n: 17 0x270-0x270.7 (1)
0x270|   66 36 34 2e 63 6f 6e 76 65 72 74 5f 69 36 34| f64.convert_i64|                b: "f64.convert_i64_u" 0x271-0x281.7 (17)
0x280|5f 75                                          |_u              |
     |                                               |                |              d{}: 0x282-0x283.7 (2)
0x280|      00                                       |  .             |                tag: "funcidx" (0x0) 0x282-0x282.7 (1)
0x280|         1a                                    |   .            |                x: 26 0x283-0x283.7 (1)
     |                                               |                |            [27]{}: ex 0x284-0x295.7 (18)
     |                                               |                |              nm{}: 0x284-0x293.7 (16)
0x280|            0f                                 |    .           |                n: 15 0x284-0x284.7 (1)
0x280|               66 36 34 2e 70 72 6f 6d 6f 74 65|     f64.promote|                b: "f64.promote_f32" 0x285-0x293.7 (15)
0x290|5f 66 33 32                                    |_f32            |
     |                                               |                |              d{}: 0x294-0x295.7 (2)
0x290|            00                                 |    .           |                tag: "funcidx" (0x0) 0x294-0x294.7 (1)
0x290|               1b                              |     .          |                x: 27 0x295-0x295.7 (1)
     |                                               |                |            [28]{}: ex 0x296-0x2a6.7 (17)
     |                                               |                |              nm{}: 0x296-0x2a4.7 (15)
0x290|                  0e                           |      .         |                n: 14 0x296-0x296.7 (1)
0x290|                     66 33 32 2e 64 65 6d 6f 74|       f32.demot|                b: "f32.demote_f64" 0x297-0x2a4.7 (14)
0x2a0|65 5f 66 36 34                                 |e_f64           |
     |                                               |                |              d{}: 0x2a5-0x2a6.7 (2)
0x2a0|               00                              |     .          |                tag: "funcidx" (0x0) 0x2a5-0x2a5.7 (1)
0x2a0|                  1c                           |      .         |                x: 28 0x2a6-0x2a6.7 (1)
     |                                               |                |            [29]{}: ex 0x2a7-0x2bc.7 (22)
     |                                               |                |              nm{}: 0x2a7-0x2ba.7 (20)
0x2a0|                     13                        |       .        |                n: 19 0x2a7-0x2a7.7 (1)
0x2a0|                        66 33 32 2e 72 65 69 6e|        f32.rein|                b: "f32.reinterpret_i32" 0x2a8-0x2ba.7 (19)
0x2b0|74 65 72 70 72 65 74 5f 69 33 32               |terpret_i32     |
     |                                               |                |              d{}: 0x2bb-0x2bc.7 (2)
0x2b0|                                 00            |           .    |                tag: "funcidx" (0x0) 0x2bb-0x2bb.7 (1)
0x2b0|                                    1d         |            .   |                x: 29 0x2bc-0x2bc.7 (1)
     |                                               |                |            [30]{}: ex 0x2bd-0x2d2.7 (22)
     |                                               |                |              nm{}: 0x2bd-0x2d0.7 (20)
0x2b0|                                       13      |             .  |                n: 19 0x2bd-0x2bd.7 (1)
0x2b0|                                          66 36|              f6|                b: "f64.reinterpret_i64" 0x2be-0x2d0.7 (19)
0x2c0|34 2e 72 65 69 6e 74 65 72 70 72 65 74 5f 69 36|4.reinterpret_i6|
0x2d0|34                                             |4               |
     |                                               |                |              d{}: 0x2d1-0x2d2.7 (2)
0x2d0|   00                                          | .              |                tag: "funcidx" (0x0) 0x2d1-0x2d1.7 (1)
0x2d0|      1e                                       |  .             |                x: 30 0x2d2-0x2d2.7 (1)
     |                                               |                |            [31]{}: ex 0x2d3-0x2e8.7 (22)
     |                                               |                |              nm{}: 0x2d3-0x2e6.7 (20)
0x2d0|         13                                    |   .            |                n: 19 0x2d3-0x2d3.7 (1)
0x2d0|            69 33 32 2e 72 65 69 6e 74 65 72 70|    i32.reinterp|                b: "i32.reinterpret_f32" 0x2d4-0x2e6.7 (19)
0x2e0|72 65 74 5f 66 33 32                           |ret_f32         |
     |                                               |                |              d{}: 0x2e7-0x2e8.7 (2)
0x2e0|                     00                        |       .        |                tag: "funcidx" (0x0) 0x2e7-0x2e7.7 (1)
0x2e0|                        1f                     |        .       |                x: 31 0x2e8-0x2e8.7 (1)
     |                                               |                |            [32]{}: ex 0x2e9-0x2fe.7 (22)
     |                                               |                |              nm{}: 0x2e9-0x2fc.7 (20)
0x2e0|                           13                  |         .      |                n: 19 0x2e9-0x2e9.7 (1)
0x2e0|                              69 36 34 2e 72 65|          i64.re|                b: "i64.reinterpret_f64" 0x2ea-0x2fc.7 (19)
0x2f0|69 6e 74 65 72 70 72 65 74 5f 66 36 34         |interpret_f64   |
     |                                               |                |              d{}: 0x2fd-0x2fe.7 (2)
0x2f0|                                       00      |             .  |                tag: "funcidx" (0x0) 0x2fd-0x2fd.7 (1)
0x2f0|                                          20   |                |                x: 32 0x2fe-0x2fe.7 (1)
     |                                               |                |    [3]{}: section 0x2ff-0x3d0.7 (210)
0x2f0|                                             0a|               .|      id: "code section" (10) 0x2ff-0x2ff.7 (1)
0x300|cf 01                                          |..              |      size: 207 0x300-0x301.7 (2)
     |                                               |                |      content{}: 0x302-0x3d0.7 (207)
     |                                               |                |        code{}: 0x302-0x3d0.7 (207)
0x300|      21                                       |  !             |          n: 33 0x302-0x302.7 (1)
     |                                               |                |          x[0:33]: 0x303-0x3d0.7 (206)
     |                                               |                |            [0]{}: code 0x303-0x308.7 (6)
0x300|         05                                    |   .            |              size: 5 0x303-0x303.7 (1)
     |                                               |                |              code{}: 0x304-0x308.7 (5)
     |                                               |                |                t{}: 0x304-0x304.7 (1)
0x300|            00                                 |    .           |                  n: 0 0x304-0x304.7 (1)
     |                                               |                |                  x[0:0]: 0x305-NA (0)
     |                                               |                |                e[0:3]: 0x305-0x308.7 (4)
     |                                               |                |                  [0]{}: in 0x305-0x306.7 (2)
0x300|               20                              |                |                    local.get: 0x20 (valid) 0x305-0x305.7 (1)
0x300|                  00                           |      .         |                    x: 0 0x306-0x306.7 (1)
     |                                               |                |                  [1]{}: in 0x307-0x307.7 (1)
0x300|                     ac                        |       .        |                    i64.extend_i32_s: 0xac (valid) 0x307-0x307.7 (1)
     |                                               |                |                  [2]{}: in 0x308-0x308.7 (1)
0x300|                        0b                     |        .       |                    end: 0xb (valid) 0x308-0x308.7 (1)
     |                                               |                |            [1]{}: code 0x309-0x30e.7 (6)
0x300|                           05                  |         .      |              size: 5 0x309-0x309.7 (1)
     |                                               |                |              code{}: 0x30a-0x30e.7 (5)
     |                                               |                |                t{}: 0x30a-0x30a.7 (1)
0x300|                              00               |          .     |                  n: 0 0x30a-0x30a.7 (1)
     |                                               |                |                  x[0:0]: 0x30b-NA (0)
     |                                               |                |                e[0:3]: 0x30b-0x30e.7 (4)
     |                                               |                |                  [0]{}: in 0x30b-0x30c.7 (2)
0x300|                                 20            |                |                    local.get: 0x20 (valid) 0x30b-0x30b.7 (1)
0x300|                                    00         |            .   |                    x: 0 0x30c-0x30c.7 (1)
     |                                               |                |                  [1]{}: in 0x30d-0x30d.7 (1)
0x300|                                       ad      |             .  |                    i64.extend_i32_u: 0xad (valid) 0x30d-0x30d.7 (1)
     |                                               |                |                  [2]{}: in 0x30e-0x30e.7 (1)
0x300|                                          0b   |              . |                    end: 0xb (valid) 0x30e-0x30e.7 (1)
     |                                               |                |            [2]{}: code 0x30f-0x314.7 (6)
0x300|                                             05|               .|              size: 5 0x30f-0x30f.7 (1)
     |                                               |                |              code{}: 0x310-0x314.7 (5)
     |                                               |                |                t{}: 0x310-0x310.7 (1)
0x310|00                                             |.               |                  n: 0 0x310-0x310.7 (1)
     |                                               |                |                  x[0:0]: 0x311-NA (0)
     |                                               |                |                e[0:3]: 0x311-0x314.7 (4)
     |                                               |                |                  [0]{}: in 0x311-0x312.7 (2)
0x310|   20                                          |                |                    local.get: 0x20 (valid) 0x311-0x311.7 (1)
0x310|      00                                       |  .             |                    x: 0 0x312-0x312.7 (1)
     |                                               |                |                  [1]{}: in 0x313-0x313.7 (1)
0x310|         a7                                    |   .            |                    i32.wrap_i64: 0xa7 (valid) 0x313-0x313.7 (1)
     |                                               |                |                  [2]{}: in 0x314-0x314.7 (1)
0x310|            0b                                 |    .           |                    end: 0xb (valid) 0x314-0x314.7 (1)
     |                                               |                |            [3]{}: code 0x315-0x31a.7 (6)
0x310|               05                              |     .          |              size: 5 0x315-0x315.7 (1)
     |                                               |                |              code{}: 0x316-0x31a.7 (5)
     |                                               |                |                t{}: 0x316-0x316.7 (1)
0x310|                  00                           |      .         |                  n: 0 0x316-0x316.7 (1)
     |                                               |                |                  x[0:0]: 0x317-NA (0)
     |                                               |                |                e[0:3]: 0x317-0x31a.7 (4)
     |                                               |                |                  [0]{}: in 0x317-0x318.7 (2)
0x310|                     20                        |                |                    local.get: 0x20 (valid) 0x317-0x317.7 (1)
0x310|                        00                     |        .       |                    x: 0 0x318-0x318.7 (1)
     |                                               |                |                  [1]{}: in 0x319-0x319.7 (1)
0x310|                           a8                  |         .      |                    i32.trunc_f32_s: 0xa8 (valid) 0x319-0x319.7 (1)
     |                                               |                |                  [2]{}: in 0x31a-0x31a.7 (1)
0x310|                              0b               |          .     |                    end: 0xb (valid) 0x31a-0x31a.7 (1)
     |                                               |                |            [4]{}: code 0x31b-0x320.7 (6)
0x310|                                 05            |           .    |              size: 5 0x31b-0x31b.7 (1)
     |                                               |                |              code{}: 0x31c-0x320.7 (5)
     |                                               |                |                t{}: 0x31c-0x31c.7 (1)
0x310|                                    00         |            .   |                  n: 0 0x31c-0x31c.7 (1)
     |                                               |                |                  x[0:0]: 0x31d-NA (0)
     |                                               |                |                e[0:3]: 0x31d-0x320.7 (4)
     |                                               |                |                  [0]{}: in 0x31d-0x31e.7 (2)
0x310|                                       20      |                |                    local.get: 0x20 (valid) 0x31d-0x31d.7 (1)
0x310|                                          00   |              . |                    x: 0 0x31e-0x31e.7 (1)
     |                                               |                |                  [1]{}: in 0x31f-0x31f.7 (1)
0x310|                                             a9|               .|                    i32.trunc_f32_u: 0xa9 (valid) 0x31f-0x31f.7 (1)
     |                                               |                |                  [2]{}: in 0x320-0x320.7 (1)
0x320|0b                                             |.               |                    end: 0xb (valid) 0x320-0x320.7 (1)
     |                                               |                |            [5]{}: code 0x321-0x326.7 (6)
0x320|   05                                          | .              |              size: 5 0x321-0x321.7 (1)
     |                                               |                |              code{}: 0x322-0x326.7 (5)
     |                                               |                |                t{}: 0x322-0x322.7 (1)
0x320|      00                                       |  .             |                  n: 0 0x322-0x322.7 (1)
     |                                               |                |                  x[0:0]: 0x323-NA (0)
     |                                               |                |                e[0:3]: 0x323-0x326.7 (4)
     |                                               |                |                  [0]{}: in 0x323-0x324.7 (2)
0x320|         20                                    |                |                    local.get: 0x20 (valid) 0x323-0x323.7 (1)
0x320|            00                                 |    .           |                    x: 0 0x324-0x324.7 (1)
     |                                               |                |                  [1]{}: in 0x325-0x325.7 (1)
0x320|               aa                              |     .          |                    i32.trunc_f64_s: 0xaa (valid) 0x325-0x325.7 (1)
     |                                               |                |                  [2]{}: in 0x326-0x326.7 (1)
0x320|                  0b                           |      .         |                    end: 0xb (valid) 0x326-0x326.7 (1)
     |                                               |                |            [6]{}: code 0x327-0x32c.7 (6)
0x320|                     05                        |       .        |              size: 5 0x327-0x327.7 (1)
     |                                               |                |              code{}: 0x328-0x32c.7 (5)
     |                                               |                |                t{}: 0x328-0x328.7 (1)
0x320|                        00                     |        .       |                  n: 0 0x328-0x328.7 (1)
     |                                               |                |                  x[0:0]: 0x329-NA (0)
     |                                               |                |                e[0:3]: 0x329-0x32c.7 (4)
     |                                               |                |                  [0]{}: in 0x329-0x32a.7 (2)
0x320|                           20                  |                |                    local.get: 0x20 (valid) 0x329-0x329.7 (1)
0x320|                              00               |          .     |                    x: 0 0x32a-0x32a.7 (1)
     |                                               |                |                  [1]{}: in 0x32b-0x32b.7 (1)
0x320|                                 ab            |           .    |                    i32.trunc_f64_u: 0xab (valid) 0x32b-0x32b.7 (1)
     |                                               |                |                  [2]{}: in 0x32c-0x32c.7 (1)
0x320|                                    0b         |            .   |                    end: 0xb (valid) 0x32c-0x32c.7 (1)
     |                                               |                |            [7]{}: code 0x32d-0x332.7 (6)
0x320|                                       05      |             .  |              size: 5 0x32d-0x32d.7 (1)
     |                                               |                |              code{}: 0x32e-0x332.7 (5)
     |                                               |                |                t{}: 0x32e-0x32e.7 (1)
0x320|                                          00   |              . |                  n: 0 0x32e-0x32e.7 (1)
     |                                               |                |                  x[0:0]: 0x32f-NA (0)
     |                                               |                |                e[0:3]: 0x32f-0x332.7 (4)
     |                                               |                |                  [0]{}: in 0x32f-0x330.7 (2)
0x320|                                             20|                |                    local.get: 0x20 (valid) 0x32f-0x32f.7 (1)
0x330|00                                             |.               |                    x: 0 0x330-0x330.7 (1)
     |                                               |                |                  [1]{}: in 0x331-0x331.7 (1)
0x330|   ae                                          | .              |                    i64.trunc_f32_s: 0xae (valid) 0x331-0x331.7 (1)
     |                                               |                |                  [2]{}: in 0x332-0x332.7 (1)
0x330|      0b                                       |  .             |                    end: 0xb (valid) 0x332-0x332.7 (1)
     |                                               |                |            [8]{}: code 0x333-0x338.7 (6)
0x330|         05                                    |   .            |              size: 5 0x333-0x333.7 (1)
     |                                               |                |              code{}: 0x334-0x338.7 (5)
     |                                               |                |                t{}: 0x334-0x334.7 (1)
0x330|            00                                 |    .           |                  n: 0 0x334-0x334.7 (1)
     |                                               |                |                  x[0:0]: 0x335-NA (0)
     |                                               |                |                e[0:3]: 0x335-0x338.7 (4)
     |                                               |                |                  [0]{}: in 0x335-0x336.7 (2)
0x330|               20                              |                |                    local.get: 0x20 (valid) 0x335-0x335.7 (1)
0x330|                  00                           |      .         |                    x: 0 0x336-0x336.7 (1)
     |                                               |                |                  [1]{}: in 0x337-0x337.7 (1)
0x330|                     af                        |       .        |                    i64.trunc_f32_u: 0xaf (valid) 0x337-0x337.7 (1)
     |                                               |                |                  [2]{}: in 0x338-0x338.7 (1)
0x330|                        0b                     |        .       |                    end: 0xb (valid) 0x338-0x338.7 (1)
     |                                               |                |            [9]{}: code 0x339-0x33e.7 (6)
0x330|                           05                  |         .      |              size: 5 0x339-0x339.7 (1)
     |                                               |                |              code{}: 0x33a-0x33e.7 (5)
     |                                               |                |                t{}: 0x33a-0x33a.7 (1)
0x330|                              00               |          .     |                  n: 0 0x33a-0x33a.7 (1)
     |                                               |                |                  x[0:0]: 0x33b-NA (0)
     |                                               |                |                e[0:3]: 0x33b-0x33e.7 (4)
     |                                               |                |                  [0]{}: in 0x33b-0x33c.7 (2)
0x330|                                 20            |                |                    local.get: 0x20 (valid) 0x33b-0x33b.7 (1)
0x330|                                    00         |            .   |                    x: 0 0x33c-0x33c.7 (1)
     |                                               |                |                  [1]{}: in 0x33d-0x33d.7 (1)
0x330|                                       b0      |             .  |                    i64.trunc_f64_s: 0xb0 (valid) 0x33d-0x33d.7 (1)
     |                                               |                |                  [2]{}: in 0x33e-0x33e.7 (1)
0x330|                                          0b   |              . |                    end: 0xb (valid) 0x33e-0x33e.7 (1)
     |                                               |                |            [10]{}: code 0x33f-0x344.7 (6)
0x330|                                             05|               .|              size: 5 0x33f-0x33f.7 (1)
     |                                               |                |              code{}: 0x340-0x344.7 (5)
     |                                               |                |                t{}: 0x340-0x340.7 (1)
0x340|00                                             |.               |                  n: 0 0x340-0x340.7 (1)
     |                                               |                |                  x[0:0]: 0x341-NA (0)
     |                                               |                |                e[0:3]: 0x341-0x344.7 (4)
     |                                               |                |                  [0]{}: in 0x341-0x342.7 (2)
0x340|   20                                          |                |                    local.get: 0x20 (valid) 0x341-0x341.7 (1)
0x340|      00                                       |  .             |                    x: 0 0x342-0x342.7 (1)
     |                                               |                |                  [1]{}: in 0x343-0x343.7 (1)
0x340|         b1                                    |   .            |                    i64.trunc_f64_u: 0xb1 (valid) 0x343-0x343.7 (1)
     |                                               |                |                  [2]{}: in 0x344-0x344.7 (1)
0x340|            0b                                 |    .           |                    end: 0xb (valid) 0x344-0x344.7 (1)
     |                                               |                |            [11]{}: code 0x345-0x34b.7 (7)
0x340|               06                              |     .          |              size: 6 0x345-0x345.7 (1)
     |                                               |                |              code{}: 0x346-0x34b.7 (6)
     |                                               |                |                t{}: 0x346-0x346.7 (1)
0x340|                  00                           |      .         |                  n: 0 0x346-0x346.7 (1)
     |                                               |                |                  x[0:0]: 0x347-NA (0)
     |                                               |                |                e[0:3]: 0x347-0x34b.7 (5)
     |                                               |                |                  [0]{}: in 0x347-0x348.7 (2)
0x340|                     20                        |                |                    local.get: 0x20 (valid) 0x347-0x347.7 (1)
0x340|                        00                     |        .       |                    x: 0 0x348-0x348.7 (1)
     |                                               |                |                  [1]{}: in 0x349-0x34a.7 (2)
0x340|                           fc                  |         .      |                    prefix: 0xfc (valid) 0x349-0x349.7 (1)
0x340|                              00               |          .     |                    i32.trunc_sat_f32_s: 0 (valid) 0x34a-0x34a.7 (1)
     |                                               |                |                  [2]{}: in 0x34b-0x34b.7 (1)
0x340|                                 0b            |           .    |                    end: 0xb (valid) 0x34b-0x34b.7 (1)
     |                                               |                |            [12]{}: code 0x34c-0x352.7 (7)
0x340|                                    06         |            .   |              size: 6 0x34c-0x34c.7 (1)
     |                                               |                |              code{}: 0x34d-0x352.7 (6)
     |                                               |                |                t{}: 0x34d-0x34d.7 (1)
0x340|                                       00      |             .  |                  n: 0 0x34d-0x34d.7 (1)
     |                                               |                |                  x[0:0]: 0x34e-NA (0)
     |                                               |                |                e[0:3]: 0x34e-0x352.7 (5)
     |                                               |                |                  [0]{}: in 0x34e-0x34f.7 (2)
0x340|                                          20   |                |                    local.get: 0x20 (valid) 0x34e-0x34e.7 (1)
0x340|                                             00|               .|                    x: 0 0x34f-0x34f.7 (1)
     |                                               |                |                  [1]{}: in 0x350-0x351.7 (2)
0x350|fc                                             |.               |                    prefix: 0xfc (valid) 0x350-0x350.7 (1)
0x350|   01                                          | .              |                    i32.trunc_sat_f32_u: 1 (valid) 0x351-0x351.7 (1)
     |                                               |                |                  [2]{}: in 0x352-0x352.7 (1)
0x350|      0b                                       |  .             |                    end: 0xb (valid) 0x352-0x352.7 (1)
     |                                               |                |            [13]{}: code 0x353-0x359.7 (7)
0x350|         06                                    |   .            |              size: 6 0x353-0x353.7 (1)
     |                                               |                |              code{}: 0x354-0x359.7 (6)
     |                                               |                |                t{}: 0x354-0x354.7 (1)
0x350|            00                                 |    .           |                  n: 0 0x354-0x354.7 (1)
     |                                               |                |                  x[0:0]: 0x355-NA (0)
     |                                               |                |                e[0:3]: 0x355-0x359.7 (5)
     |                                               |                |                  [0]{}: in 0x355-0x356.7 (2)
0x350|               20                              |                |                    local.get: 0x20 (valid) 0x355-0x355.7 (1)
0x350|                  00                           |      .         |                    x: 0 0x356-0x356.7 (1)
     |                                               |                |                  [1]{}: in 0x357-0x358.7 (2)
0x350|                     fc                        |       .        |                    prefix: 0xfc (valid) 0x357-0x357.7 (1)
0x350|                        02                     |        .       |                    i32.trunc_sat_f64_s: 2 (valid) 0x358-0x358.7 (1)
     |                                               |                |                  [2]{}: in 0x359-0x359.7 (1)
0x350|                           0b                  |         .      |                    end: 0xb (valid) 0x359-0x359.7 (1)
     |                                               |                |            [14]{}: code 0x35a-0x360.7 (7)
0x350|                              06               |          .     |              size: 6 0x35a-0x35a.7 (1)
     |                                               |                |              code{}: 0x35b-0x360.7 (6)
     |                                               |                |                t{}: 0x35b-0x35b.7 (1)
0x350|                                 00            |           .    |                  n: 0 0x35b-0x35b.7 (1)
     |                                               |                |                  x[0:0]: 0x35c-NA (0)
     |                                               |                |                e[0:3]: 0x35c-0x360.7 (5)
     |                                               |                |                  [0]{}: in 0x35c-0x35d.7 (2)
0x350|                                    20         |                |                    local.get: 0x20 (valid) 0x35c-0x35c.7 (1)
0x350|                                       00      |             .  |                    x: 0 0x35d-0x35d.7 (1)
     |                                               |                |                  [1]{}: in 0x35e-0x35f.7 (2)
0x350|                                          fc   |              . |                    prefix: 0xfc (valid) 0x35e-0x35e.7 (1)
0x350|                                             03|               .|                    i32.trunc_sat_f64_u: 3 (valid) 0x35f-0x35f.7 (1)
     |                                               |                |                  [2]{}: in 0x360-0x360.7 (1)
0x360|0b                                             |.               |                    end: 0xb (valid) 0x360-0x360.7 (1)
     |                                               |                |            [15]{}: code 0x361-0x367.7 (7)
0x360|   06                                          | .              |              size: 6 0x361-0x361.7 (1)
     |                                               |                |              code{}: 0x362-0x367.7 (6)
     |                                               |                |                t{}: 0x362-0x362.7 (1)
0x360|      00                                       |  .             |                  n: 0 0x362-0x362.7 (1)
     |                                               |                |                  x[0:0]: 0x363-NA (0)
     |                                               |                |                e[0:3]: 0x363-0x367.7 (5)
     |                                               |                |                  [0]{}: in 0x363-0x364.7 (2)
0x360|         20                                    |                |                    local.get: 0x20 (valid) 0x363-0x363.7 (1)
0x360|            00                                 |    .           |                    x: 0 0x364-0x364.7 (1)
     |                                               |                |                  [1]{}: in 0x365-0x366.7 (2)
0x360|               fc                              |     .          |                    prefix: 0xfc (valid) 0x365-0x365.7 (1)
0x360|                  04                           |      .         |                    i64.trunc_sat_f32_s: 4 (valid) 0x366-0x366.7 (1)
     |                                               |                |                  [2]{}: in 0x367-0x367.7 (1)
0x360|                     0b                        |       .        |                    end: 0xb (valid) 0x367-0x367.7 (1)
     |                                               |                |            [16]{}: code 0x368-0x36e.7 (7)
0x360|                        06                     |        .       |              size: 6 0x368-0x368.7 (1)
     |                                               |                |              code{}: 0x369-0x36e.7 (6)
     |                                               |                |                t{}: 0x369-0x369.7 (1)
0x360|                           00                  |         .      |                  n: 0 0x369-0x369.7 (1)
     |                                               |                |                  x[0:0]: 0x36a-NA (0)
     |                                               |                |                e[0:3]: 0x36a-0x36e.7 (5)
     |                                               |                |                  [0]{}: in 0x36a-0x36b.7 (2)
0x360|                              20               |                |                    local.get: 0x20 (valid) 0x36a-0x36a.7 (1)
0x360|                                 00            |           .    |                    x: 0 0x36b-0x36b.7 (1)
     |                                               |                |                  [1]{}: in 0x36c-0x36d.7 (2)
0x360|                                    fc         |            .   |                    prefix: 0xfc (valid) 0x36c-0x36c.7 (1)
0x360|                                       05      |             .  |                    i64.trunc_sat_f32_u: 5 (valid) 0x36d-0x36d.7 (1)
     |                                               |                |                  [2]{}: in 0x36e-0x36e.7 (1)
0x360|                                          0b   |              . |                    end: 0xb (valid) 0x36e-0x36e.7 (1)
     |                                               |                |            [17]{}: code 0x36f-0x375.7 (7)
0x360|                                             06|               .|              size: 6 0x36f-0x36f.7 (1)
     |                                               |                |              code{}: 0x370-0x375.7 (6)
     |                                               |                |                t{}: 0x370-0x370.7 (1)
0x370|00                                             |.               |                  n: 0 0x370-0x370.7 (1)
     |                                               |                |                  x[0:0]: 0x371-NA (0)
     |                                               |                |                e[0:3]: 0x371-0x375.7 (5)
     |                                               |                |                  [0]{}: in 0x371-0x372.7 (2)
0x370|   20                                          |                |                    local.get: 0x20 (valid) 0x371-0x371.7 (1)
0x370|      00                                       |  .             |                    x: 0 0x372-0x372.7 (1)
     |                                               |                |                  [1]{}: in 0x373-0x374.7 (2)
0x370|         fc                                    |   .            |                    prefix: 0xfc (valid) 0x373-0x373.7 (1)
0x370|            06                                 |    .           |                    i64.trunc_sat_f64_s: 6 (valid) 0x374-0x374.7 (1)
     |                                               |                |                  [2]{}: in 0x375-0x375.7 (1)
0x370|               0b                              |     .          |                    end: 0xb (valid) 0x375-0x375.7 (1)
     |                                               |                |            [18]{}: code 0x376-0x37c.7 (7)
0x370|                  06                           |      .         |              size: 6 0x376-0x376.7 (1)
     |                                               |                |              code{}: 0x377-0x37c.7 (6)
     |                                               |                |                t{}: 0x377-0x377.7 (1)
0x370|                     00                        |       .        |                  n: 0 0x377-0x377.7 (1)
     |                                               |                |                  x[0:0]: 0x378-NA (0)
     |                                               |                |                e[0:3]: 0x378-0x37c.7 (5)
     |                                               |                |                  [0]{}: in 0x378-0x379.7 (2)
0x370|                        20                     |                |                    local.get: 0x20 (valid) 0x378-0x378.7 (1)
0x370|                           00                  |         .      |                    x: 0 0x379-0x379.7 (1)
     |                                               |                |                  [1]{}: in 0x37a-0x37b.7 (2)
0x370|                              fc               |          .     |                    prefix: 0xfc (valid) 0x37a-0x37a.7 (1)
0x370|                                 07            |           .    |                    i64.trunc_sat_f64_u: 7 (valid) 0x37b-0x37b.7 (1)
     |                                               |                |                  [2]{}: in 0x37c-0x37c.7 (1)
0x370|                                    0b         |            .   |                    end: 0xb (valid) 0x37c-0x37c.7 (1)
     |                                               |                |            [19]{}: code 0x37d-0x382.7 (6)
0x370|                                       05      |             .  |              size: 5 0x37d-0x37d.7 (1)
     |                                               |                |              code{}: 0x37e-0x382.7 (5)
     |                                               |                |                t{}: 0x37e-0x37e.7 (1)
0x370|                                          00   |              . |                  n: 0 0x37e-0x37e.7 (1)
     |                                               |                |                  x[0:0]: 0x37f-NA (0)
     |                                               |                |                e[0:3]: 0x37f-0x382.7 (4)
     |                                               |                |                  [0]{}: in 0x37f-0x380.7 (2)
0x370|                                             20|                |                    local.get: 0x20 (valid) 0x37f-0x37f.7 (1)
0x380|00                                             |.               |                    x: 0 0x380-0x380.7 (1)
     |                                               |                |                  [1]{}: in 0x381-0x381.7 (1)
0x380|   b2                                          | .              |                    f32.convert_i32_s: 0xb2 (valid) 0x381-0x381.7 (1)
     |                                               |                |                  [2]{}: in 0x382-0x382.7 (1)
0x380|      0b                                       |  .             |                    end: 0xb (valid) 0x382-0x382.7 (1)
     |                                               |                |            [20]{}: code 0x383-0x388.7 (6)
0x380|         05                                    |   .            |              size: 5 0x383-0x383.7 (1)
     |                                               |                |              code{}: 0x384-0x388.7 (5)
     |                                               |                |                t{}: 0x384-0x384.7 (1)
0x380|            00                                 |    .           |                  n: 0 0x384-0x384.7 (1)
     |                                               |                |                  x[0:0]: 0x385-NA (0)
     |                                               |                |                e[0:3]: 0x385-0x388.7 (4)
     |                                               |                |                  [0]{}: in 0x385-0x386.7 (2)
0x380|               20                              |                |                    local.get: 0x20 (valid) 0x385-0x385.7 (1)
0x380|                  00                           |      .         |                    x: 0 0x386-0x386.7 (1)
     |                                               |                |                  [1]{}: in 0x387-0x387.7 (1)
0x380|                     b4                        |       .        |                    f32.convert_i64_s: 0xb4 (valid) 0x387-0x387.7 (1)
     |                                               |                |                  [2]{}: in 0x388-0x388.7 (1)
0x380|                        0b                     |        .       |                    end: 0xb (valid) 0x388-0x388.7 (1)
     |                                               |                |            [21]{}: code 0x389-0x38e.7 (6)
0x380|                           05                  |         .      |              size: 5 0x389-0x389.7 (1)
     |                                               |                |              code{}: 0x38a-0x38e.7 (5)
     |                                               |                |                t{}: 0x38a-0x38a.7 (1)
0x380|                              00               |          .     |                  n: 0 0x38a-0x38a.7 (1)
     |                                               |                |                  x[0:0]: 0x38b-NA (0)
     |                                               |                |                e[0:3]: 0x38b-0x38e.7 (4)
     |                                               |                |                  [0]{}: in 0x38b-0x38c.7 (2)
0x380|                                 20            |                |                    local.get: 0x20 (valid) 0x38b-0x38b.7 (1)
0x380|                                    00         |            .   |                    x: 0 0x38c-0x38c.7 (1)
     |                                               |                |                  [1]{}: in 0x38d-0x38d.7 (1)
0x380|                                       b7      |             .  |                    f64.convert_i32_s: 0xb7 (valid) 0x38d-0x38d.7 (1)
     |                                               |                |                  [2]{}: in 0x38e-0x38e.7 (1)
0x380|                                          0b   |              . |                    end: 0xb (valid) 0x38e-0x38e.7 (1)
     |                                               |                |            [22]{}: code 0x38f-0x394.7 (6)
0x380|                                             05|               .|              size: 5 0x38f-0x38f.7 (1)
     |                                               |                |              code{}: 0x390-0x394.7 (5)
     |                                               |                |                t{}: 0x390-0x390.7 (1)
0x390|00                                             |.               |                  n: 0 0x390-0x390.7 (1)
     |                                               |                |                  x[0:0]: 0x391-NA (0)
     |                                               |                |                e[0:3]: 0x391-0x394.7 (4)
     |                                               |                |                  [0]{}: in 0x391-0x392.7 (2)
0x390|   20                                          |                |                    local.get: 0x20 (valid) 0x391-0x391.7 (1)
0x390|      00                                       |  .             |                    x: 0 0x392-0x392.7 (1)
     |                                               |                |                  [1]{}: in 0x393-0x393.7 (1)
0x390|         b9                                    |   .            |                    f64.convert_i64_s: 0xb9 (valid) 0x393-0x393.7 (1)
     |                                               |                |                  [2]{}: in 0x394-0x394.7 (1)
0x390|            0b                                 |    .           |                    end: 0xb (valid) 0x394-0x394.7 (1)
     |                                               |                |            [23]{}: code 0x395-0x39a.7 (6)
0x390|               05                              |     .          |              size: 5 0x395-0x395.7 (1)
     |                                               |                |              code{}: 0x396-0x39a.7 (5)
     |                                               |                |                t{}: 0x396-0x396.7 (1)
0x390|                  00                           |      .         |                  n: 0 0x396-0x396.7 (1)
     |                                               |                |                  x[0:0]: 0x397-NA (0)
     |                                               |                |                e[0:3]: 0x397-0x39a.7 (4)
     |                                               |                |                  [0]{}: in 0x397-0x398.7 (2)
0x390|                     20                        |                |                    local.get: 0x20 (valid) 0x397-0x397.7 (1)
0x390|                        00                     |        .       |                    x: 0 0x398-0x398.7 (1)
     |                                               |                |                  [1]{}: in 0x399-0x399.7 (1)
0x390|                           b3                  |         .      |                    f32.convert_i32_u: 0xb3 (valid) 0x399-0x399.7 (1)
     |                                               |                |                  [2]{}: in 0x39a-0x39a.7 (1)
0x390|                              0b               |          .     |                    end: 0xb (valid) 0x39a-0x39a.7 (1)
     |                                               |                |            [24]{}: code 0x39b-0x3a0.7 (6)
0x390|                                 05            |           .    |              size: 5 0x39b-0x39b.7 (1)
     |                                               |                |              code{}: 0x39c-0x3a0.7 (5)
     |                                               |                |                t{}: 0x39c-0x39c.7 (1)
0x390|                                    00         |            .   |                  n: 0 0x39c-0x39c.7 (1)
     |                                               |                |                  x[0:0]: 0x39d-NA (0)
     |                                               |                |                e[0:3]: 0x39d-0x3a0.7 (4)
     |                                               |                |                  [0]{}: in 0x39d-0x39e.7 (2)
0x390|                                       20      |                |                    local.get: 0x20 (valid) 0x39d-0x39d.7 (1)
0x390|                                          00   |              . |                    x: 0 0x39e-0x39e.7 (1)
     |                                               |                |                  [1]{}: in 0x39f-0x39f.7 (1)
0x390|                                             b5|               .|                    f32.convert_i64_u: 0xb5 (valid) 0x39f-0x39f.7 (1)
     |                                               |                |                  [2]{}: in 0x3a0-0x3a0.7 (1)
0x3a0|0b                                             |.               |                    end: 0xb (valid) 0x3a0-0x3a0.7 (1)
     |                                               |                |            [25]{}: code 0x3a1-0x3a6.7 (6)
0x3a0|   05                                          | .              |              size: 5 0x3a1-0x3a1.7 (1)
     |                                               |                |              code{}: 0x3a2-0x3a6.7 (5)
     |                                               |                |                t{}: 0x3a2-0x3a2.7 (1)
0x3a0|      00                                       |  .             |                  n: 0 0x3a2-0x3a2.7 (1)
     |                                               |                |                  x[0:0]: 0x3a3-NA (0)
     |                                               |                |                e[0:3]: 0x3a3-0x3a6.7 (4)
     |                                               |                |                  [0]{}: in 0x3a3-0x3a4.7 (2)
0x3a0|         20                                    |                |                    local.get: 0x20 (valid) 0x3a3-0x3a3.7 (1)
0x3a0|            00                                 |    .           |                    x: 0 0x3a4-0x3a4.7 (1)
     |                                               |                |                  [1]{}: in 0x3a5-0x3a5.7 (1)
0x3a0|               b8                              |     .          |                    f64.convert_i32_u: 0xb8 (valid) 0x3a5-0x3a5.7 (1)
     |                                               |                |                  [2]{}: in 0x3a6-0x3a6.7 (1)
0x3a0|                  0b                           |      .         |                    end: 0xb (valid) 0x3a6-0x3a6.7 (1)
     |                                               |                |            [26]{}: code 0x3a7-0x3ac.7 (6)
0x3a0|                     05                        |       .        |              size: 5 0x3a7-0x3a7.7 (1)
     |                                               |                |              code{}: 0x3a8-0x3ac.7 (5)
     |                                               |                |                t{}: 0x3a8-0x3a8.7 (1)
0x3a0|                        00                     |        .       |                  n: 0 0x3a8-0x3a8.7 (1)
     |                                               |                |                  x[0:0]: 0x3a9-NA (0)
     |                                               |                |                e[0:3]: 0x3a9-0x3ac.7 (4)
     |                                               |                |                  [0]{}: in 0x3a9-0x3aa.7 (2)
0x3a0|                           20                  |                |                    local.get: 0x20 (valid) 0x3a9-0x3a9.7 (1)
0x3a0|                              00               |          .     |                    x: 0 0x3aa-0x3aa.7 (1)
     |                                               |                |                  [1]{}: in 0x3ab-0x3ab.7 (1)
0x3a0|                                 ba            |           .    |                    f64.convert_i64_u: 0xba (valid) 0x3ab-0x3ab.7 (1)
     |                                               |                |                  [2]{}: in 0x3ac-0x3ac.7 (1)
0x3a0|                                    0b         |            .   |                    end: 0xb (valid) 0x3ac-0x3ac.7 (1)
     |                                               |                |            [27]{}: code 0x3ad-0x3b2.7 (6)
0x3a0|                                       05      |             .  |              size: 5 0x3ad-0x3ad.7 (1)
     |                                               |                |              code{}: 0x3ae-0x3b2.7 (5)
     |                                               |                |                t{}: 0x3ae-0x3ae.7 (1)
0x3a0|                                          00   |              . |                  n: 0 0x3ae-0x3ae.7 (1)
     |                                               |                |                  x[0:0]: 0x3af-NA (0)
     |                                               |                |                e[0:3]: 0x3af-0x3b2.7 (4)
     |                                               |                |                  [0]{}: in 0x3af-0x3b0.7 (2)
0x3a0|                                             20|                |                    local.get: 0x20 (valid) 0x3af-0x3af.7 (1)
0x3b0|00                                             |.               |                    x: 0 0x3b0-0x3b0.7 (1)
     |                                               |                |                  [1]{}: in 0x3b1-0x3b1.7 (1)
0x3b0|   bb                                          | .              |                    f64.promote_f32: 0xbb (valid) 0x3b1-0x3b1.7 (1)
     |                                               |                |                  [2]{}: in 0x3b2-0x3b2.7 (1)
0x3b0|      0b                                       |  .             |                    end: 0xb (valid) 0x3b2-0x3b2.7 (1)
     |                                               |                |            [28]{}: code 0x3b3-0x3b8.7 (6)
0x3b0|         05                                    |   .            |              size: 5 0x3b3-0x3b3.7 (1)
     |                                               |                |              code{}: 0x3b4-0x3b8.7 (5)
     |                                               |                |                t{}: 0x3b4-0x3b4.7 (1)
0x3b0|            00                                 |    .           |                  n: 0 0x3b4-0x3b4.7 (1)
     |                                               |                |                  x[0:0]: 0x3b5-NA (0)
     |                                               |                |                e[0:3]: 0x3b5-0x3b8.7 (4)
     |                                               |                |                  [0]{}: in 0x3b5-0x3b6.7 (2)
0x3b0|               20                              |                |                    local.get: 0x20 (valid) 0x3b5-0x3b5.7 (1)
0x3b0|                  00                           |      .         |                    x: 0 0x3b6-0x3b6.7 (1)
     |                                               |                |                  [1]{}: in 0x3b7-0x3b7.7 (1)
0x3b0|                     b6                        |       .        |                    f32.demote_f64: 0xb6 (valid) 0x3b7-0x3b7.7 (1)
     |                                               |                |                  [2]{}: in 0x3b8-0x3b8.7 (1)
0x3b0|                        0b                     |        .       |                    end: 0xb (valid) 0x3b8-0x3b8.7 (1)
     |                                               |                |            [29]{}: code 0x3b9-0x3be.7 (6)
0x3b0|                           05                  |         .      |              size: 5 0x3b9-0x3b9.7 (1)
     |                                               |                |              code{}: 0x3ba-0x3be.7 (5)
     |                                               |                |                t{}: 0x3ba-0x3ba.7 (1)
0x3b0|                              00               |          .     |                  n: 0 0x3ba-0x3ba.7 (1)
     |                                               |                |                  x[0:0]: 0x3bb-NA (0)
     |                                               |                |                e[0:3]: 0x3bb-0x3be.7 (4)
     |                                               |                |                  [0]{}: in 0x3bb-0x3bc.7 (2)
0x3b0|                                 20            |                |                    local.get: 0x20 (valid) 0x3bb-0x3bb.7 (1)
0x3b0|                                    00         |            .   |                    x: 0 0x3bc-0x3bc.7 (1)
     |                                               |                |                  [1]{}: in 0x3bd-0x3bd.7 (1)
0x3b0|                                       be      |             .  |                    f32.reinterpret_i32: 0xbe (valid) 0x3bd-0x3bd.7 (1)
     |                                               |                |                  [2]{}: in 0x3be-0x3be.7 (1)
0x3b0|                                          0b   |              . |                    end: 0xb (valid) 0x3be-0x3be.7 (1)
     |                                               |                |            [30]{}: code 0x3bf-0x3c4.7 (6)
0x3b0|                                             05|               .|              size: 5 0x3bf-0x3bf.7 (1)
     |                                               |                |              code{}: 0x3c0-0x3c4.7 (5)
     |                                               |                |                t{}: 0x3c0-0x3c0.7 (1)
0x3c0|00                                             |.               |                  n: 0 0x3c0-0x3c0.7 (1)
     |                                               |                |                  x[0:0]: 0x3c1-NA (0)
     |                                               |                |                e[0:3]: 0x3c1-0x3c4.7 (4)
     |                                               |                |                  [0]{}: in 0x3c1-0x3c2.7 (2)
0x3c0|   20                                          |                |                    local.get: 0x20 (valid) 0x3c1-0x3c1.7 (1)
0x3c0|      00                                       |  .             |                    x: 0 0x3c2-0x3c2.7 (1)
     |                                               |                |                  [1]{}: in 0x3c3-0x3c3.7 (1)
0x3c0|         bf                                    |   .            |                    f64.reinterpret_i64: 0xbf (valid) 0x3c3-0x3c3.7 (1)
     |                                               |                |                  [2]{}: in 0x3c4-0x3c4.7 (1)
0x3c0|            0b                                 |    .           |                    end: 0xb (valid) 0x3c4-0x3c4.7 (1)
     |                                               |                |            [31]{}: code 0x3c5-0x3ca.7 (6)
0x3c0|               05                              |     .          |              size: 5 0x3c5-0x3c5.7 (1)
     |                                               |                |              code{}: 0x3c6-0x3ca.7 (5)
     |                                               |                |                t{}: 0x3c6-0x3c6.7 (1)
0x3c0|                  00                           |      .         |                  n: 0 0x3c6-0x3c6.7 (1)
     |                                               |                |                  x[0:0]: 0x3c7-NA (0)
     |                                               |                |                e[0:3]: 0x3c7-0x3ca.7 (4)
     |                                               |                |                  [0]{}: in 0x3c7-0x3c8.7 (2)
0x3c0|                     20                        |                |                    local.get: 0x20 (valid) 0x3c7-0x3c7.7 (1)
0x3c0|                        00                     |        .       |                    x: 0 0x3c8-0x3c8.7 (1)
     |                                               |                |                  [1]{}: in 0x3c9-0x3c9.7 (1)
0x3c0|                           bc                  |         .      |                    i32.reinterpret_f32: 0xbc (valid) 0x3c9-0x3c9.7 (1)
     |                                               |                |                  [2]{}: in 0x3ca-0x3ca.7 (1)
0x3c0|                              0b               |          .     |                    end: 0xb (valid) 0x3ca-0x3ca.7 (1)
     |                                               |                |            [32]{}: code 0x3cb-0x3d0.7 (6)
0x3c0|                                 05            |           .    |              size: 5 0x3cb-0x3cb.7 (1)
     |                                               |                |              code{}: 0x3cc-0x3d0.7 (5)
     |                                               |                |                t{}: 0x3cc-0x3cc.7 (1)
0x3c0|                                    00         |            .   |                  n: 0 0x3cc-0x3cc.7 (1)
     |                                               |                |                  x[0:0]: 0x3cd-NA (0)
     |                                               |                |                e[0:3]: 0x3cd-0x3d0.7 (4)
     |                                               |                |                  [0]{}: in 0x3cd-0x3ce.7 (2)
0x3c0|                                       20      |                |                    local.get: 0x20 (valid) 0x3cd-0x3cd.7 (1)
0x3c0|                                          00   |              . |                    x: 0 0x3ce-0x3ce.7 (1)
     |                                               |                |                  [1]{}: in 0x3cf-0x3cf.7 (1)
0x3c0|                                             bd|               .|                    i64.reinterpret_f64: 0xbd (valid) 0x3cf-0x3cf.7 (1)
     |                                               |                |                  [2]{}: in 0x3d0-0x3d0.7 (1)
0x3d0|0b|                                            |.|              |                    end: 0xb (valid) 0x3d0-0x3d0.7 (1)
