$ fq -d wasm dv conversions-0.wasm
     |00 01 02 03 04 05 06 07 08 09 0a 0b 0c 0d 0e 0f|0123456789abcdef|.{}: conversions-0.wasm (wasm) 0x0-0x3d1 (977)
0x000|00 61 73 6d                                    |.asm            |  magic: raw bits (valid) 0x0-0x4 (4)
0x000|            01 00 00 00                        |    ....        |  version: 1 0x4-0x8 (4)
     |                                               |                |  sections[0:4]: 0x8-0x3d1 (969)
     |                                               |                |    [0]{}: section 0x8-0x47 (63)
0x000|                        01                     |        .       |      id: "type_section" (1) 0x8-0x9 (1)
0x000|                           3d                  |         =      |      size: 61 (valid) 0x9-0xa (1)
     |                                               |                |      content{}: 0xa-0x47 (61)
     |                                               |                |        ft{}: 0xa-0x47 (61)
0x000|                              0c               |          .     |          n: 12 (valid) 0xa-0xb (1)
     |                                               |                |          x[0:12]: 0xb-0x47 (60)
     |                                               |                |            [0]{}: ft 0xb-0x10 (5)
0x000|                                 60            |           `    |              tag: 0x60 (valid) 0xb-0xc (1)
     |                                               |                |              rt1{}: 0xc-0xe (2)
0x000|                                    01         |            .   |                n: 1 (valid) 0xc-0xd (1)
     |                                               |                |                x[0:1]: 0xd-0xe (1)
0x000|                                       7f      |             .  |                  [0]: "i32" (0x7f) t 0xd-0xe (1)
     |                                               |                |              rt2{}: 0xe-0x10 (2)
0x000|                                          01   |              . |                n: 1 (valid) 0xe-0xf (1)
     |                                               |                |                x[0:1]: 0xf-0x10 (1)
0x000|                                             7e|               ~|                  [0]: "i64" (0x7e) t 0xf-0x10 (1)
     |                                               |                |            [1]{}: ft 0x10-0x15 (5)
0x010|60                                             |`               |              tag: 0x60 (valid) 0x10-0x11 (1)
     |                                               |                |              rt1{}: 0x11-0x13 (2)
0x010|   01                                          | .              |                n: 1 (valid) 0x11-0x12 (1)
     |                                               |                |                x[0:1]: 0x12-0x13 (1)
0x010|      7e                                       |  ~             |                  [0]: "i64" (0x7e) t 0x12-0x13 (1)
     |                                               |                |              rt2{}: 0x13-0x15 (2)
0x010|         01                                    |   .            |                n: 1 (valid) 0x13-0x14 (1)
     |                                               |                |                x[0:1]: 0x14-0x15 (1)
0x010|            7f                                 |    .           |                  [0]: "i32" (0x7f) t 0x14-0x15 (1)
     |                                               |                |            [2]{}: ft 0x15-0x1a (5)
0x010|               60                              |     `          |              tag: 0x60 (valid) 0x15-0x16 (1)
     |                                               |                |              rt1{}: 0x16-0x18 (2)
0x010|                  01                           |      .         |                n: 1 (valid) 0x16-0x17 (1)
     |                                               |                |                x[0:1]: 0x17-0x18 (1)
0x010|                     7d                        |       }        |                  [0]: "f32" (0x7d) t 0x17-0x18 (1)
     |                                               |                |              rt2{}: 0x18-0x1a (2)
0x010|                        01                     |        .       |                n: 1 (valid) 0x18-0x19 (1)
     |                                               |                |                x[0:1]: 0x19-0x1a (1)
0x010|                           7f                  |         .      |                  [0]: "i32" (0x7f) t 0x19-0x1a (1)
     |                                               |                |            [3]{}: ft 0x1a-0x1f (5)
0x010|                              60               |          `     |              tag: 0x60 (valid) 0x1a-0x1b (1)
     |                                               |                |              rt1{}: 0x1b-0x1d (2)
0x010|                                 01            |           .    |                n: 1 (valid) 0x1b-0x1c (1)
     |                                               |                |                x[0:1]: 0x1c-0x1d (1)
0x010|                                    7c         |            |   |                  [0]: "f64" (0x7c) t 0x1c-0x1d (1)
     |                                               |                |              rt2{}: 0x1d-0x1f (2)
0x010|                                       01      |             .  |                n: 1 (valid) 0x1d-0x1e (1)
     |                                               |                |                x[0:1]: 0x1e-0x1f (1)
0x010|                                          7f   |              . |                  [0]: "i32" (0x7f) t 0x1e-0x1f (1)
     |                                               |                |            [4]{}: ft 0x1f-0x24 (5)
0x010|                                             60|               `|              tag: 0x60 (valid) 0x1f-0x20 (1)
     |                                               |                |              rt1{}: 0x20-0x22 (2)
0x020|01                                             |.               |                n: 1 (valid) 0x20-0x21 (1)
     |                                               |                |                x[0:1]: 0x21-0x22 (1)
0x020|   7d                                          | }              |                  [0]: "f32" (0x7d) t 0x21-0x22 (1)
     |                                               |                |              rt2{}: 0x22-0x24 (2)
0x020|      01                                       |  .             |                n: 1 (valid) 0x22-0x23 (1)
     |                                               |                |                x[0:1]: 0x23-0x24 (1)
0x020|         7e                                    |   ~            |                  [0]: "i64" (0x7e) t 0x23-0x24 (1)
     |                                               |                |            [5]{}: ft 0x24-0x29 (5)
0x020|            60                                 |    `           |              tag: 0x60 (valid) 0x24-0x25 (1)
     |                                               |                |              rt1{}: 0x25-0x27 (2)
0x020|               01                              |     .          |                n: 1 (valid) 0x25-0x26 (1)
     |                                               |                |                x[0:1]: 0x26-0x27 (1)
0x020|                  7c                           |      |         |                  [0]: "f64" (0x7c) t 0x26-0x27 (1)
     |                                               |                |              rt2{}: 0x27-0x29 (2)
0x020|                     01                        |       .        |                n: 1 (valid) 0x27-0x28 (1)
     |                                               |                |                x[0:1]: 0x28-0x29 (1)
0x020|                        7e                     |        ~       |                  [0]: "i64" (0x7e) t 0x28-0x29 (1)
     |                                               |                |            [6]{}: ft 0x29-0x2e (5)
0x020|                           60                  |         `      |              tag: 0x60 (valid) 0x29-0x2a (1)
     |                                               |                |              rt1{}: 0x2a-0x2c (2)
0x020|                              01               |          .     |                n: 1 (valid) 0x2a-0x2b (1)
     |                                               |                |                x[0:1]: 0x2b-0x2c (1)
0x020|                                 7f            |           .    |                  [0]: "i32" (0x7f) t 0x2b-0x2c (1)
     |                                               |                |              rt2{}: 0x2c-0x2e (2)
0x020|                                    01         |            .   |                n: 1 (valid) 0x2c-0x2d (1)
     |                                               |                |                x[0:1]: 0x2d-0x2e (1)
0x020|                                       7d      |             }  |                  [0]: "f32" (0x7d) t 0x2d-0x2e (1)
     |                                               |                |            [7]{}: ft 0x2e-0x33 (5)
0x020|                                          60   |              ` |              tag: 0x60 (valid) 0x2e-0x2f (1)
     |                                               |                |              rt1{}: 0x2f-0x31 (2)
0x020|                                             01|               .|                n: 1 (valid) 0x2f-0x30 (1)
     |                                               |                |                x[0:1]: 0x30-0x31 (1)
0x030|7e                                             |~               |                  [0]: "i64" (0x7e) t 0x30-0x31 (1)
     |                                               |                |              rt2{}: 0x31-0x33 (2)
0x030|   01                                          | .              |                n: 1 (valid) 0x31-0x32 (1)
     |                                               |                |                x[0:1]: 0x32-0x33 (1)
0x030|      7d                                       |  }             |                  [0]: "f32" (0x7d) t 0x32-0x33 (1)
     |                                               |                |            [8]{}: ft 0x33-0x38 (5)
0x030|         60                                    |   `            |              tag: 0x60 (valid) 0x33-0x34 (1)
     |                                               |                |              rt1{}: 0x34-0x36 (2)
0x030|            01                                 |    .           |                n: 1 (valid) 0x34-0x35 (1)
     |                                               |                |                x[0:1]: 0x35-0x36 (1)
0x030|               7f                              |     .          |                  [0]: "i32" (0x7f) t 0x35-0x36 (1)
     |                                               |                |              rt2{}: 0x36-0x38 (2)
0x030|                  01                           |      .         |                n: 1 (valid) 0x36-0x37 (1)
     |                                               |                |                x[0:1]: 0x37-0x38 (1)
0x030|                     7c                        |       |        |                  [0]: "f64" (0x7c) t 0x37-0x38 (1)
     |                                               |                |            [9]{}: ft 0x38-0x3d (5)
0x030|                        60                     |        `       |              tag: 0x60 (valid) 0x38-0x39 (1)
     |                                               |                |              rt1{}: 0x39-0x3b (2)
0x030|                           01                  |         .      |                n: 1 (valid) 0x39-0x3a (1)
     |                                               |                |                x[0:1]: 0x3a-0x3b (1)
0x030|                              7e               |          ~     |                  [0]: "i64" (0x7e) t 0x3a-0x3b (1)
     |                                               |                |              rt2{}: 0x3b-0x3d (2)
0x030|                                 01            |           .    |                n: 1 (valid) 0x3b-0x3c (1)
     |                                               |                |                x[0:1]: 0x3c-0x3d (1)
0x030|                                    7c         |            |   |                  [0]: "f64" (0x7c) t 0x3c-0x3d (1)
     |                                               |                |            [10]{}: ft 0x3d-0x42 (5)
0x030|                                       60      |             `  |              tag: 0x60 (valid) 0x3d-0x3e (1)
     |                                               |                |              rt1{}: 0x3e-0x40 (2)
0x030|                                          01   |              . |                n: 1 (valid) 0x3e-0x3f (1)
     |                                               |                |                x[0:1]: 0x3f-0x40 (1)
0x030|                                             7d|               }|                  [0]: "f32" (0x7d) t 0x3f-0x40 (1)
     |                                               |                |              rt2{}: 0x40-0x42 (2)
0x040|01                                             |.               |                n: 1 (valid) 0x40-0x41 (1)
     |                                               |                |                x[0:1]: 0x41-0x42 (1)
0x040|   7c                                          | |              |                  [0]: "f64" (0x7c) t 0x41-0x42 (1)
     |                                               |                |            [11]{}: ft 0x42-0x47 (5)
0x040|      60                                       |  `             |              tag: 0x60 (valid) 0x42-0x43 (1)
     |                                               |                |              rt1{}: 0x43-0x45 (2)
0x040|         01                                    |   .            |                n: 1 (valid) 0x43-0x44 (1)
     |                                               |                |                x[0:1]: 0x44-0x45 (1)
0x040|            7c                                 |    |           |                  [0]: "f64" (0x7c) t 0x44-0x45 (1)
     |                                               |                |              rt2{}: 0x45-0x47 (2)
0x040|               01                              |     .          |                n: 1 (valid) 0x45-0x46 (1)
     |                                               |                |                x[0:1]: 0x46-0x47 (1)
0x040|                  7d                           |      }         |                  [0]: "f32" (0x7d) t 0x46-0x47 (1)
     |                                               |                |    [1]{}: section 0x47-0x6b (36)
0x040|                     03                        |       .        |      id: "function_section" (3) 0x47-0x48 (1)
0x040|                        22                     |        "       |      size: 34 (valid) 0x48-0x49 (1)
     |                                               |                |      content{}: 0x49-0x6b (34)
     |                                               |                |        x{}: 0x49-0x6b (34)
0x040|                           21                  |         !      |          n: 33 (valid) 0x49-0x4a (1)
     |                                               |                |          x[0:33]: 0x4a-0x6b (33)
0x040|                              00               |          .     |            [0]: 0 x (valid) 0x4a-0x4b (1)
0x040|                                 00            |           .    |            [1]: 0 x (valid) 0x4b-0x4c (1)
0x040|                                    01         |            .   |            [2]: 1 x (valid) 0x4c-0x4d (1)
0x040|                                       02      |             .  |            [3]: 2 x (valid) 0x4d-0x4e (1)
0x040|                                          02   |              . |            [4]: 2 x (valid) 0x4e-0x4f (1)
0x040|                                             03|               .|            [5]: 3 x (valid) 0x4f-0x50 (1)
0x050|03                                             |.               |            [6]: 3 x (valid) 0x50-0x51 (1)
0x050|   04                                          | .              |            [7]: 4 x (valid) 0x51-0x52 (1)
0x050|      04                                       |  .             |            [8]: 4 x (valid) 0x52-0x53 (1)
0x050|         05                                    |   .            |            [9]: 5 x (valid) 0x53-0x54 (1)
0x050|            05                                 |    .           |            [10]: 5 x (valid) 0x54-0x55 (1)
0x050|               02                              |     .          |            [11]: 2 x (valid) 0x55-0x56 (1)
0x050|                  02                           |      .         |            [12]: 2 x (valid) 0x56-0x57 (1)
0x050|                     03                        |       .        |            [13]: 3 x (valid) 0x57-0x58 (1)
0x050|                        03                     |        .       |            [14]: 3 x (valid) 0x58-0x59 (1)
0x050|                           04                  |         .      |            [15]: 4 x (valid) 0x59-0x5a (1)
0x050|                              04               |          .     |            [16]: 4 x (valid) 0x5a-0x5b (1)
0x050|                                 05            |           .    |            [17]: 5 x (valid) 0x5b-0x5c (1)
0x050|                                    05         |            .   |            [18]: 5 x (valid) 0x5c-0x5d (1)
0x050|                                       06      |             .  |            [19]: 6 x (valid) 0x5d-0x5e (1)
0x050|                                          07   |              . |            [20]: 7 x (valid) 0x5e-0x5f (1)
0x050|                                             08|               .|            [21]: 8 x (valid) 0x5f-0x60 (1)
0x060|09                                             |.               |            [22]: 9 x (valid) 0x60-0x61 (1)
0x060|   06                                          | .              |            [23]: 6 x (valid) 0x61-0x62 (1)
0x060|      07                                       |  .             |            [24]: 7 x (valid) 0x62-0x63 (1)
0x060|         08                                    |   .            |            [25]: 8 x (valid) 0x63-0x64 (1)
0x060|            09                                 |    .           |            [26]: 9 x (valid) 0x64-0x65 (1)
0x060|               0a                              |     .          |            [27]: 10 x (valid) 0x65-0x66 (1)
0x060|                  0b                           |      .         |            [28]: 11 x (valid) 0x66-0x67 (1)
0x060|                     06                        |       .        |            [29]: 6 x (valid) 0x67-0x68 (1)
0x060|                        09                     |        .       |            [30]: 9 x (valid) 0x68-0x69 (1)
0x060|                           02                  |         .      |            [31]: 2 x (valid) 0x69-0x6a (1)
0x060|                              05               |          .     |            [32]: 5 x (valid) 0x6a-0x6b (1)
     |                                               |                |    [2]{}: section 0x6b-0x2ff (660)
0x060|                                 07            |           .    |      id: "export_section" (7) 0x6b-0x6c (1)
0x060|                                    91 05      |            ..  |      size: 657 (valid) 0x6c-0x6e (2)
     |                                               |                |      content{}: 0x6e-0x2ff (657)
     |                                               |                |        ex{}: 0x6e-0x2ff (657)
0x060|                                          21   |              ! |          n: 33 (valid) 0x6e-0x6f (1)
     |                                               |                |          x[0:33]: 0x6f-0x2ff (656)
     |                                               |                |            [0]{}: ex 0x6f-0x82 (19)
     |                                               |                |              nm{}: 0x6f-0x80 (17)
0x060|                                             10|               .|                n: 16 (valid) 0x6f-0x70 (1)
0x070|69 36 34 2e 65 78 74 65 6e 64 5f 69 33 32 5f 73|i64.extend_i32_s|                b: "i64.extend_i32_s" 0x70-0x80 (16)
     |                                               |                |              d{}: 0x80-0x82 (2)
0x080|00                                             |.               |                tag: "funcidx" (0x0) 0x80-0x81 (1)
0x080|   00                                          | .              |                x: 0 (valid) 0x81-0x82 (1)
     |                                               |                |            [1]{}: ex 0x82-0x95 (19)
     |                                               |                |              nm{}: 0x82-0x93 (17)
0x080|      10                                       |  .             |                n: 16 (valid) 0x82-0x83 (1)
0x080|         69 36 34 2e 65 78 74 65 6e 64 5f 69 33|   i64.extend_i3|                b: "i64.extend_i32_u" 0x83-0x93 (16)
0x090|32 5f 75                                       |2_u             |
     |                                               |                |              d{}: 0x93-0x95 (2)
0x090|         00                                    |   .            |                tag: "funcidx" (0x0) 0x93-0x94 (1)
0x090|            01                                 |    .           |                x: 1 (valid) 0x94-0x95 (1)
     |                                               |                |            [2]{}: ex 0x95-0xa4 (15)
     |                                               |                |              nm{}: 0x95-0xa2 (13)
0x090|               0c                              |     .          |                n: 12 (valid) 0x95-0x96 (1)
0x090|                  69 33 32 2e 77 72 61 70 5f 69|      i32.wrap_i|                b: "i32.wrap_i64" 0x96-0xa2 (12)
0x0a0|36 34                                          |64              |
     |                                               |                |              d{}: 0xa2-0xa4 (2)
0x0a0|      00                                       |  .             |                tag: "funcidx" (0x0) 0xa2-0xa3 (1)
0x0a0|         02                                    |   .            |                x: 2 (valid) 0xa3-0xa4 (1)
     |                                               |                |            [3]{}: ex 0xa4-0xb6 (18)
     |                                               |                |              nm{}: 0xa4-0xb4 (16)
0x0a0|            0f                                 |    .           |                n: 15 (valid) 0xa4-0xa5 (1)
0x0a0|               69 33 32 2e 74 72 75 6e 63 5f 66|     i32.trunc_f|                b: "i32.trunc_f32_s" 0xa5-0xb4 (15)
0x0b0|33 32 5f 73                                    |32_s            |
     |                                               |                |              d{}: 0xb4-0xb6 (2)
0x0b0|            00                                 |    .           |                tag: "funcidx" (0x0) 0xb4-0xb5 (1)
0x0b0|               03                              |     .          |                x: 3 (valid) 0xb5-0xb6 (1)
     |                                               |                |            [4]{}: ex 0xb6-0xc8 (18)
     |                                               |                |              nm{}: 0xb6-0xc6 (16)
0x0b0|                  0f                           |      .         |                n: 15 (valid) 0xb6-0xb7 (1)
0x0b0|                     69 33 32 2e 74 72 75 6e 63|       i32.trunc|                b: "i32.trunc_f32_u" 0xb7-0xc6 (15)
0x0c0|5f 66 33 32 5f 75                              |_f32_u          |
     |                                               |                |              d{}: 0xc6-0xc8 (2)
0x0c0|                  00                           |      .         |                tag: "funcidx" (0x0) 0xc6-0xc7 (1)
0x0c0|                     04                        |       .        |                x: 4 (valid) 0xc7-0xc8 (1)
     |                                               |                |            [5]{}: ex 0xc8-0xda (18)
     |                                               |                |              nm{}: 0xc8-0xd8 (16)
0x0c0|                        0f                     |        .       |                n: 15 (valid) 0xc8-0xc9 (1)
0x0c0|                           69 33 32 2e 74 72 75|         i32.tru|                b: "i32.trunc_f64_s" 0xc9-0xd8 (15)
0x0d0|6e 63 5f 66 36 34 5f 73                        |nc_f64_s        |
     |                                               |                |              d{}: 0xd8-0xda (2)
0x0d0|                        00                     |        .       |                tag: "funcidx" (0x0) 0xd8-0xd9 (1)
0x0d0|                           05                  |         .      |                x: 5 (valid) 0xd9-0xda (1)
     |                                               |                |            [6]{}: ex 0xda-0xec (18)
     |                                               |                |              nm{}: 0xda-0xea (16)
0x0d0|                              0f               |          .     |                n: 15 (valid) 0xda-0xdb (1)
0x0d0|                                 69 33 32 2e 74|           i32.t|                b: "i32.trunc_f64_u" 0xdb-0xea (15)
0x0e0|72 75 6e 63 5f 66 36 34 5f 75                  |runc_f64_u      |
     |                                               |                |              d{}: 0xea-0xec (2)
0x0e0|                              00               |          .     |                tag: "funcidx" (0x0) 0xea-0xeb (1)
0x0e0|                                 06            |           .    |                x: 6 (valid) 0xeb-0xec (1)
     |                                               |                |            [7]{}: ex 0xec-0xfe (18)
     |                                               |                |              nm{}: 0xec-0xfc (16)
0x0e0|                                    0f         |            .   |                n: 15 (valid) 0xec-0xed (1)
0x0e0|                                       69 36 34|             i64|                b: "i64.trunc_f32_s" 0xed-0xfc (15)
0x0f0|2e 74 72 75 6e 63 5f 66 33 32 5f 73            |.trunc_f32_s    |
     |                                               |                |              d{}: 0xfc-0xfe (2)
0x0f0|                                    00         |            .   |                tag: "funcidx" (0x0) 0xfc-0xfd (1)
0x0f0|                                       07      |             .  |                x: 7 (valid) 0xfd-0xfe (1)
     |                                               |                |            [8]{}: ex 0xfe-0x110 (18)
     |                                               |                |              nm{}: 0xfe-0x10e (16)
0x0f0|                                          0f   |              . |                n: 15 (valid) 0xfe-0xff (1)
0x0f0|                                             69|               i|                b: "i64.trunc_f32_u" 0xff-0x10e (15)
0x100|36 34 2e 74 72 75 6e 63 5f 66 33 32 5f 75      |64.trunc_f32_u  |
     |                                               |                |              d{}: 0x10e-0x110 (2)
0x100|                                          00   |              . |                tag: "funcidx" (0x0) 0x10e-0x10f (1)
0x100|                                             08|               .|                x: 8 (valid) 0x10f-0x110 (1)
     |                                               |                |            [9]{}: ex 0x110-0x122 (18)
     |                                               |                |              nm{}: 0x110-0x120 (16)
0x110|0f                                             |.               |                n: 15 (valid) 0x110-0x111 (1)
0x110|   69 36 34 2e 74 72 75 6e 63 5f 66 36 34 5f 73| i64.trunc_f64_s|                b: "i64.trunc_f64_s" 0x111-0x120 (15)
     |                                               |                |              d{}: 0x120-0x122 (2)
0x120|00                                             |.               |                tag: "funcidx" (0x0) 0x120-0x121 (1)
0x120|   09                                          | .              |                x: 9 (valid) 0x121-0x122 (1)
     |                                               |                |            [10]{}: ex 0x122-0x134 (18)
     |                                               |                |              nm{}: 0x122-0x132 (16)
0x120|      0f                                       |  .             |                n: 15 (valid) 0x122-0x123 (1)
0x120|         69 36 34 2e 74 72 75 6e 63 5f 66 36 34|   i64.trunc_f64|                b: "i64.trunc_f64_u" 0x123-0x132 (15)
0x130|5f 75                                          |_u              |
     |                                               |                |              d{}: 0x132-0x134 (2)
0x130|      00                                       |  .             |                tag: "funcidx" (0x0) 0x132-0x133 (1)
0x130|         0a                                    |   .            |                x: 10 (valid) 0x133-0x134 (1)
     |                                               |                |            [11]{}: ex 0x134-0x14a (22)
     |                                               |                |              nm{}: 0x134-0x148 (20)
0x130|            13                                 |    .           |                n: 19 (valid) 0x134-0x135 (1)
0x130|               69 33 32 2e 74 72 75 6e 63 5f 73|     i32.trunc_s|                b: "i32.trunc_sat_f32_s" 0x135-0x148 (19)
0x140|61 74 5f 66 33 32 5f 73                        |at_f32_s        |
     |                                               |                |              d{}: 0x148-0x14a (2)
0x140|                        00                     |        .       |                tag: "funcidx" (0x0) 0x148-0x149 (1)
0x140|                           0b                  |         .      |                x: 11 (valid) 0x149-0x14a (1)
     |                                               |                |            [12]{}: ex 0x14a-0x160 (22)
     |                                               |                |              nm{}: 0x14a-0x15e (20)
0x140|                              13               |          .     |                n: 19 (valid) 0x14a-0x14b (1)
0x140|                                 69 33 32 2e 74|           i32.t|                b: "i32.trunc_sat_f32_u" 0x14b-0x15e (19)
0x150|72 75 6e 63 5f 73 61 74 5f 66 33 32 5f 75      |runc_sat_f32_u  |
     |                                               |                |              d{}: 0x15e-0x160 (2)
0x150|                                          00   |              . |                tag: "funcidx" (0x0) 0x15e-0x15f (1)
0x150|                                             0c|               .|                x: 12 (valid) 0x15f-0x160 (1)
     |                                               |                |            [13]{}: ex 0x160-0x176 (22)
     |                                               |                |              nm{}: 0x160-0x174 (20)
0x160|13                                             |.               |                n: 19 (valid) 0x160-0x161 (1)
0x160|   69 33 32 2e 74 72 75 6e 63 5f 73 61 74 5f 66| i32.trunc_sat_f|                b: "i32.trunc_sat_f64_s" 0x161-0x174 (19)
0x170|36 34 5f 73                                    |64_s            |
     |                                               |                |              d{}: 0x174-0x176 (2)
0x170|            00                                 |    .           |                tag: "funcidx" (0x0) 0x174-0x175 (1)
0x170|               0d                              |     .          |                x: 13 (valid) 0x175-0x176 (1)
     |                                               |                |            [14]{}: ex 0x176-0x18c (22)
     |                                               |                |              nm{}: 0x176-0x18a (20)
0x170|                  13                           |      .         |                n: 19 (valid) 0x176-0x177 (1)
0x170|                     69 33 32 2e 74 72 75 6e 63|       i32.trunc|                b: "i32.trunc_sat_f64_u" 0x177-0x18a (19)
0x180|5f 73 61 74 5f 66 36 34 5f 75                  |_sat_f64_u      |
     |                                               |                |              d{}: 0x18a-0x18c (2)
0x180|                              00               |          .     |                tag: "funcidx" (0x0) 0x18a-0x18b (1)
0x180|                                 0e            |           .    |                x: 14 (valid) 0x18b-0x18c (1)
     |                                               |                |            [15]{}: ex 0x18c-0x1a2 (22)
     |                                               |                |              nm{}: 0x18c-0x1a0 (20)
0x180|                                    13         |            .   |                n: 19 (valid) 0x18c-0x18d (1)
0x180|                                       69 36 34|             i64|                b: "i64.trunc_sat_f32_s" 0x18d-0x1a0 (19)
0x190|2e 74 72 75 6e 63 5f 73 61 74 5f 66 33 32 5f 73|.trunc_sat_f32_s|
     |                                               |                |              d{}: 0x1a0-0x1a2 (2)
0x1a0|00                                             |.               |                tag: "funcidx" (0x0) 0x1a0-0x1a1 (1)
0x1a0|   0f                                          | .              |                x: 15 (valid) 0x1a1-0x1a2 (1)
     |                                               |                |            [16]{}: ex 0x1a2-0x1b8 (22)
     |                                               |                |              nm{}: 0x1a2-0x1b6 (20)
0x1a0|      13                                       |  .             |                n: 19 (valid) 0x1a2-0x1a3 (1)
0x1a0|         69 36 34 2e 74 72 75 6e 63 5f 73 61 74|   i64.trunc_sat|                b: "i64.trunc_sat_f32_u" 0x1a3-0x1b6 (19)
0x1b0|5f 66 33 32 5f 75                              |_f32_u          |
     |                                               |                |              d{}: 0x1b6-0x1b8 (2)
0x1b0|                  00                           |      .         |                tag: "funcidx" (0x0) 0x1b6-0x1b7 (1)
0x1b0|                     10                        |       .        |                x: 16 (valid) 0x1b7-0x1b8 (1)
     |                                               |                |            [17]{}: ex 0x1b8-0x1ce (22)
     |                                               |                |              nm{}: 0x1b8-0x1cc (20)
0x1b0|                        13                     |        .       |                n: 19 (valid) 0x1b8-0x1b9 (1)
0x1b0|                           69 36 34 2e 74 72 75|         i64.tru|                b: "i64.trunc_sat_f64_s" 0x1b9-0x1cc (19)
0x1c0|6e 63 5f 73 61 74 5f 66 36 34 5f 73            |nc_sat_f64_s    |
     |                                               |                |              d{}: 0x1cc-0x1ce (2)
0x1c0|                                    00         |            .   |                tag: "funcidx" (0x0) 0x1cc-0x1cd (1)
0x1c0|                                       11      |             .  |                x: 17 (valid) 0x1cd-0x1ce (1)
     |                                               |                |            [18]{}: ex 0x1ce-0x1e4 (22)
     |                                               |                |              nm{}: 0x1ce-0x1e2 (20)
0x1c0|                                          13   |              . |                n: 19 (valid) 0x1ce-0x1cf (1)
0x1c0|                                             69|               i|                b: "i64.trunc_sat_f64_u" 0x1cf-0x1e2 (19)
0x1d0|36 34 2e 74 72 75 6e 63 5f 73 61 74 5f 66 36 34|64.trunc_sat_f64|
0x1e0|5f 75                                          |_u              |
     |                                               |                |              d{}: 0x1e2-0x1e4 (2)
0x1e0|      00                                       |  .             |                tag: "funcidx" (0x0) 0x1e2-0x1e3 (1)
0x1e0|         12                                    |   .            |                x: 18 (valid) 0x1e3-0x1e4 (1)
     |                                               |                |            [19]{}: ex 0x1e4-0x1f8 (20)
     |                                               |                |              nm{}: 0x1e4-0x1f6 (18)
0x1e0|            11                                 |    .           |                n: 17 (valid) 0x1e4-0x1e5 (1)
0x1e0|               66 33 32 2e 63 6f 6e 76 65 72 74|     f32.convert|                b: "f32.convert_i32_s" 0x1e5-0x1f6 (17)
0x1f0|5f 69 33 32 5f 73                              |_i32_s          |
     |                                               |                |              d{}: 0x1f6-0x1f8 (2)
0x1f0|                  00                           |      .         |                tag: "funcidx" (0x0) 0x1f6-0x1f7 (1)
0x1f0|                     13                        |       .        |                x: 19 (valid) 0x1f7-0x1f8 (1)
     |                                               |                |            [20]{}: ex 0x1f8-0x20c (20)
     |                                               |                |              nm{}: 0x1f8-0x20a (18)
0x1f0|                        11                     |        .       |                n: 17 (valid) 0x1f8-0x1f9 (1)
0x1f0|                           66 33 32 2e 63 6f 6e|         f32.con|                b: "f32.convert_i64_s" 0x1f9-0x20a (17)
0x200|76 65 72 74 5f 69 36 34 5f 73                  |vert_i64_s      |
     |                                               |                |              d{}: 0x20a-0x20c (2)
0x200|                              00               |          .     |                tag: "funcidx" (0x0) 0x20a-0x20b (1)
0x200|                                 14            |           .    |                x: 20 (valid) 0x20b-0x20c (1)
     |                                               |                |            [21]{}: ex 0x20c-0x220 (20)
     |                                               |                |              nm{}: 0x20c-0x21e (18)
0x200|                                    11         |            .   |                n: 17 (valid) 0x20c-0x20d (1)
0x200|                                       66 36 34|             f64|                b: "f64.convert_i32_s" 0x20d-0x21e (17)
0x210|2e 63 6f 6e 76 65 72 74 5f 69 33 32 5f 73      |.convert_i32_s  |
     |                                               |                |              d{}: 0x21e-0x220 (2)
0x210|                                          00   |              . |                tag: "funcidx" (0x0) 0x21e-0x21f (1)
0x210|                                             15|               .|                x: 21 (valid) 0x21f-0x220 (1)
     |                                               |                |            [22]{}: ex 0x220-0x234 (20)
     |                                               |                |              nm{}: 0x220-0x232 (18)
0x220|11                                             |.               |                n: 17 (valid) 0x220-0x221 (1)
0x220|   66 36 34 2e 63 6f 6e 76 65 72 74 5f 69 36 34| f64.convert_i64|                b: "f64.convert_i64_s" 0x221-0x232 (17)
0x230|5f 73                                          |_s              |
     |                                               |                |              d{}: 0x232-0x234 (2)
0x230|      00                                       |  .             |                tag: "funcidx" (0x0) 0x232-0x233 (1)
0x230|         16                                    |   .            |                x: 22 (valid) 0x233-0x234 (1)
     |                                               |                |            [23]{}: ex 0x234-0x248 (20)
     |                                               |                |              nm{}: 0x234-0x246 (18)
0x230|            11                                 |    .           |                n: 17 (valid) 0x234-0x235 (1)
0x230|               66 33 32 2e 63 6f 6e 76 65 72 74|     f32.convert|                b: "f32.convert_i32_u" 0x235-0x246 (17)
0x240|5f 69 33 32 5f 75                              |_i32_u          |
     |                                               |                |              d{}: 0x246-0x248 (2)
0x240|                  00                           |      .         |                tag: "funcidx" (0x0) 0x246-0x247 (1)
0x240|                     17                        |       .        |                x: 23 (valid) 0x247-0x248 (1)
     |                                               |                |            [24]{}: ex 0x248-0x25c (20)
     |                                               |                |              nm{}: 0x248-0x25a (18)
0x240|                        11                     |        .       |                n: 17 (valid) 0x248-0x249 (1)
0x240|                           66 33 32 2e 63 6f 6e|         f32.con|                b: "f32.convert_i64_u" 0x249-0x25a (17)
0x250|76 65 72 74 5f 69 36 34 5f 75                  |vert_i64_u      |
     |                                               |                |              d{}: 0x25a-0x25c (2)
0x250|                              00               |          .     |                tag: "funcidx" (0x0) 0x25a-0x25b (1)
0x250|                                 18            |           .    |                x: 24 (valid) 0x25b-0x25c (1)
     |                                               |                |            [25]{}: ex 0x25c-0x270 (20)
     |                                               |                |              nm{}: 0x25c-0x26e (18)
0x250|                                    11         |            .   |                n: 17 (valid) 0x25c-0x25d (1)
0x250|                                       66 36 34|             f64|                b: "f64.convert_i32_u" 0x25d-0x26e (17)
0x260|2e 63 6f 6e 76 65 72 74 5f 69 33 32 5f 75      |.convert_i32_u  |
     |                                               |                |              d{}: 0x26e-0x270 (2)
0x260|                                          00   |              . |                tag: "funcidx" (0x0) 0x26e-0x26f (1)
0x260|                                             19|               .|                x: 25 (valid) 0x26f-0x270 (1)
     |                                               |                |            [26]{}: ex 0x270-0x284 (20)
     |                                               |                |              nm{}: 0x270-0x282 (18)
0x270|11                                             |.               |                n: 17 (valid) 0x270-0x271 (1)
0x270|   66 36 34 2e 63 6f 6e 76 65 72 74 5f 69 36 34| f64.convert_i64|                b: "f64.convert_i64_u" 0x271-0x282 (17)
0x280|5f 75                                          |_u              |
     |                                               |                |              d{}: 0x282-0x284 (2)
0x280|      00                                       |  .             |                tag: "funcidx" (0x0) 0x282-0x283 (1)
0x280|         1a                                    |   .            |                x: 26 (valid) 0x283-0x284 (1)
     |                                               |                |            [27]{}: ex 0x284-0x296 (18)
     |                                               |                |              nm{}: 0x284-0x294 (16)
0x280|            0f                                 |    .           |                n: 15 (valid) 0x284-0x285 (1)
0x280|               66 36 34 2e 70 72 6f 6d 6f 74 65|     f64.promote|                b: "f64.promote_f32" 0x285-0x294 (15)
0x290|5f 66 33 32                                    |_f32            |
     |                                               |                |              d{}: 0x294-0x296 (2)
0x290|            00                                 |    .           |                tag: "funcidx" (0x0) 0x294-0x295 (1)
0x290|               1b                              |     .          |                x: 27 (valid) 0x295-0x296 (1)
     |                                               |                |            [28]{}: ex 0x296-0x2a7 (17)
     |                                               |                |              nm{}: 0x296-0x2a5 (15)
0x290|                  0e                           |      .         |                n: 14 (valid) 0x296-0x297 (1)
0x290|                     66 33 32 2e 64 65 6d 6f 74|       f32.demot|                b: "f32.demote_f64" 0x297-0x2a5 (14)
0x2a0|65 5f 66 36 34                                 |e_f64           |
     |                                               |                |              d{}: 0x2a5-0x2a7 (2)
0x2a0|               00                              |     .          |                tag: "funcidx" (0x0) 0x2a5-0x2a6 (1)
0x2a0|                  1c                           |      .         |                x: 28 (valid) 0x2a6-0x2a7 (1)
     |                                               |                |            [29]{}: ex 0x2a7-0x2bd (22)
     |                                               |                |              nm{}: 0x2a7-0x2bb (20)
0x2a0|                     13                        |       .        |                n: 19 (valid) 0x2a7-0x2a8 (1)
0x2a0|                        66 33 32 2e 72 65 69 6e|        f32.rein|                b: "f32.reinterpret_i32" 0x2a8-0x2bb (19)
0x2b0|74 65 72 70 72 65 74 5f 69 33 32               |terpret_i32     |
     |                                               |                |              d{}: 0x2bb-0x2bd (2)
0x2b0|                                 00            |           .    |                tag: "funcidx" (0x0) 0x2bb-0x2bc (1)
0x2b0|                                    1d         |            .   |                x: 29 (valid) 0x2bc-0x2bd (1)
     |                                               |                |            [30]{}: ex 0x2bd-0x2d3 (22)
     |                                               |                |              nm{}: 0x2bd-0x2d1 (20)
0x2b0|                                       13      |             .  |                n: 19 (valid) 0x2bd-0x2be (1)
0x2b0|                                          66 36|              f6|                b: "f64.reinterpret_i64" 0x2be-0x2d1 (19)
0x2c0|34 2e 72 65 69 6e 74 65 72 70 72 65 74 5f 69 36|4.reinterpret_i6|
0x2d0|34                                             |4               |
     |                                               |                |              d{}: 0x2d1-0x2d3 (2)
0x2d0|   00                                          | .              |                tag: "funcidx" (0x0) 0x2d1-0x2d2 (1)
0x2d0|      1e                                       |  .             |                x: 30 (valid) 0x2d2-0x2d3 (1)
     |                                               |                |            [31]{}: ex 0x2d3-0x2e9 (22)
     |                                               |                |              nm{}: 0x2d3-0x2e7 (20)
0x2d0|         13                                    |   .            |                n: 19 (valid) 0x2d3-0x2d4 (1)
0x2d0|            69 33 32 2e 72 65 69 6e 74 65 72 70|    i32.reinterp|                b: "i32.reinterpret_f32" 0x2d4-0x2e7 (19)
0x2e0|72 65 74 5f 66 33 32                           |ret_f32         |
     |                                               |                |              d{}: 0x2e7-0x2e9 (2)
0x2e0|                     00                        |       .        |                tag: "funcidx" (0x0) 0x2e7-0x2e8 (1)
0x2e0|                        1f                     |        .       |                x: 31 (valid) 0x2e8-0x2e9 (1)
     |                                               |                |            [32]{}: ex 0x2e9-0x2ff (22)
     |                                               |                |              nm{}: 0x2e9-0x2fd (20)
0x2e0|                           13                  |         .      |                n: 19 (valid) 0x2e9-0x2ea (1)
0x2e0|                              69 36 34 2e 72 65|          i64.re|                b: "i64.reinterpret_f64" 0x2ea-0x2fd (19)
0x2f0|69 6e 74 65 72 70 72 65 74 5f 66 36 34         |interpret_f64   |
     |                                               |                |              d{}: 0x2fd-0x2ff (2)
0x2f0|                                       00      |             .  |                tag: "funcidx" (0x0) 0x2fd-0x2fe (1)
0x2f0|                                          20   |                |                x: 32 (valid) 0x2fe-0x2ff (1)
     |                                               |                |    [3]{}: section 0x2ff-0x3d1 (210)
0x2f0|                                             0a|               .|      id: "code_section" (10) 0x2ff-0x300 (1)
0x300|cf 01                                          |..              |      size: 207 (valid) 0x300-0x302 (2)
     |                                               |                |      content{}: 0x302-0x3d1 (207)
     |                                               |                |        code{}: 0x302-0x3d1 (207)
0x300|      21                                       |  !             |          n: 33 (valid) 0x302-0x303 (1)
     |                                               |                |          x[0:33]: 0x303-0x3d1 (206)
     |                                               |                |            [0]{}: code 0x303-0x309 (6)
0x300|         05                                    |   .            |              size: 5 (valid) 0x303-0x304 (1)
     |                                               |                |              code{}: 0x304-0x309 (5)
     |                                               |                |                t{}: 0x304-0x305 (1)
0x300|            00                                 |    .           |                  n: 0 (valid) 0x304-0x305 (1)
     |                                               |                |                  x[0:0]: 0x305-0x305 (0)
     |                                               |                |                e[0:3]: 0x305-0x309 (4)
     |                                               |                |                  [0]{}: in 0x305-0x307 (2)
0x300|               20                              |                |                    opcode: "local.get" (0x20) 0x305-0x306 (1)
0x300|                  00                           |      .         |                    x: 0 (valid) 0x306-0x307 (1)
     |                                               |                |                  [1]{}: in 0x307-0x308 (1)
0x300|                     ac                        |       .        |                    opcode: "i64.extend_i32_s" (0xac) 0x307-0x308 (1)
     |                                               |                |                  [2]{}: in 0x308-0x309 (1)
0x300|                        0b                     |        .       |                    opcode: "end" (0xb) 0x308-0x309 (1)
     |                                               |                |            [1]{}: code 0x309-0x30f (6)
0x300|                           05                  |         .      |              size: 5 (valid) 0x309-0x30a (1)
     |                                               |                |              code{}: 0x30a-0x30f (5)
     |                                               |                |                t{}: 0x30a-0x30b (1)
0x300|                              00               |          .     |                  n: 0 (valid) 0x30a-0x30b (1)
     |                                               |                |                  x[0:0]: 0x30b-0x30b (0)
     |                                               |                |                e[0:3]: 0x30b-0x30f (4)
     |                                               |                |                  [0]{}: in 0x30b-0x30d (2)
0x300|                                 20            |                |                    opcode: "local.get" (0x20) 0x30b-0x30c (1)
0x300|                                    00         |            .   |                    x: 0 (valid) 0x30c-0x30d (1)
     |                                               |                |                  [1]{}: in 0x30d-0x30e (1)
0x300|                                       ad      |             .  |                    opcode: "i64.extend_i32_u" (0xad) 0x30d-0x30e (1)
     |                                               |                |                  [2]{}: in 0x30e-0x30f (1)
0x300|                                          0b   |              . |                    opcode: "end" (0xb) 0x30e-0x30f (1)
     |                                               |                |            [2]{}: code 0x30f-0x315 (6)
0x300|                                             05|               .|              size: 5 (valid) 0x30f-0x310 (1)
     |                                               |                |              code{}: 0x310-0x315 (5)
     |                                               |                |                t{}: 0x310-0x311 (1)
0x310|00                                             |.               |                  n: 0 (valid) 0x310-0x311 (1)
     |                                               |                |                  x[0:0]: 0x311-0x311 (0)
     |                                               |                |                e[0:3]: 0x311-0x315 (4)
     |                                               |                |                  [0]{}: in 0x311-0x313 (2)
0x310|   20                                          |                |                    opcode: "local.get" (0x20) 0x311-0x312 (1)
0x310|      00                                       |  .             |                    x: 0 (valid) 0x312-0x313 (1)
     |                                               |                |                  [1]{}: in 0x313-0x314 (1)
0x310|         a7                                    |   .            |                    opcode: "i32.wrap_i64" (0xa7) 0x313-0x314 (1)
     |                                               |                |                  [2]{}: in 0x314-0x315 (1)
0x310|            0b                                 |    .           |                    opcode: "end" (0xb) 0x314-0x315 (1)
     |                                               |                |            [3]{}: code 0x315-0x31b (6)
0x310|               05                              |     .          |              size: 5 (valid) 0x315-0x316 (1)
     |                                               |                |              code{}: 0x316-0x31b (5)
     |                                               |                |                t{}: 0x316-0x317 (1)
0x310|                  00                           |      .         |                  n: 0 (valid) 0x316-0x317 (1)
     |                                               |                |                  x[0:0]: 0x317-0x317 (0)
     |                                               |                |                e[0:3]: 0x317-0x31b (4)
     |                                               |                |                  [0]{}: in 0x317-0x319 (2)
0x310|                     20                        |                |                    opcode: "local.get" (0x20) 0x317-0x318 (1)
0x310|                        00                     |        .       |                    x: 0 (valid) 0x318-0x319 (1)
     |                                               |                |                  [1]{}: in 0x319-0x31a (1)
0x310|                           a8                  |         .      |                    opcode: "i32.trunc_f32_s" (0xa8) 0x319-0x31a (1)
     |                                               |                |                  [2]{}: in 0x31a-0x31b (1)
0x310|                              0b               |          .     |                    opcode: "end" (0xb) 0x31a-0x31b (1)
     |                                               |                |            [4]{}: code 0x31b-0x321 (6)
0x310|                                 05            |           .    |              size: 5 (valid) 0x31b-0x31c (1)
     |                                               |                |              code{}: 0x31c-0x321 (5)
     |                                               |                |                t{}: 0x31c-0x31d (1)
0x310|                                    00         |            .   |                  n: 0 (valid) 0x31c-0x31d (1)
     |                                               |                |                  x[0:0]: 0x31d-0x31d (0)
     |                                               |                |                e[0:3]: 0x31d-0x321 (4)
     |                                               |                |                  [0]{}: in 0x31d-0x31f (2)
0x310|                                       20      |                |                    opcode: "local.get" (0x20) 0x31d-0x31e (1)
0x310|                                          00   |              . |                    x: 0 (valid) 0x31e-0x31f (1)
     |                                               |                |                  [1]{}: in 0x31f-0x320 (1)
0x310|                                             a9|               .|                    opcode: "i32.trunc_f32_u" (0xa9) 0x31f-0x320 (1)
     |                                               |                |                  [2]{}: in 0x320-0x321 (1)
0x320|0b                                             |.               |                    opcode: "end" (0xb) 0x320-0x321 (1)
     |                                               |                |            [5]{}: code 0x321-0x327 (6)
0x320|   05                                          | .              |              size: 5 (valid) 0x321-0x322 (1)
     |                                               |                |              code{}: 0x322-0x327 (5)
     |                                               |                |                t{}: 0x322-0x323 (1)
0x320|      00                                       |  .             |                  n: 0 (valid) 0x322-0x323 (1)
     |                                               |                |                  x[0:0]: 0x323-0x323 (0)
     |                                               |                |                e[0:3]: 0x323-0x327 (4)
     |                                               |                |                  [0]{}: in 0x323-0x325 (2)
0x320|         20                                    |                |                    opcode: "local.get" (0x20) 0x323-0x324 (1)
0x320|            00                                 |    .           |                    x: 0 (valid) 0x324-0x325 (1)
     |                                               |                |                  [1]{}: in 0x325-0x326 (1)
0x320|               aa                              |     .          |                    opcode: "i32.trunc_f64_s" (0xaa) 0x325-0x326 (1)
     |                                               |                |                  [2]{}: in 0x326-0x327 (1)
0x320|                  0b                           |      .         |                    opcode: "end" (0xb) 0x326-0x327 (1)
     |                                               |                |            [6]{}: code 0x327-0x32d (6)
0x320|                     05                        |       .        |              size: 5 (valid) 0x327-0x328 (1)
     |                                               |                |              code{}: 0x328-0x32d (5)
     |                                               |                |                t{}: 0x328-0x329 (1)
0x320|                        00                     |        .       |                  n: 0 (valid) 0x328-0x329 (1)
     |                                               |                |                  x[0:0]: 0x329-0x329 (0)
     |                                               |                |                e[0:3]: 0x329-0x32d (4)
     |                                               |                |                  [0]{}: in 0x329-0x32b (2)
0x320|                           20                  |                |                    opcode: "local.get" (0x20) 0x329-0x32a (1)
0x320|                              00               |          .     |                    x: 0 (valid) 0x32a-0x32b (1)
     |                                               |                |                  [1]{}: in 0x32b-0x32c (1)
0x320|                                 ab            |           .    |                    opcode: "i32.trunc_f64_u" (0xab) 0x32b-0x32c (1)
     |                                               |                |                  [2]{}: in 0x32c-0x32d (1)
0x320|                                    0b         |            .   |                    opcode: "end" (0xb) 0x32c-0x32d (1)
     |                                               |                |            [7]{}: code 0x32d-0x333 (6)
0x320|                                       05      |             .  |              size: 5 (valid) 0x32d-0x32e (1)
     |                                               |                |              code{}: 0x32e-0x333 (5)
     |                                               |                |                t{}: 0x32e-0x32f (1)
0x320|                                          00   |              . |                  n: 0 (valid) 0x32e-0x32f (1)
     |                                               |                |                  x[0:0]: 0x32f-0x32f (0)
     |                                               |                |                e[0:3]: 0x32f-0x333 (4)
     |                                               |                |                  [0]{}: in 0x32f-0x331 (2)
0x320|                                             20|                |                    opcode: "local.get" (0x20) 0x32f-0x330 (1)
0x330|00                                             |.               |                    x: 0 (valid) 0x330-0x331 (1)
     |                                               |                |                  [1]{}: in 0x331-0x332 (1)
0x330|   ae                                          | .              |                    opcode: "i64.trunc_f32_s" (0xae) 0x331-0x332 (1)
     |                                               |                |                  [2]{}: in 0x332-0x333 (1)
0x330|      0b                                       |  .             |                    opcode: "end" (0xb) 0x332-0x333 (1)
     |                                               |                |            [8]{}: code 0x333-0x339 (6)
0x330|         05                                    |   .            |              size: 5 (valid) 0x333-0x334 (1)
     |                                               |                |              code{}: 0x334-0x339 (5)
     |                                               |                |                t{}: 0x334-0x335 (1)
0x330|            00                                 |    .           |                  n: 0 (valid) 0x334-0x335 (1)
     |                                               |                |                  x[0:0]: 0x335-0x335 (0)
     |                                               |                |                e[0:3]: 0x335-0x339 (4)
     |                                               |                |                  [0]{}: in 0x335-0x337 (2)
0x330|               20                              |                |                    opcode: "local.get" (0x20) 0x335-0x336 (1)
0x330|                  00                           |      .         |                    x: 0 (valid) 0x336-0x337 (1)
     |                                               |                |                  [1]{}: in 0x337-0x338 (1)
0x330|                     af                        |       .        |                    opcode: "i64.trunc_f32_u" (0xaf) 0x337-0x338 (1)
     |                                               |                |                  [2]{}: in 0x338-0x339 (1)
0x330|                        0b                     |        .       |                    opcode: "end" (0xb) 0x338-0x339 (1)
     |                                               |                |            [9]{}: code 0x339-0x33f (6)
0x330|                           05                  |         .      |              size: 5 (valid) 0x339-0x33a (1)
     |                                               |                |              code{}: 0x33a-0x33f (5)
     |                                               |                |                t{}: 0x33a-0x33b (1)
0x330|                              00               |          .     |                  n: 0 (valid) 0x33a-0x33b (1)
     |                                               |                |                  x[0:0]: 0x33b-0x33b (0)
     |                                               |                |                e[0:3]: 0x33b-0x33f (4)
     |                                               |                |                  [0]{}: in 0x33b-0x33d (2)
0x330|                                 20            |                |                    opcode: "local.get" (0x20) 0x33b-0x33c (1)
0x330|                                    00         |            .   |                    x: 0 (valid) 0x33c-0x33d (1)
     |                                               |                |                  [1]{}: in 0x33d-0x33e (1)
0x330|                                       b0      |             .  |                    opcode: "i64.trunc_f64_s" (0xb0) 0x33d-0x33e (1)
     |                                               |                |                  [2]{}: in 0x33e-0x33f (1)
0x330|                                          0b   |              . |                    opcode: "end" (0xb) 0x33e-0x33f (1)
     |                                               |                |            [10]{}: code 0x33f-0x345 (6)
0x330|                                             05|               .|              size: 5 (valid) 0x33f-0x340 (1)
     |                                               |                |              code{}: 0x340-0x345 (5)
     |                                               |                |                t{}: 0x340-0x341 (1)
0x340|00                                             |.               |                  n: 0 (valid) 0x340-0x341 (1)
     |                                               |                |                  x[0:0]: 0x341-0x341 (0)
     |                                               |                |                e[0:3]: 0x341-0x345 (4)
     |                                               |                |                  [0]{}: in 0x341-0x343 (2)
0x340|   20                                          |                |                    opcode: "local.get" (0x20) 0x341-0x342 (1)
0x340|      00                                       |  .             |                    x: 0 (valid) 0x342-0x343 (1)
     |                                               |                |                  [1]{}: in 0x343-0x344 (1)
0x340|         b1                                    |   .            |                    opcode: "i64.trunc_f64_u" (0xb1) 0x343-0x344 (1)
     |                                               |                |                  [2]{}: in 0x344-0x345 (1)
0x340|            0b                                 |    .           |                    opcode: "end" (0xb) 0x344-0x345 (1)
     |                                               |                |            [11]{}: code 0x345-0x34c (7)
0x340|               06                              |     .          |              size: 6 (valid) 0x345-0x346 (1)
     |                                               |                |              code{}: 0x346-0x34c (6)
     |                                               |                |                t{}: 0x346-0x347 (1)
0x340|                  00                           |      .         |                  n: 0 (valid) 0x346-0x347 (1)
     |                                               |                |                  x[0:0]: 0x347-0x347 (0)
     |                                               |                |                e[0:3]: 0x347-0x34c (5)
     |                                               |                |                  [0]{}: in 0x347-0x349 (2)
0x340|                     20                        |                |                    opcode: "local.get" (0x20) 0x347-0x348 (1)
0x340|                        00                     |        .       |                    x: 0 (valid) 0x348-0x349 (1)
     |                                               |                |                  [1]{}: in 0x349-0x34b (2)
0x340|                           fc                  |         .      |                    opcode: "prefix" (0xfc) 0x349-0x34a (1)
0x340|                              00               |          .     |                    p_opcode: "i32.trunc_sat_f32_s" (0) 0x34a-0x34b (1)
     |                                               |                |                  [2]{}: in 0x34b-0x34c (1)
0x340|                                 0b            |           .    |                    opcode: "end" (0xb) 0x34b-0x34c (1)
     |                                               |                |            [12]{}: code 0x34c-0x353 (7)
0x340|                                    06         |            .   |              size: 6 (valid) 0x34c-0x34d (1)
     |                                               |                |              code{}: 0x34d-0x353 (6)
     |                                               |                |                t{}: 0x34d-0x34e (1)
0x340|                                       00      |             .  |                  n: 0 (valid) 0x34d-0x34e (1)
     |                                               |                |                  x[0:0]: 0x34e-0x34e (0)
     |                                               |                |                e[0:3]: 0x34e-0x353 (5)
     |                                               |                |                  [0]{}: in 0x34e-0x350 (2)
0x340|                                          20   |                |                    opcode: "local.get" (0x20) 0x34e-0x34f (1)
0x340|                                             00|               .|                    x: 0 (valid) 0x34f-0x350 (1)
     |                                               |                |                  [1]{}: in 0x350-0x352 (2)
0x350|fc                                             |.               |                    opcode: "prefix" (0xfc) 0x350-0x351 (1)
0x350|   01                                          | .              |                    p_opcode: "i32.trunc_sat_f32_u" (1) 0x351-0x352 (1)
     |                                               |                |                  [2]{}: in 0x352-0x353 (1)
0x350|      0b                                       |  .             |                    opcode: "end" (0xb) 0x352-0x353 (1)
     |                                               |                |            [13]{}: code 0x353-0x35a (7)
0x350|         06                                    |   .            |              size: 6 (valid) 0x353-0x354 (1)
     |                                               |                |              code{}: 0x354-0x35a (6)
     |                                               |                |                t{}: 0x354-0x355 (1)
0x350|            00                                 |    .           |                  n: 0 (valid) 0x354-0x355 (1)
     |                                               |                |                  x[0:0]: 0x355-0x355 (0)
     |                                               |                |                e[0:3]: 0x355-0x35a (5)
     |                                               |                |                  [0]{}: in 0x355-0x357 (2)
0x350|               20                              |                |                    opcode: "local.get" (0x20) 0x355-0x356 (1)
0x350|                  00                           |      .         |                    x: 0 (valid) 0x356-0x357 (1)
     |                                               |                |                  [1]{}: in 0x357-0x359 (2)
0x350|                     fc                        |       .        |                    opcode: "prefix" (0xfc) 0x357-0x358 (1)
0x350|                        02                     |        .       |                    p_opcode: "i32.trunc_sat_f64_s" (2) 0x358-0x359 (1)
     |                                               |                |                  [2]{}: in 0x359-0x35a (1)
0x350|                           0b                  |         .      |                    opcode: "end" (0xb) 0x359-0x35a (1)
     |                                               |                |            [14]{}: code 0x35a-0x361 (7)
0x350|                              06               |          .     |              size: 6 (valid) 0x35a-0x35b (1)
     |                                               |                |              code{}: 0x35b-0x361 (6)
     |                                               |                |                t{}: 0x35b-0x35c (1)
0x350|                                 00            |           .    |                  n: 0 (valid) 0x35b-0x35c (1)
     |                                               |                |                  x[0:0]: 0x35c-0x35c (0)
     |                                               |                |                e[0:3]: 0x35c-0x361 (5)
     |                                               |                |                  [0]{}: in 0x35c-0x35e (2)
0x350|                                    20         |                |                    opcode: "local.get" (0x20) 0x35c-0x35d (1)
0x350|                                       00      |             .  |                    x: 0 (valid) 0x35d-0x35e (1)
     |                                               |                |                  [1]{}: in 0x35e-0x360 (2)
0x350|                                          fc   |              . |                    opcode: "prefix" (0xfc) 0x35e-0x35f (1)
0x350|                                             03|               .|                    p_opcode: "i32.trunc_sat_f64_u" (3) 0x35f-0x360 (1)
     |                                               |                |                  [2]{}: in 0x360-0x361 (1)
0x360|0b                                             |.               |                    opcode: "end" (0xb) 0x360-0x361 (1)
     |                                               |                |            [15]{}: code 0x361-0x368 (7)
0x360|   06                                          | .              |              size: 6 (valid) 0x361-0x362 (1)
     |                                               |                |              code{}: 0x362-0x368 (6)
     |                                               |                |                t{}: 0x362-0x363 (1)
0x360|      00                                       |  .             |                  n: 0 (valid) 0x362-0x363 (1)
     |                                               |                |                  x[0:0]: 0x363-0x363 (0)
     |                                               |                |                e[0:3]: 0x363-0x368 (5)
     |                                               |                |                  [0]{}: in 0x363-0x365 (2)
0x360|         20                                    |                |                    opcode: "local.get" (0x20) 0x363-0x364 (1)
0x360|            00                                 |    .           |                    x: 0 (valid) 0x364-0x365 (1)
     |                                               |                |                  [1]{}: in 0x365-0x367 (2)
0x360|               fc                              |     .          |                    opcode: "prefix" (0xfc) 0x365-0x366 (1)
0x360|                  04                           |      .         |                    p_opcode: "i64.trunc_sat_f32_s" (4) 0x366-0x367 (1)
     |                                               |                |                  [2]{}: in 0x367-0x368 (1)
0x360|                     0b                        |       .        |                    opcode: "end" (0xb) 0x367-0x368 (1)
     |                                               |                |            [16]{}: code 0x368-0x36f (7)
0x360|                        06                     |        .       |              size: 6 (valid) 0x368-0x369 (1)
     |                                               |                |              code{}: 0x369-0x36f (6)
     |                                               |                |                t{}: 0x369-0x36a (1)
0x360|                           00                  |         .      |                  n: 0 (valid) 0x369-0x36a (1)
     |                                               |                |                  x[0:0]: 0x36a-0x36a (0)
     |                                               |                |                e[0:3]: 0x36a-0x36f (5)
     |                                               |                |                  [0]{}: in 0x36a-0x36c (2)
0x360|                              20               |                |                    opcode: "local.get" (0x20) 0x36a-0x36b (1)
0x360|                                 00            |           .    |                    x: 0 (valid) 0x36b-0x36c (1)
     |                                               |                |                  [1]{}: in 0x36c-0x36e (2)
0x360|                                    fc         |            .   |                    opcode: "prefix" (0xfc) 0x36c-0x36d (1)
0x360|                                       05      |             .  |                    p_opcode: "i64.trunc_sat_f32_u" (5) 0x36d-0x36e (1)
     |                                               |                |                  [2]{}: in 0x36e-0x36f (1)
0x360|                                          0b   |              . |                    opcode: "end" (0xb) 0x36e-0x36f (1)
     |                                               |                |            [17]{}: code 0x36f-0x376 (7)
0x360|                                             06|               .|              size: 6 (valid) 0x36f-0x370 (1)
     |                                               |                |              code{}: 0x370-0x376 (6)
     |                                               |                |                t{}: 0x370-0x371 (1)
0x370|00                                             |.               |                  n: 0 (valid) 0x370-0x371 (1)
     |                                               |                |                  x[0:0]: 0x371-0x371 (0)
     |                                               |                |                e[0:3]: 0x371-0x376 (5)
     |                                               |                |                  [0]{}: in 0x371-0x373 (2)
0x370|   20                                          |                |                    opcode: "local.get" (0x20) 0x371-0x372 (1)
0x370|      00                                       |  .             |                    x: 0 (valid) 0x372-0x373 (1)
     |                                               |                |                  [1]{}: in 0x373-0x375 (2)
0x370|         fc                                    |   .            |                    opcode: "prefix" (0xfc) 0x373-0x374 (1)
0x370|            06                                 |    .           |                    p_opcode: "i64.trunc_sat_f64_s" (6) 0x374-0x375 (1)
     |                                               |                |                  [2]{}: in 0x375-0x376 (1)
0x370|               0b                              |     .          |                    opcode: "end" (0xb) 0x375-0x376 (1)
     |                                               |                |            [18]{}: code 0x376-0x37d (7)
0x370|                  06                           |      .         |              size: 6 (valid) 0x376-0x377 (1)
     |                                               |                |              code{}: 0x377-0x37d (6)
     |                                               |                |                t{}: 0x377-0x378 (1)
0x370|                     00                        |       .        |                  n: 0 (valid) 0x377-0x378 (1)
     |                                               |                |                  x[0:0]: 0x378-0x378 (0)
     |                                               |                |                e[0:3]: 0x378-0x37d (5)
     |                                               |                |                  [0]{}: in 0x378-0x37a (2)
0x370|                        20                     |                |                    opcode: "local.get" (0x20) 0x378-0x379 (1)
0x370|                           00                  |         .      |                    x: 0 (valid) 0x379-0x37a (1)
     |                                               |                |                  [1]{}: in 0x37a-0x37c (2)
0x370|                              fc               |          .     |                    opcode: "prefix" (0xfc) 0x37a-0x37b (1)
0x370|                                 07            |           .    |                    p_opcode: "i64.trunc_sat_f64_u" (7) 0x37b-0x37c (1)
     |                                               |                |                  [2]{}: in 0x37c-0x37d (1)
0x370|                                    0b         |            .   |                    opcode: "end" (0xb) 0x37c-0x37d (1)
     |                                               |                |            [19]{}: code 0x37d-0x383 (6)
0x370|                                       05      |             .  |              size: 5 (valid) 0x37d-0x37e (1)
     |                                               |                |              code{}: 0x37e-0x383 (5)
     |                                               |                |                t{}: 0x37e-0x37f (1)
0x370|                                          00   |              . |                  n: 0 (valid) 0x37e-0x37f (1)
     |                                               |                |                  x[0:0]: 0x37f-0x37f (0)
     |                                               |                |                e[0:3]: 0x37f-0x383 (4)
     |                                               |                |                  [0]{}: in 0x37f-0x381 (2)
0x370|                                             20|                |                    opcode: "local.get" (0x20) 0x37f-0x380 (1)
0x380|00                                             |.               |                    x: 0 (valid) 0x380-0x381 (1)
     |                                               |                |                  [1]{}: in 0x381-0x382 (1)
0x380|   b2                                          | .              |                    opcode: "f32.convert_i32_s" (0xb2) 0x381-0x382 (1)
     |                                               |                |                  [2]{}: in 0x382-0x383 (1)
0x380|      0b                                       |  .             |                    opcode: "end" (0xb) 0x382-0x383 (1)
     |                                               |                |            [20]{}: code 0x383-0x389 (6)
0x380|         05                                    |   .            |              size: 5 (valid) 0x383-0x384 (1)
     |                                               |                |              code{}: 0x384-0x389 (5)
     |                                               |                |                t{}: 0x384-0x385 (1)
0x380|            00                                 |    .           |                  n: 0 (valid) 0x384-0x385 (1)
     |                                               |                |                  x[0:0]: 0x385-0x385 (0)
     |                                               |                |                e[0:3]: 0x385-0x389 (4)
     |                                               |                |                  [0]{}: in 0x385-0x387 (2)
0x380|               20                              |                |                    opcode: "local.get" (0x20) 0x385-0x386 (1)
0x380|                  00                           |      .         |                    x: 0 (valid) 0x386-0x387 (1)
     |                                               |                |                  [1]{}: in 0x387-0x388 (1)
0x380|                     b4                        |       .        |                    opcode: "f32.convert_i64_s" (0xb4) 0x387-0x388 (1)
     |                                               |                |                  [2]{}: in 0x388-0x389 (1)
0x380|                        0b                     |        .       |                    opcode: "end" (0xb) 0x388-0x389 (1)
     |                                               |                |            [21]{}: code 0x389-0x38f (6)
0x380|                           05                  |         .      |              size: 5 (valid) 0x389-0x38a (1)
     |                                               |                |              code{}: 0x38a-0x38f (5)
     |                                               |                |                t{}: 0x38a-0x38b (1)
0x380|                              00               |          .     |                  n: 0 (valid) 0x38a-0x38b (1)
     |                                               |                |                  x[0:0]: 0x38b-0x38b (0)
     |                                               |                |                e[0:3]: 0x38b-0x38f (4)
     |                                               |                |                  [0]{}: in 0x38b-0x38d (2)
0x380|                                 20            |                |                    opcode: "local.get" (0x20) 0x38b-0x38c (1)
0x380|                                    00         |            .   |                    x: 0 (valid) 0x38c-0x38d (1)
     |                                               |                |                  [1]{}: in 0x38d-0x38e (1)
0x380|                                       b7      |             .  |                    opcode: "f64.convert_i32_s" (0xb7) 0x38d-0x38e (1)
     |                                               |                |                  [2]{}: in 0x38e-0x38f (1)
0x380|                                          0b   |              . |                    opcode: "end" (0xb) 0x38e-0x38f (1)
     |                                               |                |            [22]{}: code 0x38f-0x395 (6)
0x380|                                             05|               .|              size: 5 (valid) 0x38f-0x390 (1)
     |                                               |                |              code{}: 0x390-0x395 (5)
     |                                               |                |                t{}: 0x390-0x391 (1)
0x390|00                                             |.               |                  n: 0 (valid) 0x390-0x391 (1)
     |                                               |                |                  x[0:0]: 0x391-0x391 (0)
     |                                               |                |                e[0:3]: 0x391-0x395 (4)
     |                                               |                |                  [0]{}: in 0x391-0x393 (2)
0x390|   20                                          |                |                    opcode: "local.get" (0x20) 0x391-0x392 (1)
0x390|      00                                       |  .             |                    x: 0 (valid) 0x392-0x393 (1)
     |                                               |                |                  [1]{}: in 0x393-0x394 (1)
0x390|         b9                                    |   .            |                    opcode: "f64.convert_i64_s" (0xb9) 0x393-0x394 (1)
     |                                               |                |                  [2]{}: in 0x394-0x395 (1)
0x390|            0b                                 |    .           |                    opcode: "end" (0xb) 0x394-0x395 (1)
     |                                               |                |            [23]{}: code 0x395-0x39b (6)
0x390|               05                              |     .          |              size: 5 (valid) 0x395-0x396 (1)
     |                                               |                |              code{}: 0x396-0x39b (5)
     |                                               |                |                t{}: 0x396-0x397 (1)
0x390|                  00                           |      .         |                  n: 0 (valid) 0x396-0x397 (1)
     |                                               |                |                  x[0:0]: 0x397-0x397 (0)
     |                                               |                |                e[0:3]: 0x397-0x39b (4)
     |                                               |                |                  [0]{}: in 0x397-0x399 (2)
0x390|                     20                        |                |                    opcode: "local.get" (0x20) 0x397-0x398 (1)
0x390|                        00                     |        .       |                    x: 0 (valid) 0x398-0x399 (1)
     |                                               |                |                  [1]{}: in 0x399-0x39a (1)
0x390|                           b3                  |         .      |                    opcode: "f32.convert_i32_u" (0xb3) 0x399-0x39a (1)
     |                                               |                |                  [2]{}: in 0x39a-0x39b (1)
0x390|                              0b               |          .     |                    opcode: "end" (0xb) 0x39a-0x39b (1)
     |                                               |                |            [24]{}: code 0x39b-0x3a1 (6)
0x390|                                 05            |           .    |              size: 5 (valid) 0x39b-0x39c (1)
     |                                               |                |              code{}: 0x39c-0x3a1 (5)
     |                                               |                |                t{}: 0x39c-0x39d (1)
0x390|                                    00         |            .   |                  n: 0 (valid) 0x39c-0x39d (1)
     |                                               |                |                  x[0:0]: 0x39d-0x39d (0)
     |                                               |                |                e[0:3]: 0x39d-0x3a1 (4)
     |                                               |                |                  [0]{}: in 0x39d-0x39f (2)
0x390|                                       20      |                |                    opcode: "local.get" (0x20) 0x39d-0x39e (1)
0x390|                                          00   |              . |                    x: 0 (valid) 0x39e-0x39f (1)
     |                                               |                |                  [1]{}: in 0x39f-0x3a0 (1)
0x390|                                             b5|               .|                    opcode: "f32.convert_i64_u" (0xb5) 0x39f-0x3a0 (1)
     |                                               |                |                  [2]{}: in 0x3a0-0x3a1 (1)
0x3a0|0b                                             |.               |                    opcode: "end" (0xb) 0x3a0-0x3a1 (1)
     |                                               |                |            [25]{}: code 0x3a1-0x3a7 (6)
0x3a0|   05                                          | .              |              size: 5 (valid) 0x3a1-0x3a2 (1)
     |                                               |                |              code{}: 0x3a2-0x3a7 (5)
     |                                               |                |                t{}: 0x3a2-0x3a3 (1)
0x3a0|      00                                       |  .             |                  n: 0 (valid) 0x3a2-0x3a3 (1)
     |                                               |                |                  x[0:0]: 0x3a3-0x3a3 (0)
     |                                               |                |                e[0:3]: 0x3a3-0x3a7 (4)
     |                                               |                |                  [0]{}: in 0x3a3-0x3a5 (2)
0x3a0|         20                                    |                |                    opcode: "local.get" (0x20) 0x3a3-0x3a4 (1)
0x3a0|            00                                 |    .           |                    x: 0 (valid) 0x3a4-0x3a5 (1)
     |                                               |                |                  [1]{}: in 0x3a5-0x3a6 (1)
0x3a0|               b8                              |     .          |                    opcode: "f64.convert_i32_u" (0xb8) 0x3a5-0x3a6 (1)
     |                                               |                |                  [2]{}: in 0x3a6-0x3a7 (1)
0x3a0|                  0b                           |      .         |                    opcode: "end" (0xb) 0x3a6-0x3a7 (1)
     |                                               |                |            [26]{}: code 0x3a7-0x3ad (6)
0x3a0|                     05                        |       .        |              size: 5 (valid) 0x3a7-0x3a8 (1)
     |                                               |                |              code{}: 0x3a8-0x3ad (5)
     |                                               |                |                t{}: 0x3a8-0x3a9 (1)
0x3a0|                        00                     |        .       |                  n: 0 (valid) 0x3a8-0x3a9 (1)
     |                                               |                |                  x[0:0]: 0x3a9-0x3a9 (0)
     |                                               |                |                e[0:3]: 0x3a9-0x3ad (4)
     |                                               |                |                  [0]{}: in 0x3a9-0x3ab (2)
0x3a0|                           20                  |                |                    opcode: "local.get" (0x20) 0x3a9-0x3aa (1)
0x3a0|                              00               |          .     |                    x: 0 (valid) 0x3aa-0x3ab (1)
     |                                               |                |                  [1]{}: in 0x3ab-0x3ac (1)
0x3a0|                                 ba            |           .    |                    opcode: "f64.convert_i64_u" (0xba) 0x3ab-0x3ac (1)
     |                                               |                |                  [2]{}: in 0x3ac-0x3ad (1)
0x3a0|                                    0b         |            .   |                    opcode: "end" (0xb) 0x3ac-0x3ad (1)
     |                                               |                |            [27]{}: code 0x3ad-0x3b3 (6)
0x3a0|                                       05      |             .  |              size: 5 (valid) 0x3ad-0x3ae (1)
     |                                               |                |              code{}: 0x3ae-0x3b3 (5)
     |                                               |                |                t{}: 0x3ae-0x3af (1)
0x3a0|                                          00   |              . |                  n: 0 (valid) 0x3ae-0x3af (1)
     |                                               |                |                  x[0:0]: 0x3af-0x3af (0)
     |                                               |                |                e[0:3]: 0x3af-0x3b3 (4)
     |                                               |                |                  [0]{}: in 0x3af-0x3b1 (2)
0x3a0|                                             20|                |                    opcode: "local.get" (0x20) 0x3af-0x3b0 (1)
0x3b0|00                                             |.               |                    x: 0 (valid) 0x3b0-0x3b1 (1)
     |                                               |                |                  [1]{}: in 0x3b1-0x3b2 (1)
0x3b0|   bb                                          | .              |                    opcode: "f64.promote_f32" (0xbb) 0x3b1-0x3b2 (1)
     |                                               |                |                  [2]{}: in 0x3b2-0x3b3 (1)
0x3b0|      0b                                       |  .             |                    opcode: "end" (0xb) 0x3b2-0x3b3 (1)
     |                                               |                |            [28]{}: code 0x3b3-0x3b9 (6)
0x3b0|         05                                    |   .            |              size: 5 (valid) 0x3b3-0x3b4 (1)
     |                                               |                |              code{}: 0x3b4-0x3b9 (5)
     |                                               |                |                t{}: 0x3b4-0x3b5 (1)
0x3b0|            00                                 |    .           |                  n: 0 (valid) 0x3b4-0x3b5 (1)
     |                                               |                |                  x[0:0]: 0x3b5-0x3b5 (0)
     |                                               |                |                e[0:3]: 0x3b5-0x3b9 (4)
     |                                               |                |                  [0]{}: in 0x3b5-0x3b7 (2)
0x3b0|               20                              |                |                    opcode: "local.get" (0x20) 0x3b5-0x3b6 (1)
0x3b0|                  00                           |      .         |                    x: 0 (valid) 0x3b6-0x3b7 (1)
     |                                               |                |                  [1]{}: in 0x3b7-0x3b8 (1)
0x3b0|                     b6                        |       .        |                    opcode: "f32.demote_f64" (0xb6) 0x3b7-0x3b8 (1)
     |                                               |                |                  [2]{}: in 0x3b8-0x3b9 (1)
0x3b0|                        0b                     |        .       |                    opcode: "end" (0xb) 0x3b8-0x3b9 (1)
     |                                               |                |            [29]{}: code 0x3b9-0x3bf (6)
0x3b0|                           05                  |         .      |              size: 5 (valid) 0x3b9-0x3ba (1)
     |                                               |                |              code{}: 0x3ba-0x3bf (5)
     |                                               |                |                t{}: 0x3ba-0x3bb (1)
0x3b0|                              00               |          .     |                  n: 0 (valid) 0x3ba-0x3bb (1)
     |                                               |                |                  x[0:0]: 0x3bb-0x3bb (0)
     |                                               |                |                e[0:3]: 0x3bb-0x3bf (4)
     |                                               |                |                  [0]{}: in 0x3bb-0x3bd (2)
0x3b0|                                 20            |                |                    opcode: "local.get" (0x20) 0x3bb-0x3bc (1)
0x3b0|                                    00         |            .   |                    x: 0 (valid) 0x3bc-0x3bd (1)
     |                                               |                |                  [1]{}: in 0x3bd-0x3be (1)
0x3b0|                                       be      |             .  |                    opcode: "f32.reinterpret_i32" (0xbe) 0x3bd-0x3be (1)
     |                                               |                |                  [2]{}: in 0x3be-0x3bf (1)
0x3b0|                                          0b   |              . |                    opcode: "end" (0xb) 0x3be-0x3bf (1)
     |                                               |                |            [30]{}: code 0x3bf-0x3c5 (6)
0x3b0|                                             05|               .|              size: 5 (valid) 0x3bf-0x3c0 (1)
     |                                               |                |              code{}: 0x3c0-0x3c5 (5)
     |                                               |                |                t{}: 0x3c0-0x3c1 (1)
0x3c0|00                                             |.               |                  n: 0 (valid) 0x3c0-0x3c1 (1)
     |                                               |                |                  x[0:0]: 0x3c1-0x3c1 (0)
     |                                               |                |                e[0:3]: 0x3c1-0x3c5 (4)
     |                                               |                |                  [0]{}: in 0x3c1-0x3c3 (2)
0x3c0|   20                                          |                |                    opcode: "local.get" (0x20) 0x3c1-0x3c2 (1)
0x3c0|      00                                       |  .             |                    x: 0 (valid) 0x3c2-0x3c3 (1)
     |                                               |                |                  [1]{}: in 0x3c3-0x3c4 (1)
0x3c0|         bf                                    |   .            |                    opcode: "f64.reinterpret_i64" (0xbf) 0x3c3-0x3c4 (1)
     |                                               |                |                  [2]{}: in 0x3c4-0x3c5 (1)
0x3c0|            0b                                 |    .           |                    opcode: "end" (0xb) 0x3c4-0x3c5 (1)
     |                                               |                |            [31]{}: code 0x3c5-0x3cb (6)
0x3c0|               05                              |     .          |              size: 5 (valid) 0x3c5-0x3c6 (1)
     |                                               |                |              code{}: 0x3c6-0x3cb (5)
     |                                               |                |                t{}: 0x3c6-0x3c7 (1)
0x3c0|                  00                           |      .         |                  n: 0 (valid) 0x3c6-0x3c7 (1)
     |                                               |                |                  x[0:0]: 0x3c7-0x3c7 (0)
     |                                               |                |                e[0:3]: 0x3c7-0x3cb (4)
     |                                               |                |                  [0]{}: in 0x3c7-0x3c9 (2)
0x3c0|                     20                        |                |                    opcode: "local.get" (0x20) 0x3c7-0x3c8 (1)
0x3c0|                        00                     |        .       |                    x: 0 (valid) 0x3c8-0x3c9 (1)
     |                                               |                |                  [1]{}: in 0x3c9-0x3ca (1)
0x3c0|                           bc                  |         .      |                    opcode: "i32.reinterpret_f32" (0xbc) 0x3c9-0x3ca (1)
     |                                               |                |                  [2]{}: in 0x3ca-0x3cb (1)
0x3c0|                              0b               |          .     |                    opcode: "end" (0xb) 0x3ca-0x3cb (1)
     |                                               |                |            [32]{}: code 0x3cb-0x3d1 (6)
0x3c0|                                 05            |           .    |              size: 5 (valid) 0x3cb-0x3cc (1)
     |                                               |                |              code{}: 0x3cc-0x3d1 (5)
     |                                               |                |                t{}: 0x3cc-0x3cd (1)
0x3c0|                                    00         |            .   |                  n: 0 (valid) 0x3cc-0x3cd (1)
     |                                               |                |                  x[0:0]: 0x3cd-0x3cd (0)
     |                                               |                |                e[0:3]: 0x3cd-0x3d1 (4)
     |                                               |                |                  [0]{}: in 0x3cd-0x3cf (2)
0x3c0|                                       20      |                |                    opcode: "local.get" (0x20) 0x3cd-0x3ce (1)
0x3c0|                                          00   |              . |                    x: 0 (valid) 0x3ce-0x3cf (1)
     |                                               |                |                  [1]{}: in 0x3cf-0x3d0 (1)
0x3c0|                                             bd|               .|                    opcode: "i64.reinterpret_f64" (0xbd) 0x3cf-0x3d0 (1)
     |                                               |                |                  [2]{}: in 0x3d0-0x3d1 (1)
0x3d0|0b|                                            |.|              |                    opcode: "end" (0xb) 0x3d0-0x3d1 (1)
