$ fq -d wasm dv custom-2.wasm
    |00 01 02 03 04 05 06 07 08 09 0a 0b 0c 0d 0e 0f|0123456789abcdef|.{}: custom-2.wasm (wasm) 0x0-0x2c (44)
0x00|00 61 73 6d                                    |.asm            |  magic: raw bits (valid) 0x0-0x4 (4)
0x00|            01 00 00 00                        |    ....        |  version: 1 0x4-0x8 (4)
    |                                               |                |  sections[0:4]: 0x8-0x2c (36)
    |                                               |                |    [0]{}: section 0x8-0x11 (9)
0x00|                        01                     |        .       |      id: "type_section" (1) 0x8-0x9 (1)
0x00|                           07                  |         .      |      size: 7 (valid) 0x9-0xa (1)
    |                                               |                |      content{}: 0xa-0x11 (7)
    |                                               |                |        ft{}: 0xa-0x11 (7)
0x00|                              01               |          .     |          n: 1 (valid) 0xa-0xb (1)
    |                                               |                |          x[0:1]: 0xb-0x11 (6)
    |                                               |                |            [0]{}: ft 0xb-0x11 (6)
0x00|                                 60            |           `    |              tag: 0x60 (valid) 0xb-0xc (1)
    |                                               |                |              rt1{}: 0xc-0xf (3)
0x00|                                    02         |            .   |                n: 2 (valid) 0xc-0xd (1)
    |                                               |                |                x[0:2]: 0xd-0xf (2)
0x00|                                       7f      |             .  |                  [0]: "i32" (0x7f) t 0xd-0xe (1)
0x00|                                          7f   |              . |                  [1]: "i32" (0x7f) t 0xe-0xf (1)
    |                                               |                |              rt2{}: 0xf-0x11 (2)
0x00|                                             01|               .|                n: 1 (valid) 0xf-0x10 (1)
    |                                               |                |                x[0:1]: 0x10-0x11 (1)
0x10|7f                                             |.               |                  [0]: "i32" (0x7f) t 0x10-0x11 (1)
    |                                               |                |    [1]{}: section 0x11-0x15 (4)
0x10|   03                                          | .              |      id: "function_section" (3) 0x11-0x12 (1)
0x10|      02                                       |  .             |      size: 2 (valid) 0x12-0x13 (1)
    |                                               |                |      content{}: 0x13-0x15 (2)
    |                                               |                |        x{}: 0x13-0x15 (2)
0x10|         01                                    |   .            |          n: 1 (valid) 0x13-0x14 (1)
    |                                               |                |          x[0:1]: 0x14-0x15 (1)
0x10|            00                                 |    .           |            [0]: 0 x (valid) 0x14-0x15 (1)
    |                                               |                |    [2]{}: section 0x15-0x21 (12)
0x10|               07                              |     .          |      id: "export_section" (7) 0x15-0x16 (1)
0x10|                  0a                           |      .         |      size: 10 (valid) 0x16-0x17 (1)
    |                                               |                |      content{}: 0x17-0x21 (10)
    |                                               |                |        ex{}: 0x17-0x21 (10)
0x10|                     01                        |       .        |          n: 1 (valid) 0x17-0x18 (1)
    |                                               |                |          x[0:1]: 0x18-0x21 (9)
    |                                               |                |            [0]{}: ex 0x18-0x21 (9)
    |                                               |                |              nm{}: 0x18-0x1f (7)
0x10|                        06                     |        .       |                n: 6 (valid) 0x18-0x19 (1)
0x10|                           61 64 64 54 77 6f   |         addTwo |                b: "addTwo" 0x19-0x1f (6)
    |                                               |                |              d{}: 0x1f-0x21 (2)
0x10|                                             00|               .|                tag: "funcidx" (0x0) 0x1f-0x20 (1)
0x20|00                                             |.               |                x: 0 (valid) 0x20-0x21 (1)
    |                                               |                |    [3]{}: section 0x21-0x2c (11)
0x20|   0a                                          | .              |      id: "code_section" (10) 0x21-0x22 (1)
0x20|      09                                       |  .             |      size: 9 (valid) 0x22-0x23 (1)
    |                                               |                |      content{}: 0x23-0x2c (9)
    |                                               |                |        code{}: 0x23-0x2c (9)
0x20|         01                                    |   .            |          n: 1 (valid) 0x23-0x24 (1)
    |                                               |                |          x[0:1]: 0x24-0x2c (8)
    |                                               |                |            [0]{}: code 0x24-0x2c (8)
0x20|            07                                 |    .           |              size: 7 (valid) 0x24-0x25 (1)
    |                                               |                |              code{}: 0x25-0x2c (7)
    |                                               |                |                t{}: 0x25-0x26 (1)
0x20|               00                              |     .          |                  n: 0 (valid) 0x25-0x26 (1)
    |                                               |                |                  x[0:0]: 0x26-0x26 (0)
    |                                               |                |                e[0:4]: 0x26-0x2c (6)
    |                                               |                |                  [0]{}: in 0x26-0x28 (2)
0x20|                  20                           |                |                    opcode: "local.get" (0x20) 0x26-0x27 (1)
0x20|                     00                        |       .        |                    x: 0 (valid) 0x27-0x28 (1)
    |                                               |                |                  [1]{}: in 0x28-0x2a (2)
0x20|                        20                     |                |                    opcode: "local.get" (0x20) 0x28-0x29 (1)
0x20|                           01                  |         .      |                    x: 1 (valid) 0x29-0x2a (1)
    |                                               |                |                  [2]{}: in 0x2a-0x2b (1)
0x20|                              6a               |          j     |                    opcode: "i32.add" (0x6a) 0x2a-0x2b (1)
    |                                               |                |                  [3]{}: in 0x2b-0x2c (1)
0x20|                                 0b|           |           .|   |                    opcode: "end" (0xb) 0x2b-0x2c (1)
