$ fq -d wasm dv data-3.wasm
    |00 01 02 03 04 05 06 07 08 09 0a 0b 0c 0d 0e 0f|0123456789abcdef|.{}: data-3.wasm (wasm) 0x0-0x30.7 (49)
0x00|00 61 73 6d                                    |.asm            |  magic: raw bits (valid) 0x0-0x3.7 (4)
0x00|            01 00 00 00                        |    ....        |  version: 1 0x4-0x7.7 (4)
    |                                               |                |  sections[0:2]: 0x8-0x30.7 (41)
    |                                               |                |    [0]{}: section 0x8-0xc.7 (5)
0x00|                        05                     |        .       |      id: "memory section" (5) 0x8-0x8.7 (1)
0x00|                           03                  |         .      |      size: 3 0x9-0x9.7 (1)
    |                                               |                |      content{}: 0xa-0xc.7 (3)
    |                                               |                |        mem{}: 0xa-0xc.7 (3)
0x00|                              01               |          .     |          n: 1 0xa-0xa.7 (1)
    |                                               |                |          x[0:1]: 0xb-0xc.7 (2)
    |                                               |                |            [0]{}: mem 0xb-0xc.7 (2)
    |                                               |                |              lim{}: 0xb-0xc.7 (2)
0x00|                                 00            |           .    |                tag: 0x0 0xb-0xb.7 (1)
0x00|                                    01         |            .   |                n: 1 0xc-0xc.7 (1)
    |                                               |                |    [1]{}: section 0xd-0x30.7 (36)
0x00|                                       0b      |             .  |      id: "data section" (11) 0xd-0xd.7 (1)
0x00|                                          22   |              " |      size: 34 0xe-0xe.7 (1)
    |                                               |                |      content{}: 0xf-0x30.7 (34)
    |                                               |                |        seg{}: 0xf-0x30.7 (34)
0x00|                                             05|               .|          n: 5 0xf-0xf.7 (1)
    |                                               |                |          x[0:5]: 0x10-0x30.7 (33)
    |                                               |                |            [0]{}: seg 0x10-0x15.7 (6)
0x10|00                                             |.               |              tag: 0 0x10-0x10.7 (1)
    |                                               |                |              e[0:2]: 0x11-0x13.7 (3)
    |                                               |                |                [0]{}: in 0x11-0x12.7 (2)
0x10|   41                                          | A              |                  i32.const: 0x41 (valid) 0x11-0x11.7 (1)
0x10|      00                                       |  .             |                  n: 0 0x12-0x12.7 (1)
    |                                               |                |                [1]{}: in 0x13-0x13.7 (1)
0x10|         0b                                    |   .            |                  end: 0xb (valid) 0x13-0x13.7 (1)
    |                                               |                |              b{}: 0x14-0x15.7 (2)
0x10|            01                                 |    .           |                n: 1 0x14-0x14.7 (1)
0x10|               61                              |     a          |                x: raw bits 0x15-0x15.7 (1)
    |                                               |                |            [1]{}: seg 0x16-0x1b.7 (6)
0x10|                  00                           |      .         |              tag: 0 0x16-0x16.7 (1)
    |                                               |                |              e[0:2]: 0x17-0x19.7 (3)
    |                                               |                |                [0]{}: in 0x17-0x18.7 (2)
0x10|                     41                        |       A        |                  i32.const: 0x41 (valid) 0x17-0x17.7 (1)
0x10|                        03                     |        .       |                  n: 3 0x18-0x18.7 (1)
    |                                               |                |                [1]{}: in 0x19-0x19.7 (1)
0x10|                           0b                  |         .      |                  end: 0xb (valid) 0x19-0x19.7 (1)
    |                                               |                |              b{}: 0x1a-0x1b.7 (2)
0x10|                              01               |          .     |                n: 1 0x1a-0x1a.7 (1)
0x10|                                 62            |           b    |                x: raw bits 0x1b-0x1b.7 (1)
    |                                               |                |            [2]{}: seg 0x1c-0x24.7 (9)
0x10|                                    00         |            .   |              tag: 0 0x1c-0x1c.7 (1)
    |                                               |                |              e[0:2]: 0x1d-0x20.7 (4)
    |                                               |                |                [0]{}: in 0x1d-0x1f.7 (3)
0x10|                                       41      |             A  |                  i32.const: 0x41 (valid) 0x1d-0x1d.7 (1)
0x10|                                          e4 00|              ..|                  n: 100 0x1e-0x1f.7 (2)
    |                                               |                |                [1]{}: in 0x20-0x20.7 (1)
0x20|0b                                             |.               |                  end: 0xb (valid) 0x20-0x20.7 (1)
    |                                               |                |              b{}: 0x21-0x24.7 (4)
0x20|   03                                          | .              |                n: 3 0x21-0x21.7 (1)
0x20|      63 64 65                                 |  cde           |                x: raw bits 0x22-0x24.7 (3)
    |                                               |                |            [3]{}: seg 0x25-0x2a.7 (6)
0x20|               00                              |     .          |              tag: 0 0x25-0x25.7 (1)
    |                                               |                |              e[0:2]: 0x26-0x28.7 (3)
    |                                               |                |                [0]{}: in 0x26-0x27.7 (2)
0x20|                  41                           |      A         |                  i32.const: 0x41 (valid) 0x26-0x26.7 (1)
0x20|                     05                        |       .        |                  n: 5 0x27-0x27.7 (1)
    |                                               |                |                [1]{}: in 0x28-0x28.7 (1)
0x20|                        0b                     |        .       |                  end: 0xb (valid) 0x28-0x28.7 (1)
    |                                               |                |              b{}: 0x29-0x2a.7 (2)
0x20|                           01                  |         .      |                n: 1 0x29-0x29.7 (1)
0x20|                              78               |          x     |                x: raw bits 0x2a-0x2a.7 (1)
    |                                               |                |            [4]{}: seg 0x2b-0x30.7 (6)
0x20|                                 00            |           .    |              tag: 0 0x2b-0x2b.7 (1)
    |                                               |                |              e[0:2]: 0x2c-0x2e.7 (3)
    |                                               |                |                [0]{}: in 0x2c-0x2d.7 (2)
0x20|                                    41         |            A   |                  i32.const: 0x41 (valid) 0x2c-0x2c.7 (1)
0x20|                                       03      |             .  |                  n: 3 0x2d-0x2d.7 (1)
    |                                               |                |                [1]{}: in 0x2e-0x2e.7 (1)
0x20|                                          0b   |              . |                  end: 0xb (valid) 0x2e-0x2e.7 (1)
    |                                               |                |              b{}: 0x2f-0x30.7 (2)
0x20|                                             01|               .|                n: 1 0x2f-0x2f.7 (1)
0x30|63|                                            |c|              |                x: raw bits 0x30-0x30.7 (1)
