$ fq -d wasm dv data-0.wasm
    |00 01 02 03 04 05 06 07 08 09 0a 0b 0c 0d 0e 0f|0123456789abcdef|.{}: data-0.wasm (wasm) 0x0-0xb2.7 (179)
0x00|00 61 73 6d                                    |.asm            |  magic: raw bits (valid) 0x0-0x3.7 (4)
0x00|            01 00 00 00                        |    ....        |  version: 1 0x4-0x7.7 (4)
    |                                               |                |  sections[0:2]: 0x8-0xb2.7 (171)
    |                                               |                |    [0]{}: section 0x8-0xc.7 (5)
0x00|                        05                     |        .       |      id: "memory_section" (5) 0x8-0x8.7 (1)
0x00|                           03                  |         .      |      size: 3 (valid) 0x9-0x9.7 (1)
    |                                               |                |      content{}: 0xa-0xc.7 (3)
    |                                               |                |        mem{}: 0xa-0xc.7 (3)
0x00|                              01               |          .     |          n: 1 (valid) 0xa-0xa.7 (1)
    |                                               |                |          x[0:1]: 0xb-0xc.7 (2)
    |                                               |                |            [0]{}: mem 0xb-0xc.7 (2)
    |                                               |                |              lim{}: 0xb-0xc.7 (2)
0x00|                                 00            |           .    |                tag: 0x0 0xb-0xb.7 (1)
0x00|                                    01         |            .   |                n: 1 (valid) 0xc-0xc.7 (1)
    |                                               |                |    [1]{}: section 0xd-0xb2.7 (166)
0x00|                                       0b      |             .  |      id: "data_section" (11) 0xd-0xd.7 (1)
0x00|                                          a3 01|              ..|      size: 163 (valid) 0xe-0xf.7 (2)
    |                                               |                |      content{}: 0x10-0xb2.7 (163)
    |                                               |                |        seg{}: 0x10-0xb2.7 (163)
0x10|18                                             |.               |          n: 24 (valid) 0x10-0x10.7 (1)
    |                                               |                |          x[0:24]: 0x11-0xb2.7 (162)
    |                                               |                |            [0]{}: seg 0x11-0x15.7 (5)
0x10|   00                                          | .              |              tag: 0 (valid) 0x11-0x11.7 (1)
    |                                               |                |              e[0:2]: 0x12-0x14.7 (3)
    |                                               |                |                [0]{}: in 0x12-0x13.7 (2)
0x10|      41                                       |  A             |                  opcode: "i32.const" (0x41) 0x12-0x12.7 (1)
0x10|         00                                    |   .            |                  n: 0 (valid) 0x13-0x13.7 (1)
    |                                               |                |                [1]{}: in 0x14-0x14.7 (1)
0x10|            0b                                 |    .           |                  opcode: "end" (0xb) 0x14-0x14.7 (1)
    |                                               |                |              b{}: 0x15-0x15.7 (1)
0x10|               00                              |     .          |                n: 0 (valid) 0x15-0x15.7 (1)
    |                                               |                |                x: raw bits 0x16-NA (0)
    |                                               |                |            [1]{}: seg 0x16-0x1e.7 (9)
0x10|                  00                           |      .         |              tag: 0 (valid) 0x16-0x16.7 (1)
    |                                               |                |              e[0:2]: 0x17-0x19.7 (3)
    |                                               |                |                [0]{}: in 0x17-0x18.7 (2)
0x10|                     41                        |       A        |                  opcode: "i32.const" (0x41) 0x17-0x17.7 (1)
0x10|                        01                     |        .       |                  n: 1 (valid) 0x18-0x18.7 (1)
    |                                               |                |                [1]{}: in 0x19-0x19.7 (1)
0x10|                           0b                  |         .      |                  opcode: "end" (0xb) 0x19-0x19.7 (1)
    |                                               |                |              b{}: 0x1a-0x1e.7 (5)
0x10|                              04               |          .     |                n: 4 (valid) 0x1a-0x1a.7 (1)
0x10|                                 61 62 63 64   |           abcd |                x: raw bits 0x1b-0x1e.7 (4)
    |                                               |                |            [2]{}: seg 0x1f-0x23.7 (5)
0x10|                                             00|               .|              tag: 0 (valid) 0x1f-0x1f.7 (1)
    |                                               |                |              e[0:2]: 0x20-0x22.7 (3)
    |                                               |                |                [0]{}: in 0x20-0x21.7 (2)
0x20|41                                             |A               |                  opcode: "i32.const" (0x41) 0x20-0x20.7 (1)
0x20|   00                                          | .              |                  n: 0 (valid) 0x21-0x21.7 (1)
    |                                               |                |                [1]{}: in 0x22-0x22.7 (1)
0x20|      0b                                       |  .             |                  opcode: "end" (0xb) 0x22-0x22.7 (1)
    |                                               |                |              b{}: 0x23-0x23.7 (1)
0x20|         00                                    |   .            |                n: 0 (valid) 0x23-0x23.7 (1)
    |                                               |                |                x: raw bits 0x24-NA (0)
    |                                               |                |            [3]{}: seg 0x24-0x2b.7 (8)
0x20|            00                                 |    .           |              tag: 0 (valid) 0x24-0x24.7 (1)
    |                                               |                |              e[0:2]: 0x25-0x27.7 (3)
    |                                               |                |                [0]{}: in 0x25-0x26.7 (2)
0x20|               41                              |     A          |                  opcode: "i32.const" (0x41) 0x25-0x25.7 (1)
0x20|                  00                           |      .         |                  n: 0 (valid) 0x26-0x26.7 (1)
    |                                               |                |                [1]{}: in 0x27-0x27.7 (1)
0x20|                     0b                        |       .        |                  opcode: "end" (0xb) 0x27-0x27.7 (1)
    |                                               |                |              b{}: 0x28-0x2b.7 (4)
0x20|                        03                     |        .       |                n: 3 (valid) 0x28-0x28.7 (1)
0x20|                           61 62 63            |         abc    |                x: raw bits 0x29-0x2b.7 (3)
    |                                               |                |            [4]{}: seg 0x2c-0x30.7 (5)
0x20|                                    00         |            .   |              tag: 0 (valid) 0x2c-0x2c.7 (1)
    |                                               |                |              e[0:2]: 0x2d-0x2f.7 (3)
    |                                               |                |                [0]{}: in 0x2d-0x2e.7 (2)
0x20|                                       41      |             A  |                  opcode: "i32.const" (0x41) 0x2d-0x2d.7 (1)
0x20|                                          00   |              . |                  n: 0 (valid) 0x2e-0x2e.7 (1)
    |                                               |                |                [1]{}: in 0x2f-0x2f.7 (1)
0x20|                                             0b|               .|                  opcode: "end" (0xb) 0x2f-0x2f.7 (1)
    |                                               |                |              b{}: 0x30-0x30.7 (1)
0x30|00                                             |.               |                n: 0 (valid) 0x30-0x30.7 (1)
    |                                               |                |                x: raw bits 0x31-NA (0)
    |                                               |                |            [5]{}: seg 0x31-0x39.7 (9)
0x30|   00                                          | .              |              tag: 0 (valid) 0x31-0x31.7 (1)
    |                                               |                |              e[0:2]: 0x32-0x34.7 (3)
    |                                               |                |                [0]{}: in 0x32-0x33.7 (2)
0x30|      41                                       |  A             |                  opcode: "i32.const" (0x41) 0x32-0x32.7 (1)
0x30|         01                                    |   .            |                  n: 1 (valid) 0x33-0x33.7 (1)
    |                                               |                |                [1]{}: in 0x34-0x34.7 (1)
0x30|            0b                                 |    .           |                  opcode: "end" (0xb) 0x34-0x34.7 (1)
    |                                               |                |              b{}: 0x35-0x39.7 (5)
0x30|               04                              |     .          |                n: 4 (valid) 0x35-0x35.7 (1)
0x30|                  61 62 63 64                  |      abcd      |                x: raw bits 0x36-0x39.7 (4)
    |                                               |                |            [6]{}: seg 0x3a-0x3e.7 (5)
0x30|                              00               |          .     |              tag: 0 (valid) 0x3a-0x3a.7 (1)
    |                                               |                |              e[0:2]: 0x3b-0x3d.7 (3)
    |                                               |                |                [0]{}: in 0x3b-0x3c.7 (2)
0x30|                                 41            |           A    |                  opcode: "i32.const" (0x41) 0x3b-0x3b.7 (1)
0x30|                                    00         |            .   |                  n: 0 (valid) 0x3c-0x3c.7 (1)
    |                                               |                |                [1]{}: in 0x3d-0x3d.7 (1)
0x30|                                       0b      |             .  |                  opcode: "end" (0xb) 0x3d-0x3d.7 (1)
    |                                               |                |              b{}: 0x3e-0x3e.7 (1)
0x30|                                          00   |              . |                n: 0 (valid) 0x3e-0x3e.7 (1)
    |                                               |                |                x: raw bits 0x3f-NA (0)
    |                                               |                |            [7]{}: seg 0x3f-0x46.7 (8)
0x30|                                             00|               .|              tag: 0 (valid) 0x3f-0x3f.7 (1)
    |                                               |                |              e[0:2]: 0x40-0x42.7 (3)
    |                                               |                |                [0]{}: in 0x40-0x41.7 (2)
0x40|41                                             |A               |                  opcode: "i32.const" (0x41) 0x40-0x40.7 (1)
0x40|   00                                          | .              |                  n: 0 (valid) 0x41-0x41.7 (1)
    |                                               |                |                [1]{}: in 0x42-0x42.7 (1)
0x40|      0b                                       |  .             |                  opcode: "end" (0xb) 0x42-0x42.7 (1)
    |                                               |                |              b{}: 0x43-0x46.7 (4)
0x40|         03                                    |   .            |                n: 3 (valid) 0x43-0x43.7 (1)
0x40|            61 62 63                           |    abc         |                x: raw bits 0x44-0x46.7 (3)
    |                                               |                |            [8]{}: seg 0x47-0x4b.7 (5)
0x40|                     00                        |       .        |              tag: 0 (valid) 0x47-0x47.7 (1)
    |                                               |                |              e[0:2]: 0x48-0x4a.7 (3)
    |                                               |                |                [0]{}: in 0x48-0x49.7 (2)
0x40|                        41                     |        A       |                  opcode: "i32.const" (0x41) 0x48-0x48.7 (1)
0x40|                           00                  |         .      |                  n: 0 (valid) 0x49-0x49.7 (1)
    |                                               |                |                [1]{}: in 0x4a-0x4a.7 (1)
0x40|                              0b               |          .     |                  opcode: "end" (0xb) 0x4a-0x4a.7 (1)
    |                                               |                |              b{}: 0x4b-0x4b.7 (1)
0x40|                                 00            |           .    |                n: 0 (valid) 0x4b-0x4b.7 (1)
    |                                               |                |                x: raw bits 0x4c-NA (0)
    |                                               |                |            [9]{}: seg 0x4c-0x54.7 (9)
0x40|                                    00         |            .   |              tag: 0 (valid) 0x4c-0x4c.7 (1)
    |                                               |                |              e[0:2]: 0x4d-0x4f.7 (3)
    |                                               |                |                [0]{}: in 0x4d-0x4e.7 (2)
0x40|                                       41      |             A  |                  opcode: "i32.const" (0x41) 0x4d-0x4d.7 (1)
0x40|                                          01   |              . |                  n: 1 (valid) 0x4e-0x4e.7 (1)
    |                                               |                |                [1]{}: in 0x4f-0x4f.7 (1)
0x40|                                             0b|               .|                  opcode: "end" (0xb) 0x4f-0x4f.7 (1)
    |                                               |                |              b{}: 0x50-0x54.7 (5)
0x50|04                                             |.               |                n: 4 (valid) 0x50-0x50.7 (1)
0x50|   61 62 63 64                                 | abcd           |                x: raw bits 0x51-0x54.7 (4)
    |                                               |                |            [10]{}: seg 0x55-0x59.7 (5)
0x50|               00                              |     .          |              tag: 0 (valid) 0x55-0x55.7 (1)
    |                                               |                |              e[0:2]: 0x56-0x58.7 (3)
    |                                               |                |                [0]{}: in 0x56-0x57.7 (2)
0x50|                  41                           |      A         |                  opcode: "i32.const" (0x41) 0x56-0x56.7 (1)
0x50|                     00                        |       .        |                  n: 0 (valid) 0x57-0x57.7 (1)
    |                                               |                |                [1]{}: in 0x58-0x58.7 (1)
0x50|                        0b                     |        .       |                  opcode: "end" (0xb) 0x58-0x58.7 (1)
    |                                               |                |              b{}: 0x59-0x59.7 (1)
0x50|                           00                  |         .      |                n: 0 (valid) 0x59-0x59.7 (1)
    |                                               |                |                x: raw bits 0x5a-NA (0)
    |                                               |                |            [11]{}: seg 0x5a-0x61.7 (8)
0x50|                              00               |          .     |              tag: 0 (valid) 0x5a-0x5a.7 (1)
    |                                               |                |              e[0:2]: 0x5b-0x5d.7 (3)
    |                                               |                |                [0]{}: in 0x5b-0x5c.7 (2)
0x50|                                 41            |           A    |                  opcode: "i32.const" (0x41) 0x5b-0x5b.7 (1)
0x50|                                    00         |            .   |                  n: 0 (valid) 0x5c-0x5c.7 (1)
    |                                               |                |                [1]{}: in 0x5d-0x5d.7 (1)
0x50|                                       0b      |             .  |                  opcode: "end" (0xb) 0x5d-0x5d.7 (1)
    |                                               |                |              b{}: 0x5e-0x61.7 (4)
0x50|                                          03   |              . |                n: 3 (valid) 0x5e-0x5e.7 (1)
0x50|                                             61|               a|                x: raw bits 0x5f-0x61.7 (3)
0x60|62 63                                          |bc              |
    |                                               |                |            [12]{}: seg 0x62-0x66.7 (5)
0x60|      00                                       |  .             |              tag: 0 (valid) 0x62-0x62.7 (1)
    |                                               |                |              e[0:2]: 0x63-0x65.7 (3)
    |                                               |                |                [0]{}: in 0x63-0x64.7 (2)
0x60|         41                                    |   A            |                  opcode: "i32.const" (0x41) 0x63-0x63.7 (1)
0x60|            00                                 |    .           |                  n: 0 (valid) 0x64-0x64.7 (1)
    |                                               |                |                [1]{}: in 0x65-0x65.7 (1)
0x60|               0b                              |     .          |                  opcode: "end" (0xb) 0x65-0x65.7 (1)
    |                                               |                |              b{}: 0x66-0x66.7 (1)
0x60|                  00                           |      .         |                n: 0 (valid) 0x66-0x66.7 (1)
    |                                               |                |                x: raw bits 0x67-NA (0)
    |                                               |                |            [13]{}: seg 0x67-0x6f.7 (9)
0x60|                     00                        |       .        |              tag: 0 (valid) 0x67-0x67.7 (1)
    |                                               |                |              e[0:2]: 0x68-0x6a.7 (3)
    |                                               |                |                [0]{}: in 0x68-0x69.7 (2)
0x60|                        41                     |        A       |                  opcode: "i32.const" (0x41) 0x68-0x68.7 (1)
0x60|                           01                  |         .      |                  n: 1 (valid) 0x69-0x69.7 (1)
    |                                               |                |                [1]{}: in 0x6a-0x6a.7 (1)
0x60|                              0b               |          .     |                  opcode: "end" (0xb) 0x6a-0x6a.7 (1)
    |                                               |                |              b{}: 0x6b-0x6f.7 (5)
0x60|                                 04            |           .    |                n: 4 (valid) 0x6b-0x6b.7 (1)
0x60|                                    61 62 63 64|            abcd|                x: raw bits 0x6c-0x6f.7 (4)
    |                                               |                |            [14]{}: seg 0x70-0x74.7 (5)
0x70|00                                             |.               |              tag: 0 (valid) 0x70-0x70.7 (1)
    |                                               |                |              e[0:2]: 0x71-0x73.7 (3)
    |                                               |                |                [0]{}: in 0x71-0x72.7 (2)
0x70|   41                                          | A              |                  opcode: "i32.const" (0x41) 0x71-0x71.7 (1)
0x70|      00                                       |  .             |                  n: 0 (valid) 0x72-0x72.7 (1)
    |                                               |                |                [1]{}: in 0x73-0x73.7 (1)
0x70|         0b                                    |   .            |                  opcode: "end" (0xb) 0x73-0x73.7 (1)
    |                                               |                |              b{}: 0x74-0x74.7 (1)
0x70|            00                                 |    .           |                n: 0 (valid) 0x74-0x74.7 (1)
    |                                               |                |                x: raw bits 0x75-NA (0)
    |                                               |                |            [15]{}: seg 0x75-0x7c.7 (8)
0x70|               00                              |     .          |              tag: 0 (valid) 0x75-0x75.7 (1)
    |                                               |                |              e[0:2]: 0x76-0x78.7 (3)
    |                                               |                |                [0]{}: in 0x76-0x77.7 (2)
0x70|                  41                           |      A         |                  opcode: "i32.const" (0x41) 0x76-0x76.7 (1)
0x70|                     00                        |       .        |                  n: 0 (valid) 0x77-0x77.7 (1)
    |                                               |                |                [1]{}: in 0x78-0x78.7 (1)
0x70|                        0b                     |        .       |                  opcode: "end" (0xb) 0x78-0x78.7 (1)
    |                                               |                |              b{}: 0x79-0x7c.7 (4)
0x70|                           03                  |         .      |                n: 3 (valid) 0x79-0x79.7 (1)
0x70|                              61 62 63         |          abc   |                x: raw bits 0x7a-0x7c.7 (3)
    |                                               |                |            [16]{}: seg 0x7d-0x81.7 (5)
0x70|                                       00      |             .  |              tag: 0 (valid) 0x7d-0x7d.7 (1)
    |                                               |                |              e[0:2]: 0x7e-0x80.7 (3)
    |                                               |                |                [0]{}: in 0x7e-0x7f.7 (2)
0x70|                                          41   |              A |                  opcode: "i32.const" (0x41) 0x7e-0x7e.7 (1)
0x70|                                             00|               .|                  n: 0 (valid) 0x7f-0x7f.7 (1)
    |                                               |                |                [1]{}: in 0x80-0x80.7 (1)
0x80|0b                                             |.               |                  opcode: "end" (0xb) 0x80-0x80.7 (1)
    |                                               |                |              b{}: 0x81-0x81.7 (1)
0x80|   00                                          | .              |                n: 0 (valid) 0x81-0x81.7 (1)
    |                                               |                |                x: raw bits 0x82-NA (0)
    |                                               |                |            [17]{}: seg 0x82-0x8a.7 (9)
0x80|      00                                       |  .             |              tag: 0 (valid) 0x82-0x82.7 (1)
    |                                               |                |              e[0:2]: 0x83-0x85.7 (3)
    |                                               |                |                [0]{}: in 0x83-0x84.7 (2)
0x80|         41                                    |   A            |                  opcode: "i32.const" (0x41) 0x83-0x83.7 (1)
0x80|            01                                 |    .           |                  n: 1 (valid) 0x84-0x84.7 (1)
    |                                               |                |                [1]{}: in 0x85-0x85.7 (1)
0x80|               0b                              |     .          |                  opcode: "end" (0xb) 0x85-0x85.7 (1)
    |                                               |                |              b{}: 0x86-0x8a.7 (5)
0x80|                  04                           |      .         |                n: 4 (valid) 0x86-0x86.7 (1)
0x80|                     61 62 63 64               |       abcd     |                x: raw bits 0x87-0x8a.7 (4)
    |                                               |                |            [18]{}: seg 0x8b-0x8f.7 (5)
0x80|                                 00            |           .    |              tag: 0 (valid) 0x8b-0x8b.7 (1)
    |                                               |                |              e[0:2]: 0x8c-0x8e.7 (3)
    |                                               |                |                [0]{}: in 0x8c-0x8d.7 (2)
0x80|                                    41         |            A   |                  opcode: "i32.const" (0x41) 0x8c-0x8c.7 (1)
0x80|                                       00      |             .  |                  n: 0 (valid) 0x8d-0x8d.7 (1)
    |                                               |                |                [1]{}: in 0x8e-0x8e.7 (1)
0x80|                                          0b   |              . |                  opcode: "end" (0xb) 0x8e-0x8e.7 (1)
    |                                               |                |              b{}: 0x8f-0x8f.7 (1)
0x80|                                             00|               .|                n: 0 (valid) 0x8f-0x8f.7 (1)
    |                                               |                |                x: raw bits 0x90-NA (0)
    |                                               |                |            [19]{}: seg 0x90-0x97.7 (8)
0x90|00                                             |.               |              tag: 0 (valid) 0x90-0x90.7 (1)
    |                                               |                |              e[0:2]: 0x91-0x93.7 (3)
    |                                               |                |                [0]{}: in 0x91-0x92.7 (2)
0x90|   41                                          | A              |                  opcode: "i32.const" (0x41) 0x91-0x91.7 (1)
0x90|      00                                       |  .             |                  n: 0 (valid) 0x92-0x92.7 (1)
    |                                               |                |                [1]{}: in 0x93-0x93.7 (1)
0x90|         0b                                    |   .            |                  opcode: "end" (0xb) 0x93-0x93.7 (1)
    |                                               |                |              b{}: 0x94-0x97.7 (4)
0x90|            03                                 |    .           |                n: 3 (valid) 0x94-0x94.7 (1)
0x90|               61 62 63                        |     abc        |                x: raw bits 0x95-0x97.7 (3)
    |                                               |                |            [20]{}: seg 0x98-0x9c.7 (5)
0x90|                        00                     |        .       |              tag: 0 (valid) 0x98-0x98.7 (1)
    |                                               |                |              e[0:2]: 0x99-0x9b.7 (3)
    |                                               |                |                [0]{}: in 0x99-0x9a.7 (2)
0x90|                           41                  |         A      |                  opcode: "i32.const" (0x41) 0x99-0x99.7 (1)
0x90|                              00               |          .     |                  n: 0 (valid) 0x9a-0x9a.7 (1)
    |                                               |                |                [1]{}: in 0x9b-0x9b.7 (1)
0x90|                                 0b            |           .    |                  opcode: "end" (0xb) 0x9b-0x9b.7 (1)
    |                                               |                |              b{}: 0x9c-0x9c.7 (1)
0x90|                                    00         |            .   |                n: 0 (valid) 0x9c-0x9c.7 (1)
    |                                               |                |                x: raw bits 0x9d-NA (0)
    |                                               |                |            [21]{}: seg 0x9d-0xa5.7 (9)
0x90|                                       00      |             .  |              tag: 0 (valid) 0x9d-0x9d.7 (1)
    |                                               |                |              e[0:2]: 0x9e-0xa0.7 (3)
    |                                               |                |                [0]{}: in 0x9e-0x9f.7 (2)
0x90|                                          41   |              A |                  opcode: "i32.const" (0x41) 0x9e-0x9e.7 (1)
0x90|                                             01|               .|                  n: 1 (valid) 0x9f-0x9f.7 (1)
    |                                               |                |                [1]{}: in 0xa0-0xa0.7 (1)
0xa0|0b                                             |.               |                  opcode: "end" (0xb) 0xa0-0xa0.7 (1)
    |                                               |                |              b{}: 0xa1-0xa5.7 (5)
0xa0|   04                                          | .              |                n: 4 (valid) 0xa1-0xa1.7 (1)
0xa0|      61 62 63 64                              |  abcd          |                x: raw bits 0xa2-0xa5.7 (4)
    |                                               |                |            [22]{}: seg 0xa6-0xaa.7 (5)
0xa0|                  00                           |      .         |              tag: 0 (valid) 0xa6-0xa6.7 (1)
    |                                               |                |              e[0:2]: 0xa7-0xa9.7 (3)
    |                                               |                |                [0]{}: in 0xa7-0xa8.7 (2)
0xa0|                     41                        |       A        |                  opcode: "i32.const" (0x41) 0xa7-0xa7.7 (1)
0xa0|                        00                     |        .       |                  n: 0 (valid) 0xa8-0xa8.7 (1)
    |                                               |                |                [1]{}: in 0xa9-0xa9.7 (1)
0xa0|                           0b                  |         .      |                  opcode: "end" (0xb) 0xa9-0xa9.7 (1)
    |                                               |                |              b{}: 0xaa-0xaa.7 (1)
0xa0|                              00               |          .     |                n: 0 (valid) 0xaa-0xaa.7 (1)
    |                                               |                |                x: raw bits 0xab-NA (0)
    |                                               |                |            [23]{}: seg 0xab-0xb2.7 (8)
0xa0|                                 00            |           .    |              tag: 0 (valid) 0xab-0xab.7 (1)
    |                                               |                |              e[0:2]: 0xac-0xae.7 (3)
    |                                               |                |                [0]{}: in 0xac-0xad.7 (2)
0xa0|                                    41         |            A   |                  opcode: "i32.const" (0x41) 0xac-0xac.7 (1)
0xa0|                                       00      |             .  |                  n: 0 (valid) 0xad-0xad.7 (1)
    |                                               |                |                [1]{}: in 0xae-0xae.7 (1)
0xa0|                                          0b   |              . |                  opcode: "end" (0xb) 0xae-0xae.7 (1)
    |                                               |                |              b{}: 0xaf-0xb2.7 (4)
0xa0|                                             03|               .|                n: 3 (valid) 0xaf-0xaf.7 (1)
0xb0|61 62 63|                                      |abc|            |                x: raw bits 0xb0-0xb2.7 (3)
