$ fq -d wasm dv data-0.wasm
    |00 01 02 03 04 05 06 07 08 09 0a 0b 0c 0d 0e 0f|0123456789abcdef|.{}: data-0.wasm (wasm) 0x0-0xb3 (179)
0x00|00 61 73 6d                                    |.asm            |  magic: raw bits (valid) 0x0-0x4 (4)
0x00|            01 00 00 00                        |    ....        |  version: 1 0x4-0x8 (4)
    |                                               |                |  sections[0:2]: 0x8-0xb3 (171)
    |                                               |                |    [0]{}: section 0x8-0xd (5)
0x00|                        05                     |        .       |      id: "memory_section" (5) 0x8-0x9 (1)
0x00|                           03                  |         .      |      size: 3 (valid) 0x9-0xa (1)
    |                                               |                |      content{}: 0xa-0xd (3)
    |                                               |                |        mem{}: 0xa-0xd (3)
0x00|                              01               |          .     |          n: 1 (valid) 0xa-0xb (1)
    |                                               |                |          x[0:1]: 0xb-0xd (2)
    |                                               |                |            [0]{}: mem 0xb-0xd (2)
    |                                               |                |              lim{}: 0xb-0xd (2)
0x00|                                 00            |           .    |                tag: 0x0 0xb-0xc (1)
0x00|                                    01         |            .   |                n: 1 (valid) 0xc-0xd (1)
    |                                               |                |    [1]{}: section 0xd-0xb3 (166)
0x00|                                       0b      |             .  |      id: "data_section" (11) 0xd-0xe (1)
0x00|                                          a3 01|              ..|      size: 163 (valid) 0xe-0x10 (2)
    |                                               |                |      content{}: 0x10-0xb3 (163)
    |                                               |                |        seg{}: 0x10-0xb3 (163)
0x10|18                                             |.               |          n: 24 (valid) 0x10-0x11 (1)
    |                                               |                |          x[0:24]: 0x11-0xb3 (162)
    |                                               |                |            [0]{}: seg 0x11-0x16 (5)
0x10|   00                                          | .              |              tag: 0 (valid) 0x11-0x12 (1)
    |                                               |                |              e[0:2]: 0x12-0x15 (3)
    |                                               |                |                [0]{}: in 0x12-0x14 (2)
0x10|      41                                       |  A             |                  opcode: "i32.const" (0x41) 0x12-0x13 (1)
0x10|         00                                    |   .            |                  n: 0 (valid) 0x13-0x14 (1)
    |                                               |                |                [1]{}: in 0x14-0x15 (1)
0x10|            0b                                 |    .           |                  opcode: "end" (0xb) 0x14-0x15 (1)
    |                                               |                |              b{}: 0x15-0x16 (1)
0x10|               00                              |     .          |                n: 0 (valid) 0x15-0x16 (1)
    |                                               |                |                x: raw bits 0x16-0x16 (0)
    |                                               |                |            [1]{}: seg 0x16-0x1f (9)
0x10|                  00                           |      .         |              tag: 0 (valid) 0x16-0x17 (1)
    |                                               |                |              e[0:2]: 0x17-0x1a (3)
    |                                               |                |                [0]{}: in 0x17-0x19 (2)
0x10|                     41                        |       A        |                  opcode: "i32.const" (0x41) 0x17-0x18 (1)
0x10|                        01                     |        .       |                  n: 1 (valid) 0x18-0x19 (1)
    |                                               |                |                [1]{}: in 0x19-0x1a (1)
0x10|                           0b                  |         .      |                  opcode: "end" (0xb) 0x19-0x1a (1)
    |                                               |                |              b{}: 0x1a-0x1f (5)
0x10|                              04               |          .     |                n: 4 (valid) 0x1a-0x1b (1)
0x10|                                 61 62 63 64   |           abcd |                x: raw bits 0x1b-0x1f (4)
    |                                               |                |            [2]{}: seg 0x1f-0x24 (5)
0x10|                                             00|               .|              tag: 0 (valid) 0x1f-0x20 (1)
    |                                               |                |              e[0:2]: 0x20-0x23 (3)
    |                                               |                |                [0]{}: in 0x20-0x22 (2)
0x20|41                                             |A               |                  opcode: "i32.const" (0x41) 0x20-0x21 (1)
0x20|   00                                          | .              |                  n: 0 (valid) 0x21-0x22 (1)
    |                                               |                |                [1]{}: in 0x22-0x23 (1)
0x20|      0b                                       |  .             |                  opcode: "end" (0xb) 0x22-0x23 (1)
    |                                               |                |              b{}: 0x23-0x24 (1)
0x20|         00                                    |   .            |                n: 0 (valid) 0x23-0x24 (1)
    |                                               |                |                x: raw bits 0x24-0x24 (0)
    |                                               |                |            [3]{}: seg 0x24-0x2c (8)
0x20|            00                                 |    .           |              tag: 0 (valid) 0x24-0x25 (1)
    |                                               |                |              e[0:2]: 0x25-0x28 (3)
    |                                               |                |                [0]{}: in 0x25-0x27 (2)
0x20|               41                              |     A          |                  opcode: "i32.const" (0x41) 0x25-0x26 (1)
0x20|                  00                           |      .         |                  n: 0 (valid) 0x26-0x27 (1)
    |                                               |                |                [1]{}: in 0x27-0x28 (1)
0x20|                     0b                        |       .        |                  opcode: "end" (0xb) 0x27-0x28 (1)
    |                                               |                |              b{}: 0x28-0x2c (4)
0x20|                        03                     |        .       |                n: 3 (valid) 0x28-0x29 (1)
0x20|                           61 62 63            |         abc    |                x: raw bits 0x29-0x2c (3)
    |                                               |                |            [4]{}: seg 0x2c-0x31 (5)
0x20|                                    00         |            .   |              tag: 0 (valid) 0x2c-0x2d (1)
    |                                               |                |              e[0:2]: 0x2d-0x30 (3)
    |                                               |                |                [0]{}: in 0x2d-0x2f (2)
0x20|                                       41      |             A  |                  opcode: "i32.const" (0x41) 0x2d-0x2e (1)
0x20|                                          00   |              . |                  n: 0 (valid) 0x2e-0x2f (1)
    |                                               |                |                [1]{}: in 0x2f-0x30 (1)
0x20|                                             0b|               .|                  opcode: "end" (0xb) 0x2f-0x30 (1)
    |                                               |                |              b{}: 0x30-0x31 (1)
0x30|00                                             |.               |                n: 0 (valid) 0x30-0x31 (1)
    |                                               |                |                x: raw bits 0x31-0x31 (0)
    |                                               |                |            [5]{}: seg 0x31-0x3a (9)
0x30|   00                                          | .              |              tag: 0 (valid) 0x31-0x32 (1)
    |                                               |                |              e[0:2]: 0x32-0x35 (3)
    |                                               |                |                [0]{}: in 0x32-0x34 (2)
0x30|      41                                       |  A             |                  opcode: "i32.const" (0x41) 0x32-0x33 (1)
0x30|         01                                    |   .            |                  n: 1 (valid) 0x33-0x34 (1)
    |                                               |                |                [1]{}: in 0x34-0x35 (1)
0x30|            0b                                 |    .           |                  opcode: "end" (0xb) 0x34-0x35 (1)
    |                                               |                |              b{}: 0x35-0x3a (5)
0x30|               04                              |     .          |                n: 4 (valid) 0x35-0x36 (1)
0x30|                  61 62 63 64                  |      abcd      |                x: raw bits 0x36-0x3a (4)
    |                                               |                |            [6]{}: seg 0x3a-0x3f (5)
0x30|                              00               |          .     |              tag: 0 (valid) 0x3a-0x3b (1)
    |                                               |                |              e[0:2]: 0x3b-0x3e (3)
    |                                               |                |                [0]{}: in 0x3b-0x3d (2)
0x30|                                 41            |           A    |                  opcode: "i32.const" (0x41) 0x3b-0x3c (1)
0x30|                                    00         |            .   |                  n: 0 (valid) 0x3c-0x3d (1)
    |                                               |                |                [1]{}: in 0x3d-0x3e (1)
0x30|                                       0b      |             .  |                  opcode: "end" (0xb) 0x3d-0x3e (1)
    |                                               |                |              b{}: 0x3e-0x3f (1)
0x30|                                          00   |              . |                n: 0 (valid) 0x3e-0x3f (1)
    |                                               |                |                x: raw bits 0x3f-0x3f (0)
    |                                               |                |            [7]{}: seg 0x3f-0x47 (8)
0x30|                                             00|               .|              tag: 0 (valid) 0x3f-0x40 (1)
    |                                               |                |              e[0:2]: 0x40-0x43 (3)
    |                                               |                |                [0]{}: in 0x40-0x42 (2)
0x40|41                                             |A               |                  opcode: "i32.const" (0x41) 0x40-0x41 (1)
0x40|   00                                          | .              |                  n: 0 (valid) 0x41-0x42 (1)
    |                                               |                |                [1]{}: in 0x42-0x43 (1)
0x40|      0b                                       |  .             |                  opcode: "end" (0xb) 0x42-0x43 (1)
    |                                               |                |              b{}: 0x43-0x47 (4)
0x40|         03                                    |   .            |                n: 3 (valid) 0x43-0x44 (1)
0x40|            61 62 63                           |    abc         |                x: raw bits 0x44-0x47 (3)
    |                                               |                |            [8]{}: seg 0x47-0x4c (5)
0x40|                     00                        |       .        |              tag: 0 (valid) 0x47-0x48 (1)
    |                                               |                |              e[0:2]: 0x48-0x4b (3)
    |                                               |                |                [0]{}: in 0x48-0x4a (2)
0x40|                        41                     |        A       |                  opcode: "i32.const" (0x41) 0x48-0x49 (1)
0x40|                           00                  |         .      |                  n: 0 (valid) 0x49-0x4a (1)
    |                                               |                |                [1]{}: in 0x4a-0x4b (1)
0x40|                              0b               |          .     |                  opcode: "end" (0xb) 0x4a-0x4b (1)
    |                                               |                |              b{}: 0x4b-0x4c (1)
0x40|                                 00            |           .    |                n: 0 (valid) 0x4b-0x4c (1)
    |                                               |                |                x: raw bits 0x4c-0x4c (0)
    |                                               |                |            [9]{}: seg 0x4c-0x55 (9)
0x40|                                    00         |            .   |              tag: 0 (valid) 0x4c-0x4d (1)
    |                                               |                |              e[0:2]: 0x4d-0x50 (3)
    |                                               |                |                [0]{}: in 0x4d-0x4f (2)
0x40|                                       41      |             A  |                  opcode: "i32.const" (0x41) 0x4d-0x4e (1)
0x40|                                          01   |              . |                  n: 1 (valid) 0x4e-0x4f (1)
    |                                               |                |                [1]{}: in 0x4f-0x50 (1)
0x40|                                             0b|               .|                  opcode: "end" (0xb) 0x4f-0x50 (1)
    |                                               |                |              b{}: 0x50-0x55 (5)
0x50|04                                             |.               |                n: 4 (valid) 0x50-0x51 (1)
0x50|   61 62 63 64                                 | abcd           |                x: raw bits 0x51-0x55 (4)
    |                                               |                |            [10]{}: seg 0x55-0x5a (5)
0x50|               00                              |     .          |              tag: 0 (valid) 0x55-0x56 (1)
    |                                               |                |              e[0:2]: 0x56-0x59 (3)
    |                                               |                |                [0]{}: in 0x56-0x58 (2)
0x50|                  41                           |      A         |                  opcode: "i32.const" (0x41) 0x56-0x57 (1)
0x50|                     00                        |       .        |                  n: 0 (valid) 0x57-0x58 (1)
    |                                               |                |                [1]{}: in 0x58-0x59 (1)
0x50|                        0b                     |        .       |                  opcode: "end" (0xb) 0x58-0x59 (1)
    |                                               |                |              b{}: 0x59-0x5a (1)
0x50|                           00                  |         .      |                n: 0 (valid) 0x59-0x5a (1)
    |                                               |                |                x: raw bits 0x5a-0x5a (0)
    |                                               |                |            [11]{}: seg 0x5a-0x62 (8)
0x50|                              00               |          .     |              tag: 0 (valid) 0x5a-0x5b (1)
    |                                               |                |              e[0:2]: 0x5b-0x5e (3)
    |                                               |                |                [0]{}: in 0x5b-0x5d (2)
0x50|                                 41            |           A    |                  opcode: "i32.const" (0x41) 0x5b-0x5c (1)
0x50|                                    00         |            .   |                  n: 0 (valid) 0x5c-0x5d (1)
    |                                               |                |                [1]{}: in 0x5d-0x5e (1)
0x50|                                       0b      |             .  |                  opcode: "end" (0xb) 0x5d-0x5e (1)
    |                                               |                |              b{}: 0x5e-0x62 (4)
0x50|                                          03   |              . |                n: 3 (valid) 0x5e-0x5f (1)
0x50|                                             61|               a|                x: raw bits 0x5f-0x62 (3)
0x60|62 63                                          |bc              |
    |                                               |                |            [12]{}: seg 0x62-0x67 (5)
0x60|      00                                       |  .             |              tag: 0 (valid) 0x62-0x63 (1)
    |                                               |                |              e[0:2]: 0x63-0x66 (3)
    |                                               |                |                [0]{}: in 0x63-0x65 (2)
0x60|         41                                    |   A            |                  opcode: "i32.const" (0x41) 0x63-0x64 (1)
0x60|            00                                 |    .           |                  n: 0 (valid) 0x64-0x65 (1)
    |                                               |                |                [1]{}: in 0x65-0x66 (1)
0x60|               0b                              |     .          |                  opcode: "end" (0xb) 0x65-0x66 (1)
    |                                               |                |              b{}: 0x66-0x67 (1)
0x60|                  00                           |      .         |                n: 0 (valid) 0x66-0x67 (1)
    |                                               |                |                x: raw bits 0x67-0x67 (0)
    |                                               |                |            [13]{}: seg 0x67-0x70 (9)
0x60|                     00                        |       .        |              tag: 0 (valid) 0x67-0x68 (1)
    |                                               |                |              e[0:2]: 0x68-0x6b (3)
    |                                               |                |                [0]{}: in 0x68-0x6a (2)
0x60|                        41                     |        A       |                  opcode: "i32.const" (0x41) 0x68-0x69 (1)
0x60|                           01                  |         .      |                  n: 1 (valid) 0x69-0x6a (1)
    |                                               |                |                [1]{}: in 0x6a-0x6b (1)
0x60|                              0b               |          .     |                  opcode: "end" (0xb) 0x6a-0x6b (1)
    |                                               |                |              b{}: 0x6b-0x70 (5)
0x60|                                 04            |           .    |                n: 4 (valid) 0x6b-0x6c (1)
0x60|                                    61 62 63 64|            abcd|                x: raw bits 0x6c-0x70 (4)
    |                                               |                |            [14]{}: seg 0x70-0x75 (5)
0x70|00                                             |.               |              tag: 0 (valid) 0x70-0x71 (1)
    |                                               |                |              e[0:2]: 0x71-0x74 (3)
    |                                               |                |                [0]{}: in 0x71-0x73 (2)
0x70|   41                                          | A              |                  opcode: "i32.const" (0x41) 0x71-0x72 (1)
0x70|      00                                       |  .             |                  n: 0 (valid) 0x72-0x73 (1)
    |                                               |                |                [1]{}: in 0x73-0x74 (1)
0x70|         0b                                    |   .            |                  opcode: "end" (0xb) 0x73-0x74 (1)
    |                                               |                |              b{}: 0x74-0x75 (1)
0x70|            00                                 |    .           |                n: 0 (valid) 0x74-0x75 (1)
    |                                               |                |                x: raw bits 0x75-0x75 (0)
    |                                               |                |            [15]{}: seg 0x75-0x7d (8)
0x70|               00                              |     .          |              tag: 0 (valid) 0x75-0x76 (1)
    |                                               |                |              e[0:2]: 0x76-0x79 (3)
    |                                               |                |                [0]{}: in 0x76-0x78 (2)
0x70|                  41                           |      A         |                  opcode: "i32.const" (0x41) 0x76-0x77 (1)
0x70|                     00                        |       .        |                  n: 0 (valid) 0x77-0x78 (1)
    |                                               |                |                [1]{}: in 0x78-0x79 (1)
0x70|                        0b                     |        .       |                  opcode: "end" (0xb) 0x78-0x79 (1)
    |                                               |                |              b{}: 0x79-0x7d (4)
0x70|                           03                  |         .      |                n: 3 (valid) 0x79-0x7a (1)
0x70|                              61 62 63         |          abc   |                x: raw bits 0x7a-0x7d (3)
    |                                               |                |            [16]{}: seg 0x7d-0x82 (5)
0x70|                                       00      |             .  |              tag: 0 (valid) 0x7d-0x7e (1)
    |                                               |                |              e[0:2]: 0x7e-0x81 (3)
    |                                               |                |                [0]{}: in 0x7e-0x80 (2)
0x70|                                          41   |              A |                  opcode: "i32.const" (0x41) 0x7e-0x7f (1)
0x70|                                             00|               .|                  n: 0 (valid) 0x7f-0x80 (1)
    |                                               |                |                [1]{}: in 0x80-0x81 (1)
0x80|0b                                             |.               |                  opcode: "end" (0xb) 0x80-0x81 (1)
    |                                               |                |              b{}: 0x81-0x82 (1)
0x80|   00                                          | .              |                n: 0 (valid) 0x81-0x82 (1)
    |                                               |                |                x: raw bits 0x82-0x82 (0)
    |                                               |                |            [17]{}: seg 0x82-0x8b (9)
0x80|      00                                       |  .             |              tag: 0 (valid) 0x82-0x83 (1)
    |                                               |                |              e[0:2]: 0x83-0x86 (3)
    |                                               |                |                [0]{}: in 0x83-0x85 (2)
0x80|         41                                    |   A            |                  opcode: "i32.const" (0x41) 0x83-0x84 (1)
0x80|            01                                 |    .           |                  n: 1 (valid) 0x84-0x85 (1)
    |                                               |                |                [1]{}: in 0x85-0x86 (1)
0x80|               0b                              |     .          |                  opcode: "end" (0xb) 0x85-0x86 (1)
    |                                               |                |              b{}: 0x86-0x8b (5)
0x80|                  04                           |      .         |                n: 4 (valid) 0x86-0x87 (1)
0x80|                     61 62 63 64               |       abcd     |                x: raw bits 0x87-0x8b (4)
    |                                               |                |            [18]{}: seg 0x8b-0x90 (5)
0x80|                                 00            |           .    |              tag: 0 (valid) 0x8b-0x8c (1)
    |                                               |                |              e[0:2]: 0x8c-0x8f (3)
    |                                               |                |                [0]{}: in 0x8c-0x8e (2)
0x80|                                    41         |            A   |                  opcode: "i32.const" (0x41) 0x8c-0x8d (1)
0x80|                                       00      |             .  |                  n: 0 (valid) 0x8d-0x8e (1)
    |                                               |                |                [1]{}: in 0x8e-0x8f (1)
0x80|                                          0b   |              . |                  opcode: "end" (0xb) 0x8e-0x8f (1)
    |                                               |                |              b{}: 0x8f-0x90 (1)
0x80|                                             00|               .|                n: 0 (valid) 0x8f-0x90 (1)
    |                                               |                |                x: raw bits 0x90-0x90 (0)
    |                                               |                |            [19]{}: seg 0x90-0x98 (8)
0x90|00                                             |.               |              tag: 0 (valid) 0x90-0x91 (1)
    |                                               |                |              e[0:2]: 0x91-0x94 (3)
    |                                               |                |                [0]{}: in 0x91-0x93 (2)
0x90|   41                                          | A              |                  opcode: "i32.const" (0x41) 0x91-0x92 (1)
0x90|      00                                       |  .             |                  n: 0 (valid) 0x92-0x93 (1)
    |                                               |                |                [1]{}: in 0x93-0x94 (1)
0x90|         0b                                    |   .            |                  opcode: "end" (0xb) 0x93-0x94 (1)
    |                                               |                |              b{}: 0x94-0x98 (4)
0x90|            03                                 |    .           |                n: 3 (valid) 0x94-0x95 (1)
0x90|               61 62 63                        |     abc        |                x: raw bits 0x95-0x98 (3)
    |                                               |                |            [20]{}: seg 0x98-0x9d (5)
0x90|                        00                     |        .       |              tag: 0 (valid) 0x98-0x99 (1)
    |                                               |                |              e[0:2]: 0x99-0x9c (3)
    |                                               |                |                [0]{}: in 0x99-0x9b (2)
0x90|                           41                  |         A      |                  opcode: "i32.const" (0x41) 0x99-0x9a (1)
0x90|                              00               |          .     |                  n: 0 (valid) 0x9a-0x9b (1)
    |                                               |                |                [1]{}: in 0x9b-0x9c (1)
0x90|                                 0b            |           .    |                  opcode: "end" (0xb) 0x9b-0x9c (1)
    |                                               |                |              b{}: 0x9c-0x9d (1)
0x90|                                    00         |            .   |                n: 0 (valid) 0x9c-0x9d (1)
    |                                               |                |                x: raw bits 0x9d-0x9d (0)
    |                                               |                |            [21]{}: seg 0x9d-0xa6 (9)
0x90|                                       00      |             .  |              tag: 0 (valid) 0x9d-0x9e (1)
    |                                               |                |              e[0:2]: 0x9e-0xa1 (3)
    |                                               |                |                [0]{}: in 0x9e-0xa0 (2)
0x90|                                          41   |              A |                  opcode: "i32.const" (0x41) 0x9e-0x9f (1)
0x90|                                             01|               .|                  n: 1 (valid) 0x9f-0xa0 (1)
    |                                               |                |                [1]{}: in 0xa0-0xa1 (1)
0xa0|0b                                             |.               |                  opcode: "end" (0xb) 0xa0-0xa1 (1)
    |                                               |                |              b{}: 0xa1-0xa6 (5)
0xa0|   04                                          | .              |                n: 4 (valid) 0xa1-0xa2 (1)
0xa0|      61 62 63 64                              |  abcd          |                x: raw bits 0xa2-0xa6 (4)
    |                                               |                |            [22]{}: seg 0xa6-0xab (5)
0xa0|                  00                           |      .         |              tag: 0 (valid) 0xa6-0xa7 (1)
    |                                               |                |              e[0:2]: 0xa7-0xaa (3)
    |                                               |                |                [0]{}: in 0xa7-0xa9 (2)
0xa0|                     41                        |       A        |                  opcode: "i32.const" (0x41) 0xa7-0xa8 (1)
0xa0|                        00                     |        .       |                  n: 0 (valid) 0xa8-0xa9 (1)
    |                                               |                |                [1]{}: in 0xa9-0xaa (1)
0xa0|                           0b                  |         .      |                  opcode: "end" (0xb) 0xa9-0xaa (1)
    |                                               |                |              b{}: 0xaa-0xab (1)
0xa0|                              00               |          .     |                n: 0 (valid) 0xaa-0xab (1)
    |                                               |                |                x: raw bits 0xab-0xab (0)
    |                                               |                |            [23]{}: seg 0xab-0xb3 (8)
0xa0|                                 00            |           .    |              tag: 0 (valid) 0xab-0xac (1)
    |                                               |                |              e[0:2]: 0xac-0xaf (3)
    |                                               |                |                [0]{}: in 0xac-0xae (2)
0xa0|                                    41         |            A   |                  opcode: "i32.const" (0x41) 0xac-0xad (1)
0xa0|                                       00      |             .  |                  n: 0 (valid) 0xad-0xae (1)
    |                                               |                |                [1]{}: in 0xae-0xaf (1)
0xa0|                                          0b   |              . |                  opcode: "end" (0xb) 0xae-0xaf (1)
    |                                               |                |              b{}: 0xaf-0xb3 (4)
0xa0|                                             03|               .|                n: 3 (valid) 0xaf-0xb0 (1)
0xb0|61 62 63|                                      |abc|            |                x: raw bits 0xb0-0xb3 (3)
