$ fq -d wasm dv data-4.wasm
    |00 01 02 03 04 05 06 07 08 09 0a 0b 0c 0d 0e 0f|0123456789abcdef|.{}: data-4.wasm (wasm) 0x0-0x46.7 (71)
0x00|00 61 73 6d                                    |.asm            |  magic: raw bits (valid) 0x0-0x3.7 (4)
0x00|            01 00 00 00                        |    ....        |  version: 1 0x4-0x7.7 (4)
    |                                               |                |  sections[0:2]: 0x8-0x46.7 (63)
    |                                               |                |    [0]{}: section 0x8-0x1d.7 (22)
0x00|                        02                     |        .       |      id: "import section" (2) 0x8-0x8.7 (1)
0x00|                           14                  |         .      |      size: 20 0x9-0x9.7 (1)
    |                                               |                |      content{}: 0xa-0x1d.7 (20)
    |                                               |                |        im{}: 0xa-0x1d.7 (20)
0x00|                              01               |          .     |          n: 1 0xa-0xa.7 (1)
    |                                               |                |          x[0:1]: 0xb-0x1d.7 (19)
    |                                               |                |            [0]{}: im 0xb-0x1d.7 (19)
    |                                               |                |              mod{}: 0xb-0x13.7 (9)
0x00|                                 08            |           .    |                n: 8 0xb-0xb.7 (1)
0x00|                                    73 70 65 63|            spec|                b: "spectest" 0xc-0x13.7 (8)
0x10|74 65 73 74                                    |test            |
    |                                               |                |              nm{}: 0x14-0x1a.7 (7)
0x10|            06                                 |    .           |                n: 6 0x14-0x14.7 (1)
0x10|               6d 65 6d 6f 72 79               |     memory     |                b: "memory" 0x15-0x1a.7 (6)
    |                                               |                |              d{}: 0x1b-0x1d.7 (3)
0x10|                                 02            |           .    |                tag: "mem" (0x2) 0x1b-0x1b.7 (1)
    |                                               |                |                mt{}: 0x1c-0x1d.7 (2)
    |                                               |                |                  lim{}: 0x1c-0x1d.7 (2)
0x10|                                    00         |            .   |                    tag: 0x0 0x1c-0x1c.7 (1)
0x10|                                       01      |             .  |                    n: 1 0x1d-0x1d.7 (1)
    |                                               |                |    [1]{}: section 0x1e-0x46.7 (41)
0x10|                                          0b   |              . |      id: "data section" (11) 0x1e-0x1e.7 (1)
0x10|                                             27|               '|      size: 39 0x1f-0x1f.7 (1)
    |                                               |                |      content{}: 0x20-0x46.7 (39)
    |                                               |                |        seg{}: 0x20-0x46.7 (39)
0x20|06                                             |.               |          n: 6 0x20-0x20.7 (1)
    |                                               |                |          x[0:6]: 0x21-0x46.7 (38)
    |                                               |                |            [0]{}: seg 0x21-0x26.7 (6)
0x20|   00                                          | .              |              tag: 0 0x21-0x21.7 (1)
    |                                               |                |              e[0:2]: 0x22-0x24.7 (3)
    |                                               |                |                [0]{}: in 0x22-0x23.7 (2)
0x20|      41                                       |  A             |                  i32.const: 0x41 (valid) 0x22-0x22.7 (1)
0x20|         00                                    |   .            |                  n: 0 0x23-0x23.7 (1)
    |                                               |                |                [1]{}: in 0x24-0x24.7 (1)
0x20|            0b                                 |    .           |                  end: 0xb (valid) 0x24-0x24.7 (1)
    |                                               |                |              b{}: 0x25-0x26.7 (2)
0x20|               01                              |     .          |                n: 1 0x25-0x25.7 (1)
0x20|                  61                           |      a         |                x: raw bits 0x26-0x26.7 (1)
    |                                               |                |            [1]{}: seg 0x27-0x2c.7 (6)
0x20|                     00                        |       .        |              tag: 0 0x27-0x27.7 (1)
    |                                               |                |              e[0:2]: 0x28-0x2a.7 (3)
    |                                               |                |                [0]{}: in 0x28-0x29.7 (2)
0x20|                        41                     |        A       |                  i32.const: 0x41 (valid) 0x28-0x28.7 (1)
0x20|                           01                  |         .      |                  n: 1 0x29-0x29.7 (1)
    |                                               |                |                [1]{}: in 0x2a-0x2a.7 (1)
0x20|                              0b               |          .     |                  end: 0xb (valid) 0x2a-0x2a.7 (1)
    |                                               |                |              b{}: 0x2b-0x2c.7 (2)
0x20|                                 01            |           .    |                n: 1 0x2b-0x2b.7 (1)
0x20|                                    62         |            b   |                x: raw bits 0x2c-0x2c.7 (1)
    |                                               |                |            [2]{}: seg 0x2d-0x34.7 (8)
0x20|                                       00      |             .  |              tag: 0 0x2d-0x2d.7 (1)
    |                                               |                |              e[0:2]: 0x2e-0x30.7 (3)
    |                                               |                |                [0]{}: in 0x2e-0x2f.7 (2)
0x20|                                          41   |              A |                  i32.const: 0x41 (valid) 0x2e-0x2e.7 (1)
0x20|                                             02|               .|                  n: 2 0x2f-0x2f.7 (1)
    |                                               |                |                [1]{}: in 0x30-0x30.7 (1)
0x30|0b                                             |.               |                  end: 0xb (valid) 0x30-0x30.7 (1)
    |                                               |                |              b{}: 0x31-0x34.7 (4)
0x30|   03                                          | .              |                n: 3 0x31-0x31.7 (1)
0x30|      63 64 65                                 |  cde           |                x: raw bits 0x32-0x34.7 (3)
    |                                               |                |            [3]{}: seg 0x35-0x3a.7 (6)
0x30|               00                              |     .          |              tag: 0 0x35-0x35.7 (1)
    |                                               |                |              e[0:2]: 0x36-0x38.7 (3)
    |                                               |                |                [0]{}: in 0x36-0x37.7 (2)
0x30|                  41                           |      A         |                  i32.const: 0x41 (valid) 0x36-0x36.7 (1)
0x30|                     03                        |       .        |                  n: 3 0x37-0x37.7 (1)
    |                                               |                |                [1]{}: in 0x38-0x38.7 (1)
0x30|                        0b                     |        .       |                  end: 0xb (valid) 0x38-0x38.7 (1)
    |                                               |                |              b{}: 0x39-0x3a.7 (2)
0x30|                           01                  |         .      |                n: 1 0x39-0x39.7 (1)
0x30|                              66               |          f     |                x: raw bits 0x3a-0x3a.7 (1)
    |                                               |                |            [4]{}: seg 0x3b-0x40.7 (6)
0x30|                                 00            |           .    |              tag: 0 0x3b-0x3b.7 (1)
    |                                               |                |              e[0:2]: 0x3c-0x3e.7 (3)
    |                                               |                |                [0]{}: in 0x3c-0x3d.7 (2)
0x30|                                    41         |            A   |                  i32.const: 0x41 (valid) 0x3c-0x3c.7 (1)
0x30|                                       02      |             .  |                  n: 2 0x3d-0x3d.7 (1)
    |                                               |                |                [1]{}: in 0x3e-0x3e.7 (1)
0x30|                                          0b   |              . |                  end: 0xb (valid) 0x3e-0x3e.7 (1)
    |                                               |                |              b{}: 0x3f-0x40.7 (2)
0x30|                                             01|               .|                n: 1 0x3f-0x3f.7 (1)
0x40|67                                             |g               |                x: raw bits 0x40-0x40.7 (1)
    |                                               |                |            [5]{}: seg 0x41-0x46.7 (6)
0x40|   00                                          | .              |              tag: 0 0x41-0x41.7 (1)
    |                                               |                |              e[0:2]: 0x42-0x44.7 (3)
    |                                               |                |                [0]{}: in 0x42-0x43.7 (2)
0x40|      41                                       |  A             |                  i32.const: 0x41 (valid) 0x42-0x42.7 (1)
0x40|         01                                    |   .            |                  n: 1 0x43-0x43.7 (1)
    |                                               |                |                [1]{}: in 0x44-0x44.7 (1)
0x40|            0b                                 |    .           |                  end: 0xb (valid) 0x44-0x44.7 (1)
    |                                               |                |              b{}: 0x45-0x46.7 (2)
0x40|               01                              |     .          |                n: 1 0x45-0x45.7 (1)
0x40|                  68|                          |      h|        |                x: raw bits 0x46-0x46.7 (1)
