$ fq -d wasm dv data-1.wasm
    |00 01 02 03 04 05 06 07 08 09 0a 0b 0c 0d 0e 0f|0123456789abcdef|.{}: data-1.wasm (wasm) 0x0-0x16 (22)
0x00|00 61 73 6d                                    |.asm            |  magic: raw bits (valid) 0x0-0x4 (4)
0x00|            01 00 00 00                        |    ....        |  version: 1 0x4-0x8 (4)
    |                                               |                |  sections[0:2]: 0x8-0x16 (14)
    |                                               |                |    [0]{}: section 0x8-0xd (5)
0x00|                        05                     |        .       |      id: "memory_section" (5) 0x8-0x9 (1)
0x00|                           03                  |         .      |      size: 3 (valid) 0x9-0xa (1)
    |                                               |                |      content{}: 0xa-0xd (3)
    |                                               |                |        mem{}: 0xa-0xd (3)
0x00|                              01               |          .     |          n: 1 (valid) 0xa-0xb (1)
    |                                               |                |          x[0:1]: 0xb-0xd (2)
    |                                               |                |            [0]{}: mem 0xb-0xd (2)
    |                                               |                |              lim{}: 0xb-0xd (2)
0x00|                                 00            |           .    |                tag: 0x0 0xb-0xc (1)
0x00|                                    01         |            .   |                n: 1 (valid) 0xc-0xd (1)
    |                                               |                |    [1]{}: section 0xd-0x16 (9)
0x00|                                       0b      |             .  |      id: "data_section" (11) 0xd-0xe (1)
0x00|                                          07   |              . |      size: 7 (valid) 0xe-0xf (1)
    |                                               |                |      content{}: 0xf-0x16 (7)
    |                                               |                |        seg{}: 0xf-0x16 (7)
0x00|                                             01|               .|          n: 1 (valid) 0xf-0x10 (1)
    |                                               |                |          x[0:1]: 0x10-0x16 (6)
    |                                               |                |            [0]{}: seg 0x10-0x16 (6)
0x10|00                                             |.               |              tag: 0 (valid) 0x10-0x11 (1)
    |                                               |                |              e[0:2]: 0x11-0x14 (3)
    |                                               |                |                [0]{}: in 0x11-0x13 (2)
0x10|   41                                          | A              |                  opcode: "i32.const" (0x41) 0x11-0x12 (1)
0x10|      00                                       |  .             |                  n: 0 (valid) 0x12-0x13 (1)
    |                                               |                |                [1]{}: in 0x13-0x14 (1)
0x10|         0b                                    |   .            |                  opcode: "end" (0xb) 0x13-0x14 (1)
    |                                               |                |              b{}: 0x14-0x16 (2)
0x10|            01                                 |    .           |                n: 1 (valid) 0x14-0x15 (1)
0x10|               61|                             |     a|         |                x: raw bits 0x15-0x16 (1)
