$ fq -d wasm dv data-3.wasm
    |00 01 02 03 04 05 06 07 08 09 0a 0b 0c 0d 0e 0f|0123456789abcdef|.{}: data-3.wasm (wasm) 0x0-0x31 (49)
0x00|00 61 73 6d                                    |.asm            |  magic: raw bits (valid) 0x0-0x4 (4)
0x00|            01 00 00 00                        |    ....        |  version: 1 0x4-0x8 (4)
    |                                               |                |  sections[0:2]: 0x8-0x31 (41)
    |                                               |                |    [0]{}: section 0x8-0xd (5)
0x00|                        05                     |        .       |      id: "memory_section" (5) 0x8-0x9 (1)
0x00|                           03                  |         .      |      size: 3 (valid) 0x9-0xa (1)
    |                                               |                |      content{}: 0xa-0xd (3)
    |                                               |                |        mem{}: 0xa-0xd (3)
0x00|                              01               |          .     |          n: 1 (valid) 0xa-0xb (1)
    |                                               |                |          x[0:1]: 0xb-0xd (2)
    |                                               |                |            [0]{}: mem 0xb-0xd (2)
    |                                               |                |              lim{}: 0xb-0xd (2)
0x00|                                 00            |           .    |                tag: 0x0 0xb-0xc (1)
0x00|                                    01         |            .   |                n: 1 (valid) 0xc-0xd (1)
    |                                               |                |    [1]{}: section 0xd-0x31 (36)
0x00|                                       0b      |             .  |      id: "data_section" (11) 0xd-0xe (1)
0x00|                                          22   |              " |      size: 34 (valid) 0xe-0xf (1)
    |                                               |                |      content{}: 0xf-0x31 (34)
    |                                               |                |        seg{}: 0xf-0x31 (34)
0x00|                                             05|               .|          n: 5 (valid) 0xf-0x10 (1)
    |                                               |                |          x[0:5]: 0x10-0x31 (33)
    |                                               |                |            [0]{}: seg 0x10-0x16 (6)
0x10|00                                             |.               |              tag: 0 (valid) 0x10-0x11 (1)
    |                                               |                |              e[0:2]: 0x11-0x14 (3)
    |                                               |                |                [0]{}: in 0x11-0x13 (2)
0x10|   41                                          | A              |                  opcode: "i32.const" (0x41) 0x11-0x12 (1)
0x10|      00                                       |  .             |                  n: 0 (valid) 0x12-0x13 (1)
    |                                               |                |                [1]{}: in 0x13-0x14 (1)
0x10|         0b                                    |   .            |                  opcode: "end" (0xb) 0x13-0x14 (1)
    |                                               |                |              b{}: 0x14-0x16 (2)
0x10|            01                                 |    .           |                n: 1 (valid) 0x14-0x15 (1)
0x10|               61                              |     a          |                x: raw bits 0x15-0x16 (1)
    |                                               |                |            [1]{}: seg 0x16-0x1c (6)
0x10|                  00                           |      .         |              tag: 0 (valid) 0x16-0x17 (1)
    |                                               |                |              e[0:2]: 0x17-0x1a (3)
    |                                               |                |                [0]{}: in 0x17-0x19 (2)
0x10|                     41                        |       A        |                  opcode: "i32.const" (0x41) 0x17-0x18 (1)
0x10|                        03                     |        .       |                  n: 3 (valid) 0x18-0x19 (1)
    |                                               |                |                [1]{}: in 0x19-0x1a (1)
0x10|                           0b                  |         .      |                  opcode: "end" (0xb) 0x19-0x1a (1)
    |                                               |                |              b{}: 0x1a-0x1c (2)
0x10|                              01               |          .     |                n: 1 (valid) 0x1a-0x1b (1)
0x10|                                 62            |           b    |                x: raw bits 0x1b-0x1c (1)
    |                                               |                |            [2]{}: seg 0x1c-0x25 (9)
0x10|                                    00         |            .   |              tag: 0 (valid) 0x1c-0x1d (1)
    |                                               |                |              e[0:2]: 0x1d-0x21 (4)
    |                                               |                |                [0]{}: in 0x1d-0x20 (3)
0x10|                                       41      |             A  |                  opcode: "i32.const" (0x41) 0x1d-0x1e (1)
0x10|                                          e4 00|              ..|                  n: 100 (valid) 0x1e-0x20 (2)
    |                                               |                |                [1]{}: in 0x20-0x21 (1)
0x20|0b                                             |.               |                  opcode: "end" (0xb) 0x20-0x21 (1)
    |                                               |                |              b{}: 0x21-0x25 (4)
0x20|   03                                          | .              |                n: 3 (valid) 0x21-0x22 (1)
0x20|      63 64 65                                 |  cde           |                x: raw bits 0x22-0x25 (3)
    |                                               |                |            [3]{}: seg 0x25-0x2b (6)
0x20|               00                              |     .          |              tag: 0 (valid) 0x25-0x26 (1)
    |                                               |                |              e[0:2]: 0x26-0x29 (3)
    |                                               |                |                [0]{}: in 0x26-0x28 (2)
0x20|                  41                           |      A         |                  opcode: "i32.const" (0x41) 0x26-0x27 (1)
0x20|                     05                        |       .        |                  n: 5 (valid) 0x27-0x28 (1)
    |                                               |                |                [1]{}: in 0x28-0x29 (1)
0x20|                        0b                     |        .       |                  opcode: "end" (0xb) 0x28-0x29 (1)
    |                                               |                |              b{}: 0x29-0x2b (2)
0x20|                           01                  |         .      |                n: 1 (valid) 0x29-0x2a (1)
0x20|                              78               |          x     |                x: raw bits 0x2a-0x2b (1)
    |                                               |                |            [4]{}: seg 0x2b-0x31 (6)
0x20|                                 00            |           .    |              tag: 0 (valid) 0x2b-0x2c (1)
    |                                               |                |              e[0:2]: 0x2c-0x2f (3)
    |                                               |                |                [0]{}: in 0x2c-0x2e (2)
0x20|                                    41         |            A   |                  opcode: "i32.const" (0x41) 0x2c-0x2d (1)
0x20|                                       03      |             .  |                  n: 3 (valid) 0x2d-0x2e (1)
    |                                               |                |                [1]{}: in 0x2e-0x2f (1)
0x20|                                          0b   |              . |                  opcode: "end" (0xb) 0x2e-0x2f (1)
    |                                               |                |              b{}: 0x2f-0x31 (2)
0x20|                                             01|               .|                n: 1 (valid) 0x2f-0x30 (1)
0x30|63|                                            |c|              |                x: raw bits 0x30-0x31 (1)
