$ fq -d wasm dv data-10.wasm
    |00 01 02 03 04 05 06 07 08 09 0a 0b 0c 0d 0e 0f|0123456789abcdef|.{}: data-10.wasm (wasm) 0x0-0x2f (47)
0x00|00 61 73 6d                                    |.asm            |  magic: raw bits (valid) 0x0-0x4 (4)
0x00|            01 00 00 00                        |    ....        |  version: 1 0x4-0x8 (4)
    |                                               |                |  sections[0:2]: 0x8-0x2f (39)
    |                                               |                |    [0]{}: section 0x8-0x1e (22)
0x00|                        02                     |        .       |      id: "import_section" (2) 0x8-0x9 (1)
0x00|                           14                  |         .      |      size: 20 (valid) 0x9-0xa (1)
    |                                               |                |      content{}: 0xa-0x1e (20)
    |                                               |                |        im{}: 0xa-0x1e (20)
0x00|                              01               |          .     |          n: 1 (valid) 0xa-0xb (1)
    |                                               |                |          x[0:1]: 0xb-0x1e (19)
    |                                               |                |            [0]{}: im 0xb-0x1e (19)
    |                                               |                |              mod{}: 0xb-0x14 (9)
0x00|                                 08            |           .    |                n: 8 (valid) 0xb-0xc (1)
0x00|                                    73 70 65 63|            spec|                b: "spectest" 0xc-0x14 (8)
0x10|74 65 73 74                                    |test            |
    |                                               |                |              nm{}: 0x14-0x1b (7)
0x10|            06                                 |    .           |                n: 6 (valid) 0x14-0x15 (1)
0x10|               6d 65 6d 6f 72 79               |     memory     |                b: "memory" 0x15-0x1b (6)
    |                                               |                |              d{}: 0x1b-0x1e (3)
0x10|                                 02            |           .    |                tag: "mem" (0x2) 0x1b-0x1c (1)
    |                                               |                |                mt{}: 0x1c-0x1e (2)
    |                                               |                |                  lim{}: 0x1c-0x1e (2)
0x10|                                    00         |            .   |                    tag: 0x0 0x1c-0x1d (1)
0x10|                                       01      |             .  |                    n: 1 (valid) 0x1d-0x1e (1)
    |                                               |                |    [1]{}: section 0x1e-0x2f (17)
0x10|                                          0b   |              . |      id: "data_section" (11) 0x1e-0x1f (1)
0x10|                                             0f|               .|      size: 15 (valid) 0x1f-0x20 (1)
    |                                               |                |      content{}: 0x20-0x2f (15)
    |                                               |                |        seg{}: 0x20-0x2f (15)
0x20|02                                             |.               |          n: 2 (valid) 0x20-0x21 (1)
    |                                               |                |          x[0:2]: 0x21-0x2f (14)
    |                                               |                |            [0]{}: seg 0x21-0x27 (6)
0x20|   00                                          | .              |              tag: 0 (valid) 0x21-0x22 (1)
    |                                               |                |              e[0:2]: 0x22-0x25 (3)
    |                                               |                |                [0]{}: in 0x22-0x24 (2)
0x20|      41                                       |  A             |                  opcode: "i32.const" (0x41) 0x22-0x23 (1)
0x20|         00                                    |   .            |                  n: 0 (valid) 0x23-0x24 (1)
    |                                               |                |                [1]{}: in 0x24-0x25 (1)
0x20|            0b                                 |    .           |                  opcode: "end" (0xb) 0x24-0x25 (1)
    |                                               |                |              b{}: 0x25-0x27 (2)
0x20|               01                              |     .          |                n: 1 (valid) 0x25-0x26 (1)
0x20|                  61                           |      a         |                x: raw bits 0x26-0x27 (1)
    |                                               |                |            [1]{}: seg 0x27-0x2f (8)
0x20|                     00                        |       .        |              tag: 0 (valid) 0x27-0x28 (1)
    |                                               |                |              e[0:2]: 0x28-0x2d (5)
    |                                               |                |                [0]{}: in 0x28-0x2c (4)
0x20|                        41                     |        A       |                  opcode: "i32.const" (0x41) 0x28-0x29 (1)
0x20|                           ff ff 03            |         ...    |                  n: 65535 (valid) 0x29-0x2c (3)
    |                                               |                |                [1]{}: in 0x2c-0x2d (1)
0x20|                                    0b         |            .   |                  opcode: "end" (0xb) 0x2c-0x2d (1)
    |                                               |                |              b{}: 0x2d-0x2f (2)
0x20|                                       01      |             .  |                n: 1 (valid) 0x2d-0x2e (1)
0x20|                                          62|  |              b||                x: raw bits 0x2e-0x2f (1)
