$ fq -d wasm dv elem-23.wasm
    |00 01 02 03 04 05 06 07 08 09 0a 0b 0c 0d 0e 0f|0123456789abcdef|.{}: elem-23.wasm (wasm) 0x0-0x80 (128)
0x00|00 61 73 6d                                    |.asm            |  magic: raw bits (valid) 0x0-0x4 (4)
0x00|            01 00 00 00                        |    ....        |  version: 1 0x4-0x8 (4)
    |                                               |                |  sections[0:6]: 0x8-0x80 (120)
    |                                               |                |    [0]{}: section 0x8-0xf (7)
0x00|                        01                     |        .       |      id: "type_section" (1) 0x8-0x9 (1)
0x00|                           05                  |         .      |      size: 5 (valid) 0x9-0xa (1)
    |                                               |                |      content{}: 0xa-0xf (5)
    |                                               |                |        ft{}: 0xa-0xf (5)
0x00|                              01               |          .     |          n: 1 (valid) 0xa-0xb (1)
    |                                               |                |          x[0:1]: 0xb-0xf (4)
    |                                               |                |            [0]{}: ft 0xb-0xf (4)
0x00|                                 60            |           `    |              tag: 0x60 (valid) 0xb-0xc (1)
    |                                               |                |              rt1{}: 0xc-0xd (1)
0x00|                                    00         |            .   |                n: 0 (valid) 0xc-0xd (1)
    |                                               |                |                x[0:0]: 0xd-0xd (0)
    |                                               |                |              rt2{}: 0xd-0xf (2)
0x00|                                       01      |             .  |                n: 1 (valid) 0xd-0xe (1)
    |                                               |                |                x[0:1]: 0xe-0xf (1)
0x00|                                          7f   |              . |                  [0]: "i32" (0x7f) t 0xe-0xf (1)
    |                                               |                |    [1]{}: section 0xf-0x17 (8)
0x00|                                             03|               .|      id: "function_section" (3) 0xf-0x10 (1)
0x10|06                                             |.               |      size: 6 (valid) 0x10-0x11 (1)
    |                                               |                |      content{}: 0x11-0x17 (6)
    |                                               |                |        x{}: 0x11-0x17 (6)
0x10|   05                                          | .              |          n: 5 (valid) 0x11-0x12 (1)
    |                                               |                |          x[0:5]: 0x12-0x17 (5)
0x10|      00                                       |  .             |            [0]: 0 x (valid) 0x12-0x13 (1)
0x10|         00                                    |   .            |            [1]: 0 x (valid) 0x13-0x14 (1)
0x10|            00                                 |    .           |            [2]: 0 x (valid) 0x14-0x15 (1)
0x10|               00                              |     .          |            [3]: 0 x (valid) 0x15-0x16 (1)
0x10|                  00                           |      .         |            [4]: 0 x (valid) 0x16-0x17 (1)
    |                                               |                |    [2]{}: section 0x17-0x1d (6)
0x10|                     04                        |       .        |      id: "table_section" (4) 0x17-0x18 (1)
0x10|                        04                     |        .       |      size: 4 (valid) 0x18-0x19 (1)
    |                                               |                |      content{}: 0x19-0x1d (4)
    |                                               |                |        tab{}: 0x19-0x1d (4)
0x10|                           01                  |         .      |          n: 1 (valid) 0x19-0x1a (1)
    |                                               |                |          x[0:1]: 0x1a-0x1d (3)
    |                                               |                |            [0]{}: tab 0x1a-0x1d (3)
0x10|                              70               |          p     |              et: "funcref" (112) 0x1a-0x1b (1)
    |                                               |                |              lim{}: 0x1b-0x1d (2)
0x10|                                 00            |           .    |                tag: 0x0 0x1b-0x1c (1)
0x10|                                    0a         |            .   |                n: 10 (valid) 0x1c-0x1d (1)
    |                                               |                |    [3]{}: section 0x1d-0x4a (45)
0x10|                                       07      |             .  |      id: "export_section" (7) 0x1d-0x1e (1)
0x10|                                          2b   |              + |      size: 43 (valid) 0x1e-0x1f (1)
    |                                               |                |      content{}: 0x1f-0x4a (43)
    |                                               |                |        ex{}: 0x1f-0x4a (43)
0x10|                                             04|               .|          n: 4 (valid) 0x1f-0x20 (1)
    |                                               |                |          x[0:4]: 0x20-0x4a (42)
    |                                               |                |            [0]{}: ex 0x20-0x2f (15)
    |                                               |                |              nm{}: 0x20-0x2d (13)
0x20|0c                                             |.               |                n: 12 (valid) 0x20-0x21 (1)
0x20|   73 68 61 72 65 64 2d 74 61 62 6c 65         | shared-table   |                b: "shared-table" 0x21-0x2d (12)
    |                                               |                |              d{}: 0x2d-0x2f (2)
0x20|                                       01      |             .  |                tag: "tableidx" (0x1) 0x2d-0x2e (1)
0x20|                                          00   |              . |                x: 0 (valid) 0x2e-0x2f (1)
    |                                               |                |            [1]{}: ex 0x2f-0x38 (9)
    |                                               |                |              nm{}: 0x2f-0x36 (7)
0x20|                                             06|               .|                n: 6 (valid) 0x2f-0x30 (1)
0x30|63 61 6c 6c 2d 37                              |call-7          |                b: "call-7" 0x30-0x36 (6)
    |                                               |                |              d{}: 0x36-0x38 (2)
0x30|                  00                           |      .         |                tag: "funcidx" (0x0) 0x36-0x37 (1)
0x30|                     02                        |       .        |                x: 2 (valid) 0x37-0x38 (1)
    |                                               |                |            [2]{}: ex 0x38-0x41 (9)
    |                                               |                |              nm{}: 0x38-0x3f (7)
0x30|                        06                     |        .       |                n: 6 (valid) 0x38-0x39 (1)
0x30|                           63 61 6c 6c 2d 38   |         call-8 |                b: "call-8" 0x39-0x3f (6)
    |                                               |                |              d{}: 0x3f-0x41 (2)
0x30|                                             00|               .|                tag: "funcidx" (0x0) 0x3f-0x40 (1)
0x40|03                                             |.               |                x: 3 (valid) 0x40-0x41 (1)
    |                                               |                |            [3]{}: ex 0x41-0x4a (9)
    |                                               |                |              nm{}: 0x41-0x48 (7)
0x40|   06                                          | .              |                n: 6 (valid) 0x41-0x42 (1)
0x40|      63 61 6c 6c 2d 39                        |  call-9        |                b: "call-9" 0x42-0x48 (6)
    |                                               |                |              d{}: 0x48-0x4a (2)
0x40|                        00                     |        .       |                tag: "funcidx" (0x0) 0x48-0x49 (1)
0x40|                           04                  |         .      |                x: 4 (valid) 0x49-0x4a (1)
    |                                               |                |    [4]{}: section 0x4a-0x59 (15)
0x40|                              09               |          .     |      id: "element_section" (9) 0x4a-0x4b (1)
0x40|                                 0d            |           .    |      size: 13 (valid) 0x4b-0x4c (1)
    |                                               |                |      element{}: 0x4c-0x59 (13)
    |                                               |                |        seg{}: 0x4c-0x59 (13)
0x40|                                    02         |            .   |          n: 2 (valid) 0x4c-0x4d (1)
    |                                               |                |          x[0:2]: 0x4d-0x59 (12)
    |                                               |                |            [0]{}: seg 0x4d-0x53 (6)
0x40|                                       00      |             .  |              tag: 0 (valid) 0x4d-0x4e (1)
    |                                               |                |              e[0:2]: 0x4e-0x51 (3)
    |                                               |                |                [0]{}: in 0x4e-0x50 (2)
0x40|                                          41   |              A |                  opcode: "i32.const" (0x41) 0x4e-0x4f (1)
0x40|                                             08|               .|                  n: 8 (valid) 0x4f-0x50 (1)
    |                                               |                |                [1]{}: in 0x50-0x51 (1)
0x50|0b                                             |.               |                  opcode: "end" (0xb) 0x50-0x51 (1)
    |                                               |                |              y{}: 0x51-0x53 (2)
0x50|   01                                          | .              |                n: 1 (valid) 0x51-0x52 (1)
    |                                               |                |                x[0:1]: 0x52-0x53 (1)
0x50|      00                                       |  .             |                  [0]: 0 y (valid) 0x52-0x53 (1)
    |                                               |                |            [1]{}: seg 0x53-0x59 (6)
0x50|         00                                    |   .            |              tag: 0 (valid) 0x53-0x54 (1)
    |                                               |                |              e[0:2]: 0x54-0x57 (3)
    |                                               |                |                [0]{}: in 0x54-0x56 (2)
0x50|            41                                 |    A           |                  opcode: "i32.const" (0x41) 0x54-0x55 (1)
0x50|               09                              |     .          |                  n: 9 (valid) 0x55-0x56 (1)
    |                                               |                |                [1]{}: in 0x56-0x57 (1)
0x50|                  0b                           |      .         |                  opcode: "end" (0xb) 0x56-0x57 (1)
    |                                               |                |              y{}: 0x57-0x59 (2)
0x50|                     01                        |       .        |                n: 1 (valid) 0x57-0x58 (1)
    |                                               |                |                x[0:1]: 0x58-0x59 (1)
0x50|                        01                     |        .       |                  [0]: 1 y (valid) 0x58-0x59 (1)
    |                                               |                |    [5]{}: section 0x59-0x80 (39)
0x50|                           0a                  |         .      |      id: "code_section" (10) 0x59-0x5a (1)
0x50|                              25               |          %     |      size: 37 (valid) 0x5a-0x5b (1)
    |                                               |                |      content{}: 0x5b-0x80 (37)
    |                                               |                |        code{}: 0x5b-0x80 (37)
0x50|                                 05            |           .    |          n: 5 (valid) 0x5b-0x5c (1)
    |                                               |                |          x[0:5]: 0x5c-0x80 (36)
    |                                               |                |            [0]{}: code 0x5c-0x62 (6)
0x50|                                    05         |            .   |              size: 5 (valid) 0x5c-0x5d (1)
    |                                               |                |              code{}: 0x5d-0x62 (5)
    |                                               |                |                t{}: 0x5d-0x5e (1)
0x50|                                       00      |             .  |                  n: 0 (valid) 0x5d-0x5e (1)
    |                                               |                |                  x[0:0]: 0x5e-0x5e (0)
    |                                               |                |                e[0:2]: 0x5e-0x62 (4)
    |                                               |                |                  [0]{}: in 0x5e-0x61 (3)
0x50|                                          41   |              A |                    opcode: "i32.const" (0x41) 0x5e-0x5f (1)
0x50|                                             c1|               .|                    n: 65 (valid) 0x5f-0x61 (2)
0x60|00                                             |.               |
    |                                               |                |                  [1]{}: in 0x61-0x62 (1)
0x60|   0b                                          | .              |                    opcode: "end" (0xb) 0x61-0x62 (1)
    |                                               |                |            [1]{}: code 0x62-0x68 (6)
0x60|      05                                       |  .             |              size: 5 (valid) 0x62-0x63 (1)
    |                                               |                |              code{}: 0x63-0x68 (5)
    |                                               |                |                t{}: 0x63-0x64 (1)
0x60|         00                                    |   .            |                  n: 0 (valid) 0x63-0x64 (1)
    |                                               |                |                  x[0:0]: 0x64-0x64 (0)
    |                                               |                |                e[0:2]: 0x64-0x68 (4)
    |                                               |                |                  [0]{}: in 0x64-0x67 (3)
0x60|            41                                 |    A           |                    opcode: "i32.const" (0x41) 0x64-0x65 (1)
0x60|               c2 00                           |     ..         |                    n: 66 (valid) 0x65-0x67 (2)
    |                                               |                |                  [1]{}: in 0x67-0x68 (1)
0x60|                     0b                        |       .        |                    opcode: "end" (0xb) 0x67-0x68 (1)
    |                                               |                |            [2]{}: code 0x68-0x70 (8)
0x60|                        07                     |        .       |              size: 7 (valid) 0x68-0x69 (1)
    |                                               |                |              code{}: 0x69-0x70 (7)
    |                                               |                |                t{}: 0x69-0x6a (1)
0x60|                           00                  |         .      |                  n: 0 (valid) 0x69-0x6a (1)
    |                                               |                |                  x[0:0]: 0x6a-0x6a (0)
    |                                               |                |                e[0:3]: 0x6a-0x70 (6)
    |                                               |                |                  [0]{}: in 0x6a-0x6c (2)
0x60|                              41               |          A     |                    opcode: "i32.const" (0x41) 0x6a-0x6b (1)
0x60|                                 07            |           .    |                    n: 7 (valid) 0x6b-0x6c (1)
    |                                               |                |                  [1]{}: in 0x6c-0x6f (3)
0x60|                                    11         |            .   |                    opcode: "call_indirect" (0x11) 0x6c-0x6d (1)
0x60|                                       00      |             .  |                    y: 0 (valid) 0x6d-0x6e (1)
0x60|                                          00   |              . |                    x: 0 (valid) 0x6e-0x6f (1)
    |                                               |                |                  [2]{}: in 0x6f-0x70 (1)
0x60|                                             0b|               .|                    opcode: "end" (0xb) 0x6f-0x70 (1)
    |                                               |                |            [3]{}: code 0x70-0x78 (8)
0x70|07                                             |.               |              size: 7 (valid) 0x70-0x71 (1)
    |                                               |                |              code{}: 0x71-0x78 (7)
    |                                               |                |                t{}: 0x71-0x72 (1)
0x70|   00                                          | .              |                  n: 0 (valid) 0x71-0x72 (1)
    |                                               |                |                  x[0:0]: 0x72-0x72 (0)
    |                                               |                |                e[0:3]: 0x72-0x78 (6)
    |                                               |                |                  [0]{}: in 0x72-0x74 (2)
0x70|      41                                       |  A             |                    opcode: "i32.const" (0x41) 0x72-0x73 (1)
0x70|         08                                    |   .            |                    n: 8 (valid) 0x73-0x74 (1)
    |                                               |                |                  [1]{}: in 0x74-0x77 (3)
0x70|            11                                 |    .           |                    opcode: "call_indirect" (0x11) 0x74-0x75 (1)
0x70|               00                              |     .          |                    y: 0 (valid) 0x75-0x76 (1)
0x70|                  00                           |      .         |                    x: 0 (valid) 0x76-0x77 (1)
    |                                               |                |                  [2]{}: in 0x77-0x78 (1)
0x70|                     0b                        |       .        |                    opcode: "end" (0xb) 0x77-0x78 (1)
    |                                               |                |            [4]{}: code 0x78-0x80 (8)
0x70|                        07                     |        .       |              size: 7 (valid) 0x78-0x79 (1)
    |                                               |                |              code{}: 0x79-0x80 (7)
    |                                               |                |                t{}: 0x79-0x7a (1)
0x70|                           00                  |         .      |                  n: 0 (valid) 0x79-0x7a (1)
    |                                               |                |                  x[0:0]: 0x7a-0x7a (0)
    |                                               |                |                e[0:3]: 0x7a-0x80 (6)
    |                                               |                |                  [0]{}: in 0x7a-0x7c (2)
0x70|                              41               |          A     |                    opcode: "i32.const" (0x41) 0x7a-0x7b (1)
0x70|                                 09            |           .    |                    n: 9 (valid) 0x7b-0x7c (1)
    |                                               |                |                  [1]{}: in 0x7c-0x7f (3)
0x70|                                    11         |            .   |                    opcode: "call_indirect" (0x11) 0x7c-0x7d (1)
0x70|                                       00      |             .  |                    y: 0 (valid) 0x7d-0x7e (1)
0x70|                                          00   |              . |                    x: 0 (valid) 0x7e-0x7f (1)
    |                                               |                |                  [2]{}: in 0x7f-0x80 (1)
0x70|                                             0b|               .|                    opcode: "end" (0xb) 0x7f-0x80 (1)
