$ fq -d wasm dv elem-24.wasm
    |00 01 02 03 04 05 06 07 08 09 0a 0b 0c 0d 0e 0f|0123456789abcdef|.{}: elem-24.wasm (wasm) 0x0-0x4e (78)
0x00|00 61 73 6d                                    |.asm            |  magic: raw bits (valid) 0x0-0x4 (4)
0x00|            01 00 00 00                        |    ....        |  version: 1 0x4-0x8 (4)
    |                                               |                |  sections[0:5]: 0x8-0x4e (70)
    |                                               |                |    [0]{}: section 0x8-0xf (7)
0x00|                        01                     |        .       |      id: "type_section" (1) 0x8-0x9 (1)
0x00|                           05                  |         .      |      size: 5 (valid) 0x9-0xa (1)
    |                                               |                |      content{}: 0xa-0xf (5)
    |                                               |                |        ft{}: 0xa-0xf (5)
0x00|                              01               |          .     |          n: 1 (valid) 0xa-0xb (1)
    |                                               |                |          x[0:1]: 0xb-0xf (4)
    |                                               |                |            [0]{}: ft 0xb-0xf (4)
0x00|                                 60            |           `    |              tag: 0x60 (valid) 0xb-0xc (1)
    |                                               |                |              rt1{}: 0xc-0xd (1)
0x00|                                    00         |            .   |                n: 0 (valid) 0xc-0xd (1)
    |                                               |                |                x[0:0]: 0xd-0xd (0)
    |                                               |                |              rt2{}: 0xd-0xf (2)
0x00|                                       01      |             .  |                n: 1 (valid) 0xd-0xe (1)
    |                                               |                |                x[0:1]: 0xe-0xf (1)
0x00|                                          7f   |              . |                  [0]: "i32" (0x7f) t 0xe-0xf (1)
    |                                               |                |    [1]{}: section 0xf-0x2b (28)
0x00|                                             02|               .|      id: "import_section" (2) 0xf-0x10 (1)
0x10|1a                                             |.               |      size: 26 (valid) 0x10-0x11 (1)
    |                                               |                |      content{}: 0x11-0x2b (26)
    |                                               |                |        im{}: 0x11-0x2b (26)
0x10|   01                                          | .              |          n: 1 (valid) 0x11-0x12 (1)
    |                                               |                |          x[0:1]: 0x12-0x2b (25)
    |                                               |                |            [0]{}: im 0x12-0x2b (25)
    |                                               |                |              mod{}: 0x12-0x1a (8)
0x10|      07                                       |  .             |                n: 7 (valid) 0x12-0x13 (1)
0x10|         6d 6f 64 75 6c 65 31                  |   module1      |                b: "module1" 0x13-0x1a (7)
    |                                               |                |              nm{}: 0x1a-0x27 (13)
0x10|                              0c               |          .     |                n: 12 (valid) 0x1a-0x1b (1)
0x10|                                 73 68 61 72 65|           share|                b: "shared-table" 0x1b-0x27 (12)
0x20|64 2d 74 61 62 6c 65                           |d-table         |
    |                                               |                |              d{}: 0x27-0x2b (4)
0x20|                     01                        |       .        |                tag: "table" (0x1) 0x27-0x28 (1)
    |                                               |                |                tt{}: 0x28-0x2b (3)
0x20|                        70                     |        p       |                  et: "funcref" (112) 0x28-0x29 (1)
    |                                               |                |                  lim{}: 0x29-0x2b (2)
0x20|                           00                  |         .      |                    tag: 0x0 0x29-0x2a (1)
0x20|                              0a               |          .     |                    n: 10 (valid) 0x2a-0x2b (1)
    |                                               |                |    [2]{}: section 0x2b-0x30 (5)
0x20|                                 03            |           .    |      id: "function_section" (3) 0x2b-0x2c (1)
0x20|                                    03         |            .   |      size: 3 (valid) 0x2c-0x2d (1)
    |                                               |                |      content{}: 0x2d-0x30 (3)
    |                                               |                |        x{}: 0x2d-0x30 (3)
0x20|                                       02      |             .  |          n: 2 (valid) 0x2d-0x2e (1)
    |                                               |                |          x[0:2]: 0x2e-0x30 (2)
0x20|                                          00   |              . |            [0]: 0 x (valid) 0x2e-0x2f (1)
0x20|                                             00|               .|            [1]: 0 x (valid) 0x2f-0x30 (1)
    |                                               |                |    [3]{}: section 0x30-0x3f (15)
0x30|09                                             |.               |      id: "element_section" (9) 0x30-0x31 (1)
0x30|   0d                                          | .              |      size: 13 (valid) 0x31-0x32 (1)
    |                                               |                |      element{}: 0x32-0x3f (13)
    |                                               |                |        seg{}: 0x32-0x3f (13)
0x30|      02                                       |  .             |          n: 2 (valid) 0x32-0x33 (1)
    |                                               |                |          x[0:2]: 0x33-0x3f (12)
    |                                               |                |            [0]{}: seg 0x33-0x39 (6)
0x30|         00                                    |   .            |              tag: 0 (valid) 0x33-0x34 (1)
    |                                               |                |              e[0:2]: 0x34-0x37 (3)
    |                                               |                |                [0]{}: in 0x34-0x36 (2)
0x30|            41                                 |    A           |                  opcode: "i32.const" (0x41) 0x34-0x35 (1)
0x30|               07                              |     .          |                  n: 7 (valid) 0x35-0x36 (1)
    |                                               |                |                [1]{}: in 0x36-0x37 (1)
0x30|                  0b                           |      .         |                  opcode: "end" (0xb) 0x36-0x37 (1)
    |                                               |                |              y{}: 0x37-0x39 (2)
0x30|                     01                        |       .        |                n: 1 (valid) 0x37-0x38 (1)
    |                                               |                |                x[0:1]: 0x38-0x39 (1)
0x30|                        00                     |        .       |                  [0]: 0 y (valid) 0x38-0x39 (1)
    |                                               |                |            [1]{}: seg 0x39-0x3f (6)
0x30|                           00                  |         .      |              tag: 0 (valid) 0x39-0x3a (1)
    |                                               |                |              e[0:2]: 0x3a-0x3d (3)
    |                                               |                |                [0]{}: in 0x3a-0x3c (2)
0x30|                              41               |          A     |                  opcode: "i32.const" (0x41) 0x3a-0x3b (1)
0x30|                                 08            |           .    |                  n: 8 (valid) 0x3b-0x3c (1)
    |                                               |                |                [1]{}: in 0x3c-0x3d (1)
0x30|                                    0b         |            .   |                  opcode: "end" (0xb) 0x3c-0x3d (1)
    |                                               |                |              y{}: 0x3d-0x3f (2)
0x30|                                       01      |             .  |                n: 1 (valid) 0x3d-0x3e (1)
    |                                               |                |                x[0:1]: 0x3e-0x3f (1)
0x30|                                          01   |              . |                  [0]: 1 y (valid) 0x3e-0x3f (1)
    |                                               |                |    [4]{}: section 0x3f-0x4e (15)
0x30|                                             0a|               .|      id: "code_section" (10) 0x3f-0x40 (1)
0x40|0d                                             |.               |      size: 13 (valid) 0x40-0x41 (1)
    |                                               |                |      content{}: 0x41-0x4e (13)
    |                                               |                |        code{}: 0x41-0x4e (13)
0x40|   02                                          | .              |          n: 2 (valid) 0x41-0x42 (1)
    |                                               |                |          x[0:2]: 0x42-0x4e (12)
    |                                               |                |            [0]{}: code 0x42-0x48 (6)
0x40|      05                                       |  .             |              size: 5 (valid) 0x42-0x43 (1)
    |                                               |                |              code{}: 0x43-0x48 (5)
    |                                               |                |                t{}: 0x43-0x44 (1)
0x40|         00                                    |   .            |                  n: 0 (valid) 0x43-0x44 (1)
    |                                               |                |                  x[0:0]: 0x44-0x44 (0)
    |                                               |                |                e[0:2]: 0x44-0x48 (4)
    |                                               |                |                  [0]{}: in 0x44-0x47 (3)
0x40|            41                                 |    A           |                    opcode: "i32.const" (0x41) 0x44-0x45 (1)
0x40|               c3 00                           |     ..         |                    n: 67 (valid) 0x45-0x47 (2)
    |                                               |                |                  [1]{}: in 0x47-0x48 (1)
0x40|                     0b                        |       .        |                    opcode: "end" (0xb) 0x47-0x48 (1)
    |                                               |                |            [1]{}: code 0x48-0x4e (6)
0x40|                        05                     |        .       |              size: 5 (valid) 0x48-0x49 (1)
    |                                               |                |              code{}: 0x49-0x4e (5)
    |                                               |                |                t{}: 0x49-0x4a (1)
0x40|                           00                  |         .      |                  n: 0 (valid) 0x49-0x4a (1)
    |                                               |                |                  x[0:0]: 0x4a-0x4a (0)
    |                                               |                |                e[0:2]: 0x4a-0x4e (4)
    |                                               |                |                  [0]{}: in 0x4a-0x4d (3)
0x40|                              41               |          A     |                    opcode: "i32.const" (0x41) 0x4a-0x4b (1)
0x40|                                 c4 00         |           ..   |                    n: 68 (valid) 0x4b-0x4d (2)
    |                                               |                |                  [1]{}: in 0x4d-0x4e (1)
0x40|                                       0b|     |             .| |                    opcode: "end" (0xb) 0x4d-0x4e (1)
