$ fq -d wasm dv elem-1.wasm
    |00 01 02 03 04 05 06 07 08 09 0a 0b 0c 0d 0e 0f|0123456789abcdef|.{}: elem-1.wasm (wasm) 0x0-0x34 (52)
0x00|00 61 73 6d                                    |.asm            |  magic: raw bits (valid) 0x0-0x4 (4)
0x00|            01 00 00 00                        |    ....        |  version: 1 0x4-0x8 (4)
    |                                               |                |  sections[0:5]: 0x8-0x34 (44)
    |                                               |                |    [0]{}: section 0x8-0xe (6)
0x00|                        01                     |        .       |      id: "type_section" (1) 0x8-0x9 (1)
0x00|                           04                  |         .      |      size: 4 (valid) 0x9-0xa (1)
    |                                               |                |      content{}: 0xa-0xe (4)
    |                                               |                |        ft{}: 0xa-0xe (4)
0x00|                              01               |          .     |          n: 1 (valid) 0xa-0xb (1)
    |                                               |                |          x[0:1]: 0xb-0xe (3)
    |                                               |                |            [0]{}: ft 0xb-0xe (3)
0x00|                                 60            |           `    |              tag: 0x60 (valid) 0xb-0xc (1)
    |                                               |                |              rt1{}: 0xc-0xd (1)
0x00|                                    00         |            .   |                n: 0 (valid) 0xc-0xd (1)
    |                                               |                |                x[0:0]: 0xd-0xd (0)
    |                                               |                |              rt2{}: 0xd-0xe (1)
0x00|                                       00      |             .  |                n: 0 (valid) 0xd-0xe (1)
    |                                               |                |                x[0:0]: 0xe-0xe (0)
    |                                               |                |    [1]{}: section 0xe-0x13 (5)
0x00|                                          03   |              . |      id: "function_section" (3) 0xe-0xf (1)
0x00|                                             03|               .|      size: 3 (valid) 0xf-0x10 (1)
    |                                               |                |      content{}: 0x10-0x13 (3)
    |                                               |                |        x{}: 0x10-0x13 (3)
0x10|02                                             |.               |          n: 2 (valid) 0x10-0x11 (1)
    |                                               |                |          x[0:2]: 0x11-0x13 (2)
0x10|   00                                          | .              |            [0]: 0 x (valid) 0x11-0x12 (1)
0x10|      00                                       |  .             |            [1]: 0 x (valid) 0x12-0x13 (1)
    |                                               |                |    [2]{}: section 0x13-0x1a (7)
0x10|         04                                    |   .            |      id: "table_section" (4) 0x13-0x14 (1)
0x10|            05                                 |    .           |      size: 5 (valid) 0x14-0x15 (1)
    |                                               |                |      content{}: 0x15-0x1a (5)
    |                                               |                |        tab{}: 0x15-0x1a (5)
0x10|               01                              |     .          |          n: 1 (valid) 0x15-0x16 (1)
    |                                               |                |          x[0:1]: 0x16-0x1a (4)
    |                                               |                |            [0]{}: tab 0x16-0x1a (4)
0x10|                  70                           |      p         |              et: "funcref" (112) 0x16-0x17 (1)
    |                                               |                |              lim{}: 0x17-0x1a (3)
0x10|                     01                        |       .        |                tag: 0x1 0x17-0x18 (1)
0x10|                        03                     |        .       |                n: 3 (valid) 0x18-0x19 (1)
0x10|                           03                  |         .      |                m: 3 (valid) 0x19-0x1a (1)
    |                                               |                |    [3]{}: section 0x1a-0x2b (17)
0x10|                              09               |          .     |      id: "element_section" (9) 0x1a-0x1b (1)
0x10|                                 0f            |           .    |      size: 15 (valid) 0x1b-0x1c (1)
    |                                               |                |      element{}: 0x1c-0x2b (15)
    |                                               |                |        seg{}: 0x1c-0x2b (15)
0x10|                                    01         |            .   |          n: 1 (valid) 0x1c-0x1d (1)
    |                                               |                |          x[0:1]: 0x1d-0x2b (14)
    |                                               |                |            [0]{}: seg 0x1d-0x2b (14)
0x10|                                       04      |             .  |              tag: 4 (valid) 0x1d-0x1e (1)
    |                                               |                |              e[0:2]: 0x1e-0x21 (3)
    |                                               |                |                [0]{}: in 0x1e-0x20 (2)
0x10|                                          41   |              A |                  opcode: "i32.const" (0x41) 0x1e-0x1f (1)
0x10|                                             00|               .|                  n: 0 (valid) 0x1f-0x20 (1)
    |                                               |                |                [1]{}: in 0x20-0x21 (1)
0x20|0b                                             |.               |                  opcode: "end" (0xb) 0x20-0x21 (1)
    |                                               |                |              el{}: 0x21-0x2b (10)
0x20|   03                                          | .              |                n: 3 (valid) 0x21-0x22 (1)
    |                                               |                |                x[0:3]: 0x22-0x2b (9)
    |                                               |                |                  [0][0:2]: el 0x22-0x25 (3)
    |                                               |                |                    [0]{}: in 0x22-0x24 (2)
0x20|      d2                                       |  .             |                      opcode: "ref.func" (0xd2) 0x22-0x23 (1)
0x20|         00                                    |   .            |                      x: 0 (valid) 0x23-0x24 (1)
    |                                               |                |                    [1]{}: in 0x24-0x25 (1)
0x20|            0b                                 |    .           |                      opcode: "end" (0xb) 0x24-0x25 (1)
    |                                               |                |                  [1][0:2]: el 0x25-0x28 (3)
    |                                               |                |                    [0]{}: in 0x25-0x27 (2)
0x20|               d0                              |     .          |                      opcode: "ref.null" (0xd0) 0x25-0x26 (1)
0x20|                  70                           |      p         |                      t: "funcref" (112) 0x26-0x27 (1)
    |                                               |                |                    [1]{}: in 0x27-0x28 (1)
0x20|                     0b                        |       .        |                      opcode: "end" (0xb) 0x27-0x28 (1)
    |                                               |                |                  [2][0:2]: el 0x28-0x2b (3)
    |                                               |                |                    [0]{}: in 0x28-0x2a (2)
0x20|                        d2                     |        .       |                      opcode: "ref.func" (0xd2) 0x28-0x29 (1)
0x20|                           01                  |         .      |                      x: 1 (valid) 0x29-0x2a (1)
    |                                               |                |                    [1]{}: in 0x2a-0x2b (1)
0x20|                              0b               |          .     |                      opcode: "end" (0xb) 0x2a-0x2b (1)
    |                                               |                |    [4]{}: section 0x2b-0x34 (9)
0x20|                                 0a            |           .    |      id: "code_section" (10) 0x2b-0x2c (1)
0x20|                                    07         |            .   |      size: 7 (valid) 0x2c-0x2d (1)
    |                                               |                |      content{}: 0x2d-0x34 (7)
    |                                               |                |        code{}: 0x2d-0x34 (7)
0x20|                                       02      |             .  |          n: 2 (valid) 0x2d-0x2e (1)
    |                                               |                |          x[0:2]: 0x2e-0x34 (6)
    |                                               |                |            [0]{}: code 0x2e-0x31 (3)
0x20|                                          02   |              . |              size: 2 (valid) 0x2e-0x2f (1)
    |                                               |                |              code{}: 0x2f-0x31 (2)
    |                                               |                |                t{}: 0x2f-0x30 (1)
0x20|                                             00|               .|                  n: 0 (valid) 0x2f-0x30 (1)
    |                                               |                |                  x[0:0]: 0x30-0x30 (0)
    |                                               |                |                e[0:1]: 0x30-0x31 (1)
    |                                               |                |                  [0]{}: in 0x30-0x31 (1)
0x30|0b                                             |.               |                    opcode: "end" (0xb) 0x30-0x31 (1)
    |                                               |                |            [1]{}: code 0x31-0x34 (3)
0x30|   02                                          | .              |              size: 2 (valid) 0x31-0x32 (1)
    |                                               |                |              code{}: 0x32-0x34 (2)
    |                                               |                |                t{}: 0x32-0x33 (1)
0x30|      00                                       |  .             |                  n: 0 (valid) 0x32-0x33 (1)
    |                                               |                |                  x[0:0]: 0x33-0x33 (0)
    |                                               |                |                e[0:1]: 0x33-0x34 (1)
    |                                               |                |                  [0]{}: in 0x33-0x34 (1)
0x30|         0b|                                   |   .|           |                    opcode: "end" (0xb) 0x33-0x34 (1)
