$ fq -d wasm dv elem-13.wasm
    |00 01 02 03 04 05 06 07 08 09 0a 0b 0c 0d 0e 0f|0123456789abcdef|.{}: elem-13.wasm (wasm) 0x0-0x17 (23)
0x00|00 61 73 6d                                    |.asm            |  magic: raw bits (valid) 0x0-0x4 (4)
0x00|            01 00 00 00                        |    ....        |  version: 1 0x4-0x8 (4)
    |                                               |                |  sections[0:2]: 0x8-0x17 (15)
    |                                               |                |    [0]{}: section 0x8-0xf (7)
0x00|                        04                     |        .       |      id: "table_section" (4) 0x8-0x9 (1)
0x00|                           05                  |         .      |      size: 5 (valid) 0x9-0xa (1)
    |                                               |                |      content{}: 0xa-0xf (5)
    |                                               |                |        tab{}: 0xa-0xf (5)
0x00|                              01               |          .     |          n: 1 (valid) 0xa-0xb (1)
    |                                               |                |          x[0:1]: 0xb-0xf (4)
    |                                               |                |            [0]{}: tab 0xb-0xf (4)
0x00|                                 70            |           p    |              et: "funcref" (112) 0xb-0xc (1)
    |                                               |                |              lim{}: 0xc-0xf (3)
0x00|                                    01         |            .   |                tag: 0x1 0xc-0xd (1)
0x00|                                       00      |             .  |                n: 0 (valid) 0xd-0xe (1)
0x00|                                          00   |              . |                m: 0 (valid) 0xe-0xf (1)
    |                                               |                |    [1]{}: section 0xf-0x17 (8)
0x00|                                             09|               .|      id: "element_section" (9) 0xf-0x10 (1)
0x10|06                                             |.               |      size: 6 (valid) 0x10-0x11 (1)
    |                                               |                |      element{}: 0x11-0x17 (6)
    |                                               |                |        seg{}: 0x11-0x17 (6)
0x10|   01                                          | .              |          n: 1 (valid) 0x11-0x12 (1)
    |                                               |                |          x[0:1]: 0x12-0x17 (5)
    |                                               |                |            [0]{}: seg 0x12-0x17 (5)
0x10|      00                                       |  .             |              tag: 0 (valid) 0x12-0x13 (1)
    |                                               |                |              e[0:2]: 0x13-0x16 (3)
    |                                               |                |                [0]{}: in 0x13-0x15 (2)
0x10|         41                                    |   A            |                  opcode: "i32.const" (0x41) 0x13-0x14 (1)
0x10|            00                                 |    .           |                  n: 0 (valid) 0x14-0x15 (1)
    |                                               |                |                [1]{}: in 0x15-0x16 (1)
0x10|               0b                              |     .          |                  opcode: "end" (0xb) 0x15-0x16 (1)
    |                                               |                |              y{}: 0x16-0x17 (1)
0x10|                  00|                          |      .|        |                n: 0 (valid) 0x16-0x17 (1)
    |                                               |                |                x[0:0]: 0x17-0x17 (0)
