$ fq -d wasm dv elem-7.wasm
    |00 01 02 03 04 05 06 07 08 09 0a 0b 0c 0d 0e 0f|0123456789abcdef|.{}: elem-7.wasm (wasm) 0x0-0x42 (66)
0x00|00 61 73 6d                                    |.asm            |  magic: raw bits (valid) 0x0-0x4 (4)
0x00|            01 00 00 00                        |    ....        |  version: 1 0x4-0x8 (4)
    |                                               |                |  sections[0:6]: 0x8-0x42 (58)
    |                                               |                |    [0]{}: section 0x8-0xe (6)
0x00|                        01                     |        .       |      id: "type_section" (1) 0x8-0x9 (1)
0x00|                           04                  |         .      |      size: 4 (valid) 0x9-0xa (1)
    |                                               |                |      content{}: 0xa-0xe (4)
    |                                               |                |        ft{}: 0xa-0xe (4)
0x00|                              01               |          .     |          n: 1 (valid) 0xa-0xb (1)
    |                                               |                |          x[0:1]: 0xb-0xe (3)
    |                                               |                |            [0]{}: ft 0xb-0xe (3)
0x00|                                 60            |           `    |              tag: 0x60 (valid) 0xb-0xc (1)
    |                                               |                |              rt1{}: 0xc-0xd (1)
0x00|                                    00         |            .   |                n: 0 (valid) 0xc-0xd (1)
    |                                               |                |                x[0:0]: 0xd-0xd (0)
    |                                               |                |              rt2{}: 0xd-0xe (1)
0x00|                                       00      |             .  |                n: 0 (valid) 0xd-0xe (1)
    |                                               |                |                x[0:0]: 0xe-0xe (0)
    |                                               |                |    [1]{}: section 0xe-0x28 (26)
0x00|                                          02   |              . |      id: "import_section" (2) 0xe-0xf (1)
0x00|                                             18|               .|      size: 24 (valid) 0xf-0x10 (1)
    |                                               |                |      content{}: 0x10-0x28 (24)
    |                                               |                |        im{}: 0x10-0x28 (24)
0x10|01                                             |.               |          n: 1 (valid) 0x10-0x11 (1)
    |                                               |                |          x[0:1]: 0x11-0x28 (23)
    |                                               |                |            [0]{}: im 0x11-0x28 (23)
    |                                               |                |              mod{}: 0x11-0x1a (9)
0x10|   08                                          | .              |                n: 8 (valid) 0x11-0x12 (1)
0x10|      73 70 65 63 74 65 73 74                  |  spectest      |                b: "spectest" 0x12-0x1a (8)
    |                                               |                |              nm{}: 0x1a-0x25 (11)
0x10|                              0a               |          .     |                n: 10 (valid) 0x1a-0x1b (1)
0x10|                                 67 6c 6f 62 61|           globa|                b: "global_i32" 0x1b-0x25 (10)
0x20|6c 5f 69 33 32                                 |l_i32           |
    |                                               |                |              d{}: 0x25-0x28 (3)
0x20|               03                              |     .          |                tag: "global" (0x3) 0x25-0x26 (1)
    |                                               |                |                gt{}: 0x26-0x28 (2)
0x20|                  7f                           |      .         |                  t: "i32" (0x7f) 0x26-0x27 (1)
0x20|                     00                        |       .        |                  m: "const" (0) 0x27-0x28 (1)
    |                                               |                |    [2]{}: section 0x28-0x2c (4)
0x20|                        03                     |        .       |      id: "function_section" (3) 0x28-0x29 (1)
0x20|                           02                  |         .      |      size: 2 (valid) 0x29-0x2a (1)
    |                                               |                |      content{}: 0x2a-0x2c (2)
    |                                               |                |        x{}: 0x2a-0x2c (2)
0x20|                              01               |          .     |          n: 1 (valid) 0x2a-0x2b (1)
    |                                               |                |          x[0:1]: 0x2b-0x2c (1)
0x20|                                 00            |           .    |            [0]: 0 x (valid) 0x2b-0x2c (1)
    |                                               |                |    [3]{}: section 0x2c-0x33 (7)
0x20|                                    04         |            .   |      id: "table_section" (4) 0x2c-0x2d (1)
0x20|                                       05      |             .  |      size: 5 (valid) 0x2d-0x2e (1)
    |                                               |                |      content{}: 0x2e-0x33 (5)
    |                                               |                |        tab{}: 0x2e-0x33 (5)
0x20|                                          01   |              . |          n: 1 (valid) 0x2e-0x2f (1)
    |                                               |                |          x[0:1]: 0x2f-0x33 (4)
    |                                               |                |            [0]{}: tab 0x2f-0x33 (4)
0x20|                                             70|               p|              et: "funcref" (112) 0x2f-0x30 (1)
    |                                               |                |              lim{}: 0x30-0x33 (3)
0x30|00                                             |.               |                tag: 0x0 0x30-0x31 (1)
0x30|   e8 07                                       | ..             |                n: 1000 (valid) 0x31-0x33 (2)
    |                                               |                |    [4]{}: section 0x33-0x3c (9)
0x30|         09                                    |   .            |      id: "element_section" (9) 0x33-0x34 (1)
0x30|            07                                 |    .           |      size: 7 (valid) 0x34-0x35 (1)
    |                                               |                |      element{}: 0x35-0x3c (7)
    |                                               |                |        seg{}: 0x35-0x3c (7)
0x30|               01                              |     .          |          n: 1 (valid) 0x35-0x36 (1)
    |                                               |                |          x[0:1]: 0x36-0x3c (6)
    |                                               |                |            [0]{}: seg 0x36-0x3c (6)
0x30|                  00                           |      .         |              tag: 0 (valid) 0x36-0x37 (1)
    |                                               |                |              e[0:2]: 0x37-0x3a (3)
    |                                               |                |                [0]{}: in 0x37-0x39 (2)
0x30|                     23                        |       #        |                  opcode: "global.get" (0x23) 0x37-0x38 (1)
0x30|                        00                     |        .       |                  x: 0 (valid) 0x38-0x39 (1)
    |                                               |                |                [1]{}: in 0x39-0x3a (1)
0x30|                           0b                  |         .      |                  opcode: "end" (0xb) 0x39-0x3a (1)
    |                                               |                |              y{}: 0x3a-0x3c (2)
0x30|                              01               |          .     |                n: 1 (valid) 0x3a-0x3b (1)
    |                                               |                |                x[0:1]: 0x3b-0x3c (1)
0x30|                                 00            |           .    |                  [0]: 0 y (valid) 0x3b-0x3c (1)
    |                                               |                |    [5]{}: section 0x3c-0x42 (6)
0x30|                                    0a         |            .   |      id: "code_section" (10) 0x3c-0x3d (1)
0x30|                                       04      |             .  |      size: 4 (valid) 0x3d-0x3e (1)
    |                                               |                |      content{}: 0x3e-0x42 (4)
    |                                               |                |        code{}: 0x3e-0x42 (4)
0x30|                                          01   |              . |          n: 1 (valid) 0x3e-0x3f (1)
    |                                               |                |          x[0:1]: 0x3f-0x42 (3)
    |                                               |                |            [0]{}: code 0x3f-0x42 (3)
0x30|                                             02|               .|              size: 2 (valid) 0x3f-0x40 (1)
    |                                               |                |              code{}: 0x40-0x42 (2)
    |                                               |                |                t{}: 0x40-0x41 (1)
0x40|00                                             |.               |                  n: 0 (valid) 0x40-0x41 (1)
    |                                               |                |                  x[0:0]: 0x41-0x41 (0)
    |                                               |                |                e[0:1]: 0x41-0x42 (1)
    |                                               |                |                  [0]{}: in 0x41-0x42 (1)
0x40|   0b|                                         | .|             |                    opcode: "end" (0xb) 0x41-0x42 (1)
