$ fq -d wasm dv elem-22.wasm
    |00 01 02 03 04 05 06 07 08 09 0a 0b 0c 0d 0e 0f|0123456789abcdef|.{}: elem-22.wasm (wasm) 0x0-0x6f (111)
0x00|00 61 73 6d                                    |.asm            |  magic: raw bits (valid) 0x0-0x4 (4)
0x00|            01 00 00 00                        |    ....        |  version: 1 0x4-0x8 (4)
    |                                               |                |  sections[0:6]: 0x8-0x6f (103)
    |                                               |                |    [0]{}: section 0x8-0xf (7)
0x00|                        01                     |        .       |      id: "type_section" (1) 0x8-0x9 (1)
0x00|                           05                  |         .      |      size: 5 (valid) 0x9-0xa (1)
    |                                               |                |      content{}: 0xa-0xf (5)
    |                                               |                |        ft{}: 0xa-0xf (5)
0x00|                              01               |          .     |          n: 1 (valid) 0xa-0xb (1)
    |                                               |                |          x[0:1]: 0xb-0xf (4)
    |                                               |                |            [0]{}: ft 0xb-0xf (4)
0x00|                                 60            |           `    |              tag: 0x60 (valid) 0xb-0xc (1)
    |                                               |                |              rt1{}: 0xc-0xd (1)
0x00|                                    00         |            .   |                n: 0 (valid) 0xc-0xd (1)
    |                                               |                |                x[0:0]: 0xd-0xd (0)
    |                                               |                |              rt2{}: 0xd-0xf (2)
0x00|                                       01      |             .  |                n: 1 (valid) 0xd-0xe (1)
    |                                               |                |                x[0:1]: 0xe-0xf (1)
0x00|                                          7f   |              . |                  [0]: "i32" (0x7f) t 0xe-0xf (1)
    |                                               |                |    [1]{}: section 0xf-0x25 (22)
0x00|                                             02|               .|      id: "import_section" (2) 0xf-0x10 (1)
0x10|14                                             |.               |      size: 20 (valid) 0x10-0x11 (1)
    |                                               |                |      content{}: 0x11-0x25 (20)
    |                                               |                |        im{}: 0x11-0x25 (20)
0x10|   01                                          | .              |          n: 1 (valid) 0x11-0x12 (1)
    |                                               |                |          x[0:1]: 0x12-0x25 (19)
    |                                               |                |            [0]{}: im 0x12-0x25 (19)
    |                                               |                |              mod{}: 0x12-0x1b (9)
0x10|      08                                       |  .             |                n: 8 (valid) 0x12-0x13 (1)
0x10|         73 70 65 63 74 65 73 74               |   spectest     |                b: "spectest" 0x13-0x1b (8)
    |                                               |                |              nm{}: 0x1b-0x21 (6)
0x10|                                 05            |           .    |                n: 5 (valid) 0x1b-0x1c (1)
0x10|                                    74 61 62 6c|            tabl|                b: "table" 0x1c-0x21 (5)
0x20|65                                             |e               |
    |                                               |                |              d{}: 0x21-0x25 (4)
0x20|   01                                          | .              |                tag: "table" (0x1) 0x21-0x22 (1)
    |                                               |                |                tt{}: 0x22-0x25 (3)
0x20|      70                                       |  p             |                  et: "funcref" (112) 0x22-0x23 (1)
    |                                               |                |                  lim{}: 0x23-0x25 (2)
0x20|         00                                    |   .            |                    tag: 0x0 0x23-0x24 (1)
0x20|            0a                                 |    .           |                    n: 10 (valid) 0x24-0x25 (1)
    |                                               |                |    [2]{}: section 0x25-0x2b (6)
0x20|               03                              |     .          |      id: "function_section" (3) 0x25-0x26 (1)
0x20|                  04                           |      .         |      size: 4 (valid) 0x26-0x27 (1)
    |                                               |                |      content{}: 0x27-0x2b (4)
    |                                               |                |        x{}: 0x27-0x2b (4)
0x20|                     03                        |       .        |          n: 3 (valid) 0x27-0x28 (1)
    |                                               |                |          x[0:3]: 0x28-0x2b (3)
0x20|                        00                     |        .       |            [0]: 0 x (valid) 0x28-0x29 (1)
0x20|                           00                  |         .      |            [1]: 0 x (valid) 0x29-0x2a (1)
0x20|                              00               |          .     |            [2]: 0 x (valid) 0x2a-0x2b (1)
    |                                               |                |    [3]{}: section 0x2b-0x49 (30)
0x20|                                 07            |           .    |      id: "export_section" (7) 0x2b-0x2c (1)
0x20|                                    1c         |            .   |      size: 28 (valid) 0x2c-0x2d (1)
    |                                               |                |      content{}: 0x2d-0x49 (28)
    |                                               |                |        ex{}: 0x2d-0x49 (28)
0x20|                                       01      |             .  |          n: 1 (valid) 0x2d-0x2e (1)
    |                                               |                |          x[0:1]: 0x2e-0x49 (27)
    |                                               |                |            [0]{}: ex 0x2e-0x49 (27)
    |                                               |                |              nm{}: 0x2e-0x47 (25)
0x20|                                          18   |              . |                n: 24 (valid) 0x2e-0x2f (1)
0x20|                                             63|               c|                b: "call-overwritten-element" 0x2f-0x47 (24)
0x30|61 6c 6c 2d 6f 76 65 72 77 72 69 74 74 65 6e 2d|all-overwritten-|
0x40|65 6c 65 6d 65 6e 74                           |element         |
    |                                               |                |              d{}: 0x47-0x49 (2)
0x40|                     00                        |       .        |                tag: "funcidx" (0x0) 0x47-0x48 (1)
0x40|                        02                     |        .       |                x: 2 (valid) 0x48-0x49 (1)
    |                                               |                |    [4]{}: section 0x49-0x58 (15)
0x40|                           09                  |         .      |      id: "element_section" (9) 0x49-0x4a (1)
0x40|                              0d               |          .     |      size: 13 (valid) 0x4a-0x4b (1)
    |                                               |                |      element{}: 0x4b-0x58 (13)
    |                                               |                |        seg{}: 0x4b-0x58 (13)
0x40|                                 02            |           .    |          n: 2 (valid) 0x4b-0x4c (1)
    |                                               |                |          x[0:2]: 0x4c-0x58 (12)
    |                                               |                |            [0]{}: seg 0x4c-0x52 (6)
0x40|                                    00         |            .   |              tag: 0 (valid) 0x4c-0x4d (1)
    |                                               |                |              e[0:2]: 0x4d-0x50 (3)
    |                                               |                |                [0]{}: in 0x4d-0x4f (2)
0x40|                                       41      |             A  |                  opcode: "i32.const" (0x41) 0x4d-0x4e (1)
0x40|                                          09   |              . |                  n: 9 (valid) 0x4e-0x4f (1)
    |                                               |                |                [1]{}: in 0x4f-0x50 (1)
0x40|                                             0b|               .|                  opcode: "end" (0xb) 0x4f-0x50 (1)
    |                                               |                |              y{}: 0x50-0x52 (2)
0x50|01                                             |.               |                n: 1 (valid) 0x50-0x51 (1)
    |                                               |                |                x[0:1]: 0x51-0x52 (1)
0x50|   00                                          | .              |                  [0]: 0 y (valid) 0x51-0x52 (1)
    |                                               |                |            [1]{}: seg 0x52-0x58 (6)
0x50|      00                                       |  .             |              tag: 0 (valid) 0x52-0x53 (1)
    |                                               |                |              e[0:2]: 0x53-0x56 (3)
    |                                               |                |                [0]{}: in 0x53-0x55 (2)
0x50|         41                                    |   A            |                  opcode: "i32.const" (0x41) 0x53-0x54 (1)
0x50|            09                                 |    .           |                  n: 9 (valid) 0x54-0x55 (1)
    |                                               |                |                [1]{}: in 0x55-0x56 (1)
0x50|               0b                              |     .          |                  opcode: "end" (0xb) 0x55-0x56 (1)
    |                                               |                |              y{}: 0x56-0x58 (2)
0x50|                  01                           |      .         |                n: 1 (valid) 0x56-0x57 (1)
    |                                               |                |                x[0:1]: 0x57-0x58 (1)
0x50|                     01                        |       .        |                  [0]: 1 y (valid) 0x57-0x58 (1)
    |                                               |                |    [5]{}: section 0x58-0x6f (23)
0x50|                        0a                     |        .       |      id: "code_section" (10) 0x58-0x59 (1)
0x50|                           15                  |         .      |      size: 21 (valid) 0x59-0x5a (1)
    |                                               |                |      content{}: 0x5a-0x6f (21)
    |                                               |                |        code{}: 0x5a-0x6f (21)
0x50|                              03               |          .     |          n: 3 (valid) 0x5a-0x5b (1)
    |                                               |                |          x[0:3]: 0x5b-0x6f (20)
    |                                               |                |            [0]{}: code 0x5b-0x61 (6)
0x50|                                 05            |           .    |              size: 5 (valid) 0x5b-0x5c (1)
    |                                               |                |              code{}: 0x5c-0x61 (5)
    |                                               |                |                t{}: 0x5c-0x5d (1)
0x50|                                    00         |            .   |                  n: 0 (valid) 0x5c-0x5d (1)
    |                                               |                |                  x[0:0]: 0x5d-0x5d (0)
    |                                               |                |                e[0:2]: 0x5d-0x61 (4)
    |                                               |                |                  [0]{}: in 0x5d-0x60 (3)
0x50|                                       41      |             A  |                    opcode: "i32.const" (0x41) 0x5d-0x5e (1)
0x50|                                          c1 00|              ..|                    n: 65 (valid) 0x5e-0x60 (2)
    |                                               |                |                  [1]{}: in 0x60-0x61 (1)
0x60|0b                                             |.               |                    opcode: "end" (0xb) 0x60-0x61 (1)
    |                                               |                |            [1]{}: code 0x61-0x67 (6)
0x60|   05                                          | .              |              size: 5 (valid) 0x61-0x62 (1)
    |                                               |                |              code{}: 0x62-0x67 (5)
    |                                               |                |                t{}: 0x62-0x63 (1)
0x60|      00                                       |  .             |                  n: 0 (valid) 0x62-0x63 (1)
    |                                               |                |                  x[0:0]: 0x63-0x63 (0)
    |                                               |                |                e[0:2]: 0x63-0x67 (4)
    |                                               |                |                  [0]{}: in 0x63-0x66 (3)
0x60|         41                                    |   A            |                    opcode: "i32.const" (0x41) 0x63-0x64 (1)
0x60|            c2 00                              |    ..          |                    n: 66 (valid) 0x64-0x66 (2)
    |                                               |                |                  [1]{}: in 0x66-0x67 (1)
0x60|                  0b                           |      .         |                    opcode: "end" (0xb) 0x66-0x67 (1)
    |                                               |                |            [2]{}: code 0x67-0x6f (8)
0x60|                     07                        |       .        |              size: 7 (valid) 0x67-0x68 (1)
    |                                               |                |              code{}: 0x68-0x6f (7)
    |                                               |                |                t{}: 0x68-0x69 (1)
0x60|                        00                     |        .       |                  n: 0 (valid) 0x68-0x69 (1)
    |                                               |                |                  x[0:0]: 0x69-0x69 (0)
    |                                               |                |                e[0:3]: 0x69-0x6f (6)
    |                                               |                |                  [0]{}: in 0x69-0x6b (2)
0x60|                           41                  |         A      |                    opcode: "i32.const" (0x41) 0x69-0x6a (1)
0x60|                              09               |          .     |                    n: 9 (valid) 0x6a-0x6b (1)
    |                                               |                |                  [1]{}: in 0x6b-0x6e (3)
0x60|                                 11            |           .    |                    opcode: "call_indirect" (0x11) 0x6b-0x6c (1)
0x60|                                    00         |            .   |                    y: 0 (valid) 0x6c-0x6d (1)
0x60|                                       00      |             .  |                    x: 0 (valid) 0x6d-0x6e (1)
    |                                               |                |                  [2]{}: in 0x6e-0x6f (1)
0x60|                                          0b|  |              .||                    opcode: "end" (0xb) 0x6e-0x6f (1)
