$ fq -d wasm dv elem-20.wasm
    |00 01 02 03 04 05 06 07 08 09 0a 0b 0c 0d 0e 0f|0123456789abcdef|.{}: elem-20.wasm (wasm) 0x0-0x3d (61)
0x00|00 61 73 6d                                    |.asm            |  magic: raw bits (valid) 0x0-0x4 (4)
0x00|            01 00 00 00                        |    ....        |  version: 1 0x4-0x8 (4)
    |                                               |                |  sections[0:6]: 0x8-0x3d (53)
    |                                               |                |    [0]{}: section 0x8-0xe (6)
0x00|                        01                     |        .       |      id: "type_section" (1) 0x8-0x9 (1)
0x00|                           04                  |         .      |      size: 4 (valid) 0x9-0xa (1)
    |                                               |                |      content{}: 0xa-0xe (4)
    |                                               |                |        ft{}: 0xa-0xe (4)
0x00|                              01               |          .     |          n: 1 (valid) 0xa-0xb (1)
    |                                               |                |          x[0:1]: 0xb-0xe (3)
    |                                               |                |            [0]{}: ft 0xb-0xe (3)
0x00|                                 60            |           `    |              tag: 0x60 (valid) 0xb-0xc (1)
    |                                               |                |              rt1{}: 0xc-0xd (1)
0x00|                                    00         |            .   |                n: 0 (valid) 0xc-0xd (1)
    |                                               |                |                x[0:0]: 0xd-0xd (0)
    |                                               |                |              rt2{}: 0xd-0xe (1)
0x00|                                       00      |             .  |                n: 0 (valid) 0xd-0xe (1)
    |                                               |                |                x[0:0]: 0xe-0xe (0)
    |                                               |                |    [1]{}: section 0xe-0x13 (5)
0x00|                                          03   |              . |      id: "function_section" (3) 0xe-0xf (1)
0x00|                                             03|               .|      size: 3 (valid) 0xf-0x10 (1)
    |                                               |                |      content{}: 0x10-0x13 (3)
    |                                               |                |        x{}: 0x10-0x13 (3)
0x10|02                                             |.               |          n: 2 (valid) 0x10-0x11 (1)
    |                                               |                |          x[0:2]: 0x11-0x13 (2)
0x10|   00                                          | .              |            [0]: 0 x (valid) 0x11-0x12 (1)
0x10|      00                                       |  .             |            [1]: 0 x (valid) 0x12-0x13 (1)
    |                                               |                |    [2]{}: section 0x13-0x19 (6)
0x10|         04                                    |   .            |      id: "table_section" (4) 0x13-0x14 (1)
0x10|            04                                 |    .           |      size: 4 (valid) 0x14-0x15 (1)
    |                                               |                |      content{}: 0x15-0x19 (4)
    |                                               |                |        tab{}: 0x15-0x19 (4)
0x10|               01                              |     .          |          n: 1 (valid) 0x15-0x16 (1)
    |                                               |                |          x[0:1]: 0x16-0x19 (3)
    |                                               |                |            [0]{}: tab 0x16-0x19 (3)
0x10|                  70                           |      p         |              et: "funcref" (112) 0x16-0x17 (1)
    |                                               |                |              lim{}: 0x17-0x19 (2)
0x10|                     00                        |       .        |                tag: 0x0 0x17-0x18 (1)
0x10|                        0a                     |        .       |                n: 10 (valid) 0x18-0x19 (1)
    |                                               |                |    [3]{}: section 0x19-0x23 (10)
0x10|                           07                  |         .      |      id: "export_section" (7) 0x19-0x1a (1)
0x10|                              08               |          .     |      size: 8 (valid) 0x1a-0x1b (1)
    |                                               |                |      content{}: 0x1b-0x23 (8)
    |                                               |                |        ex{}: 0x1b-0x23 (8)
0x10|                                 01            |           .    |          n: 1 (valid) 0x1b-0x1c (1)
    |                                               |                |          x[0:1]: 0x1c-0x23 (7)
    |                                               |                |            [0]{}: ex 0x1c-0x23 (7)
    |                                               |                |              nm{}: 0x1c-0x21 (5)
0x10|                                    04         |            .   |                n: 4 (valid) 0x1c-0x1d (1)
0x10|                                       69 6e 69|             ini|                b: "init" 0x1d-0x21 (4)
0x20|74                                             |t               |
    |                                               |                |              d{}: 0x21-0x23 (2)
0x20|   00                                          | .              |                tag: "funcidx" (0x0) 0x21-0x22 (1)
0x20|      01                                       |  .             |                x: 1 (valid) 0x22-0x23 (1)
    |                                               |                |    [4]{}: section 0x23-0x2a (7)
0x20|         09                                    |   .            |      id: "element_section" (9) 0x23-0x24 (1)
0x20|            05                                 |    .           |      size: 5 (valid) 0x24-0x25 (1)
    |                                               |                |      element{}: 0x25-0x2a (5)
    |                                               |                |        seg{}: 0x25-0x2a (5)
0x20|               01                              |     .          |          n: 1 (valid) 0x25-0x26 (1)
    |                                               |                |          x[0:1]: 0x26-0x2a (4)
    |                                               |                |            [0]{}: seg 0x26-0x2a (4)
0x20|                  03                           |      .         |              tag: 3 (valid) 0x26-0x27 (1)
0x20|                     00                        |       .        |              et: "funcref" (0) (valid) 0x27-0x28 (1)
    |                                               |                |              y{}: 0x28-0x2a (2)
0x20|                        01                     |        .       |                n: 1 (valid) 0x28-0x29 (1)
    |                                               |                |                x[0:1]: 0x29-0x2a (1)
0x20|                           00                  |         .      |                  [0]: 0 y (valid) 0x29-0x2a (1)
    |                                               |                |    [5]{}: section 0x2a-0x3d (19)
0x20|                              0a               |          .     |      id: "code_section" (10) 0x2a-0x2b (1)
0x20|                                 11            |           .    |      size: 17 (valid) 0x2b-0x2c (1)
    |                                               |                |      content{}: 0x2c-0x3d (17)
    |                                               |                |        code{}: 0x2c-0x3d (17)
0x20|                                    02         |            .   |          n: 2 (valid) 0x2c-0x2d (1)
    |                                               |                |          x[0:2]: 0x2d-0x3d (16)
    |                                               |                |            [0]{}: code 0x2d-0x30 (3)
0x20|                                       02      |             .  |              size: 2 (valid) 0x2d-0x2e (1)
    |                                               |                |              code{}: 0x2e-0x30 (2)
    |                                               |                |                t{}: 0x2e-0x2f (1)
0x20|                                          00   |              . |                  n: 0 (valid) 0x2e-0x2f (1)
    |                                               |                |                  x[0:0]: 0x2f-0x2f (0)
    |                                               |                |                e[0:1]: 0x2f-0x30 (1)
    |                                               |                |                  [0]{}: in 0x2f-0x30 (1)
0x20|                                             0b|               .|                    opcode: "end" (0xb) 0x2f-0x30 (1)
    |                                               |                |            [1]{}: code 0x30-0x3d (13)
0x30|0c                                             |.               |              size: 12 (valid) 0x30-0x31 (1)
    |                                               |                |              code{}: 0x31-0x3d (12)
    |                                               |                |                t{}: 0x31-0x32 (1)
0x30|   00                                          | .              |                  n: 0 (valid) 0x31-0x32 (1)
    |                                               |                |                  x[0:0]: 0x32-0x32 (0)
    |                                               |                |                e[0:5]: 0x32-0x3d (11)
    |                                               |                |                  [0]{}: in 0x32-0x34 (2)
0x30|      41                                       |  A             |                    opcode: "i32.const" (0x41) 0x32-0x33 (1)
0x30|         00                                    |   .            |                    n: 0 (valid) 0x33-0x34 (1)
    |                                               |                |                  [1]{}: in 0x34-0x36 (2)
0x30|            41                                 |    A           |                    opcode: "i32.const" (0x41) 0x34-0x35 (1)
0x30|               00                              |     .          |                    n: 0 (valid) 0x35-0x36 (1)
    |                                               |                |                  [2]{}: in 0x36-0x38 (2)
0x30|                  41                           |      A         |                    opcode: "i32.const" (0x41) 0x36-0x37 (1)
0x30|                     01                        |       .        |                    n: 1 (valid) 0x37-0x38 (1)
    |                                               |                |                  [3]{}: in 0x38-0x3c (4)
0x30|                        fc                     |        .       |                    opcode: "prefix" (0xfc) 0x38-0x39 (1)
0x30|                           0c                  |         .      |                    p_opcode: "table.init" (12) 0x39-0x3a (1)
0x30|                              00               |          .     |                    y: 0 (valid) 0x3a-0x3b (1)
0x30|                                 00            |           .    |                    x: 0 (valid) 0x3b-0x3c (1)
    |                                               |                |                  [4]{}: in 0x3c-0x3d (1)
0x30|                                    0b|        |            .|  |                    opcode: "end" (0xb) 0x3c-0x3d (1)
