$ fq -d wasm dv elem-0.wasm
     |00 01 02 03 04 05 06 07 08 09 0a 0b 0c 0d 0e 0f|0123456789abcdef|.{}: elem-0.wasm (wasm) 0x0-0x1c8.7 (457)
0x000|00 61 73 6d                                    |.asm            |  magic: raw bits (valid) 0x0-0x3.7 (4)
0x000|            01 00 00 00                        |    ....        |  version: 1 0x4-0x7.7 (4)
     |                                               |                |  sections[0:5]: 0x8-0x1c8.7 (449)
     |                                               |                |    [0]{}: section 0x8-0xd.7 (6)
0x000|                        01                     |        .       |      id: "type section" (1) 0x8-0x8.7 (1)
0x000|                           04                  |         .      |      size: 4 0x9-0x9.7 (1)
     |                                               |                |      content{}: 0xa-0xd.7 (4)
     |                                               |                |        ft{}: 0xa-0xd.7 (4)
0x000|                              01               |          .     |          n: 1 0xa-0xa.7 (1)
     |                                               |                |          x[0:1]: 0xb-0xd.7 (3)
     |                                               |                |            [0]{}: ft 0xb-0xd.7 (3)
0x000|                                 60            |           `    |              tag: 0x60 (valid) 0xb-0xb.7 (1)
     |                                               |                |              rt1{}: 0xc-0xc.7 (1)
0x000|                                    00         |            .   |                n: 0 0xc-0xc.7 (1)
     |                                               |                |                x[0:0]: 0xd-NA (0)
     |                                               |                |              rt2{}: 0xd-0xd.7 (1)
0x000|                                       00      |             .  |                n: 0 0xd-0xd.7 (1)
     |                                               |                |                x[0:0]: 0xe-NA (0)
     |                                               |                |    [1]{}: section 0xe-0x12.7 (5)
0x000|                                          03   |              . |      id: "function section" (3) 0xe-0xe.7 (1)
0x000|                                             03|               .|      size: 3 0xf-0xf.7 (1)
     |                                               |                |      content{}: 0x10-0x12.7 (3)
     |                                               |                |        x{}: 0x10-0x12.7 (3)
0x010|02                                             |.               |          n: 2 0x10-0x10.7 (1)
     |                                               |                |          x[0:2]: 0x11-0x12.7 (2)
0x010|   00                                          | .              |            [0]: 0 x 0x11-0x11.7 (1)
0x010|      00                                       |  .             |            [1]: 0 x 0x12-0x12.7 (1)
     |                                               |                |    [2]{}: section 0x13-0x18.7 (6)
0x010|         04                                    |   .            |      id: "table section" (4) 0x13-0x13.7 (1)
0x010|            04                                 |    .           |      size: 4 0x14-0x14.7 (1)
     |                                               |                |      content{}: 0x15-0x18.7 (4)
     |                                               |                |        tab{}: 0x15-0x18.7 (4)
0x010|               01                              |     .          |          n: 1 0x15-0x15.7 (1)
     |                                               |                |          x[0:1]: 0x16-0x18.7 (3)
     |                                               |                |            [0]{}: tab 0x16-0x18.7 (3)
0x010|                  70                           |      p         |              et: "funcref" (112) 0x16-0x16.7 (1)
     |                                               |                |              lim{}: 0x17-0x18.7 (2)
0x010|                     00                        |       .        |                tag: 0x0 0x17-0x17.7 (1)
0x010|                        0a                     |        .       |                n: 10 0x18-0x18.7 (1)
     |                                               |                |    [3]{}: section 0x19-0x1bf.7 (423)
0x010|                           09                  |         .      |      id: "element section" (9) 0x19-0x19.7 (1)
0x010|                              a4 03            |          ..    |      size: 420 0x1a-0x1b.7 (2)
     |                                               |                |      element{}: 0x1c-0x1bf.7 (420)
     |                                               |                |        seg{}: 0x1c-0x1bf.7 (420)
0x010|                                    3d         |            =   |          n: 61 0x1c-0x1c.7 (1)
     |                                               |                |          x[0:61]: 0x1d-0x1bf.7 (419)
     |                                               |                |            [0]{}: seg 0x1d-0x1f.7 (3)
0x010|                                       01      |             .  |              tag: 1 0x1d-0x1d.7 (1)
0x010|                                          00   |              . |              et: "funcref" (0) (valid) 0x1e-0x1e.7 (1)
     |                                               |                |              y{}: 0x1f-0x1f.7 (1)
0x010|                                             00|               .|                n: 0 0x1f-0x1f.7 (1)
     |                                               |                |                x[0:0]: 0x20-NA (0)
     |                                               |                |            [1]{}: seg 0x20-0x2e.7 (15)
0x020|05                                             |.               |              tag: 5 0x20-0x20.7 (1)
0x020|   70                                          | p              |              et: "funcref" (112) 0x21-0x21.7 (1)
     |                                               |                |              el{}: 0x22-0x2e.7 (13)
0x020|      04                                       |  .             |                n: 4 0x22-0x22.7 (1)
     |                                               |                |                x[0:4]: 0x23-0x2e.7 (12)
     |                                               |                |                  [0][0:2]: el 0x23-0x25.7 (3)
     |                                               |                |                    [0]{}: in 0x23-0x24.7 (2)
0x020|         d2                                    |   .            |                      ref.func: 0xd2 (valid) 0x23-0x23.7 (1)
0x020|            00                                 |    .           |                      x: 0 0x24-0x24.7 (1)
     |                                               |                |                    [1]{}: in 0x25-0x25.7 (1)
0x020|               0b                              |     .          |                      end: 0xb (valid) 0x25-0x25.7 (1)
     |                                               |                |                  [1][0:2]: el 0x26-0x28.7 (3)
     |                                               |                |                    [0]{}: in 0x26-0x27.7 (2)
0x020|                  d2                           |      .         |                      ref.func: 0xd2 (valid) 0x26-0x26.7 (1)
0x020|                     00                        |       .        |                      x: 0 0x27-0x27.7 (1)
     |                                               |                |                    [1]{}: in 0x28-0x28.7 (1)
0x020|                        0b                     |        .       |                      end: 0xb (valid) 0x28-0x28.7 (1)
     |                                               |                |                  [2][0:2]: el 0x29-0x2b.7 (3)
     |                                               |                |                    [0]{}: in 0x29-0x2a.7 (2)
0x020|                           d0                  |         .      |                      ref.null: 0xd0 (valid) 0x29-0x29.7 (1)
0x020|                              70               |          p     |                      t: "funcref" (112) 0x2a-0x2a.7 (1)
     |                                               |                |                    [1]{}: in 0x2b-0x2b.7 (1)
0x020|                                 0b            |           .    |                      end: 0xb (valid) 0x2b-0x2b.7 (1)
     |                                               |                |                  [3][0:2]: el 0x2c-0x2e.7 (3)
     |                                               |                |                    [0]{}: in 0x2c-0x2d.7 (2)
0x020|                                    d2         |            .   |                      ref.func: 0xd2 (valid) 0x2c-0x2c.7 (1)
0x020|                                       01      |             .  |                      x: 1 0x2d-0x2d.7 (1)
     |                                               |                |                    [1]{}: in 0x2e-0x2e.7 (1)
0x020|                                          0b   |              . |                      end: 0xb (valid) 0x2e-0x2e.7 (1)
     |                                               |                |            [2]{}: seg 0x2f-0x31.7 (3)
0x020|                                             01|               .|              tag: 1 0x2f-0x2f.7 (1)
0x030|00                                             |.               |              et: "funcref" (0) (valid) 0x30-0x30.7 (1)
     |                                               |                |              y{}: 0x31-0x31.7 (1)
0x030|   00                                          | .              |                n: 0 0x31-0x31.7 (1)
     |                                               |                |                x[0:0]: 0x32-NA (0)
     |                                               |                |            [3]{}: seg 0x32-0x38.7 (7)
0x030|      01                                       |  .             |              tag: 1 0x32-0x32.7 (1)
0x030|         00                                    |   .            |              et: "funcref" (0) (valid) 0x33-0x33.7 (1)
     |                                               |                |              y{}: 0x34-0x38.7 (5)
0x030|            04                                 |    .           |                n: 4 0x34-0x34.7 (1)
     |                                               |                |                x[0:4]: 0x35-0x38.7 (4)
0x030|               00                              |     .          |                  [0]: 0 y 0x35-0x35.7 (1)
0x030|                  00                           |      .         |                  [1]: 0 y 0x36-0x36.7 (1)
0x030|                     01                        |       .        |                  [2]: 1 y 0x37-0x37.7 (1)
0x030|                        01                     |        .       |                  [3]: 1 y 0x38-0x38.7 (1)
     |                                               |                |            [4]{}: seg 0x39-0x3b.7 (3)
0x030|                           01                  |         .      |              tag: 1 0x39-0x39.7 (1)
0x030|                              00               |          .     |              et: "funcref" (0) (valid) 0x3a-0x3a.7 (1)
     |                                               |                |              y{}: 0x3b-0x3b.7 (1)
0x030|                                 00            |           .    |                n: 0 0x3b-0x3b.7 (1)
     |                                               |                |                x[0:0]: 0x3c-NA (0)
     |                                               |                |            [5]{}: seg 0x3c-0x4a.7 (15)
0x030|                                    05         |            .   |              tag: 5 0x3c-0x3c.7 (1)
0x030|                                       70      |             p  |              et: "funcref" (112) 0x3d-0x3d.7 (1)
     |                                               |                |              el{}: 0x3e-0x4a.7 (13)
0x030|                                          04   |              . |                n: 4 0x3e-0x3e.7 (1)
     |                                               |                |                x[0:4]: 0x3f-0x4a.7 (12)
     |                                               |                |                  [0][0:2]: el 0x3f-0x41.7 (3)
     |                                               |                |                    [0]{}: in 0x3f-0x40.7 (2)
0x030|                                             d2|               .|                      ref.func: 0xd2 (valid) 0x3f-0x3f.7 (1)
0x040|00                                             |.               |                      x: 0 0x40-0x40.7 (1)
     |                                               |                |                    [1]{}: in 0x41-0x41.7 (1)
0x040|   0b                                          | .              |                      end: 0xb (valid) 0x41-0x41.7 (1)
     |                                               |                |                  [1][0:2]: el 0x42-0x44.7 (3)
     |                                               |                |                    [0]{}: in 0x42-0x43.7 (2)
0x040|      d2                                       |  .             |                      ref.func: 0xd2 (valid) 0x42-0x42.7 (1)
0x040|         00                                    |   .            |                      x: 0 0x43-0x43.7 (1)
     |                                               |                |                    [1]{}: in 0x44-0x44.7 (1)
0x040|            0b                                 |    .           |                      end: 0xb (valid) 0x44-0x44.7 (1)
     |                                               |                |                  [2][0:2]: el 0x45-0x47.7 (3)
     |                                               |                |                    [0]{}: in 0x45-0x46.7 (2)
0x040|               d0                              |     .          |                      ref.null: 0xd0 (valid) 0x45-0x45.7 (1)
0x040|                  70                           |      p         |                      t: "funcref" (112) 0x46-0x46.7 (1)
     |                                               |                |                    [1]{}: in 0x47-0x47.7 (1)
0x040|                     0b                        |       .        |                      end: 0xb (valid) 0x47-0x47.7 (1)
     |                                               |                |                  [3][0:2]: el 0x48-0x4a.7 (3)
     |                                               |                |                    [0]{}: in 0x48-0x49.7 (2)
0x040|                        d2                     |        .       |                      ref.func: 0xd2 (valid) 0x48-0x48.7 (1)
0x040|                           01                  |         .      |                      x: 1 0x49-0x49.7 (1)
     |                                               |                |                    [1]{}: in 0x4a-0x4a.7 (1)
0x040|                              0b               |          .     |                      end: 0xb (valid) 0x4a-0x4a.7 (1)
     |                                               |                |            [6]{}: seg 0x4b-0x4d.7 (3)
0x040|                                 01            |           .    |              tag: 1 0x4b-0x4b.7 (1)
0x040|                                    00         |            .   |              et: "funcref" (0) (valid) 0x4c-0x4c.7 (1)
     |                                               |                |              y{}: 0x4d-0x4d.7 (1)
0x040|                                       00      |             .  |                n: 0 0x4d-0x4d.7 (1)
     |                                               |                |                x[0:0]: 0x4e-NA (0)
     |                                               |                |            [7]{}: seg 0x4e-0x54.7 (7)
0x040|                                          01   |              . |              tag: 1 0x4e-0x4e.7 (1)
0x040|                                             00|               .|              et: "funcref" (0) (valid) 0x4f-0x4f.7 (1)
     |                                               |                |              y{}: 0x50-0x54.7 (5)
0x050|04                                             |.               |                n: 4 0x50-0x50.7 (1)
     |                                               |                |                x[0:4]: 0x51-0x54.7 (4)
0x050|   00                                          | .              |                  [0]: 0 y 0x51-0x51.7 (1)
0x050|      00                                       |  .             |                  [1]: 0 y 0x52-0x52.7 (1)
0x050|         01                                    |   .            |                  [2]: 1 y 0x53-0x53.7 (1)
0x050|            01                                 |    .           |                  [3]: 1 y 0x54-0x54.7 (1)
     |                                               |                |            [8]{}: seg 0x55-0x59.7 (5)
0x050|               00                              |     .          |              tag: 0 0x55-0x55.7 (1)
     |                                               |                |              e[0:2]: 0x56-0x58.7 (3)
     |                                               |                |                [0]{}: in 0x56-0x57.7 (2)
0x050|                  41                           |      A         |                  i32.const: 0x41 (valid) 0x56-0x56.7 (1)
0x050|                     00                        |       .        |                  n: 0 0x57-0x57.7 (1)
     |                                               |                |                [1]{}: in 0x58-0x58.7 (1)
0x050|                        0b                     |        .       |                  end: 0xb (valid) 0x58-0x58.7 (1)
     |                                               |                |              y{}: 0x59-0x59.7 (1)
0x050|                           00                  |         .      |                n: 0 0x59-0x59.7 (1)
     |                                               |                |                x[0:0]: 0x5a-NA (0)
     |                                               |                |            [9]{}: seg 0x5a-0x64.7 (11)
0x050|                              04               |          .     |              tag: 4 0x5a-0x5a.7 (1)
     |                                               |                |              e[0:2]: 0x5b-0x5d.7 (3)
     |                                               |                |                [0]{}: in 0x5b-0x5c.7 (2)
0x050|                                 41            |           A    |                  i32.const: 0x41 (valid) 0x5b-0x5b.7 (1)
0x050|                                    00         |            .   |                  n: 0 0x5c-0x5c.7 (1)
     |                                               |                |                [1]{}: in 0x5d-0x5d.7 (1)
0x050|                                       0b      |             .  |                  end: 0xb (valid) 0x5d-0x5d.7 (1)
     |                                               |                |              el{}: 0x5e-0x64.7 (7)
0x050|                                          02   |              . |                n: 2 0x5e-0x5e.7 (1)
     |                                               |                |                x[0:2]: 0x5f-0x64.7 (6)
     |                                               |                |                  [0][0:2]: el 0x5f-0x61.7 (3)
     |                                               |                |                    [0]{}: in 0x5f-0x60.7 (2)
0x050|                                             d2|               .|                      ref.func: 0xd2 (valid) 0x5f-0x5f.7 (1)
0x060|00                                             |.               |                      x: 0 0x60-0x60.7 (1)
     |                                               |                |                    [1]{}: in 0x61-0x61.7 (1)
0x060|   0b                                          | .              |                      end: 0xb (valid) 0x61-0x61.7 (1)
     |                                               |                |                  [1][0:2]: el 0x62-0x64.7 (3)
     |                                               |                |                    [0]{}: in 0x62-0x63.7 (2)
0x060|      d0                                       |  .             |                      ref.null: 0xd0 (valid) 0x62-0x62.7 (1)
0x060|         70                                    |   p            |                      t: "funcref" (112) 0x63-0x63.7 (1)
     |                                               |                |                    [1]{}: in 0x64-0x64.7 (1)
0x060|            0b                                 |    .           |                      end: 0xb (valid) 0x64-0x64.7 (1)
     |                                               |                |            [10]{}: seg 0x65-0x69.7 (5)
0x060|               00                              |     .          |              tag: 0 0x65-0x65.7 (1)
     |                                               |                |              e[0:2]: 0x66-0x68.7 (3)
     |                                               |                |                [0]{}: in 0x66-0x67.7 (2)
0x060|                  41                           |      A         |                  i32.const: 0x41 (valid) 0x66-0x66.7 (1)
0x060|                     00                        |       .        |                  n: 0 0x67-0x67.7 (1)
     |                                               |                |                [1]{}: in 0x68-0x68.7 (1)
0x060|                        0b                     |        .       |                  end: 0xb (valid) 0x68-0x68.7 (1)
     |                                               |                |              y{}: 0x69-0x69.7 (1)
0x060|                           00                  |         .      |                n: 0 0x69-0x69.7 (1)
     |                                               |                |                x[0:0]: 0x6a-NA (0)
     |                                               |                |            [11]{}: seg 0x6a-0x70.7 (7)
0x060|                              00               |          .     |              tag: 0 0x6a-0x6a.7 (1)
     |                                               |                |              e[0:2]: 0x6b-0x6d.7 (3)
     |                                               |                |                [0]{}: in 0x6b-0x6c.7 (2)
0x060|                                 41            |           A    |                  i32.const: 0x41 (valid) 0x6b-0x6b.7 (1)
0x060|                                    00         |            .   |                  n: 0 0x6c-0x6c.7 (1)
     |                                               |                |                [1]{}: in 0x6d-0x6d.7 (1)
0x060|                                       0b      |             .  |                  end: 0xb (valid) 0x6d-0x6d.7 (1)
     |                                               |                |              y{}: 0x6e-0x70.7 (3)
0x060|                                          02   |              . |                n: 2 0x6e-0x6e.7 (1)
     |                                               |                |                x[0:2]: 0x6f-0x70.7 (2)
0x060|                                             00|               .|                  [0]: 0 y 0x6f-0x6f.7 (1)
0x070|01                                             |.               |                  [1]: 1 y 0x70-0x70.7 (1)
     |                                               |                |            [12]{}: seg 0x71-0x75.7 (5)
0x070|   00                                          | .              |              tag: 0 0x71-0x71.7 (1)
     |                                               |                |              e[0:2]: 0x72-0x74.7 (3)
     |                                               |                |                [0]{}: in 0x72-0x73.7 (2)
0x070|      41                                       |  A             |                  i32.const: 0x41 (valid) 0x72-0x72.7 (1)
0x070|         00                                    |   .            |                  n: 0 0x73-0x73.7 (1)
     |                                               |                |                [1]{}: in 0x74-0x74.7 (1)
0x070|            0b                                 |    .           |                  end: 0xb (valid) 0x74-0x74.7 (1)
     |                                               |                |              y{}: 0x75-0x75.7 (1)
0x070|               00                              |     .          |                n: 0 0x75-0x75.7 (1)
     |                                               |                |                x[0:0]: 0x76-NA (0)
     |                                               |                |            [13]{}: seg 0x76-0x7c.7 (7)
0x070|                  00                           |      .         |              tag: 0 0x76-0x76.7 (1)
     |                                               |                |              e[0:2]: 0x77-0x79.7 (3)
     |                                               |                |                [0]{}: in 0x77-0x78.7 (2)
0x070|                     41                        |       A        |                  i32.const: 0x41 (valid) 0x77-0x77.7 (1)
0x070|                        00                     |        .       |                  n: 0 0x78-0x78.7 (1)
     |                                               |                |                [1]{}: in 0x79-0x79.7 (1)
0x070|                           0b                  |         .      |                  end: 0xb (valid) 0x79-0x79.7 (1)
     |                                               |                |              y{}: 0x7a-0x7c.7 (3)
0x070|                              02               |          .     |                n: 2 0x7a-0x7a.7 (1)
     |                                               |                |                x[0:2]: 0x7b-0x7c.7 (2)
0x070|                                 00            |           .    |                  [0]: 0 y 0x7b-0x7b.7 (1)
0x070|                                    01         |            .   |                  [1]: 1 y 0x7c-0x7c.7 (1)
     |                                               |                |            [14]{}: seg 0x7d-0x81.7 (5)
0x070|                                       00      |             .  |              tag: 0 0x7d-0x7d.7 (1)
     |                                               |                |              e[0:2]: 0x7e-0x80.7 (3)
     |                                               |                |                [0]{}: in 0x7e-0x7f.7 (2)
0x070|                                          41   |              A |                  i32.const: 0x41 (valid) 0x7e-0x7e.7 (1)
0x070|                                             00|               .|                  n: 0 0x7f-0x7f.7 (1)
     |                                               |                |                [1]{}: in 0x80-0x80.7 (1)
0x080|0b                                             |.               |                  end: 0xb (valid) 0x80-0x80.7 (1)
     |                                               |                |              y{}: 0x81-0x81.7 (1)
0x080|   00                                          | .              |                n: 0 0x81-0x81.7 (1)
     |                                               |                |                x[0:0]: 0x82-NA (0)
     |                                               |                |            [15]{}: seg 0x82-0x88.7 (7)
0x080|      00                                       |  .             |              tag: 0 0x82-0x82.7 (1)
     |                                               |                |              e[0:2]: 0x83-0x85.7 (3)
     |                                               |                |                [0]{}: in 0x83-0x84.7 (2)
0x080|         41                                    |   A            |                  i32.const: 0x41 (valid) 0x83-0x83.7 (1)
0x080|            00                                 |    .           |                  n: 0 0x84-0x84.7 (1)
     |                                               |                |                [1]{}: in 0x85-0x85.7 (1)
0x080|               0b                              |     .          |                  end: 0xb (valid) 0x85-0x85.7 (1)
     |                                               |                |              y{}: 0x86-0x88.7 (3)
0x080|                  02                           |      .         |                n: 2 0x86-0x86.7 (1)
     |                                               |                |                x[0:2]: 0x87-0x88.7 (2)
0x080|                     00                        |       .        |                  [0]: 0 y 0x87-0x87.7 (1)
0x080|                        00                     |        .       |                  [1]: 0 y 0x88-0x88.7 (1)
     |                                               |                |            [16]{}: seg 0x89-0x8d.7 (5)
0x080|                           00                  |         .      |              tag: 0 0x89-0x89.7 (1)
     |                                               |                |              e[0:2]: 0x8a-0x8c.7 (3)
     |                                               |                |                [0]{}: in 0x8a-0x8b.7 (2)
0x080|                              41               |          A     |                  i32.const: 0x41 (valid) 0x8a-0x8a.7 (1)
0x080|                                 00            |           .    |                  n: 0 0x8b-0x8b.7 (1)
     |                                               |                |                [1]{}: in 0x8c-0x8c.7 (1)
0x080|                                    0b         |            .   |                  end: 0xb (valid) 0x8c-0x8c.7 (1)
     |                                               |                |              y{}: 0x8d-0x8d.7 (1)
0x080|                                       00      |             .  |                n: 0 0x8d-0x8d.7 (1)
     |                                               |                |                x[0:0]: 0x8e-NA (0)
     |                                               |                |            [17]{}: seg 0x8e-0x94.7 (7)
0x080|                                          00   |              . |              tag: 0 0x8e-0x8e.7 (1)
     |                                               |                |              e[0:2]: 0x8f-0x91.7 (3)
     |                                               |                |                [0]{}: in 0x8f-0x90.7 (2)
0x080|                                             41|               A|                  i32.const: 0x41 (valid) 0x8f-0x8f.7 (1)
0x090|00                                             |.               |                  n: 0 0x90-0x90.7 (1)
     |                                               |                |                [1]{}: in 0x91-0x91.7 (1)
0x090|   0b                                          | .              |                  end: 0xb (valid) 0x91-0x91.7 (1)
     |                                               |                |              y{}: 0x92-0x94.7 (3)
0x090|      02                                       |  .             |                n: 2 0x92-0x92.7 (1)
     |                                               |                |                x[0:2]: 0x93-0x94.7 (2)
0x090|         00                                    |   .            |                  [0]: 0 y 0x93-0x93.7 (1)
0x090|            00                                 |    .           |                  [1]: 0 y 0x94-0x94.7 (1)
     |                                               |                |            [18]{}: seg 0x95-0x99.7 (5)
0x090|               00                              |     .          |              tag: 0 0x95-0x95.7 (1)
     |                                               |                |              e[0:2]: 0x96-0x98.7 (3)
     |                                               |                |                [0]{}: in 0x96-0x97.7 (2)
0x090|                  41                           |      A         |                  i32.const: 0x41 (valid) 0x96-0x96.7 (1)
0x090|                     00                        |       .        |                  n: 0 0x97-0x97.7 (1)
     |                                               |                |                [1]{}: in 0x98-0x98.7 (1)
0x090|                        0b                     |        .       |                  end: 0xb (valid) 0x98-0x98.7 (1)
     |                                               |                |              y{}: 0x99-0x99.7 (1)
0x090|                           00                  |         .      |                n: 0 0x99-0x99.7 (1)
     |                                               |                |                x[0:0]: 0x9a-NA (0)
     |                                               |                |            [19]{}: seg 0x9a-0xa0.7 (7)
0x090|                              00               |          .     |              tag: 0 0x9a-0x9a.7 (1)
     |                                               |                |              e[0:2]: 0x9b-0x9d.7 (3)
     |                                               |                |                [0]{}: in 0x9b-0x9c.7 (2)
0x090|                                 41            |           A    |                  i32.const: 0x41 (valid) 0x9b-0x9b.7 (1)
0x090|                                    00         |            .   |                  n: 0 0x9c-0x9c.7 (1)
     |                                               |                |                [1]{}: in 0x9d-0x9d.7 (1)
0x090|                                       0b      |             .  |                  end: 0xb (valid) 0x9d-0x9d.7 (1)
     |                                               |                |              y{}: 0x9e-0xa0.7 (3)
0x090|                                          02   |              . |                n: 2 0x9e-0x9e.7 (1)
     |                                               |                |                x[0:2]: 0x9f-0xa0.7 (2)
0x090|                                             00|               .|                  [0]: 0 y 0x9f-0x9f.7 (1)
0x0a0|00                                             |.               |                  [1]: 0 y 0xa0-0xa0.7 (1)
     |                                               |                |            [20]{}: seg 0xa1-0xa5.7 (5)
0x0a0|   00                                          | .              |              tag: 0 0xa1-0xa1.7 (1)
     |                                               |                |              e[0:2]: 0xa2-0xa4.7 (3)
     |                                               |                |                [0]{}: in 0xa2-0xa3.7 (2)
0x0a0|      41                                       |  A             |                  i32.const: 0x41 (valid) 0xa2-0xa2.7 (1)
0x0a0|         00                                    |   .            |                  n: 0 0xa3-0xa3.7 (1)
     |                                               |                |                [1]{}: in 0xa4-0xa4.7 (1)
0x0a0|            0b                                 |    .           |                  end: 0xb (valid) 0xa4-0xa4.7 (1)
     |                                               |                |              y{}: 0xa5-0xa5.7 (1)
0x0a0|               00                              |     .          |                n: 0 0xa5-0xa5.7 (1)
     |                                               |                |                x[0:0]: 0xa6-NA (0)
     |                                               |                |            [21]{}: seg 0xa6-0xac.7 (7)
0x0a0|                  00                           |      .         |              tag: 0 0xa6-0xa6.7 (1)
     |                                               |                |              e[0:2]: 0xa7-0xa9.7 (3)
     |                                               |                |                [0]{}: in 0xa7-0xa8.7 (2)
0x0a0|                     41                        |       A        |                  i32.const: 0x41 (valid) 0xa7-0xa7.7 (1)
0x0a0|                        00                     |        .       |                  n: 0 0xa8-0xa8.7 (1)
     |                                               |                |                [1]{}: in 0xa9-0xa9.7 (1)
0x0a0|                           0b                  |         .      |                  end: 0xb (valid) 0xa9-0xa9.7 (1)
     |                                               |                |              y{}: 0xaa-0xac.7 (3)
0x0a0|                              02               |          .     |                n: 2 0xaa-0xaa.7 (1)
     |                                               |                |                x[0:2]: 0xab-0xac.7 (2)
0x0a0|                                 00            |           .    |                  [0]: 0 y 0xab-0xab.7 (1)
0x0a0|                                    00         |            .   |                  [1]: 0 y 0xac-0xac.7 (1)
     |                                               |                |            [22]{}: seg 0xad-0xb1.7 (5)
0x0a0|                                       00      |             .  |              tag: 0 0xad-0xad.7 (1)
     |                                               |                |              e[0:2]: 0xae-0xb0.7 (3)
     |                                               |                |                [0]{}: in 0xae-0xaf.7 (2)
0x0a0|                                          41   |              A |                  i32.const: 0x41 (valid) 0xae-0xae.7 (1)
0x0a0|                                             00|               .|                  n: 0 0xaf-0xaf.7 (1)
     |                                               |                |                [1]{}: in 0xb0-0xb0.7 (1)
0x0b0|0b                                             |.               |                  end: 0xb (valid) 0xb0-0xb0.7 (1)
     |                                               |                |              y{}: 0xb1-0xb1.7 (1)
0x0b0|   00                                          | .              |                n: 0 0xb1-0xb1.7 (1)
     |                                               |                |                x[0:0]: 0xb2-NA (0)
     |                                               |                |            [23]{}: seg 0xb2-0xbc.7 (11)
0x0b0|      04                                       |  .             |              tag: 4 0xb2-0xb2.7 (1)
     |                                               |                |              e[0:2]: 0xb3-0xb5.7 (3)
     |                                               |                |                [0]{}: in 0xb3-0xb4.7 (2)
0x0b0|         41                                    |   A            |                  i32.const: 0x41 (valid) 0xb3-0xb3.7 (1)
0x0b0|            00                                 |    .           |                  n: 0 0xb4-0xb4.7 (1)
     |                                               |                |                [1]{}: in 0xb5-0xb5.7 (1)
0x0b0|               0b                              |     .          |                  end: 0xb (valid) 0xb5-0xb5.7 (1)
     |                                               |                |              el{}: 0xb6-0xbc.7 (7)
0x0b0|                  02                           |      .         |                n: 2 0xb6-0xb6.7 (1)
     |                                               |                |                x[0:2]: 0xb7-0xbc.7 (6)
     |                                               |                |                  [0][0:2]: el 0xb7-0xb9.7 (3)
     |                                               |                |                    [0]{}: in 0xb7-0xb8.7 (2)
0x0b0|                     d2                        |       .        |                      ref.func: 0xd2 (valid) 0xb7-0xb7.7 (1)
0x0b0|                        00                     |        .       |                      x: 0 0xb8-0xb8.7 (1)
     |                                               |                |                    [1]{}: in 0xb9-0xb9.7 (1)
0x0b0|                           0b                  |         .      |                      end: 0xb (valid) 0xb9-0xb9.7 (1)
     |                                               |                |                  [1][0:2]: el 0xba-0xbc.7 (3)
     |                                               |                |                    [0]{}: in 0xba-0xbb.7 (2)
0x0b0|                              d0               |          .     |                      ref.null: 0xd0 (valid) 0xba-0xba.7 (1)
0x0b0|                                 70            |           p    |                      t: "funcref" (112) 0xbb-0xbb.7 (1)
     |                                               |                |                    [1]{}: in 0xbc-0xbc.7 (1)
0x0b0|                                    0b         |            .   |                      end: 0xb (valid) 0xbc-0xbc.7 (1)
     |                                               |                |            [24]{}: seg 0xbd-0xc3.7 (7)
0x0b0|                                       00      |             .  |              tag: 0 0xbd-0xbd.7 (1)
     |                                               |                |              e[0:2]: 0xbe-0xc0.7 (3)
     |                                               |                |                [0]{}: in 0xbe-0xbf.7 (2)
0x0b0|                                          41   |              A |                  i32.const: 0x41 (valid) 0xbe-0xbe.7 (1)
0x0b0|                                             00|               .|                  n: 0 0xbf-0xbf.7 (1)
     |                                               |                |                [1]{}: in 0xc0-0xc0.7 (1)
0x0c0|0b                                             |.               |                  end: 0xb (valid) 0xc0-0xc0.7 (1)
     |                                               |                |              y{}: 0xc1-0xc3.7 (3)
0x0c0|   02                                          | .              |                n: 2 0xc1-0xc1.7 (1)
     |                                               |                |                x[0:2]: 0xc2-0xc3.7 (2)
0x0c0|      00                                       |  .             |                  [0]: 0 y 0xc2-0xc2.7 (1)
0x0c0|         00                                    |   .            |                  [1]: 0 y 0xc3-0xc3.7 (1)
     |                                               |                |            [25]{}: seg 0xc4-0xca.7 (7)
0x0c0|            00                                 |    .           |              tag: 0 0xc4-0xc4.7 (1)
     |                                               |                |              e[0:2]: 0xc5-0xc7.7 (3)
     |                                               |                |                [0]{}: in 0xc5-0xc6.7 (2)
0x0c0|               41                              |     A          |                  i32.const: 0x41 (valid) 0xc5-0xc5.7 (1)
0x0c0|                  00                           |      .         |                  n: 0 0xc6-0xc6.7 (1)
     |                                               |                |                [1]{}: in 0xc7-0xc7.7 (1)
0x0c0|                     0b                        |       .        |                  end: 0xb (valid) 0xc7-0xc7.7 (1)
     |                                               |                |              y{}: 0xc8-0xca.7 (3)
0x0c0|                        02                     |        .       |                n: 2 0xc8-0xc8.7 (1)
     |                                               |                |                x[0:2]: 0xc9-0xca.7 (2)
0x0c0|                           00                  |         .      |                  [0]: 0 y 0xc9-0xc9.7 (1)
0x0c0|                              00               |          .     |                  [1]: 0 y 0xca-0xca.7 (1)
     |                                               |                |            [26]{}: seg 0xcb-0xcf.7 (5)
0x0c0|                                 00            |           .    |              tag: 0 0xcb-0xcb.7 (1)
     |                                               |                |              e[0:2]: 0xcc-0xce.7 (3)
     |                                               |                |                [0]{}: in 0xcc-0xcd.7 (2)
0x0c0|                                    41         |            A   |                  i32.const: 0x41 (valid) 0xcc-0xcc.7 (1)
0x0c0|                                       00      |             .  |                  n: 0 0xcd-0xcd.7 (1)
     |                                               |                |                [1]{}: in 0xce-0xce.7 (1)
0x0c0|                                          0b   |              . |                  end: 0xb (valid) 0xce-0xce.7 (1)
     |                                               |                |              y{}: 0xcf-0xcf.7 (1)
0x0c0|                                             00|               .|                n: 0 0xcf-0xcf.7 (1)
     |                                               |                |                x[0:0]: 0xd0-NA (0)
     |                                               |                |            [27]{}: seg 0xd0-0xda.7 (11)
0x0d0|04                                             |.               |              tag: 4 0xd0-0xd0.7 (1)
     |                                               |                |              e[0:2]: 0xd1-0xd3.7 (3)
     |                                               |                |                [0]{}: in 0xd1-0xd2.7 (2)
0x0d0|   41                                          | A              |                  i32.const: 0x41 (valid) 0xd1-0xd1.7 (1)
0x0d0|      00                                       |  .             |                  n: 0 0xd2-0xd2.7 (1)
     |                                               |                |                [1]{}: in 0xd3-0xd3.7 (1)
0x0d0|         0b                                    |   .            |                  end: 0xb (valid) 0xd3-0xd3.7 (1)
     |                                               |                |              el{}: 0xd4-0xda.7 (7)
0x0d0|            02                                 |    .           |                n: 2 0xd4-0xd4.7 (1)
     |                                               |                |                x[0:2]: 0xd5-0xda.7 (6)
     |                                               |                |                  [0][0:2]: el 0xd5-0xd7.7 (3)
     |                                               |                |                    [0]{}: in 0xd5-0xd6.7 (2)
0x0d0|               d2                              |     .          |                      ref.func: 0xd2 (valid) 0xd5-0xd5.7 (1)
0x0d0|                  00                           |      .         |                      x: 0 0xd6-0xd6.7 (1)
     |                                               |                |                    [1]{}: in 0xd7-0xd7.7 (1)
0x0d0|                     0b                        |       .        |                      end: 0xb (valid) 0xd7-0xd7.7 (1)
     |                                               |                |                  [1][0:2]: el 0xd8-0xda.7 (3)
     |                                               |                |                    [0]{}: in 0xd8-0xd9.7 (2)
0x0d0|                        d0                     |        .       |                      ref.null: 0xd0 (valid) 0xd8-0xd8.7 (1)
0x0d0|                           70                  |         p      |                      t: "funcref" (112) 0xd9-0xd9.7 (1)
     |                                               |                |                    [1]{}: in 0xda-0xda.7 (1)
0x0d0|                              0b               |          .     |                      end: 0xb (valid) 0xda-0xda.7 (1)
     |                                               |                |            [28]{}: seg 0xdb-0xe1.7 (7)
0x0d0|                                 00            |           .    |              tag: 0 0xdb-0xdb.7 (1)
     |                                               |                |              e[0:2]: 0xdc-0xde.7 (3)
     |                                               |                |                [0]{}: in 0xdc-0xdd.7 (2)
0x0d0|                                    41         |            A   |                  i32.const: 0x41 (valid) 0xdc-0xdc.7 (1)
0x0d0|                                       00      |             .  |                  n: 0 0xdd-0xdd.7 (1)
     |                                               |                |                [1]{}: in 0xde-0xde.7 (1)
0x0d0|                                          0b   |              . |                  end: 0xb (valid) 0xde-0xde.7 (1)
     |                                               |                |              y{}: 0xdf-0xe1.7 (3)
0x0d0|                                             02|               .|                n: 2 0xdf-0xdf.7 (1)
     |                                               |                |                x[0:2]: 0xe0-0xe1.7 (2)
0x0e0|00                                             |.               |                  [0]: 0 y 0xe0-0xe0.7 (1)
0x0e0|   00                                          | .              |                  [1]: 0 y 0xe1-0xe1.7 (1)
     |                                               |                |            [29]{}: seg 0xe2-0xe8.7 (7)
0x0e0|      00                                       |  .             |              tag: 0 0xe2-0xe2.7 (1)
     |                                               |                |              e[0:2]: 0xe3-0xe5.7 (3)
     |                                               |                |                [0]{}: in 0xe3-0xe4.7 (2)
0x0e0|         41                                    |   A            |                  i32.const: 0x41 (valid) 0xe3-0xe3.7 (1)
0x0e0|            00                                 |    .           |                  n: 0 0xe4-0xe4.7 (1)
     |                                               |                |                [1]{}: in 0xe5-0xe5.7 (1)
0x0e0|               0b                              |     .          |                  end: 0xb (valid) 0xe5-0xe5.7 (1)
     |                                               |                |              y{}: 0xe6-0xe8.7 (3)
0x0e0|                  02                           |      .         |                n: 2 0xe6-0xe6.7 (1)
     |                                               |                |                x[0:2]: 0xe7-0xe8.7 (2)
0x0e0|                     00                        |       .        |                  [0]: 0 y 0xe7-0xe7.7 (1)
0x0e0|                        00                     |        .       |                  [1]: 0 y 0xe8-0xe8.7 (1)
     |                                               |                |            [30]{}: seg 0xe9-0xf3.7 (11)
0x0e0|                           04                  |         .      |              tag: 4 0xe9-0xe9.7 (1)
     |                                               |                |              e[0:2]: 0xea-0xec.7 (3)
     |                                               |                |                [0]{}: in 0xea-0xeb.7 (2)
0x0e0|                              41               |          A     |                  i32.const: 0x41 (valid) 0xea-0xea.7 (1)
0x0e0|                                 00            |           .    |                  n: 0 0xeb-0xeb.7 (1)
     |                                               |                |                [1]{}: in 0xec-0xec.7 (1)
0x0e0|                                    0b         |            .   |                  end: 0xb (valid) 0xec-0xec.7 (1)
     |                                               |                |              el{}: 0xed-0xf3.7 (7)
0x0e0|                                       02      |             .  |                n: 2 0xed-0xed.7 (1)
     |                                               |                |                x[0:2]: 0xee-0xf3.7 (6)
     |                                               |                |                  [0][0:2]: el 0xee-0xf0.7 (3)
     |                                               |                |                    [0]{}: in 0xee-0xef.7 (2)
0x0e0|                                          d2   |              . |                      ref.func: 0xd2 (valid) 0xee-0xee.7 (1)
0x0e0|                                             00|               .|                      x: 0 0xef-0xef.7 (1)
     |                                               |                |                    [1]{}: in 0xf0-0xf0.7 (1)
0x0f0|0b                                             |.               |                      end: 0xb (valid) 0xf0-0xf0.7 (1)
     |                                               |                |                  [1][0:2]: el 0xf1-0xf3.7 (3)
     |                                               |                |                    [0]{}: in 0xf1-0xf2.7 (2)
0x0f0|   d0                                          | .              |                      ref.null: 0xd0 (valid) 0xf1-0xf1.7 (1)
0x0f0|      70                                       |  p             |                      t: "funcref" (112) 0xf2-0xf2.7 (1)
     |                                               |                |                    [1]{}: in 0xf3-0xf3.7 (1)
0x0f0|         0b                                    |   .            |                      end: 0xb (valid) 0xf3-0xf3.7 (1)
     |                                               |                |            [31]{}: seg 0xf4-0xf8.7 (5)
0x0f0|            00                                 |    .           |              tag: 0 0xf4-0xf4.7 (1)
     |                                               |                |              e[0:2]: 0xf5-0xf7.7 (3)
     |                                               |                |                [0]{}: in 0xf5-0xf6.7 (2)
0x0f0|               41                              |     A          |                  i32.const: 0x41 (valid) 0xf5-0xf5.7 (1)
0x0f0|                  00                           |      .         |                  n: 0 0xf6-0xf6.7 (1)
     |                                               |                |                [1]{}: in 0xf7-0xf7.7 (1)
0x0f0|                     0b                        |       .        |                  end: 0xb (valid) 0xf7-0xf7.7 (1)
     |                                               |                |              y{}: 0xf8-0xf8.7 (1)
0x0f0|                        00                     |        .       |                n: 0 0xf8-0xf8.7 (1)
     |                                               |                |                x[0:0]: 0xf9-NA (0)
     |                                               |                |            [32]{}: seg 0xf9-0x103.7 (11)
0x0f0|                           04                  |         .      |              tag: 4 0xf9-0xf9.7 (1)
     |                                               |                |              e[0:2]: 0xfa-0xfc.7 (3)
     |                                               |                |                [0]{}: in 0xfa-0xfb.7 (2)
0x0f0|                              41               |          A     |                  i32.const: 0x41 (valid) 0xfa-0xfa.7 (1)
0x0f0|                                 00            |           .    |                  n: 0 0xfb-0xfb.7 (1)
     |                                               |                |                [1]{}: in 0xfc-0xfc.7 (1)
0x0f0|                                    0b         |            .   |                  end: 0xb (valid) 0xfc-0xfc.7 (1)
     |                                               |                |              el{}: 0xfd-0x103.7 (7)
0x0f0|                                       02      |             .  |                n: 2 0xfd-0xfd.7 (1)
     |                                               |                |                x[0:2]: 0xfe-0x103.7 (6)
     |                                               |                |                  [0][0:2]: el 0xfe-0x100.7 (3)
     |                                               |                |                    [0]{}: in 0xfe-0xff.7 (2)
0x0f0|                                          d2   |              . |                      ref.func: 0xd2 (valid) 0xfe-0xfe.7 (1)
0x0f0|                                             00|               .|                      x: 0 0xff-0xff.7 (1)
     |                                               |                |                    [1]{}: in 0x100-0x100.7 (1)
0x100|0b                                             |.               |                      end: 0xb (valid) 0x100-0x100.7 (1)
     |                                               |                |                  [1][0:2]: el 0x101-0x103.7 (3)
     |                                               |                |                    [0]{}: in 0x101-0x102.7 (2)
0x100|   d0                                          | .              |                      ref.null: 0xd0 (valid) 0x101-0x101.7 (1)
0x100|      70                                       |  p             |                      t: "funcref" (112) 0x102-0x102.7 (1)
     |                                               |                |                    [1]{}: in 0x103-0x103.7 (1)
0x100|         0b                                    |   .            |                      end: 0xb (valid) 0x103-0x103.7 (1)
     |                                               |                |            [33]{}: seg 0x104-0x108.7 (5)
0x100|            00                                 |    .           |              tag: 0 0x104-0x104.7 (1)
     |                                               |                |              e[0:2]: 0x105-0x107.7 (3)
     |                                               |                |                [0]{}: in 0x105-0x106.7 (2)
0x100|               41                              |     A          |                  i32.const: 0x41 (valid) 0x105-0x105.7 (1)
0x100|                  00                           |      .         |                  n: 0 0x106-0x106.7 (1)
     |                                               |                |                [1]{}: in 0x107-0x107.7 (1)
0x100|                     0b                        |       .        |                  end: 0xb (valid) 0x107-0x107.7 (1)
     |                                               |                |              y{}: 0x108-0x108.7 (1)
0x100|                        00                     |        .       |                n: 0 0x108-0x108.7 (1)
     |                                               |                |                x[0:0]: 0x109-NA (0)
     |                                               |                |            [34]{}: seg 0x109-0x10f.7 (7)
0x100|                           00                  |         .      |              tag: 0 0x109-0x109.7 (1)
     |                                               |                |              e[0:2]: 0x10a-0x10c.7 (3)
     |                                               |                |                [0]{}: in 0x10a-0x10b.7 (2)
0x100|                              41               |          A     |                  i32.const: 0x41 (valid) 0x10a-0x10a.7 (1)
0x100|                                 00            |           .    |                  n: 0 0x10b-0x10b.7 (1)
     |                                               |                |                [1]{}: in 0x10c-0x10c.7 (1)
0x100|                                    0b         |            .   |                  end: 0xb (valid) 0x10c-0x10c.7 (1)
     |                                               |                |              y{}: 0x10d-0x10f.7 (3)
0x100|                                       02      |             .  |                n: 2 0x10d-0x10d.7 (1)
     |                                               |                |                x[0:2]: 0x10e-0x10f.7 (2)
0x100|                                          00   |              . |                  [0]: 0 y 0x10e-0x10e.7 (1)
0x100|                                             01|               .|                  [1]: 1 y 0x10f-0x10f.7 (1)
     |                                               |                |            [35]{}: seg 0x110-0x114.7 (5)
0x110|00                                             |.               |              tag: 0 0x110-0x110.7 (1)
     |                                               |                |              e[0:2]: 0x111-0x113.7 (3)
     |                                               |                |                [0]{}: in 0x111-0x112.7 (2)
0x110|   41                                          | A              |                  i32.const: 0x41 (valid) 0x111-0x111.7 (1)
0x110|      00                                       |  .             |                  n: 0 0x112-0x112.7 (1)
     |                                               |                |                [1]{}: in 0x113-0x113.7 (1)
0x110|         0b                                    |   .            |                  end: 0xb (valid) 0x113-0x113.7 (1)
     |                                               |                |              y{}: 0x114-0x114.7 (1)
0x110|            00                                 |    .           |                n: 0 0x114-0x114.7 (1)
     |                                               |                |                x[0:0]: 0x115-NA (0)
     |                                               |                |            [36]{}: seg 0x115-0x11b.7 (7)
0x110|               00                              |     .          |              tag: 0 0x115-0x115.7 (1)
     |                                               |                |              e[0:2]: 0x116-0x118.7 (3)
     |                                               |                |                [0]{}: in 0x116-0x117.7 (2)
0x110|                  41                           |      A         |                  i32.const: 0x41 (valid) 0x116-0x116.7 (1)
0x110|                     00                        |       .        |                  n: 0 0x117-0x117.7 (1)
     |                                               |                |                [1]{}: in 0x118-0x118.7 (1)
0x110|                        0b                     |        .       |                  end: 0xb (valid) 0x118-0x118.7 (1)
     |                                               |                |              y{}: 0x119-0x11b.7 (3)
0x110|                           02                  |         .      |                n: 2 0x119-0x119.7 (1)
     |                                               |                |                x[0:2]: 0x11a-0x11b.7 (2)
0x110|                              00               |          .     |                  [0]: 0 y 0x11a-0x11a.7 (1)
0x110|                                 01            |           .    |                  [1]: 1 y 0x11b-0x11b.7 (1)
     |                                               |                |            [37]{}: seg 0x11c-0x120.7 (5)
0x110|                                    00         |            .   |              tag: 0 0x11c-0x11c.7 (1)
     |                                               |                |              e[0:2]: 0x11d-0x11f.7 (3)
     |                                               |                |                [0]{}: in 0x11d-0x11e.7 (2)
0x110|                                       41      |             A  |                  i32.const: 0x41 (valid) 0x11d-0x11d.7 (1)
0x110|                                          00   |              . |                  n: 0 0x11e-0x11e.7 (1)
     |                                               |                |                [1]{}: in 0x11f-0x11f.7 (1)
0x110|                                             0b|               .|                  end: 0xb (valid) 0x11f-0x11f.7 (1)
     |                                               |                |              y{}: 0x120-0x120.7 (1)
0x120|00                                             |.               |                n: 0 0x120-0x120.7 (1)
     |                                               |                |                x[0:0]: 0x121-NA (0)
     |                                               |                |            [38]{}: seg 0x121-0x127.7 (7)
0x120|   00                                          | .              |              tag: 0 0x121-0x121.7 (1)
     |                                               |                |              e[0:2]: 0x122-0x124.7 (3)
     |                                               |                |                [0]{}: in 0x122-0x123.7 (2)
0x120|      41                                       |  A             |                  i32.const: 0x41 (valid) 0x122-0x122.7 (1)
0x120|         00                                    |   .            |                  n: 0 0x123-0x123.7 (1)
     |                                               |                |                [1]{}: in 0x124-0x124.7 (1)
0x120|            0b                                 |    .           |                  end: 0xb (valid) 0x124-0x124.7 (1)
     |                                               |                |              y{}: 0x125-0x127.7 (3)
0x120|               02                              |     .          |                n: 2 0x125-0x125.7 (1)
     |                                               |                |                x[0:2]: 0x126-0x127.7 (2)
0x120|                  00                           |      .         |                  [0]: 0 y 0x126-0x126.7 (1)
0x120|                     00                        |       .        |                  [1]: 0 y 0x127-0x127.7 (1)
     |                                               |                |            [39]{}: seg 0x128-0x12c.7 (5)
0x120|                        00                     |        .       |              tag: 0 0x128-0x128.7 (1)
     |                                               |                |              e[0:2]: 0x129-0x12b.7 (3)
     |                                               |                |                [0]{}: in 0x129-0x12a.7 (2)
0x120|                           41                  |         A      |                  i32.const: 0x41 (valid) 0x129-0x129.7 (1)
0x120|                              00               |          .     |                  n: 0 0x12a-0x12a.7 (1)
     |                                               |                |                [1]{}: in 0x12b-0x12b.7 (1)
0x120|                                 0b            |           .    |                  end: 0xb (valid) 0x12b-0x12b.7 (1)
     |                                               |                |              y{}: 0x12c-0x12c.7 (1)
0x120|                                    00         |            .   |                n: 0 0x12c-0x12c.7 (1)
     |                                               |                |                x[0:0]: 0x12d-NA (0)
     |                                               |                |            [40]{}: seg 0x12d-0x133.7 (7)
0x120|                                       00      |             .  |              tag: 0 0x12d-0x12d.7 (1)
     |                                               |                |              e[0:2]: 0x12e-0x130.7 (3)
     |                                               |                |                [0]{}: in 0x12e-0x12f.7 (2)
0x120|                                          41   |              A |                  i32.const: 0x41 (valid) 0x12e-0x12e.7 (1)
0x120|                                             00|               .|                  n: 0 0x12f-0x12f.7 (1)
     |                                               |                |                [1]{}: in 0x130-0x130.7 (1)
0x130|0b                                             |.               |                  end: 0xb (valid) 0x130-0x130.7 (1)
     |                                               |                |              y{}: 0x131-0x133.7 (3)
0x130|   02                                          | .              |                n: 2 0x131-0x131.7 (1)
     |                                               |                |                x[0:2]: 0x132-0x133.7 (2)
0x130|      00                                       |  .             |                  [0]: 0 y 0x132-0x132.7 (1)
0x130|         00                                    |   .            |                  [1]: 0 y 0x133-0x133.7 (1)
     |                                               |                |            [41]{}: seg 0x134-0x138.7 (5)
0x130|            00                                 |    .           |              tag: 0 0x134-0x134.7 (1)
     |                                               |                |              e[0:2]: 0x135-0x137.7 (3)
     |                                               |                |                [0]{}: in 0x135-0x136.7 (2)
0x130|               41                              |     A          |                  i32.const: 0x41 (valid) 0x135-0x135.7 (1)
0x130|                  00                           |      .         |                  n: 0 0x136-0x136.7 (1)
     |                                               |                |                [1]{}: in 0x137-0x137.7 (1)
0x130|                     0b                        |       .        |                  end: 0xb (valid) 0x137-0x137.7 (1)
     |                                               |                |              y{}: 0x138-0x138.7 (1)
0x130|                        00                     |        .       |                n: 0 0x138-0x138.7 (1)
     |                                               |                |                x[0:0]: 0x139-NA (0)
     |                                               |                |            [42]{}: seg 0x139-0x13f.7 (7)
0x130|                           00                  |         .      |              tag: 0 0x139-0x139.7 (1)
     |                                               |                |              e[0:2]: 0x13a-0x13c.7 (3)
     |                                               |                |                [0]{}: in 0x13a-0x13b.7 (2)
0x130|                              41               |          A     |                  i32.const: 0x41 (valid) 0x13a-0x13a.7 (1)
0x130|                                 00            |           .    |                  n: 0 0x13b-0x13b.7 (1)
     |                                               |                |                [1]{}: in 0x13c-0x13c.7 (1)
0x130|                                    0b         |            .   |                  end: 0xb (valid) 0x13c-0x13c.7 (1)
     |                                               |                |              y{}: 0x13d-0x13f.7 (3)
0x130|                                       02      |             .  |                n: 2 0x13d-0x13d.7 (1)
     |                                               |                |                x[0:2]: 0x13e-0x13f.7 (2)
0x130|                                          00   |              . |                  [0]: 0 y 0x13e-0x13e.7 (1)
0x130|                                             00|               .|                  [1]: 0 y 0x13f-0x13f.7 (1)
     |                                               |                |            [43]{}: seg 0x140-0x144.7 (5)
0x140|00                                             |.               |              tag: 0 0x140-0x140.7 (1)
     |                                               |                |              e[0:2]: 0x141-0x143.7 (3)
     |                                               |                |                [0]{}: in 0x141-0x142.7 (2)
0x140|   41                                          | A              |                  i32.const: 0x41 (valid) 0x141-0x141.7 (1)
0x140|      00                                       |  .             |                  n: 0 0x142-0x142.7 (1)
     |                                               |                |                [1]{}: in 0x143-0x143.7 (1)
0x140|         0b                                    |   .            |                  end: 0xb (valid) 0x143-0x143.7 (1)
     |                                               |                |              y{}: 0x144-0x144.7 (1)
0x140|            00                                 |    .           |                n: 0 0x144-0x144.7 (1)
     |                                               |                |                x[0:0]: 0x145-NA (0)
     |                                               |                |            [44]{}: seg 0x145-0x14b.7 (7)
0x140|               00                              |     .          |              tag: 0 0x145-0x145.7 (1)
     |                                               |                |              e[0:2]: 0x146-0x148.7 (3)
     |                                               |                |                [0]{}: in 0x146-0x147.7 (2)
0x140|                  41                           |      A         |                  i32.const: 0x41 (valid) 0x146-0x146.7 (1)
0x140|                     00                        |       .        |                  n: 0 0x147-0x147.7 (1)
     |                                               |                |                [1]{}: in 0x148-0x148.7 (1)
0x140|                        0b                     |        .       |                  end: 0xb (valid) 0x148-0x148.7 (1)
     |                                               |                |              y{}: 0x149-0x14b.7 (3)
0x140|                           02                  |         .      |                n: 2 0x149-0x149.7 (1)
     |                                               |                |                x[0:2]: 0x14a-0x14b.7 (2)
0x140|                              00               |          .     |                  [0]: 0 y 0x14a-0x14a.7 (1)
0x140|                                 00            |           .    |                  [1]: 0 y 0x14b-0x14b.7 (1)
     |                                               |                |            [45]{}: seg 0x14c-0x150.7 (5)
0x140|                                    00         |            .   |              tag: 0 0x14c-0x14c.7 (1)
     |                                               |                |              e[0:2]: 0x14d-0x14f.7 (3)
     |                                               |                |                [0]{}: in 0x14d-0x14e.7 (2)
0x140|                                       41      |             A  |                  i32.const: 0x41 (valid) 0x14d-0x14d.7 (1)
0x140|                                          00   |              . |                  n: 0 0x14e-0x14e.7 (1)
     |                                               |                |                [1]{}: in 0x14f-0x14f.7 (1)
0x140|                                             0b|               .|                  end: 0xb (valid) 0x14f-0x14f.7 (1)
     |                                               |                |              y{}: 0x150-0x150.7 (1)
0x150|00                                             |.               |                n: 0 0x150-0x150.7 (1)
     |                                               |                |                x[0:0]: 0x151-NA (0)
     |                                               |                |            [46]{}: seg 0x151-0x15b.7 (11)
0x150|   04                                          | .              |              tag: 4 0x151-0x151.7 (1)
     |                                               |                |              e[0:2]: 0x152-0x154.7 (3)
     |                                               |                |                [0]{}: in 0x152-0x153.7 (2)
0x150|      41                                       |  A             |                  i32.const: 0x41 (valid) 0x152-0x152.7 (1)
0x150|         00                                    |   .            |                  n: 0 0x153-0x153.7 (1)
     |                                               |                |                [1]{}: in 0x154-0x154.7 (1)
0x150|            0b                                 |    .           |                  end: 0xb (valid) 0x154-0x154.7 (1)
     |                                               |                |              el{}: 0x155-0x15b.7 (7)
0x150|               02                              |     .          |                n: 2 0x155-0x155.7 (1)
     |                                               |                |                x[0:2]: 0x156-0x15b.7 (6)
     |                                               |                |                  [0][0:2]: el 0x156-0x158.7 (3)
     |                                               |                |                    [0]{}: in 0x156-0x157.7 (2)
0x150|                  d2                           |      .         |                      ref.func: 0xd2 (valid) 0x156-0x156.7 (1)
0x150|                     00                        |       .        |                      x: 0 0x157-0x157.7 (1)
     |                                               |                |                    [1]{}: in 0x158-0x158.7 (1)
0x150|                        0b                     |        .       |                      end: 0xb (valid) 0x158-0x158.7 (1)
     |                                               |                |                  [1][0:2]: el 0x159-0x15b.7 (3)
     |                                               |                |                    [0]{}: in 0x159-0x15a.7 (2)
0x150|                           d0                  |         .      |                      ref.null: 0xd0 (valid) 0x159-0x159.7 (1)
0x150|                              70               |          p     |                      t: "funcref" (112) 0x15a-0x15a.7 (1)
     |                                               |                |                    [1]{}: in 0x15b-0x15b.7 (1)
0x150|                                 0b            |           .    |                      end: 0xb (valid) 0x15b-0x15b.7 (1)
     |                                               |                |            [47]{}: seg 0x15c-0x162.7 (7)
0x150|                                    00         |            .   |              tag: 0 0x15c-0x15c.7 (1)
     |                                               |                |              e[0:2]: 0x15d-0x15f.7 (3)
     |                                               |                |                [0]{}: in 0x15d-0x15e.7 (2)
0x150|                                       41      |             A  |                  i32.const: 0x41 (valid) 0x15d-0x15d.7 (1)
0x150|                                          00   |              . |                  n: 0 0x15e-0x15e.7 (1)
     |                                               |                |                [1]{}: in 0x15f-0x15f.7 (1)
0x150|                                             0b|               .|                  end: 0xb (valid) 0x15f-0x15f.7 (1)
     |                                               |                |              y{}: 0x160-0x162.7 (3)
0x160|02                                             |.               |                n: 2 0x160-0x160.7 (1)
     |                                               |                |                x[0:2]: 0x161-0x162.7 (2)
0x160|   00                                          | .              |                  [0]: 0 y 0x161-0x161.7 (1)
0x160|      00                                       |  .             |                  [1]: 0 y 0x162-0x162.7 (1)
     |                                               |                |            [48]{}: seg 0x163-0x169.7 (7)
0x160|         00                                    |   .            |              tag: 0 0x163-0x163.7 (1)
     |                                               |                |              e[0:2]: 0x164-0x166.7 (3)
     |                                               |                |                [0]{}: in 0x164-0x165.7 (2)
0x160|            41                                 |    A           |                  i32.const: 0x41 (valid) 0x164-0x164.7 (1)
0x160|               00                              |     .          |                  n: 0 0x165-0x165.7 (1)
     |                                               |                |                [1]{}: in 0x166-0x166.7 (1)
0x160|                  0b                           |      .         |                  end: 0xb (valid) 0x166-0x166.7 (1)
     |                                               |                |              y{}: 0x167-0x169.7 (3)
0x160|                     02                        |       .        |                n: 2 0x167-0x167.7 (1)
     |                                               |                |                x[0:2]: 0x168-0x169.7 (2)
0x160|                        00                     |        .       |                  [0]: 0 y 0x168-0x168.7 (1)
0x160|                           00                  |         .      |                  [1]: 0 y 0x169-0x169.7 (1)
     |                                               |                |            [49]{}: seg 0x16a-0x16e.7 (5)
0x160|                              00               |          .     |              tag: 0 0x16a-0x16a.7 (1)
     |                                               |                |              e[0:2]: 0x16b-0x16d.7 (3)
     |                                               |                |                [0]{}: in 0x16b-0x16c.7 (2)
0x160|                                 41            |           A    |                  i32.const: 0x41 (valid) 0x16b-0x16b.7 (1)
0x160|                                    00         |            .   |                  n: 0 0x16c-0x16c.7 (1)
     |                                               |                |                [1]{}: in 0x16d-0x16d.7 (1)
0x160|                                       0b      |             .  |                  end: 0xb (valid) 0x16d-0x16d.7 (1)
     |                                               |                |              y{}: 0x16e-0x16e.7 (1)
0x160|                                          00   |              . |                n: 0 0x16e-0x16e.7 (1)
     |                                               |                |                x[0:0]: 0x16f-NA (0)
     |                                               |                |            [50]{}: seg 0x16f-0x179.7 (11)
0x160|                                             04|               .|              tag: 4 0x16f-0x16f.7 (1)
     |                                               |                |              e[0:2]: 0x170-0x172.7 (3)
     |                                               |                |                [0]{}: in 0x170-0x171.7 (2)
0x170|41                                             |A               |                  i32.const: 0x41 (valid) 0x170-0x170.7 (1)
0x170|   00                                          | .              |                  n: 0 0x171-0x171.7 (1)
     |                                               |                |                [1]{}: in 0x172-0x172.7 (1)
0x170|      0b                                       |  .             |                  end: 0xb (valid) 0x172-0x172.7 (1)
     |                                               |                |              el{}: 0x173-0x179.7 (7)
0x170|         02                                    |   .            |                n: 2 0x173-0x173.7 (1)
     |                                               |                |                x[0:2]: 0x174-0x179.7 (6)
     |                                               |                |                  [0][0:2]: el 0x174-0x176.7 (3)
     |                                               |                |                    [0]{}: in 0x174-0x175.7 (2)
0x170|            d2                                 |    .           |                      ref.func: 0xd2 (valid) 0x174-0x174.7 (1)
0x170|               00                              |     .          |                      x: 0 0x175-0x175.7 (1)
     |                                               |                |                    [1]{}: in 0x176-0x176.7 (1)
0x170|                  0b                           |      .         |                      end: 0xb (valid) 0x176-0x176.7 (1)
     |                                               |                |                  [1][0:2]: el 0x177-0x179.7 (3)
     |                                               |                |                    [0]{}: in 0x177-0x178.7 (2)
0x170|                     d0                        |       .        |                      ref.null: 0xd0 (valid) 0x177-0x177.7 (1)
0x170|                        70                     |        p       |                      t: "funcref" (112) 0x178-0x178.7 (1)
     |                                               |                |                    [1]{}: in 0x179-0x179.7 (1)
0x170|                           0b                  |         .      |                      end: 0xb (valid) 0x179-0x179.7 (1)
     |                                               |                |            [51]{}: seg 0x17a-0x180.7 (7)
0x170|                              00               |          .     |              tag: 0 0x17a-0x17a.7 (1)
     |                                               |                |              e[0:2]: 0x17b-0x17d.7 (3)
     |                                               |                |                [0]{}: in 0x17b-0x17c.7 (2)
0x170|                                 41            |           A    |                  i32.const: 0x41 (valid) 0x17b-0x17b.7 (1)
0x170|                                    00         |            .   |                  n: 0 0x17c-0x17c.7 (1)
     |                                               |                |                [1]{}: in 0x17d-0x17d.7 (1)
0x170|                                       0b      |             .  |                  end: 0xb (valid) 0x17d-0x17d.7 (1)
     |                                               |                |              y{}: 0x17e-0x180.7 (3)
0x170|                                          02   |              . |                n: 2 0x17e-0x17e.7 (1)
     |                                               |                |                x[0:2]: 0x17f-0x180.7 (2)
0x170|                                             00|               .|                  [0]: 0 y 0x17f-0x17f.7 (1)
0x180|00                                             |.               |                  [1]: 0 y 0x180-0x180.7 (1)
     |                                               |                |            [52]{}: seg 0x181-0x187.7 (7)
0x180|   00                                          | .              |              tag: 0 0x181-0x181.7 (1)
     |                                               |                |              e[0:2]: 0x182-0x184.7 (3)
     |                                               |                |                [0]{}: in 0x182-0x183.7 (2)
0x180|      41                                       |  A             |                  i32.const: 0x41 (valid) 0x182-0x182.7 (1)
0x180|         00                                    |   .            |                  n: 0 0x183-0x183.7 (1)
     |                                               |                |                [1]{}: in 0x184-0x184.7 (1)
0x180|            0b                                 |    .           |                  end: 0xb (valid) 0x184-0x184.7 (1)
     |                                               |                |              y{}: 0x185-0x187.7 (3)
0x180|               02                              |     .          |                n: 2 0x185-0x185.7 (1)
     |                                               |                |                x[0:2]: 0x186-0x187.7 (2)
0x180|                  00                           |      .         |                  [0]: 0 y 0x186-0x186.7 (1)
0x180|                     00                        |       .        |                  [1]: 0 y 0x187-0x187.7 (1)
     |                                               |                |            [53]{}: seg 0x188-0x18a.7 (3)
0x180|                        03                     |        .       |              tag: 3 0x188-0x188.7 (1)
0x180|                           00                  |         .      |              et: "funcref" (0) (valid) 0x189-0x189.7 (1)
     |                                               |                |              y{}: 0x18a-0x18a.7 (1)
0x180|                              00               |          .     |                n: 0 0x18a-0x18a.7 (1)
     |                                               |                |                x[0:0]: 0x18b-NA (0)
     |                                               |                |            [54]{}: seg 0x18b-0x199.7 (15)
0x180|                                 07            |           .    |              tag: 7 0x18b-0x18b.7 (1)
0x180|                                    70         |            p   |              et: "funcref" (112) 0x18c-0x18c.7 (1)
     |                                               |                |              el{}: 0x18d-0x199.7 (13)
0x180|                                       04      |             .  |                n: 4 0x18d-0x18d.7 (1)
     |                                               |                |                x[0:4]: 0x18e-0x199.7 (12)
     |                                               |                |                  [0][0:2]: el 0x18e-0x190.7 (3)
     |                                               |                |                    [0]{}: in 0x18e-0x18f.7 (2)
0x180|                                          d2   |              . |                      ref.func: 0xd2 (valid) 0x18e-0x18e.7 (1)
0x180|                                             00|               .|                      x: 0 0x18f-0x18f.7 (1)
     |                                               |                |                    [1]{}: in 0x190-0x190.7 (1)
0x190|0b                                             |.               |                      end: 0xb (valid) 0x190-0x190.7 (1)
     |                                               |                |                  [1][0:2]: el 0x191-0x193.7 (3)
     |                                               |                |                    [0]{}: in 0x191-0x192.7 (2)
0x190|   d2                                          | .              |                      ref.func: 0xd2 (valid) 0x191-0x191.7 (1)
0x190|      00                                       |  .             |                      x: 0 0x192-0x192.7 (1)
     |                                               |                |                    [1]{}: in 0x193-0x193.7 (1)
0x190|         0b                                    |   .            |                      end: 0xb (valid) 0x193-0x193.7 (1)
     |                                               |                |                  [2][0:2]: el 0x194-0x196.7 (3)
     |                                               |                |                    [0]{}: in 0x194-0x195.7 (2)
0x190|            d0                                 |    .           |                      ref.null: 0xd0 (valid) 0x194-0x194.7 (1)
0x190|               70                              |     p          |                      t: "funcref" (112) 0x195-0x195.7 (1)
     |                                               |                |                    [1]{}: in 0x196-0x196.7 (1)
0x190|                  0b                           |      .         |                      end: 0xb (valid) 0x196-0x196.7 (1)
     |                                               |                |                  [3][0:2]: el 0x197-0x199.7 (3)
     |                                               |                |                    [0]{}: in 0x197-0x198.7 (2)
0x190|                     d2                        |       .        |                      ref.func: 0xd2 (valid) 0x197-0x197.7 (1)
0x190|                        01                     |        .       |                      x: 1 0x198-0x198.7 (1)
     |                                               |                |                    [1]{}: in 0x199-0x199.7 (1)
0x190|                           0b                  |         .      |                      end: 0xb (valid) 0x199-0x199.7 (1)
     |                                               |                |            [55]{}: seg 0x19a-0x19c.7 (3)
0x190|                              03               |          .     |              tag: 3 0x19a-0x19a.7 (1)
0x190|                                 00            |           .    |              et: "funcref" (0) (valid) 0x19b-0x19b.7 (1)
     |                                               |                |              y{}: 0x19c-0x19c.7 (1)
0x190|                                    00         |            .   |                n: 0 0x19c-0x19c.7 (1)
     |                                               |                |                x[0:0]: 0x19d-NA (0)
     |                                               |                |            [56]{}: seg 0x19d-0x1a3.7 (7)
0x190|                                       03      |             .  |              tag: 3 0x19d-0x19d.7 (1)
0x190|                                          00   |              . |              et: "funcref" (0) (valid) 0x19e-0x19e.7 (1)
     |                                               |                |              y{}: 0x19f-0x1a3.7 (5)
0x190|                                             04|               .|                n: 4 0x19f-0x19f.7 (1)
     |                                               |                |                x[0:4]: 0x1a0-0x1a3.7 (4)
0x1a0|00                                             |.               |                  [0]: 0 y 0x1a0-0x1a0.7 (1)
0x1a0|   00                                          | .              |                  [1]: 0 y 0x1a1-0x1a1.7 (1)
0x1a0|      01                                       |  .             |                  [2]: 1 y 0x1a2-0x1a2.7 (1)
0x1a0|         01                                    |   .            |                  [3]: 1 y 0x1a3-0x1a3.7 (1)
     |                                               |                |            [57]{}: seg 0x1a4-0x1a6.7 (3)
0x1a0|            03                                 |    .           |              tag: 3 0x1a4-0x1a4.7 (1)
0x1a0|               00                              |     .          |              et: "funcref" (0) (valid) 0x1a5-0x1a5.7 (1)
     |                                               |                |              y{}: 0x1a6-0x1a6.7 (1)
0x1a0|                  00                           |      .         |                n: 0 0x1a6-0x1a6.7 (1)
     |                                               |                |                x[0:0]: 0x1a7-NA (0)
     |                                               |                |            [58]{}: seg 0x1a7-0x1b5.7 (15)
0x1a0|                     07                        |       .        |              tag: 7 0x1a7-0x1a7.7 (1)
0x1a0|                        70                     |        p       |              et: "funcref" (112) 0x1a8-0x1a8.7 (1)
     |                                               |                |              el{}: 0x1a9-0x1b5.7 (13)
0x1a0|                           04                  |         .      |                n: 4 0x1a9-0x1a9.7 (1)
     |                                               |                |                x[0:4]: 0x1aa-0x1b5.7 (12)
     |                                               |                |                  [0][0:2]: el 0x1aa-0x1ac.7 (3)
     |                                               |                |                    [0]{}: in 0x1aa-0x1ab.7 (2)
0x1a0|                              d2               |          .     |                      ref.func: 0xd2 (valid) 0x1aa-0x1aa.7 (1)
0x1a0|                                 00            |           .    |                      x: 0 0x1ab-0x1ab.7 (1)
     |                                               |                |                    [1]{}: in 0x1ac-0x1ac.7 (1)
0x1a0|                                    0b         |            .   |                      end: 0xb (valid) 0x1ac-0x1ac.7 (1)
     |                                               |                |                  [1][0:2]: el 0x1ad-0x1af.7 (3)
     |                                               |                |                    [0]{}: in 0x1ad-0x1ae.7 (2)
0x1a0|                                       d2      |             .  |                      ref.func: 0xd2 (valid) 0x1ad-0x1ad.7 (1)
0x1a0|                                          00   |              . |                      x: 0 0x1ae-0x1ae.7 (1)
     |                                               |                |                    [1]{}: in 0x1af-0x1af.7 (1)
0x1a0|                                             0b|               .|                      end: 0xb (valid) 0x1af-0x1af.7 (1)
     |                                               |                |                  [2][0:2]: el 0x1b0-0x1b2.7 (3)
     |                                               |                |                    [0]{}: in 0x1b0-0x1b1.7 (2)
0x1b0|d0                                             |.               |                      ref.null: 0xd0 (valid) 0x1b0-0x1b0.7 (1)
0x1b0|   70                                          | p              |                      t: "funcref" (112) 0x1b1-0x1b1.7 (1)
     |                                               |                |                    [1]{}: in 0x1b2-0x1b2.7 (1)
0x1b0|      0b                                       |  .             |                      end: 0xb (valid) 0x1b2-0x1b2.7 (1)
     |                                               |                |                  [3][0:2]: el 0x1b3-0x1b5.7 (3)
     |                                               |                |                    [0]{}: in 0x1b3-0x1b4.7 (2)
0x1b0|         d2                                    |   .            |                      ref.func: 0xd2 (valid) 0x1b3-0x1b3.7 (1)
0x1b0|            01                                 |    .           |                      x: 1 0x1b4-0x1b4.7 (1)
     |                                               |                |                    [1]{}: in 0x1b5-0x1b5.7 (1)
0x1b0|               0b                              |     .          |                      end: 0xb (valid) 0x1b5-0x1b5.7 (1)
     |                                               |                |            [59]{}: seg 0x1b6-0x1b8.7 (3)
0x1b0|                  03                           |      .         |              tag: 3 0x1b6-0x1b6.7 (1)
0x1b0|                     00                        |       .        |              et: "funcref" (0) (valid) 0x1b7-0x1b7.7 (1)
     |                                               |                |              y{}: 0x1b8-0x1b8.7 (1)
0x1b0|                        00                     |        .       |                n: 0 0x1b8-0x1b8.7 (1)
     |                                               |                |                x[0:0]: 0x1b9-NA (0)
     |                                               |                |            [60]{}: seg 0x1b9-0x1bf.7 (7)
0x1b0|                           03                  |         .      |              tag: 3 0x1b9-0x1b9.7 (1)
0x1b0|                              00               |          .     |              et: "funcref" (0) (valid) 0x1ba-0x1ba.7 (1)
     |                                               |                |              y{}: 0x1bb-0x1bf.7 (5)
0x1b0|                                 04            |           .    |                n: 4 0x1bb-0x1bb.7 (1)
     |                                               |                |                x[0:4]: 0x1bc-0x1bf.7 (4)
0x1b0|                                    00         |            .   |                  [0]: 0 y 0x1bc-0x1bc.7 (1)
0x1b0|                                       00      |             .  |                  [1]: 0 y 0x1bd-0x1bd.7 (1)
0x1b0|                                          01   |              . |                  [2]: 1 y 0x1be-0x1be.7 (1)
0x1b0|                                             01|               .|                  [3]: 1 y 0x1bf-0x1bf.7 (1)
     |                                               |                |    [4]{}: section 0x1c0-0x1c8.7 (9)
0x1c0|0a                                             |.               |      id: "code section" (10) 0x1c0-0x1c0.7 (1)
0x1c0|   07                                          | .              |      size: 7 0x1c1-0x1c1.7 (1)
     |                                               |                |      content{}: 0x1c2-0x1c8.7 (7)
     |                                               |                |        code{}: 0x1c2-0x1c8.7 (7)
0x1c0|      02                                       |  .             |          n: 2 0x1c2-0x1c2.7 (1)
     |                                               |                |          x[0:2]: 0x1c3-0x1c8.7 (6)
     |                                               |                |            [0]{}: code 0x1c3-0x1c5.7 (3)
0x1c0|         02                                    |   .            |              size: 2 0x1c3-0x1c3.7 (1)
     |                                               |                |              code{}: 0x1c4-0x1c5.7 (2)
     |                                               |                |                t{}: 0x1c4-0x1c4.7 (1)
0x1c0|            00                                 |    .           |                  n: 0 0x1c4-0x1c4.7 (1)
     |                                               |                |                  x[0:0]: 0x1c5-NA (0)
     |                                               |                |                e[0:1]: 0x1c5-0x1c5.7 (1)
     |                                               |                |                  [0]{}: in 0x1c5-0x1c5.7 (1)
0x1c0|               0b                              |     .          |                    end: 0xb (valid) 0x1c5-0x1c5.7 (1)
     |                                               |                |            [1]{}: code 0x1c6-0x1c8.7 (3)
0x1c0|                  02                           |      .         |              size: 2 0x1c6-0x1c6.7 (1)
     |                                               |                |              code{}: 0x1c7-0x1c8.7 (2)
     |                                               |                |                t{}: 0x1c7-0x1c7.7 (1)
0x1c0|                     00                        |       .        |                  n: 0 0x1c7-0x1c7.7 (1)
     |                                               |                |                  x[0:0]: 0x1c8-NA (0)
     |                                               |                |                e[0:1]: 0x1c8-0x1c8.7 (1)
     |                                               |                |                  [0]{}: in 0x1c8-0x1c8.7 (1)
0x1c0|                        0b|                    |        .|      |                    end: 0xb (valid) 0x1c8-0x1c8.7 (1)
