$ fq -d wasm dv elem-22.wasm
    |00 01 02 03 04 05 06 07 08 09 0a 0b 0c 0d 0e 0f|0123456789abcdef|.{}: elem-22.wasm (wasm) 0x0-0x6e.7 (111)
0x00|00 61 73 6d                                    |.asm            |  magic: raw bits (valid) 0x0-0x3.7 (4)
0x00|            01 00 00 00                        |    ....        |  version: 1 0x4-0x7.7 (4)
    |                                               |                |  sections[0:6]: 0x8-0x6e.7 (103)
    |                                               |                |    [0]{}: section 0x8-0xe.7 (7)
0x00|                        01                     |        .       |      id: "type section" (1) 0x8-0x8.7 (1)
0x00|                           05                  |         .      |      size: 5 0x9-0x9.7 (1)
    |                                               |                |      content{}: 0xa-0xe.7 (5)
    |                                               |                |        ft{}: 0xa-0xe.7 (5)
0x00|                              01               |          .     |          n: 1 0xa-0xa.7 (1)
    |                                               |                |          x[0:1]: 0xb-0xe.7 (4)
    |                                               |                |            [0]{}: ft 0xb-0xe.7 (4)
0x00|                                 60            |           `    |              tag: 0x60 (valid) 0xb-0xb.7 (1)
    |                                               |                |              rt1{}: 0xc-0xc.7 (1)
0x00|                                    00         |            .   |                n: 0 0xc-0xc.7 (1)
    |                                               |                |                x[0:0]: 0xd-NA (0)
    |                                               |                |              rt2{}: 0xd-0xe.7 (2)
0x00|                                       01      |             .  |                n: 1 0xd-0xd.7 (1)
    |                                               |                |                x[0:1]: 0xe-0xe.7 (1)
0x00|                                          7f   |              . |                  [0]: "i32" (0x7f) t 0xe-0xe.7 (1)
    |                                               |                |    [1]{}: section 0xf-0x24.7 (22)
0x00|                                             02|               .|      id: "import section" (2) 0xf-0xf.7 (1)
0x10|14                                             |.               |      size: 20 0x10-0x10.7 (1)
    |                                               |                |      content{}: 0x11-0x24.7 (20)
    |                                               |                |        im{}: 0x11-0x24.7 (20)
0x10|   01                                          | .              |          n: 1 0x11-0x11.7 (1)
    |                                               |                |          x[0:1]: 0x12-0x24.7 (19)
    |                                               |                |            [0]{}: im 0x12-0x24.7 (19)
    |                                               |                |              mod{}: 0x12-0x1a.7 (9)
0x10|      08                                       |  .             |                n: 8 0x12-0x12.7 (1)
0x10|         73 70 65 63 74 65 73 74               |   spectest     |                b: "spectest" 0x13-0x1a.7 (8)
    |                                               |                |              nm{}: 0x1b-0x20.7 (6)
0x10|                                 05            |           .    |                n: 5 0x1b-0x1b.7 (1)
0x10|                                    74 61 62 6c|            tabl|                b: "table" 0x1c-0x20.7 (5)
0x20|65                                             |e               |
    |                                               |                |              d{}: 0x21-0x24.7 (4)
0x20|   01                                          | .              |                tag: "table" (0x1) 0x21-0x21.7 (1)
    |                                               |                |                tt{}: 0x22-0x24.7 (3)
0x20|      70                                       |  p             |                  et: "funcref" (112) 0x22-0x22.7 (1)
    |                                               |                |                  lim{}: 0x23-0x24.7 (2)
0x20|         00                                    |   .            |                    tag: 0x0 0x23-0x23.7 (1)
0x20|            0a                                 |    .           |                    n: 10 0x24-0x24.7 (1)
    |                                               |                |    [2]{}: section 0x25-0x2a.7 (6)
0x20|               03                              |     .          |      id: "function section" (3) 0x25-0x25.7 (1)
0x20|                  04                           |      .         |      size: 4 0x26-0x26.7 (1)
    |                                               |                |      content{}: 0x27-0x2a.7 (4)
    |                                               |                |        x{}: 0x27-0x2a.7 (4)
0x20|                     03                        |       .        |          n: 3 0x27-0x27.7 (1)
    |                                               |                |          x[0:3]: 0x28-0x2a.7 (3)
0x20|                        00                     |        .       |            [0]: 0 x 0x28-0x28.7 (1)
0x20|                           00                  |         .      |            [1]: 0 x 0x29-0x29.7 (1)
0x20|                              00               |          .     |            [2]: 0 x 0x2a-0x2a.7 (1)
    |                                               |                |    [3]{}: section 0x2b-0x48.7 (30)
0x20|                                 07            |           .    |      id: "export section" (7) 0x2b-0x2b.7 (1)
0x20|                                    1c         |            .   |      size: 28 0x2c-0x2c.7 (1)
    |                                               |                |      content{}: 0x2d-0x48.7 (28)
    |                                               |                |        ex{}: 0x2d-0x48.7 (28)
0x20|                                       01      |             .  |          n: 1 0x2d-0x2d.7 (1)
    |                                               |                |          x[0:1]: 0x2e-0x48.7 (27)
    |                                               |                |            [0]{}: ex 0x2e-0x48.7 (27)
    |                                               |                |              nm{}: 0x2e-0x46.7 (25)
0x20|                                          18   |              . |                n: 24 0x2e-0x2e.7 (1)
0x20|                                             63|               c|                b: "call-overwritten-element" 0x2f-0x46.7 (24)
0x30|61 6c 6c 2d 6f 76 65 72 77 72 69 74 74 65 6e 2d|all-overwritten-|
0x40|65 6c 65 6d 65 6e 74                           |element         |
    |                                               |                |              d{}: 0x47-0x48.7 (2)
0x40|                     00                        |       .        |                tag: "funcidx" (0x0) 0x47-0x47.7 (1)
0x40|                        02                     |        .       |                x: 2 0x48-0x48.7 (1)
    |                                               |                |    [4]{}: section 0x49-0x57.7 (15)
0x40|                           09                  |         .      |      id: "element section" (9) 0x49-0x49.7 (1)
0x40|                              0d               |          .     |      size: 13 0x4a-0x4a.7 (1)
    |                                               |                |      element{}: 0x4b-0x57.7 (13)
    |                                               |                |        seg{}: 0x4b-0x57.7 (13)
0x40|                                 02            |           .    |          n: 2 0x4b-0x4b.7 (1)
    |                                               |                |          x[0:2]: 0x4c-0x57.7 (12)
    |                                               |                |            [0]{}: seg 0x4c-0x51.7 (6)
0x40|                                    00         |            .   |              tag: 0 0x4c-0x4c.7 (1)
    |                                               |                |              e[0:2]: 0x4d-0x4f.7 (3)
    |                                               |                |                [0]{}: in 0x4d-0x4e.7 (2)
0x40|                                       41      |             A  |                  i32.const: 0x41 (valid) 0x4d-0x4d.7 (1)
0x40|                                          09   |              . |                  n: 9 0x4e-0x4e.7 (1)
    |                                               |                |                [1]{}: in 0x4f-0x4f.7 (1)
0x40|                                             0b|               .|                  end: 0xb (valid) 0x4f-0x4f.7 (1)
    |                                               |                |              y{}: 0x50-0x51.7 (2)
0x50|01                                             |.               |                n: 1 0x50-0x50.7 (1)
    |                                               |                |                x[0:1]: 0x51-0x51.7 (1)
0x50|   00                                          | .              |                  [0]: 0 y 0x51-0x51.7 (1)
    |                                               |                |            [1]{}: seg 0x52-0x57.7 (6)
0x50|      00                                       |  .             |              tag: 0 0x52-0x52.7 (1)
    |                                               |                |              e[0:2]: 0x53-0x55.7 (3)
    |                                               |                |                [0]{}: in 0x53-0x54.7 (2)
0x50|         41                                    |   A            |                  i32.const: 0x41 (valid) 0x53-0x53.7 (1)
0x50|            09                                 |    .           |                  n: 9 0x54-0x54.7 (1)
    |                                               |                |                [1]{}: in 0x55-0x55.7 (1)
0x50|               0b                              |     .          |                  end: 0xb (valid) 0x55-0x55.7 (1)
    |                                               |                |              y{}: 0x56-0x57.7 (2)
0x50|                  01                           |      .         |                n: 1 0x56-0x56.7 (1)
    |                                               |                |                x[0:1]: 0x57-0x57.7 (1)
0x50|                     01                        |       .        |                  [0]: 1 y 0x57-0x57.7 (1)
    |                                               |                |    [5]{}: section 0x58-0x6e.7 (23)
0x50|                        0a                     |        .       |      id: "code section" (10) 0x58-0x58.7 (1)
0x50|                           15                  |         .      |      size: 21 0x59-0x59.7 (1)
    |                                               |                |      content{}: 0x5a-0x6e.7 (21)
    |                                               |                |        code{}: 0x5a-0x6e.7 (21)
0x50|                              03               |          .     |          n: 3 0x5a-0x5a.7 (1)
    |                                               |                |          x[0:3]: 0x5b-0x6e.7 (20)
    |                                               |                |            [0]{}: code 0x5b-0x60.7 (6)
0x50|                                 05            |           .    |              size: 5 0x5b-0x5b.7 (1)
    |                                               |                |              code{}: 0x5c-0x60.7 (5)
    |                                               |                |                t{}: 0x5c-0x5c.7 (1)
0x50|                                    00         |            .   |                  n: 0 0x5c-0x5c.7 (1)
    |                                               |                |                  x[0:0]: 0x5d-NA (0)
    |                                               |                |                e[0:2]: 0x5d-0x60.7 (4)
    |                                               |                |                  [0]{}: in 0x5d-0x5f.7 (3)
0x50|                                       41      |             A  |                    i32.const: 0x41 (valid) 0x5d-0x5d.7 (1)
0x50|                                          c1 00|              ..|                    n: 65 0x5e-0x5f.7 (2)
    |                                               |                |                  [1]{}: in 0x60-0x60.7 (1)
0x60|0b                                             |.               |                    end: 0xb (valid) 0x60-0x60.7 (1)
    |                                               |                |            [1]{}: code 0x61-0x66.7 (6)
0x60|   05                                          | .              |              size: 5 0x61-0x61.7 (1)
    |                                               |                |              code{}: 0x62-0x66.7 (5)
    |                                               |                |                t{}: 0x62-0x62.7 (1)
0x60|      00                                       |  .             |                  n: 0 0x62-0x62.7 (1)
    |                                               |                |                  x[0:0]: 0x63-NA (0)
    |                                               |                |                e[0:2]: 0x63-0x66.7 (4)
    |                                               |                |                  [0]{}: in 0x63-0x65.7 (3)
0x60|         41                                    |   A            |                    i32.const: 0x41 (valid) 0x63-0x63.7 (1)
0x60|            c2 00                              |    ..          |                    n: 66 0x64-0x65.7 (2)
    |                                               |                |                  [1]{}: in 0x66-0x66.7 (1)
0x60|                  0b                           |      .         |                    end: 0xb (valid) 0x66-0x66.7 (1)
    |                                               |                |            [2]{}: code 0x67-0x6e.7 (8)
0x60|                     07                        |       .        |              size: 7 0x67-0x67.7 (1)
    |                                               |                |              code{}: 0x68-0x6e.7 (7)
    |                                               |                |                t{}: 0x68-0x68.7 (1)
0x60|                        00                     |        .       |                  n: 0 0x68-0x68.7 (1)
    |                                               |                |                  x[0:0]: 0x69-NA (0)
    |                                               |                |                e[0:3]: 0x69-0x6e.7 (6)
    |                                               |                |                  [0]{}: in 0x69-0x6a.7 (2)
0x60|                           41                  |         A      |                    i32.const: 0x41 (valid) 0x69-0x69.7 (1)
0x60|                              09               |          .     |                    n: 9 0x6a-0x6a.7 (1)
    |                                               |                |                  [1]{}: in 0x6b-0x6d.7 (3)
0x60|                                 11            |           .    |                    call: 0x11 (valid) 0x6b-0x6b.7 (1)
0x60|                                    00         |            .   |                    y: 0 0x6c-0x6c.7 (1)
0x60|                                       00      |             .  |                    x: 0 0x6d-0x6d.7 (1)
    |                                               |                |                  [2]{}: in 0x6e-0x6e.7 (1)
0x60|                                          0b|  |              .||                    end: 0xb (valid) 0x6e-0x6e.7 (1)
