$ fq -d wasm dv elem-8.wasm
    |00 01 02 03 04 05 06 07 08 09 0a 0b 0c 0d 0e 0f|0123456789abcdef|.{}: elem-8.wasm (wasm) 0x0-0x5e.7 (95)
0x00|00 61 73 6d                                    |.asm            |  magic: raw bits (valid) 0x0-0x3.7 (4)
0x00|            01 00 00 00                        |    ....        |  version: 1 0x4-0x7.7 (4)
    |                                               |                |  sections[0:6]: 0x8-0x5e.7 (87)
    |                                               |                |    [0]{}: section 0x8-0xe.7 (7)
0x00|                        01                     |        .       |      id: "type_section" (1) 0x8-0x8.7 (1)
0x00|                           05                  |         .      |      size: 5 (valid) 0x9-0x9.7 (1)
    |                                               |                |      content{}: 0xa-0xe.7 (5)
    |                                               |                |        ft{}: 0xa-0xe.7 (5)
0x00|                              01               |          .     |          n: 1 (valid) 0xa-0xa.7 (1)
    |                                               |                |          x[0:1]: 0xb-0xe.7 (4)
    |                                               |                |            [0]{}: ft 0xb-0xe.7 (4)
0x00|                                 60            |           `    |              tag: 0x60 (valid) 0xb-0xb.7 (1)
    |                                               |                |              rt1{}: 0xc-0xc.7 (1)
0x00|                                    00         |            .   |                n: 0 (valid) 0xc-0xc.7 (1)
    |                                               |                |                x[0:0]: 0xd-NA (0)
    |                                               |                |              rt2{}: 0xd-0xe.7 (2)
0x00|                                       01      |             .  |                n: 1 (valid) 0xd-0xd.7 (1)
    |                                               |                |                x[0:1]: 0xe-0xe.7 (1)
0x00|                                          7f   |              . |                  [0]: "i32" (0x7f) t 0xe-0xe.7 (1)
    |                                               |                |    [1]{}: section 0xf-0x15.7 (7)
0x00|                                             03|               .|      id: "function_section" (3) 0xf-0xf.7 (1)
0x10|05                                             |.               |      size: 5 (valid) 0x10-0x10.7 (1)
    |                                               |                |      content{}: 0x11-0x15.7 (5)
    |                                               |                |        x{}: 0x11-0x15.7 (5)
0x10|   04                                          | .              |          n: 4 (valid) 0x11-0x11.7 (1)
    |                                               |                |          x[0:4]: 0x12-0x15.7 (4)
0x10|      00                                       |  .             |            [0]: 0 x (valid) 0x12-0x12.7 (1)
0x10|         00                                    |   .            |            [1]: 0 x (valid) 0x13-0x13.7 (1)
0x10|            00                                 |    .           |            [2]: 0 x (valid) 0x14-0x14.7 (1)
0x10|               00                              |     .          |            [3]: 0 x (valid) 0x15-0x15.7 (1)
    |                                               |                |    [2]{}: section 0x16-0x1b.7 (6)
0x10|                  04                           |      .         |      id: "table_section" (4) 0x16-0x16.7 (1)
0x10|                     04                        |       .        |      size: 4 (valid) 0x17-0x17.7 (1)
    |                                               |                |      content{}: 0x18-0x1b.7 (4)
    |                                               |                |        tab{}: 0x18-0x1b.7 (4)
0x10|                        01                     |        .       |          n: 1 (valid) 0x18-0x18.7 (1)
    |                                               |                |          x[0:1]: 0x19-0x1b.7 (3)
    |                                               |                |            [0]{}: tab 0x19-0x1b.7 (3)
0x10|                           70                  |         p      |              et: "funcref" (112) 0x19-0x19.7 (1)
    |                                               |                |              lim{}: 0x1a-0x1b.7 (2)
0x10|                              00               |          .     |                tag: 0x0 0x1a-0x1a.7 (1)
0x10|                                 0a            |           .    |                n: 10 (valid) 0x1b-0x1b.7 (1)
    |                                               |                |    [3]{}: section 0x1c-0x30.7 (21)
0x10|                                    07         |            .   |      id: "export_section" (7) 0x1c-0x1c.7 (1)
0x10|                                       13      |             .  |      size: 19 (valid) 0x1d-0x1d.7 (1)
    |                                               |                |      content{}: 0x1e-0x30.7 (19)
    |                                               |                |        ex{}: 0x1e-0x30.7 (19)
0x10|                                          02   |              . |          n: 2 (valid) 0x1e-0x1e.7 (1)
    |                                               |                |          x[0:2]: 0x1f-0x30.7 (18)
    |                                               |                |            [0]{}: ex 0x1f-0x27.7 (9)
    |                                               |                |              nm{}: 0x1f-0x25.7 (7)
0x10|                                             06|               .|                n: 6 (valid) 0x1f-0x1f.7 (1)
0x20|63 61 6c 6c 2d 37                              |call-7          |                b: "call-7" 0x20-0x25.7 (6)
    |                                               |                |              d{}: 0x26-0x27.7 (2)
0x20|                  00                           |      .         |                tag: "funcidx" (0x0) 0x26-0x26.7 (1)
0x20|                     02                        |       .        |                x: 2 (valid) 0x27-0x27.7 (1)
    |                                               |                |            [1]{}: ex 0x28-0x30.7 (9)
    |                                               |                |              nm{}: 0x28-0x2e.7 (7)
0x20|                        06                     |        .       |                n: 6 (valid) 0x28-0x28.7 (1)
0x20|                           63 61 6c 6c 2d 39   |         call-9 |                b: "call-9" 0x29-0x2e.7 (6)
    |                                               |                |              d{}: 0x2f-0x30.7 (2)
0x20|                                             00|               .|                tag: "funcidx" (0x0) 0x2f-0x2f.7 (1)
0x30|03                                             |.               |                x: 3 (valid) 0x30-0x30.7 (1)
    |                                               |                |    [4]{}: section 0x31-0x3f.7 (15)
0x30|   09                                          | .              |      id: "element_section" (9) 0x31-0x31.7 (1)
0x30|      0d                                       |  .             |      size: 13 (valid) 0x32-0x32.7 (1)
    |                                               |                |      element{}: 0x33-0x3f.7 (13)
    |                                               |                |        seg{}: 0x33-0x3f.7 (13)
0x30|         02                                    |   .            |          n: 2 (valid) 0x33-0x33.7 (1)
    |                                               |                |          x[0:2]: 0x34-0x3f.7 (12)
    |                                               |                |            [0]{}: seg 0x34-0x39.7 (6)
0x30|            00                                 |    .           |              tag: 0 (valid) 0x34-0x34.7 (1)
    |                                               |                |              e[0:2]: 0x35-0x37.7 (3)
    |                                               |                |                [0]{}: in 0x35-0x36.7 (2)
0x30|               41                              |     A          |                  opcode: "i32.const" (0x41) 0x35-0x35.7 (1)
0x30|                  07                           |      .         |                  n: 7 (valid) 0x36-0x36.7 (1)
    |                                               |                |                [1]{}: in 0x37-0x37.7 (1)
0x30|                     0b                        |       .        |                  opcode: "end" (0xb) 0x37-0x37.7 (1)
    |                                               |                |              y{}: 0x38-0x39.7 (2)
0x30|                        01                     |        .       |                n: 1 (valid) 0x38-0x38.7 (1)
    |                                               |                |                x[0:1]: 0x39-0x39.7 (1)
0x30|                           00                  |         .      |                  [0]: 0 y (valid) 0x39-0x39.7 (1)
    |                                               |                |            [1]{}: seg 0x3a-0x3f.7 (6)
0x30|                              00               |          .     |              tag: 0 (valid) 0x3a-0x3a.7 (1)
    |                                               |                |              e[0:2]: 0x3b-0x3d.7 (3)
    |                                               |                |                [0]{}: in 0x3b-0x3c.7 (2)
0x30|                                 41            |           A    |                  opcode: "i32.const" (0x41) 0x3b-0x3b.7 (1)
0x30|                                    09         |            .   |                  n: 9 (valid) 0x3c-0x3c.7 (1)
    |                                               |                |                [1]{}: in 0x3d-0x3d.7 (1)
0x30|                                       0b      |             .  |                  opcode: "end" (0xb) 0x3d-0x3d.7 (1)
    |                                               |                |              y{}: 0x3e-0x3f.7 (2)
0x30|                                          01   |              . |                n: 1 (valid) 0x3e-0x3e.7 (1)
    |                                               |                |                x[0:1]: 0x3f-0x3f.7 (1)
0x30|                                             01|               .|                  [0]: 1 y (valid) 0x3f-0x3f.7 (1)
    |                                               |                |    [5]{}: section 0x40-0x5e.7 (31)
0x40|0a                                             |.               |      id: "code_section" (10) 0x40-0x40.7 (1)
0x40|   1d                                          | .              |      size: 29 (valid) 0x41-0x41.7 (1)
    |                                               |                |      content{}: 0x42-0x5e.7 (29)
    |                                               |                |        code{}: 0x42-0x5e.7 (29)
0x40|      04                                       |  .             |          n: 4 (valid) 0x42-0x42.7 (1)
    |                                               |                |          x[0:4]: 0x43-0x5e.7 (28)
    |                                               |                |            [0]{}: code 0x43-0x48.7 (6)
0x40|         05                                    |   .            |              size: 5 (valid) 0x43-0x43.7 (1)
    |                                               |                |              code{}: 0x44-0x48.7 (5)
    |                                               |                |                t{}: 0x44-0x44.7 (1)
0x40|            00                                 |    .           |                  n: 0 (valid) 0x44-0x44.7 (1)
    |                                               |                |                  x[0:0]: 0x45-NA (0)
    |                                               |                |                e[0:2]: 0x45-0x48.7 (4)
    |                                               |                |                  [0]{}: in 0x45-0x47.7 (3)
0x40|               41                              |     A          |                    opcode: "i32.const" (0x41) 0x45-0x45.7 (1)
0x40|                  c1 00                        |      ..        |                    n: 65 (valid) 0x46-0x47.7 (2)
    |                                               |                |                  [1]{}: in 0x48-0x48.7 (1)
0x40|                        0b                     |        .       |                    opcode: "end" (0xb) 0x48-0x48.7 (1)
    |                                               |                |            [1]{}: code 0x49-0x4e.7 (6)
0x40|                           05                  |         .      |              size: 5 (valid) 0x49-0x49.7 (1)
    |                                               |                |              code{}: 0x4a-0x4e.7 (5)
    |                                               |                |                t{}: 0x4a-0x4a.7 (1)
0x40|                              00               |          .     |                  n: 0 (valid) 0x4a-0x4a.7 (1)
    |                                               |                |                  x[0:0]: 0x4b-NA (0)
    |                                               |                |                e[0:2]: 0x4b-0x4e.7 (4)
    |                                               |                |                  [0]{}: in 0x4b-0x4d.7 (3)
0x40|                                 41            |           A    |                    opcode: "i32.const" (0x41) 0x4b-0x4b.7 (1)
0x40|                                    c2 00      |            ..  |                    n: 66 (valid) 0x4c-0x4d.7 (2)
    |                                               |                |                  [1]{}: in 0x4e-0x4e.7 (1)
0x40|                                          0b   |              . |                    opcode: "end" (0xb) 0x4e-0x4e.7 (1)
    |                                               |                |            [2]{}: code 0x4f-0x56.7 (8)
0x40|                                             07|               .|              size: 7 (valid) 0x4f-0x4f.7 (1)
    |                                               |                |              code{}: 0x50-0x56.7 (7)
    |                                               |                |                t{}: 0x50-0x50.7 (1)
0x50|00                                             |.               |                  n: 0 (valid) 0x50-0x50.7 (1)
    |                                               |                |                  x[0:0]: 0x51-NA (0)
    |                                               |                |                e[0:3]: 0x51-0x56.7 (6)
    |                                               |                |                  [0]{}: in 0x51-0x52.7 (2)
0x50|   41                                          | A              |                    opcode: "i32.const" (0x41) 0x51-0x51.7 (1)
0x50|      07                                       |  .             |                    n: 7 (valid) 0x52-0x52.7 (1)
    |                                               |                |                  [1]{}: in 0x53-0x55.7 (3)
0x50|         11                                    |   .            |                    opcode: "call_indirect" (0x11) 0x53-0x53.7 (1)
0x50|            00                                 |    .           |                    y: 0 (valid) 0x54-0x54.7 (1)
0x50|               00                              |     .          |                    x: 0 (valid) 0x55-0x55.7 (1)
    |                                               |                |                  [2]{}: in 0x56-0x56.7 (1)
0x50|                  0b                           |      .         |                    opcode: "end" (0xb) 0x56-0x56.7 (1)
    |                                               |                |            [3]{}: code 0x57-0x5e.7 (8)
0x50|                     07                        |       .        |              size: 7 (valid) 0x57-0x57.7 (1)
    |                                               |                |              code{}: 0x58-0x5e.7 (7)
    |                                               |                |                t{}: 0x58-0x58.7 (1)
0x50|                        00                     |        .       |                  n: 0 (valid) 0x58-0x58.7 (1)
    |                                               |                |                  x[0:0]: 0x59-NA (0)
    |                                               |                |                e[0:3]: 0x59-0x5e.7 (6)
    |                                               |                |                  [0]{}: in 0x59-0x5a.7 (2)
0x50|                           41                  |         A      |                    opcode: "i32.const" (0x41) 0x59-0x59.7 (1)
0x50|                              09               |          .     |                    n: 9 (valid) 0x5a-0x5a.7 (1)
    |                                               |                |                  [1]{}: in 0x5b-0x5d.7 (3)
0x50|                                 11            |           .    |                    opcode: "call_indirect" (0x11) 0x5b-0x5b.7 (1)
0x50|                                    00         |            .   |                    y: 0 (valid) 0x5c-0x5c.7 (1)
0x50|                                       00      |             .  |                    x: 0 (valid) 0x5d-0x5d.7 (1)
    |                                               |                |                  [2]{}: in 0x5e-0x5e.7 (1)
0x50|                                          0b|  |              .||                    opcode: "end" (0xb) 0x5e-0x5e.7 (1)
