$ fq -d wasm dv elem-0.wasm
     |00 01 02 03 04 05 06 07 08 09 0a 0b 0c 0d 0e 0f|0123456789abcdef|.{}: elem-0.wasm (wasm) 0x0-0x1c9 (457)
0x000|00 61 73 6d                                    |.asm            |  magic: raw bits (valid) 0x0-0x4 (4)
0x000|            01 00 00 00                        |    ....        |  version: 1 0x4-0x8 (4)
     |                                               |                |  sections[0:5]: 0x8-0x1c9 (449)
     |                                               |                |    [0]{}: section 0x8-0xe (6)
0x000|                        01                     |        .       |      id: "type_section" (1) 0x8-0x9 (1)
0x000|                           04                  |         .      |      size: 4 (valid) 0x9-0xa (1)
     |                                               |                |      content{}: 0xa-0xe (4)
     |                                               |                |        ft{}: 0xa-0xe (4)
0x000|                              01               |          .     |          n: 1 (valid) 0xa-0xb (1)
     |                                               |                |          x[0:1]: 0xb-0xe (3)
     |                                               |                |            [0]{}: ft 0xb-0xe (3)
0x000|                                 60            |           `    |              tag: 0x60 (valid) 0xb-0xc (1)
     |                                               |                |              rt1{}: 0xc-0xd (1)
0x000|                                    00         |            .   |                n: 0 (valid) 0xc-0xd (1)
     |                                               |                |                x[0:0]: 0xd-0xd (0)
     |                                               |                |              rt2{}: 0xd-0xe (1)
0x000|                                       00      |             .  |                n: 0 (valid) 0xd-0xe (1)
     |                                               |                |                x[0:0]: 0xe-0xe (0)
     |                                               |                |    [1]{}: section 0xe-0x13 (5)
0x000|                                          03   |              . |      id: "function_section" (3) 0xe-0xf (1)
0x000|                                             03|               .|      size: 3 (valid) 0xf-0x10 (1)
     |                                               |                |      content{}: 0x10-0x13 (3)
     |                                               |                |        x{}: 0x10-0x13 (3)
0x010|02                                             |.               |          n: 2 (valid) 0x10-0x11 (1)
     |                                               |                |          x[0:2]: 0x11-0x13 (2)
0x010|   00                                          | .              |            [0]: 0 x (valid) 0x11-0x12 (1)
0x010|      00                                       |  .             |            [1]: 0 x (valid) 0x12-0x13 (1)
     |                                               |                |    [2]{}: section 0x13-0x19 (6)
0x010|         04                                    |   .            |      id: "table_section" (4) 0x13-0x14 (1)
0x010|            04                                 |    .           |      size: 4 (valid) 0x14-0x15 (1)
     |                                               |                |      content{}: 0x15-0x19 (4)
     |                                               |                |        tab{}: 0x15-0x19 (4)
0x010|               01                              |     .          |          n: 1 (valid) 0x15-0x16 (1)
     |                                               |                |          x[0:1]: 0x16-0x19 (3)
     |                                               |                |            [0]{}: tab 0x16-0x19 (3)
0x010|                  70                           |      p         |              et: "funcref" (112) 0x16-0x17 (1)
     |                                               |                |              lim{}: 0x17-0x19 (2)
0x010|                     00                        |       .        |                tag: 0x0 0x17-0x18 (1)
0x010|                        0a                     |        .       |                n: 10 (valid) 0x18-0x19 (1)
     |                                               |                |    [3]{}: section 0x19-0x1c0 (423)
0x010|                           09                  |         .      |      id: "element_section" (9) 0x19-0x1a (1)
0x010|                              a4 03            |          ..    |      size: 420 (valid) 0x1a-0x1c (2)
     |                                               |                |      element{}: 0x1c-0x1c0 (420)
     |                                               |                |        seg{}: 0x1c-0x1c0 (420)
0x010|                                    3d         |            =   |          n: 61 (valid) 0x1c-0x1d (1)
     |                                               |                |          x[0:61]: 0x1d-0x1c0 (419)
     |                                               |                |            [0]{}: seg 0x1d-0x20 (3)
0x010|                                       01      |             .  |              tag: 1 (valid) 0x1d-0x1e (1)
0x010|                                          00   |              . |              et: "funcref" (0) (valid) 0x1e-0x1f (1)
     |                                               |                |              y{}: 0x1f-0x20 (1)
0x010|                                             00|               .|                n: 0 (valid) 0x1f-0x20 (1)
     |                                               |                |                x[0:0]: 0x20-0x20 (0)
     |                                               |                |            [1]{}: seg 0x20-0x2f (15)
0x020|05                                             |.               |              tag: 5 (valid) 0x20-0x21 (1)
0x020|   70                                          | p              |              et: "funcref" (112) 0x21-0x22 (1)
     |                                               |                |              el{}: 0x22-0x2f (13)
0x020|      04                                       |  .             |                n: 4 (valid) 0x22-0x23 (1)
     |                                               |                |                x[0:4]: 0x23-0x2f (12)
     |                                               |                |                  [0][0:2]: el 0x23-0x26 (3)
     |                                               |                |                    [0]{}: in 0x23-0x25 (2)
0x020|         d2                                    |   .            |                      opcode: "ref.func" (0xd2) 0x23-0x24 (1)
0x020|            00                                 |    .           |                      x: 0 (valid) 0x24-0x25 (1)
     |                                               |                |                    [1]{}: in 0x25-0x26 (1)
0x020|               0b                              |     .          |                      opcode: "end" (0xb) 0x25-0x26 (1)
     |                                               |                |                  [1][0:2]: el 0x26-0x29 (3)
     |                                               |                |                    [0]{}: in 0x26-0x28 (2)
0x020|                  d2                           |      .         |                      opcode: "ref.func" (0xd2) 0x26-0x27 (1)
0x020|                     00                        |       .        |                      x: 0 (valid) 0x27-0x28 (1)
     |                                               |                |                    [1]{}: in 0x28-0x29 (1)
0x020|                        0b                     |        .       |                      opcode: "end" (0xb) 0x28-0x29 (1)
     |                                               |                |                  [2][0:2]: el 0x29-0x2c (3)
     |                                               |                |                    [0]{}: in 0x29-0x2b (2)
0x020|                           d0                  |         .      |                      opcode: "ref.null" (0xd0) 0x29-0x2a (1)
0x020|                              70               |          p     |                      t: "funcref" (112) 0x2a-0x2b (1)
     |                                               |                |                    [1]{}: in 0x2b-0x2c (1)
0x020|                                 0b            |           .    |                      opcode: "end" (0xb) 0x2b-0x2c (1)
     |                                               |                |                  [3][0:2]: el 0x2c-0x2f (3)
     |                                               |                |                    [0]{}: in 0x2c-0x2e (2)
0x020|                                    d2         |            .   |                      opcode: "ref.func" (0xd2) 0x2c-0x2d (1)
0x020|                                       01      |             .  |                      x: 1 (valid) 0x2d-0x2e (1)
     |                                               |                |                    [1]{}: in 0x2e-0x2f (1)
0x020|                                          0b   |              . |                      opcode: "end" (0xb) 0x2e-0x2f (1)
     |                                               |                |            [2]{}: seg 0x2f-0x32 (3)
0x020|                                             01|               .|              tag: 1 (valid) 0x2f-0x30 (1)
0x030|00                                             |.               |              et: "funcref" (0) (valid) 0x30-0x31 (1)
     |                                               |                |              y{}: 0x31-0x32 (1)
0x030|   00                                          | .              |                n: 0 (valid) 0x31-0x32 (1)
     |                                               |                |                x[0:0]: 0x32-0x32 (0)
     |                                               |                |            [3]{}: seg 0x32-0x39 (7)
0x030|      01                                       |  .             |              tag: 1 (valid) 0x32-0x33 (1)
0x030|         00                                    |   .            |              et: "funcref" (0) (valid) 0x33-0x34 (1)
     |                                               |                |              y{}: 0x34-0x39 (5)
0x030|            04                                 |    .           |                n: 4 (valid) 0x34-0x35 (1)
     |                                               |                |                x[0:4]: 0x35-0x39 (4)
0x030|               00                              |     .          |                  [0]: 0 y (valid) 0x35-0x36 (1)
0x030|                  00                           |      .         |                  [1]: 0 y (valid) 0x36-0x37 (1)
0x030|                     01                        |       .        |                  [2]: 1 y (valid) 0x37-0x38 (1)
0x030|                        01                     |        .       |                  [3]: 1 y (valid) 0x38-0x39 (1)
     |                                               |                |            [4]{}: seg 0x39-0x3c (3)
0x030|                           01                  |         .      |              tag: 1 (valid) 0x39-0x3a (1)
0x030|                              00               |          .     |              et: "funcref" (0) (valid) 0x3a-0x3b (1)
     |                                               |                |              y{}: 0x3b-0x3c (1)
0x030|                                 00            |           .    |                n: 0 (valid) 0x3b-0x3c (1)
     |                                               |                |                x[0:0]: 0x3c-0x3c (0)
     |                                               |                |            [5]{}: seg 0x3c-0x4b (15)
0x030|                                    05         |            .   |              tag: 5 (valid) 0x3c-0x3d (1)
0x030|                                       70      |             p  |              et: "funcref" (112) 0x3d-0x3e (1)
     |                                               |                |              el{}: 0x3e-0x4b (13)
0x030|                                          04   |              . |                n: 4 (valid) 0x3e-0x3f (1)
     |                                               |                |                x[0:4]: 0x3f-0x4b (12)
     |                                               |                |                  [0][0:2]: el 0x3f-0x42 (3)
     |                                               |                |                    [0]{}: in 0x3f-0x41 (2)
0x030|                                             d2|               .|                      opcode: "ref.func" (0xd2) 0x3f-0x40 (1)
0x040|00                                             |.               |                      x: 0 (valid) 0x40-0x41 (1)
     |                                               |                |                    [1]{}: in 0x41-0x42 (1)
0x040|   0b                                          | .              |                      opcode: "end" (0xb) 0x41-0x42 (1)
     |                                               |                |                  [1][0:2]: el 0x42-0x45 (3)
     |                                               |                |                    [0]{}: in 0x42-0x44 (2)
0x040|      d2                                       |  .             |                      opcode: "ref.func" (0xd2) 0x42-0x43 (1)
0x040|         00                                    |   .            |                      x: 0 (valid) 0x43-0x44 (1)
     |                                               |                |                    [1]{}: in 0x44-0x45 (1)
0x040|            0b                                 |    .           |                      opcode: "end" (0xb) 0x44-0x45 (1)
     |                                               |                |                  [2][0:2]: el 0x45-0x48 (3)
     |                                               |                |                    [0]{}: in 0x45-0x47 (2)
0x040|               d0                              |     .          |                      opcode: "ref.null" (0xd0) 0x45-0x46 (1)
0x040|                  70                           |      p         |                      t: "funcref" (112) 0x46-0x47 (1)
     |                                               |                |                    [1]{}: in 0x47-0x48 (1)
0x040|                     0b                        |       .        |                      opcode: "end" (0xb) 0x47-0x48 (1)
     |                                               |                |                  [3][0:2]: el 0x48-0x4b (3)
     |                                               |                |                    [0]{}: in 0x48-0x4a (2)
0x040|                        d2                     |        .       |                      opcode: "ref.func" (0xd2) 0x48-0x49 (1)
0x040|                           01                  |         .      |                      x: 1 (valid) 0x49-0x4a (1)
     |                                               |                |                    [1]{}: in 0x4a-0x4b (1)
0x040|                              0b               |          .     |                      opcode: "end" (0xb) 0x4a-0x4b (1)
     |                                               |                |            [6]{}: seg 0x4b-0x4e (3)
0x040|                                 01            |           .    |              tag: 1 (valid) 0x4b-0x4c (1)
0x040|                                    00         |            .   |              et: "funcref" (0) (valid) 0x4c-0x4d (1)
     |                                               |                |              y{}: 0x4d-0x4e (1)
0x040|                                       00      |             .  |                n: 0 (valid) 0x4d-0x4e (1)
     |                                               |                |                x[0:0]: 0x4e-0x4e (0)
     |                                               |                |            [7]{}: seg 0x4e-0x55 (7)
0x040|                                          01   |              . |              tag: 1 (valid) 0x4e-0x4f (1)
0x040|                                             00|               .|              et: "funcref" (0) (valid) 0x4f-0x50 (1)
     |                                               |                |              y{}: 0x50-0x55 (5)
0x050|04                                             |.               |                n: 4 (valid) 0x50-0x51 (1)
     |                                               |                |                x[0:4]: 0x51-0x55 (4)
0x050|   00                                          | .              |                  [0]: 0 y (valid) 0x51-0x52 (1)
0x050|      00                                       |  .             |                  [1]: 0 y (valid) 0x52-0x53 (1)
0x050|         01                                    |   .            |                  [2]: 1 y (valid) 0x53-0x54 (1)
0x050|            01                                 |    .           |                  [3]: 1 y (valid) 0x54-0x55 (1)
     |                                               |                |            [8]{}: seg 0x55-0x5a (5)
0x050|               00                              |     .          |              tag: 0 (valid) 0x55-0x56 (1)
     |                                               |                |              e[0:2]: 0x56-0x59 (3)
     |                                               |                |                [0]{}: in 0x56-0x58 (2)
0x050|                  41                           |      A         |                  opcode: "i32.const" (0x41) 0x56-0x57 (1)
0x050|                     00                        |       .        |                  n: 0 (valid) 0x57-0x58 (1)
     |                                               |                |                [1]{}: in 0x58-0x59 (1)
0x050|                        0b                     |        .       |                  opcode: "end" (0xb) 0x58-0x59 (1)
     |                                               |                |              y{}: 0x59-0x5a (1)
0x050|                           00                  |         .      |                n: 0 (valid) 0x59-0x5a (1)
     |                                               |                |                x[0:0]: 0x5a-0x5a (0)
     |                                               |                |            [9]{}: seg 0x5a-0x65 (11)
0x050|                              04               |          .     |              tag: 4 (valid) 0x5a-0x5b (1)
     |                                               |                |              e[0:2]: 0x5b-0x5e (3)
     |                                               |                |                [0]{}: in 0x5b-0x5d (2)
0x050|                                 41            |           A    |                  opcode: "i32.const" (0x41) 0x5b-0x5c (1)
0x050|                                    00         |            .   |                  n: 0 (valid) 0x5c-0x5d (1)
     |                                               |                |                [1]{}: in 0x5d-0x5e (1)
0x050|                                       0b      |             .  |                  opcode: "end" (0xb) 0x5d-0x5e (1)
     |                                               |                |              el{}: 0x5e-0x65 (7)
0x050|                                          02   |              . |                n: 2 (valid) 0x5e-0x5f (1)
     |                                               |                |                x[0:2]: 0x5f-0x65 (6)
     |                                               |                |                  [0][0:2]: el 0x5f-0x62 (3)
     |                                               |                |                    [0]{}: in 0x5f-0x61 (2)
0x050|                                             d2|               .|                      opcode: "ref.func" (0xd2) 0x5f-0x60 (1)
0x060|00                                             |.               |                      x: 0 (valid) 0x60-0x61 (1)
     |                                               |                |                    [1]{}: in 0x61-0x62 (1)
0x060|   0b                                          | .              |                      opcode: "end" (0xb) 0x61-0x62 (1)
     |                                               |                |                  [1][0:2]: el 0x62-0x65 (3)
     |                                               |                |                    [0]{}: in 0x62-0x64 (2)
0x060|      d0                                       |  .             |                      opcode: "ref.null" (0xd0) 0x62-0x63 (1)
0x060|         70                                    |   p            |                      t: "funcref" (112) 0x63-0x64 (1)
     |                                               |                |                    [1]{}: in 0x64-0x65 (1)
0x060|            0b                                 |    .           |                      opcode: "end" (0xb) 0x64-0x65 (1)
     |                                               |                |            [10]{}: seg 0x65-0x6a (5)
0x060|               00                              |     .          |              tag: 0 (valid) 0x65-0x66 (1)
     |                                               |                |              e[0:2]: 0x66-0x69 (3)
     |                                               |                |                [0]{}: in 0x66-0x68 (2)
0x060|                  41                           |      A         |                  opcode: "i32.const" (0x41) 0x66-0x67 (1)
0x060|                     00                        |       .        |                  n: 0 (valid) 0x67-0x68 (1)
     |                                               |                |                [1]{}: in 0x68-0x69 (1)
0x060|                        0b                     |        .       |                  opcode: "end" (0xb) 0x68-0x69 (1)
     |                                               |                |              y{}: 0x69-0x6a (1)
0x060|                           00                  |         .      |                n: 0 (valid) 0x69-0x6a (1)
     |                                               |                |                x[0:0]: 0x6a-0x6a (0)
     |                                               |                |            [11]{}: seg 0x6a-0x71 (7)
0x060|                              00               |          .     |              tag: 0 (valid) 0x6a-0x6b (1)
     |                                               |                |              e[0:2]: 0x6b-0x6e (3)
     |                                               |                |                [0]{}: in 0x6b-0x6d (2)
0x060|                                 41            |           A    |                  opcode: "i32.const" (0x41) 0x6b-0x6c (1)
0x060|                                    00         |            .   |                  n: 0 (valid) 0x6c-0x6d (1)
     |                                               |                |                [1]{}: in 0x6d-0x6e (1)
0x060|                                       0b      |             .  |                  opcode: "end" (0xb) 0x6d-0x6e (1)
     |                                               |                |              y{}: 0x6e-0x71 (3)
0x060|                                          02   |              . |                n: 2 (valid) 0x6e-0x6f (1)
     |                                               |                |                x[0:2]: 0x6f-0x71 (2)
0x060|                                             00|               .|                  [0]: 0 y (valid) 0x6f-0x70 (1)
0x070|01                                             |.               |                  [1]: 1 y (valid) 0x70-0x71 (1)
     |                                               |                |            [12]{}: seg 0x71-0x76 (5)
0x070|   00                                          | .              |              tag: 0 (valid) 0x71-0x72 (1)
     |                                               |                |              e[0:2]: 0x72-0x75 (3)
     |                                               |                |                [0]{}: in 0x72-0x74 (2)
0x070|      41                                       |  A             |                  opcode: "i32.const" (0x41) 0x72-0x73 (1)
0x070|         00                                    |   .            |                  n: 0 (valid) 0x73-0x74 (1)
     |                                               |                |                [1]{}: in 0x74-0x75 (1)
0x070|            0b                                 |    .           |                  opcode: "end" (0xb) 0x74-0x75 (1)
     |                                               |                |              y{}: 0x75-0x76 (1)
0x070|               00                              |     .          |                n: 0 (valid) 0x75-0x76 (1)
     |                                               |                |                x[0:0]: 0x76-0x76 (0)
     |                                               |                |            [13]{}: seg 0x76-0x7d (7)
0x070|                  00                           |      .         |              tag: 0 (valid) 0x76-0x77 (1)
     |                                               |                |              e[0:2]: 0x77-0x7a (3)
     |                                               |                |                [0]{}: in 0x77-0x79 (2)
0x070|                     41                        |       A        |                  opcode: "i32.const" (0x41) 0x77-0x78 (1)
0x070|                        00                     |        .       |                  n: 0 (valid) 0x78-0x79 (1)
     |                                               |                |                [1]{}: in 0x79-0x7a (1)
0x070|                           0b                  |         .      |                  opcode: "end" (0xb) 0x79-0x7a (1)
     |                                               |                |              y{}: 0x7a-0x7d (3)
0x070|                              02               |          .     |                n: 2 (valid) 0x7a-0x7b (1)
     |                                               |                |                x[0:2]: 0x7b-0x7d (2)
0x070|                                 00            |           .    |                  [0]: 0 y (valid) 0x7b-0x7c (1)
0x070|                                    01         |            .   |                  [1]: 1 y (valid) 0x7c-0x7d (1)
     |                                               |                |            [14]{}: seg 0x7d-0x82 (5)
0x070|                                       00      |             .  |              tag: 0 (valid) 0x7d-0x7e (1)
     |                                               |                |              e[0:2]: 0x7e-0x81 (3)
     |                                               |                |                [0]{}: in 0x7e-0x80 (2)
0x070|                                          41   |              A |                  opcode: "i32.const" (0x41) 0x7e-0x7f (1)
0x070|                                             00|               .|                  n: 0 (valid) 0x7f-0x80 (1)
     |                                               |                |                [1]{}: in 0x80-0x81 (1)
0x080|0b                                             |.               |                  opcode: "end" (0xb) 0x80-0x81 (1)
     |                                               |                |              y{}: 0x81-0x82 (1)
0x080|   00                                          | .              |                n: 0 (valid) 0x81-0x82 (1)
     |                                               |                |                x[0:0]: 0x82-0x82 (0)
     |                                               |                |            [15]{}: seg 0x82-0x89 (7)
0x080|      00                                       |  .             |              tag: 0 (valid) 0x82-0x83 (1)
     |                                               |                |              e[0:2]: 0x83-0x86 (3)
     |                                               |                |                [0]{}: in 0x83-0x85 (2)
0x080|         41                                    |   A            |                  opcode: "i32.const" (0x41) 0x83-0x84 (1)
0x080|            00                                 |    .           |                  n: 0 (valid) 0x84-0x85 (1)
     |                                               |                |                [1]{}: in 0x85-0x86 (1)
0x080|               0b                              |     .          |                  opcode: "end" (0xb) 0x85-0x86 (1)
     |                                               |                |              y{}: 0x86-0x89 (3)
0x080|                  02                           |      .         |                n: 2 (valid) 0x86-0x87 (1)
     |                                               |                |                x[0:2]: 0x87-0x89 (2)
0x080|                     00                        |       .        |                  [0]: 0 y (valid) 0x87-0x88 (1)
0x080|                        00                     |        .       |                  [1]: 0 y (valid) 0x88-0x89 (1)
     |                                               |                |            [16]{}: seg 0x89-0x8e (5)
0x080|                           00                  |         .      |              tag: 0 (valid) 0x89-0x8a (1)
     |                                               |                |              e[0:2]: 0x8a-0x8d (3)
     |                                               |                |                [0]{}: in 0x8a-0x8c (2)
0x080|                              41               |          A     |                  opcode: "i32.const" (0x41) 0x8a-0x8b (1)
0x080|                                 00            |           .    |                  n: 0 (valid) 0x8b-0x8c (1)
     |                                               |                |                [1]{}: in 0x8c-0x8d (1)
0x080|                                    0b         |            .   |                  opcode: "end" (0xb) 0x8c-0x8d (1)
     |                                               |                |              y{}: 0x8d-0x8e (1)
0x080|                                       00      |             .  |                n: 0 (valid) 0x8d-0x8e (1)
     |                                               |                |                x[0:0]: 0x8e-0x8e (0)
     |                                               |                |            [17]{}: seg 0x8e-0x95 (7)
0x080|                                          00   |              . |              tag: 0 (valid) 0x8e-0x8f (1)
     |                                               |                |              e[0:2]: 0x8f-0x92 (3)
     |                                               |                |                [0]{}: in 0x8f-0x91 (2)
0x080|                                             41|               A|                  opcode: "i32.const" (0x41) 0x8f-0x90 (1)
0x090|00                                             |.               |                  n: 0 (valid) 0x90-0x91 (1)
     |                                               |                |                [1]{}: in 0x91-0x92 (1)
0x090|   0b                                          | .              |                  opcode: "end" (0xb) 0x91-0x92 (1)
     |                                               |                |              y{}: 0x92-0x95 (3)
0x090|      02                                       |  .             |                n: 2 (valid) 0x92-0x93 (1)
     |                                               |                |                x[0:2]: 0x93-0x95 (2)
0x090|         00                                    |   .            |                  [0]: 0 y (valid) 0x93-0x94 (1)
0x090|            00                                 |    .           |                  [1]: 0 y (valid) 0x94-0x95 (1)
     |                                               |                |            [18]{}: seg 0x95-0x9a (5)
0x090|               00                              |     .          |              tag: 0 (valid) 0x95-0x96 (1)
     |                                               |                |              e[0:2]: 0x96-0x99 (3)
     |                                               |                |                [0]{}: in 0x96-0x98 (2)
0x090|                  41                           |      A         |                  opcode: "i32.const" (0x41) 0x96-0x97 (1)
0x090|                     00                        |       .        |                  n: 0 (valid) 0x97-0x98 (1)
     |                                               |                |                [1]{}: in 0x98-0x99 (1)
0x090|                        0b                     |        .       |                  opcode: "end" (0xb) 0x98-0x99 (1)
     |                                               |                |              y{}: 0x99-0x9a (1)
0x090|                           00                  |         .      |                n: 0 (valid) 0x99-0x9a (1)
     |                                               |                |                x[0:0]: 0x9a-0x9a (0)
     |                                               |                |            [19]{}: seg 0x9a-0xa1 (7)
0x090|                              00               |          .     |              tag: 0 (valid) 0x9a-0x9b (1)
     |                                               |                |              e[0:2]: 0x9b-0x9e (3)
     |                                               |                |                [0]{}: in 0x9b-0x9d (2)
0x090|                                 41            |           A    |                  opcode: "i32.const" (0x41) 0x9b-0x9c (1)
0x090|                                    00         |            .   |                  n: 0 (valid) 0x9c-0x9d (1)
     |                                               |                |                [1]{}: in 0x9d-0x9e (1)
0x090|                                       0b      |             .  |                  opcode: "end" (0xb) 0x9d-0x9e (1)
     |                                               |                |              y{}: 0x9e-0xa1 (3)
0x090|                                          02   |              . |                n: 2 (valid) 0x9e-0x9f (1)
     |                                               |                |                x[0:2]: 0x9f-0xa1 (2)
0x090|                                             00|               .|                  [0]: 0 y (valid) 0x9f-0xa0 (1)
0x0a0|00                                             |.               |                  [1]: 0 y (valid) 0xa0-0xa1 (1)
     |                                               |                |            [20]{}: seg 0xa1-0xa6 (5)
0x0a0|   00                                          | .              |              tag: 0 (valid) 0xa1-0xa2 (1)
     |                                               |                |              e[0:2]: 0xa2-0xa5 (3)
     |                                               |                |                [0]{}: in 0xa2-0xa4 (2)
0x0a0|      41                                       |  A             |                  opcode: "i32.const" (0x41) 0xa2-0xa3 (1)
0x0a0|         00                                    |   .            |                  n: 0 (valid) 0xa3-0xa4 (1)
     |                                               |                |                [1]{}: in 0xa4-0xa5 (1)
0x0a0|            0b                                 |    .           |                  opcode: "end" (0xb) 0xa4-0xa5 (1)
     |                                               |                |              y{}: 0xa5-0xa6 (1)
0x0a0|               00                              |     .          |                n: 0 (valid) 0xa5-0xa6 (1)
     |                                               |                |                x[0:0]: 0xa6-0xa6 (0)
     |                                               |                |            [21]{}: seg 0xa6-0xad (7)
0x0a0|                  00                           |      .         |              tag: 0 (valid) 0xa6-0xa7 (1)
     |                                               |                |              e[0:2]: 0xa7-0xaa (3)
     |                                               |                |                [0]{}: in 0xa7-0xa9 (2)
0x0a0|                     41                        |       A        |                  opcode: "i32.const" (0x41) 0xa7-0xa8 (1)
0x0a0|                        00                     |        .       |                  n: 0 (valid) 0xa8-0xa9 (1)
     |                                               |                |                [1]{}: in 0xa9-0xaa (1)
0x0a0|                           0b                  |         .      |                  opcode: "end" (0xb) 0xa9-0xaa (1)
     |                                               |                |              y{}: 0xaa-0xad (3)
0x0a0|                              02               |          .     |                n: 2 (valid) 0xaa-0xab (1)
     |                                               |                |                x[0:2]: 0xab-0xad (2)
0x0a0|                                 00            |           .    |                  [0]: 0 y (valid) 0xab-0xac (1)
0x0a0|                                    00         |            .   |                  [1]: 0 y (valid) 0xac-0xad (1)
     |                                               |                |            [22]{}: seg 0xad-0xb2 (5)
0x0a0|                                       00      |             .  |              tag: 0 (valid) 0xad-0xae (1)
     |                                               |                |              e[0:2]: 0xae-0xb1 (3)
     |                                               |                |                [0]{}: in 0xae-0xb0 (2)
0x0a0|                                          41   |              A |                  opcode: "i32.const" (0x41) 0xae-0xaf (1)
0x0a0|                                             00|               .|                  n: 0 (valid) 0xaf-0xb0 (1)
     |                                               |                |                [1]{}: in 0xb0-0xb1 (1)
0x0b0|0b                                             |.               |                  opcode: "end" (0xb) 0xb0-0xb1 (1)
     |                                               |                |              y{}: 0xb1-0xb2 (1)
0x0b0|   00                                          | .              |                n: 0 (valid) 0xb1-0xb2 (1)
     |                                               |                |                x[0:0]: 0xb2-0xb2 (0)
     |                                               |                |            [23]{}: seg 0xb2-0xbd (11)
0x0b0|      04                                       |  .             |              tag: 4 (valid) 0xb2-0xb3 (1)
     |                                               |                |              e[0:2]: 0xb3-0xb6 (3)
     |                                               |                |                [0]{}: in 0xb3-0xb5 (2)
0x0b0|         41                                    |   A            |                  opcode: "i32.const" (0x41) 0xb3-0xb4 (1)
0x0b0|            00                                 |    .           |                  n: 0 (valid) 0xb4-0xb5 (1)
     |                                               |                |                [1]{}: in 0xb5-0xb6 (1)
0x0b0|               0b                              |     .          |                  opcode: "end" (0xb) 0xb5-0xb6 (1)
     |                                               |                |              el{}: 0xb6-0xbd (7)
0x0b0|                  02                           |      .         |                n: 2 (valid) 0xb6-0xb7 (1)
     |                                               |                |                x[0:2]: 0xb7-0xbd (6)
     |                                               |                |                  [0][0:2]: el 0xb7-0xba (3)
     |                                               |                |                    [0]{}: in 0xb7-0xb9 (2)
0x0b0|                     d2                        |       .        |                      opcode: "ref.func" (0xd2) 0xb7-0xb8 (1)
0x0b0|                        00                     |        .       |                      x: 0 (valid) 0xb8-0xb9 (1)
     |                                               |                |                    [1]{}: in 0xb9-0xba (1)
0x0b0|                           0b                  |         .      |                      opcode: "end" (0xb) 0xb9-0xba (1)
     |                                               |                |                  [1][0:2]: el 0xba-0xbd (3)
     |                                               |                |                    [0]{}: in 0xba-0xbc (2)
0x0b0|                              d0               |          .     |                      opcode: "ref.null" (0xd0) 0xba-0xbb (1)
0x0b0|                                 70            |           p    |                      t: "funcref" (112) 0xbb-0xbc (1)
     |                                               |                |                    [1]{}: in 0xbc-0xbd (1)
0x0b0|                                    0b         |            .   |                      opcode: "end" (0xb) 0xbc-0xbd (1)
     |                                               |                |            [24]{}: seg 0xbd-0xc4 (7)
0x0b0|                                       00      |             .  |              tag: 0 (valid) 0xbd-0xbe (1)
     |                                               |                |              e[0:2]: 0xbe-0xc1 (3)
     |                                               |                |                [0]{}: in 0xbe-0xc0 (2)
0x0b0|                                          41   |              A |                  opcode: "i32.const" (0x41) 0xbe-0xbf (1)
0x0b0|                                             00|               .|                  n: 0 (valid) 0xbf-0xc0 (1)
     |                                               |                |                [1]{}: in 0xc0-0xc1 (1)
0x0c0|0b                                             |.               |                  opcode: "end" (0xb) 0xc0-0xc1 (1)
     |                                               |                |              y{}: 0xc1-0xc4 (3)
0x0c0|   02                                          | .              |                n: 2 (valid) 0xc1-0xc2 (1)
     |                                               |                |                x[0:2]: 0xc2-0xc4 (2)
0x0c0|      00                                       |  .             |                  [0]: 0 y (valid) 0xc2-0xc3 (1)
0x0c0|         00                                    |   .            |                  [1]: 0 y (valid) 0xc3-0xc4 (1)
     |                                               |                |            [25]{}: seg 0xc4-0xcb (7)
0x0c0|            00                                 |    .           |              tag: 0 (valid) 0xc4-0xc5 (1)
     |                                               |                |              e[0:2]: 0xc5-0xc8 (3)
     |                                               |                |                [0]{}: in 0xc5-0xc7 (2)
0x0c0|               41                              |     A          |                  opcode: "i32.const" (0x41) 0xc5-0xc6 (1)
0x0c0|                  00                           |      .         |                  n: 0 (valid) 0xc6-0xc7 (1)
     |                                               |                |                [1]{}: in 0xc7-0xc8 (1)
0x0c0|                     0b                        |       .        |                  opcode: "end" (0xb) 0xc7-0xc8 (1)
     |                                               |                |              y{}: 0xc8-0xcb (3)
0x0c0|                        02                     |        .       |                n: 2 (valid) 0xc8-0xc9 (1)
     |                                               |                |                x[0:2]: 0xc9-0xcb (2)
0x0c0|                           00                  |         .      |                  [0]: 0 y (valid) 0xc9-0xca (1)
0x0c0|                              00               |          .     |                  [1]: 0 y (valid) 0xca-0xcb (1)
     |                                               |                |            [26]{}: seg 0xcb-0xd0 (5)
0x0c0|                                 00            |           .    |              tag: 0 (valid) 0xcb-0xcc (1)
     |                                               |                |              e[0:2]: 0xcc-0xcf (3)
     |                                               |                |                [0]{}: in 0xcc-0xce (2)
0x0c0|                                    41         |            A   |                  opcode: "i32.const" (0x41) 0xcc-0xcd (1)
0x0c0|                                       00      |             .  |                  n: 0 (valid) 0xcd-0xce (1)
     |                                               |                |                [1]{}: in 0xce-0xcf (1)
0x0c0|                                          0b   |              . |                  opcode: "end" (0xb) 0xce-0xcf (1)
     |                                               |                |              y{}: 0xcf-0xd0 (1)
0x0c0|                                             00|               .|                n: 0 (valid) 0xcf-0xd0 (1)
     |                                               |                |                x[0:0]: 0xd0-0xd0 (0)
     |                                               |                |            [27]{}: seg 0xd0-0xdb (11)
0x0d0|04                                             |.               |              tag: 4 (valid) 0xd0-0xd1 (1)
     |                                               |                |              e[0:2]: 0xd1-0xd4 (3)
     |                                               |                |                [0]{}: in 0xd1-0xd3 (2)
0x0d0|   41                                          | A              |                  opcode: "i32.const" (0x41) 0xd1-0xd2 (1)
0x0d0|      00                                       |  .             |                  n: 0 (valid) 0xd2-0xd3 (1)
     |                                               |                |                [1]{}: in 0xd3-0xd4 (1)
0x0d0|         0b                                    |   .            |                  opcode: "end" (0xb) 0xd3-0xd4 (1)
     |                                               |                |              el{}: 0xd4-0xdb (7)
0x0d0|            02                                 |    .           |                n: 2 (valid) 0xd4-0xd5 (1)
     |                                               |                |                x[0:2]: 0xd5-0xdb (6)
     |                                               |                |                  [0][0:2]: el 0xd5-0xd8 (3)
     |                                               |                |                    [0]{}: in 0xd5-0xd7 (2)
0x0d0|               d2                              |     .          |                      opcode: "ref.func" (0xd2) 0xd5-0xd6 (1)
0x0d0|                  00                           |      .         |                      x: 0 (valid) 0xd6-0xd7 (1)
     |                                               |                |                    [1]{}: in 0xd7-0xd8 (1)
0x0d0|                     0b                        |       .        |                      opcode: "end" (0xb) 0xd7-0xd8 (1)
     |                                               |                |                  [1][0:2]: el 0xd8-0xdb (3)
     |                                               |                |                    [0]{}: in 0xd8-0xda (2)
0x0d0|                        d0                     |        .       |                      opcode: "ref.null" (0xd0) 0xd8-0xd9 (1)
0x0d0|                           70                  |         p      |                      t: "funcref" (112) 0xd9-0xda (1)
     |                                               |                |                    [1]{}: in 0xda-0xdb (1)
0x0d0|                              0b               |          .     |                      opcode: "end" (0xb) 0xda-0xdb (1)
     |                                               |                |            [28]{}: seg 0xdb-0xe2 (7)
0x0d0|                                 00            |           .    |              tag: 0 (valid) 0xdb-0xdc (1)
     |                                               |                |              e[0:2]: 0xdc-0xdf (3)
     |                                               |                |                [0]{}: in 0xdc-0xde (2)
0x0d0|                                    41         |            A   |                  opcode: "i32.const" (0x41) 0xdc-0xdd (1)
0x0d0|                                       00      |             .  |                  n: 0 (valid) 0xdd-0xde (1)
     |                                               |                |                [1]{}: in 0xde-0xdf (1)
0x0d0|                                          0b   |              . |                  opcode: "end" (0xb) 0xde-0xdf (1)
     |                                               |                |              y{}: 0xdf-0xe2 (3)
0x0d0|                                             02|               .|                n: 2 (valid) 0xdf-0xe0 (1)
     |                                               |                |                x[0:2]: 0xe0-0xe2 (2)
0x0e0|00                                             |.               |                  [0]: 0 y (valid) 0xe0-0xe1 (1)
0x0e0|   00                                          | .              |                  [1]: 0 y (valid) 0xe1-0xe2 (1)
     |                                               |                |            [29]{}: seg 0xe2-0xe9 (7)
0x0e0|      00                                       |  .             |              tag: 0 (valid) 0xe2-0xe3 (1)
     |                                               |                |              e[0:2]: 0xe3-0xe6 (3)
     |                                               |                |                [0]{}: in 0xe3-0xe5 (2)
0x0e0|         41                                    |   A            |                  opcode: "i32.const" (0x41) 0xe3-0xe4 (1)
0x0e0|            00                                 |    .           |                  n: 0 (valid) 0xe4-0xe5 (1)
     |                                               |                |                [1]{}: in 0xe5-0xe6 (1)
0x0e0|               0b                              |     .          |                  opcode: "end" (0xb) 0xe5-0xe6 (1)
     |                                               |                |              y{}: 0xe6-0xe9 (3)
0x0e0|                  02                           |      .         |                n: 2 (valid) 0xe6-0xe7 (1)
     |                                               |                |                x[0:2]: 0xe7-0xe9 (2)
0x0e0|                     00                        |       .        |                  [0]: 0 y (valid) 0xe7-0xe8 (1)
0x0e0|                        00                     |        .       |                  [1]: 0 y (valid) 0xe8-0xe9 (1)
     |                                               |                |            [30]{}: seg 0xe9-0xf4 (11)
0x0e0|                           04                  |         .      |              tag: 4 (valid) 0xe9-0xea (1)
     |                                               |                |              e[0:2]: 0xea-0xed (3)
     |                                               |                |                [0]{}: in 0xea-0xec (2)
0x0e0|                              41               |          A     |                  opcode: "i32.const" (0x41) 0xea-0xeb (1)
0x0e0|                                 00            |           .    |                  n: 0 (valid) 0xeb-0xec (1)
     |                                               |                |                [1]{}: in 0xec-0xed (1)
0x0e0|                                    0b         |            .   |                  opcode: "end" (0xb) 0xec-0xed (1)
     |                                               |                |              el{}: 0xed-0xf4 (7)
0x0e0|                                       02      |             .  |                n: 2 (valid) 0xed-0xee (1)
     |                                               |                |                x[0:2]: 0xee-0xf4 (6)
     |                                               |                |                  [0][0:2]: el 0xee-0xf1 (3)
     |                                               |                |                    [0]{}: in 0xee-0xf0 (2)
0x0e0|                                          d2   |              . |                      opcode: "ref.func" (0xd2) 0xee-0xef (1)
0x0e0|                                             00|               .|                      x: 0 (valid) 0xef-0xf0 (1)
     |                                               |                |                    [1]{}: in 0xf0-0xf1 (1)
0x0f0|0b                                             |.               |                      opcode: "end" (0xb) 0xf0-0xf1 (1)
     |                                               |                |                  [1][0:2]: el 0xf1-0xf4 (3)
     |                                               |                |                    [0]{}: in 0xf1-0xf3 (2)
0x0f0|   d0                                          | .              |                      opcode: "ref.null" (0xd0) 0xf1-0xf2 (1)
0x0f0|      70                                       |  p             |                      t: "funcref" (112) 0xf2-0xf3 (1)
     |                                               |                |                    [1]{}: in 0xf3-0xf4 (1)
0x0f0|         0b                                    |   .            |                      opcode: "end" (0xb) 0xf3-0xf4 (1)
     |                                               |                |            [31]{}: seg 0xf4-0xf9 (5)
0x0f0|            00                                 |    .           |              tag: 0 (valid) 0xf4-0xf5 (1)
     |                                               |                |              e[0:2]: 0xf5-0xf8 (3)
     |                                               |                |                [0]{}: in 0xf5-0xf7 (2)
0x0f0|               41                              |     A          |                  opcode: "i32.const" (0x41) 0xf5-0xf6 (1)
0x0f0|                  00                           |      .         |                  n: 0 (valid) 0xf6-0xf7 (1)
     |                                               |                |                [1]{}: in 0xf7-0xf8 (1)
0x0f0|                     0b                        |       .        |                  opcode: "end" (0xb) 0xf7-0xf8 (1)
     |                                               |                |              y{}: 0xf8-0xf9 (1)
0x0f0|                        00                     |        .       |                n: 0 (valid) 0xf8-0xf9 (1)
     |                                               |                |                x[0:0]: 0xf9-0xf9 (0)
     |                                               |                |            [32]{}: seg 0xf9-0x104 (11)
0x0f0|                           04                  |         .      |              tag: 4 (valid) 0xf9-0xfa (1)
     |                                               |                |              e[0:2]: 0xfa-0xfd (3)
     |                                               |                |                [0]{}: in 0xfa-0xfc (2)
0x0f0|                              41               |          A     |                  opcode: "i32.const" (0x41) 0xfa-0xfb (1)
0x0f0|                                 00            |           .    |                  n: 0 (valid) 0xfb-0xfc (1)
     |                                               |                |                [1]{}: in 0xfc-0xfd (1)
0x0f0|                                    0b         |            .   |                  opcode: "end" (0xb) 0xfc-0xfd (1)
     |                                               |                |              el{}: 0xfd-0x104 (7)
0x0f0|                                       02      |             .  |                n: 2 (valid) 0xfd-0xfe (1)
     |                                               |                |                x[0:2]: 0xfe-0x104 (6)
     |                                               |                |                  [0][0:2]: el 0xfe-0x101 (3)
     |                                               |                |                    [0]{}: in 0xfe-0x100 (2)
0x0f0|                                          d2   |              . |                      opcode: "ref.func" (0xd2) 0xfe-0xff (1)
0x0f0|                                             00|               .|                      x: 0 (valid) 0xff-0x100 (1)
     |                                               |                |                    [1]{}: in 0x100-0x101 (1)
0x100|0b                                             |.               |                      opcode: "end" (0xb) 0x100-0x101 (1)
     |                                               |                |                  [1][0:2]: el 0x101-0x104 (3)
     |                                               |                |                    [0]{}: in 0x101-0x103 (2)
0x100|   d0                                          | .              |                      opcode: "ref.null" (0xd0) 0x101-0x102 (1)
0x100|      70                                       |  p             |                      t: "funcref" (112) 0x102-0x103 (1)
     |                                               |                |                    [1]{}: in 0x103-0x104 (1)
0x100|         0b                                    |   .            |                      opcode: "end" (0xb) 0x103-0x104 (1)
     |                                               |                |            [33]{}: seg 0x104-0x109 (5)
0x100|            00                                 |    .           |              tag: 0 (valid) 0x104-0x105 (1)
     |                                               |                |              e[0:2]: 0x105-0x108 (3)
     |                                               |                |                [0]{}: in 0x105-0x107 (2)
0x100|               41                              |     A          |                  opcode: "i32.const" (0x41) 0x105-0x106 (1)
0x100|                  00                           |      .         |                  n: 0 (valid) 0x106-0x107 (1)
     |                                               |                |                [1]{}: in 0x107-0x108 (1)
0x100|                     0b                        |       .        |                  opcode: "end" (0xb) 0x107-0x108 (1)
     |                                               |                |              y{}: 0x108-0x109 (1)
0x100|                        00                     |        .       |                n: 0 (valid) 0x108-0x109 (1)
     |                                               |                |                x[0:0]: 0x109-0x109 (0)
     |                                               |                |            [34]{}: seg 0x109-0x110 (7)
0x100|                           00                  |         .      |              tag: 0 (valid) 0x109-0x10a (1)
     |                                               |                |              e[0:2]: 0x10a-0x10d (3)
     |                                               |                |                [0]{}: in 0x10a-0x10c (2)
0x100|                              41               |          A     |                  opcode: "i32.const" (0x41) 0x10a-0x10b (1)
0x100|                                 00            |           .    |                  n: 0 (valid) 0x10b-0x10c (1)
     |                                               |                |                [1]{}: in 0x10c-0x10d (1)
0x100|                                    0b         |            .   |                  opcode: "end" (0xb) 0x10c-0x10d (1)
     |                                               |                |              y{}: 0x10d-0x110 (3)
0x100|                                       02      |             .  |                n: 2 (valid) 0x10d-0x10e (1)
     |                                               |                |                x[0:2]: 0x10e-0x110 (2)
0x100|                                          00   |              . |                  [0]: 0 y (valid) 0x10e-0x10f (1)
0x100|                                             01|               .|                  [1]: 1 y (valid) 0x10f-0x110 (1)
     |                                               |                |            [35]{}: seg 0x110-0x115 (5)
0x110|00                                             |.               |              tag: 0 (valid) 0x110-0x111 (1)
     |                                               |                |              e[0:2]: 0x111-0x114 (3)
     |                                               |                |                [0]{}: in 0x111-0x113 (2)
0x110|   41                                          | A              |                  opcode: "i32.const" (0x41) 0x111-0x112 (1)
0x110|      00                                       |  .             |                  n: 0 (valid) 0x112-0x113 (1)
     |                                               |                |                [1]{}: in 0x113-0x114 (1)
0x110|         0b                                    |   .            |                  opcode: "end" (0xb) 0x113-0x114 (1)
     |                                               |                |              y{}: 0x114-0x115 (1)
0x110|            00                                 |    .           |                n: 0 (valid) 0x114-0x115 (1)
     |                                               |                |                x[0:0]: 0x115-0x115 (0)
     |                                               |                |            [36]{}: seg 0x115-0x11c (7)
0x110|               00                              |     .          |              tag: 0 (valid) 0x115-0x116 (1)
     |                                               |                |              e[0:2]: 0x116-0x119 (3)
     |                                               |                |                [0]{}: in 0x116-0x118 (2)
0x110|                  41                           |      A         |                  opcode: "i32.const" (0x41) 0x116-0x117 (1)
0x110|                     00                        |       .        |                  n: 0 (valid) 0x117-0x118 (1)
     |                                               |                |                [1]{}: in 0x118-0x119 (1)
0x110|                        0b                     |        .       |                  opcode: "end" (0xb) 0x118-0x119 (1)
     |                                               |                |              y{}: 0x119-0x11c (3)
0x110|                           02                  |         .      |                n: 2 (valid) 0x119-0x11a (1)
     |                                               |                |                x[0:2]: 0x11a-0x11c (2)
0x110|                              00               |          .     |                  [0]: 0 y (valid) 0x11a-0x11b (1)
0x110|                                 01            |           .    |                  [1]: 1 y (valid) 0x11b-0x11c (1)
     |                                               |                |            [37]{}: seg 0x11c-0x121 (5)
0x110|                                    00         |            .   |              tag: 0 (valid) 0x11c-0x11d (1)
     |                                               |                |              e[0:2]: 0x11d-0x120 (3)
     |                                               |                |                [0]{}: in 0x11d-0x11f (2)
0x110|                                       41      |             A  |                  opcode: "i32.const" (0x41) 0x11d-0x11e (1)
0x110|                                          00   |              . |                  n: 0 (valid) 0x11e-0x11f (1)
     |                                               |                |                [1]{}: in 0x11f-0x120 (1)
0x110|                                             0b|               .|                  opcode: "end" (0xb) 0x11f-0x120 (1)
     |                                               |                |              y{}: 0x120-0x121 (1)
0x120|00                                             |.               |                n: 0 (valid) 0x120-0x121 (1)
     |                                               |                |                x[0:0]: 0x121-0x121 (0)
     |                                               |                |            [38]{}: seg 0x121-0x128 (7)
0x120|   00                                          | .              |              tag: 0 (valid) 0x121-0x122 (1)
     |                                               |                |              e[0:2]: 0x122-0x125 (3)
     |                                               |                |                [0]{}: in 0x122-0x124 (2)
0x120|      41                                       |  A             |                  opcode: "i32.const" (0x41) 0x122-0x123 (1)
0x120|         00                                    |   .            |                  n: 0 (valid) 0x123-0x124 (1)
     |                                               |                |                [1]{}: in 0x124-0x125 (1)
0x120|            0b                                 |    .           |                  opcode: "end" (0xb) 0x124-0x125 (1)
     |                                               |                |              y{}: 0x125-0x128 (3)
0x120|               02                              |     .          |                n: 2 (valid) 0x125-0x126 (1)
     |                                               |                |                x[0:2]: 0x126-0x128 (2)
0x120|                  00                           |      .         |                  [0]: 0 y (valid) 0x126-0x127 (1)
0x120|                     00                        |       .        |                  [1]: 0 y (valid) 0x127-0x128 (1)
     |                                               |                |            [39]{}: seg 0x128-0x12d (5)
0x120|                        00                     |        .       |              tag: 0 (valid) 0x128-0x129 (1)
     |                                               |                |              e[0:2]: 0x129-0x12c (3)
     |                                               |                |                [0]{}: in 0x129-0x12b (2)
0x120|                           41                  |         A      |                  opcode: "i32.const" (0x41) 0x129-0x12a (1)
0x120|                              00               |          .     |                  n: 0 (valid) 0x12a-0x12b (1)
     |                                               |                |                [1]{}: in 0x12b-0x12c (1)
0x120|                                 0b            |           .    |                  opcode: "end" (0xb) 0x12b-0x12c (1)
     |                                               |                |              y{}: 0x12c-0x12d (1)
0x120|                                    00         |            .   |                n: 0 (valid) 0x12c-0x12d (1)
     |                                               |                |                x[0:0]: 0x12d-0x12d (0)
     |                                               |                |            [40]{}: seg 0x12d-0x134 (7)
0x120|                                       00      |             .  |              tag: 0 (valid) 0x12d-0x12e (1)
     |                                               |                |              e[0:2]: 0x12e-0x131 (3)
     |                                               |                |                [0]{}: in 0x12e-0x130 (2)
0x120|                                          41   |              A |                  opcode: "i32.const" (0x41) 0x12e-0x12f (1)
0x120|                                             00|               .|                  n: 0 (valid) 0x12f-0x130 (1)
     |                                               |                |                [1]{}: in 0x130-0x131 (1)
0x130|0b                                             |.               |                  opcode: "end" (0xb) 0x130-0x131 (1)
     |                                               |                |              y{}: 0x131-0x134 (3)
0x130|   02                                          | .              |                n: 2 (valid) 0x131-0x132 (1)
     |                                               |                |                x[0:2]: 0x132-0x134 (2)
0x130|      00                                       |  .             |                  [0]: 0 y (valid) 0x132-0x133 (1)
0x130|         00                                    |   .            |                  [1]: 0 y (valid) 0x133-0x134 (1)
     |                                               |                |            [41]{}: seg 0x134-0x139 (5)
0x130|            00                                 |    .           |              tag: 0 (valid) 0x134-0x135 (1)
     |                                               |                |              e[0:2]: 0x135-0x138 (3)
     |                                               |                |                [0]{}: in 0x135-0x137 (2)
0x130|               41                              |     A          |                  opcode: "i32.const" (0x41) 0x135-0x136 (1)
0x130|                  00                           |      .         |                  n: 0 (valid) 0x136-0x137 (1)
     |                                               |                |                [1]{}: in 0x137-0x138 (1)
0x130|                     0b                        |       .        |                  opcode: "end" (0xb) 0x137-0x138 (1)
     |                                               |                |              y{}: 0x138-0x139 (1)
0x130|                        00                     |        .       |                n: 0 (valid) 0x138-0x139 (1)
     |                                               |                |                x[0:0]: 0x139-0x139 (0)
     |                                               |                |            [42]{}: seg 0x139-0x140 (7)
0x130|                           00                  |         .      |              tag: 0 (valid) 0x139-0x13a (1)
     |                                               |                |              e[0:2]: 0x13a-0x13d (3)
     |                                               |                |                [0]{}: in 0x13a-0x13c (2)
0x130|                              41               |          A     |                  opcode: "i32.const" (0x41) 0x13a-0x13b (1)
0x130|                                 00            |           .    |                  n: 0 (valid) 0x13b-0x13c (1)
     |                                               |                |                [1]{}: in 0x13c-0x13d (1)
0x130|                                    0b         |            .   |                  opcode: "end" (0xb) 0x13c-0x13d (1)
     |                                               |                |              y{}: 0x13d-0x140 (3)
0x130|                                       02      |             .  |                n: 2 (valid) 0x13d-0x13e (1)
     |                                               |                |                x[0:2]: 0x13e-0x140 (2)
0x130|                                          00   |              . |                  [0]: 0 y (valid) 0x13e-0x13f (1)
0x130|                                             00|               .|                  [1]: 0 y (valid) 0x13f-0x140 (1)
     |                                               |                |            [43]{}: seg 0x140-0x145 (5)
0x140|00                                             |.               |              tag: 0 (valid) 0x140-0x141 (1)
     |                                               |                |              e[0:2]: 0x141-0x144 (3)
     |                                               |                |                [0]{}: in 0x141-0x143 (2)
0x140|   41                                          | A              |                  opcode: "i32.const" (0x41) 0x141-0x142 (1)
0x140|      00                                       |  .             |                  n: 0 (valid) 0x142-0x143 (1)
     |                                               |                |                [1]{}: in 0x143-0x144 (1)
0x140|         0b                                    |   .            |                  opcode: "end" (0xb) 0x143-0x144 (1)
     |                                               |                |              y{}: 0x144-0x145 (1)
0x140|            00                                 |    .           |                n: 0 (valid) 0x144-0x145 (1)
     |                                               |                |                x[0:0]: 0x145-0x145 (0)
     |                                               |                |            [44]{}: seg 0x145-0x14c (7)
0x140|               00                              |     .          |              tag: 0 (valid) 0x145-0x146 (1)
     |                                               |                |              e[0:2]: 0x146-0x149 (3)
     |                                               |                |                [0]{}: in 0x146-0x148 (2)
0x140|                  41                           |      A         |                  opcode: "i32.const" (0x41) 0x146-0x147 (1)
0x140|                     00                        |       .        |                  n: 0 (valid) 0x147-0x148 (1)
     |                                               |                |                [1]{}: in 0x148-0x149 (1)
0x140|                        0b                     |        .       |                  opcode: "end" (0xb) 0x148-0x149 (1)
     |                                               |                |              y{}: 0x149-0x14c (3)
0x140|                           02                  |         .      |                n: 2 (valid) 0x149-0x14a (1)
     |                                               |                |                x[0:2]: 0x14a-0x14c (2)
0x140|                              00               |          .     |                  [0]: 0 y (valid) 0x14a-0x14b (1)
0x140|                                 00            |           .    |                  [1]: 0 y (valid) 0x14b-0x14c (1)
     |                                               |                |            [45]{}: seg 0x14c-0x151 (5)
0x140|                                    00         |            .   |              tag: 0 (valid) 0x14c-0x14d (1)
     |                                               |                |              e[0:2]: 0x14d-0x150 (3)
     |                                               |                |                [0]{}: in 0x14d-0x14f (2)
0x140|                                       41      |             A  |                  opcode: "i32.const" (0x41) 0x14d-0x14e (1)
0x140|                                          00   |              . |                  n: 0 (valid) 0x14e-0x14f (1)
     |                                               |                |                [1]{}: in 0x14f-0x150 (1)
0x140|                                             0b|               .|                  opcode: "end" (0xb) 0x14f-0x150 (1)
     |                                               |                |              y{}: 0x150-0x151 (1)
0x150|00                                             |.               |                n: 0 (valid) 0x150-0x151 (1)
     |                                               |                |                x[0:0]: 0x151-0x151 (0)
     |                                               |                |            [46]{}: seg 0x151-0x15c (11)
0x150|   04                                          | .              |              tag: 4 (valid) 0x151-0x152 (1)
     |                                               |                |              e[0:2]: 0x152-0x155 (3)
     |                                               |                |                [0]{}: in 0x152-0x154 (2)
0x150|      41                                       |  A             |                  opcode: "i32.const" (0x41) 0x152-0x153 (1)
0x150|         00                                    |   .            |                  n: 0 (valid) 0x153-0x154 (1)
     |                                               |                |                [1]{}: in 0x154-0x155 (1)
0x150|            0b                                 |    .           |                  opcode: "end" (0xb) 0x154-0x155 (1)
     |                                               |                |              el{}: 0x155-0x15c (7)
0x150|               02                              |     .          |                n: 2 (valid) 0x155-0x156 (1)
     |                                               |                |                x[0:2]: 0x156-0x15c (6)
     |                                               |                |                  [0][0:2]: el 0x156-0x159 (3)
     |                                               |                |                    [0]{}: in 0x156-0x158 (2)
0x150|                  d2                           |      .         |                      opcode: "ref.func" (0xd2) 0x156-0x157 (1)
0x150|                     00                        |       .        |                      x: 0 (valid) 0x157-0x158 (1)
     |                                               |                |                    [1]{}: in 0x158-0x159 (1)
0x150|                        0b                     |        .       |                      opcode: "end" (0xb) 0x158-0x159 (1)
     |                                               |                |                  [1][0:2]: el 0x159-0x15c (3)
     |                                               |                |                    [0]{}: in 0x159-0x15b (2)
0x150|                           d0                  |         .      |                      opcode: "ref.null" (0xd0) 0x159-0x15a (1)
0x150|                              70               |          p     |                      t: "funcref" (112) 0x15a-0x15b (1)
     |                                               |                |                    [1]{}: in 0x15b-0x15c (1)
0x150|                                 0b            |           .    |                      opcode: "end" (0xb) 0x15b-0x15c (1)
     |                                               |                |            [47]{}: seg 0x15c-0x163 (7)
0x150|                                    00         |            .   |              tag: 0 (valid) 0x15c-0x15d (1)
     |                                               |                |              e[0:2]: 0x15d-0x160 (3)
     |                                               |                |                [0]{}: in 0x15d-0x15f (2)
0x150|                                       41      |             A  |                  opcode: "i32.const" (0x41) 0x15d-0x15e (1)
0x150|                                          00   |              . |                  n: 0 (valid) 0x15e-0x15f (1)
     |                                               |                |                [1]{}: in 0x15f-0x160 (1)
0x150|                                             0b|               .|                  opcode: "end" (0xb) 0x15f-0x160 (1)
     |                                               |                |              y{}: 0x160-0x163 (3)
0x160|02                                             |.               |                n: 2 (valid) 0x160-0x161 (1)
     |                                               |                |                x[0:2]: 0x161-0x163 (2)
0x160|   00                                          | .              |                  [0]: 0 y (valid) 0x161-0x162 (1)
0x160|      00                                       |  .             |                  [1]: 0 y (valid) 0x162-0x163 (1)
     |                                               |                |            [48]{}: seg 0x163-0x16a (7)
0x160|         00                                    |   .            |              tag: 0 (valid) 0x163-0x164 (1)
     |                                               |                |              e[0:2]: 0x164-0x167 (3)
     |                                               |                |                [0]{}: in 0x164-0x166 (2)
0x160|            41                                 |    A           |                  opcode: "i32.const" (0x41) 0x164-0x165 (1)
0x160|               00                              |     .          |                  n: 0 (valid) 0x165-0x166 (1)
     |                                               |                |                [1]{}: in 0x166-0x167 (1)
0x160|                  0b                           |      .         |                  opcode: "end" (0xb) 0x166-0x167 (1)
     |                                               |                |              y{}: 0x167-0x16a (3)
0x160|                     02                        |       .        |                n: 2 (valid) 0x167-0x168 (1)
     |                                               |                |                x[0:2]: 0x168-0x16a (2)
0x160|                        00                     |        .       |                  [0]: 0 y (valid) 0x168-0x169 (1)
0x160|                           00                  |         .      |                  [1]: 0 y (valid) 0x169-0x16a (1)
     |                                               |                |            [49]{}: seg 0x16a-0x16f (5)
0x160|                              00               |          .     |              tag: 0 (valid) 0x16a-0x16b (1)
     |                                               |                |              e[0:2]: 0x16b-0x16e (3)
     |                                               |                |                [0]{}: in 0x16b-0x16d (2)
0x160|                                 41            |           A    |                  opcode: "i32.const" (0x41) 0x16b-0x16c (1)
0x160|                                    00         |            .   |                  n: 0 (valid) 0x16c-0x16d (1)
     |                                               |                |                [1]{}: in 0x16d-0x16e (1)
0x160|                                       0b      |             .  |                  opcode: "end" (0xb) 0x16d-0x16e (1)
     |                                               |                |              y{}: 0x16e-0x16f (1)
0x160|                                          00   |              . |                n: 0 (valid) 0x16e-0x16f (1)
     |                                               |                |                x[0:0]: 0x16f-0x16f (0)
     |                                               |                |            [50]{}: seg 0x16f-0x17a (11)
0x160|                                             04|               .|              tag: 4 (valid) 0x16f-0x170 (1)
     |                                               |                |              e[0:2]: 0x170-0x173 (3)
     |                                               |                |                [0]{}: in 0x170-0x172 (2)
0x170|41                                             |A               |                  opcode: "i32.const" (0x41) 0x170-0x171 (1)
0x170|   00                                          | .              |                  n: 0 (valid) 0x171-0x172 (1)
     |                                               |                |                [1]{}: in 0x172-0x173 (1)
0x170|      0b                                       |  .             |                  opcode: "end" (0xb) 0x172-0x173 (1)
     |                                               |                |              el{}: 0x173-0x17a (7)
0x170|         02                                    |   .            |                n: 2 (valid) 0x173-0x174 (1)
     |                                               |                |                x[0:2]: 0x174-0x17a (6)
     |                                               |                |                  [0][0:2]: el 0x174-0x177 (3)
     |                                               |                |                    [0]{}: in 0x174-0x176 (2)
0x170|            d2                                 |    .           |                      opcode: "ref.func" (0xd2) 0x174-0x175 (1)
0x170|               00                              |     .          |                      x: 0 (valid) 0x175-0x176 (1)
     |                                               |                |                    [1]{}: in 0x176-0x177 (1)
0x170|                  0b                           |      .         |                      opcode: "end" (0xb) 0x176-0x177 (1)
     |                                               |                |                  [1][0:2]: el 0x177-0x17a (3)
     |                                               |                |                    [0]{}: in 0x177-0x179 (2)
0x170|                     d0                        |       .        |                      opcode: "ref.null" (0xd0) 0x177-0x178 (1)
0x170|                        70                     |        p       |                      t: "funcref" (112) 0x178-0x179 (1)
     |                                               |                |                    [1]{}: in 0x179-0x17a (1)
0x170|                           0b                  |         .      |                      opcode: "end" (0xb) 0x179-0x17a (1)
     |                                               |                |            [51]{}: seg 0x17a-0x181 (7)
0x170|                              00               |          .     |              tag: 0 (valid) 0x17a-0x17b (1)
     |                                               |                |              e[0:2]: 0x17b-0x17e (3)
     |                                               |                |                [0]{}: in 0x17b-0x17d (2)
0x170|                                 41            |           A    |                  opcode: "i32.const" (0x41) 0x17b-0x17c (1)
0x170|                                    00         |            .   |                  n: 0 (valid) 0x17c-0x17d (1)
     |                                               |                |                [1]{}: in 0x17d-0x17e (1)
0x170|                                       0b      |             .  |                  opcode: "end" (0xb) 0x17d-0x17e (1)
     |                                               |                |              y{}: 0x17e-0x181 (3)
0x170|                                          02   |              . |                n: 2 (valid) 0x17e-0x17f (1)
     |                                               |                |                x[0:2]: 0x17f-0x181 (2)
0x170|                                             00|               .|                  [0]: 0 y (valid) 0x17f-0x180 (1)
0x180|00                                             |.               |                  [1]: 0 y (valid) 0x180-0x181 (1)
     |                                               |                |            [52]{}: seg 0x181-0x188 (7)
0x180|   00                                          | .              |              tag: 0 (valid) 0x181-0x182 (1)
     |                                               |                |              e[0:2]: 0x182-0x185 (3)
     |                                               |                |                [0]{}: in 0x182-0x184 (2)
0x180|      41                                       |  A             |                  opcode: "i32.const" (0x41) 0x182-0x183 (1)
0x180|         00                                    |   .            |                  n: 0 (valid) 0x183-0x184 (1)
     |                                               |                |                [1]{}: in 0x184-0x185 (1)
0x180|            0b                                 |    .           |                  opcode: "end" (0xb) 0x184-0x185 (1)
     |                                               |                |              y{}: 0x185-0x188 (3)
0x180|               02                              |     .          |                n: 2 (valid) 0x185-0x186 (1)
     |                                               |                |                x[0:2]: 0x186-0x188 (2)
0x180|                  00                           |      .         |                  [0]: 0 y (valid) 0x186-0x187 (1)
0x180|                     00                        |       .        |                  [1]: 0 y (valid) 0x187-0x188 (1)
     |                                               |                |            [53]{}: seg 0x188-0x18b (3)
0x180|                        03                     |        .       |              tag: 3 (valid) 0x188-0x189 (1)
0x180|                           00                  |         .      |              et: "funcref" (0) (valid) 0x189-0x18a (1)
     |                                               |                |              y{}: 0x18a-0x18b (1)
0x180|                              00               |          .     |                n: 0 (valid) 0x18a-0x18b (1)
     |                                               |                |                x[0:0]: 0x18b-0x18b (0)
     |                                               |                |            [54]{}: seg 0x18b-0x19a (15)
0x180|                                 07            |           .    |              tag: 7 (valid) 0x18b-0x18c (1)
0x180|                                    70         |            p   |              et: "funcref" (112) 0x18c-0x18d (1)
     |                                               |                |              el{}: 0x18d-0x19a (13)
0x180|                                       04      |             .  |                n: 4 (valid) 0x18d-0x18e (1)
     |                                               |                |                x[0:4]: 0x18e-0x19a (12)
     |                                               |                |                  [0][0:2]: el 0x18e-0x191 (3)
     |                                               |                |                    [0]{}: in 0x18e-0x190 (2)
0x180|                                          d2   |              . |                      opcode: "ref.func" (0xd2) 0x18e-0x18f (1)
0x180|                                             00|               .|                      x: 0 (valid) 0x18f-0x190 (1)
     |                                               |                |                    [1]{}: in 0x190-0x191 (1)
0x190|0b                                             |.               |                      opcode: "end" (0xb) 0x190-0x191 (1)
     |                                               |                |                  [1][0:2]: el 0x191-0x194 (3)
     |                                               |                |                    [0]{}: in 0x191-0x193 (2)
0x190|   d2                                          | .              |                      opcode: "ref.func" (0xd2) 0x191-0x192 (1)
0x190|      00                                       |  .             |                      x: 0 (valid) 0x192-0x193 (1)
     |                                               |                |                    [1]{}: in 0x193-0x194 (1)
0x190|         0b                                    |   .            |                      opcode: "end" (0xb) 0x193-0x194 (1)
     |                                               |                |                  [2][0:2]: el 0x194-0x197 (3)
     |                                               |                |                    [0]{}: in 0x194-0x196 (2)
0x190|            d0                                 |    .           |                      opcode: "ref.null" (0xd0) 0x194-0x195 (1)
0x190|               70                              |     p          |                      t: "funcref" (112) 0x195-0x196 (1)
     |                                               |                |                    [1]{}: in 0x196-0x197 (1)
0x190|                  0b                           |      .         |                      opcode: "end" (0xb) 0x196-0x197 (1)
     |                                               |                |                  [3][0:2]: el 0x197-0x19a (3)
     |                                               |                |                    [0]{}: in 0x197-0x199 (2)
0x190|                     d2                        |       .        |                      opcode: "ref.func" (0xd2) 0x197-0x198 (1)
0x190|                        01                     |        .       |                      x: 1 (valid) 0x198-0x199 (1)
     |                                               |                |                    [1]{}: in 0x199-0x19a (1)
0x190|                           0b                  |         .      |                      opcode: "end" (0xb) 0x199-0x19a (1)
     |                                               |                |            [55]{}: seg 0x19a-0x19d (3)
0x190|                              03               |          .     |              tag: 3 (valid) 0x19a-0x19b (1)
0x190|                                 00            |           .    |              et: "funcref" (0) (valid) 0x19b-0x19c (1)
     |                                               |                |              y{}: 0x19c-0x19d (1)
0x190|                                    00         |            .   |                n: 0 (valid) 0x19c-0x19d (1)
     |                                               |                |                x[0:0]: 0x19d-0x19d (0)
     |                                               |                |            [56]{}: seg 0x19d-0x1a4 (7)
0x190|                                       03      |             .  |              tag: 3 (valid) 0x19d-0x19e (1)
0x190|                                          00   |              . |              et: "funcref" (0) (valid) 0x19e-0x19f (1)
     |                                               |                |              y{}: 0x19f-0x1a4 (5)
0x190|                                             04|               .|                n: 4 (valid) 0x19f-0x1a0 (1)
     |                                               |                |                x[0:4]: 0x1a0-0x1a4 (4)
0x1a0|00                                             |.               |                  [0]: 0 y (valid) 0x1a0-0x1a1 (1)
0x1a0|   00                                          | .              |                  [1]: 0 y (valid) 0x1a1-0x1a2 (1)
0x1a0|      01                                       |  .             |                  [2]: 1 y (valid) 0x1a2-0x1a3 (1)
0x1a0|         01                                    |   .            |                  [3]: 1 y (valid) 0x1a3-0x1a4 (1)
     |                                               |                |            [57]{}: seg 0x1a4-0x1a7 (3)
0x1a0|            03                                 |    .           |              tag: 3 (valid) 0x1a4-0x1a5 (1)
0x1a0|               00                              |     .          |              et: "funcref" (0) (valid) 0x1a5-0x1a6 (1)
     |                                               |                |              y{}: 0x1a6-0x1a7 (1)
0x1a0|                  00                           |      .         |                n: 0 (valid) 0x1a6-0x1a7 (1)
     |                                               |                |                x[0:0]: 0x1a7-0x1a7 (0)
     |                                               |                |            [58]{}: seg 0x1a7-0x1b6 (15)
0x1a0|                     07                        |       .        |              tag: 7 (valid) 0x1a7-0x1a8 (1)
0x1a0|                        70                     |        p       |              et: "funcref" (112) 0x1a8-0x1a9 (1)
     |                                               |                |              el{}: 0x1a9-0x1b6 (13)
0x1a0|                           04                  |         .      |                n: 4 (valid) 0x1a9-0x1aa (1)
     |                                               |                |                x[0:4]: 0x1aa-0x1b6 (12)
     |                                               |                |                  [0][0:2]: el 0x1aa-0x1ad (3)
     |                                               |                |                    [0]{}: in 0x1aa-0x1ac (2)
0x1a0|                              d2               |          .     |                      opcode: "ref.func" (0xd2) 0x1aa-0x1ab (1)
0x1a0|                                 00            |           .    |                      x: 0 (valid) 0x1ab-0x1ac (1)
     |                                               |                |                    [1]{}: in 0x1ac-0x1ad (1)
0x1a0|                                    0b         |            .   |                      opcode: "end" (0xb) 0x1ac-0x1ad (1)
     |                                               |                |                  [1][0:2]: el 0x1ad-0x1b0 (3)
     |                                               |                |                    [0]{}: in 0x1ad-0x1af (2)
0x1a0|                                       d2      |             .  |                      opcode: "ref.func" (0xd2) 0x1ad-0x1ae (1)
0x1a0|                                          00   |              . |                      x: 0 (valid) 0x1ae-0x1af (1)
     |                                               |                |                    [1]{}: in 0x1af-0x1b0 (1)
0x1a0|                                             0b|               .|                      opcode: "end" (0xb) 0x1af-0x1b0 (1)
     |                                               |                |                  [2][0:2]: el 0x1b0-0x1b3 (3)
     |                                               |                |                    [0]{}: in 0x1b0-0x1b2 (2)
0x1b0|d0                                             |.               |                      opcode: "ref.null" (0xd0) 0x1b0-0x1b1 (1)
0x1b0|   70                                          | p              |                      t: "funcref" (112) 0x1b1-0x1b2 (1)
     |                                               |                |                    [1]{}: in 0x1b2-0x1b3 (1)
0x1b0|      0b                                       |  .             |                      opcode: "end" (0xb) 0x1b2-0x1b3 (1)
     |                                               |                |                  [3][0:2]: el 0x1b3-0x1b6 (3)
     |                                               |                |                    [0]{}: in 0x1b3-0x1b5 (2)
0x1b0|         d2                                    |   .            |                      opcode: "ref.func" (0xd2) 0x1b3-0x1b4 (1)
0x1b0|            01                                 |    .           |                      x: 1 (valid) 0x1b4-0x1b5 (1)
     |                                               |                |                    [1]{}: in 0x1b5-0x1b6 (1)
0x1b0|               0b                              |     .          |                      opcode: "end" (0xb) 0x1b5-0x1b6 (1)
     |                                               |                |            [59]{}: seg 0x1b6-0x1b9 (3)
0x1b0|                  03                           |      .         |              tag: 3 (valid) 0x1b6-0x1b7 (1)
0x1b0|                     00                        |       .        |              et: "funcref" (0) (valid) 0x1b7-0x1b8 (1)
     |                                               |                |              y{}: 0x1b8-0x1b9 (1)
0x1b0|                        00                     |        .       |                n: 0 (valid) 0x1b8-0x1b9 (1)
     |                                               |                |                x[0:0]: 0x1b9-0x1b9 (0)
     |                                               |                |            [60]{}: seg 0x1b9-0x1c0 (7)
0x1b0|                           03                  |         .      |              tag: 3 (valid) 0x1b9-0x1ba (1)
0x1b0|                              00               |          .     |              et: "funcref" (0) (valid) 0x1ba-0x1bb (1)
     |                                               |                |              y{}: 0x1bb-0x1c0 (5)
0x1b0|                                 04            |           .    |                n: 4 (valid) 0x1bb-0x1bc (1)
     |                                               |                |                x[0:4]: 0x1bc-0x1c0 (4)
0x1b0|                                    00         |            .   |                  [0]: 0 y (valid) 0x1bc-0x1bd (1)
0x1b0|                                       00      |             .  |                  [1]: 0 y (valid) 0x1bd-0x1be (1)
0x1b0|                                          01   |              . |                  [2]: 1 y (valid) 0x1be-0x1bf (1)
0x1b0|                                             01|               .|                  [3]: 1 y (valid) 0x1bf-0x1c0 (1)
     |                                               |                |    [4]{}: section 0x1c0-0x1c9 (9)
0x1c0|0a                                             |.               |      id: "code_section" (10) 0x1c0-0x1c1 (1)
0x1c0|   07                                          | .              |      size: 7 (valid) 0x1c1-0x1c2 (1)
     |                                               |                |      content{}: 0x1c2-0x1c9 (7)
     |                                               |                |        code{}: 0x1c2-0x1c9 (7)
0x1c0|      02                                       |  .             |          n: 2 (valid) 0x1c2-0x1c3 (1)
     |                                               |                |          x[0:2]: 0x1c3-0x1c9 (6)
     |                                               |                |            [0]{}: code 0x1c3-0x1c6 (3)
0x1c0|         02                                    |   .            |              size: 2 (valid) 0x1c3-0x1c4 (1)
     |                                               |                |              code{}: 0x1c4-0x1c6 (2)
     |                                               |                |                t{}: 0x1c4-0x1c5 (1)
0x1c0|            00                                 |    .           |                  n: 0 (valid) 0x1c4-0x1c5 (1)
     |                                               |                |                  x[0:0]: 0x1c5-0x1c5 (0)
     |                                               |                |                e[0:1]: 0x1c5-0x1c6 (1)
     |                                               |                |                  [0]{}: in 0x1c5-0x1c6 (1)
0x1c0|               0b                              |     .          |                    opcode: "end" (0xb) 0x1c5-0x1c6 (1)
     |                                               |                |            [1]{}: code 0x1c6-0x1c9 (3)
0x1c0|                  02                           |      .         |              size: 2 (valid) 0x1c6-0x1c7 (1)
     |                                               |                |              code{}: 0x1c7-0x1c9 (2)
     |                                               |                |                t{}: 0x1c7-0x1c8 (1)
0x1c0|                     00                        |       .        |                  n: 0 (valid) 0x1c7-0x1c8 (1)
     |                                               |                |                  x[0:0]: 0x1c8-0x1c8 (0)
     |                                               |                |                e[0:1]: 0x1c8-0x1c9 (1)
     |                                               |                |                  [0]{}: in 0x1c8-0x1c9 (1)
0x1c0|                        0b|                    |        .|      |                    opcode: "end" (0xb) 0x1c8-0x1c9 (1)
