$ fq -d wasm dv elem-4.wasm
    |00 01 02 03 04 05 06 07 08 09 0a 0b 0c 0d 0e 0f|0123456789abcdef|.{}: elem-4.wasm (wasm) 0x0-0x3f (63)
0x00|00 61 73 6d                                    |.asm            |  magic: raw bits (valid) 0x0-0x4 (4)
0x00|            01 00 00 00                        |    ....        |  version: 1 0x4-0x8 (4)
    |                                               |                |  sections[0:5]: 0x8-0x3f (55)
    |                                               |                |    [0]{}: section 0x8-0xe (6)
0x00|                        01                     |        .       |      id: "type_section" (1) 0x8-0x9 (1)
0x00|                           04                  |         .      |      size: 4 (valid) 0x9-0xa (1)
    |                                               |                |      content{}: 0xa-0xe (4)
    |                                               |                |        ft{}: 0xa-0xe (4)
0x00|                              01               |          .     |          n: 1 (valid) 0xa-0xb (1)
    |                                               |                |          x[0:1]: 0xb-0xe (3)
    |                                               |                |            [0]{}: ft 0xb-0xe (3)
0x00|                                 60            |           `    |              tag: 0x60 (valid) 0xb-0xc (1)
    |                                               |                |              rt1{}: 0xc-0xd (1)
0x00|                                    00         |            .   |                n: 0 (valid) 0xc-0xd (1)
    |                                               |                |                x[0:0]: 0xd-0xd (0)
    |                                               |                |              rt2{}: 0xd-0xe (1)
0x00|                                       00      |             .  |                n: 0 (valid) 0xd-0xe (1)
    |                                               |                |                x[0:0]: 0xe-0xe (0)
    |                                               |                |    [1]{}: section 0xe-0x12 (4)
0x00|                                          03   |              . |      id: "function_section" (3) 0xe-0xf (1)
0x00|                                             02|               .|      size: 2 (valid) 0xf-0x10 (1)
    |                                               |                |      content{}: 0x10-0x12 (2)
    |                                               |                |        x{}: 0x10-0x12 (2)
0x10|01                                             |.               |          n: 1 (valid) 0x10-0x11 (1)
    |                                               |                |          x[0:1]: 0x11-0x12 (1)
0x10|   00                                          | .              |            [0]: 0 x (valid) 0x11-0x12 (1)
    |                                               |                |    [2]{}: section 0x12-0x18 (6)
0x10|      04                                       |  .             |      id: "table_section" (4) 0x12-0x13 (1)
0x10|         04                                    |   .            |      size: 4 (valid) 0x13-0x14 (1)
    |                                               |                |      content{}: 0x14-0x18 (4)
    |                                               |                |        tab{}: 0x14-0x18 (4)
0x10|            01                                 |    .           |          n: 1 (valid) 0x14-0x15 (1)
    |                                               |                |          x[0:1]: 0x15-0x18 (3)
    |                                               |                |            [0]{}: tab 0x15-0x18 (3)
0x10|               70                              |     p          |              et: "funcref" (112) 0x15-0x16 (1)
    |                                               |                |              lim{}: 0x16-0x18 (2)
0x10|                  00                           |      .         |                tag: 0x0 0x16-0x17 (1)
0x10|                     0a                        |       .        |                n: 10 (valid) 0x17-0x18 (1)
    |                                               |                |    [3]{}: section 0x18-0x39 (33)
0x10|                        09                     |        .       |      id: "element_section" (9) 0x18-0x19 (1)
0x10|                           1f                  |         .      |      size: 31 (valid) 0x19-0x1a (1)
    |                                               |                |      element{}: 0x1a-0x39 (31)
    |                                               |                |        seg{}: 0x1a-0x39 (31)
0x10|                              05               |          .     |          n: 5 (valid) 0x1a-0x1b (1)
    |                                               |                |          x[0:5]: 0x1b-0x39 (30)
    |                                               |                |            [0]{}: seg 0x1b-0x21 (6)
0x10|                                 00            |           .    |              tag: 0 (valid) 0x1b-0x1c (1)
    |                                               |                |              e[0:2]: 0x1c-0x1f (3)
    |                                               |                |                [0]{}: in 0x1c-0x1e (2)
0x10|                                    41         |            A   |                  opcode: "i32.const" (0x41) 0x1c-0x1d (1)
0x10|                                       00      |             .  |                  n: 0 (valid) 0x1d-0x1e (1)
    |                                               |                |                [1]{}: in 0x1e-0x1f (1)
0x10|                                          0b   |              . |                  opcode: "end" (0xb) 0x1e-0x1f (1)
    |                                               |                |              y{}: 0x1f-0x21 (2)
0x10|                                             01|               .|                n: 1 (valid) 0x1f-0x20 (1)
    |                                               |                |                x[0:1]: 0x20-0x21 (1)
0x20|00                                             |.               |                  [0]: 0 y (valid) 0x20-0x21 (1)
    |                                               |                |            [1]{}: seg 0x21-0x27 (6)
0x20|   00                                          | .              |              tag: 0 (valid) 0x21-0x22 (1)
    |                                               |                |              e[0:2]: 0x22-0x25 (3)
    |                                               |                |                [0]{}: in 0x22-0x24 (2)
0x20|      41                                       |  A             |                  opcode: "i32.const" (0x41) 0x22-0x23 (1)
0x20|         03                                    |   .            |                  n: 3 (valid) 0x23-0x24 (1)
    |                                               |                |                [1]{}: in 0x24-0x25 (1)
0x20|            0b                                 |    .           |                  opcode: "end" (0xb) 0x24-0x25 (1)
    |                                               |                |              y{}: 0x25-0x27 (2)
0x20|               01                              |     .          |                n: 1 (valid) 0x25-0x26 (1)
    |                                               |                |                x[0:1]: 0x26-0x27 (1)
0x20|                  00                           |      .         |                  [0]: 0 y (valid) 0x26-0x27 (1)
    |                                               |                |            [2]{}: seg 0x27-0x2d (6)
0x20|                     00                        |       .        |              tag: 0 (valid) 0x27-0x28 (1)
    |                                               |                |              e[0:2]: 0x28-0x2b (3)
    |                                               |                |                [0]{}: in 0x28-0x2a (2)
0x20|                        41                     |        A       |                  opcode: "i32.const" (0x41) 0x28-0x29 (1)
0x20|                           07                  |         .      |                  n: 7 (valid) 0x29-0x2a (1)
    |                                               |                |                [1]{}: in 0x2a-0x2b (1)
0x20|                              0b               |          .     |                  opcode: "end" (0xb) 0x2a-0x2b (1)
    |                                               |                |              y{}: 0x2b-0x2d (2)
0x20|                                 01            |           .    |                n: 1 (valid) 0x2b-0x2c (1)
    |                                               |                |                x[0:1]: 0x2c-0x2d (1)
0x20|                                    00         |            .   |                  [0]: 0 y (valid) 0x2c-0x2d (1)
    |                                               |                |            [3]{}: seg 0x2d-0x33 (6)
0x20|                                       00      |             .  |              tag: 0 (valid) 0x2d-0x2e (1)
    |                                               |                |              e[0:2]: 0x2e-0x31 (3)
    |                                               |                |                [0]{}: in 0x2e-0x30 (2)
0x20|                                          41   |              A |                  opcode: "i32.const" (0x41) 0x2e-0x2f (1)
0x20|                                             05|               .|                  n: 5 (valid) 0x2f-0x30 (1)
    |                                               |                |                [1]{}: in 0x30-0x31 (1)
0x30|0b                                             |.               |                  opcode: "end" (0xb) 0x30-0x31 (1)
    |                                               |                |              y{}: 0x31-0x33 (2)
0x30|   01                                          | .              |                n: 1 (valid) 0x31-0x32 (1)
    |                                               |                |                x[0:1]: 0x32-0x33 (1)
0x30|      00                                       |  .             |                  [0]: 0 y (valid) 0x32-0x33 (1)
    |                                               |                |            [4]{}: seg 0x33-0x39 (6)
0x30|         00                                    |   .            |              tag: 0 (valid) 0x33-0x34 (1)
    |                                               |                |              e[0:2]: 0x34-0x37 (3)
    |                                               |                |                [0]{}: in 0x34-0x36 (2)
0x30|            41                                 |    A           |                  opcode: "i32.const" (0x41) 0x34-0x35 (1)
0x30|               03                              |     .          |                  n: 3 (valid) 0x35-0x36 (1)
    |                                               |                |                [1]{}: in 0x36-0x37 (1)
0x30|                  0b                           |      .         |                  opcode: "end" (0xb) 0x36-0x37 (1)
    |                                               |                |              y{}: 0x37-0x39 (2)
0x30|                     01                        |       .        |                n: 1 (valid) 0x37-0x38 (1)
    |                                               |                |                x[0:1]: 0x38-0x39 (1)
0x30|                        00                     |        .       |                  [0]: 0 y (valid) 0x38-0x39 (1)
    |                                               |                |    [4]{}: section 0x39-0x3f (6)
0x30|                           0a                  |         .      |      id: "code_section" (10) 0x39-0x3a (1)
0x30|                              04               |          .     |      size: 4 (valid) 0x3a-0x3b (1)
    |                                               |                |      content{}: 0x3b-0x3f (4)
    |                                               |                |        code{}: 0x3b-0x3f (4)
0x30|                                 01            |           .    |          n: 1 (valid) 0x3b-0x3c (1)
    |                                               |                |          x[0:1]: 0x3c-0x3f (3)
    |                                               |                |            [0]{}: code 0x3c-0x3f (3)
0x30|                                    02         |            .   |              size: 2 (valid) 0x3c-0x3d (1)
    |                                               |                |              code{}: 0x3d-0x3f (2)
    |                                               |                |                t{}: 0x3d-0x3e (1)
0x30|                                       00      |             .  |                  n: 0 (valid) 0x3d-0x3e (1)
    |                                               |                |                  x[0:0]: 0x3e-0x3e (0)
    |                                               |                |                e[0:1]: 0x3e-0x3f (1)
    |                                               |                |                  [0]{}: in 0x3e-0x3f (1)
0x30|                                          0b|  |              .||                    opcode: "end" (0xb) 0x3e-0x3f (1)
