$ fq -d wasm dv elem-18.wasm
    |00 01 02 03 04 05 06 07 08 09 0a 0b 0c 0d 0e 0f|0123456789abcdef|.{}: elem-18.wasm (wasm) 0x0-0x38 (56)
0x00|00 61 73 6d                                    |.asm            |  magic: raw bits (valid) 0x0-0x4 (4)
0x00|            01 00 00 00                        |    ....        |  version: 1 0x4-0x8 (4)
    |                                               |                |  sections[0:5]: 0x8-0x38 (48)
    |                                               |                |    [0]{}: section 0x8-0xe (6)
0x00|                        01                     |        .       |      id: "type_section" (1) 0x8-0x9 (1)
0x00|                           04                  |         .      |      size: 4 (valid) 0x9-0xa (1)
    |                                               |                |      content{}: 0xa-0xe (4)
    |                                               |                |        ft{}: 0xa-0xe (4)
0x00|                              01               |          .     |          n: 1 (valid) 0xa-0xb (1)
    |                                               |                |          x[0:1]: 0xb-0xe (3)
    |                                               |                |            [0]{}: ft 0xb-0xe (3)
0x00|                                 60            |           `    |              tag: 0x60 (valid) 0xb-0xc (1)
    |                                               |                |              rt1{}: 0xc-0xd (1)
0x00|                                    00         |            .   |                n: 0 (valid) 0xc-0xd (1)
    |                                               |                |                x[0:0]: 0xd-0xd (0)
    |                                               |                |              rt2{}: 0xd-0xe (1)
0x00|                                       00      |             .  |                n: 0 (valid) 0xd-0xe (1)
    |                                               |                |                x[0:0]: 0xe-0xe (0)
    |                                               |                |    [1]{}: section 0xe-0x25 (23)
0x00|                                          02   |              . |      id: "import_section" (2) 0xe-0xf (1)
0x00|                                             15|               .|      size: 21 (valid) 0xf-0x10 (1)
    |                                               |                |      content{}: 0x10-0x25 (21)
    |                                               |                |        im{}: 0x10-0x25 (21)
0x10|01                                             |.               |          n: 1 (valid) 0x10-0x11 (1)
    |                                               |                |          x[0:1]: 0x11-0x25 (20)
    |                                               |                |            [0]{}: im 0x11-0x25 (20)
    |                                               |                |              mod{}: 0x11-0x1a (9)
0x10|   08                                          | .              |                n: 8 (valid) 0x11-0x12 (1)
0x10|      73 70 65 63 74 65 73 74                  |  spectest      |                b: "spectest" 0x12-0x1a (8)
    |                                               |                |              nm{}: 0x1a-0x20 (6)
0x10|                              05               |          .     |                n: 5 (valid) 0x1a-0x1b (1)
0x10|                                 74 61 62 6c 65|           table|                b: "table" 0x1b-0x20 (5)
    |                                               |                |              d{}: 0x20-0x25 (5)
0x20|01                                             |.               |                tag: "table" (0x1) 0x20-0x21 (1)
    |                                               |                |                tt{}: 0x21-0x25 (4)
0x20|   70                                          | p              |                  et: "funcref" (112) 0x21-0x22 (1)
    |                                               |                |                  lim{}: 0x22-0x25 (3)
0x20|      01                                       |  .             |                    tag: 0x1 0x22-0x23 (1)
0x20|         00                                    |   .            |                    n: 0 (valid) 0x23-0x24 (1)
0x20|            1e                                 |    .           |                    m: 30 (valid) 0x24-0x25 (1)
    |                                               |                |    [2]{}: section 0x25-0x29 (4)
0x20|               03                              |     .          |      id: "function_section" (3) 0x25-0x26 (1)
0x20|                  02                           |      .         |      size: 2 (valid) 0x26-0x27 (1)
    |                                               |                |      content{}: 0x27-0x29 (2)
    |                                               |                |        x{}: 0x27-0x29 (2)
0x20|                     01                        |       .        |          n: 1 (valid) 0x27-0x28 (1)
    |                                               |                |          x[0:1]: 0x28-0x29 (1)
0x20|                        00                     |        .       |            [0]: 0 x (valid) 0x28-0x29 (1)
    |                                               |                |    [3]{}: section 0x29-0x32 (9)
0x20|                           09                  |         .      |      id: "element_section" (9) 0x29-0x2a (1)
0x20|                              07               |          .     |      size: 7 (valid) 0x2a-0x2b (1)
    |                                               |                |      element{}: 0x2b-0x32 (7)
    |                                               |                |        seg{}: 0x2b-0x32 (7)
0x20|                                 01            |           .    |          n: 1 (valid) 0x2b-0x2c (1)
    |                                               |                |          x[0:1]: 0x2c-0x32 (6)
    |                                               |                |            [0]{}: seg 0x2c-0x32 (6)
0x20|                                    00         |            .   |              tag: 0 (valid) 0x2c-0x2d (1)
    |                                               |                |              e[0:2]: 0x2d-0x30 (3)
    |                                               |                |                [0]{}: in 0x2d-0x2f (2)
0x20|                                       41      |             A  |                  opcode: "i32.const" (0x41) 0x2d-0x2e (1)
0x20|                                          01   |              . |                  n: 1 (valid) 0x2e-0x2f (1)
    |                                               |                |                [1]{}: in 0x2f-0x30 (1)
0x20|                                             0b|               .|                  opcode: "end" (0xb) 0x2f-0x30 (1)
    |                                               |                |              y{}: 0x30-0x32 (2)
0x30|01                                             |.               |                n: 1 (valid) 0x30-0x31 (1)
    |                                               |                |                x[0:1]: 0x31-0x32 (1)
0x30|   00                                          | .              |                  [0]: 0 y (valid) 0x31-0x32 (1)
    |                                               |                |    [4]{}: section 0x32-0x38 (6)
0x30|      0a                                       |  .             |      id: "code_section" (10) 0x32-0x33 (1)
0x30|         04                                    |   .            |      size: 4 (valid) 0x33-0x34 (1)
    |                                               |                |      content{}: 0x34-0x38 (4)
    |                                               |                |        code{}: 0x34-0x38 (4)
0x30|            01                                 |    .           |          n: 1 (valid) 0x34-0x35 (1)
    |                                               |                |          x[0:1]: 0x35-0x38 (3)
    |                                               |                |            [0]{}: code 0x35-0x38 (3)
0x30|               02                              |     .          |              size: 2 (valid) 0x35-0x36 (1)
    |                                               |                |              code{}: 0x36-0x38 (2)
    |                                               |                |                t{}: 0x36-0x37 (1)
0x30|                  00                           |      .         |                  n: 0 (valid) 0x36-0x37 (1)
    |                                               |                |                  x[0:0]: 0x37-0x37 (0)
    |                                               |                |                e[0:1]: 0x37-0x38 (1)
    |                                               |                |                  [0]{}: in 0x37-0x38 (1)
0x30|                     0b|                       |       .|       |                    opcode: "end" (0xb) 0x37-0x38 (1)
