$ fq -d wasm dv elem-25.wasm
    |00 01 02 03 04 05 06 07 08 09 0a 0b 0c 0d 0e 0f|0123456789abcdef|.{}: elem-25.wasm (wasm) 0x0-0x4d.7 (78)
0x00|00 61 73 6d                                    |.asm            |  magic: raw bits (valid) 0x0-0x3.7 (4)
0x00|            01 00 00 00                        |    ....        |  version: 1 0x4-0x7.7 (4)
    |                                               |                |  sections[0:5]: 0x8-0x4d.7 (70)
    |                                               |                |    [0]{}: section 0x8-0xe.7 (7)
0x00|                        01                     |        .       |      id: "type section" (1) 0x8-0x8.7 (1)
0x00|                           05                  |         .      |      size: 5 0x9-0x9.7 (1)
    |                                               |                |      content{}: 0xa-0xe.7 (5)
    |                                               |                |        ft{}: 0xa-0xe.7 (5)
0x00|                              01               |          .     |          n: 1 0xa-0xa.7 (1)
    |                                               |                |          x[0:1]: 0xb-0xe.7 (4)
    |                                               |                |            [0]{}: ft 0xb-0xe.7 (4)
0x00|                                 60            |           `    |              tag: 0x60 (valid) 0xb-0xb.7 (1)
    |                                               |                |              rt1{}: 0xc-0xc.7 (1)
0x00|                                    00         |            .   |                n: 0 0xc-0xc.7 (1)
    |                                               |                |                x[0:0]: 0xd-NA (0)
    |                                               |                |              rt2{}: 0xd-0xe.7 (2)
0x00|                                       01      |             .  |                n: 1 0xd-0xd.7 (1)
    |                                               |                |                x[0:1]: 0xe-0xe.7 (1)
0x00|                                          7f   |              . |                  [0]: "i32" (0x7f) t 0xe-0xe.7 (1)
    |                                               |                |    [1]{}: section 0xf-0x2a.7 (28)
0x00|                                             02|               .|      id: "import section" (2) 0xf-0xf.7 (1)
0x10|1a                                             |.               |      size: 26 0x10-0x10.7 (1)
    |                                               |                |      content{}: 0x11-0x2a.7 (26)
    |                                               |                |        im{}: 0x11-0x2a.7 (26)
0x10|   01                                          | .              |          n: 1 0x11-0x11.7 (1)
    |                                               |                |          x[0:1]: 0x12-0x2a.7 (25)
    |                                               |                |            [0]{}: im 0x12-0x2a.7 (25)
    |                                               |                |              mod{}: 0x12-0x19.7 (8)
0x10|      07                                       |  .             |                n: 7 0x12-0x12.7 (1)
0x10|         6d 6f 64 75 6c 65 31                  |   module1      |                b: "module1" 0x13-0x19.7 (7)
    |                                               |                |              nm{}: 0x1a-0x26.7 (13)
0x10|                              0c               |          .     |                n: 12 0x1a-0x1a.7 (1)
0x10|                                 73 68 61 72 65|           share|                b: "shared-table" 0x1b-0x26.7 (12)
0x20|64 2d 74 61 62 6c 65                           |d-table         |
    |                                               |                |              d{}: 0x27-0x2a.7 (4)
0x20|                     01                        |       .        |                tag: "table" (0x1) 0x27-0x27.7 (1)
    |                                               |                |                tt{}: 0x28-0x2a.7 (3)
0x20|                        70                     |        p       |                  et: "funcref" (112) 0x28-0x28.7 (1)
    |                                               |                |                  lim{}: 0x29-0x2a.7 (2)
0x20|                           00                  |         .      |                    tag: 0x0 0x29-0x29.7 (1)
0x20|                              0a               |          .     |                    n: 10 0x2a-0x2a.7 (1)
    |                                               |                |    [2]{}: section 0x2b-0x2f.7 (5)
0x20|                                 03            |           .    |      id: "function section" (3) 0x2b-0x2b.7 (1)
0x20|                                    03         |            .   |      size: 3 0x2c-0x2c.7 (1)
    |                                               |                |      content{}: 0x2d-0x2f.7 (3)
    |                                               |                |        x{}: 0x2d-0x2f.7 (3)
0x20|                                       02      |             .  |          n: 2 0x2d-0x2d.7 (1)
    |                                               |                |          x[0:2]: 0x2e-0x2f.7 (2)
0x20|                                          00   |              . |            [0]: 0 x 0x2e-0x2e.7 (1)
0x20|                                             00|               .|            [1]: 0 x 0x2f-0x2f.7 (1)
    |                                               |                |    [3]{}: section 0x30-0x3e.7 (15)
0x30|09                                             |.               |      id: "element section" (9) 0x30-0x30.7 (1)
0x30|   0d                                          | .              |      size: 13 0x31-0x31.7 (1)
    |                                               |                |      element{}: 0x32-0x3e.7 (13)
    |                                               |                |        seg{}: 0x32-0x3e.7 (13)
0x30|      02                                       |  .             |          n: 2 0x32-0x32.7 (1)
    |                                               |                |          x[0:2]: 0x33-0x3e.7 (12)
    |                                               |                |            [0]{}: seg 0x33-0x38.7 (6)
0x30|         00                                    |   .            |              tag: 0 0x33-0x33.7 (1)
    |                                               |                |              e[0:2]: 0x34-0x36.7 (3)
    |                                               |                |                [0]{}: in 0x34-0x35.7 (2)
0x30|            41                                 |    A           |                  i32.const: 0x41 (valid) 0x34-0x34.7 (1)
0x30|               08                              |     .          |                  n: 8 0x35-0x35.7 (1)
    |                                               |                |                [1]{}: in 0x36-0x36.7 (1)
0x30|                  0b                           |      .         |                  end: 0xb (valid) 0x36-0x36.7 (1)
    |                                               |                |              y{}: 0x37-0x38.7 (2)
0x30|                     01                        |       .        |                n: 1 0x37-0x37.7 (1)
    |                                               |                |                x[0:1]: 0x38-0x38.7 (1)
0x30|                        00                     |        .       |                  [0]: 0 y 0x38-0x38.7 (1)
    |                                               |                |            [1]{}: seg 0x39-0x3e.7 (6)
0x30|                           00                  |         .      |              tag: 0 0x39-0x39.7 (1)
    |                                               |                |              e[0:2]: 0x3a-0x3c.7 (3)
    |                                               |                |                [0]{}: in 0x3a-0x3b.7 (2)
0x30|                              41               |          A     |                  i32.const: 0x41 (valid) 0x3a-0x3a.7 (1)
0x30|                                 09            |           .    |                  n: 9 0x3b-0x3b.7 (1)
    |                                               |                |                [1]{}: in 0x3c-0x3c.7 (1)
0x30|                                    0b         |            .   |                  end: 0xb (valid) 0x3c-0x3c.7 (1)
    |                                               |                |              y{}: 0x3d-0x3e.7 (2)
0x30|                                       01      |             .  |                n: 1 0x3d-0x3d.7 (1)
    |                                               |                |                x[0:1]: 0x3e-0x3e.7 (1)
0x30|                                          01   |              . |                  [0]: 1 y 0x3e-0x3e.7 (1)
    |                                               |                |    [4]{}: section 0x3f-0x4d.7 (15)
0x30|                                             0a|               .|      id: "code section" (10) 0x3f-0x3f.7 (1)
0x40|0d                                             |.               |      size: 13 0x40-0x40.7 (1)
    |                                               |                |      content{}: 0x41-0x4d.7 (13)
    |                                               |                |        code{}: 0x41-0x4d.7 (13)
0x40|   02                                          | .              |          n: 2 0x41-0x41.7 (1)
    |                                               |                |          x[0:2]: 0x42-0x4d.7 (12)
    |                                               |                |            [0]{}: code 0x42-0x47.7 (6)
0x40|      05                                       |  .             |              size: 5 0x42-0x42.7 (1)
    |                                               |                |              code{}: 0x43-0x47.7 (5)
    |                                               |                |                t{}: 0x43-0x43.7 (1)
0x40|         00                                    |   .            |                  n: 0 0x43-0x43.7 (1)
    |                                               |                |                  x[0:0]: 0x44-NA (0)
    |                                               |                |                e[0:2]: 0x44-0x47.7 (4)
    |                                               |                |                  [0]{}: in 0x44-0x46.7 (3)
0x40|            41                                 |    A           |                    i32.const: 0x41 (valid) 0x44-0x44.7 (1)
0x40|               c5 00                           |     ..         |                    n: 69 0x45-0x46.7 (2)
    |                                               |                |                  [1]{}: in 0x47-0x47.7 (1)
0x40|                     0b                        |       .        |                    end: 0xb (valid) 0x47-0x47.7 (1)
    |                                               |                |            [1]{}: code 0x48-0x4d.7 (6)
0x40|                        05                     |        .       |              size: 5 0x48-0x48.7 (1)
    |                                               |                |              code{}: 0x49-0x4d.7 (5)
    |                                               |                |                t{}: 0x49-0x49.7 (1)
0x40|                           00                  |         .      |                  n: 0 0x49-0x49.7 (1)
    |                                               |                |                  x[0:0]: 0x4a-NA (0)
    |                                               |                |                e[0:2]: 0x4a-0x4d.7 (4)
    |                                               |                |                  [0]{}: in 0x4a-0x4c.7 (3)
0x40|                              41               |          A     |                    i32.const: 0x41 (valid) 0x4a-0x4a.7 (1)
0x40|                                 c6 00         |           ..   |                    n: 70 0x4b-0x4c.7 (2)
    |                                               |                |                  [1]{}: in 0x4d-0x4d.7 (1)
0x40|                                       0b|     |             .| |                    end: 0xb (valid) 0x4d-0x4d.7 (1)
