$ fq -d wasm dv endianness-0.wasm
     |00 01 02 03 04 05 06 07 08 09 0a 0b 0c 0d 0e 0f|0123456789abcdef|.{}: endianness-0.wasm (wasm) 0x0-0x2aa (682)
0x000|00 61 73 6d                                    |.asm            |  magic: raw bits (valid) 0x0-0x4 (4)
0x000|            01 00 00 00                        |    ....        |  version: 1 0x4-0x8 (4)
     |                                               |                |  sections[0:5]: 0x8-0x2aa (674)
     |                                               |                |    [0]{}: section 0x8-0x2e (38)
0x000|                        01                     |        .       |      id: "type_section" (1) 0x8-0x9 (1)
0x000|                           24                  |         $      |      size: 36 (valid) 0x9-0xa (1)
     |                                               |                |      content{}: 0xa-0x2e (36)
     |                                               |                |        ft{}: 0xa-0x2e (36)
0x000|                              07               |          .     |          n: 7 (valid) 0xa-0xb (1)
     |                                               |                |          x[0:7]: 0xb-0x2e (35)
     |                                               |                |            [0]{}: ft 0xb-0x10 (5)
0x000|                                 60            |           `    |              tag: 0x60 (valid) 0xb-0xc (1)
     |                                               |                |              rt1{}: 0xc-0xf (3)
0x000|                                    02         |            .   |                n: 2 (valid) 0xc-0xd (1)
     |                                               |                |                x[0:2]: 0xd-0xf (2)
0x000|                                       7f      |             .  |                  [0]: "i32" (0x7f) t 0xd-0xe (1)
0x000|                                          7f   |              . |                  [1]: "i32" (0x7f) t 0xe-0xf (1)
     |                                               |                |              rt2{}: 0xf-0x10 (1)
0x000|                                             00|               .|                n: 0 (valid) 0xf-0x10 (1)
     |                                               |                |                x[0:0]: 0x10-0x10 (0)
     |                                               |                |            [1]{}: ft 0x10-0x15 (5)
0x010|60                                             |`               |              tag: 0x60 (valid) 0x10-0x11 (1)
     |                                               |                |              rt1{}: 0x11-0x14 (3)
0x010|   02                                          | .              |                n: 2 (valid) 0x11-0x12 (1)
     |                                               |                |                x[0:2]: 0x12-0x14 (2)
0x010|      7f                                       |  .             |                  [0]: "i32" (0x7f) t 0x12-0x13 (1)
0x010|         7e                                    |   ~            |                  [1]: "i64" (0x7e) t 0x13-0x14 (1)
     |                                               |                |              rt2{}: 0x14-0x15 (1)
0x010|            00                                 |    .           |                n: 0 (valid) 0x14-0x15 (1)
     |                                               |                |                x[0:0]: 0x15-0x15 (0)
     |                                               |                |            [2]{}: ft 0x15-0x1a (5)
0x010|               60                              |     `          |              tag: 0x60 (valid) 0x15-0x16 (1)
     |                                               |                |              rt1{}: 0x16-0x18 (2)
0x010|                  01                           |      .         |                n: 1 (valid) 0x16-0x17 (1)
     |                                               |                |                x[0:1]: 0x17-0x18 (1)
0x010|                     7f                        |       .        |                  [0]: "i32" (0x7f) t 0x17-0x18 (1)
     |                                               |                |              rt2{}: 0x18-0x1a (2)
0x010|                        01                     |        .       |                n: 1 (valid) 0x18-0x19 (1)
     |                                               |                |                x[0:1]: 0x19-0x1a (1)
0x010|                           7f                  |         .      |                  [0]: "i32" (0x7f) t 0x19-0x1a (1)
     |                                               |                |            [3]{}: ft 0x1a-0x1f (5)
0x010|                              60               |          `     |              tag: 0x60 (valid) 0x1a-0x1b (1)
     |                                               |                |              rt1{}: 0x1b-0x1d (2)
0x010|                                 01            |           .    |                n: 1 (valid) 0x1b-0x1c (1)
     |                                               |                |                x[0:1]: 0x1c-0x1d (1)
0x010|                                    7f         |            .   |                  [0]: "i32" (0x7f) t 0x1c-0x1d (1)
     |                                               |                |              rt2{}: 0x1d-0x1f (2)
0x010|                                       01      |             .  |                n: 1 (valid) 0x1d-0x1e (1)
     |                                               |                |                x[0:1]: 0x1e-0x1f (1)
0x010|                                          7e   |              ~ |                  [0]: "i64" (0x7e) t 0x1e-0x1f (1)
     |                                               |                |            [4]{}: ft 0x1f-0x24 (5)
0x010|                                             60|               `|              tag: 0x60 (valid) 0x1f-0x20 (1)
     |                                               |                |              rt1{}: 0x20-0x22 (2)
0x020|01                                             |.               |                n: 1 (valid) 0x20-0x21 (1)
     |                                               |                |                x[0:1]: 0x21-0x22 (1)
0x020|   7e                                          | ~              |                  [0]: "i64" (0x7e) t 0x21-0x22 (1)
     |                                               |                |              rt2{}: 0x22-0x24 (2)
0x020|      01                                       |  .             |                n: 1 (valid) 0x22-0x23 (1)
     |                                               |                |                x[0:1]: 0x23-0x24 (1)
0x020|         7e                                    |   ~            |                  [0]: "i64" (0x7e) t 0x23-0x24 (1)
     |                                               |                |            [5]{}: ft 0x24-0x29 (5)
0x020|            60                                 |    `           |              tag: 0x60 (valid) 0x24-0x25 (1)
     |                                               |                |              rt1{}: 0x25-0x27 (2)
0x020|               01                              |     .          |                n: 1 (valid) 0x25-0x26 (1)
     |                                               |                |                x[0:1]: 0x26-0x27 (1)
0x020|                  7d                           |      }         |                  [0]: "f32" (0x7d) t 0x26-0x27 (1)
     |                                               |                |              rt2{}: 0x27-0x29 (2)
0x020|                     01                        |       .        |                n: 1 (valid) 0x27-0x28 (1)
     |                                               |                |                x[0:1]: 0x28-0x29 (1)
0x020|                        7d                     |        }       |                  [0]: "f32" (0x7d) t 0x28-0x29 (1)
     |                                               |                |            [6]{}: ft 0x29-0x2e (5)
0x020|                           60                  |         `      |              tag: 0x60 (valid) 0x29-0x2a (1)
     |                                               |                |              rt1{}: 0x2a-0x2c (2)
0x020|                              01               |          .     |                n: 1 (valid) 0x2a-0x2b (1)
     |                                               |                |                x[0:1]: 0x2b-0x2c (1)
0x020|                                 7c            |           |    |                  [0]: "f64" (0x7c) t 0x2b-0x2c (1)
     |                                               |                |              rt2{}: 0x2c-0x2e (2)
0x020|                                    01         |            .   |                n: 1 (valid) 0x2c-0x2d (1)
     |                                               |                |                x[0:1]: 0x2d-0x2e (1)
0x020|                                       7c      |             |  |                  [0]: "f64" (0x7c) t 0x2d-0x2e (1)
     |                                               |                |    [1]{}: section 0x2e-0x48 (26)
0x020|                                          03   |              . |      id: "function_section" (3) 0x2e-0x2f (1)
0x020|                                             18|               .|      size: 24 (valid) 0x2f-0x30 (1)
     |                                               |                |      content{}: 0x30-0x48 (24)
     |                                               |                |        x{}: 0x30-0x48 (24)
0x030|17                                             |.               |          n: 23 (valid) 0x30-0x31 (1)
     |                                               |                |          x[0:23]: 0x31-0x48 (23)
0x030|   00                                          | .              |            [0]: 0 x (valid) 0x31-0x32 (1)
0x030|      00                                       |  .             |            [1]: 0 x (valid) 0x32-0x33 (1)
0x030|         01                                    |   .            |            [2]: 1 x (valid) 0x33-0x34 (1)
0x030|            02                                 |    .           |            [3]: 2 x (valid) 0x34-0x35 (1)
0x030|               02                              |     .          |            [4]: 2 x (valid) 0x35-0x36 (1)
0x030|                  03                           |      .         |            [5]: 3 x (valid) 0x36-0x37 (1)
0x030|                     02                        |       .        |            [6]: 2 x (valid) 0x37-0x38 (1)
0x030|                        02                     |        .       |            [7]: 2 x (valid) 0x38-0x39 (1)
0x030|                           02                  |         .      |            [8]: 2 x (valid) 0x39-0x3a (1)
0x030|                              04               |          .     |            [9]: 4 x (valid) 0x3a-0x3b (1)
0x030|                                 04            |           .    |            [10]: 4 x (valid) 0x3b-0x3c (1)
0x030|                                    04         |            .   |            [11]: 4 x (valid) 0x3c-0x3d (1)
0x030|                                       04      |             .  |            [12]: 4 x (valid) 0x3d-0x3e (1)
0x030|                                          04   |              . |            [13]: 4 x (valid) 0x3e-0x3f (1)
0x030|                                             05|               .|            [14]: 5 x (valid) 0x3f-0x40 (1)
0x040|06                                             |.               |            [15]: 6 x (valid) 0x40-0x41 (1)
0x040|   02                                          | .              |            [16]: 2 x (valid) 0x41-0x42 (1)
0x040|      02                                       |  .             |            [17]: 2 x (valid) 0x42-0x43 (1)
0x040|         04                                    |   .            |            [18]: 4 x (valid) 0x43-0x44 (1)
0x040|            04                                 |    .           |            [19]: 4 x (valid) 0x44-0x45 (1)
0x040|               04                              |     .          |            [20]: 4 x (valid) 0x45-0x46 (1)
0x040|                  05                           |      .         |            [21]: 5 x (valid) 0x46-0x47 (1)
0x040|                     06                        |       .        |            [22]: 6 x (valid) 0x47-0x48 (1)
     |                                               |                |    [2]{}: section 0x48-0x4d (5)
0x040|                        05                     |        .       |      id: "memory_section" (5) 0x48-0x49 (1)
0x040|                           03                  |         .      |      size: 3 (valid) 0x49-0x4a (1)
     |                                               |                |      content{}: 0x4a-0x4d (3)
     |                                               |                |        mem{}: 0x4a-0x4d (3)
0x040|                              01               |          .     |          n: 1 (valid) 0x4a-0x4b (1)
     |                                               |                |          x[0:1]: 0x4b-0x4d (2)
     |                                               |                |            [0]{}: mem 0x4b-0x4d (2)
     |                                               |                |              lim{}: 0x4b-0x4d (2)
0x040|                                 00            |           .    |                tag: 0x0 0x4b-0x4c (1)
0x040|                                    01         |            .   |                n: 1 (valid) 0x4c-0x4d (1)
     |                                               |                |    [3]{}: section 0x4d-0x131 (228)
0x040|                                       07      |             .  |      id: "export_section" (7) 0x4d-0x4e (1)
0x040|                                          e1 01|              ..|      size: 225 (valid) 0x4e-0x50 (2)
     |                                               |                |      content{}: 0x50-0x131 (225)
     |                                               |                |        ex{}: 0x50-0x131 (225)
0x050|11                                             |.               |          n: 17 (valid) 0x50-0x51 (1)
     |                                               |                |          x[0:17]: 0x51-0x131 (224)
     |                                               |                |            [0]{}: ex 0x51-0x60 (15)
     |                                               |                |              nm{}: 0x51-0x5e (13)
0x050|   0c                                          | .              |                n: 12 (valid) 0x51-0x52 (1)
0x050|      69 33 32 5f 6c 6f 61 64 31 36 5f 73      |  i32_load16_s  |                b: "i32_load16_s" 0x52-0x5e (12)
     |                                               |                |              d{}: 0x5e-0x60 (2)
0x050|                                          00   |              . |                tag: "funcidx" (0x0) 0x5e-0x5f (1)
0x050|                                             06|               .|                x: 6 (valid) 0x5f-0x60 (1)
     |                                               |                |            [1]{}: ex 0x60-0x6f (15)
     |                                               |                |              nm{}: 0x60-0x6d (13)
0x060|0c                                             |.               |                n: 12 (valid) 0x60-0x61 (1)
0x060|   69 33 32 5f 6c 6f 61 64 31 36 5f 75         | i32_load16_u   |                b: "i32_load16_u" 0x61-0x6d (12)
     |                                               |                |              d{}: 0x6d-0x6f (2)
0x060|                                       00      |             .  |                tag: "funcidx" (0x0) 0x6d-0x6e (1)
0x060|                                          07   |              . |                x: 7 (valid) 0x6e-0x6f (1)
     |                                               |                |            [2]{}: ex 0x6f-0x7a (11)
     |                                               |                |              nm{}: 0x6f-0x78 (9)
0x060|                                             08|               .|                n: 8 (valid) 0x6f-0x70 (1)
0x070|69 33 32 5f 6c 6f 61 64                        |i32_load        |                b: "i32_load" 0x70-0x78 (8)
     |                                               |                |              d{}: 0x78-0x7a (2)
0x070|                        00                     |        .       |                tag: "funcidx" (0x0) 0x78-0x79 (1)
0x070|                           08                  |         .      |                x: 8 (valid) 0x79-0x7a (1)
     |                                               |                |            [3]{}: ex 0x7a-0x89 (15)
     |                                               |                |              nm{}: 0x7a-0x87 (13)
0x070|                              0c               |          .     |                n: 12 (valid) 0x7a-0x7b (1)
0x070|                                 69 36 34 5f 6c|           i64_l|                b: "i64_load16_s" 0x7b-0x87 (12)
0x080|6f 61 64 31 36 5f 73                           |oad16_s         |
     |                                               |                |              d{}: 0x87-0x89 (2)
0x080|                     00                        |       .        |                tag: "funcidx" (0x0) 0x87-0x88 (1)
0x080|                        09                     |        .       |                x: 9 (valid) 0x88-0x89 (1)
     |                                               |                |            [4]{}: ex 0x89-0x98 (15)
     |                                               |                |              nm{}: 0x89-0x96 (13)
0x080|                           0c                  |         .      |                n: 12 (valid) 0x89-0x8a (1)
0x080|                              69 36 34 5f 6c 6f|          i64_lo|                b: "i64_load16_u" 0x8a-0x96 (12)
0x090|61 64 31 36 5f 75                              |ad16_u          |
     |                                               |                |              d{}: 0x96-0x98 (2)
0x090|                  00                           |      .         |                tag: "funcidx" (0x0) 0x96-0x97 (1)
0x090|                     0a                        |       .        |                x: 10 (valid) 0x97-0x98 (1)
     |                                               |                |            [5]{}: ex 0x98-0xa7 (15)
     |                                               |                |              nm{}: 0x98-0xa5 (13)
0x090|                        0c                     |        .       |                n: 12 (valid) 0x98-0x99 (1)
0x090|                           69 36 34 5f 6c 6f 61|         i64_loa|                b: "i64_load32_s" 0x99-0xa5 (12)
0x0a0|64 33 32 5f 73                                 |d32_s           |
     |                                               |                |              d{}: 0xa5-0xa7 (2)
0x0a0|               00                              |     .          |                tag: "funcidx" (0x0) 0xa5-0xa6 (1)
0x0a0|                  0b                           |      .         |                x: 11 (valid) 0xa6-0xa7 (1)
     |                                               |                |            [6]{}: ex 0xa7-0xb6 (15)
     |                                               |                |              nm{}: 0xa7-0xb4 (13)
0x0a0|                     0c                        |       .        |                n: 12 (valid) 0xa7-0xa8 (1)
0x0a0|                        69 36 34 5f 6c 6f 61 64|        i64_load|                b: "i64_load32_u" 0xa8-0xb4 (12)
0x0b0|33 32 5f 75                                    |32_u            |
     |                                               |                |              d{}: 0xb4-0xb6 (2)
0x0b0|            00                                 |    .           |                tag: "funcidx" (0x0) 0xb4-0xb5 (1)
0x0b0|               0c                              |     .          |                x: 12 (valid) 0xb5-0xb6 (1)
     |                                               |                |            [7]{}: ex 0xb6-0xc1 (11)
     |                                               |                |              nm{}: 0xb6-0xbf (9)
0x0b0|                  08                           |      .         |                n: 8 (valid) 0xb6-0xb7 (1)
0x0b0|                     69 36 34 5f 6c 6f 61 64   |       i64_load |                b: "i64_load" 0xb7-0xbf (8)
     |                                               |                |              d{}: 0xbf-0xc1 (2)
0x0b0|                                             00|               .|                tag: "funcidx" (0x0) 0xbf-0xc0 (1)
0x0c0|0d                                             |.               |                x: 13 (valid) 0xc0-0xc1 (1)
     |                                               |                |            [8]{}: ex 0xc1-0xcc (11)
     |                                               |                |              nm{}: 0xc1-0xca (9)
0x0c0|   08                                          | .              |                n: 8 (valid) 0xc1-0xc2 (1)
0x0c0|      66 33 32 5f 6c 6f 61 64                  |  f32_load      |                b: "f32_load" 0xc2-0xca (8)
     |                                               |                |              d{}: 0xca-0xcc (2)
0x0c0|                              00               |          .     |                tag: "funcidx" (0x0) 0xca-0xcb (1)
0x0c0|                                 0e            |           .    |                x: 14 (valid) 0xcb-0xcc (1)
     |                                               |                |            [9]{}: ex 0xcc-0xd7 (11)
     |                                               |                |              nm{}: 0xcc-0xd5 (9)
0x0c0|                                    08         |            .   |                n: 8 (valid) 0xcc-0xcd (1)
0x0c0|                                       66 36 34|             f64|                b: "f64_load" 0xcd-0xd5 (8)
0x0d0|5f 6c 6f 61 64                                 |_load           |
     |                                               |                |              d{}: 0xd5-0xd7 (2)
0x0d0|               00                              |     .          |                tag: "funcidx" (0x0) 0xd5-0xd6 (1)
0x0d0|                  0f                           |      .         |                x: 15 (valid) 0xd6-0xd7 (1)
     |                                               |                |            [10]{}: ex 0xd7-0xe5 (14)
     |                                               |                |              nm{}: 0xd7-0xe3 (12)
0x0d0|                     0b                        |       .        |                n: 11 (valid) 0xd7-0xd8 (1)
0x0d0|                        69 33 32 5f 73 74 6f 72|        i32_stor|                b: "i32_store16" 0xd8-0xe3 (11)
0x0e0|65 31 36                                       |e16             |
     |                                               |                |              d{}: 0xe3-0xe5 (2)
0x0e0|         00                                    |   .            |                tag: "funcidx" (0x0) 0xe3-0xe4 (1)
0x0e0|            10                                 |    .           |                x: 16 (valid) 0xe4-0xe5 (1)
     |                                               |                |            [11]{}: ex 0xe5-0xf1 (12)
     |                                               |                |              nm{}: 0xe5-0xef (10)
0x0e0|               09                              |     .          |                n: 9 (valid) 0xe5-0xe6 (1)
0x0e0|                  69 33 32 5f 73 74 6f 72 65   |      i32_store |                b: "i32_store" 0xe6-0xef (9)
     |                                               |                |              d{}: 0xef-0xf1 (2)
0x0e0|                                             00|               .|                tag: "funcidx" (0x0) 0xef-0xf0 (1)
0x0f0|11                                             |.               |                x: 17 (valid) 0xf0-0xf1 (1)
     |                                               |                |            [12]{}: ex 0xf1-0xff (14)
     |                                               |                |              nm{}: 0xf1-0xfd (12)
0x0f0|   0b                                          | .              |                n: 11 (valid) 0xf1-0xf2 (1)
0x0f0|      69 36 34 5f 73 74 6f 72 65 31 36         |  i64_store16   |                b: "i64_store16" 0xf2-0xfd (11)
     |                                               |                |              d{}: 0xfd-0xff (2)
0x0f0|                                       00      |             .  |                tag: "funcidx" (0x0) 0xfd-0xfe (1)
0x0f0|                                          12   |              . |                x: 18 (valid) 0xfe-0xff (1)
     |                                               |                |            [13]{}: ex 0xff-0x10d (14)
     |                                               |                |              nm{}: 0xff-0x10b (12)
0x0f0|                                             0b|               .|                n: 11 (valid) 0xff-0x100 (1)
0x100|69 36 34 5f 73 74 6f 72 65 33 32               |i64_store32     |                b: "i64_store32" 0x100-0x10b (11)
     |                                               |                |              d{}: 0x10b-0x10d (2)
0x100|                                 00            |           .    |                tag: "funcidx" (0x0) 0x10b-0x10c (1)
0x100|                                    13         |            .   |                x: 19 (valid) 0x10c-0x10d (1)
     |                                               |                |            [14]{}: ex 0x10d-0x119 (12)
     |                                               |                |              nm{}: 0x10d-0x117 (10)
0x100|                                       09      |             .  |                n: 9 (valid) 0x10d-0x10e (1)
0x100|                                          69 36|              i6|                b: "i64_store" 0x10e-0x117 (9)
0x110|34 5f 73 74 6f 72 65                           |4_store         |
     |                                               |                |              d{}: 0x117-0x119 (2)
0x110|                     00                        |       .        |                tag: "funcidx" (0x0) 0x117-0x118 (1)
0x110|                        14                     |        .       |                x: 20 (valid) 0x118-0x119 (1)
     |                                               |                |            [15]{}: ex 0x119-0x125 (12)
     |                                               |                |              nm{}: 0x119-0x123 (10)
0x110|                           09                  |         .      |                n: 9 (valid) 0x119-0x11a (1)
0x110|                              66 33 32 5f 73 74|          f32_st|                b: "f32_store" 0x11a-0x123 (9)
0x120|6f 72 65                                       |ore             |
     |                                               |                |              d{}: 0x123-0x125 (2)
0x120|         00                                    |   .            |                tag: "funcidx" (0x0) 0x123-0x124 (1)
0x120|            15                                 |    .           |                x: 21 (valid) 0x124-0x125 (1)
     |                                               |                |            [16]{}: ex 0x125-0x131 (12)
     |                                               |                |              nm{}: 0x125-0x12f (10)
0x120|               09                              |     .          |                n: 9 (valid) 0x125-0x126 (1)
0x120|                  66 36 34 5f 73 74 6f 72 65   |      f64_store |                b: "f64_store" 0x126-0x12f (9)
     |                                               |                |              d{}: 0x12f-0x131 (2)
0x120|                                             00|               .|                tag: "funcidx" (0x0) 0x12f-0x130 (1)
0x130|16                                             |.               |                x: 22 (valid) 0x130-0x131 (1)
     |                                               |                |    [4]{}: section 0x131-0x2aa (377)
0x130|   0a                                          | .              |      id: "code_section" (10) 0x131-0x132 (1)
0x130|      f6 02                                    |  ..            |      size: 374 (valid) 0x132-0x134 (2)
     |                                               |                |      content{}: 0x134-0x2aa (374)
     |                                               |                |        code{}: 0x134-0x2aa (374)
0x130|            17                                 |    .           |          n: 23 (valid) 0x134-0x135 (1)
     |                                               |                |          x[0:23]: 0x135-0x2aa (373)
     |                                               |                |            [0]{}: code 0x135-0x14c (23)
0x130|               16                              |     .          |              size: 22 (valid) 0x135-0x136 (1)
     |                                               |                |              code{}: 0x136-0x14c (22)
     |                                               |                |                t{}: 0x136-0x137 (1)
0x130|                  00                           |      .         |                  n: 0 (valid) 0x136-0x137 (1)
     |                                               |                |                  x[0:0]: 0x137-0x137 (0)
     |                                               |                |                e[0:11]: 0x137-0x14c (21)
     |                                               |                |                  [0]{}: in 0x137-0x139 (2)
0x130|                     20                        |                |                    opcode: "local.get" (0x20) 0x137-0x138 (1)
0x130|                        00                     |        .       |                    x: 0 (valid) 0x138-0x139 (1)
     |                                               |                |                  [1]{}: in 0x139-0x13b (2)
0x130|                           20                  |                |                    opcode: "local.get" (0x20) 0x139-0x13a (1)
0x130|                              01               |          .     |                    x: 1 (valid) 0x13a-0x13b (1)
     |                                               |                |                  [2]{}: in 0x13b-0x13e (3)
0x130|                                 3a            |           :    |                    opcode: "i32.store8" (0x3a) 0x13b-0x13c (1)
     |                                               |                |                    m{}: 0x13c-0x13e (2)
0x130|                                    00         |            .   |                      a: 0 (valid) 0x13c-0x13d (1)
0x130|                                       00      |             .  |                      o: 0 (valid) 0x13d-0x13e (1)
     |                                               |                |                  [3]{}: in 0x13e-0x140 (2)
0x130|                                          20   |                |                    opcode: "local.get" (0x20) 0x13e-0x13f (1)
0x130|                                             00|               .|                    x: 0 (valid) 0x13f-0x140 (1)
     |                                               |                |                  [4]{}: in 0x140-0x142 (2)
0x140|41                                             |A               |                    opcode: "i32.const" (0x41) 0x140-0x141 (1)
0x140|   01                                          | .              |                    n: 1 (valid) 0x141-0x142 (1)
     |                                               |                |                  [5]{}: in 0x142-0x143 (1)
0x140|      6a                                       |  j             |                    opcode: "i32.add" (0x6a) 0x142-0x143 (1)
     |                                               |                |                  [6]{}: in 0x143-0x145 (2)
0x140|         20                                    |                |                    opcode: "local.get" (0x20) 0x143-0x144 (1)
0x140|            01                                 |    .           |                    x: 1 (valid) 0x144-0x145 (1)
     |                                               |                |                  [7]{}: in 0x145-0x147 (2)
0x140|               41                              |     A          |                    opcode: "i32.const" (0x41) 0x145-0x146 (1)
0x140|                  08                           |      .         |                    n: 8 (valid) 0x146-0x147 (1)
     |                                               |                |                  [8]{}: in 0x147-0x148 (1)
0x140|                     76                        |       v        |                    opcode: "i32.shr_u" (0x76) 0x147-0x148 (1)
     |                                               |                |                  [9]{}: in 0x148-0x14b (3)
0x140|                        3a                     |        :       |                    opcode: "i32.store8" (0x3a) 0x148-0x149 (1)
     |                                               |                |                    m{}: 0x149-0x14b (2)
0x140|                           00                  |         .      |                      a: 0 (valid) 0x149-0x14a (1)
0x140|                              00               |          .     |                      o: 0 (valid) 0x14a-0x14b (1)
     |                                               |                |                  [10]{}: in 0x14b-0x14c (1)
0x140|                                 0b            |           .    |                    opcode: "end" (0xb) 0x14b-0x14c (1)
     |                                               |                |            [1]{}: code 0x14c-0x161 (21)
0x140|                                    14         |            .   |              size: 20 (valid) 0x14c-0x14d (1)
     |                                               |                |              code{}: 0x14d-0x161 (20)
     |                                               |                |                t{}: 0x14d-0x14e (1)
0x140|                                       00      |             .  |                  n: 0 (valid) 0x14d-0x14e (1)
     |                                               |                |                  x[0:0]: 0x14e-0x14e (0)
     |                                               |                |                e[0:11]: 0x14e-0x161 (19)
     |                                               |                |                  [0]{}: in 0x14e-0x150 (2)
0x140|                                          20   |                |                    opcode: "local.get" (0x20) 0x14e-0x14f (1)
0x140|                                             00|               .|                    x: 0 (valid) 0x14f-0x150 (1)
     |                                               |                |                  [1]{}: in 0x150-0x152 (2)
0x150|20                                             |                |                    opcode: "local.get" (0x20) 0x150-0x151 (1)
0x150|   01                                          | .              |                    x: 1 (valid) 0x151-0x152 (1)
     |                                               |                |                  [2]{}: in 0x152-0x154 (2)
0x150|      10                                       |  .             |                    opcode: "call" (0x10) 0x152-0x153 (1)
0x150|         00                                    |   .            |                    x: 0 (valid) 0x153-0x154 (1)
     |                                               |                |                  [3]{}: in 0x154-0x156 (2)
0x150|            20                                 |                |                    opcode: "local.get" (0x20) 0x154-0x155 (1)
0x150|               00                              |     .          |                    x: 0 (valid) 0x155-0x156 (1)
     |                                               |                |                  [4]{}: in 0x156-0x158 (2)
0x150|                  41                           |      A         |                    opcode: "i32.const" (0x41) 0x156-0x157 (1)
0x150|                     02                        |       .        |                    n: 2 (valid) 0x157-0x158 (1)
     |                                               |                |                  [5]{}: in 0x158-0x159 (1)
0x150|                        6a                     |        j       |                    opcode: "i32.add" (0x6a) 0x158-0x159 (1)
     |                                               |                |                  [6]{}: in 0x159-0x15b (2)
0x150|                           20                  |                |                    opcode: "local.get" (0x20) 0x159-0x15a (1)
0x150|                              01               |          .     |                    x: 1 (valid) 0x15a-0x15b (1)
     |                                               |                |                  [7]{}: in 0x15b-0x15d (2)
0x150|                                 41            |           A    |                    opcode: "i32.const" (0x41) 0x15b-0x15c (1)
0x150|                                    10         |            .   |                    n: 16 (valid) 0x15c-0x15d (1)
     |                                               |                |                  [8]{}: in 0x15d-0x15e (1)
0x150|                                       76      |             v  |                    opcode: "i32.shr_u" (0x76) 0x15d-0x15e (1)
     |                                               |                |                  [9]{}: in 0x15e-0x160 (2)
0x150|                                          10   |              . |                    opcode: "call" (0x10) 0x15e-0x15f (1)
0x150|                                             00|               .|                    x: 0 (valid) 0x15f-0x160 (1)
     |                                               |                |                  [10]{}: in 0x160-0x161 (1)
0x160|0b                                             |.               |                    opcode: "end" (0xb) 0x160-0x161 (1)
     |                                               |                |            [2]{}: code 0x161-0x178 (23)
0x160|   16                                          | .              |              size: 22 (valid) 0x161-0x162 (1)
     |                                               |                |              code{}: 0x162-0x178 (22)
     |                                               |                |                t{}: 0x162-0x163 (1)
0x160|      00                                       |  .             |                  n: 0 (valid) 0x162-0x163 (1)
     |                                               |                |                  x[0:0]: 0x163-0x163 (0)
     |                                               |                |                e[0:13]: 0x163-0x178 (21)
     |                                               |                |                  [0]{}: in 0x163-0x165 (2)
0x160|         20                                    |                |                    opcode: "local.get" (0x20) 0x163-0x164 (1)
0x160|            00                                 |    .           |                    x: 0 (valid) 0x164-0x165 (1)
     |                                               |                |                  [1]{}: in 0x165-0x167 (2)
0x160|               20                              |                |                    opcode: "local.get" (0x20) 0x165-0x166 (1)
0x160|                  01                           |      .         |                    x: 1 (valid) 0x166-0x167 (1)
     |                                               |                |                  [2]{}: in 0x167-0x168 (1)
0x160|                     a7                        |       .        |                    opcode: "i32.wrap_i64" (0xa7) 0x167-0x168 (1)
     |                                               |                |                  [3]{}: in 0x168-0x16a (2)
0x160|                        10                     |        .       |                    opcode: "call" (0x10) 0x168-0x169 (1)
0x160|                           01                  |         .      |                    x: 1 (valid) 0x169-0x16a (1)
     |                                               |                |                  [4]{}: in 0x16a-0x16c (2)
0x160|                              20               |                |                    opcode: "local.get" (0x20) 0x16a-0x16b (1)
0x160|                                 00            |           .    |                    x: 0 (valid) 0x16b-0x16c (1)
     |                                               |                |                  [5]{}: in 0x16c-0x16e (2)
0x160|                                    41         |            A   |                    opcode: "i32.const" (0x41) 0x16c-0x16d (1)
0x160|                                       04      |             .  |                    n: 4 (valid) 0x16d-0x16e (1)
     |                                               |                |                  [6]{}: in 0x16e-0x16f (1)
0x160|                                          6a   |              j |                    opcode: "i32.add" (0x6a) 0x16e-0x16f (1)
     |                                               |                |                  [7]{}: in 0x16f-0x171 (2)
0x160|                                             20|                |                    opcode: "local.get" (0x20) 0x16f-0x170 (1)
0x170|01                                             |.               |                    x: 1 (valid) 0x170-0x171 (1)
     |                                               |                |                  [8]{}: in 0x171-0x173 (2)
0x170|   42                                          | B              |                    opcode: "i64.const" (0x42) 0x171-0x172 (1)
0x170|      20                                       |                |                    n: 32 0x172-0x173 (1)
     |                                               |                |                  [9]{}: in 0x173-0x174 (1)
0x170|         88                                    |   .            |                    opcode: "i64.shr_u" (0x88) 0x173-0x174 (1)
     |                                               |                |                  [10]{}: in 0x174-0x175 (1)
0x170|            a7                                 |    .           |                    opcode: "i32.wrap_i64" (0xa7) 0x174-0x175 (1)
     |                                               |                |                  [11]{}: in 0x175-0x177 (2)
0x170|               10                              |     .          |                    opcode: "call" (0x10) 0x175-0x176 (1)
0x170|                  01                           |      .         |                    x: 1 (valid) 0x176-0x177 (1)
     |                                               |                |                  [12]{}: in 0x177-0x178 (1)
0x170|                     0b                        |       .        |                    opcode: "end" (0xb) 0x177-0x178 (1)
     |                                               |                |            [3]{}: code 0x178-0x18c (20)
0x170|                        13                     |        .       |              size: 19 (valid) 0x178-0x179 (1)
     |                                               |                |              code{}: 0x179-0x18c (19)
     |                                               |                |                t{}: 0x179-0x17a (1)
0x170|                           00                  |         .      |                  n: 0 (valid) 0x179-0x17a (1)
     |                                               |                |                  x[0:0]: 0x17a-0x17a (0)
     |                                               |                |                e[0:10]: 0x17a-0x18c (18)
     |                                               |                |                  [0]{}: in 0x17a-0x17c (2)
0x170|                              20               |                |                    opcode: "local.get" (0x20) 0x17a-0x17b (1)
0x170|                                 00            |           .    |                    x: 0 (valid) 0x17b-0x17c (1)
     |                                               |                |                  [1]{}: in 0x17c-0x17f (3)
0x170|                                    2d         |            -   |                    opcode: "i32.load8_u" (0x2d) 0x17c-0x17d (1)
     |                                               |                |                    m{}: 0x17d-0x17f (2)
0x170|                                       00      |             .  |                      a: 0 (valid) 0x17d-0x17e (1)
0x170|                                          00   |              . |                      o: 0 (valid) 0x17e-0x17f (1)
     |                                               |                |                  [2]{}: in 0x17f-0x181 (2)
0x170|                                             20|                |                    opcode: "local.get" (0x20) 0x17f-0x180 (1)
0x180|00                                             |.               |                    x: 0 (valid) 0x180-0x181 (1)
     |                                               |                |                  [3]{}: in 0x181-0x183 (2)
0x180|   41                                          | A              |                    opcode: "i32.const" (0x41) 0x181-0x182 (1)
0x180|      01                                       |  .             |                    n: 1 (valid) 0x182-0x183 (1)
     |                                               |                |                  [4]{}: in 0x183-0x184 (1)
0x180|         6a                                    |   j            |                    opcode: "i32.add" (0x6a) 0x183-0x184 (1)
     |                                               |                |                  [5]{}: in 0x184-0x187 (3)
0x180|            2d                                 |    -           |                    opcode: "i32.load8_u" (0x2d) 0x184-0x185 (1)
     |                                               |                |                    m{}: 0x185-0x187 (2)
0x180|               00                              |     .          |                      a: 0 (valid) 0x185-0x186 (1)
0x180|                  00                           |      .         |                      o: 0 (valid) 0x186-0x187 (1)
     |                                               |                |                  [6]{}: in 0x187-0x189 (2)
0x180|                     41                        |       A        |                    opcode: "i32.const" (0x41) 0x187-0x188 (1)
0x180|                        08                     |        .       |                    n: 8 (valid) 0x188-0x189 (1)
     |                                               |                |                  [7]{}: in 0x189-0x18a (1)
0x180|                           74                  |         t      |                    opcode: "i32.shl" (0x74) 0x189-0x18a (1)
     |                                               |                |                  [8]{}: in 0x18a-0x18b (1)
0x180|                              72               |          r     |                    opcode: "i32.or" (0x72) 0x18a-0x18b (1)
     |                                               |                |                  [9]{}: in 0x18b-0x18c (1)
0x180|                                 0b            |           .    |                    opcode: "end" (0xb) 0x18b-0x18c (1)
     |                                               |                |            [4]{}: code 0x18c-0x19e (18)
0x180|                                    11         |            .   |              size: 17 (valid) 0x18c-0x18d (1)
     |                                               |                |              code{}: 0x18d-0x19e (17)
     |                                               |                |                t{}: 0x18d-0x18e (1)
0x180|                                       00      |             .  |                  n: 0 (valid) 0x18d-0x18e (1)
     |                                               |                |                  x[0:0]: 0x18e-0x18e (0)
     |                                               |                |                e[0:10]: 0x18e-0x19e (16)
     |                                               |                |                  [0]{}: in 0x18e-0x190 (2)
0x180|                                          20   |                |                    opcode: "local.get" (0x20) 0x18e-0x18f (1)
0x180|                                             00|               .|                    x: 0 (valid) 0x18f-0x190 (1)
     |                                               |                |                  [1]{}: in 0x190-0x192 (2)
0x190|10                                             |.               |                    opcode: "call" (0x10) 0x190-0x191 (1)
0x190|   03                                          | .              |                    x: 3 (valid) 0x191-0x192 (1)
     |                                               |                |                  [2]{}: in 0x192-0x194 (2)
0x190|      20                                       |                |                    opcode: "local.get" (0x20) 0x192-0x193 (1)
0x190|         00                                    |   .            |                    x: 0 (valid) 0x193-0x194 (1)
     |                                               |                |                  [3]{}: in 0x194-0x196 (2)
0x190|            41                                 |    A           |                    opcode: "i32.const" (0x41) 0x194-0x195 (1)
0x190|               02                              |     .          |                    n: 2 (valid) 0x195-0x196 (1)
     |                                               |                |                  [4]{}: in 0x196-0x197 (1)
0x190|                  6a                           |      j         |                    opcode: "i32.add" (0x6a) 0x196-0x197 (1)
     |                                               |                |                  [5]{}: in 0x197-0x199 (2)
0x190|                     10                        |       .        |                    opcode: "call" (0x10) 0x197-0x198 (1)
0x190|                        03                     |        .       |                    x: 3 (valid) 0x198-0x199 (1)
     |                                               |                |                  [6]{}: in 0x199-0x19b (2)
0x190|                           41                  |         A      |                    opcode: "i32.const" (0x41) 0x199-0x19a (1)
0x190|                              10               |          .     |                    n: 16 (valid) 0x19a-0x19b (1)
     |                                               |                |                  [7]{}: in 0x19b-0x19c (1)
0x190|                                 74            |           t    |                    opcode: "i32.shl" (0x74) 0x19b-0x19c (1)
     |                                               |                |                  [8]{}: in 0x19c-0x19d (1)
0x190|                                    72         |            r   |                    opcode: "i32.or" (0x72) 0x19c-0x19d (1)
     |                                               |                |                  [9]{}: in 0x19d-0x19e (1)
0x190|                                       0b      |             .  |                    opcode: "end" (0xb) 0x19d-0x19e (1)
     |                                               |                |            [5]{}: code 0x19e-0x1b2 (20)
0x190|                                          13   |              . |              size: 19 (valid) 0x19e-0x19f (1)
     |                                               |                |              code{}: 0x19f-0x1b2 (19)
     |                                               |                |                t{}: 0x19f-0x1a0 (1)
0x190|                                             00|               .|                  n: 0 (valid) 0x19f-0x1a0 (1)
     |                                               |                |                  x[0:0]: 0x1a0-0x1a0 (0)
     |                                               |                |                e[0:12]: 0x1a0-0x1b2 (18)
     |                                               |                |                  [0]{}: in 0x1a0-0x1a2 (2)
0x1a0|20                                             |                |                    opcode: "local.get" (0x20) 0x1a0-0x1a1 (1)
0x1a0|   00                                          | .              |                    x: 0 (valid) 0x1a1-0x1a2 (1)
     |                                               |                |                  [1]{}: in 0x1a2-0x1a4 (2)
0x1a0|      10                                       |  .             |                    opcode: "call" (0x10) 0x1a2-0x1a3 (1)
0x1a0|         04                                    |   .            |                    x: 4 (valid) 0x1a3-0x1a4 (1)
     |                                               |                |                  [2]{}: in 0x1a4-0x1a5 (1)
0x1a0|            ad                                 |    .           |                    opcode: "i64.extend_i32_u" (0xad) 0x1a4-0x1a5 (1)
     |                                               |                |                  [3]{}: in 0x1a5-0x1a7 (2)
0x1a0|               20                              |                |                    opcode: "local.get" (0x20) 0x1a5-0x1a6 (1)
0x1a0|                  00                           |      .         |                    x: 0 (valid) 0x1a6-0x1a7 (1)
     |                                               |                |                  [4]{}: in 0x1a7-0x1a9 (2)
0x1a0|                     41                        |       A        |                    opcode: "i32.const" (0x41) 0x1a7-0x1a8 (1)
0x1a0|                        04                     |        .       |                    n: 4 (valid) 0x1a8-0x1a9 (1)
     |                                               |                |                  [5]{}: in 0x1a9-0x1aa (1)
0x1a0|                           6a                  |         j      |                    opcode: "i32.add" (0x6a) 0x1a9-0x1aa (1)
     |                                               |                |                  [6]{}: in 0x1aa-0x1ac (2)
0x1a0|                              10               |          .     |                    opcode: "call" (0x10) 0x1aa-0x1ab (1)
0x1a0|                                 04            |           .    |                    x: 4 (valid) 0x1ab-0x1ac (1)
     |                                               |                |                  [7]{}: in 0x1ac-0x1ad (1)
0x1a0|                                    ad         |            .   |                    opcode: "i64.extend_i32_u" (0xad) 0x1ac-0x1ad (1)
     |                                               |                |                  [8]{}: in 0x1ad-0x1af (2)
0x1a0|                                       42      |             B  |                    opcode: "i64.const" (0x42) 0x1ad-0x1ae (1)
0x1a0|                                          20   |                |                    n: 32 0x1ae-0x1af (1)
     |                                               |                |                  [9]{}: in 0x1af-0x1b0 (1)
0x1a0|                                             86|               .|                    opcode: "i64.shl" (0x86) 0x1af-0x1b0 (1)
     |                                               |                |                  [10]{}: in 0x1b0-0x1b1 (1)
0x1b0|84                                             |.               |                    opcode: "i64.or" (0x84) 0x1b0-0x1b1 (1)
     |                                               |                |                  [11]{}: in 0x1b1-0x1b2 (1)
0x1b0|   0b                                          | .              |                    opcode: "end" (0xb) 0x1b1-0x1b2 (1)
     |                                               |                |            [6]{}: code 0x1b2-0x1c0 (14)
0x1b0|      0d                                       |  .             |              size: 13 (valid) 0x1b2-0x1b3 (1)
     |                                               |                |              code{}: 0x1b3-0x1c0 (13)
     |                                               |                |                t{}: 0x1b3-0x1b4 (1)
0x1b0|         00                                    |   .            |                  n: 0 (valid) 0x1b3-0x1b4 (1)
     |                                               |                |                  x[0:0]: 0x1b4-0x1b4 (0)
     |                                               |                |                e[0:6]: 0x1b4-0x1c0 (12)
     |                                               |                |                  [0]{}: in 0x1b4-0x1b6 (2)
0x1b0|            41                                 |    A           |                    opcode: "i32.const" (0x41) 0x1b4-0x1b5 (1)
0x1b0|               00                              |     .          |                    n: 0 (valid) 0x1b5-0x1b6 (1)
     |                                               |                |                  [1]{}: in 0x1b6-0x1b8 (2)
0x1b0|                  20                           |                |                    opcode: "local.get" (0x20) 0x1b6-0x1b7 (1)
0x1b0|                     00                        |       .        |                    x: 0 (valid) 0x1b7-0x1b8 (1)
     |                                               |                |                  [2]{}: in 0x1b8-0x1ba (2)
0x1b0|                        10                     |        .       |                    opcode: "call" (0x10) 0x1b8-0x1b9 (1)
0x1b0|                           00                  |         .      |                    x: 0 (valid) 0x1b9-0x1ba (1)
     |                                               |                |                  [3]{}: in 0x1ba-0x1bc (2)
0x1b0|                              41               |          A     |                    opcode: "i32.const" (0x41) 0x1ba-0x1bb (1)
0x1b0|                                 00            |           .    |                    n: 0 (valid) 0x1bb-0x1bc (1)
     |                                               |                |                  [4]{}: in 0x1bc-0x1bf (3)
0x1b0|                                    2e         |            .   |                    opcode: "i32.load16_s" (0x2e) 0x1bc-0x1bd (1)
     |                                               |                |                    m{}: 0x1bd-0x1bf (2)
0x1b0|                                       01      |             .  |                      a: 1 (valid) 0x1bd-0x1be (1)
0x1b0|                                          00   |              . |                      o: 0 (valid) 0x1be-0x1bf (1)
     |                                               |                |                  [5]{}: in 0x1bf-0x1c0 (1)
0x1b0|                                             0b|               .|                    opcode: "end" (0xb) 0x1bf-0x1c0 (1)
     |                                               |                |            [7]{}: code 0x1c0-0x1ce (14)
0x1c0|0d                                             |.               |              size: 13 (valid) 0x1c0-0x1c1 (1)
     |                                               |                |              code{}: 0x1c1-0x1ce (13)
     |                                               |                |                t{}: 0x1c1-0x1c2 (1)
0x1c0|   00                                          | .              |                  n: 0 (valid) 0x1c1-0x1c2 (1)
     |                                               |                |                  x[0:0]: 0x1c2-0x1c2 (0)
     |                                               |                |                e[0:6]: 0x1c2-0x1ce (12)
     |                                               |                |                  [0]{}: in 0x1c2-0x1c4 (2)
0x1c0|      41                                       |  A             |                    opcode: "i32.const" (0x41) 0x1c2-0x1c3 (1)
0x1c0|         00                                    |   .            |                    n: 0 (valid) 0x1c3-0x1c4 (1)
     |                                               |                |                  [1]{}: in 0x1c4-0x1c6 (2)
0x1c0|            20                                 |                |                    opcode: "local.get" (0x20) 0x1c4-0x1c5 (1)
0x1c0|               00                              |     .          |                    x: 0 (valid) 0x1c5-0x1c6 (1)
     |                                               |                |                  [2]{}: in 0x1c6-0x1c8 (2)
0x1c0|                  10                           |      .         |                    opcode: "call" (0x10) 0x1c6-0x1c7 (1)
0x1c0|                     00                        |       .        |                    x: 0 (valid) 0x1c7-0x1c8 (1)
     |                                               |                |                  [3]{}: in 0x1c8-0x1ca (2)
0x1c0|                        41                     |        A       |                    opcode: "i32.const" (0x41) 0x1c8-0x1c9 (1)
0x1c0|                           00                  |         .      |                    n: 0 (valid) 0x1c9-0x1ca (1)
     |                                               |                |                  [4]{}: in 0x1ca-0x1cd (3)
0x1c0|                              2f               |          /     |                    opcode: "i32.load16_u" (0x2f) 0x1ca-0x1cb (1)
     |                                               |                |                    m{}: 0x1cb-0x1cd (2)
0x1c0|                                 01            |           .    |                      a: 1 (valid) 0x1cb-0x1cc (1)
0x1c0|                                    00         |            .   |                      o: 0 (valid) 0x1cc-0x1cd (1)
     |                                               |                |                  [5]{}: in 0x1cd-0x1ce (1)
0x1c0|                                       0b      |             .  |                    opcode: "end" (0xb) 0x1cd-0x1ce (1)
     |                                               |                |            [8]{}: code 0x1ce-0x1dc (14)
0x1c0|                                          0d   |              . |              size: 13 (valid) 0x1ce-0x1cf (1)
     |                                               |                |              code{}: 0x1cf-0x1dc (13)
     |                                               |                |                t{}: 0x1cf-0x1d0 (1)
0x1c0|                                             00|               .|                  n: 0 (valid) 0x1cf-0x1d0 (1)
     |                                               |                |                  x[0:0]: 0x1d0-0x1d0 (0)
     |                                               |                |                e[0:6]: 0x1d0-0x1dc (12)
     |                                               |                |                  [0]{}: in 0x1d0-0x1d2 (2)
0x1d0|41                                             |A               |                    opcode: "i32.const" (0x41) 0x1d0-0x1d1 (1)
0x1d0|   00                                          | .              |                    n: 0 (valid) 0x1d1-0x1d2 (1)
     |                                               |                |                  [1]{}: in 0x1d2-0x1d4 (2)
0x1d0|      20                                       |                |                    opcode: "local.get" (0x20) 0x1d2-0x1d3 (1)
0x1d0|         00                                    |   .            |                    x: 0 (valid) 0x1d3-0x1d4 (1)
     |                                               |                |                  [2]{}: in 0x1d4-0x1d6 (2)
0x1d0|            10                                 |    .           |                    opcode: "call" (0x10) 0x1d4-0x1d5 (1)
0x1d0|               01                              |     .          |                    x: 1 (valid) 0x1d5-0x1d6 (1)
     |                                               |                |                  [3]{}: in 0x1d6-0x1d8 (2)
0x1d0|                  41                           |      A         |                    opcode: "i32.const" (0x41) 0x1d6-0x1d7 (1)
0x1d0|                     00                        |       .        |                    n: 0 (valid) 0x1d7-0x1d8 (1)
     |                                               |                |                  [4]{}: in 0x1d8-0x1db (3)
0x1d0|                        28                     |        (       |                    opcode: "i32.load" (0x28) 0x1d8-0x1d9 (1)
     |                                               |                |                    m{}: 0x1d9-0x1db (2)
0x1d0|                           02                  |         .      |                      a: 2 (valid) 0x1d9-0x1da (1)
0x1d0|                              00               |          .     |                      o: 0 (valid) 0x1da-0x1db (1)
     |                                               |                |                  [5]{}: in 0x1db-0x1dc (1)
0x1d0|                                 0b            |           .    |                    opcode: "end" (0xb) 0x1db-0x1dc (1)
     |                                               |                |            [9]{}: code 0x1dc-0x1eb (15)
0x1d0|                                    0e         |            .   |              size: 14 (valid) 0x1dc-0x1dd (1)
     |                                               |                |              code{}: 0x1dd-0x1eb (14)
     |                                               |                |                t{}: 0x1dd-0x1de (1)
0x1d0|                                       00      |             .  |                  n: 0 (valid) 0x1dd-0x1de (1)
     |                                               |                |                  x[0:0]: 0x1de-0x1de (0)
     |                                               |                |                e[0:7]: 0x1de-0x1eb (13)
     |                                               |                |                  [0]{}: in 0x1de-0x1e0 (2)
0x1d0|                                          41   |              A |                    opcode: "i32.const" (0x41) 0x1de-0x1df (1)
0x1d0|                                             00|               .|                    n: 0 (valid) 0x1df-0x1e0 (1)
     |                                               |                |                  [1]{}: in 0x1e0-0x1e2 (2)
0x1e0|20                                             |                |                    opcode: "local.get" (0x20) 0x1e0-0x1e1 (1)
0x1e0|   00                                          | .              |                    x: 0 (valid) 0x1e1-0x1e2 (1)
     |                                               |                |                  [2]{}: in 0x1e2-0x1e3 (1)
0x1e0|      a7                                       |  .             |                    opcode: "i32.wrap_i64" (0xa7) 0x1e2-0x1e3 (1)
     |                                               |                |                  [3]{}: in 0x1e3-0x1e5 (2)
0x1e0|         10                                    |   .            |                    opcode: "call" (0x10) 0x1e3-0x1e4 (1)
0x1e0|            00                                 |    .           |                    x: 0 (valid) 0x1e4-0x1e5 (1)
     |                                               |                |                  [4]{}: in 0x1e5-0x1e7 (2)
0x1e0|               41                              |     A          |                    opcode: "i32.const" (0x41) 0x1e5-0x1e6 (1)
0x1e0|                  00                           |      .         |                    n: 0 (valid) 0x1e6-0x1e7 (1)
     |                                               |                |                  [5]{}: in 0x1e7-0x1ea (3)
0x1e0|                     32                        |       2        |                    opcode: "i64.load16_s" (0x32) 0x1e7-0x1e8 (1)
     |                                               |                |                    m{}: 0x1e8-0x1ea (2)
0x1e0|                        01                     |        .       |                      a: 1 (valid) 0x1e8-0x1e9 (1)
0x1e0|                           00                  |         .      |                      o: 0 (valid) 0x1e9-0x1ea (1)
     |                                               |                |                  [6]{}: in 0x1ea-0x1eb (1)
0x1e0|                              0b               |          .     |                    opcode: "end" (0xb) 0x1ea-0x1eb (1)
     |                                               |                |            [10]{}: code 0x1eb-0x1fa (15)
0x1e0|                                 0e            |           .    |              size: 14 (valid) 0x1eb-0x1ec (1)
     |                                               |                |              code{}: 0x1ec-0x1fa (14)
     |                                               |                |                t{}: 0x1ec-0x1ed (1)
0x1e0|                                    00         |            .   |                  n: 0 (valid) 0x1ec-0x1ed (1)
     |                                               |                |                  x[0:0]: 0x1ed-0x1ed (0)
     |                                               |                |                e[0:7]: 0x1ed-0x1fa (13)
     |                                               |                |                  [0]{}: in 0x1ed-0x1ef (2)
0x1e0|                                       41      |             A  |                    opcode: "i32.const" (0x41) 0x1ed-0x1ee (1)
0x1e0|                                          00   |              . |                    n: 0 (valid) 0x1ee-0x1ef (1)
     |                                               |                |                  [1]{}: in 0x1ef-0x1f1 (2)
0x1e0|                                             20|                |                    opcode: "local.get" (0x20) 0x1ef-0x1f0 (1)
0x1f0|00                                             |.               |                    x: 0 (valid) 0x1f0-0x1f1 (1)
     |                                               |                |                  [2]{}: in 0x1f1-0x1f2 (1)
0x1f0|   a7                                          | .              |                    opcode: "i32.wrap_i64" (0xa7) 0x1f1-0x1f2 (1)
     |                                               |                |                  [3]{}: in 0x1f2-0x1f4 (2)
0x1f0|      10                                       |  .             |                    opcode: "call" (0x10) 0x1f2-0x1f3 (1)
0x1f0|         00                                    |   .            |                    x: 0 (valid) 0x1f3-0x1f4 (1)
     |                                               |                |                  [4]{}: in 0x1f4-0x1f6 (2)
0x1f0|            41                                 |    A           |                    opcode: "i32.const" (0x41) 0x1f4-0x1f5 (1)
0x1f0|               00                              |     .          |                    n: 0 (valid) 0x1f5-0x1f6 (1)
     |                                               |                |                  [5]{}: in 0x1f6-0x1f9 (3)
0x1f0|                  33                           |      3         |                    opcode: "i64.load16_u" (0x33) 0x1f6-0x1f7 (1)
     |                                               |                |                    m{}: 0x1f7-0x1f9 (2)
0x1f0|                     01                        |       .        |                      a: 1 (valid) 0x1f7-0x1f8 (1)
0x1f0|                        00                     |        .       |                      o: 0 (valid) 0x1f8-0x1f9 (1)
     |                                               |                |                  [6]{}: in 0x1f9-0x1fa (1)
0x1f0|                           0b                  |         .      |                    opcode: "end" (0xb) 0x1f9-0x1fa (1)
     |                                               |                |            [11]{}: code 0x1fa-0x209 (15)
0x1f0|                              0e               |          .     |              size: 14 (valid) 0x1fa-0x1fb (1)
     |                                               |                |              code{}: 0x1fb-0x209 (14)
     |                                               |                |                t{}: 0x1fb-0x1fc (1)
0x1f0|                                 00            |           .    |                  n: 0 (valid) 0x1fb-0x1fc (1)
     |                                               |                |                  x[0:0]: 0x1fc-0x1fc (0)
     |                                               |                |                e[0:7]: 0x1fc-0x209 (13)
     |                                               |                |                  [0]{}: in 0x1fc-0x1fe (2)
0x1f0|                                    41         |            A   |                    opcode: "i32.const" (0x41) 0x1fc-0x1fd (1)
0x1f0|                                       00      |             .  |                    n: 0 (valid) 0x1fd-0x1fe (1)
     |                                               |                |                  [1]{}: in 0x1fe-0x200 (2)
0x1f0|                                          20   |                |                    opcode: "local.get" (0x20) 0x1fe-0x1ff (1)
0x1f0|                                             00|               .|                    x: 0 (valid) 0x1ff-0x200 (1)
     |                                               |                |                  [2]{}: in 0x200-0x201 (1)
0x200|a7                                             |.               |                    opcode: "i32.wrap_i64" (0xa7) 0x200-0x201 (1)
     |                                               |                |                  [3]{}: in 0x201-0x203 (2)
0x200|   10                                          | .              |                    opcode: "call" (0x10) 0x201-0x202 (1)
0x200|      01                                       |  .             |                    x: 1 (valid) 0x202-0x203 (1)
     |                                               |                |                  [4]{}: in 0x203-0x205 (2)
0x200|         41                                    |   A            |                    opcode: "i32.const" (0x41) 0x203-0x204 (1)
0x200|            00                                 |    .           |                    n: 0 (valid) 0x204-0x205 (1)
     |                                               |                |                  [5]{}: in 0x205-0x208 (3)
0x200|               34                              |     4          |                    opcode: "i64.load32_s" (0x34) 0x205-0x206 (1)
     |                                               |                |                    m{}: 0x206-0x208 (2)
0x200|                  02                           |      .         |                      a: 2 (valid) 0x206-0x207 (1)
0x200|                     00                        |       .        |                      o: 0 (valid) 0x207-0x208 (1)
     |                                               |                |                  [6]{}: in 0x208-0x209 (1)
0x200|                        0b                     |        .       |                    opcode: "end" (0xb) 0x208-0x209 (1)
     |                                               |                |            [12]{}: code 0x209-0x218 (15)
0x200|                           0e                  |         .      |              size: 14 (valid) 0x209-0x20a (1)
     |                                               |                |              code{}: 0x20a-0x218 (14)
     |                                               |                |                t{}: 0x20a-0x20b (1)
0x200|                              00               |          .     |                  n: 0 (valid) 0x20a-0x20b (1)
     |                                               |                |                  x[0:0]: 0x20b-0x20b (0)
     |                                               |                |                e[0:7]: 0x20b-0x218 (13)
     |                                               |                |                  [0]{}: in 0x20b-0x20d (2)
0x200|                                 41            |           A    |                    opcode: "i32.const" (0x41) 0x20b-0x20c (1)
0x200|                                    00         |            .   |                    n: 0 (valid) 0x20c-0x20d (1)
     |                                               |                |                  [1]{}: in 0x20d-0x20f (2)
0x200|                                       20      |                |                    opcode: "local.get" (0x20) 0x20d-0x20e (1)
0x200|                                          00   |              . |                    x: 0 (valid) 0x20e-0x20f (1)
     |                                               |                |                  [2]{}: in 0x20f-0x210 (1)
0x200|                                             a7|               .|                    opcode: "i32.wrap_i64" (0xa7) 0x20f-0x210 (1)
     |                                               |                |                  [3]{}: in 0x210-0x212 (2)
0x210|10                                             |.               |                    opcode: "call" (0x10) 0x210-0x211 (1)
0x210|   01                                          | .              |                    x: 1 (valid) 0x211-0x212 (1)
     |                                               |                |                  [4]{}: in 0x212-0x214 (2)
0x210|      41                                       |  A             |                    opcode: "i32.const" (0x41) 0x212-0x213 (1)
0x210|         00                                    |   .            |                    n: 0 (valid) 0x213-0x214 (1)
     |                                               |                |                  [5]{}: in 0x214-0x217 (3)
0x210|            35                                 |    5           |                    opcode: "i64.load32_u" (0x35) 0x214-0x215 (1)
     |                                               |                |                    m{}: 0x215-0x217 (2)
0x210|               02                              |     .          |                      a: 2 (valid) 0x215-0x216 (1)
0x210|                  00                           |      .         |                      o: 0 (valid) 0x216-0x217 (1)
     |                                               |                |                  [6]{}: in 0x217-0x218 (1)
0x210|                     0b                        |       .        |                    opcode: "end" (0xb) 0x217-0x218 (1)
     |                                               |                |            [13]{}: code 0x218-0x226 (14)
0x210|                        0d                     |        .       |              size: 13 (valid) 0x218-0x219 (1)
     |                                               |                |              code{}: 0x219-0x226 (13)
     |                                               |                |                t{}: 0x219-0x21a (1)
0x210|                           00                  |         .      |                  n: 0 (valid) 0x219-0x21a (1)
     |                                               |                |                  x[0:0]: 0x21a-0x21a (0)
     |                                               |                |                e[0:6]: 0x21a-0x226 (12)
     |                                               |                |                  [0]{}: in 0x21a-0x21c (2)
0x210|                              41               |          A     |                    opcode: "i32.const" (0x41) 0x21a-0x21b (1)
0x210|                                 00            |           .    |                    n: 0 (valid) 0x21b-0x21c (1)
     |                                               |                |                  [1]{}: in 0x21c-0x21e (2)
0x210|                                    20         |                |                    opcode: "local.get" (0x20) 0x21c-0x21d (1)
0x210|                                       00      |             .  |                    x: 0 (valid) 0x21d-0x21e (1)
     |                                               |                |                  [2]{}: in 0x21e-0x220 (2)
0x210|                                          10   |              . |                    opcode: "call" (0x10) 0x21e-0x21f (1)
0x210|                                             02|               .|                    x: 2 (valid) 0x21f-0x220 (1)
     |                                               |                |                  [3]{}: in 0x220-0x222 (2)
0x220|41                                             |A               |                    opcode: "i32.const" (0x41) 0x220-0x221 (1)
0x220|   00                                          | .              |                    n: 0 (valid) 0x221-0x222 (1)
     |                                               |                |                  [4]{}: in 0x222-0x225 (3)
0x220|      29                                       |  )             |                    opcode: "i64.load" (0x29) 0x222-0x223 (1)
     |                                               |                |                    m{}: 0x223-0x225 (2)
0x220|         03                                    |   .            |                      a: 3 (valid) 0x223-0x224 (1)
0x220|            00                                 |    .           |                      o: 0 (valid) 0x224-0x225 (1)
     |                                               |                |                  [5]{}: in 0x225-0x226 (1)
0x220|               0b                              |     .          |                    opcode: "end" (0xb) 0x225-0x226 (1)
     |                                               |                |            [14]{}: code 0x226-0x235 (15)
0x220|                  0e                           |      .         |              size: 14 (valid) 0x226-0x227 (1)
     |                                               |                |              code{}: 0x227-0x235 (14)
     |                                               |                |                t{}: 0x227-0x228 (1)
0x220|                     00                        |       .        |                  n: 0 (valid) 0x227-0x228 (1)
     |                                               |                |                  x[0:0]: 0x228-0x228 (0)
     |                                               |                |                e[0:7]: 0x228-0x235 (13)
     |                                               |                |                  [0]{}: in 0x228-0x22a (2)
0x220|                        41                     |        A       |                    opcode: "i32.const" (0x41) 0x228-0x229 (1)
0x220|                           00                  |         .      |                    n: 0 (valid) 0x229-0x22a (1)
     |                                               |                |                  [1]{}: in 0x22a-0x22c (2)
0x220|                              20               |                |                    opcode: "local.get" (0x20) 0x22a-0x22b (1)
0x220|                                 00            |           .    |                    x: 0 (valid) 0x22b-0x22c (1)
     |                                               |                |                  [2]{}: in 0x22c-0x22d (1)
0x220|                                    bc         |            .   |                    opcode: "i32.reinterpret_f32" (0xbc) 0x22c-0x22d (1)
     |                                               |                |                  [3]{}: in 0x22d-0x22f (2)
0x220|                                       10      |             .  |                    opcode: "call" (0x10) 0x22d-0x22e (1)
0x220|                                          01   |              . |                    x: 1 (valid) 0x22e-0x22f (1)
     |                                               |                |                  [4]{}: in 0x22f-0x231 (2)
0x220|                                             41|               A|                    opcode: "i32.const" (0x41) 0x22f-0x230 (1)
0x230|00                                             |.               |                    n: 0 (valid) 0x230-0x231 (1)
     |                                               |                |                  [5]{}: in 0x231-0x234 (3)
0x230|   2a                                          | *              |                    opcode: "f32.load" (0x2a) 0x231-0x232 (1)
     |                                               |                |                    m{}: 0x232-0x234 (2)
0x230|      02                                       |  .             |                      a: 2 (valid) 0x232-0x233 (1)
0x230|         00                                    |   .            |                      o: 0 (valid) 0x233-0x234 (1)
     |                                               |                |                  [6]{}: in 0x234-0x235 (1)
0x230|            0b                                 |    .           |                    opcode: "end" (0xb) 0x234-0x235 (1)
     |                                               |                |            [15]{}: code 0x235-0x244 (15)
0x230|               0e                              |     .          |              size: 14 (valid) 0x235-0x236 (1)
     |                                               |                |              code{}: 0x236-0x244 (14)
     |                                               |                |                t{}: 0x236-0x237 (1)
0x230|                  00                           |      .         |                  n: 0 (valid) 0x236-0x237 (1)
     |                                               |                |                  x[0:0]: 0x237-0x237 (0)
     |                                               |                |                e[0:7]: 0x237-0x244 (13)
     |                                               |                |                  [0]{}: in 0x237-0x239 (2)
0x230|                     41                        |       A        |                    opcode: "i32.const" (0x41) 0x237-0x238 (1)
0x230|                        00                     |        .       |                    n: 0 (valid) 0x238-0x239 (1)
     |                                               |                |                  [1]{}: in 0x239-0x23b (2)
0x230|                           20                  |                |                    opcode: "local.get" (0x20) 0x239-0x23a (1)
0x230|                              00               |          .     |                    x: 0 (valid) 0x23a-0x23b (1)
     |                                               |                |                  [2]{}: in 0x23b-0x23c (1)
0x230|                                 bd            |           .    |                    opcode: "i64.reinterpret_f64" (0xbd) 0x23b-0x23c (1)
     |                                               |                |                  [3]{}: in 0x23c-0x23e (2)
0x230|                                    10         |            .   |                    opcode: "call" (0x10) 0x23c-0x23d (1)
0x230|                                       02      |             .  |                    x: 2 (valid) 0x23d-0x23e (1)
     |                                               |                |                  [4]{}: in 0x23e-0x240 (2)
0x230|                                          41   |              A |                    opcode: "i32.const" (0x41) 0x23e-0x23f (1)
0x230|                                             00|               .|                    n: 0 (valid) 0x23f-0x240 (1)
     |                                               |                |                  [5]{}: in 0x240-0x243 (3)
0x240|2b                                             |+               |                    opcode: "f64.load" (0x2b) 0x240-0x241 (1)
     |                                               |                |                    m{}: 0x241-0x243 (2)
0x240|   03                                          | .              |                      a: 3 (valid) 0x241-0x242 (1)
0x240|      00                                       |  .             |                      o: 0 (valid) 0x242-0x243 (1)
     |                                               |                |                  [6]{}: in 0x243-0x244 (1)
0x240|         0b                                    |   .            |                    opcode: "end" (0xb) 0x243-0x244 (1)
     |                                               |                |            [16]{}: code 0x244-0x252 (14)
0x240|            0d                                 |    .           |              size: 13 (valid) 0x244-0x245 (1)
     |                                               |                |              code{}: 0x245-0x252 (13)
     |                                               |                |                t{}: 0x245-0x246 (1)
0x240|               00                              |     .          |                  n: 0 (valid) 0x245-0x246 (1)
     |                                               |                |                  x[0:0]: 0x246-0x246 (0)
     |                                               |                |                e[0:6]: 0x246-0x252 (12)
     |                                               |                |                  [0]{}: in 0x246-0x248 (2)
0x240|                  41                           |      A         |                    opcode: "i32.const" (0x41) 0x246-0x247 (1)
0x240|                     00                        |       .        |                    n: 0 (valid) 0x247-0x248 (1)
     |                                               |                |                  [1]{}: in 0x248-0x24a (2)
0x240|                        20                     |                |                    opcode: "local.get" (0x20) 0x248-0x249 (1)
0x240|                           00                  |         .      |                    x: 0 (valid) 0x249-0x24a (1)
     |                                               |                |                  [2]{}: in 0x24a-0x24d (3)
0x240|                              3b               |          ;     |                    opcode: "i32.store16" (0x3b) 0x24a-0x24b (1)
     |                                               |                |                    m{}: 0x24b-0x24d (2)
0x240|                                 01            |           .    |                      a: 1 (valid) 0x24b-0x24c (1)
0x240|                                    00         |            .   |                      o: 0 (valid) 0x24c-0x24d (1)
     |                                               |                |                  [3]{}: in 0x24d-0x24f (2)
0x240|                                       41      |             A  |                    opcode: "i32.const" (0x41) 0x24d-0x24e (1)
0x240|                                          00   |              . |                    n: 0 (valid) 0x24e-0x24f (1)
     |                                               |                |                  [4]{}: in 0x24f-0x251 (2)
0x240|                                             10|               .|                    opcode: "call" (0x10) 0x24f-0x250 (1)
0x250|03                                             |.               |                    x: 3 (valid) 0x250-0x251 (1)
     |                                               |                |                  [5]{}: in 0x251-0x252 (1)
0x250|   0b                                          | .              |                    opcode: "end" (0xb) 0x251-0x252 (1)
     |                                               |                |            [17]{}: code 0x252-0x260 (14)
0x250|      0d                                       |  .             |              size: 13 (valid) 0x252-0x253 (1)
     |                                               |                |              code{}: 0x253-0x260 (13)
     |                                               |                |                t{}: 0x253-0x254 (1)
0x250|         00                                    |   .            |                  n: 0 (valid) 0x253-0x254 (1)
     |                                               |                |                  x[0:0]: 0x254-0x254 (0)
     |                                               |                |                e[0:6]: 0x254-0x260 (12)
     |                                               |                |                  [0]{}: in 0x254-0x256 (2)
0x250|            41                                 |    A           |                    opcode: "i32.const" (0x41) 0x254-0x255 (1)
0x250|               00                              |     .          |                    n: 0 (valid) 0x255-0x256 (1)
     |                                               |                |                  [1]{}: in 0x256-0x258 (2)
0x250|                  20                           |                |                    opcode: "local.get" (0x20) 0x256-0x257 (1)
0x250|                     00                        |       .        |                    x: 0 (valid) 0x257-0x258 (1)
     |                                               |                |                  [2]{}: in 0x258-0x25b (3)
0x250|                        36                     |        6       |                    opcode: "i32.store" (0x36) 0x258-0x259 (1)
     |                                               |                |                    m{}: 0x259-0x25b (2)
0x250|                           02                  |         .      |                      a: 2 (valid) 0x259-0x25a (1)
0x250|                              00               |          .     |                      o: 0 (valid) 0x25a-0x25b (1)
     |                                               |                |                  [3]{}: in 0x25b-0x25d (2)
0x250|                                 41            |           A    |                    opcode: "i32.const" (0x41) 0x25b-0x25c (1)
0x250|                                    00         |            .   |                    n: 0 (valid) 0x25c-0x25d (1)
     |                                               |                |                  [4]{}: in 0x25d-0x25f (2)
0x250|                                       10      |             .  |                    opcode: "call" (0x10) 0x25d-0x25e (1)
0x250|                                          04   |              . |                    x: 4 (valid) 0x25e-0x25f (1)
     |                                               |                |                  [5]{}: in 0x25f-0x260 (1)
0x250|                                             0b|               .|                    opcode: "end" (0xb) 0x25f-0x260 (1)
     |                                               |                |            [18]{}: code 0x260-0x26f (15)
0x260|0e                                             |.               |              size: 14 (valid) 0x260-0x261 (1)
     |                                               |                |              code{}: 0x261-0x26f (14)
     |                                               |                |                t{}: 0x261-0x262 (1)
0x260|   00                                          | .              |                  n: 0 (valid) 0x261-0x262 (1)
     |                                               |                |                  x[0:0]: 0x262-0x262 (0)
     |                                               |                |                e[0:7]: 0x262-0x26f (13)
     |                                               |                |                  [0]{}: in 0x262-0x264 (2)
0x260|      41                                       |  A             |                    opcode: "i32.const" (0x41) 0x262-0x263 (1)
0x260|         00                                    |   .            |                    n: 0 (valid) 0x263-0x264 (1)
     |                                               |                |                  [1]{}: in 0x264-0x266 (2)
0x260|            20                                 |                |                    opcode: "local.get" (0x20) 0x264-0x265 (1)
0x260|               00                              |     .          |                    x: 0 (valid) 0x265-0x266 (1)
     |                                               |                |                  [2]{}: in 0x266-0x269 (3)
0x260|                  3d                           |      =         |                    opcode: "i64.store16" (0x3d) 0x266-0x267 (1)
     |                                               |                |                    m{}: 0x267-0x269 (2)
0x260|                     01                        |       .        |                      a: 1 (valid) 0x267-0x268 (1)
0x260|                        00                     |        .       |                      o: 0 (valid) 0x268-0x269 (1)
     |                                               |                |                  [3]{}: in 0x269-0x26b (2)
0x260|                           41                  |         A      |                    opcode: "i32.const" (0x41) 0x269-0x26a (1)
0x260|                              00               |          .     |                    n: 0 (valid) 0x26a-0x26b (1)
     |                                               |                |                  [4]{}: in 0x26b-0x26d (2)
0x260|                                 10            |           .    |                    opcode: "call" (0x10) 0x26b-0x26c (1)
0x260|                                    03         |            .   |                    x: 3 (valid) 0x26c-0x26d (1)
     |                                               |                |                  [5]{}: in 0x26d-0x26e (1)
0x260|                                       ad      |             .  |                    opcode: "i64.extend_i32_u" (0xad) 0x26d-0x26e (1)
     |                                               |                |                  [6]{}: in 0x26e-0x26f (1)
0x260|                                          0b   |              . |                    opcode: "end" (0xb) 0x26e-0x26f (1)
     |                                               |                |            [19]{}: code 0x26f-0x27e (15)
0x260|                                             0e|               .|              size: 14 (valid) 0x26f-0x270 (1)
     |                                               |                |              code{}: 0x270-0x27e (14)
     |                                               |                |                t{}: 0x270-0x271 (1)
0x270|00                                             |.               |                  n: 0 (valid) 0x270-0x271 (1)
     |                                               |                |                  x[0:0]: 0x271-0x271 (0)
     |                                               |                |                e[0:7]: 0x271-0x27e (13)
     |                                               |                |                  [0]{}: in 0x271-0x273 (2)
0x270|   41                                          | A              |                    opcode: "i32.const" (0x41) 0x271-0x272 (1)
0x270|      00                                       |  .             |                    n: 0 (valid) 0x272-0x273 (1)
     |                                               |                |                  [1]{}: in 0x273-0x275 (2)
0x270|         20                                    |                |                    opcode: "local.get" (0x20) 0x273-0x274 (1)
0x270|            00                                 |    .           |                    x: 0 (valid) 0x274-0x275 (1)
     |                                               |                |                  [2]{}: in 0x275-0x278 (3)
0x270|               3e                              |     >          |                    opcode: "i64.store32" (0x3e) 0x275-0x276 (1)
     |                                               |                |                    m{}: 0x276-0x278 (2)
0x270|                  02                           |      .         |                      a: 2 (valid) 0x276-0x277 (1)
0x270|                     00                        |       .        |                      o: 0 (valid) 0x277-0x278 (1)
     |                                               |                |                  [3]{}: in 0x278-0x27a (2)
0x270|                        41                     |        A       |                    opcode: "i32.const" (0x41) 0x278-0x279 (1)
0x270|                           00                  |         .      |                    n: 0 (valid) 0x279-0x27a (1)
     |                                               |                |                  [4]{}: in 0x27a-0x27c (2)
0x270|                              10               |          .     |                    opcode: "call" (0x10) 0x27a-0x27b (1)
0x270|                                 04            |           .    |                    x: 4 (valid) 0x27b-0x27c (1)
     |                                               |                |                  [5]{}: in 0x27c-0x27d (1)
0x270|                                    ad         |            .   |                    opcode: "i64.extend_i32_u" (0xad) 0x27c-0x27d (1)
     |                                               |                |                  [6]{}: in 0x27d-0x27e (1)
0x270|                                       0b      |             .  |                    opcode: "end" (0xb) 0x27d-0x27e (1)
     |                                               |                |            [20]{}: code 0x27e-0x28c (14)
0x270|                                          0d   |              . |              size: 13 (valid) 0x27e-0x27f (1)
     |                                               |                |              code{}: 0x27f-0x28c (13)
     |                                               |                |                t{}: 0x27f-0x280 (1)
0x270|                                             00|               .|                  n: 0 (valid) 0x27f-0x280 (1)
     |                                               |                |                  x[0:0]: 0x280-0x280 (0)
     |                                               |                |                e[0:6]: 0x280-0x28c (12)
     |                                               |                |                  [0]{}: in 0x280-0x282 (2)
0x280|41                                             |A               |                    opcode: "i32.const" (0x41) 0x280-0x281 (1)
0x280|   00                                          | .              |                    n: 0 (valid) 0x281-0x282 (1)
     |                                               |                |                  [1]{}: in 0x282-0x284 (2)
0x280|      20                                       |                |                    opcode: "local.get" (0x20) 0x282-0x283 (1)
0x280|         00                                    |   .            |                    x: 0 (valid) 0x283-0x284 (1)
     |                                               |                |                  [2]{}: in 0x284-0x287 (3)
0x280|            37                                 |    7           |                    opcode: "i64.store" (0x37) 0x284-0x285 (1)
     |                                               |                |                    m{}: 0x285-0x287 (2)
0x280|               03                              |     .          |                      a: 3 (valid) 0x285-0x286 (1)
0x280|                  00                           |      .         |                      o: 0 (valid) 0x286-0x287 (1)
     |                                               |                |                  [3]{}: in 0x287-0x289 (2)
0x280|                     41                        |       A        |                    opcode: "i32.const" (0x41) 0x287-0x288 (1)
0x280|                        00                     |        .       |                    n: 0 (valid) 0x288-0x289 (1)
     |                                               |                |                  [4]{}: in 0x289-0x28b (2)
0x280|                           10                  |         .      |                    opcode: "call" (0x10) 0x289-0x28a (1)
0x280|                              05               |          .     |                    x: 5 (valid) 0x28a-0x28b (1)
     |                                               |                |                  [5]{}: in 0x28b-0x28c (1)
0x280|                                 0b            |           .    |                    opcode: "end" (0xb) 0x28b-0x28c (1)
     |                                               |                |            [21]{}: code 0x28c-0x29b (15)
0x280|                                    0e         |            .   |              size: 14 (valid) 0x28c-0x28d (1)
     |                                               |                |              code{}: 0x28d-0x29b (14)
     |                                               |                |                t{}: 0x28d-0x28e (1)
0x280|                                       00      |             .  |                  n: 0 (valid) 0x28d-0x28e (1)
     |                                               |                |                  x[0:0]: 0x28e-0x28e (0)
     |                                               |                |                e[0:7]: 0x28e-0x29b (13)
     |                                               |                |                  [0]{}: in 0x28e-0x290 (2)
0x280|                                          41   |              A |                    opcode: "i32.const" (0x41) 0x28e-0x28f (1)
0x280|                                             00|               .|                    n: 0 (valid) 0x28f-0x290 (1)
     |                                               |                |                  [1]{}: in 0x290-0x292 (2)
0x290|20                                             |                |                    opcode: "local.get" (0x20) 0x290-0x291 (1)
0x290|   00                                          | .              |                    x: 0 (valid) 0x291-0x292 (1)
     |                                               |                |                  [2]{}: in 0x292-0x295 (3)
0x290|      38                                       |  8             |                    opcode: "f32.store" (0x38) 0x292-0x293 (1)
     |                                               |                |                    m{}: 0x293-0x295 (2)
0x290|         02                                    |   .            |                      a: 2 (valid) 0x293-0x294 (1)
0x290|            00                                 |    .           |                      o: 0 (valid) 0x294-0x295 (1)
     |                                               |                |                  [3]{}: in 0x295-0x297 (2)
0x290|               41                              |     A          |                    opcode: "i32.const" (0x41) 0x295-0x296 (1)
0x290|                  00                           |      .         |                    n: 0 (valid) 0x296-0x297 (1)
     |                                               |                |                  [4]{}: in 0x297-0x299 (2)
0x290|                     10                        |       .        |                    opcode: "call" (0x10) 0x297-0x298 (1)
0x290|                        04                     |        .       |                    x: 4 (valid) 0x298-0x299 (1)
     |                                               |                |                  [5]{}: in 0x299-0x29a (1)
0x290|                           be                  |         .      |                    opcode: "f32.reinterpret_i32" (0xbe) 0x299-0x29a (1)
     |                                               |                |                  [6]{}: in 0x29a-0x29b (1)
0x290|                              0b               |          .     |                    opcode: "end" (0xb) 0x29a-0x29b (1)
     |                                               |                |            [22]{}: code 0x29b-0x2aa (15)
0x290|                                 0e            |           .    |              size: 14 (valid) 0x29b-0x29c (1)
     |                                               |                |              code{}: 0x29c-0x2aa (14)
     |                                               |                |                t{}: 0x29c-0x29d (1)
0x290|                                    00         |            .   |                  n: 0 (valid) 0x29c-0x29d (1)
     |                                               |                |                  x[0:0]: 0x29d-0x29d (0)
     |                                               |                |                e[0:7]: 0x29d-0x2aa (13)
     |                                               |                |                  [0]{}: in 0x29d-0x29f (2)
0x290|                                       41      |             A  |                    opcode: "i32.const" (0x41) 0x29d-0x29e (1)
0x290|                                          00   |              . |                    n: 0 (valid) 0x29e-0x29f (1)
     |                                               |                |                  [1]{}: in 0x29f-0x2a1 (2)
0x290|                                             20|                |                    opcode: "local.get" (0x20) 0x29f-0x2a0 (1)
0x2a0|00                                             |.               |                    x: 0 (valid) 0x2a0-0x2a1 (1)
     |                                               |                |                  [2]{}: in 0x2a1-0x2a4 (3)
0x2a0|   39                                          | 9              |                    opcode: "f64.store" (0x39) 0x2a1-0x2a2 (1)
     |                                               |                |                    m{}: 0x2a2-0x2a4 (2)
0x2a0|      03                                       |  .             |                      a: 3 (valid) 0x2a2-0x2a3 (1)
0x2a0|         00                                    |   .            |                      o: 0 (valid) 0x2a3-0x2a4 (1)
     |                                               |                |                  [3]{}: in 0x2a4-0x2a6 (2)
0x2a0|            41                                 |    A           |                    opcode: "i32.const" (0x41) 0x2a4-0x2a5 (1)
0x2a0|               00                              |     .          |                    n: 0 (valid) 0x2a5-0x2a6 (1)
     |                                               |                |                  [4]{}: in 0x2a6-0x2a8 (2)
0x2a0|                  10                           |      .         |                    opcode: "call" (0x10) 0x2a6-0x2a7 (1)
0x2a0|                     05                        |       .        |                    x: 5 (valid) 0x2a7-0x2a8 (1)
     |                                               |                |                  [5]{}: in 0x2a8-0x2a9 (1)
0x2a0|                        bf                     |        .       |                    opcode: "f64.reinterpret_i64" (0xbf) 0x2a8-0x2a9 (1)
     |                                               |                |                  [6]{}: in 0x2a9-0x2aa (1)
0x2a0|                           0b|                 |         .|     |                    opcode: "end" (0xb) 0x2a9-0x2aa (1)
