$ fq -d wasm dv endianness-0.wasm
     |00 01 02 03 04 05 06 07 08 09 0a 0b 0c 0d 0e 0f|0123456789abcdef|.{}: endianness-0.wasm (wasm) 0x0-0x2a9.7 (682)
0x000|00 61 73 6d                                    |.asm            |  magic: raw bits (valid) 0x0-0x3.7 (4)
0x000|            01 00 00 00                        |    ....        |  version: 1 0x4-0x7.7 (4)
     |                                               |                |  sections[0:5]: 0x8-0x2a9.7 (674)
     |                                               |                |    [0]{}: section 0x8-0x2d.7 (38)
0x000|                        01                     |        .       |      id: "type section" (1) 0x8-0x8.7 (1)
0x000|                           24                  |         $      |      size: 36 0x9-0x9.7 (1)
     |                                               |                |      content{}: 0xa-0x2d.7 (36)
     |                                               |                |        ft{}: 0xa-0x2d.7 (36)
0x000|                              07               |          .     |          n: 7 0xa-0xa.7 (1)
     |                                               |                |          x[0:7]: 0xb-0x2d.7 (35)
     |                                               |                |            [0]{}: ft 0xb-0xf.7 (5)
0x000|                                 60            |           `    |              tag: 0x60 (valid) 0xb-0xb.7 (1)
     |                                               |                |              rt1{}: 0xc-0xe.7 (3)
0x000|                                    02         |            .   |                n: 2 0xc-0xc.7 (1)
     |                                               |                |                x[0:2]: 0xd-0xe.7 (2)
0x000|                                       7f      |             .  |                  [0]: "i32" (0x7f) t 0xd-0xd.7 (1)
0x000|                                          7f   |              . |                  [1]: "i32" (0x7f) t 0xe-0xe.7 (1)
     |                                               |                |              rt2{}: 0xf-0xf.7 (1)
0x000|                                             00|               .|                n: 0 0xf-0xf.7 (1)
     |                                               |                |                x[0:0]: 0x10-NA (0)
     |                                               |                |            [1]{}: ft 0x10-0x14.7 (5)
0x010|60                                             |`               |              tag: 0x60 (valid) 0x10-0x10.7 (1)
     |                                               |                |              rt1{}: 0x11-0x13.7 (3)
0x010|   02                                          | .              |                n: 2 0x11-0x11.7 (1)
     |                                               |                |                x[0:2]: 0x12-0x13.7 (2)
0x010|      7f                                       |  .             |                  [0]: "i32" (0x7f) t 0x12-0x12.7 (1)
0x010|         7e                                    |   ~            |                  [1]: "i64" (0x7e) t 0x13-0x13.7 (1)
     |                                               |                |              rt2{}: 0x14-0x14.7 (1)
0x010|            00                                 |    .           |                n: 0 0x14-0x14.7 (1)
     |                                               |                |                x[0:0]: 0x15-NA (0)
     |                                               |                |            [2]{}: ft 0x15-0x19.7 (5)
0x010|               60                              |     `          |              tag: 0x60 (valid) 0x15-0x15.7 (1)
     |                                               |                |              rt1{}: 0x16-0x17.7 (2)
0x010|                  01                           |      .         |                n: 1 0x16-0x16.7 (1)
     |                                               |                |                x[0:1]: 0x17-0x17.7 (1)
0x010|                     7f                        |       .        |                  [0]: "i32" (0x7f) t 0x17-0x17.7 (1)
     |                                               |                |              rt2{}: 0x18-0x19.7 (2)
0x010|                        01                     |        .       |                n: 1 0x18-0x18.7 (1)
     |                                               |                |                x[0:1]: 0x19-0x19.7 (1)
0x010|                           7f                  |         .      |                  [0]: "i32" (0x7f) t 0x19-0x19.7 (1)
     |                                               |                |            [3]{}: ft 0x1a-0x1e.7 (5)
0x010|                              60               |          `     |              tag: 0x60 (valid) 0x1a-0x1a.7 (1)
     |                                               |                |              rt1{}: 0x1b-0x1c.7 (2)
0x010|                                 01            |           .    |                n: 1 0x1b-0x1b.7 (1)
     |                                               |                |                x[0:1]: 0x1c-0x1c.7 (1)
0x010|                                    7f         |            .   |                  [0]: "i32" (0x7f) t 0x1c-0x1c.7 (1)
     |                                               |                |              rt2{}: 0x1d-0x1e.7 (2)
0x010|                                       01      |             .  |                n: 1 0x1d-0x1d.7 (1)
     |                                               |                |                x[0:1]: 0x1e-0x1e.7 (1)
0x010|                                          7e   |              ~ |                  [0]: "i64" (0x7e) t 0x1e-0x1e.7 (1)
     |                                               |                |            [4]{}: ft 0x1f-0x23.7 (5)
0x010|                                             60|               `|              tag: 0x60 (valid) 0x1f-0x1f.7 (1)
     |                                               |                |              rt1{}: 0x20-0x21.7 (2)
0x020|01                                             |.               |                n: 1 0x20-0x20.7 (1)
     |                                               |                |                x[0:1]: 0x21-0x21.7 (1)
0x020|   7e                                          | ~              |                  [0]: "i64" (0x7e) t 0x21-0x21.7 (1)
     |                                               |                |              rt2{}: 0x22-0x23.7 (2)
0x020|      01                                       |  .             |                n: 1 0x22-0x22.7 (1)
     |                                               |                |                x[0:1]: 0x23-0x23.7 (1)
0x020|         7e                                    |   ~            |                  [0]: "i64" (0x7e) t 0x23-0x23.7 (1)
     |                                               |                |            [5]{}: ft 0x24-0x28.7 (5)
0x020|            60                                 |    `           |              tag: 0x60 (valid) 0x24-0x24.7 (1)
     |                                               |                |              rt1{}: 0x25-0x26.7 (2)
0x020|               01                              |     .          |                n: 1 0x25-0x25.7 (1)
     |                                               |                |                x[0:1]: 0x26-0x26.7 (1)
0x020|                  7d                           |      }         |                  [0]: "f32" (0x7d) t 0x26-0x26.7 (1)
     |                                               |                |              rt2{}: 0x27-0x28.7 (2)
0x020|                     01                        |       .        |                n: 1 0x27-0x27.7 (1)
     |                                               |                |                x[0:1]: 0x28-0x28.7 (1)
0x020|                        7d                     |        }       |                  [0]: "f32" (0x7d) t 0x28-0x28.7 (1)
     |                                               |                |            [6]{}: ft 0x29-0x2d.7 (5)
0x020|                           60                  |         `      |              tag: 0x60 (valid) 0x29-0x29.7 (1)
     |                                               |                |              rt1{}: 0x2a-0x2b.7 (2)
0x020|                              01               |          .     |                n: 1 0x2a-0x2a.7 (1)
     |                                               |                |                x[0:1]: 0x2b-0x2b.7 (1)
0x020|                                 7c            |           |    |                  [0]: "f64" (0x7c) t 0x2b-0x2b.7 (1)
     |                                               |                |              rt2{}: 0x2c-0x2d.7 (2)
0x020|                                    01         |            .   |                n: 1 0x2c-0x2c.7 (1)
     |                                               |                |                x[0:1]: 0x2d-0x2d.7 (1)
0x020|                                       7c      |             |  |                  [0]: "f64" (0x7c) t 0x2d-0x2d.7 (1)
     |                                               |                |    [1]{}: section 0x2e-0x47.7 (26)
0x020|                                          03   |              . |      id: "function section" (3) 0x2e-0x2e.7 (1)
0x020|                                             18|               .|      size: 24 0x2f-0x2f.7 (1)
     |                                               |                |      content{}: 0x30-0x47.7 (24)
     |                                               |                |        x{}: 0x30-0x47.7 (24)
0x030|17                                             |.               |          n: 23 0x30-0x30.7 (1)
     |                                               |                |          x[0:23]: 0x31-0x47.7 (23)
0x030|   00                                          | .              |            [0]: 0 x 0x31-0x31.7 (1)
0x030|      00                                       |  .             |            [1]: 0 x 0x32-0x32.7 (1)
0x030|         01                                    |   .            |            [2]: 1 x 0x33-0x33.7 (1)
0x030|            02                                 |    .           |            [3]: 2 x 0x34-0x34.7 (1)
0x030|               02                              |     .          |            [4]: 2 x 0x35-0x35.7 (1)
0x030|                  03                           |      .         |            [5]: 3 x 0x36-0x36.7 (1)
0x030|                     02                        |       .        |            [6]: 2 x 0x37-0x37.7 (1)
0x030|                        02                     |        .       |            [7]: 2 x 0x38-0x38.7 (1)
0x030|                           02                  |         .      |            [8]: 2 x 0x39-0x39.7 (1)
0x030|                              04               |          .     |            [9]: 4 x 0x3a-0x3a.7 (1)
0x030|                                 04            |           .    |            [10]: 4 x 0x3b-0x3b.7 (1)
0x030|                                    04         |            .   |            [11]: 4 x 0x3c-0x3c.7 (1)
0x030|                                       04      |             .  |            [12]: 4 x 0x3d-0x3d.7 (1)
0x030|                                          04   |              . |            [13]: 4 x 0x3e-0x3e.7 (1)
0x030|                                             05|               .|            [14]: 5 x 0x3f-0x3f.7 (1)
0x040|06                                             |.               |            [15]: 6 x 0x40-0x40.7 (1)
0x040|   02                                          | .              |            [16]: 2 x 0x41-0x41.7 (1)
0x040|      02                                       |  .             |            [17]: 2 x 0x42-0x42.7 (1)
0x040|         04                                    |   .            |            [18]: 4 x 0x43-0x43.7 (1)
0x040|            04                                 |    .           |            [19]: 4 x 0x44-0x44.7 (1)
0x040|               04                              |     .          |            [20]: 4 x 0x45-0x45.7 (1)
0x040|                  05                           |      .         |            [21]: 5 x 0x46-0x46.7 (1)
0x040|                     06                        |       .        |            [22]: 6 x 0x47-0x47.7 (1)
     |                                               |                |    [2]{}: section 0x48-0x4c.7 (5)
0x040|                        05                     |        .       |      id: "memory section" (5) 0x48-0x48.7 (1)
0x040|                           03                  |         .      |      size: 3 0x49-0x49.7 (1)
     |                                               |                |      content{}: 0x4a-0x4c.7 (3)
     |                                               |                |        mem{}: 0x4a-0x4c.7 (3)
0x040|                              01               |          .     |          n: 1 0x4a-0x4a.7 (1)
     |                                               |                |          x[0:1]: 0x4b-0x4c.7 (2)
     |                                               |                |            [0]{}: mem 0x4b-0x4c.7 (2)
     |                                               |                |              lim{}: 0x4b-0x4c.7 (2)
0x040|                                 00            |           .    |                tag: 0x0 0x4b-0x4b.7 (1)
0x040|                                    01         |            .   |                n: 1 0x4c-0x4c.7 (1)
     |                                               |                |    [3]{}: section 0x4d-0x130.7 (228)
0x040|                                       07      |             .  |      id: "export section" (7) 0x4d-0x4d.7 (1)
0x040|                                          e1 01|              ..|      size: 225 0x4e-0x4f.7 (2)
     |                                               |                |      content{}: 0x50-0x130.7 (225)
     |                                               |                |        ex{}: 0x50-0x130.7 (225)
0x050|11                                             |.               |          n: 17 0x50-0x50.7 (1)
     |                                               |                |          x[0:17]: 0x51-0x130.7 (224)
     |                                               |                |            [0]{}: ex 0x51-0x5f.7 (15)
     |                                               |                |              nm{}: 0x51-0x5d.7 (13)
0x050|   0c                                          | .              |                n: 12 0x51-0x51.7 (1)
0x050|      69 33 32 5f 6c 6f 61 64 31 36 5f 73      |  i32_load16_s  |                b: "i32_load16_s" 0x52-0x5d.7 (12)
     |                                               |                |              d{}: 0x5e-0x5f.7 (2)
0x050|                                          00   |              . |                tag: "funcidx" (0x0) 0x5e-0x5e.7 (1)
0x050|                                             06|               .|                x: 6 0x5f-0x5f.7 (1)
     |                                               |                |            [1]{}: ex 0x60-0x6e.7 (15)
     |                                               |                |              nm{}: 0x60-0x6c.7 (13)
0x060|0c                                             |.               |                n: 12 0x60-0x60.7 (1)
0x060|   69 33 32 5f 6c 6f 61 64 31 36 5f 75         | i32_load16_u   |                b: "i32_load16_u" 0x61-0x6c.7 (12)
     |                                               |                |              d{}: 0x6d-0x6e.7 (2)
0x060|                                       00      |             .  |                tag: "funcidx" (0x0) 0x6d-0x6d.7 (1)
0x060|                                          07   |              . |                x: 7 0x6e-0x6e.7 (1)
     |                                               |                |            [2]{}: ex 0x6f-0x79.7 (11)
     |                                               |                |              nm{}: 0x6f-0x77.7 (9)
0x060|                                             08|               .|                n: 8 0x6f-0x6f.7 (1)
0x070|69 33 32 5f 6c 6f 61 64                        |i32_load        |                b: "i32_load" 0x70-0x77.7 (8)
     |                                               |                |              d{}: 0x78-0x79.7 (2)
0x070|                        00                     |        .       |                tag: "funcidx" (0x0) 0x78-0x78.7 (1)
0x070|                           08                  |         .      |                x: 8 0x79-0x79.7 (1)
     |                                               |                |            [3]{}: ex 0x7a-0x88.7 (15)
     |                                               |                |              nm{}: 0x7a-0x86.7 (13)
0x070|                              0c               |          .     |                n: 12 0x7a-0x7a.7 (1)
0x070|                                 69 36 34 5f 6c|           i64_l|                b: "i64_load16_s" 0x7b-0x86.7 (12)
0x080|6f 61 64 31 36 5f 73                           |oad16_s         |
     |                                               |                |              d{}: 0x87-0x88.7 (2)
0x080|                     00                        |       .        |                tag: "funcidx" (0x0) 0x87-0x87.7 (1)
0x080|                        09                     |        .       |                x: 9 0x88-0x88.7 (1)
     |                                               |                |            [4]{}: ex 0x89-0x97.7 (15)
     |                                               |                |              nm{}: 0x89-0x95.7 (13)
0x080|                           0c                  |         .      |                n: 12 0x89-0x89.7 (1)
0x080|                              69 36 34 5f 6c 6f|          i64_lo|                b: "i64_load16_u" 0x8a-0x95.7 (12)
0x090|61 64 31 36 5f 75                              |ad16_u          |
     |                                               |                |              d{}: 0x96-0x97.7 (2)
0x090|                  00                           |      .         |                tag: "funcidx" (0x0) 0x96-0x96.7 (1)
0x090|                     0a                        |       .        |                x: 10 0x97-0x97.7 (1)
     |                                               |                |            [5]{}: ex 0x98-0xa6.7 (15)
     |                                               |                |              nm{}: 0x98-0xa4.7 (13)
0x090|                        0c                     |        .       |                n: 12 0x98-0x98.7 (1)
0x090|                           69 36 34 5f 6c 6f 61|         i64_loa|                b: "i64_load32_s" 0x99-0xa4.7 (12)
0x0a0|64 33 32 5f 73                                 |d32_s           |
     |                                               |                |              d{}: 0xa5-0xa6.7 (2)
0x0a0|               00                              |     .          |                tag: "funcidx" (0x0) 0xa5-0xa5.7 (1)
0x0a0|                  0b                           |      .         |                x: 11 0xa6-0xa6.7 (1)
     |                                               |                |            [6]{}: ex 0xa7-0xb5.7 (15)
     |                                               |                |              nm{}: 0xa7-0xb3.7 (13)
0x0a0|                     0c                        |       .        |                n: 12 0xa7-0xa7.7 (1)
0x0a0|                        69 36 34 5f 6c 6f 61 64|        i64_load|                b: "i64_load32_u" 0xa8-0xb3.7 (12)
0x0b0|33 32 5f 75                                    |32_u            |
     |                                               |                |              d{}: 0xb4-0xb5.7 (2)
0x0b0|            00                                 |    .           |                tag: "funcidx" (0x0) 0xb4-0xb4.7 (1)
0x0b0|               0c                              |     .          |                x: 12 0xb5-0xb5.7 (1)
     |                                               |                |            [7]{}: ex 0xb6-0xc0.7 (11)
     |                                               |                |              nm{}: 0xb6-0xbe.7 (9)
0x0b0|                  08                           |      .         |                n: 8 0xb6-0xb6.7 (1)
0x0b0|                     69 36 34 5f 6c 6f 61 64   |       i64_load |                b: "i64_load" 0xb7-0xbe.7 (8)
     |                                               |                |              d{}: 0xbf-0xc0.7 (2)
0x0b0|                                             00|               .|                tag: "funcidx" (0x0) 0xbf-0xbf.7 (1)
0x0c0|0d                                             |.               |                x: 13 0xc0-0xc0.7 (1)
     |                                               |                |            [8]{}: ex 0xc1-0xcb.7 (11)
     |                                               |                |              nm{}: 0xc1-0xc9.7 (9)
0x0c0|   08                                          | .              |                n: 8 0xc1-0xc1.7 (1)
0x0c0|      66 33 32 5f 6c 6f 61 64                  |  f32_load      |                b: "f32_load" 0xc2-0xc9.7 (8)
     |                                               |                |              d{}: 0xca-0xcb.7 (2)
0x0c0|                              00               |          .     |                tag: "funcidx" (0x0) 0xca-0xca.7 (1)
0x0c0|                                 0e            |           .    |                x: 14 0xcb-0xcb.7 (1)
     |                                               |                |            [9]{}: ex 0xcc-0xd6.7 (11)
     |                                               |                |              nm{}: 0xcc-0xd4.7 (9)
0x0c0|                                    08         |            .   |                n: 8 0xcc-0xcc.7 (1)
0x0c0|                                       66 36 34|             f64|                b: "f64_load" 0xcd-0xd4.7 (8)
0x0d0|5f 6c 6f 61 64                                 |_load           |
     |                                               |                |              d{}: 0xd5-0xd6.7 (2)
0x0d0|               00                              |     .          |                tag: "funcidx" (0x0) 0xd5-0xd5.7 (1)
0x0d0|                  0f                           |      .         |                x: 15 0xd6-0xd6.7 (1)
     |                                               |                |            [10]{}: ex 0xd7-0xe4.7 (14)
     |                                               |                |              nm{}: 0xd7-0xe2.7 (12)
0x0d0|                     0b                        |       .        |                n: 11 0xd7-0xd7.7 (1)
0x0d0|                        69 33 32 5f 73 74 6f 72|        i32_stor|                b: "i32_store16" 0xd8-0xe2.7 (11)
0x0e0|65 31 36                                       |e16             |
     |                                               |                |              d{}: 0xe3-0xe4.7 (2)
0x0e0|         00                                    |   .            |                tag: "funcidx" (0x0) 0xe3-0xe3.7 (1)
0x0e0|            10                                 |    .           |                x: 16 0xe4-0xe4.7 (1)
     |                                               |                |            [11]{}: ex 0xe5-0xf0.7 (12)
     |                                               |                |              nm{}: 0xe5-0xee.7 (10)
0x0e0|               09                              |     .          |                n: 9 0xe5-0xe5.7 (1)
0x0e0|                  69 33 32 5f 73 74 6f 72 65   |      i32_store |                b: "i32_store" 0xe6-0xee.7 (9)
     |                                               |                |              d{}: 0xef-0xf0.7 (2)
0x0e0|                                             00|               .|                tag: "funcidx" (0x0) 0xef-0xef.7 (1)
0x0f0|11                                             |.               |                x: 17 0xf0-0xf0.7 (1)
     |                                               |                |            [12]{}: ex 0xf1-0xfe.7 (14)
     |                                               |                |              nm{}: 0xf1-0xfc.7 (12)
0x0f0|   0b                                          | .              |                n: 11 0xf1-0xf1.7 (1)
0x0f0|      69 36 34 5f 73 74 6f 72 65 31 36         |  i64_store16   |                b: "i64_store16" 0xf2-0xfc.7 (11)
     |                                               |                |              d{}: 0xfd-0xfe.7 (2)
0x0f0|                                       00      |             .  |                tag: "funcidx" (0x0) 0xfd-0xfd.7 (1)
0x0f0|                                          12   |              . |                x: 18 0xfe-0xfe.7 (1)
     |                                               |                |            [13]{}: ex 0xff-0x10c.7 (14)
     |                                               |                |              nm{}: 0xff-0x10a.7 (12)
0x0f0|                                             0b|               .|                n: 11 0xff-0xff.7 (1)
0x100|69 36 34 5f 73 74 6f 72 65 33 32               |i64_store32     |                b: "i64_store32" 0x100-0x10a.7 (11)
     |                                               |                |              d{}: 0x10b-0x10c.7 (2)
0x100|                                 00            |           .    |                tag: "funcidx" (0x0) 0x10b-0x10b.7 (1)
0x100|                                    13         |            .   |                x: 19 0x10c-0x10c.7 (1)
     |                                               |                |            [14]{}: ex 0x10d-0x118.7 (12)
     |                                               |                |              nm{}: 0x10d-0x116.7 (10)
0x100|                                       09      |             .  |                n: 9 0x10d-0x10d.7 (1)
0x100|                                          69 36|              i6|                b: "i64_store" 0x10e-0x116.7 (9)
0x110|34 5f 73 74 6f 72 65                           |4_store         |
     |                                               |                |              d{}: 0x117-0x118.7 (2)
0x110|                     00                        |       .        |                tag: "funcidx" (0x0) 0x117-0x117.7 (1)
0x110|                        14                     |        .       |                x: 20 0x118-0x118.7 (1)
     |                                               |                |            [15]{}: ex 0x119-0x124.7 (12)
     |                                               |                |              nm{}: 0x119-0x122.7 (10)
0x110|                           09                  |         .      |                n: 9 0x119-0x119.7 (1)
0x110|                              66 33 32 5f 73 74|          f32_st|                b: "f32_store" 0x11a-0x122.7 (9)
0x120|6f 72 65                                       |ore             |
     |                                               |                |              d{}: 0x123-0x124.7 (2)
0x120|         00                                    |   .            |                tag: "funcidx" (0x0) 0x123-0x123.7 (1)
0x120|            15                                 |    .           |                x: 21 0x124-0x124.7 (1)
     |                                               |                |            [16]{}: ex 0x125-0x130.7 (12)
     |                                               |                |              nm{}: 0x125-0x12e.7 (10)
0x120|               09                              |     .          |                n: 9 0x125-0x125.7 (1)
0x120|                  66 36 34 5f 73 74 6f 72 65   |      f64_store |                b: "f64_store" 0x126-0x12e.7 (9)
     |                                               |                |              d{}: 0x12f-0x130.7 (2)
0x120|                                             00|               .|                tag: "funcidx" (0x0) 0x12f-0x12f.7 (1)
0x130|16                                             |.               |                x: 22 0x130-0x130.7 (1)
     |                                               |                |    [4]{}: section 0x131-0x2a9.7 (377)
0x130|   0a                                          | .              |      id: "code section" (10) 0x131-0x131.7 (1)
0x130|      f6 02                                    |  ..            |      size: 374 0x132-0x133.7 (2)
     |                                               |                |      content{}: 0x134-0x2a9.7 (374)
     |                                               |                |        code{}: 0x134-0x2a9.7 (374)
0x130|            17                                 |    .           |          n: 23 0x134-0x134.7 (1)
     |                                               |                |          x[0:23]: 0x135-0x2a9.7 (373)
     |                                               |                |            [0]{}: code 0x135-0x14b.7 (23)
0x130|               16                              |     .          |              size: 22 0x135-0x135.7 (1)
     |                                               |                |              code{}: 0x136-0x14b.7 (22)
     |                                               |                |                t{}: 0x136-0x136.7 (1)
0x130|                  00                           |      .         |                  n: 0 0x136-0x136.7 (1)
     |                                               |                |                  x[0:0]: 0x137-NA (0)
     |                                               |                |                e[0:11]: 0x137-0x14b.7 (21)
     |                                               |                |                  [0]{}: in 0x137-0x138.7 (2)
0x130|                     20                        |                |                    local.get: 0x20 (valid) 0x137-0x137.7 (1)
0x130|                        00                     |        .       |                    x: 0 0x138-0x138.7 (1)
     |                                               |                |                  [1]{}: in 0x139-0x13a.7 (2)
0x130|                           20                  |                |                    local.get: 0x20 (valid) 0x139-0x139.7 (1)
0x130|                              01               |          .     |                    x: 1 0x13a-0x13a.7 (1)
     |                                               |                |                  [2]{}: in 0x13b-0x13d.7 (3)
0x130|                                 3a            |           :    |                    i32.store8: 0x3a (valid) 0x13b-0x13b.7 (1)
     |                                               |                |                    m{}: 0x13c-0x13d.7 (2)
0x130|                                    00         |            .   |                      a: 0 0x13c-0x13c.7 (1)
0x130|                                       00      |             .  |                      o: 0 0x13d-0x13d.7 (1)
     |                                               |                |                  [3]{}: in 0x13e-0x13f.7 (2)
0x130|                                          20   |                |                    local.get: 0x20 (valid) 0x13e-0x13e.7 (1)
0x130|                                             00|               .|                    x: 0 0x13f-0x13f.7 (1)
     |                                               |                |                  [4]{}: in 0x140-0x141.7 (2)
0x140|41                                             |A               |                    i32.const: 0x41 (valid) 0x140-0x140.7 (1)
0x140|   01                                          | .              |                    n: 1 0x141-0x141.7 (1)
     |                                               |                |                  [5]{}: in 0x142-0x142.7 (1)
0x140|      6a                                       |  j             |                    i32.add: 0x6a (valid) 0x142-0x142.7 (1)
     |                                               |                |                  [6]{}: in 0x143-0x144.7 (2)
0x140|         20                                    |                |                    local.get: 0x20 (valid) 0x143-0x143.7 (1)
0x140|            01                                 |    .           |                    x: 1 0x144-0x144.7 (1)
     |                                               |                |                  [7]{}: in 0x145-0x146.7 (2)
0x140|               41                              |     A          |                    i32.const: 0x41 (valid) 0x145-0x145.7 (1)
0x140|                  08                           |      .         |                    n: 8 0x146-0x146.7 (1)
     |                                               |                |                  [8]{}: in 0x147-0x147.7 (1)
0x140|                     76                        |       v        |                    i32.shr_u: 0x76 (valid) 0x147-0x147.7 (1)
     |                                               |                |                  [9]{}: in 0x148-0x14a.7 (3)
0x140|                        3a                     |        :       |                    i32.store8: 0x3a (valid) 0x148-0x148.7 (1)
     |                                               |                |                    m{}: 0x149-0x14a.7 (2)
0x140|                           00                  |         .      |                      a: 0 0x149-0x149.7 (1)
0x140|                              00               |          .     |                      o: 0 0x14a-0x14a.7 (1)
     |                                               |                |                  [10]{}: in 0x14b-0x14b.7 (1)
0x140|                                 0b            |           .    |                    end: 0xb (valid) 0x14b-0x14b.7 (1)
     |                                               |                |            [1]{}: code 0x14c-0x160.7 (21)
0x140|                                    14         |            .   |              size: 20 0x14c-0x14c.7 (1)
     |                                               |                |              code{}: 0x14d-0x160.7 (20)
     |                                               |                |                t{}: 0x14d-0x14d.7 (1)
0x140|                                       00      |             .  |                  n: 0 0x14d-0x14d.7 (1)
     |                                               |                |                  x[0:0]: 0x14e-NA (0)
     |                                               |                |                e[0:11]: 0x14e-0x160.7 (19)
     |                                               |                |                  [0]{}: in 0x14e-0x14f.7 (2)
0x140|                                          20   |                |                    local.get: 0x20 (valid) 0x14e-0x14e.7 (1)
0x140|                                             00|               .|                    x: 0 0x14f-0x14f.7 (1)
     |                                               |                |                  [1]{}: in 0x150-0x151.7 (2)
0x150|20                                             |                |                    local.get: 0x20 (valid) 0x150-0x150.7 (1)
0x150|   01                                          | .              |                    x: 1 0x151-0x151.7 (1)
     |                                               |                |                  [2]{}: in 0x152-0x153.7 (2)
0x150|      10                                       |  .             |                    call: 0x10 (valid) 0x152-0x152.7 (1)
0x150|         00                                    |   .            |                    x: 0 0x153-0x153.7 (1)
     |                                               |                |                  [3]{}: in 0x154-0x155.7 (2)
0x150|            20                                 |                |                    local.get: 0x20 (valid) 0x154-0x154.7 (1)
0x150|               00                              |     .          |                    x: 0 0x155-0x155.7 (1)
     |                                               |                |                  [4]{}: in 0x156-0x157.7 (2)
0x150|                  41                           |      A         |                    i32.const: 0x41 (valid) 0x156-0x156.7 (1)
0x150|                     02                        |       .        |                    n: 2 0x157-0x157.7 (1)
     |                                               |                |                  [5]{}: in 0x158-0x158.7 (1)
0x150|                        6a                     |        j       |                    i32.add: 0x6a (valid) 0x158-0x158.7 (1)
     |                                               |                |                  [6]{}: in 0x159-0x15a.7 (2)
0x150|                           20                  |                |                    local.get: 0x20 (valid) 0x159-0x159.7 (1)
0x150|                              01               |          .     |                    x: 1 0x15a-0x15a.7 (1)
     |                                               |                |                  [7]{}: in 0x15b-0x15c.7 (2)
0x150|                                 41            |           A    |                    i32.const: 0x41 (valid) 0x15b-0x15b.7 (1)
0x150|                                    10         |            .   |                    n: 16 0x15c-0x15c.7 (1)
     |                                               |                |                  [8]{}: in 0x15d-0x15d.7 (1)
0x150|                                       76      |             v  |                    i32.shr_u: 0x76 (valid) 0x15d-0x15d.7 (1)
     |                                               |                |                  [9]{}: in 0x15e-0x15f.7 (2)
0x150|                                          10   |              . |                    call: 0x10 (valid) 0x15e-0x15e.7 (1)
0x150|                                             00|               .|                    x: 0 0x15f-0x15f.7 (1)
     |                                               |                |                  [10]{}: in 0x160-0x160.7 (1)
0x160|0b                                             |.               |                    end: 0xb (valid) 0x160-0x160.7 (1)
     |                                               |                |            [2]{}: code 0x161-0x177.7 (23)
0x160|   16                                          | .              |              size: 22 0x161-0x161.7 (1)
     |                                               |                |              code{}: 0x162-0x177.7 (22)
     |                                               |                |                t{}: 0x162-0x162.7 (1)
0x160|      00                                       |  .             |                  n: 0 0x162-0x162.7 (1)
     |                                               |                |                  x[0:0]: 0x163-NA (0)
     |                                               |                |                e[0:13]: 0x163-0x177.7 (21)
     |                                               |                |                  [0]{}: in 0x163-0x164.7 (2)
0x160|         20                                    |                |                    local.get: 0x20 (valid) 0x163-0x163.7 (1)
0x160|            00                                 |    .           |                    x: 0 0x164-0x164.7 (1)
     |                                               |                |                  [1]{}: in 0x165-0x166.7 (2)
0x160|               20                              |                |                    local.get: 0x20 (valid) 0x165-0x165.7 (1)
0x160|                  01                           |      .         |                    x: 1 0x166-0x166.7 (1)
     |                                               |                |                  [2]{}: in 0x167-0x167.7 (1)
0x160|                     a7                        |       .        |                    i32.wrap_i64: 0xa7 (valid) 0x167-0x167.7 (1)
     |                                               |                |                  [3]{}: in 0x168-0x169.7 (2)
0x160|                        10                     |        .       |                    call: 0x10 (valid) 0x168-0x168.7 (1)
0x160|                           01                  |         .      |                    x: 1 0x169-0x169.7 (1)
     |                                               |                |                  [4]{}: in 0x16a-0x16b.7 (2)
0x160|                              20               |                |                    local.get: 0x20 (valid) 0x16a-0x16a.7 (1)
0x160|                                 00            |           .    |                    x: 0 0x16b-0x16b.7 (1)
     |                                               |                |                  [5]{}: in 0x16c-0x16d.7 (2)
0x160|                                    41         |            A   |                    i32.const: 0x41 (valid) 0x16c-0x16c.7 (1)
0x160|                                       04      |             .  |                    n: 4 0x16d-0x16d.7 (1)
     |                                               |                |                  [6]{}: in 0x16e-0x16e.7 (1)
0x160|                                          6a   |              j |                    i32.add: 0x6a (valid) 0x16e-0x16e.7 (1)
     |                                               |                |                  [7]{}: in 0x16f-0x170.7 (2)
0x160|                                             20|                |                    local.get: 0x20 (valid) 0x16f-0x16f.7 (1)
0x170|01                                             |.               |                    x: 1 0x170-0x170.7 (1)
     |                                               |                |                  [8]{}: in 0x171-0x172.7 (2)
0x170|   42                                          | B              |                    i64.const: 0x42 (valid) 0x171-0x171.7 (1)
0x170|      20                                       |                |                    n: 32 0x172-0x172.7 (1)
     |                                               |                |                  [9]{}: in 0x173-0x173.7 (1)
0x170|         88                                    |   .            |                    i64.shr_u: 0x88 (valid) 0x173-0x173.7 (1)
     |                                               |                |                  [10]{}: in 0x174-0x174.7 (1)
0x170|            a7                                 |    .           |                    i32.wrap_i64: 0xa7 (valid) 0x174-0x174.7 (1)
     |                                               |                |                  [11]{}: in 0x175-0x176.7 (2)
0x170|               10                              |     .          |                    call: 0x10 (valid) 0x175-0x175.7 (1)
0x170|                  01                           |      .         |                    x: 1 0x176-0x176.7 (1)
     |                                               |                |                  [12]{}: in 0x177-0x177.7 (1)
0x170|                     0b                        |       .        |                    end: 0xb (valid) 0x177-0x177.7 (1)
     |                                               |                |            [3]{}: code 0x178-0x18b.7 (20)
0x170|                        13                     |        .       |              size: 19 0x178-0x178.7 (1)
     |                                               |                |              code{}: 0x179-0x18b.7 (19)
     |                                               |                |                t{}: 0x179-0x179.7 (1)
0x170|                           00                  |         .      |                  n: 0 0x179-0x179.7 (1)
     |                                               |                |                  x[0:0]: 0x17a-NA (0)
     |                                               |                |                e[0:10]: 0x17a-0x18b.7 (18)
     |                                               |                |                  [0]{}: in 0x17a-0x17b.7 (2)
0x170|                              20               |                |                    local.get: 0x20 (valid) 0x17a-0x17a.7 (1)
0x170|                                 00            |           .    |                    x: 0 0x17b-0x17b.7 (1)
     |                                               |                |                  [1]{}: in 0x17c-0x17e.7 (3)
0x170|                                    2d         |            -   |                    i32.load8_u: 0x2d (valid) 0x17c-0x17c.7 (1)
     |                                               |                |                    m{}: 0x17d-0x17e.7 (2)
0x170|                                       00      |             .  |                      a: 0 0x17d-0x17d.7 (1)
0x170|                                          00   |              . |                      o: 0 0x17e-0x17e.7 (1)
     |                                               |                |                  [2]{}: in 0x17f-0x180.7 (2)
0x170|                                             20|                |                    local.get: 0x20 (valid) 0x17f-0x17f.7 (1)
0x180|00                                             |.               |                    x: 0 0x180-0x180.7 (1)
     |                                               |                |                  [3]{}: in 0x181-0x182.7 (2)
0x180|   41                                          | A              |                    i32.const: 0x41 (valid) 0x181-0x181.7 (1)
0x180|      01                                       |  .             |                    n: 1 0x182-0x182.7 (1)
     |                                               |                |                  [4]{}: in 0x183-0x183.7 (1)
0x180|         6a                                    |   j            |                    i32.add: 0x6a (valid) 0x183-0x183.7 (1)
     |                                               |                |                  [5]{}: in 0x184-0x186.7 (3)
0x180|            2d                                 |    -           |                    i32.load8_u: 0x2d (valid) 0x184-0x184.7 (1)
     |                                               |                |                    m{}: 0x185-0x186.7 (2)
0x180|               00                              |     .          |                      a: 0 0x185-0x185.7 (1)
0x180|                  00                           |      .         |                      o: 0 0x186-0x186.7 (1)
     |                                               |                |                  [6]{}: in 0x187-0x188.7 (2)
0x180|                     41                        |       A        |                    i32.const: 0x41 (valid) 0x187-0x187.7 (1)
0x180|                        08                     |        .       |                    n: 8 0x188-0x188.7 (1)
     |                                               |                |                  [7]{}: in 0x189-0x189.7 (1)
0x180|                           74                  |         t      |                    i32.shl: 0x74 (valid) 0x189-0x189.7 (1)
     |                                               |                |                  [8]{}: in 0x18a-0x18a.7 (1)
0x180|                              72               |          r     |                    i32.or: 0x72 (valid) 0x18a-0x18a.7 (1)
     |                                               |                |                  [9]{}: in 0x18b-0x18b.7 (1)
0x180|                                 0b            |           .    |                    end: 0xb (valid) 0x18b-0x18b.7 (1)
     |                                               |                |            [4]{}: code 0x18c-0x19d.7 (18)
0x180|                                    11         |            .   |              size: 17 0x18c-0x18c.7 (1)
     |                                               |                |              code{}: 0x18d-0x19d.7 (17)
     |                                               |                |                t{}: 0x18d-0x18d.7 (1)
0x180|                                       00      |             .  |                  n: 0 0x18d-0x18d.7 (1)
     |                                               |                |                  x[0:0]: 0x18e-NA (0)
     |                                               |                |                e[0:10]: 0x18e-0x19d.7 (16)
     |                                               |                |                  [0]{}: in 0x18e-0x18f.7 (2)
0x180|                                          20   |                |                    local.get: 0x20 (valid) 0x18e-0x18e.7 (1)
0x180|                                             00|               .|                    x: 0 0x18f-0x18f.7 (1)
     |                                               |                |                  [1]{}: in 0x190-0x191.7 (2)
0x190|10                                             |.               |                    call: 0x10 (valid) 0x190-0x190.7 (1)
0x190|   03                                          | .              |                    x: 3 0x191-0x191.7 (1)
     |                                               |                |                  [2]{}: in 0x192-0x193.7 (2)
0x190|      20                                       |                |                    local.get: 0x20 (valid) 0x192-0x192.7 (1)
0x190|         00                                    |   .            |                    x: 0 0x193-0x193.7 (1)
     |                                               |                |                  [3]{}: in 0x194-0x195.7 (2)
0x190|            41                                 |    A           |                    i32.const: 0x41 (valid) 0x194-0x194.7 (1)
0x190|               02                              |     .          |                    n: 2 0x195-0x195.7 (1)
     |                                               |                |                  [4]{}: in 0x196-0x196.7 (1)
0x190|                  6a                           |      j         |                    i32.add: 0x6a (valid) 0x196-0x196.7 (1)
     |                                               |                |                  [5]{}: in 0x197-0x198.7 (2)
0x190|                     10                        |       .        |                    call: 0x10 (valid) 0x197-0x197.7 (1)
0x190|                        03                     |        .       |                    x: 3 0x198-0x198.7 (1)
     |                                               |                |                  [6]{}: in 0x199-0x19a.7 (2)
0x190|                           41                  |         A      |                    i32.const: 0x41 (valid) 0x199-0x199.7 (1)
0x190|                              10               |          .     |                    n: 16 0x19a-0x19a.7 (1)
     |                                               |                |                  [7]{}: in 0x19b-0x19b.7 (1)
0x190|                                 74            |           t    |                    i32.shl: 0x74 (valid) 0x19b-0x19b.7 (1)
     |                                               |                |                  [8]{}: in 0x19c-0x19c.7 (1)
0x190|                                    72         |            r   |                    i32.or: 0x72 (valid) 0x19c-0x19c.7 (1)
     |                                               |                |                  [9]{}: in 0x19d-0x19d.7 (1)
0x190|                                       0b      |             .  |                    end: 0xb (valid) 0x19d-0x19d.7 (1)
     |                                               |                |            [5]{}: code 0x19e-0x1b1.7 (20)
0x190|                                          13   |              . |              size: 19 0x19e-0x19e.7 (1)
     |                                               |                |              code{}: 0x19f-0x1b1.7 (19)
     |                                               |                |                t{}: 0x19f-0x19f.7 (1)
0x190|                                             00|               .|                  n: 0 0x19f-0x19f.7 (1)
     |                                               |                |                  x[0:0]: 0x1a0-NA (0)
     |                                               |                |                e[0:12]: 0x1a0-0x1b1.7 (18)
     |                                               |                |                  [0]{}: in 0x1a0-0x1a1.7 (2)
0x1a0|20                                             |                |                    local.get: 0x20 (valid) 0x1a0-0x1a0.7 (1)
0x1a0|   00                                          | .              |                    x: 0 0x1a1-0x1a1.7 (1)
     |                                               |                |                  [1]{}: in 0x1a2-0x1a3.7 (2)
0x1a0|      10                                       |  .             |                    call: 0x10 (valid) 0x1a2-0x1a2.7 (1)
0x1a0|         04                                    |   .            |                    x: 4 0x1a3-0x1a3.7 (1)
     |                                               |                |                  [2]{}: in 0x1a4-0x1a4.7 (1)
0x1a0|            ad                                 |    .           |                    i64.extend_i32_u: 0xad (valid) 0x1a4-0x1a4.7 (1)
     |                                               |                |                  [3]{}: in 0x1a5-0x1a6.7 (2)
0x1a0|               20                              |                |                    local.get: 0x20 (valid) 0x1a5-0x1a5.7 (1)
0x1a0|                  00                           |      .         |                    x: 0 0x1a6-0x1a6.7 (1)
     |                                               |                |                  [4]{}: in 0x1a7-0x1a8.7 (2)
0x1a0|                     41                        |       A        |                    i32.const: 0x41 (valid) 0x1a7-0x1a7.7 (1)
0x1a0|                        04                     |        .       |                    n: 4 0x1a8-0x1a8.7 (1)
     |                                               |                |                  [5]{}: in 0x1a9-0x1a9.7 (1)
0x1a0|                           6a                  |         j      |                    i32.add: 0x6a (valid) 0x1a9-0x1a9.7 (1)
     |                                               |                |                  [6]{}: in 0x1aa-0x1ab.7 (2)
0x1a0|                              10               |          .     |                    call: 0x10 (valid) 0x1aa-0x1aa.7 (1)
0x1a0|                                 04            |           .    |                    x: 4 0x1ab-0x1ab.7 (1)
     |                                               |                |                  [7]{}: in 0x1ac-0x1ac.7 (1)
0x1a0|                                    ad         |            .   |                    i64.extend_i32_u: 0xad (valid) 0x1ac-0x1ac.7 (1)
     |                                               |                |                  [8]{}: in 0x1ad-0x1ae.7 (2)
0x1a0|                                       42      |             B  |                    i64.const: 0x42 (valid) 0x1ad-0x1ad.7 (1)
0x1a0|                                          20   |                |                    n: 32 0x1ae-0x1ae.7 (1)
     |                                               |                |                  [9]{}: in 0x1af-0x1af.7 (1)
0x1a0|                                             86|               .|                    i64.shl: 0x86 (valid) 0x1af-0x1af.7 (1)
     |                                               |                |                  [10]{}: in 0x1b0-0x1b0.7 (1)
0x1b0|84                                             |.               |                    i64.or: 0x84 (valid) 0x1b0-0x1b0.7 (1)
     |                                               |                |                  [11]{}: in 0x1b1-0x1b1.7 (1)
0x1b0|   0b                                          | .              |                    end: 0xb (valid) 0x1b1-0x1b1.7 (1)
     |                                               |                |            [6]{}: code 0x1b2-0x1bf.7 (14)
0x1b0|      0d                                       |  .             |              size: 13 0x1b2-0x1b2.7 (1)
     |                                               |                |              code{}: 0x1b3-0x1bf.7 (13)
     |                                               |                |                t{}: 0x1b3-0x1b3.7 (1)
0x1b0|         00                                    |   .            |                  n: 0 0x1b3-0x1b3.7 (1)
     |                                               |                |                  x[0:0]: 0x1b4-NA (0)
     |                                               |                |                e[0:6]: 0x1b4-0x1bf.7 (12)
     |                                               |                |                  [0]{}: in 0x1b4-0x1b5.7 (2)
0x1b0|            41                                 |    A           |                    i32.const: 0x41 (valid) 0x1b4-0x1b4.7 (1)
0x1b0|               00                              |     .          |                    n: 0 0x1b5-0x1b5.7 (1)
     |                                               |                |                  [1]{}: in 0x1b6-0x1b7.7 (2)
0x1b0|                  20                           |                |                    local.get: 0x20 (valid) 0x1b6-0x1b6.7 (1)
0x1b0|                     00                        |       .        |                    x: 0 0x1b7-0x1b7.7 (1)
     |                                               |                |                  [2]{}: in 0x1b8-0x1b9.7 (2)
0x1b0|                        10                     |        .       |                    call: 0x10 (valid) 0x1b8-0x1b8.7 (1)
0x1b0|                           00                  |         .      |                    x: 0 0x1b9-0x1b9.7 (1)
     |                                               |                |                  [3]{}: in 0x1ba-0x1bb.7 (2)
0x1b0|                              41               |          A     |                    i32.const: 0x41 (valid) 0x1ba-0x1ba.7 (1)
0x1b0|                                 00            |           .    |                    n: 0 0x1bb-0x1bb.7 (1)
     |                                               |                |                  [4]{}: in 0x1bc-0x1be.7 (3)
0x1b0|                                    2e         |            .   |                    i32.load16_s: 0x2e (valid) 0x1bc-0x1bc.7 (1)
     |                                               |                |                    m{}: 0x1bd-0x1be.7 (2)
0x1b0|                                       01      |             .  |                      a: 1 0x1bd-0x1bd.7 (1)
0x1b0|                                          00   |              . |                      o: 0 0x1be-0x1be.7 (1)
     |                                               |                |                  [5]{}: in 0x1bf-0x1bf.7 (1)
0x1b0|                                             0b|               .|                    end: 0xb (valid) 0x1bf-0x1bf.7 (1)
     |                                               |                |            [7]{}: code 0x1c0-0x1cd.7 (14)
0x1c0|0d                                             |.               |              size: 13 0x1c0-0x1c0.7 (1)
     |                                               |                |              code{}: 0x1c1-0x1cd.7 (13)
     |                                               |                |                t{}: 0x1c1-0x1c1.7 (1)
0x1c0|   00                                          | .              |                  n: 0 0x1c1-0x1c1.7 (1)
     |                                               |                |                  x[0:0]: 0x1c2-NA (0)
     |                                               |                |                e[0:6]: 0x1c2-0x1cd.7 (12)
     |                                               |                |                  [0]{}: in 0x1c2-0x1c3.7 (2)
0x1c0|      41                                       |  A             |                    i32.const: 0x41 (valid) 0x1c2-0x1c2.7 (1)
0x1c0|         00                                    |   .            |                    n: 0 0x1c3-0x1c3.7 (1)
     |                                               |                |                  [1]{}: in 0x1c4-0x1c5.7 (2)
0x1c0|            20                                 |                |                    local.get: 0x20 (valid) 0x1c4-0x1c4.7 (1)
0x1c0|               00                              |     .          |                    x: 0 0x1c5-0x1c5.7 (1)
     |                                               |                |                  [2]{}: in 0x1c6-0x1c7.7 (2)
0x1c0|                  10                           |      .         |                    call: 0x10 (valid) 0x1c6-0x1c6.7 (1)
0x1c0|                     00                        |       .        |                    x: 0 0x1c7-0x1c7.7 (1)
     |                                               |                |                  [3]{}: in 0x1c8-0x1c9.7 (2)
0x1c0|                        41                     |        A       |                    i32.const: 0x41 (valid) 0x1c8-0x1c8.7 (1)
0x1c0|                           00                  |         .      |                    n: 0 0x1c9-0x1c9.7 (1)
     |                                               |                |                  [4]{}: in 0x1ca-0x1cc.7 (3)
0x1c0|                              2f               |          /     |                    i32.load16_u: 0x2f (valid) 0x1ca-0x1ca.7 (1)
     |                                               |                |                    m{}: 0x1cb-0x1cc.7 (2)
0x1c0|                                 01            |           .    |                      a: 1 0x1cb-0x1cb.7 (1)
0x1c0|                                    00         |            .   |                      o: 0 0x1cc-0x1cc.7 (1)
     |                                               |                |                  [5]{}: in 0x1cd-0x1cd.7 (1)
0x1c0|                                       0b      |             .  |                    end: 0xb (valid) 0x1cd-0x1cd.7 (1)
     |                                               |                |            [8]{}: code 0x1ce-0x1db.7 (14)
0x1c0|                                          0d   |              . |              size: 13 0x1ce-0x1ce.7 (1)
     |                                               |                |              code{}: 0x1cf-0x1db.7 (13)
     |                                               |                |                t{}: 0x1cf-0x1cf.7 (1)
0x1c0|                                             00|               .|                  n: 0 0x1cf-0x1cf.7 (1)
     |                                               |                |                  x[0:0]: 0x1d0-NA (0)
     |                                               |                |                e[0:6]: 0x1d0-0x1db.7 (12)
     |                                               |                |                  [0]{}: in 0x1d0-0x1d1.7 (2)
0x1d0|41                                             |A               |                    i32.const: 0x41 (valid) 0x1d0-0x1d0.7 (1)
0x1d0|   00                                          | .              |                    n: 0 0x1d1-0x1d1.7 (1)
     |                                               |                |                  [1]{}: in 0x1d2-0x1d3.7 (2)
0x1d0|      20                                       |                |                    local.get: 0x20 (valid) 0x1d2-0x1d2.7 (1)
0x1d0|         00                                    |   .            |                    x: 0 0x1d3-0x1d3.7 (1)
     |                                               |                |                  [2]{}: in 0x1d4-0x1d5.7 (2)
0x1d0|            10                                 |    .           |                    call: 0x10 (valid) 0x1d4-0x1d4.7 (1)
0x1d0|               01                              |     .          |                    x: 1 0x1d5-0x1d5.7 (1)
     |                                               |                |                  [3]{}: in 0x1d6-0x1d7.7 (2)
0x1d0|                  41                           |      A         |                    i32.const: 0x41 (valid) 0x1d6-0x1d6.7 (1)
0x1d0|                     00                        |       .        |                    n: 0 0x1d7-0x1d7.7 (1)
     |                                               |                |                  [4]{}: in 0x1d8-0x1da.7 (3)
0x1d0|                        28                     |        (       |                    i32.load: 0x28 (valid) 0x1d8-0x1d8.7 (1)
     |                                               |                |                    m{}: 0x1d9-0x1da.7 (2)
0x1d0|                           02                  |         .      |                      a: 2 0x1d9-0x1d9.7 (1)
0x1d0|                              00               |          .     |                      o: 0 0x1da-0x1da.7 (1)
     |                                               |                |                  [5]{}: in 0x1db-0x1db.7 (1)
0x1d0|                                 0b            |           .    |                    end: 0xb (valid) 0x1db-0x1db.7 (1)
     |                                               |                |            [9]{}: code 0x1dc-0x1ea.7 (15)
0x1d0|                                    0e         |            .   |              size: 14 0x1dc-0x1dc.7 (1)
     |                                               |                |              code{}: 0x1dd-0x1ea.7 (14)
     |                                               |                |                t{}: 0x1dd-0x1dd.7 (1)
0x1d0|                                       00      |             .  |                  n: 0 0x1dd-0x1dd.7 (1)
     |                                               |                |                  x[0:0]: 0x1de-NA (0)
     |                                               |                |                e[0:7]: 0x1de-0x1ea.7 (13)
     |                                               |                |                  [0]{}: in 0x1de-0x1df.7 (2)
0x1d0|                                          41   |              A |                    i32.const: 0x41 (valid) 0x1de-0x1de.7 (1)
0x1d0|                                             00|               .|                    n: 0 0x1df-0x1df.7 (1)
     |                                               |                |                  [1]{}: in 0x1e0-0x1e1.7 (2)
0x1e0|20                                             |                |                    local.get: 0x20 (valid) 0x1e0-0x1e0.7 (1)
0x1e0|   00                                          | .              |                    x: 0 0x1e1-0x1e1.7 (1)
     |                                               |                |                  [2]{}: in 0x1e2-0x1e2.7 (1)
0x1e0|      a7                                       |  .             |                    i32.wrap_i64: 0xa7 (valid) 0x1e2-0x1e2.7 (1)
     |                                               |                |                  [3]{}: in 0x1e3-0x1e4.7 (2)
0x1e0|         10                                    |   .            |                    call: 0x10 (valid) 0x1e3-0x1e3.7 (1)
0x1e0|            00                                 |    .           |                    x: 0 0x1e4-0x1e4.7 (1)
     |                                               |                |                  [4]{}: in 0x1e5-0x1e6.7 (2)
0x1e0|               41                              |     A          |                    i32.const: 0x41 (valid) 0x1e5-0x1e5.7 (1)
0x1e0|                  00                           |      .         |                    n: 0 0x1e6-0x1e6.7 (1)
     |                                               |                |                  [5]{}: in 0x1e7-0x1e9.7 (3)
0x1e0|                     32                        |       2        |                    i64.load16_s: 0x32 (valid) 0x1e7-0x1e7.7 (1)
     |                                               |                |                    m{}: 0x1e8-0x1e9.7 (2)
0x1e0|                        01                     |        .       |                      a: 1 0x1e8-0x1e8.7 (1)
0x1e0|                           00                  |         .      |                      o: 0 0x1e9-0x1e9.7 (1)
     |                                               |                |                  [6]{}: in 0x1ea-0x1ea.7 (1)
0x1e0|                              0b               |          .     |                    end: 0xb (valid) 0x1ea-0x1ea.7 (1)
     |                                               |                |            [10]{}: code 0x1eb-0x1f9.7 (15)
0x1e0|                                 0e            |           .    |              size: 14 0x1eb-0x1eb.7 (1)
     |                                               |                |              code{}: 0x1ec-0x1f9.7 (14)
     |                                               |                |                t{}: 0x1ec-0x1ec.7 (1)
0x1e0|                                    00         |            .   |                  n: 0 0x1ec-0x1ec.7 (1)
     |                                               |                |                  x[0:0]: 0x1ed-NA (0)
     |                                               |                |                e[0:7]: 0x1ed-0x1f9.7 (13)
     |                                               |                |                  [0]{}: in 0x1ed-0x1ee.7 (2)
0x1e0|                                       41      |             A  |                    i32.const: 0x41 (valid) 0x1ed-0x1ed.7 (1)
0x1e0|                                          00   |              . |                    n: 0 0x1ee-0x1ee.7 (1)
     |                                               |                |                  [1]{}: in 0x1ef-0x1f0.7 (2)
0x1e0|                                             20|                |                    local.get: 0x20 (valid) 0x1ef-0x1ef.7 (1)
0x1f0|00                                             |.               |                    x: 0 0x1f0-0x1f0.7 (1)
     |                                               |                |                  [2]{}: in 0x1f1-0x1f1.7 (1)
0x1f0|   a7                                          | .              |                    i32.wrap_i64: 0xa7 (valid) 0x1f1-0x1f1.7 (1)
     |                                               |                |                  [3]{}: in 0x1f2-0x1f3.7 (2)
0x1f0|      10                                       |  .             |                    call: 0x10 (valid) 0x1f2-0x1f2.7 (1)
0x1f0|         00                                    |   .            |                    x: 0 0x1f3-0x1f3.7 (1)
     |                                               |                |                  [4]{}: in 0x1f4-0x1f5.7 (2)
0x1f0|            41                                 |    A           |                    i32.const: 0x41 (valid) 0x1f4-0x1f4.7 (1)
0x1f0|               00                              |     .          |                    n: 0 0x1f5-0x1f5.7 (1)
     |                                               |                |                  [5]{}: in 0x1f6-0x1f8.7 (3)
0x1f0|                  33                           |      3         |                    i64.load16_u: 0x33 (valid) 0x1f6-0x1f6.7 (1)
     |                                               |                |                    m{}: 0x1f7-0x1f8.7 (2)
0x1f0|                     01                        |       .        |                      a: 1 0x1f7-0x1f7.7 (1)
0x1f0|                        00                     |        .       |                      o: 0 0x1f8-0x1f8.7 (1)
     |                                               |                |                  [6]{}: in 0x1f9-0x1f9.7 (1)
0x1f0|                           0b                  |         .      |                    end: 0xb (valid) 0x1f9-0x1f9.7 (1)
     |                                               |                |            [11]{}: code 0x1fa-0x208.7 (15)
0x1f0|                              0e               |          .     |              size: 14 0x1fa-0x1fa.7 (1)
     |                                               |                |              code{}: 0x1fb-0x208.7 (14)
     |                                               |                |                t{}: 0x1fb-0x1fb.7 (1)
0x1f0|                                 00            |           .    |                  n: 0 0x1fb-0x1fb.7 (1)
     |                                               |                |                  x[0:0]: 0x1fc-NA (0)
     |                                               |                |                e[0:7]: 0x1fc-0x208.7 (13)
     |                                               |                |                  [0]{}: in 0x1fc-0x1fd.7 (2)
0x1f0|                                    41         |            A   |                    i32.const: 0x41 (valid) 0x1fc-0x1fc.7 (1)
0x1f0|                                       00      |             .  |                    n: 0 0x1fd-0x1fd.7 (1)
     |                                               |                |                  [1]{}: in 0x1fe-0x1ff.7 (2)
0x1f0|                                          20   |                |                    local.get: 0x20 (valid) 0x1fe-0x1fe.7 (1)
0x1f0|                                             00|               .|                    x: 0 0x1ff-0x1ff.7 (1)
     |                                               |                |                  [2]{}: in 0x200-0x200.7 (1)
0x200|a7                                             |.               |                    i32.wrap_i64: 0xa7 (valid) 0x200-0x200.7 (1)
     |                                               |                |                  [3]{}: in 0x201-0x202.7 (2)
0x200|   10                                          | .              |                    call: 0x10 (valid) 0x201-0x201.7 (1)
0x200|      01                                       |  .             |                    x: 1 0x202-0x202.7 (1)
     |                                               |                |                  [4]{}: in 0x203-0x204.7 (2)
0x200|         41                                    |   A            |                    i32.const: 0x41 (valid) 0x203-0x203.7 (1)
0x200|            00                                 |    .           |                    n: 0 0x204-0x204.7 (1)
     |                                               |                |                  [5]{}: in 0x205-0x207.7 (3)
0x200|               34                              |     4          |                    i64.load32_s: 0x34 (valid) 0x205-0x205.7 (1)
     |                                               |                |                    m{}: 0x206-0x207.7 (2)
0x200|                  02                           |      .         |                      a: 2 0x206-0x206.7 (1)
0x200|                     00                        |       .        |                      o: 0 0x207-0x207.7 (1)
     |                                               |                |                  [6]{}: in 0x208-0x208.7 (1)
0x200|                        0b                     |        .       |                    end: 0xb (valid) 0x208-0x208.7 (1)
     |                                               |                |            [12]{}: code 0x209-0x217.7 (15)
0x200|                           0e                  |         .      |              size: 14 0x209-0x209.7 (1)
     |                                               |                |              code{}: 0x20a-0x217.7 (14)
     |                                               |                |                t{}: 0x20a-0x20a.7 (1)
0x200|                              00               |          .     |                  n: 0 0x20a-0x20a.7 (1)
     |                                               |                |                  x[0:0]: 0x20b-NA (0)
     |                                               |                |                e[0:7]: 0x20b-0x217.7 (13)
     |                                               |                |                  [0]{}: in 0x20b-0x20c.7 (2)
0x200|                                 41            |           A    |                    i32.const: 0x41 (valid) 0x20b-0x20b.7 (1)
0x200|                                    00         |            .   |                    n: 0 0x20c-0x20c.7 (1)
     |                                               |                |                  [1]{}: in 0x20d-0x20e.7 (2)
0x200|                                       20      |                |                    local.get: 0x20 (valid) 0x20d-0x20d.7 (1)
0x200|                                          00   |              . |                    x: 0 0x20e-0x20e.7 (1)
     |                                               |                |                  [2]{}: in 0x20f-0x20f.7 (1)
0x200|                                             a7|               .|                    i32.wrap_i64: 0xa7 (valid) 0x20f-0x20f.7 (1)
     |                                               |                |                  [3]{}: in 0x210-0x211.7 (2)
0x210|10                                             |.               |                    call: 0x10 (valid) 0x210-0x210.7 (1)
0x210|   01                                          | .              |                    x: 1 0x211-0x211.7 (1)
     |                                               |                |                  [4]{}: in 0x212-0x213.7 (2)
0x210|      41                                       |  A             |                    i32.const: 0x41 (valid) 0x212-0x212.7 (1)
0x210|         00                                    |   .            |                    n: 0 0x213-0x213.7 (1)
     |                                               |                |                  [5]{}: in 0x214-0x216.7 (3)
0x210|            35                                 |    5           |                    i64.load32_u: 0x35 (valid) 0x214-0x214.7 (1)
     |                                               |                |                    m{}: 0x215-0x216.7 (2)
0x210|               02                              |     .          |                      a: 2 0x215-0x215.7 (1)
0x210|                  00                           |      .         |                      o: 0 0x216-0x216.7 (1)
     |                                               |                |                  [6]{}: in 0x217-0x217.7 (1)
0x210|                     0b                        |       .        |                    end: 0xb (valid) 0x217-0x217.7 (1)
     |                                               |                |            [13]{}: code 0x218-0x225.7 (14)
0x210|                        0d                     |        .       |              size: 13 0x218-0x218.7 (1)
     |                                               |                |              code{}: 0x219-0x225.7 (13)
     |                                               |                |                t{}: 0x219-0x219.7 (1)
0x210|                           00                  |         .      |                  n: 0 0x219-0x219.7 (1)
     |                                               |                |                  x[0:0]: 0x21a-NA (0)
     |                                               |                |                e[0:6]: 0x21a-0x225.7 (12)
     |                                               |                |                  [0]{}: in 0x21a-0x21b.7 (2)
0x210|                              41               |          A     |                    i32.const: 0x41 (valid) 0x21a-0x21a.7 (1)
0x210|                                 00            |           .    |                    n: 0 0x21b-0x21b.7 (1)
     |                                               |                |                  [1]{}: in 0x21c-0x21d.7 (2)
0x210|                                    20         |                |                    local.get: 0x20 (valid) 0x21c-0x21c.7 (1)
0x210|                                       00      |             .  |                    x: 0 0x21d-0x21d.7 (1)
     |                                               |                |                  [2]{}: in 0x21e-0x21f.7 (2)
0x210|                                          10   |              . |                    call: 0x10 (valid) 0x21e-0x21e.7 (1)
0x210|                                             02|               .|                    x: 2 0x21f-0x21f.7 (1)
     |                                               |                |                  [3]{}: in 0x220-0x221.7 (2)
0x220|41                                             |A               |                    i32.const: 0x41 (valid) 0x220-0x220.7 (1)
0x220|   00                                          | .              |                    n: 0 0x221-0x221.7 (1)
     |                                               |                |                  [4]{}: in 0x222-0x224.7 (3)
0x220|      29                                       |  )             |                    i64.load: 0x29 (valid) 0x222-0x222.7 (1)
     |                                               |                |                    m{}: 0x223-0x224.7 (2)
0x220|         03                                    |   .            |                      a: 3 0x223-0x223.7 (1)
0x220|            00                                 |    .           |                      o: 0 0x224-0x224.7 (1)
     |                                               |                |                  [5]{}: in 0x225-0x225.7 (1)
0x220|               0b                              |     .          |                    end: 0xb (valid) 0x225-0x225.7 (1)
     |                                               |                |            [14]{}: code 0x226-0x234.7 (15)
0x220|                  0e                           |      .         |              size: 14 0x226-0x226.7 (1)
     |                                               |                |              code{}: 0x227-0x234.7 (14)
     |                                               |                |                t{}: 0x227-0x227.7 (1)
0x220|                     00                        |       .        |                  n: 0 0x227-0x227.7 (1)
     |                                               |                |                  x[0:0]: 0x228-NA (0)
     |                                               |                |                e[0:7]: 0x228-0x234.7 (13)
     |                                               |                |                  [0]{}: in 0x228-0x229.7 (2)
0x220|                        41                     |        A       |                    i32.const: 0x41 (valid) 0x228-0x228.7 (1)
0x220|                           00                  |         .      |                    n: 0 0x229-0x229.7 (1)
     |                                               |                |                  [1]{}: in 0x22a-0x22b.7 (2)
0x220|                              20               |                |                    local.get: 0x20 (valid) 0x22a-0x22a.7 (1)
0x220|                                 00            |           .    |                    x: 0 0x22b-0x22b.7 (1)
     |                                               |                |                  [2]{}: in 0x22c-0x22c.7 (1)
0x220|                                    bc         |            .   |                    i32.reinterpret_f32: 0xbc (valid) 0x22c-0x22c.7 (1)
     |                                               |                |                  [3]{}: in 0x22d-0x22e.7 (2)
0x220|                                       10      |             .  |                    call: 0x10 (valid) 0x22d-0x22d.7 (1)
0x220|                                          01   |              . |                    x: 1 0x22e-0x22e.7 (1)
     |                                               |                |                  [4]{}: in 0x22f-0x230.7 (2)
0x220|                                             41|               A|                    i32.const: 0x41 (valid) 0x22f-0x22f.7 (1)
0x230|00                                             |.               |                    n: 0 0x230-0x230.7 (1)
     |                                               |                |                  [5]{}: in 0x231-0x233.7 (3)
0x230|   2a                                          | *              |                    f32.load: 0x2a (valid) 0x231-0x231.7 (1)
     |                                               |                |                    m{}: 0x232-0x233.7 (2)
0x230|      02                                       |  .             |                      a: 2 0x232-0x232.7 (1)
0x230|         00                                    |   .            |                      o: 0 0x233-0x233.7 (1)
     |                                               |                |                  [6]{}: in 0x234-0x234.7 (1)
0x230|            0b                                 |    .           |                    end: 0xb (valid) 0x234-0x234.7 (1)
     |                                               |                |            [15]{}: code 0x235-0x243.7 (15)
0x230|               0e                              |     .          |              size: 14 0x235-0x235.7 (1)
     |                                               |                |              code{}: 0x236-0x243.7 (14)
     |                                               |                |                t{}: 0x236-0x236.7 (1)
0x230|                  00                           |      .         |                  n: 0 0x236-0x236.7 (1)
     |                                               |                |                  x[0:0]: 0x237-NA (0)
     |                                               |                |                e[0:7]: 0x237-0x243.7 (13)
     |                                               |                |                  [0]{}: in 0x237-0x238.7 (2)
0x230|                     41                        |       A        |                    i32.const: 0x41 (valid) 0x237-0x237.7 (1)
0x230|                        00                     |        .       |                    n: 0 0x238-0x238.7 (1)
     |                                               |                |                  [1]{}: in 0x239-0x23a.7 (2)
0x230|                           20                  |                |                    local.get: 0x20 (valid) 0x239-0x239.7 (1)
0x230|                              00               |          .     |                    x: 0 0x23a-0x23a.7 (1)
     |                                               |                |                  [2]{}: in 0x23b-0x23b.7 (1)
0x230|                                 bd            |           .    |                    i64.reinterpret_f64: 0xbd (valid) 0x23b-0x23b.7 (1)
     |                                               |                |                  [3]{}: in 0x23c-0x23d.7 (2)
0x230|                                    10         |            .   |                    call: 0x10 (valid) 0x23c-0x23c.7 (1)
0x230|                                       02      |             .  |                    x: 2 0x23d-0x23d.7 (1)
     |                                               |                |                  [4]{}: in 0x23e-0x23f.7 (2)
0x230|                                          41   |              A |                    i32.const: 0x41 (valid) 0x23e-0x23e.7 (1)
0x230|                                             00|               .|                    n: 0 0x23f-0x23f.7 (1)
     |                                               |                |                  [5]{}: in 0x240-0x242.7 (3)
0x240|2b                                             |+               |                    f64.load: 0x2b (valid) 0x240-0x240.7 (1)
     |                                               |                |                    m{}: 0x241-0x242.7 (2)
0x240|   03                                          | .              |                      a: 3 0x241-0x241.7 (1)
0x240|      00                                       |  .             |                      o: 0 0x242-0x242.7 (1)
     |                                               |                |                  [6]{}: in 0x243-0x243.7 (1)
0x240|         0b                                    |   .            |                    end: 0xb (valid) 0x243-0x243.7 (1)
     |                                               |                |            [16]{}: code 0x244-0x251.7 (14)
0x240|            0d                                 |    .           |              size: 13 0x244-0x244.7 (1)
     |                                               |                |              code{}: 0x245-0x251.7 (13)
     |                                               |                |                t{}: 0x245-0x245.7 (1)
0x240|               00                              |     .          |                  n: 0 0x245-0x245.7 (1)
     |                                               |                |                  x[0:0]: 0x246-NA (0)
     |                                               |                |                e[0:6]: 0x246-0x251.7 (12)
     |                                               |                |                  [0]{}: in 0x246-0x247.7 (2)
0x240|                  41                           |      A         |                    i32.const: 0x41 (valid) 0x246-0x246.7 (1)
0x240|                     00                        |       .        |                    n: 0 0x247-0x247.7 (1)
     |                                               |                |                  [1]{}: in 0x248-0x249.7 (2)
0x240|                        20                     |                |                    local.get: 0x20 (valid) 0x248-0x248.7 (1)
0x240|                           00                  |         .      |                    x: 0 0x249-0x249.7 (1)
     |                                               |                |                  [2]{}: in 0x24a-0x24c.7 (3)
0x240|                              3b               |          ;     |                    i32.store16: 0x3b (valid) 0x24a-0x24a.7 (1)
     |                                               |                |                    m{}: 0x24b-0x24c.7 (2)
0x240|                                 01            |           .    |                      a: 1 0x24b-0x24b.7 (1)
0x240|                                    00         |            .   |                      o: 0 0x24c-0x24c.7 (1)
     |                                               |                |                  [3]{}: in 0x24d-0x24e.7 (2)
0x240|                                       41      |             A  |                    i32.const: 0x41 (valid) 0x24d-0x24d.7 (1)
0x240|                                          00   |              . |                    n: 0 0x24e-0x24e.7 (1)
     |                                               |                |                  [4]{}: in 0x24f-0x250.7 (2)
0x240|                                             10|               .|                    call: 0x10 (valid) 0x24f-0x24f.7 (1)
0x250|03                                             |.               |                    x: 3 0x250-0x250.7 (1)
     |                                               |                |                  [5]{}: in 0x251-0x251.7 (1)
0x250|   0b                                          | .              |                    end: 0xb (valid) 0x251-0x251.7 (1)
     |                                               |                |            [17]{}: code 0x252-0x25f.7 (14)
0x250|      0d                                       |  .             |              size: 13 0x252-0x252.7 (1)
     |                                               |                |              code{}: 0x253-0x25f.7 (13)
     |                                               |                |                t{}: 0x253-0x253.7 (1)
0x250|         00                                    |   .            |                  n: 0 0x253-0x253.7 (1)
     |                                               |                |                  x[0:0]: 0x254-NA (0)
     |                                               |                |                e[0:6]: 0x254-0x25f.7 (12)
     |                                               |                |                  [0]{}: in 0x254-0x255.7 (2)
0x250|            41                                 |    A           |                    i32.const: 0x41 (valid) 0x254-0x254.7 (1)
0x250|               00                              |     .          |                    n: 0 0x255-0x255.7 (1)
     |                                               |                |                  [1]{}: in 0x256-0x257.7 (2)
0x250|                  20                           |                |                    local.get: 0x20 (valid) 0x256-0x256.7 (1)
0x250|                     00                        |       .        |                    x: 0 0x257-0x257.7 (1)
     |                                               |                |                  [2]{}: in 0x258-0x25a.7 (3)
0x250|                        36                     |        6       |                    i32.store: 0x36 (valid) 0x258-0x258.7 (1)
     |                                               |                |                    m{}: 0x259-0x25a.7 (2)
0x250|                           02                  |         .      |                      a: 2 0x259-0x259.7 (1)
0x250|                              00               |          .     |                      o: 0 0x25a-0x25a.7 (1)
     |                                               |                |                  [3]{}: in 0x25b-0x25c.7 (2)
0x250|                                 41            |           A    |                    i32.const: 0x41 (valid) 0x25b-0x25b.7 (1)
0x250|                                    00         |            .   |                    n: 0 0x25c-0x25c.7 (1)
     |                                               |                |                  [4]{}: in 0x25d-0x25e.7 (2)
0x250|                                       10      |             .  |                    call: 0x10 (valid) 0x25d-0x25d.7 (1)
0x250|                                          04   |              . |                    x: 4 0x25e-0x25e.7 (1)
     |                                               |                |                  [5]{}: in 0x25f-0x25f.7 (1)
0x250|                                             0b|               .|                    end: 0xb (valid) 0x25f-0x25f.7 (1)
     |                                               |                |            [18]{}: code 0x260-0x26e.7 (15)
0x260|0e                                             |.               |              size: 14 0x260-0x260.7 (1)
     |                                               |                |              code{}: 0x261-0x26e.7 (14)
     |                                               |                |                t{}: 0x261-0x261.7 (1)
0x260|   00                                          | .              |                  n: 0 0x261-0x261.7 (1)
     |                                               |                |                  x[0:0]: 0x262-NA (0)
     |                                               |                |                e[0:7]: 0x262-0x26e.7 (13)
     |                                               |                |                  [0]{}: in 0x262-0x263.7 (2)
0x260|      41                                       |  A             |                    i32.const: 0x41 (valid) 0x262-0x262.7 (1)
0x260|         00                                    |   .            |                    n: 0 0x263-0x263.7 (1)
     |                                               |                |                  [1]{}: in 0x264-0x265.7 (2)
0x260|            20                                 |                |                    local.get: 0x20 (valid) 0x264-0x264.7 (1)
0x260|               00                              |     .          |                    x: 0 0x265-0x265.7 (1)
     |                                               |                |                  [2]{}: in 0x266-0x268.7 (3)
0x260|                  3d                           |      =         |                    i64.store16: 0x3d (valid) 0x266-0x266.7 (1)
     |                                               |                |                    m{}: 0x267-0x268.7 (2)
0x260|                     01                        |       .        |                      a: 1 0x267-0x267.7 (1)
0x260|                        00                     |        .       |                      o: 0 0x268-0x268.7 (1)
     |                                               |                |                  [3]{}: in 0x269-0x26a.7 (2)
0x260|                           41                  |         A      |                    i32.const: 0x41 (valid) 0x269-0x269.7 (1)
0x260|                              00               |          .     |                    n: 0 0x26a-0x26a.7 (1)
     |                                               |                |                  [4]{}: in 0x26b-0x26c.7 (2)
0x260|                                 10            |           .    |                    call: 0x10 (valid) 0x26b-0x26b.7 (1)
0x260|                                    03         |            .   |                    x: 3 0x26c-0x26c.7 (1)
     |                                               |                |                  [5]{}: in 0x26d-0x26d.7 (1)
0x260|                                       ad      |             .  |                    i64.extend_i32_u: 0xad (valid) 0x26d-0x26d.7 (1)
     |                                               |                |                  [6]{}: in 0x26e-0x26e.7 (1)
0x260|                                          0b   |              . |                    end: 0xb (valid) 0x26e-0x26e.7 (1)
     |                                               |                |            [19]{}: code 0x26f-0x27d.7 (15)
0x260|                                             0e|               .|              size: 14 0x26f-0x26f.7 (1)
     |                                               |                |              code{}: 0x270-0x27d.7 (14)
     |                                               |                |                t{}: 0x270-0x270.7 (1)
0x270|00                                             |.               |                  n: 0 0x270-0x270.7 (1)
     |                                               |                |                  x[0:0]: 0x271-NA (0)
     |                                               |                |                e[0:7]: 0x271-0x27d.7 (13)
     |                                               |                |                  [0]{}: in 0x271-0x272.7 (2)
0x270|   41                                          | A              |                    i32.const: 0x41 (valid) 0x271-0x271.7 (1)
0x270|      00                                       |  .             |                    n: 0 0x272-0x272.7 (1)
     |                                               |                |                  [1]{}: in 0x273-0x274.7 (2)
0x270|         20                                    |                |                    local.get: 0x20 (valid) 0x273-0x273.7 (1)
0x270|            00                                 |    .           |                    x: 0 0x274-0x274.7 (1)
     |                                               |                |                  [2]{}: in 0x275-0x277.7 (3)
0x270|               3e                              |     >          |                    i64.store32: 0x3e (valid) 0x275-0x275.7 (1)
     |                                               |                |                    m{}: 0x276-0x277.7 (2)
0x270|                  02                           |      .         |                      a: 2 0x276-0x276.7 (1)
0x270|                     00                        |       .        |                      o: 0 0x277-0x277.7 (1)
     |                                               |                |                  [3]{}: in 0x278-0x279.7 (2)
0x270|                        41                     |        A       |                    i32.const: 0x41 (valid) 0x278-0x278.7 (1)
0x270|                           00                  |         .      |                    n: 0 0x279-0x279.7 (1)
     |                                               |                |                  [4]{}: in 0x27a-0x27b.7 (2)
0x270|                              10               |          .     |                    call: 0x10 (valid) 0x27a-0x27a.7 (1)
0x270|                                 04            |           .    |                    x: 4 0x27b-0x27b.7 (1)
     |                                               |                |                  [5]{}: in 0x27c-0x27c.7 (1)
0x270|                                    ad         |            .   |                    i64.extend_i32_u: 0xad (valid) 0x27c-0x27c.7 (1)
     |                                               |                |                  [6]{}: in 0x27d-0x27d.7 (1)
0x270|                                       0b      |             .  |                    end: 0xb (valid) 0x27d-0x27d.7 (1)
     |                                               |                |            [20]{}: code 0x27e-0x28b.7 (14)
0x270|                                          0d   |              . |              size: 13 0x27e-0x27e.7 (1)
     |                                               |                |              code{}: 0x27f-0x28b.7 (13)
     |                                               |                |                t{}: 0x27f-0x27f.7 (1)
0x270|                                             00|               .|                  n: 0 0x27f-0x27f.7 (1)
     |                                               |                |                  x[0:0]: 0x280-NA (0)
     |                                               |                |                e[0:6]: 0x280-0x28b.7 (12)
     |                                               |                |                  [0]{}: in 0x280-0x281.7 (2)
0x280|41                                             |A               |                    i32.const: 0x41 (valid) 0x280-0x280.7 (1)
0x280|   00                                          | .              |                    n: 0 0x281-0x281.7 (1)
     |                                               |                |                  [1]{}: in 0x282-0x283.7 (2)
0x280|      20                                       |                |                    local.get: 0x20 (valid) 0x282-0x282.7 (1)
0x280|         00                                    |   .            |                    x: 0 0x283-0x283.7 (1)
     |                                               |                |                  [2]{}: in 0x284-0x286.7 (3)
0x280|            37                                 |    7           |                    i64.store: 0x37 (valid) 0x284-0x284.7 (1)
     |                                               |                |                    m{}: 0x285-0x286.7 (2)
0x280|               03                              |     .          |                      a: 3 0x285-0x285.7 (1)
0x280|                  00                           |      .         |                      o: 0 0x286-0x286.7 (1)
     |                                               |                |                  [3]{}: in 0x287-0x288.7 (2)
0x280|                     41                        |       A        |                    i32.const: 0x41 (valid) 0x287-0x287.7 (1)
0x280|                        00                     |        .       |                    n: 0 0x288-0x288.7 (1)
     |                                               |                |                  [4]{}: in 0x289-0x28a.7 (2)
0x280|                           10                  |         .      |                    call: 0x10 (valid) 0x289-0x289.7 (1)
0x280|                              05               |          .     |                    x: 5 0x28a-0x28a.7 (1)
     |                                               |                |                  [5]{}: in 0x28b-0x28b.7 (1)
0x280|                                 0b            |           .    |                    end: 0xb (valid) 0x28b-0x28b.7 (1)
     |                                               |                |            [21]{}: code 0x28c-0x29a.7 (15)
0x280|                                    0e         |            .   |              size: 14 0x28c-0x28c.7 (1)
     |                                               |                |              code{}: 0x28d-0x29a.7 (14)
     |                                               |                |                t{}: 0x28d-0x28d.7 (1)
0x280|                                       00      |             .  |                  n: 0 0x28d-0x28d.7 (1)
     |                                               |                |                  x[0:0]: 0x28e-NA (0)
     |                                               |                |                e[0:7]: 0x28e-0x29a.7 (13)
     |                                               |                |                  [0]{}: in 0x28e-0x28f.7 (2)
0x280|                                          41   |              A |                    i32.const: 0x41 (valid) 0x28e-0x28e.7 (1)
0x280|                                             00|               .|                    n: 0 0x28f-0x28f.7 (1)
     |                                               |                |                  [1]{}: in 0x290-0x291.7 (2)
0x290|20                                             |                |                    local.get: 0x20 (valid) 0x290-0x290.7 (1)
0x290|   00                                          | .              |                    x: 0 0x291-0x291.7 (1)
     |                                               |                |                  [2]{}: in 0x292-0x294.7 (3)
0x290|      38                                       |  8             |                    f32.store: 0x38 (valid) 0x292-0x292.7 (1)
     |                                               |                |                    m{}: 0x293-0x294.7 (2)
0x290|         02                                    |   .            |                      a: 2 0x293-0x293.7 (1)
0x290|            00                                 |    .           |                      o: 0 0x294-0x294.7 (1)
     |                                               |                |                  [3]{}: in 0x295-0x296.7 (2)
0x290|               41                              |     A          |                    i32.const: 0x41 (valid) 0x295-0x295.7 (1)
0x290|                  00                           |      .         |                    n: 0 0x296-0x296.7 (1)
     |                                               |                |                  [4]{}: in 0x297-0x298.7 (2)
0x290|                     10                        |       .        |                    call: 0x10 (valid) 0x297-0x297.7 (1)
0x290|                        04                     |        .       |                    x: 4 0x298-0x298.7 (1)
     |                                               |                |                  [5]{}: in 0x299-0x299.7 (1)
0x290|                           be                  |         .      |                    f32.reinterpret_i32: 0xbe (valid) 0x299-0x299.7 (1)
     |                                               |                |                  [6]{}: in 0x29a-0x29a.7 (1)
0x290|                              0b               |          .     |                    end: 0xb (valid) 0x29a-0x29a.7 (1)
     |                                               |                |            [22]{}: code 0x29b-0x2a9.7 (15)
0x290|                                 0e            |           .    |              size: 14 0x29b-0x29b.7 (1)
     |                                               |                |              code{}: 0x29c-0x2a9.7 (14)
     |                                               |                |                t{}: 0x29c-0x29c.7 (1)
0x290|                                    00         |            .   |                  n: 0 0x29c-0x29c.7 (1)
     |                                               |                |                  x[0:0]: 0x29d-NA (0)
     |                                               |                |                e[0:7]: 0x29d-0x2a9.7 (13)
     |                                               |                |                  [0]{}: in 0x29d-0x29e.7 (2)
0x290|                                       41      |             A  |                    i32.const: 0x41 (valid) 0x29d-0x29d.7 (1)
0x290|                                          00   |              . |                    n: 0 0x29e-0x29e.7 (1)
     |                                               |                |                  [1]{}: in 0x29f-0x2a0.7 (2)
0x290|                                             20|                |                    local.get: 0x20 (valid) 0x29f-0x29f.7 (1)
0x2a0|00                                             |.               |                    x: 0 0x2a0-0x2a0.7 (1)
     |                                               |                |                  [2]{}: in 0x2a1-0x2a3.7 (3)
0x2a0|   39                                          | 9              |                    f64.store: 0x39 (valid) 0x2a1-0x2a1.7 (1)
     |                                               |                |                    m{}: 0x2a2-0x2a3.7 (2)
0x2a0|      03                                       |  .             |                      a: 3 0x2a2-0x2a2.7 (1)
0x2a0|         00                                    |   .            |                      o: 0 0x2a3-0x2a3.7 (1)
     |                                               |                |                  [3]{}: in 0x2a4-0x2a5.7 (2)
0x2a0|            41                                 |    A           |                    i32.const: 0x41 (valid) 0x2a4-0x2a4.7 (1)
0x2a0|               00                              |     .          |                    n: 0 0x2a5-0x2a5.7 (1)
     |                                               |                |                  [4]{}: in 0x2a6-0x2a7.7 (2)
0x2a0|                  10                           |      .         |                    call: 0x10 (valid) 0x2a6-0x2a6.7 (1)
0x2a0|                     05                        |       .        |                    x: 5 0x2a7-0x2a7.7 (1)
     |                                               |                |                  [5]{}: in 0x2a8-0x2a8.7 (1)
0x2a0|                        bf                     |        .       |                    f64.reinterpret_i64: 0xbf (valid) 0x2a8-0x2a8.7 (1)
     |                                               |                |                  [6]{}: in 0x2a9-0x2a9.7 (1)
0x2a0|                           0b|                 |         .|     |                    end: 0xb (valid) 0x2a9-0x2a9.7 (1)
