$ fq -d wasm dv exports-29.wasm
    |00 01 02 03 04 05 06 07 08 09 0a 0b 0c 0d 0e 0f|0123456789abcdef|.{}: exports-29.wasm (wasm) 0x0-0x1c (28)
0x00|00 61 73 6d                                    |.asm            |  magic: raw bits (valid) 0x0-0x4 (4)
0x00|            01 00 00 00                        |    ....        |  version: 1 0x4-0x8 (4)
    |                                               |                |  sections[0:2]: 0x8-0x1c (20)
    |                                               |                |    [0]{}: section 0x8-0x11 (9)
0x00|                        04                     |        .       |      id: "table_section" (4) 0x8-0x9 (1)
0x00|                           07                  |         .      |      size: 7 (valid) 0x9-0xa (1)
    |                                               |                |      content{}: 0xa-0x11 (7)
    |                                               |                |        tab{}: 0xa-0x11 (7)
0x00|                              02               |          .     |          n: 2 (valid) 0xa-0xb (1)
    |                                               |                |          x[0:2]: 0xb-0x11 (6)
    |                                               |                |            [0]{}: tab 0xb-0xe (3)
0x00|                                 70            |           p    |              et: "funcref" (112) 0xb-0xc (1)
    |                                               |                |              lim{}: 0xc-0xe (2)
0x00|                                    00         |            .   |                tag: 0x0 0xc-0xd (1)
0x00|                                       00      |             .  |                n: 0 (valid) 0xd-0xe (1)
    |                                               |                |            [1]{}: tab 0xe-0x11 (3)
0x00|                                          70   |              p |              et: "funcref" (112) 0xe-0xf (1)
    |                                               |                |              lim{}: 0xf-0x11 (2)
0x00|                                             00|               .|                tag: 0x0 0xf-0x10 (1)
0x10|00                                             |.               |                n: 0 (valid) 0x10-0x11 (1)
    |                                               |                |    [1]{}: section 0x11-0x1c (11)
0x10|   07                                          | .              |      id: "export_section" (7) 0x11-0x12 (1)
0x10|      09                                       |  .             |      size: 9 (valid) 0x12-0x13 (1)
    |                                               |                |      content{}: 0x13-0x1c (9)
    |                                               |                |        ex{}: 0x13-0x1c (9)
0x10|         02                                    |   .            |          n: 2 (valid) 0x13-0x14 (1)
    |                                               |                |          x[0:2]: 0x14-0x1c (8)
    |                                               |                |            [0]{}: ex 0x14-0x18 (4)
    |                                               |                |              nm{}: 0x14-0x16 (2)
0x10|            01                                 |    .           |                n: 1 (valid) 0x14-0x15 (1)
0x10|               61                              |     a          |                b: "a" 0x15-0x16 (1)
    |                                               |                |              d{}: 0x16-0x18 (2)
0x10|                  01                           |      .         |                tag: "tableidx" (0x1) 0x16-0x17 (1)
0x10|                     00                        |       .        |                x: 0 (valid) 0x17-0x18 (1)
    |                                               |                |            [1]{}: ex 0x18-0x1c (4)
    |                                               |                |              nm{}: 0x18-0x1a (2)
0x10|                        01                     |        .       |                n: 1 (valid) 0x18-0x19 (1)
0x10|                           62                  |         b      |                b: "b" 0x19-0x1a (1)
    |                                               |                |              d{}: 0x1a-0x1c (2)
0x10|                              01               |          .     |                tag: "tableidx" (0x1) 0x1a-0x1b (1)
0x10|                                 01|           |           .|   |                x: 1 (valid) 0x1b-0x1c (1)
