$ fq -d wasm dv exports-28.wasm
    |00 01 02 03 04 05 06 07 08 09 0a 0b 0c 0d 0e 0f|0123456789abcdef|.{}: exports-28.wasm (wasm) 0x0-0x19 (25)
0x00|00 61 73 6d                                    |.asm            |  magic: raw bits (valid) 0x0-0x4 (4)
0x00|            01 00 00 00                        |    ....        |  version: 1 0x4-0x8 (4)
    |                                               |                |  sections[0:2]: 0x8-0x19 (17)
    |                                               |                |    [0]{}: section 0x8-0xe (6)
0x00|                        04                     |        .       |      id: "table_section" (4) 0x8-0x9 (1)
0x00|                           04                  |         .      |      size: 4 (valid) 0x9-0xa (1)
    |                                               |                |      content{}: 0xa-0xe (4)
    |                                               |                |        tab{}: 0xa-0xe (4)
0x00|                              01               |          .     |          n: 1 (valid) 0xa-0xb (1)
    |                                               |                |          x[0:1]: 0xb-0xe (3)
    |                                               |                |            [0]{}: tab 0xb-0xe (3)
0x00|                                 70            |           p    |              et: "funcref" (112) 0xb-0xc (1)
    |                                               |                |              lim{}: 0xc-0xe (2)
0x00|                                    00         |            .   |                tag: 0x0 0xc-0xd (1)
0x00|                                       00      |             .  |                n: 0 (valid) 0xd-0xe (1)
    |                                               |                |    [1]{}: section 0xe-0x19 (11)
0x00|                                          07   |              . |      id: "export_section" (7) 0xe-0xf (1)
0x00|                                             09|               .|      size: 9 (valid) 0xf-0x10 (1)
    |                                               |                |      content{}: 0x10-0x19 (9)
    |                                               |                |        ex{}: 0x10-0x19 (9)
0x10|02                                             |.               |          n: 2 (valid) 0x10-0x11 (1)
    |                                               |                |          x[0:2]: 0x11-0x19 (8)
    |                                               |                |            [0]{}: ex 0x11-0x15 (4)
    |                                               |                |              nm{}: 0x11-0x13 (2)
0x10|   01                                          | .              |                n: 1 (valid) 0x11-0x12 (1)
0x10|      61                                       |  a             |                b: "a" 0x12-0x13 (1)
    |                                               |                |              d{}: 0x13-0x15 (2)
0x10|         01                                    |   .            |                tag: "tableidx" (0x1) 0x13-0x14 (1)
0x10|            00                                 |    .           |                x: 0 (valid) 0x14-0x15 (1)
    |                                               |                |            [1]{}: ex 0x15-0x19 (4)
    |                                               |                |              nm{}: 0x15-0x17 (2)
0x10|               01                              |     .          |                n: 1 (valid) 0x15-0x16 (1)
0x10|                  62                           |      b         |                b: "b" 0x16-0x17 (1)
    |                                               |                |              d{}: 0x17-0x19 (2)
0x10|                     01                        |       .        |                tag: "tableidx" (0x1) 0x17-0x18 (1)
0x10|                        00|                    |        .|      |                x: 0 (valid) 0x18-0x19 (1)
