$ fq -d wasm dv exports-27.wasm
    |00 01 02 03 04 05 06 07 08 09 0a 0b 0c 0d 0e 0f|0123456789abcdef|.{}: exports-27.wasm (wasm) 0x0-0x14.7 (21)
0x00|00 61 73 6d                                    |.asm            |  magic: raw bits (valid) 0x0-0x3.7 (4)
0x00|            01 00 00 00                        |    ....        |  version: 1 0x4-0x7.7 (4)
    |                                               |                |  sections[0:2]: 0x8-0x14.7 (13)
    |                                               |                |    [0]{}: section 0x8-0xd.7 (6)
0x00|                        04                     |        .       |      id: "table section" (4) 0x8-0x8.7 (1)
0x00|                           04                  |         .      |      size: 4 0x9-0x9.7 (1)
    |                                               |                |      content{}: 0xa-0xd.7 (4)
    |                                               |                |        tab{}: 0xa-0xd.7 (4)
0x00|                              01               |          .     |          n: 1 0xa-0xa.7 (1)
    |                                               |                |          x[0:1]: 0xb-0xd.7 (3)
    |                                               |                |            [0]{}: tab 0xb-0xd.7 (3)
0x00|                                 70            |           p    |              et: "funcref" (112) 0xb-0xb.7 (1)
    |                                               |                |              lim{}: 0xc-0xd.7 (2)
0x00|                                    00         |            .   |                tag: 0x0 0xc-0xc.7 (1)
0x00|                                       00      |             .  |                n: 0 0xd-0xd.7 (1)
    |                                               |                |    [1]{}: section 0xe-0x14.7 (7)
0x00|                                          07   |              . |      id: "export section" (7) 0xe-0xe.7 (1)
0x00|                                             05|               .|      size: 5 0xf-0xf.7 (1)
    |                                               |                |      content{}: 0x10-0x14.7 (5)
    |                                               |                |        ex{}: 0x10-0x14.7 (5)
0x10|01                                             |.               |          n: 1 0x10-0x10.7 (1)
    |                                               |                |          x[0:1]: 0x11-0x14.7 (4)
    |                                               |                |            [0]{}: ex 0x11-0x14.7 (4)
    |                                               |                |              nm{}: 0x11-0x12.7 (2)
0x10|   01                                          | .              |                n: 1 0x11-0x11.7 (1)
0x10|      61                                       |  a             |                b: "a" 0x12-0x12.7 (1)
    |                                               |                |              d{}: 0x13-0x14.7 (2)
0x10|         01                                    |   .            |                tag: "tableidx" (0x1) 0x13-0x13.7 (1)
0x10|            00|                                |    .|          |                x: 0 0x14-0x14.7 (1)
