$ fq -d wasm dv exports-7.wasm
    |00 01 02 03 04 05 06 07 08 09 0a 0b 0c 0d 0e 0f|0123456789abcdef|.{}: exports-7.wasm (wasm) 0x0-0x1f (31)
0x00|00 61 73 6d                                    |.asm            |  magic: raw bits (valid) 0x0-0x4 (4)
0x00|            01 00 00 00                        |    ....        |  version: 1 0x4-0x8 (4)
    |                                               |                |  sections[0:4]: 0x8-0x1f (23)
    |                                               |                |    [0]{}: section 0x8-0xe (6)
0x00|                        01                     |        .       |      id: "type_section" (1) 0x8-0x9 (1)
0x00|                           04                  |         .      |      size: 4 (valid) 0x9-0xa (1)
    |                                               |                |      content{}: 0xa-0xe (4)
    |                                               |                |        ft{}: 0xa-0xe (4)
0x00|                              01               |          .     |          n: 1 (valid) 0xa-0xb (1)
    |                                               |                |          x[0:1]: 0xb-0xe (3)
    |                                               |                |            [0]{}: ft 0xb-0xe (3)
0x00|                                 60            |           `    |              tag: 0x60 (valid) 0xb-0xc (1)
    |                                               |                |              rt1{}: 0xc-0xd (1)
0x00|                                    00         |            .   |                n: 0 (valid) 0xc-0xd (1)
    |                                               |                |                x[0:0]: 0xd-0xd (0)
    |                                               |                |              rt2{}: 0xd-0xe (1)
0x00|                                       00      |             .  |                n: 0 (valid) 0xd-0xe (1)
    |                                               |                |                x[0:0]: 0xe-0xe (0)
    |                                               |                |    [1]{}: section 0xe-0x12 (4)
0x00|                                          03   |              . |      id: "function_section" (3) 0xe-0xf (1)
0x00|                                             02|               .|      size: 2 (valid) 0xf-0x10 (1)
    |                                               |                |      content{}: 0x10-0x12 (2)
    |                                               |                |        x{}: 0x10-0x12 (2)
0x10|01                                             |.               |          n: 1 (valid) 0x10-0x11 (1)
    |                                               |                |          x[0:1]: 0x11-0x12 (1)
0x10|   00                                          | .              |            [0]: 0 x (valid) 0x11-0x12 (1)
    |                                               |                |    [2]{}: section 0x12-0x19 (7)
0x10|      07                                       |  .             |      id: "export_section" (7) 0x12-0x13 (1)
0x10|         05                                    |   .            |      size: 5 (valid) 0x13-0x14 (1)
    |                                               |                |      content{}: 0x14-0x19 (5)
    |                                               |                |        ex{}: 0x14-0x19 (5)
0x10|            01                                 |    .           |          n: 1 (valid) 0x14-0x15 (1)
    |                                               |                |          x[0:1]: 0x15-0x19 (4)
    |                                               |                |            [0]{}: ex 0x15-0x19 (4)
    |                                               |                |              nm{}: 0x15-0x17 (2)
0x10|               01                              |     .          |                n: 1 (valid) 0x15-0x16 (1)
0x10|                  61                           |      a         |                b: "a" 0x16-0x17 (1)
    |                                               |                |              d{}: 0x17-0x19 (2)
0x10|                     00                        |       .        |                tag: "funcidx" (0x0) 0x17-0x18 (1)
0x10|                        00                     |        .       |                x: 0 (valid) 0x18-0x19 (1)
    |                                               |                |    [3]{}: section 0x19-0x1f (6)
0x10|                           0a                  |         .      |      id: "code_section" (10) 0x19-0x1a (1)
0x10|                              04               |          .     |      size: 4 (valid) 0x1a-0x1b (1)
    |                                               |                |      content{}: 0x1b-0x1f (4)
    |                                               |                |        code{}: 0x1b-0x1f (4)
0x10|                                 01            |           .    |          n: 1 (valid) 0x1b-0x1c (1)
    |                                               |                |          x[0:1]: 0x1c-0x1f (3)
    |                                               |                |            [0]{}: code 0x1c-0x1f (3)
0x10|                                    02         |            .   |              size: 2 (valid) 0x1c-0x1d (1)
    |                                               |                |              code{}: 0x1d-0x1f (2)
    |                                               |                |                t{}: 0x1d-0x1e (1)
0x10|                                       00      |             .  |                  n: 0 (valid) 0x1d-0x1e (1)
    |                                               |                |                  x[0:0]: 0x1e-0x1e (0)
    |                                               |                |                e[0:1]: 0x1e-0x1f (1)
    |                                               |                |                  [0]{}: in 0x1e-0x1f (1)
0x10|                                          0b|  |              .||                    opcode: "end" (0xb) 0x1e-0x1f (1)
