$ fq -d wasm dv exports-39.wasm
    |00 01 02 03 04 05 06 07 08 09 0a 0b 0c 0d 0e 0f|0123456789abcdef|.{}: exports-39.wasm (wasm) 0x0-0x16 (22)
0x00|00 61 73 6d                                    |.asm            |  magic: raw bits (valid) 0x0-0x4 (4)
0x00|            01 00 00 00                        |    ....        |  version: 1 0x4-0x8 (4)
    |                                               |                |  sections[0:2]: 0x8-0x16 (14)
    |                                               |                |    [0]{}: section 0x8-0xf (7)
0x00|                        04                     |        .       |      id: "table_section" (4) 0x8-0x9 (1)
0x00|                           05                  |         .      |      size: 5 (valid) 0x9-0xa (1)
    |                                               |                |      content{}: 0xa-0xf (5)
    |                                               |                |        tab{}: 0xa-0xf (5)
0x00|                              01               |          .     |          n: 1 (valid) 0xa-0xb (1)
    |                                               |                |          x[0:1]: 0xb-0xf (4)
    |                                               |                |            [0]{}: tab 0xb-0xf (4)
0x00|                                 70            |           p    |              et: "funcref" (112) 0xb-0xc (1)
    |                                               |                |              lim{}: 0xc-0xf (3)
0x00|                                    01         |            .   |                tag: 0x1 0xc-0xd (1)
0x00|                                       00      |             .  |                n: 0 (valid) 0xd-0xe (1)
0x00|                                          01   |              . |                m: 1 (valid) 0xe-0xf (1)
    |                                               |                |    [1]{}: section 0xf-0x16 (7)
0x00|                                             07|               .|      id: "export_section" (7) 0xf-0x10 (1)
0x10|05                                             |.               |      size: 5 (valid) 0x10-0x11 (1)
    |                                               |                |      content{}: 0x11-0x16 (5)
    |                                               |                |        ex{}: 0x11-0x16 (5)
0x10|   01                                          | .              |          n: 1 (valid) 0x11-0x12 (1)
    |                                               |                |          x[0:1]: 0x12-0x16 (4)
    |                                               |                |            [0]{}: ex 0x12-0x16 (4)
    |                                               |                |              nm{}: 0x12-0x14 (2)
0x10|      01                                       |  .             |                n: 1 (valid) 0x12-0x13 (1)
0x10|         61                                    |   a            |                b: "a" 0x13-0x14 (1)
    |                                               |                |              d{}: 0x14-0x16 (2)
0x10|            01                                 |    .           |                tag: "tableidx" (0x1) 0x14-0x15 (1)
0x10|               00|                             |     .|         |                x: 0 (valid) 0x15-0x16 (1)
