$ fq -d wasm dv exports-17.wasm
    |00 01 02 03 04 05 06 07 08 09 0a 0b 0c 0d 0e 0f|0123456789abcdef|.{}: exports-17.wasm (wasm) 0x0-0x20 (32)
0x00|00 61 73 6d                                    |.asm            |  magic: raw bits (valid) 0x0-0x4 (4)
0x00|            01 00 00 00                        |    ....        |  version: 1 0x4-0x8 (4)
    |                                               |                |  sections[0:2]: 0x8-0x20 (24)
    |                                               |                |    [0]{}: section 0x8-0x15 (13)
0x00|                        06                     |        .       |      id: "global_section" (6) 0x8-0x9 (1)
0x00|                           0b                  |         .      |      size: 11 (valid) 0x9-0xa (1)
    |                                               |                |      content{}: 0xa-0x15 (11)
    |                                               |                |        glob{}: 0xa-0x15 (11)
0x00|                              02               |          .     |          n: 2 (valid) 0xa-0xb (1)
    |                                               |                |          x[0:2]: 0xb-0x15 (10)
    |                                               |                |            [0]{}: glob 0xb-0x10 (5)
    |                                               |                |              gt{}: 0xb-0xd (2)
0x00|                                 7f            |           .    |                t: "i32" (0x7f) 0xb-0xc (1)
0x00|                                    00         |            .   |                m: "const" (0) 0xc-0xd (1)
    |                                               |                |              e[0:2]: 0xd-0x10 (3)
    |                                               |                |                [0]{}: in 0xd-0xf (2)
0x00|                                       41      |             A  |                  opcode: "i32.const" (0x41) 0xd-0xe (1)
0x00|                                          00   |              . |                  n: 0 (valid) 0xe-0xf (1)
    |                                               |                |                [1]{}: in 0xf-0x10 (1)
0x00|                                             0b|               .|                  opcode: "end" (0xb) 0xf-0x10 (1)
    |                                               |                |            [1]{}: glob 0x10-0x15 (5)
    |                                               |                |              gt{}: 0x10-0x12 (2)
0x10|7f                                             |.               |                t: "i32" (0x7f) 0x10-0x11 (1)
0x10|   00                                          | .              |                m: "const" (0) 0x11-0x12 (1)
    |                                               |                |              e[0:2]: 0x12-0x15 (3)
    |                                               |                |                [0]{}: in 0x12-0x14 (2)
0x10|      41                                       |  A             |                  opcode: "i32.const" (0x41) 0x12-0x13 (1)
0x10|         00                                    |   .            |                  n: 0 (valid) 0x13-0x14 (1)
    |                                               |                |                [1]{}: in 0x14-0x15 (1)
0x10|            0b                                 |    .           |                  opcode: "end" (0xb) 0x14-0x15 (1)
    |                                               |                |    [1]{}: section 0x15-0x20 (11)
0x10|               07                              |     .          |      id: "export_section" (7) 0x15-0x16 (1)
0x10|                  09                           |      .         |      size: 9 (valid) 0x16-0x17 (1)
    |                                               |                |      content{}: 0x17-0x20 (9)
    |                                               |                |        ex{}: 0x17-0x20 (9)
0x10|                     02                        |       .        |          n: 2 (valid) 0x17-0x18 (1)
    |                                               |                |          x[0:2]: 0x18-0x20 (8)
    |                                               |                |            [0]{}: ex 0x18-0x1c (4)
    |                                               |                |              nm{}: 0x18-0x1a (2)
0x10|                        01                     |        .       |                n: 1 (valid) 0x18-0x19 (1)
0x10|                           61                  |         a      |                b: "a" 0x19-0x1a (1)
    |                                               |                |              d{}: 0x1a-0x1c (2)
0x10|                              03               |          .     |                tag: "globalidx" (0x3) 0x1a-0x1b (1)
0x10|                                 00            |           .    |                x: 0 (valid) 0x1b-0x1c (1)
    |                                               |                |            [1]{}: ex 0x1c-0x20 (4)
    |                                               |                |              nm{}: 0x1c-0x1e (2)
0x10|                                    01         |            .   |                n: 1 (valid) 0x1c-0x1d (1)
0x10|                                       62      |             b  |                b: "b" 0x1d-0x1e (1)
    |                                               |                |              d{}: 0x1e-0x20 (2)
0x10|                                          03   |              . |                tag: "globalidx" (0x3) 0x1e-0x1f (1)
0x10|                                             01|               .|                x: 1 (valid) 0x1f-0x20 (1)
