$ fq -d wasm dv exports-16.wasm
    |00 01 02 03 04 05 06 07 08 09 0a 0b 0c 0d 0e 0f|0123456789abcdef|.{}: exports-16.wasm (wasm) 0x0-0x1a.7 (27)
0x00|00 61 73 6d                                    |.asm            |  magic: raw bits (valid) 0x0-0x3.7 (4)
0x00|            01 00 00 00                        |    ....        |  version: 1 0x4-0x7.7 (4)
    |                                               |                |  sections[0:2]: 0x8-0x1a.7 (19)
    |                                               |                |    [0]{}: section 0x8-0xf.7 (8)
0x00|                        06                     |        .       |      id: "global section" (6) 0x8-0x8.7 (1)
0x00|                           06                  |         .      |      size: 6 0x9-0x9.7 (1)
    |                                               |                |      content{}: 0xa-0xf.7 (6)
    |                                               |                |        glob{}: 0xa-0xf.7 (6)
0x00|                              01               |          .     |          n: 1 0xa-0xa.7 (1)
    |                                               |                |          x[0:1]: 0xb-0xf.7 (5)
    |                                               |                |            [0]{}: glob 0xb-0xf.7 (5)
    |                                               |                |              gt{}: 0xb-0xc.7 (2)
0x00|                                 7f            |           .    |                t: "i32" (0x7f) 0xb-0xb.7 (1)
0x00|                                    00         |            .   |                m: "const" (0) 0xc-0xc.7 (1)
    |                                               |                |              e[0:2]: 0xd-0xf.7 (3)
    |                                               |                |                [0]{}: in 0xd-0xe.7 (2)
0x00|                                       41      |             A  |                  i32.const: 0x41 (valid) 0xd-0xd.7 (1)
0x00|                                          00   |              . |                  n: 0 0xe-0xe.7 (1)
    |                                               |                |                [1]{}: in 0xf-0xf.7 (1)
0x00|                                             0b|               .|                  end: 0xb (valid) 0xf-0xf.7 (1)
    |                                               |                |    [1]{}: section 0x10-0x1a.7 (11)
0x10|07                                             |.               |      id: "export section" (7) 0x10-0x10.7 (1)
0x10|   09                                          | .              |      size: 9 0x11-0x11.7 (1)
    |                                               |                |      content{}: 0x12-0x1a.7 (9)
    |                                               |                |        ex{}: 0x12-0x1a.7 (9)
0x10|      02                                       |  .             |          n: 2 0x12-0x12.7 (1)
    |                                               |                |          x[0:2]: 0x13-0x1a.7 (8)
    |                                               |                |            [0]{}: ex 0x13-0x16.7 (4)
    |                                               |                |              nm{}: 0x13-0x14.7 (2)
0x10|         01                                    |   .            |                n: 1 0x13-0x13.7 (1)
0x10|            61                                 |    a           |                b: "a" 0x14-0x14.7 (1)
    |                                               |                |              d{}: 0x15-0x16.7 (2)
0x10|               03                              |     .          |                tag: "globalidx" (0x3) 0x15-0x15.7 (1)
0x10|                  00                           |      .         |                x: 0 0x16-0x16.7 (1)
    |                                               |                |            [1]{}: ex 0x17-0x1a.7 (4)
    |                                               |                |              nm{}: 0x17-0x18.7 (2)
0x10|                     01                        |       .        |                n: 1 0x17-0x17.7 (1)
0x10|                        62                     |        b       |                b: "b" 0x18-0x18.7 (1)
    |                                               |                |              d{}: 0x19-0x1a.7 (2)
0x10|                           03                  |         .      |                tag: "globalidx" (0x3) 0x19-0x19.7 (1)
0x10|                              00|              |          .|    |                x: 0 0x1a-0x1a.7 (1)
