$ fq -d wasm dv exports-14.wasm
    |00 01 02 03 04 05 06 07 08 09 0a 0b 0c 0d 0e 0f|0123456789abcdef|.{}: exports-14.wasm (wasm) 0x0-0x2a (42)
0x00|00 61 73 6d                                    |.asm            |  magic: raw bits (valid) 0x0-0x4 (4)
0x00|            01 00 00 00                        |    ....        |  version: 1 0x4-0x8 (4)
    |                                               |                |  sections[0:4]: 0x8-0x2a (34)
    |                                               |                |    [0]{}: section 0x8-0xf (7)
0x00|                        01                     |        .       |      id: "type_section" (1) 0x8-0x9 (1)
0x00|                           05                  |         .      |      size: 5 (valid) 0x9-0xa (1)
    |                                               |                |      content{}: 0xa-0xf (5)
    |                                               |                |        ft{}: 0xa-0xf (5)
0x00|                              01               |          .     |          n: 1 (valid) 0xa-0xb (1)
    |                                               |                |          x[0:1]: 0xb-0xf (4)
    |                                               |                |            [0]{}: ft 0xb-0xf (4)
0x00|                                 60            |           `    |              tag: 0x60 (valid) 0xb-0xc (1)
    |                                               |                |              rt1{}: 0xc-0xd (1)
0x00|                                    00         |            .   |                n: 0 (valid) 0xc-0xd (1)
    |                                               |                |                x[0:0]: 0xd-0xd (0)
    |                                               |                |              rt2{}: 0xd-0xf (2)
0x00|                                       01      |             .  |                n: 1 (valid) 0xd-0xe (1)
    |                                               |                |                x[0:1]: 0xe-0xf (1)
0x00|                                          7f   |              . |                  [0]: "i32" (0x7f) t 0xe-0xf (1)
    |                                               |                |    [1]{}: section 0xf-0x13 (4)
0x00|                                             03|               .|      id: "function_section" (3) 0xf-0x10 (1)
0x10|02                                             |.               |      size: 2 (valid) 0x10-0x11 (1)
    |                                               |                |      content{}: 0x11-0x13 (2)
    |                                               |                |        x{}: 0x11-0x13 (2)
0x10|   01                                          | .              |          n: 1 (valid) 0x11-0x12 (1)
    |                                               |                |          x[0:1]: 0x12-0x13 (1)
0x10|      00                                       |  .             |            [0]: 0 x (valid) 0x12-0x13 (1)
    |                                               |                |    [2]{}: section 0x13-0x22 (15)
0x10|         07                                    |   .            |      id: "export_section" (7) 0x13-0x14 (1)
0x10|            0d                                 |    .           |      size: 13 (valid) 0x14-0x15 (1)
    |                                               |                |      content{}: 0x15-0x22 (13)
    |                                               |                |        ex{}: 0x15-0x22 (13)
0x10|               03                              |     .          |          n: 3 (valid) 0x15-0x16 (1)
    |                                               |                |          x[0:3]: 0x16-0x22 (12)
    |                                               |                |            [0]{}: ex 0x16-0x1a (4)
    |                                               |                |              nm{}: 0x16-0x18 (2)
0x10|                  01                           |      .         |                n: 1 (valid) 0x16-0x17 (1)
0x10|                     61                        |       a        |                b: "a" 0x17-0x18 (1)
    |                                               |                |              d{}: 0x18-0x1a (2)
0x10|                        00                     |        .       |                tag: "funcidx" (0x0) 0x18-0x19 (1)
0x10|                           00                  |         .      |                x: 0 (valid) 0x19-0x1a (1)
    |                                               |                |            [1]{}: ex 0x1a-0x1e (4)
    |                                               |                |              nm{}: 0x1a-0x1c (2)
0x10|                              01               |          .     |                n: 1 (valid) 0x1a-0x1b (1)
0x10|                                 62            |           b    |                b: "b" 0x1b-0x1c (1)
    |                                               |                |              d{}: 0x1c-0x1e (2)
0x10|                                    00         |            .   |                tag: "funcidx" (0x0) 0x1c-0x1d (1)
0x10|                                       00      |             .  |                x: 0 (valid) 0x1d-0x1e (1)
    |                                               |                |            [2]{}: ex 0x1e-0x22 (4)
    |                                               |                |              nm{}: 0x1e-0x20 (2)
0x10|                                          01   |              . |                n: 1 (valid) 0x1e-0x1f (1)
0x10|                                             63|               c|                b: "c" 0x1f-0x20 (1)
    |                                               |                |              d{}: 0x20-0x22 (2)
0x20|00                                             |.               |                tag: "funcidx" (0x0) 0x20-0x21 (1)
0x20|   00                                          | .              |                x: 0 (valid) 0x21-0x22 (1)
    |                                               |                |    [3]{}: section 0x22-0x2a (8)
0x20|      0a                                       |  .             |      id: "code_section" (10) 0x22-0x23 (1)
0x20|         06                                    |   .            |      size: 6 (valid) 0x23-0x24 (1)
    |                                               |                |      content{}: 0x24-0x2a (6)
    |                                               |                |        code{}: 0x24-0x2a (6)
0x20|            01                                 |    .           |          n: 1 (valid) 0x24-0x25 (1)
    |                                               |                |          x[0:1]: 0x25-0x2a (5)
    |                                               |                |            [0]{}: code 0x25-0x2a (5)
0x20|               04                              |     .          |              size: 4 (valid) 0x25-0x26 (1)
    |                                               |                |              code{}: 0x26-0x2a (4)
    |                                               |                |                t{}: 0x26-0x27 (1)
0x20|                  00                           |      .         |                  n: 0 (valid) 0x26-0x27 (1)
    |                                               |                |                  x[0:0]: 0x27-0x27 (0)
    |                                               |                |                e[0:2]: 0x27-0x2a (3)
    |                                               |                |                  [0]{}: in 0x27-0x29 (2)
0x20|                     41                        |       A        |                    opcode: "i32.const" (0x41) 0x27-0x28 (1)
0x20|                        2a                     |        *       |                    n: 42 (valid) 0x28-0x29 (1)
    |                                               |                |                  [1]{}: in 0x29-0x2a (1)
0x20|                           0b|                 |         .|     |                    opcode: "end" (0xb) 0x29-0x2a (1)
