$ fq -d wasm dv exports-42.wasm
    |00 01 02 03 04 05 06 07 08 09 0a 0b 0c 0d 0e 0f|0123456789abcdef|.{}: exports-42.wasm (wasm) 0x0-0x14 (20)
0x00|00 61 73 6d                                    |.asm            |  magic: raw bits (valid) 0x0-0x4 (4)
0x00|            01 00 00 00                        |    ....        |  version: 1 0x4-0x8 (4)
    |                                               |                |  sections[0:2]: 0x8-0x14 (12)
    |                                               |                |    [0]{}: section 0x8-0xd (5)
0x00|                        05                     |        .       |      id: "memory_section" (5) 0x8-0x9 (1)
0x00|                           03                  |         .      |      size: 3 (valid) 0x9-0xa (1)
    |                                               |                |      content{}: 0xa-0xd (3)
    |                                               |                |        mem{}: 0xa-0xd (3)
0x00|                              01               |          .     |          n: 1 (valid) 0xa-0xb (1)
    |                                               |                |          x[0:1]: 0xb-0xd (2)
    |                                               |                |            [0]{}: mem 0xb-0xd (2)
    |                                               |                |              lim{}: 0xb-0xd (2)
0x00|                                 00            |           .    |                tag: 0x0 0xb-0xc (1)
0x00|                                    00         |            .   |                n: 0 (valid) 0xc-0xd (1)
    |                                               |                |    [1]{}: section 0xd-0x14 (7)
0x00|                                       07      |             .  |      id: "export_section" (7) 0xd-0xe (1)
0x00|                                          05   |              . |      size: 5 (valid) 0xe-0xf (1)
    |                                               |                |      content{}: 0xf-0x14 (5)
    |                                               |                |        ex{}: 0xf-0x14 (5)
0x00|                                             01|               .|          n: 1 (valid) 0xf-0x10 (1)
    |                                               |                |          x[0:1]: 0x10-0x14 (4)
    |                                               |                |            [0]{}: ex 0x10-0x14 (4)
    |                                               |                |              nm{}: 0x10-0x12 (2)
0x10|01                                             |.               |                n: 1 (valid) 0x10-0x11 (1)
0x10|   61                                          | a              |                b: "a" 0x11-0x12 (1)
    |                                               |                |              d{}: 0x12-0x14 (2)
0x10|      02                                       |  .             |                tag: "memidx" (0x2) 0x12-0x13 (1)
0x10|         00|                                   |   .|           |                x: 0 (valid) 0x13-0x14 (1)
