$ fq -d wasm dv f32-0.wasm
    |00 01 02 03 04 05 06 07 08 09 0a 0b 0c 0d 0e 0f|0123456789abcdef|.{}: f32-0.wasm (wasm) 0x0-0xc3.7 (196)
0x00|00 61 73 6d                                    |.asm            |  magic: raw bits (valid) 0x0-0x3.7 (4)
0x00|            01 00 00 00                        |    ....        |  version: 1 0x4-0x7.7 (4)
    |                                               |                |  sections[0:4]: 0x8-0xc3.7 (188)
    |                                               |                |    [0]{}: section 0x8-0x15.7 (14)
0x00|                        01                     |        .       |      id: "type section" (1) 0x8-0x8.7 (1)
0x00|                           0c                  |         .      |      size: 12 0x9-0x9.7 (1)
    |                                               |                |      content{}: 0xa-0x15.7 (12)
    |                                               |                |        ft{}: 0xa-0x15.7 (12)
0x00|                              02               |          .     |          n: 2 0xa-0xa.7 (1)
    |                                               |                |          x[0:2]: 0xb-0x15.7 (11)
    |                                               |                |            [0]{}: ft 0xb-0x10.7 (6)
0x00|                                 60            |           `    |              tag: 0x60 (valid) 0xb-0xb.7 (1)
    |                                               |                |              rt1{}: 0xc-0xe.7 (3)
0x00|                                    02         |            .   |                n: 2 0xc-0xc.7 (1)
    |                                               |                |                x[0:2]: 0xd-0xe.7 (2)
0x00|                                       7d      |             }  |                  [0]: "f32" (0x7d) t 0xd-0xd.7 (1)
0x00|                                          7d   |              } |                  [1]: "f32" (0x7d) t 0xe-0xe.7 (1)
    |                                               |                |              rt2{}: 0xf-0x10.7 (2)
0x00|                                             01|               .|                n: 1 0xf-0xf.7 (1)
    |                                               |                |                x[0:1]: 0x10-0x10.7 (1)
0x10|7d                                             |}               |                  [0]: "f32" (0x7d) t 0x10-0x10.7 (1)
    |                                               |                |            [1]{}: ft 0x11-0x15.7 (5)
0x10|   60                                          | `              |              tag: 0x60 (valid) 0x11-0x11.7 (1)
    |                                               |                |              rt1{}: 0x12-0x13.7 (2)
0x10|      01                                       |  .             |                n: 1 0x12-0x12.7 (1)
    |                                               |                |                x[0:1]: 0x13-0x13.7 (1)
0x10|         7d                                    |   }            |                  [0]: "f32" (0x7d) t 0x13-0x13.7 (1)
    |                                               |                |              rt2{}: 0x14-0x15.7 (2)
0x10|            01                                 |    .           |                n: 1 0x14-0x14.7 (1)
    |                                               |                |                x[0:1]: 0x15-0x15.7 (1)
0x10|               7d                              |     }          |                  [0]: "f32" (0x7d) t 0x15-0x15.7 (1)
    |                                               |                |    [1]{}: section 0x16-0x23.7 (14)
0x10|                  03                           |      .         |      id: "function section" (3) 0x16-0x16.7 (1)
0x10|                     0c                        |       .        |      size: 12 0x17-0x17.7 (1)
    |                                               |                |      content{}: 0x18-0x23.7 (12)
    |                                               |                |        x{}: 0x18-0x23.7 (12)
0x10|                        0b                     |        .       |          n: 11 0x18-0x18.7 (1)
    |                                               |                |          x[0:11]: 0x19-0x23.7 (11)
0x10|                           00                  |         .      |            [0]: 0 x 0x19-0x19.7 (1)
0x10|                              00               |          .     |            [1]: 0 x 0x1a-0x1a.7 (1)
0x10|                                 00            |           .    |            [2]: 0 x 0x1b-0x1b.7 (1)
0x10|                                    00         |            .   |            [3]: 0 x 0x1c-0x1c.7 (1)
0x10|                                       01      |             .  |            [4]: 1 x 0x1d-0x1d.7 (1)
0x10|                                          00   |              . |            [5]: 0 x 0x1e-0x1e.7 (1)
0x10|                                             00|               .|            [6]: 0 x 0x1f-0x1f.7 (1)
0x20|01                                             |.               |            [7]: 1 x 0x20-0x20.7 (1)
0x20|   01                                          | .              |            [8]: 1 x 0x21-0x21.7 (1)
0x20|      01                                       |  .             |            [9]: 1 x 0x22-0x22.7 (1)
0x20|         01                                    |   .            |            [10]: 1 x 0x23-0x23.7 (1)
    |                                               |                |    [2]{}: section 0x24-0x72.7 (79)
0x20|            07                                 |    .           |      id: "export section" (7) 0x24-0x24.7 (1)
0x20|               4d                              |     M          |      size: 77 0x25-0x25.7 (1)
    |                                               |                |      content{}: 0x26-0x72.7 (77)
    |                                               |                |        ex{}: 0x26-0x72.7 (77)
0x20|                  0b                           |      .         |          n: 11 0x26-0x26.7 (1)
    |                                               |                |          x[0:11]: 0x27-0x72.7 (76)
    |                                               |                |            [0]{}: ex 0x27-0x2c.7 (6)
    |                                               |                |              nm{}: 0x27-0x2a.7 (4)
0x20|                     03                        |       .        |                n: 3 0x27-0x27.7 (1)
0x20|                        61 64 64               |        add     |                b: "add" 0x28-0x2a.7 (3)
    |                                               |                |              d{}: 0x2b-0x2c.7 (2)
0x20|                                 00            |           .    |                tag: "funcidx" (0x0) 0x2b-0x2b.7 (1)
0x20|                                    00         |            .   |                x: 0 0x2c-0x2c.7 (1)
    |                                               |                |            [1]{}: ex 0x2d-0x32.7 (6)
    |                                               |                |              nm{}: 0x2d-0x30.7 (4)
0x20|                                       03      |             .  |                n: 3 0x2d-0x2d.7 (1)
0x20|                                          73 75|              su|                b: "sub" 0x2e-0x30.7 (3)
0x30|62                                             |b               |
    |                                               |                |              d{}: 0x31-0x32.7 (2)
0x30|   00                                          | .              |                tag: "funcidx" (0x0) 0x31-0x31.7 (1)
0x30|      01                                       |  .             |                x: 1 0x32-0x32.7 (1)
    |                                               |                |            [2]{}: ex 0x33-0x38.7 (6)
    |                                               |                |              nm{}: 0x33-0x36.7 (4)
0x30|         03                                    |   .            |                n: 3 0x33-0x33.7 (1)
0x30|            6d 75 6c                           |    mul         |                b: "mul" 0x34-0x36.7 (3)
    |                                               |                |              d{}: 0x37-0x38.7 (2)
0x30|                     00                        |       .        |                tag: "funcidx" (0x0) 0x37-0x37.7 (1)
0x30|                        02                     |        .       |                x: 2 0x38-0x38.7 (1)
    |                                               |                |            [3]{}: ex 0x39-0x3e.7 (6)
    |                                               |                |              nm{}: 0x39-0x3c.7 (4)
0x30|                           03                  |         .      |                n: 3 0x39-0x39.7 (1)
0x30|                              64 69 76         |          div   |                b: "div" 0x3a-0x3c.7 (3)
    |                                               |                |              d{}: 0x3d-0x3e.7 (2)
0x30|                                       00      |             .  |                tag: "funcidx" (0x0) 0x3d-0x3d.7 (1)
0x30|                                          03   |              . |                x: 3 0x3e-0x3e.7 (1)
    |                                               |                |            [4]{}: ex 0x3f-0x45.7 (7)
    |                                               |                |              nm{}: 0x3f-0x43.7 (5)
0x30|                                             04|               .|                n: 4 0x3f-0x3f.7 (1)
0x40|73 71 72 74                                    |sqrt            |                b: "sqrt" 0x40-0x43.7 (4)
    |                                               |                |              d{}: 0x44-0x45.7 (2)
0x40|            00                                 |    .           |                tag: "funcidx" (0x0) 0x44-0x44.7 (1)
0x40|               04                              |     .          |                x: 4 0x45-0x45.7 (1)
    |                                               |                |            [5]{}: ex 0x46-0x4b.7 (6)
    |                                               |                |              nm{}: 0x46-0x49.7 (4)
0x40|                  03                           |      .         |                n: 3 0x46-0x46.7 (1)
0x40|                     6d 69 6e                  |       min      |                b: "min" 0x47-0x49.7 (3)
    |                                               |                |              d{}: 0x4a-0x4b.7 (2)
0x40|                              00               |          .     |                tag: "funcidx" (0x0) 0x4a-0x4a.7 (1)
0x40|                                 05            |           .    |                x: 5 0x4b-0x4b.7 (1)
    |                                               |                |            [6]{}: ex 0x4c-0x51.7 (6)
    |                                               |                |              nm{}: 0x4c-0x4f.7 (4)
0x40|                                    03         |            .   |                n: 3 0x4c-0x4c.7 (1)
0x40|                                       6d 61 78|             max|                b: "max" 0x4d-0x4f.7 (3)
    |                                               |                |              d{}: 0x50-0x51.7 (2)
0x50|00                                             |.               |                tag: "funcidx" (0x0) 0x50-0x50.7 (1)
0x50|   06                                          | .              |                x: 6 0x51-0x51.7 (1)
    |                                               |                |            [7]{}: ex 0x52-0x58.7 (7)
    |                                               |                |              nm{}: 0x52-0x56.7 (5)
0x50|      04                                       |  .             |                n: 4 0x52-0x52.7 (1)
0x50|         63 65 69 6c                           |   ceil         |                b: "ceil" 0x53-0x56.7 (4)
    |                                               |                |              d{}: 0x57-0x58.7 (2)
0x50|                     00                        |       .        |                tag: "funcidx" (0x0) 0x57-0x57.7 (1)
0x50|                        07                     |        .       |                x: 7 0x58-0x58.7 (1)
    |                                               |                |            [8]{}: ex 0x59-0x60.7 (8)
    |                                               |                |              nm{}: 0x59-0x5e.7 (6)
0x50|                           05                  |         .      |                n: 5 0x59-0x59.7 (1)
0x50|                              66 6c 6f 6f 72   |          floor |                b: "floor" 0x5a-0x5e.7 (5)
    |                                               |                |              d{}: 0x5f-0x60.7 (2)
0x50|                                             00|               .|                tag: "funcidx" (0x0) 0x5f-0x5f.7 (1)
0x60|08                                             |.               |                x: 8 0x60-0x60.7 (1)
    |                                               |                |            [9]{}: ex 0x61-0x68.7 (8)
    |                                               |                |              nm{}: 0x61-0x66.7 (6)
0x60|   05                                          | .              |                n: 5 0x61-0x61.7 (1)
0x60|      74 72 75 6e 63                           |  trunc         |                b: "trunc" 0x62-0x66.7 (5)
    |                                               |                |              d{}: 0x67-0x68.7 (2)
0x60|                     00                        |       .        |                tag: "funcidx" (0x0) 0x67-0x67.7 (1)
0x60|                        09                     |        .       |                x: 9 0x68-0x68.7 (1)
    |                                               |                |            [10]{}: ex 0x69-0x72.7 (10)
    |                                               |                |              nm{}: 0x69-0x70.7 (8)
0x60|                           07                  |         .      |                n: 7 0x69-0x69.7 (1)
0x60|                              6e 65 61 72 65 73|          neares|                b: "nearest" 0x6a-0x70.7 (7)
0x70|74                                             |t               |
    |                                               |                |              d{}: 0x71-0x72.7 (2)
0x70|   00                                          | .              |                tag: "funcidx" (0x0) 0x71-0x71.7 (1)
0x70|      0a                                       |  .             |                x: 10 0x72-0x72.7 (1)
    |                                               |                |    [3]{}: section 0x73-0xc3.7 (81)
0x70|         0a                                    |   .            |      id: "code section" (10) 0x73-0x73.7 (1)
0x70|            4f                                 |    O           |      size: 79 0x74-0x74.7 (1)
    |                                               |                |      content{}: 0x75-0xc3.7 (79)
    |                                               |                |        code{}: 0x75-0xc3.7 (79)
0x70|               0b                              |     .          |          n: 11 0x75-0x75.7 (1)
    |                                               |                |          x[0:11]: 0x76-0xc3.7 (78)
    |                                               |                |            [0]{}: code 0x76-0x7d.7 (8)
0x70|                  07                           |      .         |              size: 7 0x76-0x76.7 (1)
    |                                               |                |              code{}: 0x77-0x7d.7 (7)
    |                                               |                |                t{}: 0x77-0x77.7 (1)
0x70|                     00                        |       .        |                  n: 0 0x77-0x77.7 (1)
    |                                               |                |                  x[0:0]: 0x78-NA (0)
    |                                               |                |                e[0:4]: 0x78-0x7d.7 (6)
    |                                               |                |                  [0]{}: in 0x78-0x79.7 (2)
0x70|                        20                     |                |                    local.get: 0x20 (valid) 0x78-0x78.7 (1)
0x70|                           00                  |         .      |                    x: 0 0x79-0x79.7 (1)
    |                                               |                |                  [1]{}: in 0x7a-0x7b.7 (2)
0x70|                              20               |                |                    local.get: 0x20 (valid) 0x7a-0x7a.7 (1)
0x70|                                 01            |           .    |                    x: 1 0x7b-0x7b.7 (1)
    |                                               |                |                  [2]{}: in 0x7c-0x7c.7 (1)
0x70|                                    92         |            .   |                    f32.add: 0x92 (valid) 0x7c-0x7c.7 (1)
    |                                               |                |                  [3]{}: in 0x7d-0x7d.7 (1)
0x70|                                       0b      |             .  |                    end: 0xb (valid) 0x7d-0x7d.7 (1)
    |                                               |                |            [1]{}: code 0x7e-0x85.7 (8)
0x70|                                          07   |              . |              size: 7 0x7e-0x7e.7 (1)
    |                                               |                |              code{}: 0x7f-0x85.7 (7)
    |                                               |                |                t{}: 0x7f-0x7f.7 (1)
0x70|                                             00|               .|                  n: 0 0x7f-0x7f.7 (1)
    |                                               |                |                  x[0:0]: 0x80-NA (0)
    |                                               |                |                e[0:4]: 0x80-0x85.7 (6)
    |                                               |                |                  [0]{}: in 0x80-0x81.7 (2)
0x80|20                                             |                |                    local.get: 0x20 (valid) 0x80-0x80.7 (1)
0x80|   00                                          | .              |                    x: 0 0x81-0x81.7 (1)
    |                                               |                |                  [1]{}: in 0x82-0x83.7 (2)
0x80|      20                                       |                |                    local.get: 0x20 (valid) 0x82-0x82.7 (1)
0x80|         01                                    |   .            |                    x: 1 0x83-0x83.7 (1)
    |                                               |                |                  [2]{}: in 0x84-0x84.7 (1)
0x80|            93                                 |    .           |                    f32.sub: 0x93 (valid) 0x84-0x84.7 (1)
    |                                               |                |                  [3]{}: in 0x85-0x85.7 (1)
0x80|               0b                              |     .          |                    end: 0xb (valid) 0x85-0x85.7 (1)
    |                                               |                |            [2]{}: code 0x86-0x8d.7 (8)
0x80|                  07                           |      .         |              size: 7 0x86-0x86.7 (1)
    |                                               |                |              code{}: 0x87-0x8d.7 (7)
    |                                               |                |                t{}: 0x87-0x87.7 (1)
0x80|                     00                        |       .        |                  n: 0 0x87-0x87.7 (1)
    |                                               |                |                  x[0:0]: 0x88-NA (0)
    |                                               |                |                e[0:4]: 0x88-0x8d.7 (6)
    |                                               |                |                  [0]{}: in 0x88-0x89.7 (2)
0x80|                        20                     |                |                    local.get: 0x20 (valid) 0x88-0x88.7 (1)
0x80|                           00                  |         .      |                    x: 0 0x89-0x89.7 (1)
    |                                               |                |                  [1]{}: in 0x8a-0x8b.7 (2)
0x80|                              20               |                |                    local.get: 0x20 (valid) 0x8a-0x8a.7 (1)
0x80|                                 01            |           .    |                    x: 1 0x8b-0x8b.7 (1)
    |                                               |                |                  [2]{}: in 0x8c-0x8c.7 (1)
0x80|                                    94         |            .   |                    f32.mul: 0x94 (valid) 0x8c-0x8c.7 (1)
    |                                               |                |                  [3]{}: in 0x8d-0x8d.7 (1)
0x80|                                       0b      |             .  |                    end: 0xb (valid) 0x8d-0x8d.7 (1)
    |                                               |                |            [3]{}: code 0x8e-0x95.7 (8)
0x80|                                          07   |              . |              size: 7 0x8e-0x8e.7 (1)
    |                                               |                |              code{}: 0x8f-0x95.7 (7)
    |                                               |                |                t{}: 0x8f-0x8f.7 (1)
0x80|                                             00|               .|                  n: 0 0x8f-0x8f.7 (1)
    |                                               |                |                  x[0:0]: 0x90-NA (0)
    |                                               |                |                e[0:4]: 0x90-0x95.7 (6)
    |                                               |                |                  [0]{}: in 0x90-0x91.7 (2)
0x90|20                                             |                |                    local.get: 0x20 (valid) 0x90-0x90.7 (1)
0x90|   00                                          | .              |                    x: 0 0x91-0x91.7 (1)
    |                                               |                |                  [1]{}: in 0x92-0x93.7 (2)
0x90|      20                                       |                |                    local.get: 0x20 (valid) 0x92-0x92.7 (1)
0x90|         01                                    |   .            |                    x: 1 0x93-0x93.7 (1)
    |                                               |                |                  [2]{}: in 0x94-0x94.7 (1)
0x90|            95                                 |    .           |                    f32.div: 0x95 (valid) 0x94-0x94.7 (1)
    |                                               |                |                  [3]{}: in 0x95-0x95.7 (1)
0x90|               0b                              |     .          |                    end: 0xb (valid) 0x95-0x95.7 (1)
    |                                               |                |            [4]{}: code 0x96-0x9b.7 (6)
0x90|                  05                           |      .         |              size: 5 0x96-0x96.7 (1)
    |                                               |                |              code{}: 0x97-0x9b.7 (5)
    |                                               |                |                t{}: 0x97-0x97.7 (1)
0x90|                     00                        |       .        |                  n: 0 0x97-0x97.7 (1)
    |                                               |                |                  x[0:0]: 0x98-NA (0)
    |                                               |                |                e[0:3]: 0x98-0x9b.7 (4)
    |                                               |                |                  [0]{}: in 0x98-0x99.7 (2)
0x90|                        20                     |                |                    local.get: 0x20 (valid) 0x98-0x98.7 (1)
0x90|                           00                  |         .      |                    x: 0 0x99-0x99.7 (1)
    |                                               |                |                  [1]{}: in 0x9a-0x9a.7 (1)
0x90|                              91               |          .     |                    f32.sqrt: 0x91 (valid) 0x9a-0x9a.7 (1)
    |                                               |                |                  [2]{}: in 0x9b-0x9b.7 (1)
0x90|                                 0b            |           .    |                    end: 0xb (valid) 0x9b-0x9b.7 (1)
    |                                               |                |            [5]{}: code 0x9c-0xa3.7 (8)
0x90|                                    07         |            .   |              size: 7 0x9c-0x9c.7 (1)
    |                                               |                |              code{}: 0x9d-0xa3.7 (7)
    |                                               |                |                t{}: 0x9d-0x9d.7 (1)
0x90|                                       00      |             .  |                  n: 0 0x9d-0x9d.7 (1)
    |                                               |                |                  x[0:0]: 0x9e-NA (0)
    |                                               |                |                e[0:4]: 0x9e-0xa3.7 (6)
    |                                               |                |                  [0]{}: in 0x9e-0x9f.7 (2)
0x90|                                          20   |                |                    local.get: 0x20 (valid) 0x9e-0x9e.7 (1)
0x90|                                             00|               .|                    x: 0 0x9f-0x9f.7 (1)
    |                                               |                |                  [1]{}: in 0xa0-0xa1.7 (2)
0xa0|20                                             |                |                    local.get: 0x20 (valid) 0xa0-0xa0.7 (1)
0xa0|   01                                          | .              |                    x: 1 0xa1-0xa1.7 (1)
    |                                               |                |                  [2]{}: in 0xa2-0xa2.7 (1)
0xa0|      96                                       |  .             |                    f32.min: 0x96 (valid) 0xa2-0xa2.7 (1)
    |                                               |                |                  [3]{}: in 0xa3-0xa3.7 (1)
0xa0|         0b                                    |   .            |                    end: 0xb (valid) 0xa3-0xa3.7 (1)
    |                                               |                |            [6]{}: code 0xa4-0xab.7 (8)
0xa0|            07                                 |    .           |              size: 7 0xa4-0xa4.7 (1)
    |                                               |                |              code{}: 0xa5-0xab.7 (7)
    |                                               |                |                t{}: 0xa5-0xa5.7 (1)
0xa0|               00                              |     .          |                  n: 0 0xa5-0xa5.7 (1)
    |                                               |                |                  x[0:0]: 0xa6-NA (0)
    |                                               |                |                e[0:4]: 0xa6-0xab.7 (6)
    |                                               |                |                  [0]{}: in 0xa6-0xa7.7 (2)
0xa0|                  20                           |                |                    local.get: 0x20 (valid) 0xa6-0xa6.7 (1)
0xa0|                     00                        |       .        |                    x: 0 0xa7-0xa7.7 (1)
    |                                               |                |                  [1]{}: in 0xa8-0xa9.7 (2)
0xa0|                        20                     |                |                    local.get: 0x20 (valid) 0xa8-0xa8.7 (1)
0xa0|                           01                  |         .      |                    x: 1 0xa9-0xa9.7 (1)
    |                                               |                |                  [2]{}: in 0xaa-0xaa.7 (1)
0xa0|                              97               |          .     |                    f32.max: 0x97 (valid) 0xaa-0xaa.7 (1)
    |                                               |                |                  [3]{}: in 0xab-0xab.7 (1)
0xa0|                                 0b            |           .    |                    end: 0xb (valid) 0xab-0xab.7 (1)
    |                                               |                |            [7]{}: code 0xac-0xb1.7 (6)
0xa0|                                    05         |            .   |              size: 5 0xac-0xac.7 (1)
    |                                               |                |              code{}: 0xad-0xb1.7 (5)
    |                                               |                |                t{}: 0xad-0xad.7 (1)
0xa0|                                       00      |             .  |                  n: 0 0xad-0xad.7 (1)
    |                                               |                |                  x[0:0]: 0xae-NA (0)
    |                                               |                |                e[0:3]: 0xae-0xb1.7 (4)
    |                                               |                |                  [0]{}: in 0xae-0xaf.7 (2)
0xa0|                                          20   |                |                    local.get: 0x20 (valid) 0xae-0xae.7 (1)
0xa0|                                             00|               .|                    x: 0 0xaf-0xaf.7 (1)
    |                                               |                |                  [1]{}: in 0xb0-0xb0.7 (1)
0xb0|8d                                             |.               |                    f32.ceil: 0x8d (valid) 0xb0-0xb0.7 (1)
    |                                               |                |                  [2]{}: in 0xb1-0xb1.7 (1)
0xb0|   0b                                          | .              |                    end: 0xb (valid) 0xb1-0xb1.7 (1)
    |                                               |                |            [8]{}: code 0xb2-0xb7.7 (6)
0xb0|      05                                       |  .             |              size: 5 0xb2-0xb2.7 (1)
    |                                               |                |              code{}: 0xb3-0xb7.7 (5)
    |                                               |                |                t{}: 0xb3-0xb3.7 (1)
0xb0|         00                                    |   .            |                  n: 0 0xb3-0xb3.7 (1)
    |                                               |                |                  x[0:0]: 0xb4-NA (0)
    |                                               |                |                e[0:3]: 0xb4-0xb7.7 (4)
    |                                               |                |                  [0]{}: in 0xb4-0xb5.7 (2)
0xb0|            20                                 |                |                    local.get: 0x20 (valid) 0xb4-0xb4.7 (1)
0xb0|               00                              |     .          |                    x: 0 0xb5-0xb5.7 (1)
    |                                               |                |                  [1]{}: in 0xb6-0xb6.7 (1)
0xb0|                  8e                           |      .         |                    f32.floor: 0x8e (valid) 0xb6-0xb6.7 (1)
    |                                               |                |                  [2]{}: in 0xb7-0xb7.7 (1)
0xb0|                     0b                        |       .        |                    end: 0xb (valid) 0xb7-0xb7.7 (1)
    |                                               |                |            [9]{}: code 0xb8-0xbd.7 (6)
0xb0|                        05                     |        .       |              size: 5 0xb8-0xb8.7 (1)
    |                                               |                |              code{}: 0xb9-0xbd.7 (5)
    |                                               |                |                t{}: 0xb9-0xb9.7 (1)
0xb0|                           00                  |         .      |                  n: 0 0xb9-0xb9.7 (1)
    |                                               |                |                  x[0:0]: 0xba-NA (0)
    |                                               |                |                e[0:3]: 0xba-0xbd.7 (4)
    |                                               |                |                  [0]{}: in 0xba-0xbb.7 (2)
0xb0|                              20               |                |                    local.get: 0x20 (valid) 0xba-0xba.7 (1)
0xb0|                                 00            |           .    |                    x: 0 0xbb-0xbb.7 (1)
    |                                               |                |                  [1]{}: in 0xbc-0xbc.7 (1)
0xb0|                                    8f         |            .   |                    f32.trunc: 0x8f (valid) 0xbc-0xbc.7 (1)
    |                                               |                |                  [2]{}: in 0xbd-0xbd.7 (1)
0xb0|                                       0b      |             .  |                    end: 0xb (valid) 0xbd-0xbd.7 (1)
    |                                               |                |            [10]{}: code 0xbe-0xc3.7 (6)
0xb0|                                          05   |              . |              size: 5 0xbe-0xbe.7 (1)
    |                                               |                |              code{}: 0xbf-0xc3.7 (5)
    |                                               |                |                t{}: 0xbf-0xbf.7 (1)
0xb0|                                             00|               .|                  n: 0 0xbf-0xbf.7 (1)
    |                                               |                |                  x[0:0]: 0xc0-NA (0)
    |                                               |                |                e[0:3]: 0xc0-0xc3.7 (4)
    |                                               |                |                  [0]{}: in 0xc0-0xc1.7 (2)
0xc0|20                                             |                |                    local.get: 0x20 (valid) 0xc0-0xc0.7 (1)
0xc0|   00                                          | .              |                    x: 0 0xc1-0xc1.7 (1)
    |                                               |                |                  [1]{}: in 0xc2-0xc2.7 (1)
0xc0|      90                                       |  .             |                    f32.nearest: 0x90 (valid) 0xc2-0xc2.7 (1)
    |                                               |                |                  [2]{}: in 0xc3-0xc3.7 (1)
0xc0|         0b|                                   |   .|           |                    end: 0xb (valid) 0xc3-0xc3.7 (1)
