$ fq -d wasm dv f32_bitwise-0.wasm
    |00 01 02 03 04 05 06 07 08 09 0a 0b 0c 0d 0e 0f|0123456789abcdef|.{}: f32_bitwise-0.wasm (wasm) 0x0-0x4c.7 (77)
0x00|00 61 73 6d                                    |.asm            |  magic: raw bits (valid) 0x0-0x3.7 (4)
0x00|            01 00 00 00                        |    ....        |  version: 1 0x4-0x7.7 (4)
    |                                               |                |  sections[0:4]: 0x8-0x4c.7 (69)
    |                                               |                |    [0]{}: section 0x8-0x15.7 (14)
0x00|                        01                     |        .       |      id: "type section" (1) 0x8-0x8.7 (1)
0x00|                           0c                  |         .      |      size: 12 0x9-0x9.7 (1)
    |                                               |                |      content{}: 0xa-0x15.7 (12)
    |                                               |                |        ft{}: 0xa-0x15.7 (12)
0x00|                              02               |          .     |          n: 2 0xa-0xa.7 (1)
    |                                               |                |          x[0:2]: 0xb-0x15.7 (11)
    |                                               |                |            [0]{}: ft 0xb-0xf.7 (5)
0x00|                                 60            |           `    |              tag: 0x60 (valid) 0xb-0xb.7 (1)
    |                                               |                |              rt1{}: 0xc-0xd.7 (2)
0x00|                                    01         |            .   |                n: 1 0xc-0xc.7 (1)
    |                                               |                |                x[0:1]: 0xd-0xd.7 (1)
0x00|                                       7d      |             }  |                  [0]: "f32" (0x7d) t 0xd-0xd.7 (1)
    |                                               |                |              rt2{}: 0xe-0xf.7 (2)
0x00|                                          01   |              . |                n: 1 0xe-0xe.7 (1)
    |                                               |                |                x[0:1]: 0xf-0xf.7 (1)
0x00|                                             7d|               }|                  [0]: "f32" (0x7d) t 0xf-0xf.7 (1)
    |                                               |                |            [1]{}: ft 0x10-0x15.7 (6)
0x10|60                                             |`               |              tag: 0x60 (valid) 0x10-0x10.7 (1)
    |                                               |                |              rt1{}: 0x11-0x13.7 (3)
0x10|   02                                          | .              |                n: 2 0x11-0x11.7 (1)
    |                                               |                |                x[0:2]: 0x12-0x13.7 (2)
0x10|      7d                                       |  }             |                  [0]: "f32" (0x7d) t 0x12-0x12.7 (1)
0x10|         7d                                    |   }            |                  [1]: "f32" (0x7d) t 0x13-0x13.7 (1)
    |                                               |                |              rt2{}: 0x14-0x15.7 (2)
0x10|            01                                 |    .           |                n: 1 0x14-0x14.7 (1)
    |                                               |                |                x[0:1]: 0x15-0x15.7 (1)
0x10|               7d                              |     }          |                  [0]: "f32" (0x7d) t 0x15-0x15.7 (1)
    |                                               |                |    [1]{}: section 0x16-0x1b.7 (6)
0x10|                  03                           |      .         |      id: "function section" (3) 0x16-0x16.7 (1)
0x10|                     04                        |       .        |      size: 4 0x17-0x17.7 (1)
    |                                               |                |      content{}: 0x18-0x1b.7 (4)
    |                                               |                |        x{}: 0x18-0x1b.7 (4)
0x10|                        03                     |        .       |          n: 3 0x18-0x18.7 (1)
    |                                               |                |          x[0:3]: 0x19-0x1b.7 (3)
0x10|                           00                  |         .      |            [0]: 0 x 0x19-0x19.7 (1)
0x10|                              00               |          .     |            [1]: 0 x 0x1a-0x1a.7 (1)
0x10|                                 01            |           .    |            [2]: 1 x 0x1b-0x1b.7 (1)
    |                                               |                |    [2]{}: section 0x1c-0x35.7 (26)
0x10|                                    07         |            .   |      id: "export section" (7) 0x1c-0x1c.7 (1)
0x10|                                       18      |             .  |      size: 24 0x1d-0x1d.7 (1)
    |                                               |                |      content{}: 0x1e-0x35.7 (24)
    |                                               |                |        ex{}: 0x1e-0x35.7 (24)
0x10|                                          03   |              . |          n: 3 0x1e-0x1e.7 (1)
    |                                               |                |          x[0:3]: 0x1f-0x35.7 (23)
    |                                               |                |            [0]{}: ex 0x1f-0x24.7 (6)
    |                                               |                |              nm{}: 0x1f-0x22.7 (4)
0x10|                                             03|               .|                n: 3 0x1f-0x1f.7 (1)
0x20|61 62 73                                       |abs             |                b: "abs" 0x20-0x22.7 (3)
    |                                               |                |              d{}: 0x23-0x24.7 (2)
0x20|         00                                    |   .            |                tag: "funcidx" (0x0) 0x23-0x23.7 (1)
0x20|            00                                 |    .           |                x: 0 0x24-0x24.7 (1)
    |                                               |                |            [1]{}: ex 0x25-0x2a.7 (6)
    |                                               |                |              nm{}: 0x25-0x28.7 (4)
0x20|               03                              |     .          |                n: 3 0x25-0x25.7 (1)
0x20|                  6e 65 67                     |      neg       |                b: "neg" 0x26-0x28.7 (3)
    |                                               |                |              d{}: 0x29-0x2a.7 (2)
0x20|                           00                  |         .      |                tag: "funcidx" (0x0) 0x29-0x29.7 (1)
0x20|                              01               |          .     |                x: 1 0x2a-0x2a.7 (1)
    |                                               |                |            [2]{}: ex 0x2b-0x35.7 (11)
    |                                               |                |              nm{}: 0x2b-0x33.7 (9)
0x20|                                 08            |           .    |                n: 8 0x2b-0x2b.7 (1)
0x20|                                    63 6f 70 79|            copy|                b: "copysign" 0x2c-0x33.7 (8)
0x30|73 69 67 6e                                    |sign            |
    |                                               |                |              d{}: 0x34-0x35.7 (2)
0x30|            00                                 |    .           |                tag: "funcidx" (0x0) 0x34-0x34.7 (1)
0x30|               02                              |     .          |                x: 2 0x35-0x35.7 (1)
    |                                               |                |    [3]{}: section 0x36-0x4c.7 (23)
0x30|                  0a                           |      .         |      id: "code section" (10) 0x36-0x36.7 (1)
0x30|                     15                        |       .        |      size: 21 0x37-0x37.7 (1)
    |                                               |                |      content{}: 0x38-0x4c.7 (21)
    |                                               |                |        code{}: 0x38-0x4c.7 (21)
0x30|                        03                     |        .       |          n: 3 0x38-0x38.7 (1)
    |                                               |                |          x[0:3]: 0x39-0x4c.7 (20)
    |                                               |                |            [0]{}: code 0x39-0x3e.7 (6)
0x30|                           05                  |         .      |              size: 5 0x39-0x39.7 (1)
    |                                               |                |              code{}: 0x3a-0x3e.7 (5)
    |                                               |                |                t{}: 0x3a-0x3a.7 (1)
0x30|                              00               |          .     |                  n: 0 0x3a-0x3a.7 (1)
    |                                               |                |                  x[0:0]: 0x3b-NA (0)
    |                                               |                |                e[0:3]: 0x3b-0x3e.7 (4)
    |                                               |                |                  [0]{}: in 0x3b-0x3c.7 (2)
0x30|                                 20            |                |                    local.get: 0x20 (valid) 0x3b-0x3b.7 (1)
0x30|                                    00         |            .   |                    x: 0 0x3c-0x3c.7 (1)
    |                                               |                |                  [1]{}: in 0x3d-0x3d.7 (1)
0x30|                                       8b      |             .  |                    f32.abs: 0x8b (valid) 0x3d-0x3d.7 (1)
    |                                               |                |                  [2]{}: in 0x3e-0x3e.7 (1)
0x30|                                          0b   |              . |                    end: 0xb (valid) 0x3e-0x3e.7 (1)
    |                                               |                |            [1]{}: code 0x3f-0x44.7 (6)
0x30|                                             05|               .|              size: 5 0x3f-0x3f.7 (1)
    |                                               |                |              code{}: 0x40-0x44.7 (5)
    |                                               |                |                t{}: 0x40-0x40.7 (1)
0x40|00                                             |.               |                  n: 0 0x40-0x40.7 (1)
    |                                               |                |                  x[0:0]: 0x41-NA (0)
    |                                               |                |                e[0:3]: 0x41-0x44.7 (4)
    |                                               |                |                  [0]{}: in 0x41-0x42.7 (2)
0x40|   20                                          |                |                    local.get: 0x20 (valid) 0x41-0x41.7 (1)
0x40|      00                                       |  .             |                    x: 0 0x42-0x42.7 (1)
    |                                               |                |                  [1]{}: in 0x43-0x43.7 (1)
0x40|         8c                                    |   .            |                    f32.neg: 0x8c (valid) 0x43-0x43.7 (1)
    |                                               |                |                  [2]{}: in 0x44-0x44.7 (1)
0x40|            0b                                 |    .           |                    end: 0xb (valid) 0x44-0x44.7 (1)
    |                                               |                |            [2]{}: code 0x45-0x4c.7 (8)
0x40|               07                              |     .          |              size: 7 0x45-0x45.7 (1)
    |                                               |                |              code{}: 0x46-0x4c.7 (7)
    |                                               |                |                t{}: 0x46-0x46.7 (1)
0x40|                  00                           |      .         |                  n: 0 0x46-0x46.7 (1)
    |                                               |                |                  x[0:0]: 0x47-NA (0)
    |                                               |                |                e[0:4]: 0x47-0x4c.7 (6)
    |                                               |                |                  [0]{}: in 0x47-0x48.7 (2)
0x40|                     20                        |                |                    local.get: 0x20 (valid) 0x47-0x47.7 (1)
0x40|                        00                     |        .       |                    x: 0 0x48-0x48.7 (1)
    |                                               |                |                  [1]{}: in 0x49-0x4a.7 (2)
0x40|                           20                  |                |                    local.get: 0x20 (valid) 0x49-0x49.7 (1)
0x40|                              01               |          .     |                    x: 1 0x4a-0x4a.7 (1)
    |                                               |                |                  [2]{}: in 0x4b-0x4b.7 (1)
0x40|                                 98            |           .    |                    f32.copysign: 0x98 (valid) 0x4b-0x4b.7 (1)
    |                                               |                |                  [3]{}: in 0x4c-0x4c.7 (1)
0x40|                                    0b|        |            .|  |                    end: 0xb (valid) 0x4c-0x4c.7 (1)
