$ fq -d wasm dv f32_bitwise-0.wasm
    |00 01 02 03 04 05 06 07 08 09 0a 0b 0c 0d 0e 0f|0123456789abcdef|.{}: f32_bitwise-0.wasm (wasm) 0x0-0x4d (77)
0x00|00 61 73 6d                                    |.asm            |  magic: raw bits (valid) 0x0-0x4 (4)
0x00|            01 00 00 00                        |    ....        |  version: 1 0x4-0x8 (4)
    |                                               |                |  sections[0:4]: 0x8-0x4d (69)
    |                                               |                |    [0]{}: section 0x8-0x16 (14)
0x00|                        01                     |        .       |      id: "type_section" (1) 0x8-0x9 (1)
0x00|                           0c                  |         .      |      size: 12 (valid) 0x9-0xa (1)
    |                                               |                |      content{}: 0xa-0x16 (12)
    |                                               |                |        ft{}: 0xa-0x16 (12)
0x00|                              02               |          .     |          n: 2 (valid) 0xa-0xb (1)
    |                                               |                |          x[0:2]: 0xb-0x16 (11)
    |                                               |                |            [0]{}: ft 0xb-0x10 (5)
0x00|                                 60            |           `    |              tag: 0x60 (valid) 0xb-0xc (1)
    |                                               |                |              rt1{}: 0xc-0xe (2)
0x00|                                    01         |            .   |                n: 1 (valid) 0xc-0xd (1)
    |                                               |                |                x[0:1]: 0xd-0xe (1)
0x00|                                       7d      |             }  |                  [0]: "f32" (0x7d) t 0xd-0xe (1)
    |                                               |                |              rt2{}: 0xe-0x10 (2)
0x00|                                          01   |              . |                n: 1 (valid) 0xe-0xf (1)
    |                                               |                |                x[0:1]: 0xf-0x10 (1)
0x00|                                             7d|               }|                  [0]: "f32" (0x7d) t 0xf-0x10 (1)
    |                                               |                |            [1]{}: ft 0x10-0x16 (6)
0x10|60                                             |`               |              tag: 0x60 (valid) 0x10-0x11 (1)
    |                                               |                |              rt1{}: 0x11-0x14 (3)
0x10|   02                                          | .              |                n: 2 (valid) 0x11-0x12 (1)
    |                                               |                |                x[0:2]: 0x12-0x14 (2)
0x10|      7d                                       |  }             |                  [0]: "f32" (0x7d) t 0x12-0x13 (1)
0x10|         7d                                    |   }            |                  [1]: "f32" (0x7d) t 0x13-0x14 (1)
    |                                               |                |              rt2{}: 0x14-0x16 (2)
0x10|            01                                 |    .           |                n: 1 (valid) 0x14-0x15 (1)
    |                                               |                |                x[0:1]: 0x15-0x16 (1)
0x10|               7d                              |     }          |                  [0]: "f32" (0x7d) t 0x15-0x16 (1)
    |                                               |                |    [1]{}: section 0x16-0x1c (6)
0x10|                  03                           |      .         |      id: "function_section" (3) 0x16-0x17 (1)
0x10|                     04                        |       .        |      size: 4 (valid) 0x17-0x18 (1)
    |                                               |                |      content{}: 0x18-0x1c (4)
    |                                               |                |        x{}: 0x18-0x1c (4)
0x10|                        03                     |        .       |          n: 3 (valid) 0x18-0x19 (1)
    |                                               |                |          x[0:3]: 0x19-0x1c (3)
0x10|                           00                  |         .      |            [0]: 0 x (valid) 0x19-0x1a (1)
0x10|                              00               |          .     |            [1]: 0 x (valid) 0x1a-0x1b (1)
0x10|                                 01            |           .    |            [2]: 1 x (valid) 0x1b-0x1c (1)
    |                                               |                |    [2]{}: section 0x1c-0x36 (26)
0x10|                                    07         |            .   |      id: "export_section" (7) 0x1c-0x1d (1)
0x10|                                       18      |             .  |      size: 24 (valid) 0x1d-0x1e (1)
    |                                               |                |      content{}: 0x1e-0x36 (24)
    |                                               |                |        ex{}: 0x1e-0x36 (24)
0x10|                                          03   |              . |          n: 3 (valid) 0x1e-0x1f (1)
    |                                               |                |          x[0:3]: 0x1f-0x36 (23)
    |                                               |                |            [0]{}: ex 0x1f-0x25 (6)
    |                                               |                |              nm{}: 0x1f-0x23 (4)
0x10|                                             03|               .|                n: 3 (valid) 0x1f-0x20 (1)
0x20|61 62 73                                       |abs             |                b: "abs" 0x20-0x23 (3)
    |                                               |                |              d{}: 0x23-0x25 (2)
0x20|         00                                    |   .            |                tag: "funcidx" (0x0) 0x23-0x24 (1)
0x20|            00                                 |    .           |                x: 0 (valid) 0x24-0x25 (1)
    |                                               |                |            [1]{}: ex 0x25-0x2b (6)
    |                                               |                |              nm{}: 0x25-0x29 (4)
0x20|               03                              |     .          |                n: 3 (valid) 0x25-0x26 (1)
0x20|                  6e 65 67                     |      neg       |                b: "neg" 0x26-0x29 (3)
    |                                               |                |              d{}: 0x29-0x2b (2)
0x20|                           00                  |         .      |                tag: "funcidx" (0x0) 0x29-0x2a (1)
0x20|                              01               |          .     |                x: 1 (valid) 0x2a-0x2b (1)
    |                                               |                |            [2]{}: ex 0x2b-0x36 (11)
    |                                               |                |              nm{}: 0x2b-0x34 (9)
0x20|                                 08            |           .    |                n: 8 (valid) 0x2b-0x2c (1)
0x20|                                    63 6f 70 79|            copy|                b: "copysign" 0x2c-0x34 (8)
0x30|73 69 67 6e                                    |sign            |
    |                                               |                |              d{}: 0x34-0x36 (2)
0x30|            00                                 |    .           |                tag: "funcidx" (0x0) 0x34-0x35 (1)
0x30|               02                              |     .          |                x: 2 (valid) 0x35-0x36 (1)
    |                                               |                |    [3]{}: section 0x36-0x4d (23)
0x30|                  0a                           |      .         |      id: "code_section" (10) 0x36-0x37 (1)
0x30|                     15                        |       .        |      size: 21 (valid) 0x37-0x38 (1)
    |                                               |                |      content{}: 0x38-0x4d (21)
    |                                               |                |        code{}: 0x38-0x4d (21)
0x30|                        03                     |        .       |          n: 3 (valid) 0x38-0x39 (1)
    |                                               |                |          x[0:3]: 0x39-0x4d (20)
    |                                               |                |            [0]{}: code 0x39-0x3f (6)
0x30|                           05                  |         .      |              size: 5 (valid) 0x39-0x3a (1)
    |                                               |                |              code{}: 0x3a-0x3f (5)
    |                                               |                |                t{}: 0x3a-0x3b (1)
0x30|                              00               |          .     |                  n: 0 (valid) 0x3a-0x3b (1)
    |                                               |                |                  x[0:0]: 0x3b-0x3b (0)
    |                                               |                |                e[0:3]: 0x3b-0x3f (4)
    |                                               |                |                  [0]{}: in 0x3b-0x3d (2)
0x30|                                 20            |                |                    opcode: "local.get" (0x20) 0x3b-0x3c (1)
0x30|                                    00         |            .   |                    x: 0 (valid) 0x3c-0x3d (1)
    |                                               |                |                  [1]{}: in 0x3d-0x3e (1)
0x30|                                       8b      |             .  |                    opcode: "f32.abs" (0x8b) 0x3d-0x3e (1)
    |                                               |                |                  [2]{}: in 0x3e-0x3f (1)
0x30|                                          0b   |              . |                    opcode: "end" (0xb) 0x3e-0x3f (1)
    |                                               |                |            [1]{}: code 0x3f-0x45 (6)
0x30|                                             05|               .|              size: 5 (valid) 0x3f-0x40 (1)
    |                                               |                |              code{}: 0x40-0x45 (5)
    |                                               |                |                t{}: 0x40-0x41 (1)
0x40|00                                             |.               |                  n: 0 (valid) 0x40-0x41 (1)
    |                                               |                |                  x[0:0]: 0x41-0x41 (0)
    |                                               |                |                e[0:3]: 0x41-0x45 (4)
    |                                               |                |                  [0]{}: in 0x41-0x43 (2)
0x40|   20                                          |                |                    opcode: "local.get" (0x20) 0x41-0x42 (1)
0x40|      00                                       |  .             |                    x: 0 (valid) 0x42-0x43 (1)
    |                                               |                |                  [1]{}: in 0x43-0x44 (1)
0x40|         8c                                    |   .            |                    opcode: "f32.neg" (0x8c) 0x43-0x44 (1)
    |                                               |                |                  [2]{}: in 0x44-0x45 (1)
0x40|            0b                                 |    .           |                    opcode: "end" (0xb) 0x44-0x45 (1)
    |                                               |                |            [2]{}: code 0x45-0x4d (8)
0x40|               07                              |     .          |              size: 7 (valid) 0x45-0x46 (1)
    |                                               |                |              code{}: 0x46-0x4d (7)
    |                                               |                |                t{}: 0x46-0x47 (1)
0x40|                  00                           |      .         |                  n: 0 (valid) 0x46-0x47 (1)
    |                                               |                |                  x[0:0]: 0x47-0x47 (0)
    |                                               |                |                e[0:4]: 0x47-0x4d (6)
    |                                               |                |                  [0]{}: in 0x47-0x49 (2)
0x40|                     20                        |                |                    opcode: "local.get" (0x20) 0x47-0x48 (1)
0x40|                        00                     |        .       |                    x: 0 (valid) 0x48-0x49 (1)
    |                                               |                |                  [1]{}: in 0x49-0x4b (2)
0x40|                           20                  |                |                    opcode: "local.get" (0x20) 0x49-0x4a (1)
0x40|                              01               |          .     |                    x: 1 (valid) 0x4a-0x4b (1)
    |                                               |                |                  [2]{}: in 0x4b-0x4c (1)
0x40|                                 98            |           .    |                    opcode: "f32.copysign" (0x98) 0x4b-0x4c (1)
    |                                               |                |                  [3]{}: in 0x4c-0x4d (1)
0x40|                                    0b|        |            .|  |                    opcode: "end" (0xb) 0x4c-0x4d (1)
