$ fq -d wasm dv f64-0.wasm
    |00 01 02 03 04 05 06 07 08 09 0a 0b 0c 0d 0e 0f|0123456789abcdef|.{}: f64-0.wasm (wasm) 0x0-0xc4 (196)
0x00|00 61 73 6d                                    |.asm            |  magic: raw bits (valid) 0x0-0x4 (4)
0x00|            01 00 00 00                        |    ....        |  version: 1 0x4-0x8 (4)
    |                                               |                |  sections[0:4]: 0x8-0xc4 (188)
    |                                               |                |    [0]{}: section 0x8-0x16 (14)
0x00|                        01                     |        .       |      id: "type_section" (1) 0x8-0x9 (1)
0x00|                           0c                  |         .      |      size: 12 (valid) 0x9-0xa (1)
    |                                               |                |      content{}: 0xa-0x16 (12)
    |                                               |                |        ft{}: 0xa-0x16 (12)
0x00|                              02               |          .     |          n: 2 (valid) 0xa-0xb (1)
    |                                               |                |          x[0:2]: 0xb-0x16 (11)
    |                                               |                |            [0]{}: ft 0xb-0x11 (6)
0x00|                                 60            |           `    |              tag: 0x60 (valid) 0xb-0xc (1)
    |                                               |                |              rt1{}: 0xc-0xf (3)
0x00|                                    02         |            .   |                n: 2 (valid) 0xc-0xd (1)
    |                                               |                |                x[0:2]: 0xd-0xf (2)
0x00|                                       7c      |             |  |                  [0]: "f64" (0x7c) t 0xd-0xe (1)
0x00|                                          7c   |              | |                  [1]: "f64" (0x7c) t 0xe-0xf (1)
    |                                               |                |              rt2{}: 0xf-0x11 (2)
0x00|                                             01|               .|                n: 1 (valid) 0xf-0x10 (1)
    |                                               |                |                x[0:1]: 0x10-0x11 (1)
0x10|7c                                             ||               |                  [0]: "f64" (0x7c) t 0x10-0x11 (1)
    |                                               |                |            [1]{}: ft 0x11-0x16 (5)
0x10|   60                                          | `              |              tag: 0x60 (valid) 0x11-0x12 (1)
    |                                               |                |              rt1{}: 0x12-0x14 (2)
0x10|      01                                       |  .             |                n: 1 (valid) 0x12-0x13 (1)
    |                                               |                |                x[0:1]: 0x13-0x14 (1)
0x10|         7c                                    |   |            |                  [0]: "f64" (0x7c) t 0x13-0x14 (1)
    |                                               |                |              rt2{}: 0x14-0x16 (2)
0x10|            01                                 |    .           |                n: 1 (valid) 0x14-0x15 (1)
    |                                               |                |                x[0:1]: 0x15-0x16 (1)
0x10|               7c                              |     |          |                  [0]: "f64" (0x7c) t 0x15-0x16 (1)
    |                                               |                |    [1]{}: section 0x16-0x24 (14)
0x10|                  03                           |      .         |      id: "function_section" (3) 0x16-0x17 (1)
0x10|                     0c                        |       .        |      size: 12 (valid) 0x17-0x18 (1)
    |                                               |                |      content{}: 0x18-0x24 (12)
    |                                               |                |        x{}: 0x18-0x24 (12)
0x10|                        0b                     |        .       |          n: 11 (valid) 0x18-0x19 (1)
    |                                               |                |          x[0:11]: 0x19-0x24 (11)
0x10|                           00                  |         .      |            [0]: 0 x (valid) 0x19-0x1a (1)
0x10|                              00               |          .     |            [1]: 0 x (valid) 0x1a-0x1b (1)
0x10|                                 00            |           .    |            [2]: 0 x (valid) 0x1b-0x1c (1)
0x10|                                    00         |            .   |            [3]: 0 x (valid) 0x1c-0x1d (1)
0x10|                                       01      |             .  |            [4]: 1 x (valid) 0x1d-0x1e (1)
0x10|                                          00   |              . |            [5]: 0 x (valid) 0x1e-0x1f (1)
0x10|                                             00|               .|            [6]: 0 x (valid) 0x1f-0x20 (1)
0x20|01                                             |.               |            [7]: 1 x (valid) 0x20-0x21 (1)
0x20|   01                                          | .              |            [8]: 1 x (valid) 0x21-0x22 (1)
0x20|      01                                       |  .             |            [9]: 1 x (valid) 0x22-0x23 (1)
0x20|         01                                    |   .            |            [10]: 1 x (valid) 0x23-0x24 (1)
    |                                               |                |    [2]{}: section 0x24-0x73 (79)
0x20|            07                                 |    .           |      id: "export_section" (7) 0x24-0x25 (1)
0x20|               4d                              |     M          |      size: 77 (valid) 0x25-0x26 (1)
    |                                               |                |      content{}: 0x26-0x73 (77)
    |                                               |                |        ex{}: 0x26-0x73 (77)
0x20|                  0b                           |      .         |          n: 11 (valid) 0x26-0x27 (1)
    |                                               |                |          x[0:11]: 0x27-0x73 (76)
    |                                               |                |            [0]{}: ex 0x27-0x2d (6)
    |                                               |                |              nm{}: 0x27-0x2b (4)
0x20|                     03                        |       .        |                n: 3 (valid) 0x27-0x28 (1)
0x20|                        61 64 64               |        add     |                b: "add" 0x28-0x2b (3)
    |                                               |                |              d{}: 0x2b-0x2d (2)
0x20|                                 00            |           .    |                tag: "funcidx" (0x0) 0x2b-0x2c (1)
0x20|                                    00         |            .   |                x: 0 (valid) 0x2c-0x2d (1)
    |                                               |                |            [1]{}: ex 0x2d-0x33 (6)
    |                                               |                |              nm{}: 0x2d-0x31 (4)
0x20|                                       03      |             .  |                n: 3 (valid) 0x2d-0x2e (1)
0x20|                                          73 75|              su|                b: "sub" 0x2e-0x31 (3)
0x30|62                                             |b               |
    |                                               |                |              d{}: 0x31-0x33 (2)
0x30|   00                                          | .              |                tag: "funcidx" (0x0) 0x31-0x32 (1)
0x30|      01                                       |  .             |                x: 1 (valid) 0x32-0x33 (1)
    |                                               |                |            [2]{}: ex 0x33-0x39 (6)
    |                                               |                |              nm{}: 0x33-0x37 (4)
0x30|         03                                    |   .            |                n: 3 (valid) 0x33-0x34 (1)
0x30|            6d 75 6c                           |    mul         |                b: "mul" 0x34-0x37 (3)
    |                                               |                |              d{}: 0x37-0x39 (2)
0x30|                     00                        |       .        |                tag: "funcidx" (0x0) 0x37-0x38 (1)
0x30|                        02                     |        .       |                x: 2 (valid) 0x38-0x39 (1)
    |                                               |                |            [3]{}: ex 0x39-0x3f (6)
    |                                               |                |              nm{}: 0x39-0x3d (4)
0x30|                           03                  |         .      |                n: 3 (valid) 0x39-0x3a (1)
0x30|                              64 69 76         |          div   |                b: "div" 0x3a-0x3d (3)
    |                                               |                |              d{}: 0x3d-0x3f (2)
0x30|                                       00      |             .  |                tag: "funcidx" (0x0) 0x3d-0x3e (1)
0x30|                                          03   |              . |                x: 3 (valid) 0x3e-0x3f (1)
    |                                               |                |            [4]{}: ex 0x3f-0x46 (7)
    |                                               |                |              nm{}: 0x3f-0x44 (5)
0x30|                                             04|               .|                n: 4 (valid) 0x3f-0x40 (1)
0x40|73 71 72 74                                    |sqrt            |                b: "sqrt" 0x40-0x44 (4)
    |                                               |                |              d{}: 0x44-0x46 (2)
0x40|            00                                 |    .           |                tag: "funcidx" (0x0) 0x44-0x45 (1)
0x40|               04                              |     .          |                x: 4 (valid) 0x45-0x46 (1)
    |                                               |                |            [5]{}: ex 0x46-0x4c (6)
    |                                               |                |              nm{}: 0x46-0x4a (4)
0x40|                  03                           |      .         |                n: 3 (valid) 0x46-0x47 (1)
0x40|                     6d 69 6e                  |       min      |                b: "min" 0x47-0x4a (3)
    |                                               |                |              d{}: 0x4a-0x4c (2)
0x40|                              00               |          .     |                tag: "funcidx" (0x0) 0x4a-0x4b (1)
0x40|                                 05            |           .    |                x: 5 (valid) 0x4b-0x4c (1)
    |                                               |                |            [6]{}: ex 0x4c-0x52 (6)
    |                                               |                |              nm{}: 0x4c-0x50 (4)
0x40|                                    03         |            .   |                n: 3 (valid) 0x4c-0x4d (1)
0x40|                                       6d 61 78|             max|                b: "max" 0x4d-0x50 (3)
    |                                               |                |              d{}: 0x50-0x52 (2)
0x50|00                                             |.               |                tag: "funcidx" (0x0) 0x50-0x51 (1)
0x50|   06                                          | .              |                x: 6 (valid) 0x51-0x52 (1)
    |                                               |                |            [7]{}: ex 0x52-0x59 (7)
    |                                               |                |              nm{}: 0x52-0x57 (5)
0x50|      04                                       |  .             |                n: 4 (valid) 0x52-0x53 (1)
0x50|         63 65 69 6c                           |   ceil         |                b: "ceil" 0x53-0x57 (4)
    |                                               |                |              d{}: 0x57-0x59 (2)
0x50|                     00                        |       .        |                tag: "funcidx" (0x0) 0x57-0x58 (1)
0x50|                        07                     |        .       |                x: 7 (valid) 0x58-0x59 (1)
    |                                               |                |            [8]{}: ex 0x59-0x61 (8)
    |                                               |                |              nm{}: 0x59-0x5f (6)
0x50|                           05                  |         .      |                n: 5 (valid) 0x59-0x5a (1)
0x50|                              66 6c 6f 6f 72   |          floor |                b: "floor" 0x5a-0x5f (5)
    |                                               |                |              d{}: 0x5f-0x61 (2)
0x50|                                             00|               .|                tag: "funcidx" (0x0) 0x5f-0x60 (1)
0x60|08                                             |.               |                x: 8 (valid) 0x60-0x61 (1)
    |                                               |                |            [9]{}: ex 0x61-0x69 (8)
    |                                               |                |              nm{}: 0x61-0x67 (6)
0x60|   05                                          | .              |                n: 5 (valid) 0x61-0x62 (1)
0x60|      74 72 75 6e 63                           |  trunc         |                b: "trunc" 0x62-0x67 (5)
    |                                               |                |              d{}: 0x67-0x69 (2)
0x60|                     00                        |       .        |                tag: "funcidx" (0x0) 0x67-0x68 (1)
0x60|                        09                     |        .       |                x: 9 (valid) 0x68-0x69 (1)
    |                                               |                |            [10]{}: ex 0x69-0x73 (10)
    |                                               |                |              nm{}: 0x69-0x71 (8)
0x60|                           07                  |         .      |                n: 7 (valid) 0x69-0x6a (1)
0x60|                              6e 65 61 72 65 73|          neares|                b: "nearest" 0x6a-0x71 (7)
0x70|74                                             |t               |
    |                                               |                |              d{}: 0x71-0x73 (2)
0x70|   00                                          | .              |                tag: "funcidx" (0x0) 0x71-0x72 (1)
0x70|      0a                                       |  .             |                x: 10 (valid) 0x72-0x73 (1)
    |                                               |                |    [3]{}: section 0x73-0xc4 (81)
0x70|         0a                                    |   .            |      id: "code_section" (10) 0x73-0x74 (1)
0x70|            4f                                 |    O           |      size: 79 (valid) 0x74-0x75 (1)
    |                                               |                |      content{}: 0x75-0xc4 (79)
    |                                               |                |        code{}: 0x75-0xc4 (79)
0x70|               0b                              |     .          |          n: 11 (valid) 0x75-0x76 (1)
    |                                               |                |          x[0:11]: 0x76-0xc4 (78)
    |                                               |                |            [0]{}: code 0x76-0x7e (8)
0x70|                  07                           |      .         |              size: 7 (valid) 0x76-0x77 (1)
    |                                               |                |              code{}: 0x77-0x7e (7)
    |                                               |                |                t{}: 0x77-0x78 (1)
0x70|                     00                        |       .        |                  n: 0 (valid) 0x77-0x78 (1)
    |                                               |                |                  x[0:0]: 0x78-0x78 (0)
    |                                               |                |                e[0:4]: 0x78-0x7e (6)
    |                                               |                |                  [0]{}: in 0x78-0x7a (2)
0x70|                        20                     |                |                    opcode: "local.get" (0x20) 0x78-0x79 (1)
0x70|                           00                  |         .      |                    x: 0 (valid) 0x79-0x7a (1)
    |                                               |                |                  [1]{}: in 0x7a-0x7c (2)
0x70|                              20               |                |                    opcode: "local.get" (0x20) 0x7a-0x7b (1)
0x70|                                 01            |           .    |                    x: 1 (valid) 0x7b-0x7c (1)
    |                                               |                |                  [2]{}: in 0x7c-0x7d (1)
0x70|                                    a0         |            .   |                    opcode: "f64.add" (0xa0) 0x7c-0x7d (1)
    |                                               |                |                  [3]{}: in 0x7d-0x7e (1)
0x70|                                       0b      |             .  |                    opcode: "end" (0xb) 0x7d-0x7e (1)
    |                                               |                |            [1]{}: code 0x7e-0x86 (8)
0x70|                                          07   |              . |              size: 7 (valid) 0x7e-0x7f (1)
    |                                               |                |              code{}: 0x7f-0x86 (7)
    |                                               |                |                t{}: 0x7f-0x80 (1)
0x70|                                             00|               .|                  n: 0 (valid) 0x7f-0x80 (1)
    |                                               |                |                  x[0:0]: 0x80-0x80 (0)
    |                                               |                |                e[0:4]: 0x80-0x86 (6)
    |                                               |                |                  [0]{}: in 0x80-0x82 (2)
0x80|20                                             |                |                    opcode: "local.get" (0x20) 0x80-0x81 (1)
0x80|   00                                          | .              |                    x: 0 (valid) 0x81-0x82 (1)
    |                                               |                |                  [1]{}: in 0x82-0x84 (2)
0x80|      20                                       |                |                    opcode: "local.get" (0x20) 0x82-0x83 (1)
0x80|         01                                    |   .            |                    x: 1 (valid) 0x83-0x84 (1)
    |                                               |                |                  [2]{}: in 0x84-0x85 (1)
0x80|            a1                                 |    .           |                    opcode: "f64.sub" (0xa1) 0x84-0x85 (1)
    |                                               |                |                  [3]{}: in 0x85-0x86 (1)
0x80|               0b                              |     .          |                    opcode: "end" (0xb) 0x85-0x86 (1)
    |                                               |                |            [2]{}: code 0x86-0x8e (8)
0x80|                  07                           |      .         |              size: 7 (valid) 0x86-0x87 (1)
    |                                               |                |              code{}: 0x87-0x8e (7)
    |                                               |                |                t{}: 0x87-0x88 (1)
0x80|                     00                        |       .        |                  n: 0 (valid) 0x87-0x88 (1)
    |                                               |                |                  x[0:0]: 0x88-0x88 (0)
    |                                               |                |                e[0:4]: 0x88-0x8e (6)
    |                                               |                |                  [0]{}: in 0x88-0x8a (2)
0x80|                        20                     |                |                    opcode: "local.get" (0x20) 0x88-0x89 (1)
0x80|                           00                  |         .      |                    x: 0 (valid) 0x89-0x8a (1)
    |                                               |                |                  [1]{}: in 0x8a-0x8c (2)
0x80|                              20               |                |                    opcode: "local.get" (0x20) 0x8a-0x8b (1)
0x80|                                 01            |           .    |                    x: 1 (valid) 0x8b-0x8c (1)
    |                                               |                |                  [2]{}: in 0x8c-0x8d (1)
0x80|                                    a2         |            .   |                    opcode: "f64.mul" (0xa2) 0x8c-0x8d (1)
    |                                               |                |                  [3]{}: in 0x8d-0x8e (1)
0x80|                                       0b      |             .  |                    opcode: "end" (0xb) 0x8d-0x8e (1)
    |                                               |                |            [3]{}: code 0x8e-0x96 (8)
0x80|                                          07   |              . |              size: 7 (valid) 0x8e-0x8f (1)
    |                                               |                |              code{}: 0x8f-0x96 (7)
    |                                               |                |                t{}: 0x8f-0x90 (1)
0x80|                                             00|               .|                  n: 0 (valid) 0x8f-0x90 (1)
    |                                               |                |                  x[0:0]: 0x90-0x90 (0)
    |                                               |                |                e[0:4]: 0x90-0x96 (6)
    |                                               |                |                  [0]{}: in 0x90-0x92 (2)
0x90|20                                             |                |                    opcode: "local.get" (0x20) 0x90-0x91 (1)
0x90|   00                                          | .              |                    x: 0 (valid) 0x91-0x92 (1)
    |                                               |                |                  [1]{}: in 0x92-0x94 (2)
0x90|      20                                       |                |                    opcode: "local.get" (0x20) 0x92-0x93 (1)
0x90|         01                                    |   .            |                    x: 1 (valid) 0x93-0x94 (1)
    |                                               |                |                  [2]{}: in 0x94-0x95 (1)
0x90|            a3                                 |    .           |                    opcode: "f64.div" (0xa3) 0x94-0x95 (1)
    |                                               |                |                  [3]{}: in 0x95-0x96 (1)
0x90|               0b                              |     .          |                    opcode: "end" (0xb) 0x95-0x96 (1)
    |                                               |                |            [4]{}: code 0x96-0x9c (6)
0x90|                  05                           |      .         |              size: 5 (valid) 0x96-0x97 (1)
    |                                               |                |              code{}: 0x97-0x9c (5)
    |                                               |                |                t{}: 0x97-0x98 (1)
0x90|                     00                        |       .        |                  n: 0 (valid) 0x97-0x98 (1)
    |                                               |                |                  x[0:0]: 0x98-0x98 (0)
    |                                               |                |                e[0:3]: 0x98-0x9c (4)
    |                                               |                |                  [0]{}: in 0x98-0x9a (2)
0x90|                        20                     |                |                    opcode: "local.get" (0x20) 0x98-0x99 (1)
0x90|                           00                  |         .      |                    x: 0 (valid) 0x99-0x9a (1)
    |                                               |                |                  [1]{}: in 0x9a-0x9b (1)
0x90|                              9f               |          .     |                    opcode: "f64.sqrt" (0x9f) 0x9a-0x9b (1)
    |                                               |                |                  [2]{}: in 0x9b-0x9c (1)
0x90|                                 0b            |           .    |                    opcode: "end" (0xb) 0x9b-0x9c (1)
    |                                               |                |            [5]{}: code 0x9c-0xa4 (8)
0x90|                                    07         |            .   |              size: 7 (valid) 0x9c-0x9d (1)
    |                                               |                |              code{}: 0x9d-0xa4 (7)
    |                                               |                |                t{}: 0x9d-0x9e (1)
0x90|                                       00      |             .  |                  n: 0 (valid) 0x9d-0x9e (1)
    |                                               |                |                  x[0:0]: 0x9e-0x9e (0)
    |                                               |                |                e[0:4]: 0x9e-0xa4 (6)
    |                                               |                |                  [0]{}: in 0x9e-0xa0 (2)
0x90|                                          20   |                |                    opcode: "local.get" (0x20) 0x9e-0x9f (1)
0x90|                                             00|               .|                    x: 0 (valid) 0x9f-0xa0 (1)
    |                                               |                |                  [1]{}: in 0xa0-0xa2 (2)
0xa0|20                                             |                |                    opcode: "local.get" (0x20) 0xa0-0xa1 (1)
0xa0|   01                                          | .              |                    x: 1 (valid) 0xa1-0xa2 (1)
    |                                               |                |                  [2]{}: in 0xa2-0xa3 (1)
0xa0|      a4                                       |  .             |                    opcode: "f64.min" (0xa4) 0xa2-0xa3 (1)
    |                                               |                |                  [3]{}: in 0xa3-0xa4 (1)
0xa0|         0b                                    |   .            |                    opcode: "end" (0xb) 0xa3-0xa4 (1)
    |                                               |                |            [6]{}: code 0xa4-0xac (8)
0xa0|            07                                 |    .           |              size: 7 (valid) 0xa4-0xa5 (1)
    |                                               |                |              code{}: 0xa5-0xac (7)
    |                                               |                |                t{}: 0xa5-0xa6 (1)
0xa0|               00                              |     .          |                  n: 0 (valid) 0xa5-0xa6 (1)
    |                                               |                |                  x[0:0]: 0xa6-0xa6 (0)
    |                                               |                |                e[0:4]: 0xa6-0xac (6)
    |                                               |                |                  [0]{}: in 0xa6-0xa8 (2)
0xa0|                  20                           |                |                    opcode: "local.get" (0x20) 0xa6-0xa7 (1)
0xa0|                     00                        |       .        |                    x: 0 (valid) 0xa7-0xa8 (1)
    |                                               |                |                  [1]{}: in 0xa8-0xaa (2)
0xa0|                        20                     |                |                    opcode: "local.get" (0x20) 0xa8-0xa9 (1)
0xa0|                           01                  |         .      |                    x: 1 (valid) 0xa9-0xaa (1)
    |                                               |                |                  [2]{}: in 0xaa-0xab (1)
0xa0|                              a5               |          .     |                    opcode: "f64.max" (0xa5) 0xaa-0xab (1)
    |                                               |                |                  [3]{}: in 0xab-0xac (1)
0xa0|                                 0b            |           .    |                    opcode: "end" (0xb) 0xab-0xac (1)
    |                                               |                |            [7]{}: code 0xac-0xb2 (6)
0xa0|                                    05         |            .   |              size: 5 (valid) 0xac-0xad (1)
    |                                               |                |              code{}: 0xad-0xb2 (5)
    |                                               |                |                t{}: 0xad-0xae (1)
0xa0|                                       00      |             .  |                  n: 0 (valid) 0xad-0xae (1)
    |                                               |                |                  x[0:0]: 0xae-0xae (0)
    |                                               |                |                e[0:3]: 0xae-0xb2 (4)
    |                                               |                |                  [0]{}: in 0xae-0xb0 (2)
0xa0|                                          20   |                |                    opcode: "local.get" (0x20) 0xae-0xaf (1)
0xa0|                                             00|               .|                    x: 0 (valid) 0xaf-0xb0 (1)
    |                                               |                |                  [1]{}: in 0xb0-0xb1 (1)
0xb0|9b                                             |.               |                    opcode: "f64.ceil" (0x9b) 0xb0-0xb1 (1)
    |                                               |                |                  [2]{}: in 0xb1-0xb2 (1)
0xb0|   0b                                          | .              |                    opcode: "end" (0xb) 0xb1-0xb2 (1)
    |                                               |                |            [8]{}: code 0xb2-0xb8 (6)
0xb0|      05                                       |  .             |              size: 5 (valid) 0xb2-0xb3 (1)
    |                                               |                |              code{}: 0xb3-0xb8 (5)
    |                                               |                |                t{}: 0xb3-0xb4 (1)
0xb0|         00                                    |   .            |                  n: 0 (valid) 0xb3-0xb4 (1)
    |                                               |                |                  x[0:0]: 0xb4-0xb4 (0)
    |                                               |                |                e[0:3]: 0xb4-0xb8 (4)
    |                                               |                |                  [0]{}: in 0xb4-0xb6 (2)
0xb0|            20                                 |                |                    opcode: "local.get" (0x20) 0xb4-0xb5 (1)
0xb0|               00                              |     .          |                    x: 0 (valid) 0xb5-0xb6 (1)
    |                                               |                |                  [1]{}: in 0xb6-0xb7 (1)
0xb0|                  9c                           |      .         |                    opcode: "f64.floor" (0x9c) 0xb6-0xb7 (1)
    |                                               |                |                  [2]{}: in 0xb7-0xb8 (1)
0xb0|                     0b                        |       .        |                    opcode: "end" (0xb) 0xb7-0xb8 (1)
    |                                               |                |            [9]{}: code 0xb8-0xbe (6)
0xb0|                        05                     |        .       |              size: 5 (valid) 0xb8-0xb9 (1)
    |                                               |                |              code{}: 0xb9-0xbe (5)
    |                                               |                |                t{}: 0xb9-0xba (1)
0xb0|                           00                  |         .      |                  n: 0 (valid) 0xb9-0xba (1)
    |                                               |                |                  x[0:0]: 0xba-0xba (0)
    |                                               |                |                e[0:3]: 0xba-0xbe (4)
    |                                               |                |                  [0]{}: in 0xba-0xbc (2)
0xb0|                              20               |                |                    opcode: "local.get" (0x20) 0xba-0xbb (1)
0xb0|                                 00            |           .    |                    x: 0 (valid) 0xbb-0xbc (1)
    |                                               |                |                  [1]{}: in 0xbc-0xbd (1)
0xb0|                                    9d         |            .   |                    opcode: "f64.trunc" (0x9d) 0xbc-0xbd (1)
    |                                               |                |                  [2]{}: in 0xbd-0xbe (1)
0xb0|                                       0b      |             .  |                    opcode: "end" (0xb) 0xbd-0xbe (1)
    |                                               |                |            [10]{}: code 0xbe-0xc4 (6)
0xb0|                                          05   |              . |              size: 5 (valid) 0xbe-0xbf (1)
    |                                               |                |              code{}: 0xbf-0xc4 (5)
    |                                               |                |                t{}: 0xbf-0xc0 (1)
0xb0|                                             00|               .|                  n: 0 (valid) 0xbf-0xc0 (1)
    |                                               |                |                  x[0:0]: 0xc0-0xc0 (0)
    |                                               |                |                e[0:3]: 0xc0-0xc4 (4)
    |                                               |                |                  [0]{}: in 0xc0-0xc2 (2)
0xc0|20                                             |                |                    opcode: "local.get" (0x20) 0xc0-0xc1 (1)
0xc0|   00                                          | .              |                    x: 0 (valid) 0xc1-0xc2 (1)
    |                                               |                |                  [1]{}: in 0xc2-0xc3 (1)
0xc0|      9e                                       |  .             |                    opcode: "f64.nearest" (0x9e) 0xc2-0xc3 (1)
    |                                               |                |                  [2]{}: in 0xc3-0xc4 (1)
0xc0|         0b|                                   |   .|           |                    opcode: "end" (0xb) 0xc3-0xc4 (1)
