$ fq -d wasm dv f64_cmp-0.wasm
    |00 01 02 03 04 05 06 07 08 09 0a 0b 0c 0d 0e 0f|0123456789abcdef|.{}: f64_cmp-0.wasm (wasm) 0x0-0x6e (110)
0x00|00 61 73 6d                                    |.asm            |  magic: raw bits (valid) 0x0-0x4 (4)
0x00|            01 00 00 00                        |    ....        |  version: 1 0x4-0x8 (4)
    |                                               |                |  sections[0:4]: 0x8-0x6e (102)
    |                                               |                |    [0]{}: section 0x8-0x11 (9)
0x00|                        01                     |        .       |      id: "type_section" (1) 0x8-0x9 (1)
0x00|                           07                  |         .      |      size: 7 (valid) 0x9-0xa (1)
    |                                               |                |      content{}: 0xa-0x11 (7)
    |                                               |                |        ft{}: 0xa-0x11 (7)
0x00|                              01               |          .     |          n: 1 (valid) 0xa-0xb (1)
    |                                               |                |          x[0:1]: 0xb-0x11 (6)
    |                                               |                |            [0]{}: ft 0xb-0x11 (6)
0x00|                                 60            |           `    |              tag: 0x60 (valid) 0xb-0xc (1)
    |                                               |                |              rt1{}: 0xc-0xf (3)
0x00|                                    02         |            .   |                n: 2 (valid) 0xc-0xd (1)
    |                                               |                |                x[0:2]: 0xd-0xf (2)
0x00|                                       7c      |             |  |                  [0]: "f64" (0x7c) t 0xd-0xe (1)
0x00|                                          7c   |              | |                  [1]: "f64" (0x7c) t 0xe-0xf (1)
    |                                               |                |              rt2{}: 0xf-0x11 (2)
0x00|                                             01|               .|                n: 1 (valid) 0xf-0x10 (1)
    |                                               |                |                x[0:1]: 0x10-0x11 (1)
0x10|7f                                             |.               |                  [0]: "i32" (0x7f) t 0x10-0x11 (1)
    |                                               |                |    [1]{}: section 0x11-0x1a (9)
0x10|   03                                          | .              |      id: "function_section" (3) 0x11-0x12 (1)
0x10|      07                                       |  .             |      size: 7 (valid) 0x12-0x13 (1)
    |                                               |                |      content{}: 0x13-0x1a (7)
    |                                               |                |        x{}: 0x13-0x1a (7)
0x10|         06                                    |   .            |          n: 6 (valid) 0x13-0x14 (1)
    |                                               |                |          x[0:6]: 0x14-0x1a (6)
0x10|            00                                 |    .           |            [0]: 0 x (valid) 0x14-0x15 (1)
0x10|               00                              |     .          |            [1]: 0 x (valid) 0x15-0x16 (1)
0x10|                  00                           |      .         |            [2]: 0 x (valid) 0x16-0x17 (1)
0x10|                     00                        |       .        |            [3]: 0 x (valid) 0x17-0x18 (1)
0x10|                        00                     |        .       |            [4]: 0 x (valid) 0x18-0x19 (1)
0x10|                           00                  |         .      |            [5]: 0 x (valid) 0x19-0x1a (1)
    |                                               |                |    [2]{}: section 0x1a-0x3b (33)
0x10|                              07               |          .     |      id: "export_section" (7) 0x1a-0x1b (1)
0x10|                                 1f            |           .    |      size: 31 (valid) 0x1b-0x1c (1)
    |                                               |                |      content{}: 0x1c-0x3b (31)
    |                                               |                |        ex{}: 0x1c-0x3b (31)
0x10|                                    06         |            .   |          n: 6 (valid) 0x1c-0x1d (1)
    |                                               |                |          x[0:6]: 0x1d-0x3b (30)
    |                                               |                |            [0]{}: ex 0x1d-0x22 (5)
    |                                               |                |              nm{}: 0x1d-0x20 (3)
0x10|                                       02      |             .  |                n: 2 (valid) 0x1d-0x1e (1)
0x10|                                          65 71|              eq|                b: "eq" 0x1e-0x20 (2)
    |                                               |                |              d{}: 0x20-0x22 (2)
0x20|00                                             |.               |                tag: "funcidx" (0x0) 0x20-0x21 (1)
0x20|   00                                          | .              |                x: 0 (valid) 0x21-0x22 (1)
    |                                               |                |            [1]{}: ex 0x22-0x27 (5)
    |                                               |                |              nm{}: 0x22-0x25 (3)
0x20|      02                                       |  .             |                n: 2 (valid) 0x22-0x23 (1)
0x20|         6e 65                                 |   ne           |                b: "ne" 0x23-0x25 (2)
    |                                               |                |              d{}: 0x25-0x27 (2)
0x20|               00                              |     .          |                tag: "funcidx" (0x0) 0x25-0x26 (1)
0x20|                  01                           |      .         |                x: 1 (valid) 0x26-0x27 (1)
    |                                               |                |            [2]{}: ex 0x27-0x2c (5)
    |                                               |                |              nm{}: 0x27-0x2a (3)
0x20|                     02                        |       .        |                n: 2 (valid) 0x27-0x28 (1)
0x20|                        6c 74                  |        lt      |                b: "lt" 0x28-0x2a (2)
    |                                               |                |              d{}: 0x2a-0x2c (2)
0x20|                              00               |          .     |                tag: "funcidx" (0x0) 0x2a-0x2b (1)
0x20|                                 02            |           .    |                x: 2 (valid) 0x2b-0x2c (1)
    |                                               |                |            [3]{}: ex 0x2c-0x31 (5)
    |                                               |                |              nm{}: 0x2c-0x2f (3)
0x20|                                    02         |            .   |                n: 2 (valid) 0x2c-0x2d (1)
0x20|                                       6c 65   |             le |                b: "le" 0x2d-0x2f (2)
    |                                               |                |              d{}: 0x2f-0x31 (2)
0x20|                                             00|               .|                tag: "funcidx" (0x0) 0x2f-0x30 (1)
0x30|03                                             |.               |                x: 3 (valid) 0x30-0x31 (1)
    |                                               |                |            [4]{}: ex 0x31-0x36 (5)
    |                                               |                |              nm{}: 0x31-0x34 (3)
0x30|   02                                          | .              |                n: 2 (valid) 0x31-0x32 (1)
0x30|      67 74                                    |  gt            |                b: "gt" 0x32-0x34 (2)
    |                                               |                |              d{}: 0x34-0x36 (2)
0x30|            00                                 |    .           |                tag: "funcidx" (0x0) 0x34-0x35 (1)
0x30|               04                              |     .          |                x: 4 (valid) 0x35-0x36 (1)
    |                                               |                |            [5]{}: ex 0x36-0x3b (5)
    |                                               |                |              nm{}: 0x36-0x39 (3)
0x30|                  02                           |      .         |                n: 2 (valid) 0x36-0x37 (1)
0x30|                     67 65                     |       ge       |                b: "ge" 0x37-0x39 (2)
    |                                               |                |              d{}: 0x39-0x3b (2)
0x30|                           00                  |         .      |                tag: "funcidx" (0x0) 0x39-0x3a (1)
0x30|                              05               |          .     |                x: 5 (valid) 0x3a-0x3b (1)
    |                                               |                |    [3]{}: section 0x3b-0x6e (51)
0x30|                                 0a            |           .    |      id: "code_section" (10) 0x3b-0x3c (1)
0x30|                                    31         |            1   |      size: 49 (valid) 0x3c-0x3d (1)
    |                                               |                |      content{}: 0x3d-0x6e (49)
    |                                               |                |        code{}: 0x3d-0x6e (49)
0x30|                                       06      |             .  |          n: 6 (valid) 0x3d-0x3e (1)
    |                                               |                |          x[0:6]: 0x3e-0x6e (48)
    |                                               |                |            [0]{}: code 0x3e-0x46 (8)
0x30|                                          07   |              . |              size: 7 (valid) 0x3e-0x3f (1)
    |                                               |                |              code{}: 0x3f-0x46 (7)
    |                                               |                |                t{}: 0x3f-0x40 (1)
0x30|                                             00|               .|                  n: 0 (valid) 0x3f-0x40 (1)
    |                                               |                |                  x[0:0]: 0x40-0x40 (0)
    |                                               |                |                e[0:4]: 0x40-0x46 (6)
    |                                               |                |                  [0]{}: in 0x40-0x42 (2)
0x40|20                                             |                |                    opcode: "local.get" (0x20) 0x40-0x41 (1)
0x40|   00                                          | .              |                    x: 0 (valid) 0x41-0x42 (1)
    |                                               |                |                  [1]{}: in 0x42-0x44 (2)
0x40|      20                                       |                |                    opcode: "local.get" (0x20) 0x42-0x43 (1)
0x40|         01                                    |   .            |                    x: 1 (valid) 0x43-0x44 (1)
    |                                               |                |                  [2]{}: in 0x44-0x45 (1)
0x40|            61                                 |    a           |                    opcode: "f64.eq" (0x61) 0x44-0x45 (1)
    |                                               |                |                  [3]{}: in 0x45-0x46 (1)
0x40|               0b                              |     .          |                    opcode: "end" (0xb) 0x45-0x46 (1)
    |                                               |                |            [1]{}: code 0x46-0x4e (8)
0x40|                  07                           |      .         |              size: 7 (valid) 0x46-0x47 (1)
    |                                               |                |              code{}: 0x47-0x4e (7)
    |                                               |                |                t{}: 0x47-0x48 (1)
0x40|                     00                        |       .        |                  n: 0 (valid) 0x47-0x48 (1)
    |                                               |                |                  x[0:0]: 0x48-0x48 (0)
    |                                               |                |                e[0:4]: 0x48-0x4e (6)
    |                                               |                |                  [0]{}: in 0x48-0x4a (2)
0x40|                        20                     |                |                    opcode: "local.get" (0x20) 0x48-0x49 (1)
0x40|                           00                  |         .      |                    x: 0 (valid) 0x49-0x4a (1)
    |                                               |                |                  [1]{}: in 0x4a-0x4c (2)
0x40|                              20               |                |                    opcode: "local.get" (0x20) 0x4a-0x4b (1)
0x40|                                 01            |           .    |                    x: 1 (valid) 0x4b-0x4c (1)
    |                                               |                |                  [2]{}: in 0x4c-0x4d (1)
0x40|                                    62         |            b   |                    opcode: "f64.ne" (0x62) 0x4c-0x4d (1)
    |                                               |                |                  [3]{}: in 0x4d-0x4e (1)
0x40|                                       0b      |             .  |                    opcode: "end" (0xb) 0x4d-0x4e (1)
    |                                               |                |            [2]{}: code 0x4e-0x56 (8)
0x40|                                          07   |              . |              size: 7 (valid) 0x4e-0x4f (1)
    |                                               |                |              code{}: 0x4f-0x56 (7)
    |                                               |                |                t{}: 0x4f-0x50 (1)
0x40|                                             00|               .|                  n: 0 (valid) 0x4f-0x50 (1)
    |                                               |                |                  x[0:0]: 0x50-0x50 (0)
    |                                               |                |                e[0:4]: 0x50-0x56 (6)
    |                                               |                |                  [0]{}: in 0x50-0x52 (2)
0x50|20                                             |                |                    opcode: "local.get" (0x20) 0x50-0x51 (1)
0x50|   00                                          | .              |                    x: 0 (valid) 0x51-0x52 (1)
    |                                               |                |                  [1]{}: in 0x52-0x54 (2)
0x50|      20                                       |                |                    opcode: "local.get" (0x20) 0x52-0x53 (1)
0x50|         01                                    |   .            |                    x: 1 (valid) 0x53-0x54 (1)
    |                                               |                |                  [2]{}: in 0x54-0x55 (1)
0x50|            63                                 |    c           |                    opcode: "f64.lt" (0x63) 0x54-0x55 (1)
    |                                               |                |                  [3]{}: in 0x55-0x56 (1)
0x50|               0b                              |     .          |                    opcode: "end" (0xb) 0x55-0x56 (1)
    |                                               |                |            [3]{}: code 0x56-0x5e (8)
0x50|                  07                           |      .         |              size: 7 (valid) 0x56-0x57 (1)
    |                                               |                |              code{}: 0x57-0x5e (7)
    |                                               |                |                t{}: 0x57-0x58 (1)
0x50|                     00                        |       .        |                  n: 0 (valid) 0x57-0x58 (1)
    |                                               |                |                  x[0:0]: 0x58-0x58 (0)
    |                                               |                |                e[0:4]: 0x58-0x5e (6)
    |                                               |                |                  [0]{}: in 0x58-0x5a (2)
0x50|                        20                     |                |                    opcode: "local.get" (0x20) 0x58-0x59 (1)
0x50|                           00                  |         .      |                    x: 0 (valid) 0x59-0x5a (1)
    |                                               |                |                  [1]{}: in 0x5a-0x5c (2)
0x50|                              20               |                |                    opcode: "local.get" (0x20) 0x5a-0x5b (1)
0x50|                                 01            |           .    |                    x: 1 (valid) 0x5b-0x5c (1)
    |                                               |                |                  [2]{}: in 0x5c-0x5d (1)
0x50|                                    65         |            e   |                    opcode: "f64.le" (0x65) 0x5c-0x5d (1)
    |                                               |                |                  [3]{}: in 0x5d-0x5e (1)
0x50|                                       0b      |             .  |                    opcode: "end" (0xb) 0x5d-0x5e (1)
    |                                               |                |            [4]{}: code 0x5e-0x66 (8)
0x50|                                          07   |              . |              size: 7 (valid) 0x5e-0x5f (1)
    |                                               |                |              code{}: 0x5f-0x66 (7)
    |                                               |                |                t{}: 0x5f-0x60 (1)
0x50|                                             00|               .|                  n: 0 (valid) 0x5f-0x60 (1)
    |                                               |                |                  x[0:0]: 0x60-0x60 (0)
    |                                               |                |                e[0:4]: 0x60-0x66 (6)
    |                                               |                |                  [0]{}: in 0x60-0x62 (2)
0x60|20                                             |                |                    opcode: "local.get" (0x20) 0x60-0x61 (1)
0x60|   00                                          | .              |                    x: 0 (valid) 0x61-0x62 (1)
    |                                               |                |                  [1]{}: in 0x62-0x64 (2)
0x60|      20                                       |                |                    opcode: "local.get" (0x20) 0x62-0x63 (1)
0x60|         01                                    |   .            |                    x: 1 (valid) 0x63-0x64 (1)
    |                                               |                |                  [2]{}: in 0x64-0x65 (1)
0x60|            64                                 |    d           |                    opcode: "f64.gt" (0x64) 0x64-0x65 (1)
    |                                               |                |                  [3]{}: in 0x65-0x66 (1)
0x60|               0b                              |     .          |                    opcode: "end" (0xb) 0x65-0x66 (1)
    |                                               |                |            [5]{}: code 0x66-0x6e (8)
0x60|                  07                           |      .         |              size: 7 (valid) 0x66-0x67 (1)
    |                                               |                |              code{}: 0x67-0x6e (7)
    |                                               |                |                t{}: 0x67-0x68 (1)
0x60|                     00                        |       .        |                  n: 0 (valid) 0x67-0x68 (1)
    |                                               |                |                  x[0:0]: 0x68-0x68 (0)
    |                                               |                |                e[0:4]: 0x68-0x6e (6)
    |                                               |                |                  [0]{}: in 0x68-0x6a (2)
0x60|                        20                     |                |                    opcode: "local.get" (0x20) 0x68-0x69 (1)
0x60|                           00                  |         .      |                    x: 0 (valid) 0x69-0x6a (1)
    |                                               |                |                  [1]{}: in 0x6a-0x6c (2)
0x60|                              20               |                |                    opcode: "local.get" (0x20) 0x6a-0x6b (1)
0x60|                                 01            |           .    |                    x: 1 (valid) 0x6b-0x6c (1)
    |                                               |                |                  [2]{}: in 0x6c-0x6d (1)
0x60|                                    66         |            f   |                    opcode: "f64.ge" (0x66) 0x6c-0x6d (1)
    |                                               |                |                  [3]{}: in 0x6d-0x6e (1)
0x60|                                       0b|     |             .| |                    opcode: "end" (0xb) 0x6d-0x6e (1)
