$ fq -d wasm dv fac-0.wasm
     |00 01 02 03 04 05 06 07 08 09 0a 0b 0c 0d 0e 0f|0123456789abcdef|.{}: fac-0.wasm (wasm) 0x0-0x16a (362)
0x000|00 61 73 6d                                    |.asm            |  magic: raw bits (valid) 0x0-0x4 (4)
0x000|            01 00 00 00                        |    ....        |  version: 1 0x4-0x8 (4)
     |                                               |                |  sections[0:4]: 0x8-0x16a (354)
     |                                               |                |    [0]{}: section 0x8-0x24 (28)
0x000|                        01                     |        .       |      id: "type_section" (1) 0x8-0x9 (1)
0x000|                           1a                  |         .      |      size: 26 (valid) 0x9-0xa (1)
     |                                               |                |      content{}: 0xa-0x24 (26)
     |                                               |                |        ft{}: 0xa-0x24 (26)
0x000|                              04               |          .     |          n: 4 (valid) 0xa-0xb (1)
     |                                               |                |          x[0:4]: 0xb-0x24 (25)
     |                                               |                |            [0]{}: ft 0xb-0x10 (5)
0x000|                                 60            |           `    |              tag: 0x60 (valid) 0xb-0xc (1)
     |                                               |                |              rt1{}: 0xc-0xe (2)
0x000|                                    01         |            .   |                n: 1 (valid) 0xc-0xd (1)
     |                                               |                |                x[0:1]: 0xd-0xe (1)
0x000|                                       7e      |             ~  |                  [0]: "i64" (0x7e) t 0xd-0xe (1)
     |                                               |                |              rt2{}: 0xe-0x10 (2)
0x000|                                          01   |              . |                n: 1 (valid) 0xe-0xf (1)
     |                                               |                |                x[0:1]: 0xf-0x10 (1)
0x000|                                             7e|               ~|                  [0]: "i64" (0x7e) t 0xf-0x10 (1)
     |                                               |                |            [1]{}: ft 0x10-0x16 (6)
0x010|60                                             |`               |              tag: 0x60 (valid) 0x10-0x11 (1)
     |                                               |                |              rt1{}: 0x11-0x13 (2)
0x010|   01                                          | .              |                n: 1 (valid) 0x11-0x12 (1)
     |                                               |                |                x[0:1]: 0x12-0x13 (1)
0x010|      7e                                       |  ~             |                  [0]: "i64" (0x7e) t 0x12-0x13 (1)
     |                                               |                |              rt2{}: 0x13-0x16 (3)
0x010|         02                                    |   .            |                n: 2 (valid) 0x13-0x14 (1)
     |                                               |                |                x[0:2]: 0x14-0x16 (2)
0x010|            7e                                 |    ~           |                  [0]: "i64" (0x7e) t 0x14-0x15 (1)
0x010|               7e                              |     ~          |                  [1]: "i64" (0x7e) t 0x15-0x16 (1)
     |                                               |                |            [2]{}: ft 0x16-0x1e (8)
0x010|                  60                           |      `         |              tag: 0x60 (valid) 0x16-0x17 (1)
     |                                               |                |              rt1{}: 0x17-0x1a (3)
0x010|                     02                        |       .        |                n: 2 (valid) 0x17-0x18 (1)
     |                                               |                |                x[0:2]: 0x18-0x1a (2)
0x010|                        7e                     |        ~       |                  [0]: "i64" (0x7e) t 0x18-0x19 (1)
0x010|                           7e                  |         ~      |                  [1]: "i64" (0x7e) t 0x19-0x1a (1)
     |                                               |                |              rt2{}: 0x1a-0x1e (4)
0x010|                              03               |          .     |                n: 3 (valid) 0x1a-0x1b (1)
     |                                               |                |                x[0:3]: 0x1b-0x1e (3)
0x010|                                 7e            |           ~    |                  [0]: "i64" (0x7e) t 0x1b-0x1c (1)
0x010|                                    7e         |            ~   |                  [1]: "i64" (0x7e) t 0x1c-0x1d (1)
0x010|                                       7e      |             ~  |                  [2]: "i64" (0x7e) t 0x1d-0x1e (1)
     |                                               |                |            [3]{}: ft 0x1e-0x24 (6)
0x010|                                          60   |              ` |              tag: 0x60 (valid) 0x1e-0x1f (1)
     |                                               |                |              rt1{}: 0x1f-0x22 (3)
0x010|                                             02|               .|                n: 2 (valid) 0x1f-0x20 (1)
     |                                               |                |                x[0:2]: 0x20-0x22 (2)
0x020|7e                                             |~               |                  [0]: "i64" (0x7e) t 0x20-0x21 (1)
0x020|   7e                                          | ~              |                  [1]: "i64" (0x7e) t 0x21-0x22 (1)
     |                                               |                |              rt2{}: 0x22-0x24 (2)
0x020|      01                                       |  .             |                n: 1 (valid) 0x22-0x23 (1)
     |                                               |                |                x[0:1]: 0x23-0x24 (1)
0x020|         7e                                    |   ~            |                  [0]: "i64" (0x7e) t 0x23-0x24 (1)
     |                                               |                |    [1]{}: section 0x24-0x2f (11)
0x020|            03                                 |    .           |      id: "function_section" (3) 0x24-0x25 (1)
0x020|               09                              |     .          |      size: 9 (valid) 0x25-0x26 (1)
     |                                               |                |      content{}: 0x26-0x2f (9)
     |                                               |                |        x{}: 0x26-0x2f (9)
0x020|                  08                           |      .         |          n: 8 (valid) 0x26-0x27 (1)
     |                                               |                |          x[0:8]: 0x27-0x2f (8)
0x020|                     00                        |       .        |            [0]: 0 x (valid) 0x27-0x28 (1)
0x020|                        00                     |        .       |            [1]: 0 x (valid) 0x28-0x29 (1)
0x020|                           00                  |         .      |            [2]: 0 x (valid) 0x29-0x2a (1)
0x020|                              00               |          .     |            [3]: 0 x (valid) 0x2a-0x2b (1)
0x020|                                 00            |           .    |            [4]: 0 x (valid) 0x2b-0x2c (1)
0x020|                                    01         |            .   |            [5]: 1 x (valid) 0x2c-0x2d (1)
0x020|                                       02      |             .  |            [6]: 2 x (valid) 0x2d-0x2e (1)
0x020|                                          00   |              . |            [7]: 0 x (valid) 0x2e-0x2f (1)
     |                                               |                |    [2]{}: section 0x2f-0x7c (77)
0x020|                                             07|               .|      id: "export_section" (7) 0x2f-0x30 (1)
0x030|4b                                             |K               |      size: 75 (valid) 0x30-0x31 (1)
     |                                               |                |      content{}: 0x31-0x7c (75)
     |                                               |                |        ex{}: 0x31-0x7c (75)
0x030|   06                                          | .              |          n: 6 (valid) 0x31-0x32 (1)
     |                                               |                |          x[0:6]: 0x32-0x7c (74)
     |                                               |                |            [0]{}: ex 0x32-0x3c (10)
     |                                               |                |              nm{}: 0x32-0x3a (8)
0x030|      07                                       |  .             |                n: 7 (valid) 0x32-0x33 (1)
0x030|         66 61 63 2d 72 65 63                  |   fac-rec      |                b: "fac-rec" 0x33-0x3a (7)
     |                                               |                |              d{}: 0x3a-0x3c (2)
0x030|                              00               |          .     |                tag: "funcidx" (0x0) 0x3a-0x3b (1)
0x030|                                 00            |           .    |                x: 0 (valid) 0x3b-0x3c (1)
     |                                               |                |            [1]{}: ex 0x3c-0x4c (16)
     |                                               |                |              nm{}: 0x3c-0x4a (14)
0x030|                                    0d         |            .   |                n: 13 (valid) 0x3c-0x3d (1)
0x030|                                       66 61 63|             fac|                b: "fac-rec-named" 0x3d-0x4a (13)
0x040|2d 72 65 63 2d 6e 61 6d 65 64                  |-rec-named      |
     |                                               |                |              d{}: 0x4a-0x4c (2)
0x040|                              00               |          .     |                tag: "funcidx" (0x0) 0x4a-0x4b (1)
0x040|                                 01            |           .    |                x: 1 (valid) 0x4b-0x4c (1)
     |                                               |                |            [2]{}: ex 0x4c-0x57 (11)
     |                                               |                |              nm{}: 0x4c-0x55 (9)
0x040|                                    08         |            .   |                n: 8 (valid) 0x4c-0x4d (1)
0x040|                                       66 61 63|             fac|                b: "fac-iter" 0x4d-0x55 (8)
0x050|2d 69 74 65 72                                 |-iter           |
     |                                               |                |              d{}: 0x55-0x57 (2)
0x050|               00                              |     .          |                tag: "funcidx" (0x0) 0x55-0x56 (1)
0x050|                  02                           |      .         |                x: 2 (valid) 0x56-0x57 (1)
     |                                               |                |            [3]{}: ex 0x57-0x68 (17)
     |                                               |                |              nm{}: 0x57-0x66 (15)
0x050|                     0e                        |       .        |                n: 14 (valid) 0x57-0x58 (1)
0x050|                        66 61 63 2d 69 74 65 72|        fac-iter|                b: "fac-iter-named" 0x58-0x66 (14)
0x060|2d 6e 61 6d 65 64                              |-named          |
     |                                               |                |              d{}: 0x66-0x68 (2)
0x060|                  00                           |      .         |                tag: "funcidx" (0x0) 0x66-0x67 (1)
0x060|                     03                        |       .        |                x: 3 (valid) 0x67-0x68 (1)
     |                                               |                |            [4]{}: ex 0x68-0x72 (10)
     |                                               |                |              nm{}: 0x68-0x70 (8)
0x060|                        07                     |        .       |                n: 7 (valid) 0x68-0x69 (1)
0x060|                           66 61 63 2d 6f 70 74|         fac-opt|                b: "fac-opt" 0x69-0x70 (7)
     |                                               |                |              d{}: 0x70-0x72 (2)
0x070|00                                             |.               |                tag: "funcidx" (0x0) 0x70-0x71 (1)
0x070|   04                                          | .              |                x: 4 (valid) 0x71-0x72 (1)
     |                                               |                |            [5]{}: ex 0x72-0x7c (10)
     |                                               |                |              nm{}: 0x72-0x7a (8)
0x070|      07                                       |  .             |                n: 7 (valid) 0x72-0x73 (1)
0x070|         66 61 63 2d 73 73 61                  |   fac-ssa      |                b: "fac-ssa" 0x73-0x7a (7)
     |                                               |                |              d{}: 0x7a-0x7c (2)
0x070|                              00               |          .     |                tag: "funcidx" (0x0) 0x7a-0x7b (1)
0x070|                                 07            |           .    |                x: 7 (valid) 0x7b-0x7c (1)
     |                                               |                |    [3]{}: section 0x7c-0x16a (238)
0x070|                                    0a         |            .   |      id: "code_section" (10) 0x7c-0x7d (1)
0x070|                                       eb 01   |             .. |      size: 235 (valid) 0x7d-0x7f (2)
     |                                               |                |      content{}: 0x7f-0x16a (235)
     |                                               |                |        code{}: 0x7f-0x16a (235)
0x070|                                             08|               .|          n: 8 (valid) 0x7f-0x80 (1)
     |                                               |                |          x[0:8]: 0x80-0x16a (234)
     |                                               |                |            [0]{}: code 0x80-0x98 (24)
0x080|17                                             |.               |              size: 23 (valid) 0x80-0x81 (1)
     |                                               |                |              code{}: 0x81-0x98 (23)
     |                                               |                |                t{}: 0x81-0x82 (1)
0x080|   00                                          | .              |                  n: 0 (valid) 0x81-0x82 (1)
     |                                               |                |                  x[0:0]: 0x82-0x82 (0)
     |                                               |                |                e[0:5]: 0x82-0x98 (22)
     |                                               |                |                  [0]{}: in 0x82-0x84 (2)
0x080|      20                                       |                |                    opcode: "local.get" (0x20) 0x82-0x83 (1)
0x080|         00                                    |   .            |                    x: 0 (valid) 0x83-0x84 (1)
     |                                               |                |                  [1]{}: in 0x84-0x86 (2)
0x080|            42                                 |    B           |                    opcode: "i64.const" (0x42) 0x84-0x85 (1)
0x080|               00                              |     .          |                    n: 0 0x85-0x86 (1)
     |                                               |                |                  [2]{}: in 0x86-0x87 (1)
0x080|                  51                           |      Q         |                    opcode: "i64.eq" (0x51) 0x86-0x87 (1)
     |                                               |                |                  [3]{}: in 0x87-0x97 (16)
0x080|                     04                        |       .        |                    opcode: "if" (0x4) 0x87-0x88 (1)
0x080|                        7e                     |        ~       |                    bt: "i64" (126) 0x88-0x89 (1)
     |                                               |                |                    in1[0:1]: 0x89-0x8b (2)
     |                                               |                |                      [0]{}: instr 0x89-0x8b (2)
0x080|                           42                  |         B      |                        opcode: "i64.const" (0x42) 0x89-0x8a (1)
0x080|                              01               |          .     |                        n: 1 0x8a-0x8b (1)
0x080|                                 05            |           .    |                    else: 0x5 (valid) 0x8b-0x8c (1)
     |                                               |                |                    in2[0:6]: 0x8c-0x96 (10)
     |                                               |                |                      [0]{}: instr 0x8c-0x8e (2)
0x080|                                    20         |                |                        opcode: "local.get" (0x20) 0x8c-0x8d (1)
0x080|                                       00      |             .  |                        x: 0 (valid) 0x8d-0x8e (1)
     |                                               |                |                      [1]{}: instr 0x8e-0x90 (2)
0x080|                                          20   |                |                        opcode: "local.get" (0x20) 0x8e-0x8f (1)
0x080|                                             00|               .|                        x: 0 (valid) 0x8f-0x90 (1)
     |                                               |                |                      [2]{}: instr 0x90-0x92 (2)
0x090|42                                             |B               |                        opcode: "i64.const" (0x42) 0x90-0x91 (1)
0x090|   01                                          | .              |                        n: 1 0x91-0x92 (1)
     |                                               |                |                      [3]{}: instr 0x92-0x93 (1)
0x090|      7d                                       |  }             |                        opcode: "i64.sub" (0x7d) 0x92-0x93 (1)
     |                                               |                |                      [4]{}: instr 0x93-0x95 (2)
0x090|         10                                    |   .            |                        opcode: "call" (0x10) 0x93-0x94 (1)
0x090|            00                                 |    .           |                        x: 0 (valid) 0x94-0x95 (1)
     |                                               |                |                      [5]{}: instr 0x95-0x96 (1)
0x090|               7e                              |     ~          |                        opcode: "i64.mul" (0x7e) 0x95-0x96 (1)
0x090|                  0b                           |      .         |                    end: 0xb (valid) 0x96-0x97 (1)
     |                                               |                |                  [4]{}: in 0x97-0x98 (1)
0x090|                     0b                        |       .        |                    opcode: "end" (0xb) 0x97-0x98 (1)
     |                                               |                |            [1]{}: code 0x98-0xb0 (24)
0x090|                        17                     |        .       |              size: 23 (valid) 0x98-0x99 (1)
     |                                               |                |              code{}: 0x99-0xb0 (23)
     |                                               |                |                t{}: 0x99-0x9a (1)
0x090|                           00                  |         .      |                  n: 0 (valid) 0x99-0x9a (1)
     |                                               |                |                  x[0:0]: 0x9a-0x9a (0)
     |                                               |                |                e[0:5]: 0x9a-0xb0 (22)
     |                                               |                |                  [0]{}: in 0x9a-0x9c (2)
0x090|                              20               |                |                    opcode: "local.get" (0x20) 0x9a-0x9b (1)
0x090|                                 00            |           .    |                    x: 0 (valid) 0x9b-0x9c (1)
     |                                               |                |                  [1]{}: in 0x9c-0x9e (2)
0x090|                                    42         |            B   |                    opcode: "i64.const" (0x42) 0x9c-0x9d (1)
0x090|                                       00      |             .  |                    n: 0 0x9d-0x9e (1)
     |                                               |                |                  [2]{}: in 0x9e-0x9f (1)
0x090|                                          51   |              Q |                    opcode: "i64.eq" (0x51) 0x9e-0x9f (1)
     |                                               |                |                  [3]{}: in 0x9f-0xaf (16)
0x090|                                             04|               .|                    opcode: "if" (0x4) 0x9f-0xa0 (1)
0x0a0|7e                                             |~               |                    bt: "i64" (126) 0xa0-0xa1 (1)
     |                                               |                |                    in1[0:1]: 0xa1-0xa3 (2)
     |                                               |                |                      [0]{}: instr 0xa1-0xa3 (2)
0x0a0|   42                                          | B              |                        opcode: "i64.const" (0x42) 0xa1-0xa2 (1)
0x0a0|      01                                       |  .             |                        n: 1 0xa2-0xa3 (1)
0x0a0|         05                                    |   .            |                    else: 0x5 (valid) 0xa3-0xa4 (1)
     |                                               |                |                    in2[0:6]: 0xa4-0xae (10)
     |                                               |                |                      [0]{}: instr 0xa4-0xa6 (2)
0x0a0|            20                                 |                |                        opcode: "local.get" (0x20) 0xa4-0xa5 (1)
0x0a0|               00                              |     .          |                        x: 0 (valid) 0xa5-0xa6 (1)
     |                                               |                |                      [1]{}: instr 0xa6-0xa8 (2)
0x0a0|                  20                           |                |                        opcode: "local.get" (0x20) 0xa6-0xa7 (1)
0x0a0|                     00                        |       .        |                        x: 0 (valid) 0xa7-0xa8 (1)
     |                                               |                |                      [2]{}: instr 0xa8-0xaa (2)
0x0a0|                        42                     |        B       |                        opcode: "i64.const" (0x42) 0xa8-0xa9 (1)
0x0a0|                           01                  |         .      |                        n: 1 0xa9-0xaa (1)
     |                                               |                |                      [3]{}: instr 0xaa-0xab (1)
0x0a0|                              7d               |          }     |                        opcode: "i64.sub" (0x7d) 0xaa-0xab (1)
     |                                               |                |                      [4]{}: instr 0xab-0xad (2)
0x0a0|                                 10            |           .    |                        opcode: "call" (0x10) 0xab-0xac (1)
0x0a0|                                    01         |            .   |                        x: 1 (valid) 0xac-0xad (1)
     |                                               |                |                      [5]{}: instr 0xad-0xae (1)
0x0a0|                                       7e      |             ~  |                        opcode: "i64.mul" (0x7e) 0xad-0xae (1)
0x0a0|                                          0b   |              . |                    end: 0xb (valid) 0xae-0xaf (1)
     |                                               |                |                  [4]{}: in 0xaf-0xb0 (1)
0x0a0|                                             0b|               .|                    opcode: "end" (0xb) 0xaf-0xb0 (1)
     |                                               |                |            [2]{}: code 0xb0-0xe0 (48)
0x0b0|2f                                             |/               |              size: 47 (valid) 0xb0-0xb1 (1)
     |                                               |                |              code{}: 0xb1-0xe0 (47)
     |                                               |                |                t{}: 0xb1-0xb4 (3)
0x0b0|   01                                          | .              |                  n: 1 (valid) 0xb1-0xb2 (1)
     |                                               |                |                  x[0:1]: 0xb2-0xb4 (2)
     |                                               |                |                    [0]{}: t 0xb2-0xb4 (2)
0x0b0|      02                                       |  .             |                      n: 2 (valid) 0xb2-0xb3 (1)
0x0b0|         7e                                    |   ~            |                      t: "i64" (0x7e) 0xb3-0xb4 (1)
     |                                               |                |                e[0:7]: 0xb4-0xe0 (44)
     |                                               |                |                  [0]{}: in 0xb4-0xb6 (2)
0x0b0|            20                                 |                |                    opcode: "local.get" (0x20) 0xb4-0xb5 (1)
0x0b0|               00                              |     .          |                    x: 0 (valid) 0xb5-0xb6 (1)
     |                                               |                |                  [1]{}: in 0xb6-0xb8 (2)
0x0b0|                  21                           |      !         |                    opcode: "local.set" (0x21) 0xb6-0xb7 (1)
0x0b0|                     01                        |       .        |                    x: 1 (valid) 0xb7-0xb8 (1)
     |                                               |                |                  [2]{}: in 0xb8-0xba (2)
0x0b0|                        42                     |        B       |                    opcode: "i64.const" (0x42) 0xb8-0xb9 (1)
0x0b0|                           01                  |         .      |                    n: 1 0xb9-0xba (1)
     |                                               |                |                  [3]{}: in 0xba-0xbc (2)
0x0b0|                              21               |          !     |                    opcode: "local.set" (0x21) 0xba-0xbb (1)
0x0b0|                                 02            |           .    |                    x: 2 (valid) 0xbb-0xbc (1)
     |                                               |                |                  [4]{}: in 0xbc-0xdd (33)
0x0b0|                                    02         |            .   |                    opcode: "block" (0x2) 0xbc-0xbd (1)
0x0b0|                                       40      |             @  |                    bt: "ε" (64) 0xbd-0xbe (1)
     |                                               |                |                    instructions[0:1]: 0xbe-0xdc (30)
     |                                               |                |                      [0]{}: instr 0xbe-0xdc (30)
0x0b0|                                          03   |              . |                        opcode: "loop" (0x3) 0xbe-0xbf (1)
0x0b0|                                             40|               @|                        bt: "ε" (64) 0xbf-0xc0 (1)
     |                                               |                |                        instructions[0:5]: 0xc0-0xdb (27)
     |                                               |                |                          [0]{}: instr 0xc0-0xc2 (2)
0x0c0|20                                             |                |                            opcode: "local.get" (0x20) 0xc0-0xc1 (1)
0x0c0|   01                                          | .              |                            x: 1 (valid) 0xc1-0xc2 (1)
     |                                               |                |                          [1]{}: instr 0xc2-0xc4 (2)
0x0c0|      42                                       |  B             |                            opcode: "i64.const" (0x42) 0xc2-0xc3 (1)
0x0c0|         00                                    |   .            |                            n: 0 0xc3-0xc4 (1)
     |                                               |                |                          [2]{}: instr 0xc4-0xc5 (1)
0x0c0|            51                                 |    Q           |                            opcode: "i64.eq" (0x51) 0xc4-0xc5 (1)
     |                                               |                |                          [3]{}: instr 0xc5-0xd9 (20)
0x0c0|               04                              |     .          |                            opcode: "if" (0x4) 0xc5-0xc6 (1)
0x0c0|                  40                           |      @         |                            bt: "ε" (64) 0xc6-0xc7 (1)
     |                                               |                |                            in1[0:1]: 0xc7-0xc9 (2)
     |                                               |                |                              [0]{}: instr 0xc7-0xc9 (2)
0x0c0|                     0c                        |       .        |                                opcode: "br" (0xc) 0xc7-0xc8 (1)
0x0c0|                        02                     |        .       |                                l: 2 (valid) 0xc8-0xc9 (1)
0x0c0|                           05                  |         .      |                            else: 0x5 (valid) 0xc9-0xca (1)
     |                                               |                |                            in2[0:8]: 0xca-0xd8 (14)
     |                                               |                |                              [0]{}: instr 0xca-0xcc (2)
0x0c0|                              20               |                |                                opcode: "local.get" (0x20) 0xca-0xcb (1)
0x0c0|                                 01            |           .    |                                x: 1 (valid) 0xcb-0xcc (1)
     |                                               |                |                              [1]{}: instr 0xcc-0xce (2)
0x0c0|                                    20         |                |                                opcode: "local.get" (0x20) 0xcc-0xcd (1)
0x0c0|                                       02      |             .  |                                x: 2 (valid) 0xcd-0xce (1)
     |                                               |                |                              [2]{}: instr 0xce-0xcf (1)
0x0c0|                                          7e   |              ~ |                                opcode: "i64.mul" (0x7e) 0xce-0xcf (1)
     |                                               |                |                              [3]{}: instr 0xcf-0xd1 (2)
0x0c0|                                             21|               !|                                opcode: "local.set" (0x21) 0xcf-0xd0 (1)
0x0d0|02                                             |.               |                                x: 2 (valid) 0xd0-0xd1 (1)
     |                                               |                |                              [4]{}: instr 0xd1-0xd3 (2)
0x0d0|   20                                          |                |                                opcode: "local.get" (0x20) 0xd1-0xd2 (1)
0x0d0|      01                                       |  .             |                                x: 1 (valid) 0xd2-0xd3 (1)
     |                                               |                |                              [5]{}: instr 0xd3-0xd5 (2)
0x0d0|         42                                    |   B            |                                opcode: "i64.const" (0x42) 0xd3-0xd4 (1)
0x0d0|            01                                 |    .           |                                n: 1 0xd4-0xd5 (1)
     |                                               |                |                              [6]{}: instr 0xd5-0xd6 (1)
0x0d0|               7d                              |     }          |                                opcode: "i64.sub" (0x7d) 0xd5-0xd6 (1)
     |                                               |                |                              [7]{}: instr 0xd6-0xd8 (2)
0x0d0|                  21                           |      !         |                                opcode: "local.set" (0x21) 0xd6-0xd7 (1)
0x0d0|                     01                        |       .        |                                x: 1 (valid) 0xd7-0xd8 (1)
0x0d0|                        0b                     |        .       |                            end: 0xb (valid) 0xd8-0xd9 (1)
     |                                               |                |                          [4]{}: instr 0xd9-0xdb (2)
0x0d0|                           0c                  |         .      |                            opcode: "br" (0xc) 0xd9-0xda (1)
0x0d0|                              00               |          .     |                            l: 0 (valid) 0xda-0xdb (1)
0x0d0|                                 0b            |           .    |                        end: 0xb (valid) 0xdb-0xdc (1)
0x0d0|                                    0b         |            .   |                    end: 0xb (valid) 0xdc-0xdd (1)
     |                                               |                |                  [5]{}: in 0xdd-0xdf (2)
0x0d0|                                       20      |                |                    opcode: "local.get" (0x20) 0xdd-0xde (1)
0x0d0|                                          02   |              . |                    x: 2 (valid) 0xde-0xdf (1)
     |                                               |                |                  [6]{}: in 0xdf-0xe0 (1)
0x0d0|                                             0b|               .|                    opcode: "end" (0xb) 0xdf-0xe0 (1)
     |                                               |                |            [3]{}: code 0xe0-0x110 (48)
0x0e0|2f                                             |/               |              size: 47 (valid) 0xe0-0xe1 (1)
     |                                               |                |              code{}: 0xe1-0x110 (47)
     |                                               |                |                t{}: 0xe1-0xe4 (3)
0x0e0|   01                                          | .              |                  n: 1 (valid) 0xe1-0xe2 (1)
     |                                               |                |                  x[0:1]: 0xe2-0xe4 (2)
     |                                               |                |                    [0]{}: t 0xe2-0xe4 (2)
0x0e0|      02                                       |  .             |                      n: 2 (valid) 0xe2-0xe3 (1)
0x0e0|         7e                                    |   ~            |                      t: "i64" (0x7e) 0xe3-0xe4 (1)
     |                                               |                |                e[0:7]: 0xe4-0x110 (44)
     |                                               |                |                  [0]{}: in 0xe4-0xe6 (2)
0x0e0|            20                                 |                |                    opcode: "local.get" (0x20) 0xe4-0xe5 (1)
0x0e0|               00                              |     .          |                    x: 0 (valid) 0xe5-0xe6 (1)
     |                                               |                |                  [1]{}: in 0xe6-0xe8 (2)
0x0e0|                  21                           |      !         |                    opcode: "local.set" (0x21) 0xe6-0xe7 (1)
0x0e0|                     01                        |       .        |                    x: 1 (valid) 0xe7-0xe8 (1)
     |                                               |                |                  [2]{}: in 0xe8-0xea (2)
0x0e0|                        42                     |        B       |                    opcode: "i64.const" (0x42) 0xe8-0xe9 (1)
0x0e0|                           01                  |         .      |                    n: 1 0xe9-0xea (1)
     |                                               |                |                  [3]{}: in 0xea-0xec (2)
0x0e0|                              21               |          !     |                    opcode: "local.set" (0x21) 0xea-0xeb (1)
0x0e0|                                 02            |           .    |                    x: 2 (valid) 0xeb-0xec (1)
     |                                               |                |                  [4]{}: in 0xec-0x10d (33)
0x0e0|                                    02         |            .   |                    opcode: "block" (0x2) 0xec-0xed (1)
0x0e0|                                       40      |             @  |                    bt: "ε" (64) 0xed-0xee (1)
     |                                               |                |                    instructions[0:1]: 0xee-0x10c (30)
     |                                               |                |                      [0]{}: instr 0xee-0x10c (30)
0x0e0|                                          03   |              . |                        opcode: "loop" (0x3) 0xee-0xef (1)
0x0e0|                                             40|               @|                        bt: "ε" (64) 0xef-0xf0 (1)
     |                                               |                |                        instructions[0:5]: 0xf0-0x10b (27)
     |                                               |                |                          [0]{}: instr 0xf0-0xf2 (2)
0x0f0|20                                             |                |                            opcode: "local.get" (0x20) 0xf0-0xf1 (1)
0x0f0|   01                                          | .              |                            x: 1 (valid) 0xf1-0xf2 (1)
     |                                               |                |                          [1]{}: instr 0xf2-0xf4 (2)
0x0f0|      42                                       |  B             |                            opcode: "i64.const" (0x42) 0xf2-0xf3 (1)
0x0f0|         00                                    |   .            |                            n: 0 0xf3-0xf4 (1)
     |                                               |                |                          [2]{}: instr 0xf4-0xf5 (1)
0x0f0|            51                                 |    Q           |                            opcode: "i64.eq" (0x51) 0xf4-0xf5 (1)
     |                                               |                |                          [3]{}: instr 0xf5-0x109 (20)
0x0f0|               04                              |     .          |                            opcode: "if" (0x4) 0xf5-0xf6 (1)
0x0f0|                  40                           |      @         |                            bt: "ε" (64) 0xf6-0xf7 (1)
     |                                               |                |                            in1[0:1]: 0xf7-0xf9 (2)
     |                                               |                |                              [0]{}: instr 0xf7-0xf9 (2)
0x0f0|                     0c                        |       .        |                                opcode: "br" (0xc) 0xf7-0xf8 (1)
0x0f0|                        02                     |        .       |                                l: 2 (valid) 0xf8-0xf9 (1)
0x0f0|                           05                  |         .      |                            else: 0x5 (valid) 0xf9-0xfa (1)
     |                                               |                |                            in2[0:8]: 0xfa-0x108 (14)
     |                                               |                |                              [0]{}: instr 0xfa-0xfc (2)
0x0f0|                              20               |                |                                opcode: "local.get" (0x20) 0xfa-0xfb (1)
0x0f0|                                 01            |           .    |                                x: 1 (valid) 0xfb-0xfc (1)
     |                                               |                |                              [1]{}: instr 0xfc-0xfe (2)
0x0f0|                                    20         |                |                                opcode: "local.get" (0x20) 0xfc-0xfd (1)
0x0f0|                                       02      |             .  |                                x: 2 (valid) 0xfd-0xfe (1)
     |                                               |                |                              [2]{}: instr 0xfe-0xff (1)
0x0f0|                                          7e   |              ~ |                                opcode: "i64.mul" (0x7e) 0xfe-0xff (1)
     |                                               |                |                              [3]{}: instr 0xff-0x101 (2)
0x0f0|                                             21|               !|                                opcode: "local.set" (0x21) 0xff-0x100 (1)
0x100|02                                             |.               |                                x: 2 (valid) 0x100-0x101 (1)
     |                                               |                |                              [4]{}: instr 0x101-0x103 (2)
0x100|   20                                          |                |                                opcode: "local.get" (0x20) 0x101-0x102 (1)
0x100|      01                                       |  .             |                                x: 1 (valid) 0x102-0x103 (1)
     |                                               |                |                              [5]{}: instr 0x103-0x105 (2)
0x100|         42                                    |   B            |                                opcode: "i64.const" (0x42) 0x103-0x104 (1)
0x100|            01                                 |    .           |                                n: 1 0x104-0x105 (1)
     |                                               |                |                              [6]{}: instr 0x105-0x106 (1)
0x100|               7d                              |     }          |                                opcode: "i64.sub" (0x7d) 0x105-0x106 (1)
     |                                               |                |                              [7]{}: instr 0x106-0x108 (2)
0x100|                  21                           |      !         |                                opcode: "local.set" (0x21) 0x106-0x107 (1)
0x100|                     01                        |       .        |                                x: 1 (valid) 0x107-0x108 (1)
0x100|                        0b                     |        .       |                            end: 0xb (valid) 0x108-0x109 (1)
     |                                               |                |                          [4]{}: instr 0x109-0x10b (2)
0x100|                           0c                  |         .      |                            opcode: "br" (0xc) 0x109-0x10a (1)
0x100|                              00               |          .     |                            l: 0 (valid) 0x10a-0x10b (1)
0x100|                                 0b            |           .    |                        end: 0xb (valid) 0x10b-0x10c (1)
0x100|                                    0b         |            .   |                    end: 0xb (valid) 0x10c-0x10d (1)
     |                                               |                |                  [5]{}: in 0x10d-0x10f (2)
0x100|                                       20      |                |                    opcode: "local.get" (0x20) 0x10d-0x10e (1)
0x100|                                          02   |              . |                    x: 2 (valid) 0x10e-0x10f (1)
     |                                               |                |                  [6]{}: in 0x10f-0x110 (1)
0x100|                                             0b|               .|                    opcode: "end" (0xb) 0x10f-0x110 (1)
     |                                               |                |            [4]{}: code 0x110-0x13d (45)
0x110|2c                                             |,               |              size: 44 (valid) 0x110-0x111 (1)
     |                                               |                |              code{}: 0x111-0x13d (44)
     |                                               |                |                t{}: 0x111-0x114 (3)
0x110|   01                                          | .              |                  n: 1 (valid) 0x111-0x112 (1)
     |                                               |                |                  x[0:1]: 0x112-0x114 (2)
     |                                               |                |                    [0]{}: t 0x112-0x114 (2)
0x110|      01                                       |  .             |                      n: 1 (valid) 0x112-0x113 (1)
0x110|         7e                                    |   ~            |                      t: "i64" (0x7e) 0x113-0x114 (1)
     |                                               |                |                e[0:5]: 0x114-0x13d (41)
     |                                               |                |                  [0]{}: in 0x114-0x116 (2)
0x110|            42                                 |    B           |                    opcode: "i64.const" (0x42) 0x114-0x115 (1)
0x110|               01                              |     .          |                    n: 1 0x115-0x116 (1)
     |                                               |                |                  [1]{}: in 0x116-0x118 (2)
0x110|                  21                           |      !         |                    opcode: "local.set" (0x21) 0x116-0x117 (1)
0x110|                     01                        |       .        |                    x: 1 (valid) 0x117-0x118 (1)
     |                                               |                |                  [2]{}: in 0x118-0x13a (34)
0x110|                        02                     |        .       |                    opcode: "block" (0x2) 0x118-0x119 (1)
0x110|                           40                  |         @      |                    bt: "ε" (64) 0x119-0x11a (1)
     |                                               |                |                    instructions[0:5]: 0x11a-0x139 (31)
     |                                               |                |                      [0]{}: instr 0x11a-0x11c (2)
0x110|                              20               |                |                        opcode: "local.get" (0x20) 0x11a-0x11b (1)
0x110|                                 00            |           .    |                        x: 0 (valid) 0x11b-0x11c (1)
     |                                               |                |                      [1]{}: instr 0x11c-0x11e (2)
0x110|                                    42         |            B   |                        opcode: "i64.const" (0x42) 0x11c-0x11d (1)
0x110|                                       02      |             .  |                        n: 2 0x11d-0x11e (1)
     |                                               |                |                      [2]{}: instr 0x11e-0x11f (1)
0x110|                                          53   |              S |                        opcode: "i64.lt_s" (0x53) 0x11e-0x11f (1)
     |                                               |                |                      [3]{}: instr 0x11f-0x121 (2)
0x110|                                             0d|               .|                        opcode: "br_if" (0xd) 0x11f-0x120 (1)
0x120|00                                             |.               |                        l: 0 (valid) 0x120-0x121 (1)
     |                                               |                |                      [4]{}: instr 0x121-0x139 (24)
0x120|   03                                          | .              |                        opcode: "loop" (0x3) 0x121-0x122 (1)
0x120|      40                                       |  @             |                        bt: "ε" (64) 0x122-0x123 (1)
     |                                               |                |                        instructions[0:12]: 0x123-0x138 (21)
     |                                               |                |                          [0]{}: instr 0x123-0x125 (2)
0x120|         20                                    |                |                            opcode: "local.get" (0x20) 0x123-0x124 (1)
0x120|            01                                 |    .           |                            x: 1 (valid) 0x124-0x125 (1)
     |                                               |                |                          [1]{}: instr 0x125-0x127 (2)
0x120|               20                              |                |                            opcode: "local.get" (0x20) 0x125-0x126 (1)
0x120|                  00                           |      .         |                            x: 0 (valid) 0x126-0x127 (1)
     |                                               |                |                          [2]{}: instr 0x127-0x128 (1)
0x120|                     7e                        |       ~        |                            opcode: "i64.mul" (0x7e) 0x127-0x128 (1)
     |                                               |                |                          [3]{}: instr 0x128-0x12a (2)
0x120|                        21                     |        !       |                            opcode: "local.set" (0x21) 0x128-0x129 (1)
0x120|                           01                  |         .      |                            x: 1 (valid) 0x129-0x12a (1)
     |                                               |                |                          [4]{}: instr 0x12a-0x12c (2)
0x120|                              20               |                |                            opcode: "local.get" (0x20) 0x12a-0x12b (1)
0x120|                                 00            |           .    |                            x: 0 (valid) 0x12b-0x12c (1)
     |                                               |                |                          [5]{}: instr 0x12c-0x12e (2)
0x120|                                    42         |            B   |                            opcode: "i64.const" (0x42) 0x12c-0x12d (1)
0x120|                                       7f      |             .  |                            n: -1 0x12d-0x12e (1)
     |                                               |                |                          [6]{}: instr 0x12e-0x12f (1)
0x120|                                          7c   |              | |                            opcode: "i64.add" (0x7c) 0x12e-0x12f (1)
     |                                               |                |                          [7]{}: instr 0x12f-0x131 (2)
0x120|                                             21|               !|                            opcode: "local.set" (0x21) 0x12f-0x130 (1)
0x130|00                                             |.               |                            x: 0 (valid) 0x130-0x131 (1)
     |                                               |                |                          [8]{}: instr 0x131-0x133 (2)
0x130|   20                                          |                |                            opcode: "local.get" (0x20) 0x131-0x132 (1)
0x130|      00                                       |  .             |                            x: 0 (valid) 0x132-0x133 (1)
     |                                               |                |                          [9]{}: instr 0x133-0x135 (2)
0x130|         42                                    |   B            |                            opcode: "i64.const" (0x42) 0x133-0x134 (1)
0x130|            01                                 |    .           |                            n: 1 0x134-0x135 (1)
     |                                               |                |                          [10]{}: instr 0x135-0x136 (1)
0x130|               55                              |     U          |                            opcode: "i64.gt_s" (0x55) 0x135-0x136 (1)
     |                                               |                |                          [11]{}: instr 0x136-0x138 (2)
0x130|                  0d                           |      .         |                            opcode: "br_if" (0xd) 0x136-0x137 (1)
0x130|                     00                        |       .        |                            l: 0 (valid) 0x137-0x138 (1)
0x130|                        0b                     |        .       |                        end: 0xb (valid) 0x138-0x139 (1)
0x130|                           0b                  |         .      |                    end: 0xb (valid) 0x139-0x13a (1)
     |                                               |                |                  [3]{}: in 0x13a-0x13c (2)
0x130|                              20               |                |                    opcode: "local.get" (0x20) 0x13a-0x13b (1)
0x130|                                 01            |           .    |                    x: 1 (valid) 0x13b-0x13c (1)
     |                                               |                |                  [4]{}: in 0x13c-0x13d (1)
0x130|                                    0b         |            .   |                    opcode: "end" (0xb) 0x13c-0x13d (1)
     |                                               |                |            [5]{}: code 0x13d-0x144 (7)
0x130|                                       06      |             .  |              size: 6 (valid) 0x13d-0x13e (1)
     |                                               |                |              code{}: 0x13e-0x144 (6)
     |                                               |                |                t{}: 0x13e-0x13f (1)
0x130|                                          00   |              . |                  n: 0 (valid) 0x13e-0x13f (1)
     |                                               |                |                  x[0:0]: 0x13f-0x13f (0)
     |                                               |                |                e[0:3]: 0x13f-0x144 (5)
     |                                               |                |                  [0]{}: in 0x13f-0x141 (2)
0x130|                                             20|                |                    opcode: "local.get" (0x20) 0x13f-0x140 (1)
0x140|00                                             |.               |                    x: 0 (valid) 0x140-0x141 (1)
     |                                               |                |                  [1]{}: in 0x141-0x143 (2)
0x140|   20                                          |                |                    opcode: "local.get" (0x20) 0x141-0x142 (1)
0x140|      00                                       |  .             |                    x: 0 (valid) 0x142-0x143 (1)
     |                                               |                |                  [2]{}: in 0x143-0x144 (1)
0x140|         0b                                    |   .            |                    opcode: "end" (0xb) 0x143-0x144 (1)
     |                                               |                |            [6]{}: code 0x144-0x14d (9)
0x140|            08                                 |    .           |              size: 8 (valid) 0x144-0x145 (1)
     |                                               |                |              code{}: 0x145-0x14d (8)
     |                                               |                |                t{}: 0x145-0x146 (1)
0x140|               00                              |     .          |                  n: 0 (valid) 0x145-0x146 (1)
     |                                               |                |                  x[0:0]: 0x146-0x146 (0)
     |                                               |                |                e[0:4]: 0x146-0x14d (7)
     |                                               |                |                  [0]{}: in 0x146-0x148 (2)
0x140|                  20                           |                |                    opcode: "local.get" (0x20) 0x146-0x147 (1)
0x140|                     00                        |       .        |                    x: 0 (valid) 0x147-0x148 (1)
     |                                               |                |                  [1]{}: in 0x148-0x14a (2)
0x140|                        20                     |                |                    opcode: "local.get" (0x20) 0x148-0x149 (1)
0x140|                           01                  |         .      |                    x: 1 (valid) 0x149-0x14a (1)
     |                                               |                |                  [2]{}: in 0x14a-0x14c (2)
0x140|                              20               |                |                    opcode: "local.get" (0x20) 0x14a-0x14b (1)
0x140|                                 00            |           .    |                    x: 0 (valid) 0x14b-0x14c (1)
     |                                               |                |                  [3]{}: in 0x14c-0x14d (1)
0x140|                                    0b         |            .   |                    opcode: "end" (0xb) 0x14c-0x14d (1)
     |                                               |                |            [7]{}: code 0x14d-0x16a (29)
0x140|                                       1c      |             .  |              size: 28 (valid) 0x14d-0x14e (1)
     |                                               |                |              code{}: 0x14e-0x16a (28)
     |                                               |                |                t{}: 0x14e-0x14f (1)
0x140|                                          00   |              . |                  n: 0 (valid) 0x14e-0x14f (1)
     |                                               |                |                  x[0:0]: 0x14f-0x14f (0)
     |                                               |                |                e[0:4]: 0x14f-0x16a (27)
     |                                               |                |                  [0]{}: in 0x14f-0x151 (2)
0x140|                                             42|               B|                    opcode: "i64.const" (0x42) 0x14f-0x150 (1)
0x150|01                                             |.               |                    n: 1 0x150-0x151 (1)
     |                                               |                |                  [1]{}: in 0x151-0x153 (2)
0x150|   20                                          |                |                    opcode: "local.get" (0x20) 0x151-0x152 (1)
0x150|      00                                       |  .             |                    x: 0 (valid) 0x152-0x153 (1)
     |                                               |                |                  [2]{}: in 0x153-0x169 (22)
0x150|         03                                    |   .            |                    opcode: "loop" (0x3) 0x153-0x154 (1)
0x150|            03                                 |    .           |                    bt: 3 0x154-0x155 (1)
     |                                               |                |                    instructions[0:12]: 0x155-0x168 (19)
     |                                               |                |                      [0]{}: instr 0x155-0x157 (2)
0x150|               10                              |     .          |                        opcode: "call" (0x10) 0x155-0x156 (1)
0x150|                  06                           |      .         |                        x: 6 (valid) 0x156-0x157 (1)
     |                                               |                |                      [1]{}: instr 0x157-0x159 (2)
0x150|                     10                        |       .        |                        opcode: "call" (0x10) 0x157-0x158 (1)
0x150|                        06                     |        .       |                        x: 6 (valid) 0x158-0x159 (1)
     |                                               |                |                      [2]{}: instr 0x159-0x15a (1)
0x150|                           7e                  |         ~      |                        opcode: "i64.mul" (0x7e) 0x159-0x15a (1)
     |                                               |                |                      [3]{}: instr 0x15a-0x15c (2)
0x150|                              10               |          .     |                        opcode: "call" (0x10) 0x15a-0x15b (1)
0x150|                                 06            |           .    |                        x: 6 (valid) 0x15b-0x15c (1)
     |                                               |                |                      [4]{}: instr 0x15c-0x15e (2)
0x150|                                    42         |            B   |                        opcode: "i64.const" (0x42) 0x15c-0x15d (1)
0x150|                                       01      |             .  |                        n: 1 0x15d-0x15e (1)
     |                                               |                |                      [5]{}: instr 0x15e-0x15f (1)
0x150|                                          7d   |              } |                        opcode: "i64.sub" (0x7d) 0x15e-0x15f (1)
     |                                               |                |                      [6]{}: instr 0x15f-0x161 (2)
0x150|                                             10|               .|                        opcode: "call" (0x10) 0x15f-0x160 (1)
0x160|05                                             |.               |                        x: 5 (valid) 0x160-0x161 (1)
     |                                               |                |                      [7]{}: instr 0x161-0x163 (2)
0x160|   42                                          | B              |                        opcode: "i64.const" (0x42) 0x161-0x162 (1)
0x160|      00                                       |  .             |                        n: 0 0x162-0x163 (1)
     |                                               |                |                      [8]{}: instr 0x163-0x164 (1)
0x160|         56                                    |   V            |                        opcode: "i64.gt_u" (0x56) 0x163-0x164 (1)
     |                                               |                |                      [9]{}: instr 0x164-0x166 (2)
0x160|            0d                                 |    .           |                        opcode: "br_if" (0xd) 0x164-0x165 (1)
0x160|               00                              |     .          |                        l: 0 (valid) 0x165-0x166 (1)
     |                                               |                |                      [10]{}: instr 0x166-0x167 (1)
0x160|                  1a                           |      .         |                        opcode: "drop" (0x1a) 0x166-0x167 (1)
     |                                               |                |                      [11]{}: instr 0x167-0x168 (1)
0x160|                     0f                        |       .        |                        opcode: "return" (0xf) 0x167-0x168 (1)
0x160|                        0b                     |        .       |                    end: 0xb (valid) 0x168-0x169 (1)
     |                                               |                |                  [3]{}: in 0x169-0x16a (1)
0x160|                           0b|                 |         .|     |                    opcode: "end" (0xb) 0x169-0x16a (1)
