$ fq -d wasm dv fac-0.wasm
     |00 01 02 03 04 05 06 07 08 09 0a 0b 0c 0d 0e 0f|0123456789abcdef|.{}: fac-0.wasm (wasm) 0x0-0x169.7 (362)
0x000|00 61 73 6d                                    |.asm            |  magic: raw bits (valid) 0x0-0x3.7 (4)
0x000|            01 00 00 00                        |    ....        |  version: 1 0x4-0x7.7 (4)
     |                                               |                |  sections[0:4]: 0x8-0x169.7 (354)
     |                                               |                |    [0]{}: section 0x8-0x23.7 (28)
0x000|                        01                     |        .       |      id: "type section" (1) 0x8-0x8.7 (1)
0x000|                           1a                  |         .      |      size: 26 0x9-0x9.7 (1)
     |                                               |                |      content{}: 0xa-0x23.7 (26)
     |                                               |                |        ft{}: 0xa-0x23.7 (26)
0x000|                              04               |          .     |          n: 4 0xa-0xa.7 (1)
     |                                               |                |          x[0:4]: 0xb-0x23.7 (25)
     |                                               |                |            [0]{}: ft 0xb-0xf.7 (5)
0x000|                                 60            |           `    |              tag: 0x60 (valid) 0xb-0xb.7 (1)
     |                                               |                |              rt1{}: 0xc-0xd.7 (2)
0x000|                                    01         |            .   |                n: 1 0xc-0xc.7 (1)
     |                                               |                |                x[0:1]: 0xd-0xd.7 (1)
0x000|                                       7e      |             ~  |                  [0]: "i64" (0x7e) t 0xd-0xd.7 (1)
     |                                               |                |              rt2{}: 0xe-0xf.7 (2)
0x000|                                          01   |              . |                n: 1 0xe-0xe.7 (1)
     |                                               |                |                x[0:1]: 0xf-0xf.7 (1)
0x000|                                             7e|               ~|                  [0]: "i64" (0x7e) t 0xf-0xf.7 (1)
     |                                               |                |            [1]{}: ft 0x10-0x15.7 (6)
0x010|60                                             |`               |              tag: 0x60 (valid) 0x10-0x10.7 (1)
     |                                               |                |              rt1{}: 0x11-0x12.7 (2)
0x010|   01                                          | .              |                n: 1 0x11-0x11.7 (1)
     |                                               |                |                x[0:1]: 0x12-0x12.7 (1)
0x010|      7e                                       |  ~             |                  [0]: "i64" (0x7e) t 0x12-0x12.7 (1)
     |                                               |                |              rt2{}: 0x13-0x15.7 (3)
0x010|         02                                    |   .            |                n: 2 0x13-0x13.7 (1)
     |                                               |                |                x[0:2]: 0x14-0x15.7 (2)
0x010|            7e                                 |    ~           |                  [0]: "i64" (0x7e) t 0x14-0x14.7 (1)
0x010|               7e                              |     ~          |                  [1]: "i64" (0x7e) t 0x15-0x15.7 (1)
     |                                               |                |            [2]{}: ft 0x16-0x1d.7 (8)
0x010|                  60                           |      `         |              tag: 0x60 (valid) 0x16-0x16.7 (1)
     |                                               |                |              rt1{}: 0x17-0x19.7 (3)
0x010|                     02                        |       .        |                n: 2 0x17-0x17.7 (1)
     |                                               |                |                x[0:2]: 0x18-0x19.7 (2)
0x010|                        7e                     |        ~       |                  [0]: "i64" (0x7e) t 0x18-0x18.7 (1)
0x010|                           7e                  |         ~      |                  [1]: "i64" (0x7e) t 0x19-0x19.7 (1)
     |                                               |                |              rt2{}: 0x1a-0x1d.7 (4)
0x010|                              03               |          .     |                n: 3 0x1a-0x1a.7 (1)
     |                                               |                |                x[0:3]: 0x1b-0x1d.7 (3)
0x010|                                 7e            |           ~    |                  [0]: "i64" (0x7e) t 0x1b-0x1b.7 (1)
0x010|                                    7e         |            ~   |                  [1]: "i64" (0x7e) t 0x1c-0x1c.7 (1)
0x010|                                       7e      |             ~  |                  [2]: "i64" (0x7e) t 0x1d-0x1d.7 (1)
     |                                               |                |            [3]{}: ft 0x1e-0x23.7 (6)
0x010|                                          60   |              ` |              tag: 0x60 (valid) 0x1e-0x1e.7 (1)
     |                                               |                |              rt1{}: 0x1f-0x21.7 (3)
0x010|                                             02|               .|                n: 2 0x1f-0x1f.7 (1)
     |                                               |                |                x[0:2]: 0x20-0x21.7 (2)
0x020|7e                                             |~               |                  [0]: "i64" (0x7e) t 0x20-0x20.7 (1)
0x020|   7e                                          | ~              |                  [1]: "i64" (0x7e) t 0x21-0x21.7 (1)
     |                                               |                |              rt2{}: 0x22-0x23.7 (2)
0x020|      01                                       |  .             |                n: 1 0x22-0x22.7 (1)
     |                                               |                |                x[0:1]: 0x23-0x23.7 (1)
0x020|         7e                                    |   ~            |                  [0]: "i64" (0x7e) t 0x23-0x23.7 (1)
     |                                               |                |    [1]{}: section 0x24-0x2e.7 (11)
0x020|            03                                 |    .           |      id: "function section" (3) 0x24-0x24.7 (1)
0x020|               09                              |     .          |      size: 9 0x25-0x25.7 (1)
     |                                               |                |      content{}: 0x26-0x2e.7 (9)
     |                                               |                |        x{}: 0x26-0x2e.7 (9)
0x020|                  08                           |      .         |          n: 8 0x26-0x26.7 (1)
     |                                               |                |          x[0:8]: 0x27-0x2e.7 (8)
0x020|                     00                        |       .        |            [0]: 0 x 0x27-0x27.7 (1)
0x020|                        00                     |        .       |            [1]: 0 x 0x28-0x28.7 (1)
0x020|                           00                  |         .      |            [2]: 0 x 0x29-0x29.7 (1)
0x020|                              00               |          .     |            [3]: 0 x 0x2a-0x2a.7 (1)
0x020|                                 00            |           .    |            [4]: 0 x 0x2b-0x2b.7 (1)
0x020|                                    01         |            .   |            [5]: 1 x 0x2c-0x2c.7 (1)
0x020|                                       02      |             .  |            [6]: 2 x 0x2d-0x2d.7 (1)
0x020|                                          00   |              . |            [7]: 0 x 0x2e-0x2e.7 (1)
     |                                               |                |    [2]{}: section 0x2f-0x7b.7 (77)
0x020|                                             07|               .|      id: "export section" (7) 0x2f-0x2f.7 (1)
0x030|4b                                             |K               |      size: 75 0x30-0x30.7 (1)
     |                                               |                |      content{}: 0x31-0x7b.7 (75)
     |                                               |                |        ex{}: 0x31-0x7b.7 (75)
0x030|   06                                          | .              |          n: 6 0x31-0x31.7 (1)
     |                                               |                |          x[0:6]: 0x32-0x7b.7 (74)
     |                                               |                |            [0]{}: ex 0x32-0x3b.7 (10)
     |                                               |                |              nm{}: 0x32-0x39.7 (8)
0x030|      07                                       |  .             |                n: 7 0x32-0x32.7 (1)
0x030|         66 61 63 2d 72 65 63                  |   fac-rec      |                b: "fac-rec" 0x33-0x39.7 (7)
     |                                               |                |              d{}: 0x3a-0x3b.7 (2)
0x030|                              00               |          .     |                tag: "funcidx" (0x0) 0x3a-0x3a.7 (1)
0x030|                                 00            |           .    |                x: 0 0x3b-0x3b.7 (1)
     |                                               |                |            [1]{}: ex 0x3c-0x4b.7 (16)
     |                                               |                |              nm{}: 0x3c-0x49.7 (14)
0x030|                                    0d         |            .   |                n: 13 0x3c-0x3c.7 (1)
0x030|                                       66 61 63|             fac|                b: "fac-rec-named" 0x3d-0x49.7 (13)
0x040|2d 72 65 63 2d 6e 61 6d 65 64                  |-rec-named      |
     |                                               |                |              d{}: 0x4a-0x4b.7 (2)
0x040|                              00               |          .     |                tag: "funcidx" (0x0) 0x4a-0x4a.7 (1)
0x040|                                 01            |           .    |                x: 1 0x4b-0x4b.7 (1)
     |                                               |                |            [2]{}: ex 0x4c-0x56.7 (11)
     |                                               |                |              nm{}: 0x4c-0x54.7 (9)
0x040|                                    08         |            .   |                n: 8 0x4c-0x4c.7 (1)
0x040|                                       66 61 63|             fac|                b: "fac-iter" 0x4d-0x54.7 (8)
0x050|2d 69 74 65 72                                 |-iter           |
     |                                               |                |              d{}: 0x55-0x56.7 (2)
0x050|               00                              |     .          |                tag: "funcidx" (0x0) 0x55-0x55.7 (1)
0x050|                  02                           |      .         |                x: 2 0x56-0x56.7 (1)
     |                                               |                |            [3]{}: ex 0x57-0x67.7 (17)
     |                                               |                |              nm{}: 0x57-0x65.7 (15)
0x050|                     0e                        |       .        |                n: 14 0x57-0x57.7 (1)
0x050|                        66 61 63 2d 69 74 65 72|        fac-iter|                b: "fac-iter-named" 0x58-0x65.7 (14)
0x060|2d 6e 61 6d 65 64                              |-named          |
     |                                               |                |              d{}: 0x66-0x67.7 (2)
0x060|                  00                           |      .         |                tag: "funcidx" (0x0) 0x66-0x66.7 (1)
0x060|                     03                        |       .        |                x: 3 0x67-0x67.7 (1)
     |                                               |                |            [4]{}: ex 0x68-0x71.7 (10)
     |                                               |                |              nm{}: 0x68-0x6f.7 (8)
0x060|                        07                     |        .       |                n: 7 0x68-0x68.7 (1)
0x060|                           66 61 63 2d 6f 70 74|         fac-opt|                b: "fac-opt" 0x69-0x6f.7 (7)
     |                                               |                |              d{}: 0x70-0x71.7 (2)
0x070|00                                             |.               |                tag: "funcidx" (0x0) 0x70-0x70.7 (1)
0x070|   04                                          | .              |                x: 4 0x71-0x71.7 (1)
     |                                               |                |            [5]{}: ex 0x72-0x7b.7 (10)
     |                                               |                |              nm{}: 0x72-0x79.7 (8)
0x070|      07                                       |  .             |                n: 7 0x72-0x72.7 (1)
0x070|         66 61 63 2d 73 73 61                  |   fac-ssa      |                b: "fac-ssa" 0x73-0x79.7 (7)
     |                                               |                |              d{}: 0x7a-0x7b.7 (2)
0x070|                              00               |          .     |                tag: "funcidx" (0x0) 0x7a-0x7a.7 (1)
0x070|                                 07            |           .    |                x: 7 0x7b-0x7b.7 (1)
     |                                               |                |    [3]{}: section 0x7c-0x169.7 (238)
0x070|                                    0a         |            .   |      id: "code section" (10) 0x7c-0x7c.7 (1)
0x070|                                       eb 01   |             .. |      size: 235 0x7d-0x7e.7 (2)
     |                                               |                |      content{}: 0x7f-0x169.7 (235)
     |                                               |                |        code{}: 0x7f-0x169.7 (235)
0x070|                                             08|               .|          n: 8 0x7f-0x7f.7 (1)
     |                                               |                |          x[0:8]: 0x80-0x169.7 (234)
     |                                               |                |            [0]{}: code 0x80-0x97.7 (24)
0x080|17                                             |.               |              size: 23 0x80-0x80.7 (1)
     |                                               |                |              code{}: 0x81-0x97.7 (23)
     |                                               |                |                t{}: 0x81-0x81.7 (1)
0x080|   00                                          | .              |                  n: 0 0x81-0x81.7 (1)
     |                                               |                |                  x[0:0]: 0x82-NA (0)
     |                                               |                |                e[0:5]: 0x82-0x97.7 (22)
     |                                               |                |                  [0]{}: in 0x82-0x83.7 (2)
0x080|      20                                       |                |                    local.get: 0x20 (valid) 0x82-0x82.7 (1)
0x080|         00                                    |   .            |                    x: 0 0x83-0x83.7 (1)
     |                                               |                |                  [1]{}: in 0x84-0x85.7 (2)
0x080|            42                                 |    B           |                    i64.const: 0x42 (valid) 0x84-0x84.7 (1)
0x080|               00                              |     .          |                    n: 0 0x85-0x85.7 (1)
     |                                               |                |                  [2]{}: in 0x86-0x86.7 (1)
0x080|                  51                           |      Q         |                    i64.eq: 0x51 (valid) 0x86-0x86.7 (1)
     |                                               |                |                  [3]{}: in 0x87-0x96.7 (16)
0x080|                     04                        |       .        |                    if: 0x4 (valid) 0x87-0x87.7 (1)
0x080|                        7e                     |        ~       |                    bt: "i64" (126) 0x88-0x88.7 (1)
     |                                               |                |                    in1[0:1]: 0x89-0x8a.7 (2)
     |                                               |                |                      [0]{}: instr 0x89-0x8a.7 (2)
0x080|                           42                  |         B      |                        i64.const: 0x42 (valid) 0x89-0x89.7 (1)
0x080|                              01               |          .     |                        n: 1 0x8a-0x8a.7 (1)
0x080|                                 05            |           .    |                    else: 0x5 (valid) 0x8b-0x8b.7 (1)
     |                                               |                |                    in2[0:6]: 0x8c-0x95.7 (10)
     |                                               |                |                      [0]{}: instr 0x8c-0x8d.7 (2)
0x080|                                    20         |                |                        local.get: 0x20 (valid) 0x8c-0x8c.7 (1)
0x080|                                       00      |             .  |                        x: 0 0x8d-0x8d.7 (1)
     |                                               |                |                      [1]{}: instr 0x8e-0x8f.7 (2)
0x080|                                          20   |                |                        local.get: 0x20 (valid) 0x8e-0x8e.7 (1)
0x080|                                             00|               .|                        x: 0 0x8f-0x8f.7 (1)
     |                                               |                |                      [2]{}: instr 0x90-0x91.7 (2)
0x090|42                                             |B               |                        i64.const: 0x42 (valid) 0x90-0x90.7 (1)
0x090|   01                                          | .              |                        n: 1 0x91-0x91.7 (1)
     |                                               |                |                      [3]{}: instr 0x92-0x92.7 (1)
0x090|      7d                                       |  }             |                        i64.sub: 0x7d (valid) 0x92-0x92.7 (1)
     |                                               |                |                      [4]{}: instr 0x93-0x94.7 (2)
0x090|         10                                    |   .            |                        call: 0x10 (valid) 0x93-0x93.7 (1)
0x090|            00                                 |    .           |                        x: 0 0x94-0x94.7 (1)
     |                                               |                |                      [5]{}: instr 0x95-0x95.7 (1)
0x090|               7e                              |     ~          |                        i64.mul: 0x7e (valid) 0x95-0x95.7 (1)
0x090|                  0b                           |      .         |                    end: 11 (valid) 0x96-0x96.7 (1)
     |                                               |                |                  [4]{}: in 0x97-0x97.7 (1)
0x090|                     0b                        |       .        |                    end: 0xb (valid) 0x97-0x97.7 (1)
     |                                               |                |            [1]{}: code 0x98-0xaf.7 (24)
0x090|                        17                     |        .       |              size: 23 0x98-0x98.7 (1)
     |                                               |                |              code{}: 0x99-0xaf.7 (23)
     |                                               |                |                t{}: 0x99-0x99.7 (1)
0x090|                           00                  |         .      |                  n: 0 0x99-0x99.7 (1)
     |                                               |                |                  x[0:0]: 0x9a-NA (0)
     |                                               |                |                e[0:5]: 0x9a-0xaf.7 (22)
     |                                               |                |                  [0]{}: in 0x9a-0x9b.7 (2)
0x090|                              20               |                |                    local.get: 0x20 (valid) 0x9a-0x9a.7 (1)
0x090|                                 00            |           .    |                    x: 0 0x9b-0x9b.7 (1)
     |                                               |                |                  [1]{}: in 0x9c-0x9d.7 (2)
0x090|                                    42         |            B   |                    i64.const: 0x42 (valid) 0x9c-0x9c.7 (1)
0x090|                                       00      |             .  |                    n: 0 0x9d-0x9d.7 (1)
     |                                               |                |                  [2]{}: in 0x9e-0x9e.7 (1)
0x090|                                          51   |              Q |                    i64.eq: 0x51 (valid) 0x9e-0x9e.7 (1)
     |                                               |                |                  [3]{}: in 0x9f-0xae.7 (16)
0x090|                                             04|               .|                    if: 0x4 (valid) 0x9f-0x9f.7 (1)
0x0a0|7e                                             |~               |                    bt: "i64" (126) 0xa0-0xa0.7 (1)
     |                                               |                |                    in1[0:1]: 0xa1-0xa2.7 (2)
     |                                               |                |                      [0]{}: instr 0xa1-0xa2.7 (2)
0x0a0|   42                                          | B              |                        i64.const: 0x42 (valid) 0xa1-0xa1.7 (1)
0x0a0|      01                                       |  .             |                        n: 1 0xa2-0xa2.7 (1)
0x0a0|         05                                    |   .            |                    else: 0x5 (valid) 0xa3-0xa3.7 (1)
     |                                               |                |                    in2[0:6]: 0xa4-0xad.7 (10)
     |                                               |                |                      [0]{}: instr 0xa4-0xa5.7 (2)
0x0a0|            20                                 |                |                        local.get: 0x20 (valid) 0xa4-0xa4.7 (1)
0x0a0|               00                              |     .          |                        x: 0 0xa5-0xa5.7 (1)
     |                                               |                |                      [1]{}: instr 0xa6-0xa7.7 (2)
0x0a0|                  20                           |                |                        local.get: 0x20 (valid) 0xa6-0xa6.7 (1)
0x0a0|                     00                        |       .        |                        x: 0 0xa7-0xa7.7 (1)
     |                                               |                |                      [2]{}: instr 0xa8-0xa9.7 (2)
0x0a0|                        42                     |        B       |                        i64.const: 0x42 (valid) 0xa8-0xa8.7 (1)
0x0a0|                           01                  |         .      |                        n: 1 0xa9-0xa9.7 (1)
     |                                               |                |                      [3]{}: instr 0xaa-0xaa.7 (1)
0x0a0|                              7d               |          }     |                        i64.sub: 0x7d (valid) 0xaa-0xaa.7 (1)
     |                                               |                |                      [4]{}: instr 0xab-0xac.7 (2)
0x0a0|                                 10            |           .    |                        call: 0x10 (valid) 0xab-0xab.7 (1)
0x0a0|                                    01         |            .   |                        x: 1 0xac-0xac.7 (1)
     |                                               |                |                      [5]{}: instr 0xad-0xad.7 (1)
0x0a0|                                       7e      |             ~  |                        i64.mul: 0x7e (valid) 0xad-0xad.7 (1)
0x0a0|                                          0b   |              . |                    end: 11 (valid) 0xae-0xae.7 (1)
     |                                               |                |                  [4]{}: in 0xaf-0xaf.7 (1)
0x0a0|                                             0b|               .|                    end: 0xb (valid) 0xaf-0xaf.7 (1)
     |                                               |                |            [2]{}: code 0xb0-0xdf.7 (48)
0x0b0|2f                                             |/               |              size: 47 0xb0-0xb0.7 (1)
     |                                               |                |              code{}: 0xb1-0xdf.7 (47)
     |                                               |                |                t{}: 0xb1-0xb3.7 (3)
0x0b0|   01                                          | .              |                  n: 1 0xb1-0xb1.7 (1)
     |                                               |                |                  x[0:1]: 0xb2-0xb3.7 (2)
     |                                               |                |                    [0]{}: t 0xb2-0xb3.7 (2)
0x0b0|      02                                       |  .             |                      n: 2 0xb2-0xb2.7 (1)
0x0b0|         7e                                    |   ~            |                      t: "i64" (0x7e) 0xb3-0xb3.7 (1)
     |                                               |                |                e[0:7]: 0xb4-0xdf.7 (44)
     |                                               |                |                  [0]{}: in 0xb4-0xb5.7 (2)
0x0b0|            20                                 |                |                    local.get: 0x20 (valid) 0xb4-0xb4.7 (1)
0x0b0|               00                              |     .          |                    x: 0 0xb5-0xb5.7 (1)
     |                                               |                |                  [1]{}: in 0xb6-0xb7.7 (2)
0x0b0|                  21                           |      !         |                    local.set: 0x21 (valid) 0xb6-0xb6.7 (1)
0x0b0|                     01                        |       .        |                    x: 1 0xb7-0xb7.7 (1)
     |                                               |                |                  [2]{}: in 0xb8-0xb9.7 (2)
0x0b0|                        42                     |        B       |                    i64.const: 0x42 (valid) 0xb8-0xb8.7 (1)
0x0b0|                           01                  |         .      |                    n: 1 0xb9-0xb9.7 (1)
     |                                               |                |                  [3]{}: in 0xba-0xbb.7 (2)
0x0b0|                              21               |          !     |                    local.set: 0x21 (valid) 0xba-0xba.7 (1)
0x0b0|                                 02            |           .    |                    x: 2 0xbb-0xbb.7 (1)
     |                                               |                |                  [4]{}: in 0xbc-0xdc.7 (33)
0x0b0|                                    02         |            .   |                    block: 0x2 (valid) 0xbc-0xbc.7 (1)
0x0b0|                                       40      |             @  |                    bt: "ε" (64) 0xbd-0xbd.7 (1)
     |                                               |                |                    instructions[0:1]: 0xbe-0xdb.7 (30)
     |                                               |                |                      [0]{}: instr 0xbe-0xdb.7 (30)
0x0b0|                                          03   |              . |                        loop: 0x3 (valid) 0xbe-0xbe.7 (1)
0x0b0|                                             40|               @|                        bt: "ε" (64) 0xbf-0xbf.7 (1)
     |                                               |                |                        instructions[0:5]: 0xc0-0xda.7 (27)
     |                                               |                |                          [0]{}: instr 0xc0-0xc1.7 (2)
0x0c0|20                                             |                |                            local.get: 0x20 (valid) 0xc0-0xc0.7 (1)
0x0c0|   01                                          | .              |                            x: 1 0xc1-0xc1.7 (1)
     |                                               |                |                          [1]{}: instr 0xc2-0xc3.7 (2)
0x0c0|      42                                       |  B             |                            i64.const: 0x42 (valid) 0xc2-0xc2.7 (1)
0x0c0|         00                                    |   .            |                            n: 0 0xc3-0xc3.7 (1)
     |                                               |                |                          [2]{}: instr 0xc4-0xc4.7 (1)
0x0c0|            51                                 |    Q           |                            i64.eq: 0x51 (valid) 0xc4-0xc4.7 (1)
     |                                               |                |                          [3]{}: instr 0xc5-0xd8.7 (20)
0x0c0|               04                              |     .          |                            if: 0x4 (valid) 0xc5-0xc5.7 (1)
0x0c0|                  40                           |      @         |                            bt: "ε" (64) 0xc6-0xc6.7 (1)
     |                                               |                |                            in1[0:1]: 0xc7-0xc8.7 (2)
     |                                               |                |                              [0]{}: instr 0xc7-0xc8.7 (2)
0x0c0|                     0c                        |       .        |                                br: 0xc (valid) 0xc7-0xc7.7 (1)
0x0c0|                        02                     |        .       |                                l: 2 0xc8-0xc8.7 (1)
0x0c0|                           05                  |         .      |                            else: 0x5 (valid) 0xc9-0xc9.7 (1)
     |                                               |                |                            in2[0:8]: 0xca-0xd7.7 (14)
     |                                               |                |                              [0]{}: instr 0xca-0xcb.7 (2)
0x0c0|                              20               |                |                                local.get: 0x20 (valid) 0xca-0xca.7 (1)
0x0c0|                                 01            |           .    |                                x: 1 0xcb-0xcb.7 (1)
     |                                               |                |                              [1]{}: instr 0xcc-0xcd.7 (2)
0x0c0|                                    20         |                |                                local.get: 0x20 (valid) 0xcc-0xcc.7 (1)
0x0c0|                                       02      |             .  |                                x: 2 0xcd-0xcd.7 (1)
     |                                               |                |                              [2]{}: instr 0xce-0xce.7 (1)
0x0c0|                                          7e   |              ~ |                                i64.mul: 0x7e (valid) 0xce-0xce.7 (1)
     |                                               |                |                              [3]{}: instr 0xcf-0xd0.7 (2)
0x0c0|                                             21|               !|                                local.set: 0x21 (valid) 0xcf-0xcf.7 (1)
0x0d0|02                                             |.               |                                x: 2 0xd0-0xd0.7 (1)
     |                                               |                |                              [4]{}: instr 0xd1-0xd2.7 (2)
0x0d0|   20                                          |                |                                local.get: 0x20 (valid) 0xd1-0xd1.7 (1)
0x0d0|      01                                       |  .             |                                x: 1 0xd2-0xd2.7 (1)
     |                                               |                |                              [5]{}: instr 0xd3-0xd4.7 (2)
0x0d0|         42                                    |   B            |                                i64.const: 0x42 (valid) 0xd3-0xd3.7 (1)
0x0d0|            01                                 |    .           |                                n: 1 0xd4-0xd4.7 (1)
     |                                               |                |                              [6]{}: instr 0xd5-0xd5.7 (1)
0x0d0|               7d                              |     }          |                                i64.sub: 0x7d (valid) 0xd5-0xd5.7 (1)
     |                                               |                |                              [7]{}: instr 0xd6-0xd7.7 (2)
0x0d0|                  21                           |      !         |                                local.set: 0x21 (valid) 0xd6-0xd6.7 (1)
0x0d0|                     01                        |       .        |                                x: 1 0xd7-0xd7.7 (1)
0x0d0|                        0b                     |        .       |                            end: 11 (valid) 0xd8-0xd8.7 (1)
     |                                               |                |                          [4]{}: instr 0xd9-0xda.7 (2)
0x0d0|                           0c                  |         .      |                            br: 0xc (valid) 0xd9-0xd9.7 (1)
0x0d0|                              00               |          .     |                            l: 0 0xda-0xda.7 (1)
0x0d0|                                 0b            |           .    |                        end: 11 (valid) 0xdb-0xdb.7 (1)
0x0d0|                                    0b         |            .   |                    end: 11 (valid) 0xdc-0xdc.7 (1)
     |                                               |                |                  [5]{}: in 0xdd-0xde.7 (2)
0x0d0|                                       20      |                |                    local.get: 0x20 (valid) 0xdd-0xdd.7 (1)
0x0d0|                                          02   |              . |                    x: 2 0xde-0xde.7 (1)
     |                                               |                |                  [6]{}: in 0xdf-0xdf.7 (1)
0x0d0|                                             0b|               .|                    end: 0xb (valid) 0xdf-0xdf.7 (1)
     |                                               |                |            [3]{}: code 0xe0-0x10f.7 (48)
0x0e0|2f                                             |/               |              size: 47 0xe0-0xe0.7 (1)
     |                                               |                |              code{}: 0xe1-0x10f.7 (47)
     |                                               |                |                t{}: 0xe1-0xe3.7 (3)
0x0e0|   01                                          | .              |                  n: 1 0xe1-0xe1.7 (1)
     |                                               |                |                  x[0:1]: 0xe2-0xe3.7 (2)
     |                                               |                |                    [0]{}: t 0xe2-0xe3.7 (2)
0x0e0|      02                                       |  .             |                      n: 2 0xe2-0xe2.7 (1)
0x0e0|         7e                                    |   ~            |                      t: "i64" (0x7e) 0xe3-0xe3.7 (1)
     |                                               |                |                e[0:7]: 0xe4-0x10f.7 (44)
     |                                               |                |                  [0]{}: in 0xe4-0xe5.7 (2)
0x0e0|            20                                 |                |                    local.get: 0x20 (valid) 0xe4-0xe4.7 (1)
0x0e0|               00                              |     .          |                    x: 0 0xe5-0xe5.7 (1)
     |                                               |                |                  [1]{}: in 0xe6-0xe7.7 (2)
0x0e0|                  21                           |      !         |                    local.set: 0x21 (valid) 0xe6-0xe6.7 (1)
0x0e0|                     01                        |       .        |                    x: 1 0xe7-0xe7.7 (1)
     |                                               |                |                  [2]{}: in 0xe8-0xe9.7 (2)
0x0e0|                        42                     |        B       |                    i64.const: 0x42 (valid) 0xe8-0xe8.7 (1)
0x0e0|                           01                  |         .      |                    n: 1 0xe9-0xe9.7 (1)
     |                                               |                |                  [3]{}: in 0xea-0xeb.7 (2)
0x0e0|                              21               |          !     |                    local.set: 0x21 (valid) 0xea-0xea.7 (1)
0x0e0|                                 02            |           .    |                    x: 2 0xeb-0xeb.7 (1)
     |                                               |                |                  [4]{}: in 0xec-0x10c.7 (33)
0x0e0|                                    02         |            .   |                    block: 0x2 (valid) 0xec-0xec.7 (1)
0x0e0|                                       40      |             @  |                    bt: "ε" (64) 0xed-0xed.7 (1)
     |                                               |                |                    instructions[0:1]: 0xee-0x10b.7 (30)
     |                                               |                |                      [0]{}: instr 0xee-0x10b.7 (30)
0x0e0|                                          03   |              . |                        loop: 0x3 (valid) 0xee-0xee.7 (1)
0x0e0|                                             40|               @|                        bt: "ε" (64) 0xef-0xef.7 (1)
     |                                               |                |                        instructions[0:5]: 0xf0-0x10a.7 (27)
     |                                               |                |                          [0]{}: instr 0xf0-0xf1.7 (2)
0x0f0|20                                             |                |                            local.get: 0x20 (valid) 0xf0-0xf0.7 (1)
0x0f0|   01                                          | .              |                            x: 1 0xf1-0xf1.7 (1)
     |                                               |                |                          [1]{}: instr 0xf2-0xf3.7 (2)
0x0f0|      42                                       |  B             |                            i64.const: 0x42 (valid) 0xf2-0xf2.7 (1)
0x0f0|         00                                    |   .            |                            n: 0 0xf3-0xf3.7 (1)
     |                                               |                |                          [2]{}: instr 0xf4-0xf4.7 (1)
0x0f0|            51                                 |    Q           |                            i64.eq: 0x51 (valid) 0xf4-0xf4.7 (1)
     |                                               |                |                          [3]{}: instr 0xf5-0x108.7 (20)
0x0f0|               04                              |     .          |                            if: 0x4 (valid) 0xf5-0xf5.7 (1)
0x0f0|                  40                           |      @         |                            bt: "ε" (64) 0xf6-0xf6.7 (1)
     |                                               |                |                            in1[0:1]: 0xf7-0xf8.7 (2)
     |                                               |                |                              [0]{}: instr 0xf7-0xf8.7 (2)
0x0f0|                     0c                        |       .        |                                br: 0xc (valid) 0xf7-0xf7.7 (1)
0x0f0|                        02                     |        .       |                                l: 2 0xf8-0xf8.7 (1)
0x0f0|                           05                  |         .      |                            else: 0x5 (valid) 0xf9-0xf9.7 (1)
     |                                               |                |                            in2[0:8]: 0xfa-0x107.7 (14)
     |                                               |                |                              [0]{}: instr 0xfa-0xfb.7 (2)
0x0f0|                              20               |                |                                local.get: 0x20 (valid) 0xfa-0xfa.7 (1)
0x0f0|                                 01            |           .    |                                x: 1 0xfb-0xfb.7 (1)
     |                                               |                |                              [1]{}: instr 0xfc-0xfd.7 (2)
0x0f0|                                    20         |                |                                local.get: 0x20 (valid) 0xfc-0xfc.7 (1)
0x0f0|                                       02      |             .  |                                x: 2 0xfd-0xfd.7 (1)
     |                                               |                |                              [2]{}: instr 0xfe-0xfe.7 (1)
0x0f0|                                          7e   |              ~ |                                i64.mul: 0x7e (valid) 0xfe-0xfe.7 (1)
     |                                               |                |                              [3]{}: instr 0xff-0x100.7 (2)
0x0f0|                                             21|               !|                                local.set: 0x21 (valid) 0xff-0xff.7 (1)
0x100|02                                             |.               |                                x: 2 0x100-0x100.7 (1)
     |                                               |                |                              [4]{}: instr 0x101-0x102.7 (2)
0x100|   20                                          |                |                                local.get: 0x20 (valid) 0x101-0x101.7 (1)
0x100|      01                                       |  .             |                                x: 1 0x102-0x102.7 (1)
     |                                               |                |                              [5]{}: instr 0x103-0x104.7 (2)
0x100|         42                                    |   B            |                                i64.const: 0x42 (valid) 0x103-0x103.7 (1)
0x100|            01                                 |    .           |                                n: 1 0x104-0x104.7 (1)
     |                                               |                |                              [6]{}: instr 0x105-0x105.7 (1)
0x100|               7d                              |     }          |                                i64.sub: 0x7d (valid) 0x105-0x105.7 (1)
     |                                               |                |                              [7]{}: instr 0x106-0x107.7 (2)
0x100|                  21                           |      !         |                                local.set: 0x21 (valid) 0x106-0x106.7 (1)
0x100|                     01                        |       .        |                                x: 1 0x107-0x107.7 (1)
0x100|                        0b                     |        .       |                            end: 11 (valid) 0x108-0x108.7 (1)
     |                                               |                |                          [4]{}: instr 0x109-0x10a.7 (2)
0x100|                           0c                  |         .      |                            br: 0xc (valid) 0x109-0x109.7 (1)
0x100|                              00               |          .     |                            l: 0 0x10a-0x10a.7 (1)
0x100|                                 0b            |           .    |                        end: 11 (valid) 0x10b-0x10b.7 (1)
0x100|                                    0b         |            .   |                    end: 11 (valid) 0x10c-0x10c.7 (1)
     |                                               |                |                  [5]{}: in 0x10d-0x10e.7 (2)
0x100|                                       20      |                |                    local.get: 0x20 (valid) 0x10d-0x10d.7 (1)
0x100|                                          02   |              . |                    x: 2 0x10e-0x10e.7 (1)
     |                                               |                |                  [6]{}: in 0x10f-0x10f.7 (1)
0x100|                                             0b|               .|                    end: 0xb (valid) 0x10f-0x10f.7 (1)
     |                                               |                |            [4]{}: code 0x110-0x13c.7 (45)
0x110|2c                                             |,               |              size: 44 0x110-0x110.7 (1)
     |                                               |                |              code{}: 0x111-0x13c.7 (44)
     |                                               |                |                t{}: 0x111-0x113.7 (3)
0x110|   01                                          | .              |                  n: 1 0x111-0x111.7 (1)
     |                                               |                |                  x[0:1]: 0x112-0x113.7 (2)
     |                                               |                |                    [0]{}: t 0x112-0x113.7 (2)
0x110|      01                                       |  .             |                      n: 1 0x112-0x112.7 (1)
0x110|         7e                                    |   ~            |                      t: "i64" (0x7e) 0x113-0x113.7 (1)
     |                                               |                |                e[0:5]: 0x114-0x13c.7 (41)
     |                                               |                |                  [0]{}: in 0x114-0x115.7 (2)
0x110|            42                                 |    B           |                    i64.const: 0x42 (valid) 0x114-0x114.7 (1)
0x110|               01                              |     .          |                    n: 1 0x115-0x115.7 (1)
     |                                               |                |                  [1]{}: in 0x116-0x117.7 (2)
0x110|                  21                           |      !         |                    local.set: 0x21 (valid) 0x116-0x116.7 (1)
0x110|                     01                        |       .        |                    x: 1 0x117-0x117.7 (1)
     |                                               |                |                  [2]{}: in 0x118-0x139.7 (34)
0x110|                        02                     |        .       |                    block: 0x2 (valid) 0x118-0x118.7 (1)
0x110|                           40                  |         @      |                    bt: "ε" (64) 0x119-0x119.7 (1)
     |                                               |                |                    instructions[0:5]: 0x11a-0x138.7 (31)
     |                                               |                |                      [0]{}: instr 0x11a-0x11b.7 (2)
0x110|                              20               |                |                        local.get: 0x20 (valid) 0x11a-0x11a.7 (1)
0x110|                                 00            |           .    |                        x: 0 0x11b-0x11b.7 (1)
     |                                               |                |                      [1]{}: instr 0x11c-0x11d.7 (2)
0x110|                                    42         |            B   |                        i64.const: 0x42 (valid) 0x11c-0x11c.7 (1)
0x110|                                       02      |             .  |                        n: 2 0x11d-0x11d.7 (1)
     |                                               |                |                      [2]{}: instr 0x11e-0x11e.7 (1)
0x110|                                          53   |              S |                        i64.lt_s: 0x53 (valid) 0x11e-0x11e.7 (1)
     |                                               |                |                      [3]{}: instr 0x11f-0x120.7 (2)
0x110|                                             0d|               .|                        br_if: 0xd (valid) 0x11f-0x11f.7 (1)
0x120|00                                             |.               |                        l: 0 0x120-0x120.7 (1)
     |                                               |                |                      [4]{}: instr 0x121-0x138.7 (24)
0x120|   03                                          | .              |                        loop: 0x3 (valid) 0x121-0x121.7 (1)
0x120|      40                                       |  @             |                        bt: "ε" (64) 0x122-0x122.7 (1)
     |                                               |                |                        instructions[0:12]: 0x123-0x137.7 (21)
     |                                               |                |                          [0]{}: instr 0x123-0x124.7 (2)
0x120|         20                                    |                |                            local.get: 0x20 (valid) 0x123-0x123.7 (1)
0x120|            01                                 |    .           |                            x: 1 0x124-0x124.7 (1)
     |                                               |                |                          [1]{}: instr 0x125-0x126.7 (2)
0x120|               20                              |                |                            local.get: 0x20 (valid) 0x125-0x125.7 (1)
0x120|                  00                           |      .         |                            x: 0 0x126-0x126.7 (1)
     |                                               |                |                          [2]{}: instr 0x127-0x127.7 (1)
0x120|                     7e                        |       ~        |                            i64.mul: 0x7e (valid) 0x127-0x127.7 (1)
     |                                               |                |                          [3]{}: instr 0x128-0x129.7 (2)
0x120|                        21                     |        !       |                            local.set: 0x21 (valid) 0x128-0x128.7 (1)
0x120|                           01                  |         .      |                            x: 1 0x129-0x129.7 (1)
     |                                               |                |                          [4]{}: instr 0x12a-0x12b.7 (2)
0x120|                              20               |                |                            local.get: 0x20 (valid) 0x12a-0x12a.7 (1)
0x120|                                 00            |           .    |                            x: 0 0x12b-0x12b.7 (1)
     |                                               |                |                          [5]{}: instr 0x12c-0x12d.7 (2)
0x120|                                    42         |            B   |                            i64.const: 0x42 (valid) 0x12c-0x12c.7 (1)
0x120|                                       7f      |             .  |                            n: -1 0x12d-0x12d.7 (1)
     |                                               |                |                          [6]{}: instr 0x12e-0x12e.7 (1)
0x120|                                          7c   |              | |                            i64.add: 0x7c (valid) 0x12e-0x12e.7 (1)
     |                                               |                |                          [7]{}: instr 0x12f-0x130.7 (2)
0x120|                                             21|               !|                            local.set: 0x21 (valid) 0x12f-0x12f.7 (1)
0x130|00                                             |.               |                            x: 0 0x130-0x130.7 (1)
     |                                               |                |                          [8]{}: instr 0x131-0x132.7 (2)
0x130|   20                                          |                |                            local.get: 0x20 (valid) 0x131-0x131.7 (1)
0x130|      00                                       |  .             |                            x: 0 0x132-0x132.7 (1)
     |                                               |                |                          [9]{}: instr 0x133-0x134.7 (2)
0x130|         42                                    |   B            |                            i64.const: 0x42 (valid) 0x133-0x133.7 (1)
0x130|            01                                 |    .           |                            n: 1 0x134-0x134.7 (1)
     |                                               |                |                          [10]{}: instr 0x135-0x135.7 (1)
0x130|               55                              |     U          |                            i64.gt_s: 0x55 (valid) 0x135-0x135.7 (1)
     |                                               |                |                          [11]{}: instr 0x136-0x137.7 (2)
0x130|                  0d                           |      .         |                            br_if: 0xd (valid) 0x136-0x136.7 (1)
0x130|                     00                        |       .        |                            l: 0 0x137-0x137.7 (1)
0x130|                        0b                     |        .       |                        end: 11 (valid) 0x138-0x138.7 (1)
0x130|                           0b                  |         .      |                    end: 11 (valid) 0x139-0x139.7 (1)
     |                                               |                |                  [3]{}: in 0x13a-0x13b.7 (2)
0x130|                              20               |                |                    local.get: 0x20 (valid) 0x13a-0x13a.7 (1)
0x130|                                 01            |           .    |                    x: 1 0x13b-0x13b.7 (1)
     |                                               |                |                  [4]{}: in 0x13c-0x13c.7 (1)
0x130|                                    0b         |            .   |                    end: 0xb (valid) 0x13c-0x13c.7 (1)
     |                                               |                |            [5]{}: code 0x13d-0x143.7 (7)
0x130|                                       06      |             .  |              size: 6 0x13d-0x13d.7 (1)
     |                                               |                |              code{}: 0x13e-0x143.7 (6)
     |                                               |                |                t{}: 0x13e-0x13e.7 (1)
0x130|                                          00   |              . |                  n: 0 0x13e-0x13e.7 (1)
     |                                               |                |                  x[0:0]: 0x13f-NA (0)
     |                                               |                |                e[0:3]: 0x13f-0x143.7 (5)
     |                                               |                |                  [0]{}: in 0x13f-0x140.7 (2)
0x130|                                             20|                |                    local.get: 0x20 (valid) 0x13f-0x13f.7 (1)
0x140|00                                             |.               |                    x: 0 0x140-0x140.7 (1)
     |                                               |                |                  [1]{}: in 0x141-0x142.7 (2)
0x140|   20                                          |                |                    local.get: 0x20 (valid) 0x141-0x141.7 (1)
0x140|      00                                       |  .             |                    x: 0 0x142-0x142.7 (1)
     |                                               |                |                  [2]{}: in 0x143-0x143.7 (1)
0x140|         0b                                    |   .            |                    end: 0xb (valid) 0x143-0x143.7 (1)
     |                                               |                |            [6]{}: code 0x144-0x14c.7 (9)
0x140|            08                                 |    .           |              size: 8 0x144-0x144.7 (1)
     |                                               |                |              code{}: 0x145-0x14c.7 (8)
     |                                               |                |                t{}: 0x145-0x145.7 (1)
0x140|               00                              |     .          |                  n: 0 0x145-0x145.7 (1)
     |                                               |                |                  x[0:0]: 0x146-NA (0)
     |                                               |                |                e[0:4]: 0x146-0x14c.7 (7)
     |                                               |                |                  [0]{}: in 0x146-0x147.7 (2)
0x140|                  20                           |                |                    local.get: 0x20 (valid) 0x146-0x146.7 (1)
0x140|                     00                        |       .        |                    x: 0 0x147-0x147.7 (1)
     |                                               |                |                  [1]{}: in 0x148-0x149.7 (2)
0x140|                        20                     |                |                    local.get: 0x20 (valid) 0x148-0x148.7 (1)
0x140|                           01                  |         .      |                    x: 1 0x149-0x149.7 (1)
     |                                               |                |                  [2]{}: in 0x14a-0x14b.7 (2)
0x140|                              20               |                |                    local.get: 0x20 (valid) 0x14a-0x14a.7 (1)
0x140|                                 00            |           .    |                    x: 0 0x14b-0x14b.7 (1)
     |                                               |                |                  [3]{}: in 0x14c-0x14c.7 (1)
0x140|                                    0b         |            .   |                    end: 0xb (valid) 0x14c-0x14c.7 (1)
     |                                               |                |            [7]{}: code 0x14d-0x169.7 (29)
0x140|                                       1c      |             .  |              size: 28 0x14d-0x14d.7 (1)
     |                                               |                |              code{}: 0x14e-0x169.7 (28)
     |                                               |                |                t{}: 0x14e-0x14e.7 (1)
0x140|                                          00   |              . |                  n: 0 0x14e-0x14e.7 (1)
     |                                               |                |                  x[0:0]: 0x14f-NA (0)
     |                                               |                |                e[0:4]: 0x14f-0x169.7 (27)
     |                                               |                |                  [0]{}: in 0x14f-0x150.7 (2)
0x140|                                             42|               B|                    i64.const: 0x42 (valid) 0x14f-0x14f.7 (1)
0x150|01                                             |.               |                    n: 1 0x150-0x150.7 (1)
     |                                               |                |                  [1]{}: in 0x151-0x152.7 (2)
0x150|   20                                          |                |                    local.get: 0x20 (valid) 0x151-0x151.7 (1)
0x150|      00                                       |  .             |                    x: 0 0x152-0x152.7 (1)
     |                                               |                |                  [2]{}: in 0x153-0x168.7 (22)
0x150|         03                                    |   .            |                    loop: 0x3 (valid) 0x153-0x153.7 (1)
0x150|            03                                 |    .           |                    bt: 3 0x154-0x154.7 (1)
     |                                               |                |                    instructions[0:12]: 0x155-0x167.7 (19)
     |                                               |                |                      [0]{}: instr 0x155-0x156.7 (2)
0x150|               10                              |     .          |                        call: 0x10 (valid) 0x155-0x155.7 (1)
0x150|                  06                           |      .         |                        x: 6 0x156-0x156.7 (1)
     |                                               |                |                      [1]{}: instr 0x157-0x158.7 (2)
0x150|                     10                        |       .        |                        call: 0x10 (valid) 0x157-0x157.7 (1)
0x150|                        06                     |        .       |                        x: 6 0x158-0x158.7 (1)
     |                                               |                |                      [2]{}: instr 0x159-0x159.7 (1)
0x150|                           7e                  |         ~      |                        i64.mul: 0x7e (valid) 0x159-0x159.7 (1)
     |                                               |                |                      [3]{}: instr 0x15a-0x15b.7 (2)
0x150|                              10               |          .     |                        call: 0x10 (valid) 0x15a-0x15a.7 (1)
0x150|                                 06            |           .    |                        x: 6 0x15b-0x15b.7 (1)
     |                                               |                |                      [4]{}: instr 0x15c-0x15d.7 (2)
0x150|                                    42         |            B   |                        i64.const: 0x42 (valid) 0x15c-0x15c.7 (1)
0x150|                                       01      |             .  |                        n: 1 0x15d-0x15d.7 (1)
     |                                               |                |                      [5]{}: instr 0x15e-0x15e.7 (1)
0x150|                                          7d   |              } |                        i64.sub: 0x7d (valid) 0x15e-0x15e.7 (1)
     |                                               |                |                      [6]{}: instr 0x15f-0x160.7 (2)
0x150|                                             10|               .|                        call: 0x10 (valid) 0x15f-0x15f.7 (1)
0x160|05                                             |.               |                        x: 5 0x160-0x160.7 (1)
     |                                               |                |                      [7]{}: instr 0x161-0x162.7 (2)
0x160|   42                                          | B              |                        i64.const: 0x42 (valid) 0x161-0x161.7 (1)
0x160|      00                                       |  .             |                        n: 0 0x162-0x162.7 (1)
     |                                               |                |                      [8]{}: instr 0x163-0x163.7 (1)
0x160|         56                                    |   V            |                        i64.gt_u: 0x56 (valid) 0x163-0x163.7 (1)
     |                                               |                |                      [9]{}: instr 0x164-0x165.7 (2)
0x160|            0d                                 |    .           |                        br_if: 0xd (valid) 0x164-0x164.7 (1)
0x160|               00                              |     .          |                        l: 0 0x165-0x165.7 (1)
     |                                               |                |                      [10]{}: instr 0x166-0x166.7 (1)
0x160|                  1a                           |      .         |                        drop: 0x1a (valid) 0x166-0x166.7 (1)
     |                                               |                |                      [11]{}: instr 0x167-0x167.7 (1)
0x160|                     0f                        |       .        |                        return: 0xf (valid) 0x167-0x167.7 (1)
0x160|                        0b                     |        .       |                    end: 11 (valid) 0x168-0x168.7 (1)
     |                                               |                |                  [3]{}: in 0x169-0x169.7 (1)
0x160|                           0b|                 |         .|     |                    end: 0xb (valid) 0x169-0x169.7 (1)
