$ fq -d wasm dv float_exprs-77.wasm
    |00 01 02 03 04 05 06 07 08 09 0a 0b 0c 0d 0e 0f|0123456789abcdef|.{}: float_exprs-77.wasm (wasm) 0x0-0x79.7 (122)
0x00|00 61 73 6d                                    |.asm            |  magic: raw bits (valid) 0x0-0x3.7 (4)
0x00|            01 00 00 00                        |    ....        |  version: 1 0x4-0x7.7 (4)
    |                                               |                |  sections[0:4]: 0x8-0x79.7 (114)
    |                                               |                |    [0]{}: section 0x8-0x18.7 (17)
0x00|                        01                     |        .       |      id: "type section" (1) 0x8-0x8.7 (1)
0x00|                           0f                  |         .      |      size: 15 0x9-0x9.7 (1)
    |                                               |                |      content{}: 0xa-0x18.7 (15)
    |                                               |                |        ft{}: 0xa-0x18.7 (15)
0x00|                              02               |          .     |          n: 2 0xa-0xa.7 (1)
    |                                               |                |          x[0:2]: 0xb-0x18.7 (14)
    |                                               |                |            [0]{}: ft 0xb-0x11.7 (7)
0x00|                                 60            |           `    |              tag: 0x60 (valid) 0xb-0xb.7 (1)
    |                                               |                |              rt1{}: 0xc-0xf.7 (4)
0x00|                                    03         |            .   |                n: 3 0xc-0xc.7 (1)
    |                                               |                |                x[0:3]: 0xd-0xf.7 (3)
0x00|                                       7d      |             }  |                  [0]: "f32" (0x7d) t 0xd-0xd.7 (1)
0x00|                                          7d   |              } |                  [1]: "f32" (0x7d) t 0xe-0xe.7 (1)
0x00|                                             7d|               }|                  [2]: "f32" (0x7d) t 0xf-0xf.7 (1)
    |                                               |                |              rt2{}: 0x10-0x11.7 (2)
0x10|01                                             |.               |                n: 1 0x10-0x10.7 (1)
    |                                               |                |                x[0:1]: 0x11-0x11.7 (1)
0x10|   7f                                          | .              |                  [0]: "i32" (0x7f) t 0x11-0x11.7 (1)
    |                                               |                |            [1]{}: ft 0x12-0x18.7 (7)
0x10|      60                                       |  `             |              tag: 0x60 (valid) 0x12-0x12.7 (1)
    |                                               |                |              rt1{}: 0x13-0x16.7 (4)
0x10|         03                                    |   .            |                n: 3 0x13-0x13.7 (1)
    |                                               |                |                x[0:3]: 0x14-0x16.7 (3)
0x10|            7c                                 |    |           |                  [0]: "f64" (0x7c) t 0x14-0x14.7 (1)
0x10|               7c                              |     |          |                  [1]: "f64" (0x7c) t 0x15-0x15.7 (1)
0x10|                  7c                           |      |         |                  [2]: "f64" (0x7c) t 0x16-0x16.7 (1)
    |                                               |                |              rt2{}: 0x17-0x18.7 (2)
0x10|                     01                        |       .        |                n: 1 0x17-0x17.7 (1)
    |                                               |                |                x[0:1]: 0x18-0x18.7 (1)
0x10|                        7f                     |        .       |                  [0]: "i32" (0x7f) t 0x18-0x18.7 (1)
    |                                               |                |    [1]{}: section 0x19-0x1d.7 (5)
0x10|                           03                  |         .      |      id: "function section" (3) 0x19-0x19.7 (1)
0x10|                              03               |          .     |      size: 3 0x1a-0x1a.7 (1)
    |                                               |                |      content{}: 0x1b-0x1d.7 (3)
    |                                               |                |        x{}: 0x1b-0x1d.7 (3)
0x10|                                 02            |           .    |          n: 2 0x1b-0x1b.7 (1)
    |                                               |                |          x[0:2]: 0x1c-0x1d.7 (2)
0x10|                                    00         |            .   |            [0]: 0 x 0x1c-0x1c.7 (1)
0x10|                                       01      |             .  |            [1]: 1 x 0x1d-0x1d.7 (1)
    |                                               |                |    [2]{}: section 0x1e-0x60.7 (67)
0x10|                                          07   |              . |      id: "export section" (7) 0x1e-0x1e.7 (1)
0x10|                                             41|               A|      size: 65 0x1f-0x1f.7 (1)
    |                                               |                |      content{}: 0x20-0x60.7 (65)
    |                                               |                |        ex{}: 0x20-0x60.7 (65)
0x20|02                                             |.               |          n: 2 0x20-0x20.7 (1)
    |                                               |                |          x[0:2]: 0x21-0x60.7 (64)
    |                                               |                |            [0]{}: ex 0x21-0x40.7 (32)
    |                                               |                |              nm{}: 0x21-0x3e.7 (30)
0x20|   1d                                          | .              |                n: 29 0x21-0x21.7 (1)
0x20|      66 33 32 2e 6e 6f 5f 65 78 74 65 6e 64 65|  f32.no_extende|                b: "f32.no_extended_precision_div" 0x22-0x3e.7 (29)
0x30|64 5f 70 72 65 63 69 73 69 6f 6e 5f 64 69 76   |d_precision_div |
    |                                               |                |              d{}: 0x3f-0x40.7 (2)
0x30|                                             00|               .|                tag: "funcidx" (0x0) 0x3f-0x3f.7 (1)
0x40|00                                             |.               |                x: 0 0x40-0x40.7 (1)
    |                                               |                |            [1]{}: ex 0x41-0x60.7 (32)
    |                                               |                |              nm{}: 0x41-0x5e.7 (30)
0x40|   1d                                          | .              |                n: 29 0x41-0x41.7 (1)
0x40|      66 36 34 2e 6e 6f 5f 65 78 74 65 6e 64 65|  f64.no_extende|                b: "f64.no_extended_precision_div" 0x42-0x5e.7 (29)
0x50|64 5f 70 72 65 63 69 73 69 6f 6e 5f 64 69 76   |d_precision_div |
    |                                               |                |              d{}: 0x5f-0x60.7 (2)
0x50|                                             00|               .|                tag: "funcidx" (0x0) 0x5f-0x5f.7 (1)
0x60|01                                             |.               |                x: 1 0x60-0x60.7 (1)
    |                                               |                |    [3]{}: section 0x61-0x79.7 (25)
0x60|   0a                                          | .              |      id: "code section" (10) 0x61-0x61.7 (1)
0x60|      17                                       |  .             |      size: 23 0x62-0x62.7 (1)
    |                                               |                |      content{}: 0x63-0x79.7 (23)
    |                                               |                |        code{}: 0x63-0x79.7 (23)
0x60|         02                                    |   .            |          n: 2 0x63-0x63.7 (1)
    |                                               |                |          x[0:2]: 0x64-0x79.7 (22)
    |                                               |                |            [0]{}: code 0x64-0x6e.7 (11)
0x60|            0a                                 |    .           |              size: 10 0x64-0x64.7 (1)
    |                                               |                |              code{}: 0x65-0x6e.7 (10)
    |                                               |                |                t{}: 0x65-0x65.7 (1)
0x60|               00                              |     .          |                  n: 0 0x65-0x65.7 (1)
    |                                               |                |                  x[0:0]: 0x66-NA (0)
    |                                               |                |                e[0:6]: 0x66-0x6e.7 (9)
    |                                               |                |                  [0]{}: in 0x66-0x67.7 (2)
0x60|                  20                           |                |                    local.get: 0x20 (valid) 0x66-0x66.7 (1)
0x60|                     00                        |       .        |                    x: 0 0x67-0x67.7 (1)
    |                                               |                |                  [1]{}: in 0x68-0x69.7 (2)
0x60|                        20                     |                |                    local.get: 0x20 (valid) 0x68-0x68.7 (1)
0x60|                           01                  |         .      |                    x: 1 0x69-0x69.7 (1)
    |                                               |                |                  [2]{}: in 0x6a-0x6a.7 (1)
0x60|                              95               |          .     |                    f32.div: 0x95 (valid) 0x6a-0x6a.7 (1)
    |                                               |                |                  [3]{}: in 0x6b-0x6c.7 (2)
0x60|                                 20            |                |                    local.get: 0x20 (valid) 0x6b-0x6b.7 (1)
0x60|                                    02         |            .   |                    x: 2 0x6c-0x6c.7 (1)
    |                                               |                |                  [4]{}: in 0x6d-0x6d.7 (1)
0x60|                                       5b      |             [  |                    f32.eq: 0x5b (valid) 0x6d-0x6d.7 (1)
    |                                               |                |                  [5]{}: in 0x6e-0x6e.7 (1)
0x60|                                          0b   |              . |                    end: 0xb (valid) 0x6e-0x6e.7 (1)
    |                                               |                |            [1]{}: code 0x6f-0x79.7 (11)
0x60|                                             0a|               .|              size: 10 0x6f-0x6f.7 (1)
    |                                               |                |              code{}: 0x70-0x79.7 (10)
    |                                               |                |                t{}: 0x70-0x70.7 (1)
0x70|00                                             |.               |                  n: 0 0x70-0x70.7 (1)
    |                                               |                |                  x[0:0]: 0x71-NA (0)
    |                                               |                |                e[0:6]: 0x71-0x79.7 (9)
    |                                               |                |                  [0]{}: in 0x71-0x72.7 (2)
0x70|   20                                          |                |                    local.get: 0x20 (valid) 0x71-0x71.7 (1)
0x70|      00                                       |  .             |                    x: 0 0x72-0x72.7 (1)
    |                                               |                |                  [1]{}: in 0x73-0x74.7 (2)
0x70|         20                                    |                |                    local.get: 0x20 (valid) 0x73-0x73.7 (1)
0x70|            01                                 |    .           |                    x: 1 0x74-0x74.7 (1)
    |                                               |                |                  [2]{}: in 0x75-0x75.7 (1)
0x70|               a3                              |     .          |                    f64.div: 0xa3 (valid) 0x75-0x75.7 (1)
    |                                               |                |                  [3]{}: in 0x76-0x77.7 (2)
0x70|                  20                           |                |                    local.get: 0x20 (valid) 0x76-0x76.7 (1)
0x70|                     02                        |       .        |                    x: 2 0x77-0x77.7 (1)
    |                                               |                |                  [4]{}: in 0x78-0x78.7 (1)
0x70|                        61                     |        a       |                    f64.eq: 0x61 (valid) 0x78-0x78.7 (1)
    |                                               |                |                  [5]{}: in 0x79-0x79.7 (1)
0x70|                           0b|                 |         .|     |                    end: 0xb (valid) 0x79-0x79.7 (1)
