$ fq -d wasm dv float_exprs-92.wasm
    |00 01 02 03 04 05 06 07 08 09 0a 0b 0c 0d 0e 0f|0123456789abcdef|.{}: float_exprs-92.wasm (wasm) 0x0-0x7e (126)
0x00|00 61 73 6d                                    |.asm            |  magic: raw bits (valid) 0x0-0x4 (4)
0x00|            01 00 00 00                        |    ....        |  version: 1 0x4-0x8 (4)
    |                                               |                |  sections[0:4]: 0x8-0x7e (118)
    |                                               |                |    [0]{}: section 0x8-0x15 (13)
0x00|                        01                     |        .       |      id: "type_section" (1) 0x8-0x9 (1)
0x00|                           0b                  |         .      |      size: 11 (valid) 0x9-0xa (1)
    |                                               |                |      content{}: 0xa-0x15 (11)
    |                                               |                |        ft{}: 0xa-0x15 (11)
0x00|                              02               |          .     |          n: 2 (valid) 0xa-0xb (1)
    |                                               |                |          x[0:2]: 0xb-0x15 (10)
    |                                               |                |            [0]{}: ft 0xb-0x10 (5)
0x00|                                 60            |           `    |              tag: 0x60 (valid) 0xb-0xc (1)
    |                                               |                |              rt1{}: 0xc-0xe (2)
0x00|                                    01         |            .   |                n: 1 (valid) 0xc-0xd (1)
    |                                               |                |                x[0:1]: 0xd-0xe (1)
0x00|                                       7d      |             }  |                  [0]: "f32" (0x7d) t 0xd-0xe (1)
    |                                               |                |              rt2{}: 0xe-0x10 (2)
0x00|                                          01   |              . |                n: 1 (valid) 0xe-0xf (1)
    |                                               |                |                x[0:1]: 0xf-0x10 (1)
0x00|                                             7d|               }|                  [0]: "f32" (0x7d) t 0xf-0x10 (1)
    |                                               |                |            [1]{}: ft 0x10-0x15 (5)
0x10|60                                             |`               |              tag: 0x60 (valid) 0x10-0x11 (1)
    |                                               |                |              rt1{}: 0x11-0x13 (2)
0x10|   01                                          | .              |                n: 1 (valid) 0x11-0x12 (1)
    |                                               |                |                x[0:1]: 0x12-0x13 (1)
0x10|      7c                                       |  |             |                  [0]: "f64" (0x7c) t 0x12-0x13 (1)
    |                                               |                |              rt2{}: 0x13-0x15 (2)
0x10|         01                                    |   .            |                n: 1 (valid) 0x13-0x14 (1)
    |                                               |                |                x[0:1]: 0x14-0x15 (1)
0x10|            7c                                 |    |           |                  [0]: "f64" (0x7c) t 0x14-0x15 (1)
    |                                               |                |    [1]{}: section 0x15-0x1a (5)
0x10|               03                              |     .          |      id: "function_section" (3) 0x15-0x16 (1)
0x10|                  03                           |      .         |      size: 3 (valid) 0x16-0x17 (1)
    |                                               |                |      content{}: 0x17-0x1a (3)
    |                                               |                |        x{}: 0x17-0x1a (3)
0x10|                     02                        |       .        |          n: 2 (valid) 0x17-0x18 (1)
    |                                               |                |          x[0:2]: 0x18-0x1a (2)
0x10|                        00                     |        .       |            [0]: 0 x (valid) 0x18-0x19 (1)
0x10|                           01                  |         .      |            [1]: 1 x (valid) 0x19-0x1a (1)
    |                                               |                |    [2]{}: section 0x1a-0x43 (41)
0x10|                              07               |          .     |      id: "export_section" (7) 0x1a-0x1b (1)
0x10|                                 27            |           '    |      size: 39 (valid) 0x1b-0x1c (1)
    |                                               |                |      content{}: 0x1c-0x43 (39)
    |                                               |                |        ex{}: 0x1c-0x43 (39)
0x10|                                    02         |            .   |          n: 2 (valid) 0x1c-0x1d (1)
    |                                               |                |          x[0:2]: 0x1d-0x43 (38)
    |                                               |                |            [0]{}: ex 0x1d-0x30 (19)
    |                                               |                |              nm{}: 0x1d-0x2e (17)
0x10|                                       10      |             .  |                n: 16 (valid) 0x1d-0x1e (1)
0x10|                                          66 33|              f3|                b: "f32.silver_means" 0x1e-0x2e (16)
0x20|32 2e 73 69 6c 76 65 72 5f 6d 65 61 6e 73      |2.silver_means  |
    |                                               |                |              d{}: 0x2e-0x30 (2)
0x20|                                          00   |              . |                tag: "funcidx" (0x0) 0x2e-0x2f (1)
0x20|                                             00|               .|                x: 0 (valid) 0x2f-0x30 (1)
    |                                               |                |            [1]{}: ex 0x30-0x43 (19)
    |                                               |                |              nm{}: 0x30-0x41 (17)
0x30|10                                             |.               |                n: 16 (valid) 0x30-0x31 (1)
0x30|   66 36 34 2e 73 69 6c 76 65 72 5f 6d 65 61 6e| f64.silver_mean|                b: "f64.silver_means" 0x31-0x41 (16)
0x40|73                                             |s               |
    |                                               |                |              d{}: 0x41-0x43 (2)
0x40|   00                                          | .              |                tag: "funcidx" (0x0) 0x41-0x42 (1)
0x40|      01                                       |  .             |                x: 1 (valid) 0x42-0x43 (1)
    |                                               |                |    [3]{}: section 0x43-0x7e (59)
0x40|         0a                                    |   .            |      id: "code_section" (10) 0x43-0x44 (1)
0x40|            39                                 |    9           |      size: 57 (valid) 0x44-0x45 (1)
    |                                               |                |      content{}: 0x45-0x7e (57)
    |                                               |                |        code{}: 0x45-0x7e (57)
0x40|               02                              |     .          |          n: 2 (valid) 0x45-0x46 (1)
    |                                               |                |          x[0:2]: 0x46-0x7e (56)
    |                                               |                |            [0]{}: code 0x46-0x5e (24)
0x40|                  17                           |      .         |              size: 23 (valid) 0x46-0x47 (1)
    |                                               |                |              code{}: 0x47-0x5e (23)
    |                                               |                |                t{}: 0x47-0x48 (1)
0x40|                     00                        |       .        |                  n: 0 (valid) 0x47-0x48 (1)
    |                                               |                |                  x[0:0]: 0x48-0x48 (0)
    |                                               |                |                e[0:11]: 0x48-0x5e (22)
    |                                               |                |                  [0]{}: in 0x48-0x4d (5)
0x40|                        43                     |        C       |                    opcode: "f32.const" (0x43) 0x48-0x49 (1)
0x40|                           00 00 00 3f         |         ...?   |                    z: 0.5 0x49-0x4d (4)
    |                                               |                |                  [1]{}: in 0x4d-0x4f (2)
0x40|                                       20      |                |                    opcode: "local.get" (0x20) 0x4d-0x4e (1)
0x40|                                          00   |              . |                    x: 0 (valid) 0x4e-0x4f (1)
    |                                               |                |                  [2]{}: in 0x4f-0x51 (2)
0x40|                                             20|                |                    opcode: "local.get" (0x20) 0x4f-0x50 (1)
0x50|00                                             |.               |                    x: 0 (valid) 0x50-0x51 (1)
    |                                               |                |                  [3]{}: in 0x51-0x53 (2)
0x50|   20                                          |                |                    opcode: "local.get" (0x20) 0x51-0x52 (1)
0x50|      00                                       |  .             |                    x: 0 (valid) 0x52-0x53 (1)
    |                                               |                |                  [4]{}: in 0x53-0x54 (1)
0x50|         94                                    |   .            |                    opcode: "f32.mul" (0x94) 0x53-0x54 (1)
    |                                               |                |                  [5]{}: in 0x54-0x59 (5)
0x50|            43                                 |    C           |                    opcode: "f32.const" (0x43) 0x54-0x55 (1)
0x50|               00 00 80 40                     |     ...@       |                    z: 4 0x55-0x59 (4)
    |                                               |                |                  [6]{}: in 0x59-0x5a (1)
0x50|                           92                  |         .      |                    opcode: "f32.add" (0x92) 0x59-0x5a (1)
    |                                               |                |                  [7]{}: in 0x5a-0x5b (1)
0x50|                              91               |          .     |                    opcode: "f32.sqrt" (0x91) 0x5a-0x5b (1)
    |                                               |                |                  [8]{}: in 0x5b-0x5c (1)
0x50|                                 92            |           .    |                    opcode: "f32.add" (0x92) 0x5b-0x5c (1)
    |                                               |                |                  [9]{}: in 0x5c-0x5d (1)
0x50|                                    94         |            .   |                    opcode: "f32.mul" (0x94) 0x5c-0x5d (1)
    |                                               |                |                  [10]{}: in 0x5d-0x5e (1)
0x50|                                       0b      |             .  |                    opcode: "end" (0xb) 0x5d-0x5e (1)
    |                                               |                |            [1]{}: code 0x5e-0x7e (32)
0x50|                                          1f   |              . |              size: 31 (valid) 0x5e-0x5f (1)
    |                                               |                |              code{}: 0x5f-0x7e (31)
    |                                               |                |                t{}: 0x5f-0x60 (1)
0x50|                                             00|               .|                  n: 0 (valid) 0x5f-0x60 (1)
    |                                               |                |                  x[0:0]: 0x60-0x60 (0)
    |                                               |                |                e[0:11]: 0x60-0x7e (30)
    |                                               |                |                  [0]{}: in 0x60-0x69 (9)
0x60|44                                             |D               |                    opcode: "f64.const" (0x44) 0x60-0x61 (1)
0x60|   00 00 00 00 00 00 e0 3f                     | .......?       |                    z: 0.5 0x61-0x69 (8)
    |                                               |                |                  [1]{}: in 0x69-0x6b (2)
0x60|                           20                  |                |                    opcode: "local.get" (0x20) 0x69-0x6a (1)
0x60|                              00               |          .     |                    x: 0 (valid) 0x6a-0x6b (1)
    |                                               |                |                  [2]{}: in 0x6b-0x6d (2)
0x60|                                 20            |                |                    opcode: "local.get" (0x20) 0x6b-0x6c (1)
0x60|                                    00         |            .   |                    x: 0 (valid) 0x6c-0x6d (1)
    |                                               |                |                  [3]{}: in 0x6d-0x6f (2)
0x60|                                       20      |                |                    opcode: "local.get" (0x20) 0x6d-0x6e (1)
0x60|                                          00   |              . |                    x: 0 (valid) 0x6e-0x6f (1)
    |                                               |                |                  [4]{}: in 0x6f-0x70 (1)
0x60|                                             a2|               .|                    opcode: "f64.mul" (0xa2) 0x6f-0x70 (1)
    |                                               |                |                  [5]{}: in 0x70-0x79 (9)
0x70|44                                             |D               |                    opcode: "f64.const" (0x44) 0x70-0x71 (1)
0x70|   00 00 00 00 00 00 10 40                     | .......@       |                    z: 4 0x71-0x79 (8)
    |                                               |                |                  [6]{}: in 0x79-0x7a (1)
0x70|                           a0                  |         .      |                    opcode: "f64.add" (0xa0) 0x79-0x7a (1)
    |                                               |                |                  [7]{}: in 0x7a-0x7b (1)
0x70|                              9f               |          .     |                    opcode: "f64.sqrt" (0x9f) 0x7a-0x7b (1)
    |                                               |                |                  [8]{}: in 0x7b-0x7c (1)
0x70|                                 a0            |           .    |                    opcode: "f64.add" (0xa0) 0x7b-0x7c (1)
    |                                               |                |                  [9]{}: in 0x7c-0x7d (1)
0x70|                                    a2         |            .   |                    opcode: "f64.mul" (0xa2) 0x7c-0x7d (1)
    |                                               |                |                  [10]{}: in 0x7d-0x7e (1)
0x70|                                       0b|     |             .| |                    opcode: "end" (0xb) 0x7d-0x7e (1)
