$ fq -d wasm dv float_exprs-69.wasm
    |00 01 02 03 04 05 06 07 08 09 0a 0b 0c 0d 0e 0f|0123456789abcdef|.{}: float_exprs-69.wasm (wasm) 0x0-0x70 (112)
0x00|00 61 73 6d                                    |.asm            |  magic: raw bits (valid) 0x0-0x4 (4)
0x00|            01 00 00 00                        |    ....        |  version: 1 0x4-0x8 (4)
    |                                               |                |  sections[0:4]: 0x8-0x70 (104)
    |                                               |                |    [0]{}: section 0x8-0x1b (19)
0x00|                        01                     |        .       |      id: "type_section" (1) 0x8-0x9 (1)
0x00|                           11                  |         .      |      size: 17 (valid) 0x9-0xa (1)
    |                                               |                |      content{}: 0xa-0x1b (17)
    |                                               |                |        ft{}: 0xa-0x1b (17)
0x00|                              02               |          .     |          n: 2 (valid) 0xa-0xb (1)
    |                                               |                |          x[0:2]: 0xb-0x1b (16)
    |                                               |                |            [0]{}: ft 0xb-0x13 (8)
0x00|                                 60            |           `    |              tag: 0x60 (valid) 0xb-0xc (1)
    |                                               |                |              rt1{}: 0xc-0x11 (5)
0x00|                                    04         |            .   |                n: 4 (valid) 0xc-0xd (1)
    |                                               |                |                x[0:4]: 0xd-0x11 (4)
0x00|                                       7d      |             }  |                  [0]: "f32" (0x7d) t 0xd-0xe (1)
0x00|                                          7d   |              } |                  [1]: "f32" (0x7d) t 0xe-0xf (1)
0x00|                                             7d|               }|                  [2]: "f32" (0x7d) t 0xf-0x10 (1)
0x10|7d                                             |}               |                  [3]: "f32" (0x7d) t 0x10-0x11 (1)
    |                                               |                |              rt2{}: 0x11-0x13 (2)
0x10|   01                                          | .              |                n: 1 (valid) 0x11-0x12 (1)
    |                                               |                |                x[0:1]: 0x12-0x13 (1)
0x10|      7d                                       |  }             |                  [0]: "f32" (0x7d) t 0x12-0x13 (1)
    |                                               |                |            [1]{}: ft 0x13-0x1b (8)
0x10|         60                                    |   `            |              tag: 0x60 (valid) 0x13-0x14 (1)
    |                                               |                |              rt1{}: 0x14-0x19 (5)
0x10|            04                                 |    .           |                n: 4 (valid) 0x14-0x15 (1)
    |                                               |                |                x[0:4]: 0x15-0x19 (4)
0x10|               7c                              |     |          |                  [0]: "f64" (0x7c) t 0x15-0x16 (1)
0x10|                  7c                           |      |         |                  [1]: "f64" (0x7c) t 0x16-0x17 (1)
0x10|                     7c                        |       |        |                  [2]: "f64" (0x7c) t 0x17-0x18 (1)
0x10|                        7c                     |        |       |                  [3]: "f64" (0x7c) t 0x18-0x19 (1)
    |                                               |                |              rt2{}: 0x19-0x1b (2)
0x10|                           01                  |         .      |                n: 1 (valid) 0x19-0x1a (1)
    |                                               |                |                x[0:1]: 0x1a-0x1b (1)
0x10|                              7c               |          |     |                  [0]: "f64" (0x7c) t 0x1a-0x1b (1)
    |                                               |                |    [1]{}: section 0x1b-0x20 (5)
0x10|                                 03            |           .    |      id: "function_section" (3) 0x1b-0x1c (1)
0x10|                                    03         |            .   |      size: 3 (valid) 0x1c-0x1d (1)
    |                                               |                |      content{}: 0x1d-0x20 (3)
    |                                               |                |        x{}: 0x1d-0x20 (3)
0x10|                                       02      |             .  |          n: 2 (valid) 0x1d-0x1e (1)
    |                                               |                |          x[0:2]: 0x1e-0x20 (2)
0x10|                                          00   |              . |            [0]: 0 x (valid) 0x1e-0x1f (1)
0x10|                                             01|               .|            [1]: 1 x (valid) 0x1f-0x20 (1)
    |                                               |                |    [2]{}: section 0x20-0x51 (49)
0x20|07                                             |.               |      id: "export_section" (7) 0x20-0x21 (1)
0x20|   2f                                          | /              |      size: 47 (valid) 0x21-0x22 (1)
    |                                               |                |      content{}: 0x22-0x51 (47)
    |                                               |                |        ex{}: 0x22-0x51 (47)
0x20|      02                                       |  .             |          n: 2 (valid) 0x22-0x23 (1)
    |                                               |                |          x[0:2]: 0x23-0x51 (46)
    |                                               |                |            [0]{}: ex 0x23-0x3a (23)
    |                                               |                |              nm{}: 0x23-0x38 (21)
0x20|         14                                    |   .            |                n: 20 (valid) 0x23-0x24 (1)
0x20|            66 33 32 2e 6e 6f 5f 66 6f 6c 64 5f|    f32.no_fold_|                b: "f32.no_fold_mul_divs" 0x24-0x38 (20)
0x30|6d 75 6c 5f 64 69 76 73                        |mul_divs        |
    |                                               |                |              d{}: 0x38-0x3a (2)
0x30|                        00                     |        .       |                tag: "funcidx" (0x0) 0x38-0x39 (1)
0x30|                           00                  |         .      |                x: 0 (valid) 0x39-0x3a (1)
    |                                               |                |            [1]{}: ex 0x3a-0x51 (23)
    |                                               |                |              nm{}: 0x3a-0x4f (21)
0x30|                              14               |          .     |                n: 20 (valid) 0x3a-0x3b (1)
0x30|                                 66 36 34 2e 6e|           f64.n|                b: "f64.no_fold_mul_divs" 0x3b-0x4f (20)
0x40|6f 5f 66 6f 6c 64 5f 6d 75 6c 5f 64 69 76 73   |o_fold_mul_divs |
    |                                               |                |              d{}: 0x4f-0x51 (2)
0x40|                                             00|               .|                tag: "funcidx" (0x0) 0x4f-0x50 (1)
0x50|01                                             |.               |                x: 1 (valid) 0x50-0x51 (1)
    |                                               |                |    [3]{}: section 0x51-0x70 (31)
0x50|   0a                                          | .              |      id: "code_section" (10) 0x51-0x52 (1)
0x50|      1d                                       |  .             |      size: 29 (valid) 0x52-0x53 (1)
    |                                               |                |      content{}: 0x53-0x70 (29)
    |                                               |                |        code{}: 0x53-0x70 (29)
0x50|         02                                    |   .            |          n: 2 (valid) 0x53-0x54 (1)
    |                                               |                |          x[0:2]: 0x54-0x70 (28)
    |                                               |                |            [0]{}: code 0x54-0x62 (14)
0x50|            0d                                 |    .           |              size: 13 (valid) 0x54-0x55 (1)
    |                                               |                |              code{}: 0x55-0x62 (13)
    |                                               |                |                t{}: 0x55-0x56 (1)
0x50|               00                              |     .          |                  n: 0 (valid) 0x55-0x56 (1)
    |                                               |                |                  x[0:0]: 0x56-0x56 (0)
    |                                               |                |                e[0:8]: 0x56-0x62 (12)
    |                                               |                |                  [0]{}: in 0x56-0x58 (2)
0x50|                  20                           |                |                    opcode: "local.get" (0x20) 0x56-0x57 (1)
0x50|                     00                        |       .        |                    x: 0 (valid) 0x57-0x58 (1)
    |                                               |                |                  [1]{}: in 0x58-0x5a (2)
0x50|                        20                     |                |                    opcode: "local.get" (0x20) 0x58-0x59 (1)
0x50|                           01                  |         .      |                    x: 1 (valid) 0x59-0x5a (1)
    |                                               |                |                  [2]{}: in 0x5a-0x5b (1)
0x50|                              95               |          .     |                    opcode: "f32.div" (0x95) 0x5a-0x5b (1)
    |                                               |                |                  [3]{}: in 0x5b-0x5d (2)
0x50|                                 20            |                |                    opcode: "local.get" (0x20) 0x5b-0x5c (1)
0x50|                                    02         |            .   |                    x: 2 (valid) 0x5c-0x5d (1)
    |                                               |                |                  [4]{}: in 0x5d-0x5f (2)
0x50|                                       20      |                |                    opcode: "local.get" (0x20) 0x5d-0x5e (1)
0x50|                                          03   |              . |                    x: 3 (valid) 0x5e-0x5f (1)
    |                                               |                |                  [5]{}: in 0x5f-0x60 (1)
0x50|                                             95|               .|                    opcode: "f32.div" (0x95) 0x5f-0x60 (1)
    |                                               |                |                  [6]{}: in 0x60-0x61 (1)
0x60|94                                             |.               |                    opcode: "f32.mul" (0x94) 0x60-0x61 (1)
    |                                               |                |                  [7]{}: in 0x61-0x62 (1)
0x60|   0b                                          | .              |                    opcode: "end" (0xb) 0x61-0x62 (1)
    |                                               |                |            [1]{}: code 0x62-0x70 (14)
0x60|      0d                                       |  .             |              size: 13 (valid) 0x62-0x63 (1)
    |                                               |                |              code{}: 0x63-0x70 (13)
    |                                               |                |                t{}: 0x63-0x64 (1)
0x60|         00                                    |   .            |                  n: 0 (valid) 0x63-0x64 (1)
    |                                               |                |                  x[0:0]: 0x64-0x64 (0)
    |                                               |                |                e[0:8]: 0x64-0x70 (12)
    |                                               |                |                  [0]{}: in 0x64-0x66 (2)
0x60|            20                                 |                |                    opcode: "local.get" (0x20) 0x64-0x65 (1)
0x60|               00                              |     .          |                    x: 0 (valid) 0x65-0x66 (1)
    |                                               |                |                  [1]{}: in 0x66-0x68 (2)
0x60|                  20                           |                |                    opcode: "local.get" (0x20) 0x66-0x67 (1)
0x60|                     01                        |       .        |                    x: 1 (valid) 0x67-0x68 (1)
    |                                               |                |                  [2]{}: in 0x68-0x69 (1)
0x60|                        a3                     |        .       |                    opcode: "f64.div" (0xa3) 0x68-0x69 (1)
    |                                               |                |                  [3]{}: in 0x69-0x6b (2)
0x60|                           20                  |                |                    opcode: "local.get" (0x20) 0x69-0x6a (1)
0x60|                              02               |          .     |                    x: 2 (valid) 0x6a-0x6b (1)
    |                                               |                |                  [4]{}: in 0x6b-0x6d (2)
0x60|                                 20            |                |                    opcode: "local.get" (0x20) 0x6b-0x6c (1)
0x60|                                    03         |            .   |                    x: 3 (valid) 0x6c-0x6d (1)
    |                                               |                |                  [5]{}: in 0x6d-0x6e (1)
0x60|                                       a3      |             .  |                    opcode: "f64.div" (0xa3) 0x6d-0x6e (1)
    |                                               |                |                  [6]{}: in 0x6e-0x6f (1)
0x60|                                          a2   |              . |                    opcode: "f64.mul" (0xa2) 0x6e-0x6f (1)
    |                                               |                |                  [7]{}: in 0x6f-0x70 (1)
0x60|                                             0b|               .|                    opcode: "end" (0xb) 0x6f-0x70 (1)
