$ fq -d wasm dv float_exprs-75.wasm
    |00 01 02 03 04 05 06 07 08 09 0a 0b 0c 0d 0e 0f|0123456789abcdef|.{}: float_exprs-75.wasm (wasm) 0x0-0x86 (134)
0x00|00 61 73 6d                                    |.asm            |  magic: raw bits (valid) 0x0-0x4 (4)
0x00|            01 00 00 00                        |    ....        |  version: 1 0x4-0x8 (4)
    |                                               |                |  sections[0:4]: 0x8-0x86 (126)
    |                                               |                |    [0]{}: section 0x8-0x19 (17)
0x00|                        01                     |        .       |      id: "type_section" (1) 0x8-0x9 (1)
0x00|                           0f                  |         .      |      size: 15 (valid) 0x9-0xa (1)
    |                                               |                |      content{}: 0xa-0x19 (15)
    |                                               |                |        ft{}: 0xa-0x19 (15)
0x00|                              02               |          .     |          n: 2 (valid) 0xa-0xb (1)
    |                                               |                |          x[0:2]: 0xb-0x19 (14)
    |                                               |                |            [0]{}: ft 0xb-0x12 (7)
0x00|                                 60            |           `    |              tag: 0x60 (valid) 0xb-0xc (1)
    |                                               |                |              rt1{}: 0xc-0x10 (4)
0x00|                                    03         |            .   |                n: 3 (valid) 0xc-0xd (1)
    |                                               |                |                x[0:3]: 0xd-0x10 (3)
0x00|                                       7d      |             }  |                  [0]: "f32" (0x7d) t 0xd-0xe (1)
0x00|                                          7d   |              } |                  [1]: "f32" (0x7d) t 0xe-0xf (1)
0x00|                                             7d|               }|                  [2]: "f32" (0x7d) t 0xf-0x10 (1)
    |                                               |                |              rt2{}: 0x10-0x12 (2)
0x10|01                                             |.               |                n: 1 (valid) 0x10-0x11 (1)
    |                                               |                |                x[0:1]: 0x11-0x12 (1)
0x10|   7d                                          | }              |                  [0]: "f32" (0x7d) t 0x11-0x12 (1)
    |                                               |                |            [1]{}: ft 0x12-0x19 (7)
0x10|      60                                       |  `             |              tag: 0x60 (valid) 0x12-0x13 (1)
    |                                               |                |              rt1{}: 0x13-0x17 (4)
0x10|         03                                    |   .            |                n: 3 (valid) 0x13-0x14 (1)
    |                                               |                |                x[0:3]: 0x14-0x17 (3)
0x10|            7c                                 |    |           |                  [0]: "f64" (0x7c) t 0x14-0x15 (1)
0x10|               7c                              |     |          |                  [1]: "f64" (0x7c) t 0x15-0x16 (1)
0x10|                  7c                           |      |         |                  [2]: "f64" (0x7c) t 0x16-0x17 (1)
    |                                               |                |              rt2{}: 0x17-0x19 (2)
0x10|                     01                        |       .        |                n: 1 (valid) 0x17-0x18 (1)
    |                                               |                |                x[0:1]: 0x18-0x19 (1)
0x10|                        7c                     |        |       |                  [0]: "f64" (0x7c) t 0x18-0x19 (1)
    |                                               |                |    [1]{}: section 0x19-0x1e (5)
0x10|                           03                  |         .      |      id: "function_section" (3) 0x19-0x1a (1)
0x10|                              03               |          .     |      size: 3 (valid) 0x1a-0x1b (1)
    |                                               |                |      content{}: 0x1b-0x1e (3)
    |                                               |                |        x{}: 0x1b-0x1e (3)
0x10|                                 02            |           .    |          n: 2 (valid) 0x1b-0x1c (1)
    |                                               |                |          x[0:2]: 0x1c-0x1e (2)
0x10|                                    00         |            .   |            [0]: 0 x (valid) 0x1c-0x1d (1)
0x10|                                       01      |             .  |            [1]: 1 x (valid) 0x1d-0x1e (1)
    |                                               |                |    [2]{}: section 0x1e-0x6d (79)
0x10|                                          07   |              . |      id: "export_section" (7) 0x1e-0x1f (1)
0x10|                                             4d|               M|      size: 77 (valid) 0x1f-0x20 (1)
    |                                               |                |      content{}: 0x20-0x6d (77)
    |                                               |                |        ex{}: 0x20-0x6d (77)
0x20|02                                             |.               |          n: 2 (valid) 0x20-0x21 (1)
    |                                               |                |          x[0:2]: 0x21-0x6d (76)
    |                                               |                |            [0]{}: ex 0x21-0x47 (38)
    |                                               |                |              nm{}: 0x21-0x45 (36)
0x20|   23                                          | #              |                n: 35 (valid) 0x21-0x22 (1)
0x20|      66 33 32 2e 6e 6f 5f 66 6c 75 73 68 5f 69|  f32.no_flush_i|                b: "f32.no_flush_intermediate_subnormal" 0x22-0x45 (35)
0x30|6e 74 65 72 6d 65 64 69 61 74 65 5f 73 75 62 6e|ntermediate_subn|
0x40|6f 72 6d 61 6c                                 |ormal           |
    |                                               |                |              d{}: 0x45-0x47 (2)
0x40|               00                              |     .          |                tag: "funcidx" (0x0) 0x45-0x46 (1)
0x40|                  00                           |      .         |                x: 0 (valid) 0x46-0x47 (1)
    |                                               |                |            [1]{}: ex 0x47-0x6d (38)
    |                                               |                |              nm{}: 0x47-0x6b (36)
0x40|                     23                        |       #        |                n: 35 (valid) 0x47-0x48 (1)
0x40|                        66 36 34 2e 6e 6f 5f 66|        f64.no_f|                b: "f64.no_flush_intermediate_subnormal" 0x48-0x6b (35)
0x50|6c 75 73 68 5f 69 6e 74 65 72 6d 65 64 69 61 74|lush_intermediat|
0x60|65 5f 73 75 62 6e 6f 72 6d 61 6c               |e_subnormal     |
    |                                               |                |              d{}: 0x6b-0x6d (2)
0x60|                                 00            |           .    |                tag: "funcidx" (0x0) 0x6b-0x6c (1)
0x60|                                    01         |            .   |                x: 1 (valid) 0x6c-0x6d (1)
    |                                               |                |    [3]{}: section 0x6d-0x86 (25)
0x60|                                       0a      |             .  |      id: "code_section" (10) 0x6d-0x6e (1)
0x60|                                          17   |              . |      size: 23 (valid) 0x6e-0x6f (1)
    |                                               |                |      content{}: 0x6f-0x86 (23)
    |                                               |                |        code{}: 0x6f-0x86 (23)
0x60|                                             02|               .|          n: 2 (valid) 0x6f-0x70 (1)
    |                                               |                |          x[0:2]: 0x70-0x86 (22)
    |                                               |                |            [0]{}: code 0x70-0x7b (11)
0x70|0a                                             |.               |              size: 10 (valid) 0x70-0x71 (1)
    |                                               |                |              code{}: 0x71-0x7b (10)
    |                                               |                |                t{}: 0x71-0x72 (1)
0x70|   00                                          | .              |                  n: 0 (valid) 0x71-0x72 (1)
    |                                               |                |                  x[0:0]: 0x72-0x72 (0)
    |                                               |                |                e[0:6]: 0x72-0x7b (9)
    |                                               |                |                  [0]{}: in 0x72-0x74 (2)
0x70|      20                                       |                |                    opcode: "local.get" (0x20) 0x72-0x73 (1)
0x70|         00                                    |   .            |                    x: 0 (valid) 0x73-0x74 (1)
    |                                               |                |                  [1]{}: in 0x74-0x76 (2)
0x70|            20                                 |                |                    opcode: "local.get" (0x20) 0x74-0x75 (1)
0x70|               01                              |     .          |                    x: 1 (valid) 0x75-0x76 (1)
    |                                               |                |                  [2]{}: in 0x76-0x77 (1)
0x70|                  94                           |      .         |                    opcode: "f32.mul" (0x94) 0x76-0x77 (1)
    |                                               |                |                  [3]{}: in 0x77-0x79 (2)
0x70|                     20                        |                |                    opcode: "local.get" (0x20) 0x77-0x78 (1)
0x70|                        02                     |        .       |                    x: 2 (valid) 0x78-0x79 (1)
    |                                               |                |                  [4]{}: in 0x79-0x7a (1)
0x70|                           94                  |         .      |                    opcode: "f32.mul" (0x94) 0x79-0x7a (1)
    |                                               |                |                  [5]{}: in 0x7a-0x7b (1)
0x70|                              0b               |          .     |                    opcode: "end" (0xb) 0x7a-0x7b (1)
    |                                               |                |            [1]{}: code 0x7b-0x86 (11)
0x70|                                 0a            |           .    |              size: 10 (valid) 0x7b-0x7c (1)
    |                                               |                |              code{}: 0x7c-0x86 (10)
    |                                               |                |                t{}: 0x7c-0x7d (1)
0x70|                                    00         |            .   |                  n: 0 (valid) 0x7c-0x7d (1)
    |                                               |                |                  x[0:0]: 0x7d-0x7d (0)
    |                                               |                |                e[0:6]: 0x7d-0x86 (9)
    |                                               |                |                  [0]{}: in 0x7d-0x7f (2)
0x70|                                       20      |                |                    opcode: "local.get" (0x20) 0x7d-0x7e (1)
0x70|                                          00   |              . |                    x: 0 (valid) 0x7e-0x7f (1)
    |                                               |                |                  [1]{}: in 0x7f-0x81 (2)
0x70|                                             20|                |                    opcode: "local.get" (0x20) 0x7f-0x80 (1)
0x80|01                                             |.               |                    x: 1 (valid) 0x80-0x81 (1)
    |                                               |                |                  [2]{}: in 0x81-0x82 (1)
0x80|   a2                                          | .              |                    opcode: "f64.mul" (0xa2) 0x81-0x82 (1)
    |                                               |                |                  [3]{}: in 0x82-0x84 (2)
0x80|      20                                       |                |                    opcode: "local.get" (0x20) 0x82-0x83 (1)
0x80|         02                                    |   .            |                    x: 2 (valid) 0x83-0x84 (1)
    |                                               |                |                  [4]{}: in 0x84-0x85 (1)
0x80|            a2                                 |    .           |                    opcode: "f64.mul" (0xa2) 0x84-0x85 (1)
    |                                               |                |                  [5]{}: in 0x85-0x86 (1)
0x80|               0b|                             |     .|         |                    opcode: "end" (0xb) 0x85-0x86 (1)
