$ fq -d wasm dv float_exprs-30.wasm
    |00 01 02 03 04 05 06 07 08 09 0a 0b 0c 0d 0e 0f|0123456789abcdef|.{}: float_exprs-30.wasm (wasm) 0x0-0x64 (100)
0x00|00 61 73 6d                                    |.asm            |  magic: raw bits (valid) 0x0-0x4 (4)
0x00|            01 00 00 00                        |    ....        |  version: 1 0x4-0x8 (4)
    |                                               |                |  sections[0:4]: 0x8-0x64 (92)
    |                                               |                |    [0]{}: section 0x8-0x17 (15)
0x00|                        01                     |        .       |      id: "type_section" (1) 0x8-0x9 (1)
0x00|                           0d                  |         .      |      size: 13 (valid) 0x9-0xa (1)
    |                                               |                |      content{}: 0xa-0x17 (13)
    |                                               |                |        ft{}: 0xa-0x17 (13)
0x00|                              02               |          .     |          n: 2 (valid) 0xa-0xb (1)
    |                                               |                |          x[0:2]: 0xb-0x17 (12)
    |                                               |                |            [0]{}: ft 0xb-0x11 (6)
0x00|                                 60            |           `    |              tag: 0x60 (valid) 0xb-0xc (1)
    |                                               |                |              rt1{}: 0xc-0xf (3)
0x00|                                    02         |            .   |                n: 2 (valid) 0xc-0xd (1)
    |                                               |                |                x[0:2]: 0xd-0xf (2)
0x00|                                       7d      |             }  |                  [0]: "f32" (0x7d) t 0xd-0xe (1)
0x00|                                          7d   |              } |                  [1]: "f32" (0x7d) t 0xe-0xf (1)
    |                                               |                |              rt2{}: 0xf-0x11 (2)
0x00|                                             01|               .|                n: 1 (valid) 0xf-0x10 (1)
    |                                               |                |                x[0:1]: 0x10-0x11 (1)
0x10|7d                                             |}               |                  [0]: "f32" (0x7d) t 0x10-0x11 (1)
    |                                               |                |            [1]{}: ft 0x11-0x17 (6)
0x10|   60                                          | `              |              tag: 0x60 (valid) 0x11-0x12 (1)
    |                                               |                |              rt1{}: 0x12-0x15 (3)
0x10|      02                                       |  .             |                n: 2 (valid) 0x12-0x13 (1)
    |                                               |                |                x[0:2]: 0x13-0x15 (2)
0x10|         7c                                    |   |            |                  [0]: "f64" (0x7c) t 0x13-0x14 (1)
0x10|            7c                                 |    |           |                  [1]: "f64" (0x7c) t 0x14-0x15 (1)
    |                                               |                |              rt2{}: 0x15-0x17 (2)
0x10|               01                              |     .          |                n: 1 (valid) 0x15-0x16 (1)
    |                                               |                |                x[0:1]: 0x16-0x17 (1)
0x10|                  7c                           |      |         |                  [0]: "f64" (0x7c) t 0x16-0x17 (1)
    |                                               |                |    [1]{}: section 0x17-0x1c (5)
0x10|                     03                        |       .        |      id: "function_section" (3) 0x17-0x18 (1)
0x10|                        03                     |        .       |      size: 3 (valid) 0x18-0x19 (1)
    |                                               |                |      content{}: 0x19-0x1c (3)
    |                                               |                |        x{}: 0x19-0x1c (3)
0x10|                           02                  |         .      |          n: 2 (valid) 0x19-0x1a (1)
    |                                               |                |          x[0:2]: 0x1a-0x1c (2)
0x10|                              00               |          .     |            [0]: 0 x (valid) 0x1a-0x1b (1)
0x10|                                 01            |           .    |            [1]: 1 x (valid) 0x1b-0x1c (1)
    |                                               |                |    [2]{}: section 0x1c-0x4b (47)
0x10|                                    07         |            .   |      id: "export_section" (7) 0x1c-0x1d (1)
0x10|                                       2d      |             -  |      size: 45 (valid) 0x1d-0x1e (1)
    |                                               |                |      content{}: 0x1e-0x4b (45)
    |                                               |                |        ex{}: 0x1e-0x4b (45)
0x10|                                          02   |              . |          n: 2 (valid) 0x1e-0x1f (1)
    |                                               |                |          x[0:2]: 0x1f-0x4b (44)
    |                                               |                |            [0]{}: ex 0x1f-0x35 (22)
    |                                               |                |              nm{}: 0x1f-0x33 (20)
0x10|                                             13|               .|                n: 19 (valid) 0x1f-0x20 (1)
0x20|66 33 32 2e 6e 6f 5f 66 6f 6c 64 5f 61 64 64 5f|f32.no_fold_add_|                b: "f32.no_fold_add_sub" 0x20-0x33 (19)
0x30|73 75 62                                       |sub             |
    |                                               |                |              d{}: 0x33-0x35 (2)
0x30|         00                                    |   .            |                tag: "funcidx" (0x0) 0x33-0x34 (1)
0x30|            00                                 |    .           |                x: 0 (valid) 0x34-0x35 (1)
    |                                               |                |            [1]{}: ex 0x35-0x4b (22)
    |                                               |                |              nm{}: 0x35-0x49 (20)
0x30|               13                              |     .          |                n: 19 (valid) 0x35-0x36 (1)
0x30|                  66 36 34 2e 6e 6f 5f 66 6f 6c|      f64.no_fol|                b: "f64.no_fold_add_sub" 0x36-0x49 (19)
0x40|64 5f 61 64 64 5f 73 75 62                     |d_add_sub       |
    |                                               |                |              d{}: 0x49-0x4b (2)
0x40|                           00                  |         .      |                tag: "funcidx" (0x0) 0x49-0x4a (1)
0x40|                              01               |          .     |                x: 1 (valid) 0x4a-0x4b (1)
    |                                               |                |    [3]{}: section 0x4b-0x64 (25)
0x40|                                 0a            |           .    |      id: "code_section" (10) 0x4b-0x4c (1)
0x40|                                    17         |            .   |      size: 23 (valid) 0x4c-0x4d (1)
    |                                               |                |      content{}: 0x4d-0x64 (23)
    |                                               |                |        code{}: 0x4d-0x64 (23)
0x40|                                       02      |             .  |          n: 2 (valid) 0x4d-0x4e (1)
    |                                               |                |          x[0:2]: 0x4e-0x64 (22)
    |                                               |                |            [0]{}: code 0x4e-0x59 (11)
0x40|                                          0a   |              . |              size: 10 (valid) 0x4e-0x4f (1)
    |                                               |                |              code{}: 0x4f-0x59 (10)
    |                                               |                |                t{}: 0x4f-0x50 (1)
0x40|                                             00|               .|                  n: 0 (valid) 0x4f-0x50 (1)
    |                                               |                |                  x[0:0]: 0x50-0x50 (0)
    |                                               |                |                e[0:6]: 0x50-0x59 (9)
    |                                               |                |                  [0]{}: in 0x50-0x52 (2)
0x50|20                                             |                |                    opcode: "local.get" (0x20) 0x50-0x51 (1)
0x50|   00                                          | .              |                    x: 0 (valid) 0x51-0x52 (1)
    |                                               |                |                  [1]{}: in 0x52-0x54 (2)
0x50|      20                                       |                |                    opcode: "local.get" (0x20) 0x52-0x53 (1)
0x50|         01                                    |   .            |                    x: 1 (valid) 0x53-0x54 (1)
    |                                               |                |                  [2]{}: in 0x54-0x55 (1)
0x50|            92                                 |    .           |                    opcode: "f32.add" (0x92) 0x54-0x55 (1)
    |                                               |                |                  [3]{}: in 0x55-0x57 (2)
0x50|               20                              |                |                    opcode: "local.get" (0x20) 0x55-0x56 (1)
0x50|                  01                           |      .         |                    x: 1 (valid) 0x56-0x57 (1)
    |                                               |                |                  [4]{}: in 0x57-0x58 (1)
0x50|                     93                        |       .        |                    opcode: "f32.sub" (0x93) 0x57-0x58 (1)
    |                                               |                |                  [5]{}: in 0x58-0x59 (1)
0x50|                        0b                     |        .       |                    opcode: "end" (0xb) 0x58-0x59 (1)
    |                                               |                |            [1]{}: code 0x59-0x64 (11)
0x50|                           0a                  |         .      |              size: 10 (valid) 0x59-0x5a (1)
    |                                               |                |              code{}: 0x5a-0x64 (10)
    |                                               |                |                t{}: 0x5a-0x5b (1)
0x50|                              00               |          .     |                  n: 0 (valid) 0x5a-0x5b (1)
    |                                               |                |                  x[0:0]: 0x5b-0x5b (0)
    |                                               |                |                e[0:6]: 0x5b-0x64 (9)
    |                                               |                |                  [0]{}: in 0x5b-0x5d (2)
0x50|                                 20            |                |                    opcode: "local.get" (0x20) 0x5b-0x5c (1)
0x50|                                    00         |            .   |                    x: 0 (valid) 0x5c-0x5d (1)
    |                                               |                |                  [1]{}: in 0x5d-0x5f (2)
0x50|                                       20      |                |                    opcode: "local.get" (0x20) 0x5d-0x5e (1)
0x50|                                          01   |              . |                    x: 1 (valid) 0x5e-0x5f (1)
    |                                               |                |                  [2]{}: in 0x5f-0x60 (1)
0x50|                                             a0|               .|                    opcode: "f64.add" (0xa0) 0x5f-0x60 (1)
    |                                               |                |                  [3]{}: in 0x60-0x62 (2)
0x60|20                                             |                |                    opcode: "local.get" (0x20) 0x60-0x61 (1)
0x60|   01                                          | .              |                    x: 1 (valid) 0x61-0x62 (1)
    |                                               |                |                  [4]{}: in 0x62-0x63 (1)
0x60|      a1                                       |  .             |                    opcode: "f64.sub" (0xa1) 0x62-0x63 (1)
    |                                               |                |                  [5]{}: in 0x63-0x64 (1)
0x60|         0b|                                   |   .|           |                    opcode: "end" (0xb) 0x63-0x64 (1)
