$ fq -d wasm dv float_exprs-42.wasm
    |00 01 02 03 04 05 06 07 08 09 0a 0b 0c 0d 0e 0f|0123456789abcdef|.{}: float_exprs-42.wasm (wasm) 0x0-0xbf.7 (192)
0x00|00 61 73 6d                                    |.asm            |  magic: raw bits (valid) 0x0-0x3.7 (4)
0x00|            01 00 00 00                        |    ....        |  version: 1 0x4-0x7.7 (4)
    |                                               |                |  sections[0:4]: 0x8-0xbf.7 (184)
    |                                               |                |    [0]{}: section 0x8-0x16.7 (15)
0x00|                        01                     |        .       |      id: "type section" (1) 0x8-0x8.7 (1)
0x00|                           0d                  |         .      |      size: 13 0x9-0x9.7 (1)
    |                                               |                |      content{}: 0xa-0x16.7 (13)
    |                                               |                |        ft{}: 0xa-0x16.7 (13)
0x00|                              02               |          .     |          n: 2 0xa-0xa.7 (1)
    |                                               |                |          x[0:2]: 0xb-0x16.7 (12)
    |                                               |                |            [0]{}: ft 0xb-0x10.7 (6)
0x00|                                 60            |           `    |              tag: 0x60 (valid) 0xb-0xb.7 (1)
    |                                               |                |              rt1{}: 0xc-0xe.7 (3)
0x00|                                    02         |            .   |                n: 2 0xc-0xc.7 (1)
    |                                               |                |                x[0:2]: 0xd-0xe.7 (2)
0x00|                                       7d      |             }  |                  [0]: "f32" (0x7d) t 0xd-0xd.7 (1)
0x00|                                          7d   |              } |                  [1]: "f32" (0x7d) t 0xe-0xe.7 (1)
    |                                               |                |              rt2{}: 0xf-0x10.7 (2)
0x00|                                             01|               .|                n: 1 0xf-0xf.7 (1)
    |                                               |                |                x[0:1]: 0x10-0x10.7 (1)
0x10|7f                                             |.               |                  [0]: "i32" (0x7f) t 0x10-0x10.7 (1)
    |                                               |                |            [1]{}: ft 0x11-0x16.7 (6)
0x10|   60                                          | `              |              tag: 0x60 (valid) 0x11-0x11.7 (1)
    |                                               |                |              rt1{}: 0x12-0x14.7 (3)
0x10|      02                                       |  .             |                n: 2 0x12-0x12.7 (1)
    |                                               |                |                x[0:2]: 0x13-0x14.7 (2)
0x10|         7c                                    |   |            |                  [0]: "f64" (0x7c) t 0x13-0x13.7 (1)
0x10|            7c                                 |    |           |                  [1]: "f64" (0x7c) t 0x14-0x14.7 (1)
    |                                               |                |              rt2{}: 0x15-0x16.7 (2)
0x10|               01                              |     .          |                n: 1 0x15-0x15.7 (1)
    |                                               |                |                x[0:1]: 0x16-0x16.7 (1)
0x10|                  7f                           |      .         |                  [0]: "i32" (0x7f) t 0x16-0x16.7 (1)
    |                                               |                |    [1]{}: section 0x17-0x21.7 (11)
0x10|                     03                        |       .        |      id: "function section" (3) 0x17-0x17.7 (1)
0x10|                        09                     |        .       |      size: 9 0x18-0x18.7 (1)
    |                                               |                |      content{}: 0x19-0x21.7 (9)
    |                                               |                |        x{}: 0x19-0x21.7 (9)
0x10|                           08                  |         .      |          n: 8 0x19-0x19.7 (1)
    |                                               |                |          x[0:8]: 0x1a-0x21.7 (8)
0x10|                              00               |          .     |            [0]: 0 x 0x1a-0x1a.7 (1)
0x10|                                 00            |           .    |            [1]: 0 x 0x1b-0x1b.7 (1)
0x10|                                    00         |            .   |            [2]: 0 x 0x1c-0x1c.7 (1)
0x10|                                       00      |             .  |            [3]: 0 x 0x1d-0x1d.7 (1)
0x10|                                          01   |              . |            [4]: 1 x 0x1e-0x1e.7 (1)
0x10|                                             01|               .|            [5]: 1 x 0x1f-0x1f.7 (1)
0x20|01                                             |.               |            [6]: 1 x 0x20-0x20.7 (1)
0x20|   01                                          | .              |            [7]: 1 x 0x21-0x21.7 (1)
    |                                               |                |    [2]{}: section 0x22-0x74.7 (83)
0x20|      07                                       |  .             |      id: "export section" (7) 0x22-0x22.7 (1)
0x20|         51                                    |   Q            |      size: 81 0x23-0x23.7 (1)
    |                                               |                |      content{}: 0x24-0x74.7 (81)
    |                                               |                |        ex{}: 0x24-0x74.7 (81)
0x20|            08                                 |    .           |          n: 8 0x24-0x24.7 (1)
    |                                               |                |          x[0:8]: 0x25-0x74.7 (80)
    |                                               |                |            [0]{}: ex 0x25-0x2e.7 (10)
    |                                               |                |              nm{}: 0x25-0x2c.7 (8)
0x20|               07                              |     .          |                n: 7 0x25-0x25.7 (1)
0x20|                  66 33 32 2e 75 6c 74         |      f32.ult   |                b: "f32.ult" 0x26-0x2c.7 (7)
    |                                               |                |              d{}: 0x2d-0x2e.7 (2)
0x20|                                       00      |             .  |                tag: "funcidx" (0x0) 0x2d-0x2d.7 (1)
0x20|                                          00   |              . |                x: 0 0x2e-0x2e.7 (1)
    |                                               |                |            [1]{}: ex 0x2f-0x38.7 (10)
    |                                               |                |              nm{}: 0x2f-0x36.7 (8)
0x20|                                             07|               .|                n: 7 0x2f-0x2f.7 (1)
0x30|66 33 32 2e 75 6c 65                           |f32.ule         |                b: "f32.ule" 0x30-0x36.7 (7)
    |                                               |                |              d{}: 0x37-0x38.7 (2)
0x30|                     00                        |       .        |                tag: "funcidx" (0x0) 0x37-0x37.7 (1)
0x30|                        01                     |        .       |                x: 1 0x38-0x38.7 (1)
    |                                               |                |            [2]{}: ex 0x39-0x42.7 (10)
    |                                               |                |              nm{}: 0x39-0x40.7 (8)
0x30|                           07                  |         .      |                n: 7 0x39-0x39.7 (1)
0x30|                              66 33 32 2e 75 67|          f32.ug|                b: "f32.ugt" 0x3a-0x40.7 (7)
0x40|74                                             |t               |
    |                                               |                |              d{}: 0x41-0x42.7 (2)
0x40|   00                                          | .              |                tag: "funcidx" (0x0) 0x41-0x41.7 (1)
0x40|      02                                       |  .             |                x: 2 0x42-0x42.7 (1)
    |                                               |                |            [3]{}: ex 0x43-0x4c.7 (10)
    |                                               |                |              nm{}: 0x43-0x4a.7 (8)
0x40|         07                                    |   .            |                n: 7 0x43-0x43.7 (1)
0x40|            66 33 32 2e 75 67 65               |    f32.uge     |                b: "f32.uge" 0x44-0x4a.7 (7)
    |                                               |                |              d{}: 0x4b-0x4c.7 (2)
0x40|                                 00            |           .    |                tag: "funcidx" (0x0) 0x4b-0x4b.7 (1)
0x40|                                    03         |            .   |                x: 3 0x4c-0x4c.7 (1)
    |                                               |                |            [4]{}: ex 0x4d-0x56.7 (10)
    |                                               |                |              nm{}: 0x4d-0x54.7 (8)
0x40|                                       07      |             .  |                n: 7 0x4d-0x4d.7 (1)
0x40|                                          66 36|              f6|                b: "f64.ult" 0x4e-0x54.7 (7)
0x50|34 2e 75 6c 74                                 |4.ult           |
    |                                               |                |              d{}: 0x55-0x56.7 (2)
0x50|               00                              |     .          |                tag: "funcidx" (0x0) 0x55-0x55.7 (1)
0x50|                  04                           |      .         |                x: 4 0x56-0x56.7 (1)
    |                                               |                |            [5]{}: ex 0x57-0x60.7 (10)
    |                                               |                |              nm{}: 0x57-0x5e.7 (8)
0x50|                     07                        |       .        |                n: 7 0x57-0x57.7 (1)
0x50|                        66 36 34 2e 75 6c 65   |        f64.ule |                b: "f64.ule" 0x58-0x5e.7 (7)
    |                                               |                |              d{}: 0x5f-0x60.7 (2)
0x50|                                             00|               .|                tag: "funcidx" (0x0) 0x5f-0x5f.7 (1)
0x60|05                                             |.               |                x: 5 0x60-0x60.7 (1)
    |                                               |                |            [6]{}: ex 0x61-0x6a.7 (10)
    |                                               |                |              nm{}: 0x61-0x68.7 (8)
0x60|   07                                          | .              |                n: 7 0x61-0x61.7 (1)
0x60|      66 36 34 2e 75 67 74                     |  f64.ugt       |                b: "f64.ugt" 0x62-0x68.7 (7)
    |                                               |                |              d{}: 0x69-0x6a.7 (2)
0x60|                           00                  |         .      |                tag: "funcidx" (0x0) 0x69-0x69.7 (1)
0x60|                              06               |          .     |                x: 6 0x6a-0x6a.7 (1)
    |                                               |                |            [7]{}: ex 0x6b-0x74.7 (10)
    |                                               |                |              nm{}: 0x6b-0x72.7 (8)
0x60|                                 07            |           .    |                n: 7 0x6b-0x6b.7 (1)
0x60|                                    66 36 34 2e|            f64.|                b: "f64.uge" 0x6c-0x72.7 (7)
0x70|75 67 65                                       |uge             |
    |                                               |                |              d{}: 0x73-0x74.7 (2)
0x70|         00                                    |   .            |                tag: "funcidx" (0x0) 0x73-0x73.7 (1)
0x70|            07                                 |    .           |                x: 7 0x74-0x74.7 (1)
    |                                               |                |    [3]{}: section 0x75-0xbf.7 (75)
0x70|               0a                              |     .          |      id: "code section" (10) 0x75-0x75.7 (1)
0x70|                  49                           |      I         |      size: 73 0x76-0x76.7 (1)
    |                                               |                |      content{}: 0x77-0xbf.7 (73)
    |                                               |                |        code{}: 0x77-0xbf.7 (73)
0x70|                     08                        |       .        |          n: 8 0x77-0x77.7 (1)
    |                                               |                |          x[0:8]: 0x78-0xbf.7 (72)
    |                                               |                |            [0]{}: code 0x78-0x80.7 (9)
0x70|                        08                     |        .       |              size: 8 0x78-0x78.7 (1)
    |                                               |                |              code{}: 0x79-0x80.7 (8)
    |                                               |                |                t{}: 0x79-0x79.7 (1)
0x70|                           00                  |         .      |                  n: 0 0x79-0x79.7 (1)
    |                                               |                |                  x[0:0]: 0x7a-NA (0)
    |                                               |                |                e[0:5]: 0x7a-0x80.7 (7)
    |                                               |                |                  [0]{}: in 0x7a-0x7b.7 (2)
0x70|                              20               |                |                    local.get: 0x20 (valid) 0x7a-0x7a.7 (1)
0x70|                                 00            |           .    |                    x: 0 0x7b-0x7b.7 (1)
    |                                               |                |                  [1]{}: in 0x7c-0x7d.7 (2)
0x70|                                    20         |                |                    local.get: 0x20 (valid) 0x7c-0x7c.7 (1)
0x70|                                       01      |             .  |                    x: 1 0x7d-0x7d.7 (1)
    |                                               |                |                  [2]{}: in 0x7e-0x7e.7 (1)
0x70|                                          60   |              ` |                    f32.ge: 0x60 (valid) 0x7e-0x7e.7 (1)
    |                                               |                |                  [3]{}: in 0x7f-0x7f.7 (1)
0x70|                                             45|               E|                    i32.eqz: 0x45 (valid) 0x7f-0x7f.7 (1)
    |                                               |                |                  [4]{}: in 0x80-0x80.7 (1)
0x80|0b                                             |.               |                    end: 0xb (valid) 0x80-0x80.7 (1)
    |                                               |                |            [1]{}: code 0x81-0x89.7 (9)
0x80|   08                                          | .              |              size: 8 0x81-0x81.7 (1)
    |                                               |                |              code{}: 0x82-0x89.7 (8)
    |                                               |                |                t{}: 0x82-0x82.7 (1)
0x80|      00                                       |  .             |                  n: 0 0x82-0x82.7 (1)
    |                                               |                |                  x[0:0]: 0x83-NA (0)
    |                                               |                |                e[0:5]: 0x83-0x89.7 (7)
    |                                               |                |                  [0]{}: in 0x83-0x84.7 (2)
0x80|         20                                    |                |                    local.get: 0x20 (valid) 0x83-0x83.7 (1)
0x80|            00                                 |    .           |                    x: 0 0x84-0x84.7 (1)
    |                                               |                |                  [1]{}: in 0x85-0x86.7 (2)
0x80|               20                              |                |                    local.get: 0x20 (valid) 0x85-0x85.7 (1)
0x80|                  01                           |      .         |                    x: 1 0x86-0x86.7 (1)
    |                                               |                |                  [2]{}: in 0x87-0x87.7 (1)
0x80|                     5e                        |       ^        |                    f32.gt: 0x5e (valid) 0x87-0x87.7 (1)
    |                                               |                |                  [3]{}: in 0x88-0x88.7 (1)
0x80|                        45                     |        E       |                    i32.eqz: 0x45 (valid) 0x88-0x88.7 (1)
    |                                               |                |                  [4]{}: in 0x89-0x89.7 (1)
0x80|                           0b                  |         .      |                    end: 0xb (valid) 0x89-0x89.7 (1)
    |                                               |                |            [2]{}: code 0x8a-0x92.7 (9)
0x80|                              08               |          .     |              size: 8 0x8a-0x8a.7 (1)
    |                                               |                |              code{}: 0x8b-0x92.7 (8)
    |                                               |                |                t{}: 0x8b-0x8b.7 (1)
0x80|                                 00            |           .    |                  n: 0 0x8b-0x8b.7 (1)
    |                                               |                |                  x[0:0]: 0x8c-NA (0)
    |                                               |                |                e[0:5]: 0x8c-0x92.7 (7)
    |                                               |                |                  [0]{}: in 0x8c-0x8d.7 (2)
0x80|                                    20         |                |                    local.get: 0x20 (valid) 0x8c-0x8c.7 (1)
0x80|                                       00      |             .  |                    x: 0 0x8d-0x8d.7 (1)
    |                                               |                |                  [1]{}: in 0x8e-0x8f.7 (2)
0x80|                                          20   |                |                    local.get: 0x20 (valid) 0x8e-0x8e.7 (1)
0x80|                                             01|               .|                    x: 1 0x8f-0x8f.7 (1)
    |                                               |                |                  [2]{}: in 0x90-0x90.7 (1)
0x90|5f                                             |_               |                    f32.le: 0x5f (valid) 0x90-0x90.7 (1)
    |                                               |                |                  [3]{}: in 0x91-0x91.7 (1)
0x90|   45                                          | E              |                    i32.eqz: 0x45 (valid) 0x91-0x91.7 (1)
    |                                               |                |                  [4]{}: in 0x92-0x92.7 (1)
0x90|      0b                                       |  .             |                    end: 0xb (valid) 0x92-0x92.7 (1)
    |                                               |                |            [3]{}: code 0x93-0x9b.7 (9)
0x90|         08                                    |   .            |              size: 8 0x93-0x93.7 (1)
    |                                               |                |              code{}: 0x94-0x9b.7 (8)
    |                                               |                |                t{}: 0x94-0x94.7 (1)
0x90|            00                                 |    .           |                  n: 0 0x94-0x94.7 (1)
    |                                               |                |                  x[0:0]: 0x95-NA (0)
    |                                               |                |                e[0:5]: 0x95-0x9b.7 (7)
    |                                               |                |                  [0]{}: in 0x95-0x96.7 (2)
0x90|               20                              |                |                    local.get: 0x20 (valid) 0x95-0x95.7 (1)
0x90|                  00                           |      .         |                    x: 0 0x96-0x96.7 (1)
    |                                               |                |                  [1]{}: in 0x97-0x98.7 (2)
0x90|                     20                        |                |                    local.get: 0x20 (valid) 0x97-0x97.7 (1)
0x90|                        01                     |        .       |                    x: 1 0x98-0x98.7 (1)
    |                                               |                |                  [2]{}: in 0x99-0x99.7 (1)
0x90|                           5d                  |         ]      |                    f32.lt: 0x5d (valid) 0x99-0x99.7 (1)
    |                                               |                |                  [3]{}: in 0x9a-0x9a.7 (1)
0x90|                              45               |          E     |                    i32.eqz: 0x45 (valid) 0x9a-0x9a.7 (1)
    |                                               |                |                  [4]{}: in 0x9b-0x9b.7 (1)
0x90|                                 0b            |           .    |                    end: 0xb (valid) 0x9b-0x9b.7 (1)
    |                                               |                |            [4]{}: code 0x9c-0xa4.7 (9)
0x90|                                    08         |            .   |              size: 8 0x9c-0x9c.7 (1)
    |                                               |                |              code{}: 0x9d-0xa4.7 (8)
    |                                               |                |                t{}: 0x9d-0x9d.7 (1)
0x90|                                       00      |             .  |                  n: 0 0x9d-0x9d.7 (1)
    |                                               |                |                  x[0:0]: 0x9e-NA (0)
    |                                               |                |                e[0:5]: 0x9e-0xa4.7 (7)
    |                                               |                |                  [0]{}: in 0x9e-0x9f.7 (2)
0x90|                                          20   |                |                    local.get: 0x20 (valid) 0x9e-0x9e.7 (1)
0x90|                                             00|               .|                    x: 0 0x9f-0x9f.7 (1)
    |                                               |                |                  [1]{}: in 0xa0-0xa1.7 (2)
0xa0|20                                             |                |                    local.get: 0x20 (valid) 0xa0-0xa0.7 (1)
0xa0|   01                                          | .              |                    x: 1 0xa1-0xa1.7 (1)
    |                                               |                |                  [2]{}: in 0xa2-0xa2.7 (1)
0xa0|      66                                       |  f             |                    f64.ge: 0x66 (valid) 0xa2-0xa2.7 (1)
    |                                               |                |                  [3]{}: in 0xa3-0xa3.7 (1)
0xa0|         45                                    |   E            |                    i32.eqz: 0x45 (valid) 0xa3-0xa3.7 (1)
    |                                               |                |                  [4]{}: in 0xa4-0xa4.7 (1)
0xa0|            0b                                 |    .           |                    end: 0xb (valid) 0xa4-0xa4.7 (1)
    |                                               |                |            [5]{}: code 0xa5-0xad.7 (9)
0xa0|               08                              |     .          |              size: 8 0xa5-0xa5.7 (1)
    |                                               |                |              code{}: 0xa6-0xad.7 (8)
    |                                               |                |                t{}: 0xa6-0xa6.7 (1)
0xa0|                  00                           |      .         |                  n: 0 0xa6-0xa6.7 (1)
    |                                               |                |                  x[0:0]: 0xa7-NA (0)
    |                                               |                |                e[0:5]: 0xa7-0xad.7 (7)
    |                                               |                |                  [0]{}: in 0xa7-0xa8.7 (2)
0xa0|                     20                        |                |                    local.get: 0x20 (valid) 0xa7-0xa7.7 (1)
0xa0|                        00                     |        .       |                    x: 0 0xa8-0xa8.7 (1)
    |                                               |                |                  [1]{}: in 0xa9-0xaa.7 (2)
0xa0|                           20                  |                |                    local.get: 0x20 (valid) 0xa9-0xa9.7 (1)
0xa0|                              01               |          .     |                    x: 1 0xaa-0xaa.7 (1)
    |                                               |                |                  [2]{}: in 0xab-0xab.7 (1)
0xa0|                                 64            |           d    |                    f64.gt: 0x64 (valid) 0xab-0xab.7 (1)
    |                                               |                |                  [3]{}: in 0xac-0xac.7 (1)
0xa0|                                    45         |            E   |                    i32.eqz: 0x45 (valid) 0xac-0xac.7 (1)
    |                                               |                |                  [4]{}: in 0xad-0xad.7 (1)
0xa0|                                       0b      |             .  |                    end: 0xb (valid) 0xad-0xad.7 (1)
    |                                               |                |            [6]{}: code 0xae-0xb6.7 (9)
0xa0|                                          08   |              . |              size: 8 0xae-0xae.7 (1)
    |                                               |                |              code{}: 0xaf-0xb6.7 (8)
    |                                               |                |                t{}: 0xaf-0xaf.7 (1)
0xa0|                                             00|               .|                  n: 0 0xaf-0xaf.7 (1)
    |                                               |                |                  x[0:0]: 0xb0-NA (0)
    |                                               |                |                e[0:5]: 0xb0-0xb6.7 (7)
    |                                               |                |                  [0]{}: in 0xb0-0xb1.7 (2)
0xb0|20                                             |                |                    local.get: 0x20 (valid) 0xb0-0xb0.7 (1)
0xb0|   00                                          | .              |                    x: 0 0xb1-0xb1.7 (1)
    |                                               |                |                  [1]{}: in 0xb2-0xb3.7 (2)
0xb0|      20                                       |                |                    local.get: 0x20 (valid) 0xb2-0xb2.7 (1)
0xb0|         01                                    |   .            |                    x: 1 0xb3-0xb3.7 (1)
    |                                               |                |                  [2]{}: in 0xb4-0xb4.7 (1)
0xb0|            65                                 |    e           |                    f64.le: 0x65 (valid) 0xb4-0xb4.7 (1)
    |                                               |                |                  [3]{}: in 0xb5-0xb5.7 (1)
0xb0|               45                              |     E          |                    i32.eqz: 0x45 (valid) 0xb5-0xb5.7 (1)
    |                                               |                |                  [4]{}: in 0xb6-0xb6.7 (1)
0xb0|                  0b                           |      .         |                    end: 0xb (valid) 0xb6-0xb6.7 (1)
    |                                               |                |            [7]{}: code 0xb7-0xbf.7 (9)
0xb0|                     08                        |       .        |              size: 8 0xb7-0xb7.7 (1)
    |                                               |                |              code{}: 0xb8-0xbf.7 (8)
    |                                               |                |                t{}: 0xb8-0xb8.7 (1)
0xb0|                        00                     |        .       |                  n: 0 0xb8-0xb8.7 (1)
    |                                               |                |                  x[0:0]: 0xb9-NA (0)
    |                                               |                |                e[0:5]: 0xb9-0xbf.7 (7)
    |                                               |                |                  [0]{}: in 0xb9-0xba.7 (2)
0xb0|                           20                  |                |                    local.get: 0x20 (valid) 0xb9-0xb9.7 (1)
0xb0|                              00               |          .     |                    x: 0 0xba-0xba.7 (1)
    |                                               |                |                  [1]{}: in 0xbb-0xbc.7 (2)
0xb0|                                 20            |                |                    local.get: 0x20 (valid) 0xbb-0xbb.7 (1)
0xb0|                                    01         |            .   |                    x: 1 0xbc-0xbc.7 (1)
    |                                               |                |                  [2]{}: in 0xbd-0xbd.7 (1)
0xb0|                                       63      |             c  |                    f64.lt: 0x63 (valid) 0xbd-0xbd.7 (1)
    |                                               |                |                  [3]{}: in 0xbe-0xbe.7 (1)
0xb0|                                          45   |              E |                    i32.eqz: 0x45 (valid) 0xbe-0xbe.7 (1)
    |                                               |                |                  [4]{}: in 0xbf-0xbf.7 (1)
0xb0|                                             0b|               .|                    end: 0xb (valid) 0xbf-0xbf.7 (1)
