$ fq -d wasm dv float_exprs-25.wasm
    |00 01 02 03 04 05 06 07 08 09 0a 0b 0c 0d 0e 0f|0123456789abcdef|.{}: float_exprs-25.wasm (wasm) 0x0-0x6e (110)
0x00|00 61 73 6d                                    |.asm            |  magic: raw bits (valid) 0x0-0x4 (4)
0x00|            01 00 00 00                        |    ....        |  version: 1 0x4-0x8 (4)
    |                                               |                |  sections[0:4]: 0x8-0x6e (102)
    |                                               |                |    [0]{}: section 0x8-0x17 (15)
0x00|                        01                     |        .       |      id: "type_section" (1) 0x8-0x9 (1)
0x00|                           0d                  |         .      |      size: 13 (valid) 0x9-0xa (1)
    |                                               |                |      content{}: 0xa-0x17 (13)
    |                                               |                |        ft{}: 0xa-0x17 (13)
0x00|                              02               |          .     |          n: 2 (valid) 0xa-0xb (1)
    |                                               |                |          x[0:2]: 0xb-0x17 (12)
    |                                               |                |            [0]{}: ft 0xb-0x11 (6)
0x00|                                 60            |           `    |              tag: 0x60 (valid) 0xb-0xc (1)
    |                                               |                |              rt1{}: 0xc-0xf (3)
0x00|                                    02         |            .   |                n: 2 (valid) 0xc-0xd (1)
    |                                               |                |                x[0:2]: 0xd-0xf (2)
0x00|                                       7d      |             }  |                  [0]: "f32" (0x7d) t 0xd-0xe (1)
0x00|                                          7d   |              } |                  [1]: "f32" (0x7d) t 0xe-0xf (1)
    |                                               |                |              rt2{}: 0xf-0x11 (2)
0x00|                                             01|               .|                n: 1 (valid) 0xf-0x10 (1)
    |                                               |                |                x[0:1]: 0x10-0x11 (1)
0x10|7d                                             |}               |                  [0]: "f32" (0x7d) t 0x10-0x11 (1)
    |                                               |                |            [1]{}: ft 0x11-0x17 (6)
0x10|   60                                          | `              |              tag: 0x60 (valid) 0x11-0x12 (1)
    |                                               |                |              rt1{}: 0x12-0x15 (3)
0x10|      02                                       |  .             |                n: 2 (valid) 0x12-0x13 (1)
    |                                               |                |                x[0:2]: 0x13-0x15 (2)
0x10|         7c                                    |   |            |                  [0]: "f64" (0x7c) t 0x13-0x14 (1)
0x10|            7c                                 |    |           |                  [1]: "f64" (0x7c) t 0x14-0x15 (1)
    |                                               |                |              rt2{}: 0x15-0x17 (2)
0x10|               01                              |     .          |                n: 1 (valid) 0x15-0x16 (1)
    |                                               |                |                x[0:1]: 0x16-0x17 (1)
0x10|                  7c                           |      |         |                  [0]: "f64" (0x7c) t 0x16-0x17 (1)
    |                                               |                |    [1]{}: section 0x17-0x1c (5)
0x10|                     03                        |       .        |      id: "function_section" (3) 0x17-0x18 (1)
0x10|                        03                     |        .       |      size: 3 (valid) 0x18-0x19 (1)
    |                                               |                |      content{}: 0x19-0x1c (3)
    |                                               |                |        x{}: 0x19-0x1c (3)
0x10|                           02                  |         .      |          n: 2 (valid) 0x19-0x1a (1)
    |                                               |                |          x[0:2]: 0x1a-0x1c (2)
0x10|                              00               |          .     |            [0]: 0 x (valid) 0x1a-0x1b (1)
0x10|                                 01            |           .    |            [1]: 1 x (valid) 0x1b-0x1c (1)
    |                                               |                |    [2]{}: section 0x1c-0x4d (49)
0x10|                                    07         |            .   |      id: "export_section" (7) 0x1c-0x1d (1)
0x10|                                       2f      |             /  |      size: 47 (valid) 0x1d-0x1e (1)
    |                                               |                |      content{}: 0x1e-0x4d (47)
    |                                               |                |        ex{}: 0x1e-0x4d (47)
0x10|                                          02   |              . |          n: 2 (valid) 0x1e-0x1f (1)
    |                                               |                |          x[0:2]: 0x1f-0x4d (46)
    |                                               |                |            [0]{}: ex 0x1f-0x36 (23)
    |                                               |                |              nm{}: 0x1f-0x34 (21)
0x10|                                             14|               .|                n: 20 (valid) 0x1f-0x20 (1)
0x20|66 33 32 2e 6e 6f 5f 66 6f 6c 64 5f 74 6f 5f 68|f32.no_fold_to_h|                b: "f32.no_fold_to_hypot" 0x20-0x34 (20)
0x30|79 70 6f 74                                    |ypot            |
    |                                               |                |              d{}: 0x34-0x36 (2)
0x30|            00                                 |    .           |                tag: "funcidx" (0x0) 0x34-0x35 (1)
0x30|               00                              |     .          |                x: 0 (valid) 0x35-0x36 (1)
    |                                               |                |            [1]{}: ex 0x36-0x4d (23)
    |                                               |                |              nm{}: 0x36-0x4b (21)
0x30|                  14                           |      .         |                n: 20 (valid) 0x36-0x37 (1)
0x30|                     66 36 34 2e 6e 6f 5f 66 6f|       f64.no_fo|                b: "f64.no_fold_to_hypot" 0x37-0x4b (20)
0x40|6c 64 5f 74 6f 5f 68 79 70 6f 74               |ld_to_hypot     |
    |                                               |                |              d{}: 0x4b-0x4d (2)
0x40|                                 00            |           .    |                tag: "funcidx" (0x0) 0x4b-0x4c (1)
0x40|                                    01         |            .   |                x: 1 (valid) 0x4c-0x4d (1)
    |                                               |                |    [3]{}: section 0x4d-0x6e (33)
0x40|                                       0a      |             .  |      id: "code_section" (10) 0x4d-0x4e (1)
0x40|                                          1f   |              . |      size: 31 (valid) 0x4e-0x4f (1)
    |                                               |                |      content{}: 0x4f-0x6e (31)
    |                                               |                |        code{}: 0x4f-0x6e (31)
0x40|                                             02|               .|          n: 2 (valid) 0x4f-0x50 (1)
    |                                               |                |          x[0:2]: 0x50-0x6e (30)
    |                                               |                |            [0]{}: code 0x50-0x5f (15)
0x50|0e                                             |.               |              size: 14 (valid) 0x50-0x51 (1)
    |                                               |                |              code{}: 0x51-0x5f (14)
    |                                               |                |                t{}: 0x51-0x52 (1)
0x50|   00                                          | .              |                  n: 0 (valid) 0x51-0x52 (1)
    |                                               |                |                  x[0:0]: 0x52-0x52 (0)
    |                                               |                |                e[0:9]: 0x52-0x5f (13)
    |                                               |                |                  [0]{}: in 0x52-0x54 (2)
0x50|      20                                       |                |                    opcode: "local.get" (0x20) 0x52-0x53 (1)
0x50|         00                                    |   .            |                    x: 0 (valid) 0x53-0x54 (1)
    |                                               |                |                  [1]{}: in 0x54-0x56 (2)
0x50|            20                                 |                |                    opcode: "local.get" (0x20) 0x54-0x55 (1)
0x50|               00                              |     .          |                    x: 0 (valid) 0x55-0x56 (1)
    |                                               |                |                  [2]{}: in 0x56-0x57 (1)
0x50|                  94                           |      .         |                    opcode: "f32.mul" (0x94) 0x56-0x57 (1)
    |                                               |                |                  [3]{}: in 0x57-0x59 (2)
0x50|                     20                        |                |                    opcode: "local.get" (0x20) 0x57-0x58 (1)
0x50|                        01                     |        .       |                    x: 1 (valid) 0x58-0x59 (1)
    |                                               |                |                  [4]{}: in 0x59-0x5b (2)
0x50|                           20                  |                |                    opcode: "local.get" (0x20) 0x59-0x5a (1)
0x50|                              01               |          .     |                    x: 1 (valid) 0x5a-0x5b (1)
    |                                               |                |                  [5]{}: in 0x5b-0x5c (1)
0x50|                                 94            |           .    |                    opcode: "f32.mul" (0x94) 0x5b-0x5c (1)
    |                                               |                |                  [6]{}: in 0x5c-0x5d (1)
0x50|                                    92         |            .   |                    opcode: "f32.add" (0x92) 0x5c-0x5d (1)
    |                                               |                |                  [7]{}: in 0x5d-0x5e (1)
0x50|                                       91      |             .  |                    opcode: "f32.sqrt" (0x91) 0x5d-0x5e (1)
    |                                               |                |                  [8]{}: in 0x5e-0x5f (1)
0x50|                                          0b   |              . |                    opcode: "end" (0xb) 0x5e-0x5f (1)
    |                                               |                |            [1]{}: code 0x5f-0x6e (15)
0x50|                                             0e|               .|              size: 14 (valid) 0x5f-0x60 (1)
    |                                               |                |              code{}: 0x60-0x6e (14)
    |                                               |                |                t{}: 0x60-0x61 (1)
0x60|00                                             |.               |                  n: 0 (valid) 0x60-0x61 (1)
    |                                               |                |                  x[0:0]: 0x61-0x61 (0)
    |                                               |                |                e[0:9]: 0x61-0x6e (13)
    |                                               |                |                  [0]{}: in 0x61-0x63 (2)
0x60|   20                                          |                |                    opcode: "local.get" (0x20) 0x61-0x62 (1)
0x60|      00                                       |  .             |                    x: 0 (valid) 0x62-0x63 (1)
    |                                               |                |                  [1]{}: in 0x63-0x65 (2)
0x60|         20                                    |                |                    opcode: "local.get" (0x20) 0x63-0x64 (1)
0x60|            00                                 |    .           |                    x: 0 (valid) 0x64-0x65 (1)
    |                                               |                |                  [2]{}: in 0x65-0x66 (1)
0x60|               a2                              |     .          |                    opcode: "f64.mul" (0xa2) 0x65-0x66 (1)
    |                                               |                |                  [3]{}: in 0x66-0x68 (2)
0x60|                  20                           |                |                    opcode: "local.get" (0x20) 0x66-0x67 (1)
0x60|                     01                        |       .        |                    x: 1 (valid) 0x67-0x68 (1)
    |                                               |                |                  [4]{}: in 0x68-0x6a (2)
0x60|                        20                     |                |                    opcode: "local.get" (0x20) 0x68-0x69 (1)
0x60|                           01                  |         .      |                    x: 1 (valid) 0x69-0x6a (1)
    |                                               |                |                  [5]{}: in 0x6a-0x6b (1)
0x60|                              a2               |          .     |                    opcode: "f64.mul" (0xa2) 0x6a-0x6b (1)
    |                                               |                |                  [6]{}: in 0x6b-0x6c (1)
0x60|                                 a0            |           .    |                    opcode: "f64.add" (0xa0) 0x6b-0x6c (1)
    |                                               |                |                  [7]{}: in 0x6c-0x6d (1)
0x60|                                    9f         |            .   |                    opcode: "f64.sqrt" (0x9f) 0x6c-0x6d (1)
    |                                               |                |                  [8]{}: in 0x6d-0x6e (1)
0x60|                                       0b|     |             .| |                    opcode: "end" (0xb) 0x6d-0x6e (1)
