$ fq -d wasm dv float_exprs-52.wasm
    |00 01 02 03 04 05 06 07 08 09 0a 0b 0c 0d 0e 0f|0123456789abcdef|.{}: float_exprs-52.wasm (wasm) 0x0-0x3f.7 (64)
0x00|00 61 73 6d                                    |.asm            |  magic: raw bits (valid) 0x0-0x3.7 (4)
0x00|            01 00 00 00                        |    ....        |  version: 1 0x4-0x7.7 (4)
    |                                               |                |  sections[0:4]: 0x8-0x3f.7 (56)
    |                                               |                |    [0]{}: section 0x8-0x10.7 (9)
0x00|                        01                     |        .       |      id: "type section" (1) 0x8-0x8.7 (1)
0x00|                           07                  |         .      |      size: 7 0x9-0x9.7 (1)
    |                                               |                |      content{}: 0xa-0x10.7 (7)
    |                                               |                |        ft{}: 0xa-0x10.7 (7)
0x00|                              01               |          .     |          n: 1 0xa-0xa.7 (1)
    |                                               |                |          x[0:1]: 0xb-0x10.7 (6)
    |                                               |                |            [0]{}: ft 0xb-0x10.7 (6)
0x00|                                 60            |           `    |              tag: 0x60 (valid) 0xb-0xb.7 (1)
    |                                               |                |              rt1{}: 0xc-0xe.7 (3)
0x00|                                    02         |            .   |                n: 2 0xc-0xc.7 (1)
    |                                               |                |                x[0:2]: 0xd-0xe.7 (2)
0x00|                                       7f      |             .  |                  [0]: "i32" (0x7f) t 0xd-0xd.7 (1)
0x00|                                          7f   |              . |                  [1]: "i32" (0x7f) t 0xe-0xe.7 (1)
    |                                               |                |              rt2{}: 0xf-0x10.7 (2)
0x00|                                             01|               .|                n: 1 0xf-0xf.7 (1)
    |                                               |                |                x[0:1]: 0x10-0x10.7 (1)
0x10|7d                                             |}               |                  [0]: "f32" (0x7d) t 0x10-0x10.7 (1)
    |                                               |                |    [1]{}: section 0x11-0x14.7 (4)
0x10|   03                                          | .              |      id: "function section" (3) 0x11-0x11.7 (1)
0x10|      02                                       |  .             |      size: 2 0x12-0x12.7 (1)
    |                                               |                |      content{}: 0x13-0x14.7 (2)
    |                                               |                |        x{}: 0x13-0x14.7 (2)
0x10|         01                                    |   .            |          n: 1 0x13-0x13.7 (1)
    |                                               |                |          x[0:1]: 0x14-0x14.7 (1)
0x10|            00                                 |    .           |            [0]: 0 x 0x14-0x14.7 (1)
    |                                               |                |    [2]{}: section 0x15-0x26.7 (18)
0x10|               07                              |     .          |      id: "export section" (7) 0x15-0x15.7 (1)
0x10|                  10                           |      .         |      size: 16 0x16-0x16.7 (1)
    |                                               |                |      content{}: 0x17-0x26.7 (16)
    |                                               |                |        ex{}: 0x17-0x26.7 (16)
0x10|                     01                        |       .        |          n: 1 0x17-0x17.7 (1)
    |                                               |                |          x[0:1]: 0x18-0x26.7 (15)
    |                                               |                |            [0]{}: ex 0x18-0x26.7 (15)
    |                                               |                |              nm{}: 0x18-0x24.7 (13)
0x10|                        0c                     |        .       |                n: 12 0x18-0x18.7 (1)
0x10|                           6c 6c 76 6d 5f 70 72|         llvm_pr|                b: "llvm_pr27036" 0x19-0x24.7 (12)
0x20|32 37 30 33 36                                 |27036           |
    |                                               |                |              d{}: 0x25-0x26.7 (2)
0x20|               00                              |     .          |                tag: "funcidx" (0x0) 0x25-0x25.7 (1)
0x20|                  00                           |      .         |                x: 0 0x26-0x26.7 (1)
    |                                               |                |    [3]{}: section 0x27-0x3f.7 (25)
0x20|                     0a                        |       .        |      id: "code section" (10) 0x27-0x27.7 (1)
0x20|                        17                     |        .       |      size: 23 0x28-0x28.7 (1)
    |                                               |                |      content{}: 0x29-0x3f.7 (23)
    |                                               |                |        code{}: 0x29-0x3f.7 (23)
0x20|                           01                  |         .      |          n: 1 0x29-0x29.7 (1)
    |                                               |                |          x[0:1]: 0x2a-0x3f.7 (22)
    |                                               |                |            [0]{}: code 0x2a-0x3f.7 (22)
0x20|                              15               |          .     |              size: 21 0x2a-0x2a.7 (1)
    |                                               |                |              code{}: 0x2b-0x3f.7 (21)
    |                                               |                |                t{}: 0x2b-0x2b.7 (1)
0x20|                                 00            |           .    |                  n: 0 0x2b-0x2b.7 (1)
    |                                               |                |                  x[0:0]: 0x2c-NA (0)
    |                                               |                |                e[0:10]: 0x2c-0x3f.7 (20)
    |                                               |                |                  [0]{}: in 0x2c-0x2d.7 (2)
0x20|                                    20         |                |                    local.get: 0x20 (valid) 0x2c-0x2c.7 (1)
0x20|                                       00      |             .  |                    x: 0 0x2d-0x2d.7 (1)
    |                                               |                |                  [1]{}: in 0x2e-0x32.7 (5)
0x20|                                          41   |              A |                    i32.const: 0x41 (valid) 0x2e-0x2e.7 (1)
0x20|                                             cb|               .|                    n: -25034805 0x2f-0x32.7 (4)
0x30|ff 87 74                                       |..t             |
    |                                               |                |                  [2]{}: in 0x33-0x33.7 (1)
0x30|         72                                    |   r            |                    i32.or: 0x72 (valid) 0x33-0x33.7 (1)
    |                                               |                |                  [3]{}: in 0x34-0x34.7 (1)
0x30|            b2                                 |    .           |                    f32.convert_i32_s: 0xb2 (valid) 0x34-0x34.7 (1)
    |                                               |                |                  [4]{}: in 0x35-0x36.7 (2)
0x30|               20                              |                |                    local.get: 0x20 (valid) 0x35-0x35.7 (1)
0x30|                  01                           |      .         |                    x: 1 0x36-0x36.7 (1)
    |                                               |                |                  [5]{}: in 0x37-0x3b.7 (5)
0x30|                     41                        |       A        |                    i32.const: 0x41 (valid) 0x37-0x37.7 (1)
0x30|                        80 80 90 07            |        ....    |                    n: 14942208 0x38-0x3b.7 (4)
    |                                               |                |                  [6]{}: in 0x3c-0x3c.7 (1)
0x30|                                    71         |            q   |                    i32.and: 0x71 (valid) 0x3c-0x3c.7 (1)
    |                                               |                |                  [7]{}: in 0x3d-0x3d.7 (1)
0x30|                                       b2      |             .  |                    f32.convert_i32_s: 0xb2 (valid) 0x3d-0x3d.7 (1)
    |                                               |                |                  [8]{}: in 0x3e-0x3e.7 (1)
0x30|                                          92   |              . |                    f32.add: 0x92 (valid) 0x3e-0x3e.7 (1)
    |                                               |                |                  [9]{}: in 0x3f-0x3f.7 (1)
0x30|                                             0b|               .|                    end: 0xb (valid) 0x3f-0x3f.7 (1)
