$ fq -d wasm dv float_exprs-76.wasm
    |00 01 02 03 04 05 06 07 08 09 0a 0b 0c 0d 0e 0f|0123456789abcdef|.{}: float_exprs-76.wasm (wasm) 0x0-0xf6 (246)
0x00|00 61 73 6d                                    |.asm            |  magic: raw bits (valid) 0x0-0x4 (4)
0x00|            01 00 00 00                        |    ....        |  version: 1 0x4-0x8 (4)
    |                                               |                |  sections[0:4]: 0x8-0xf6 (238)
    |                                               |                |    [0]{}: section 0x8-0x1d (21)
0x00|                        01                     |        .       |      id: "type_section" (1) 0x8-0x9 (1)
0x00|                           13                  |         .      |      size: 19 (valid) 0x9-0xa (1)
    |                                               |                |      content{}: 0xa-0x1d (19)
    |                                               |                |        ft{}: 0xa-0x1d (19)
0x00|                              03               |          .     |          n: 3 (valid) 0xa-0xb (1)
    |                                               |                |          x[0:3]: 0xb-0x1d (18)
    |                                               |                |            [0]{}: ft 0xb-0x11 (6)
0x00|                                 60            |           `    |              tag: 0x60 (valid) 0xb-0xc (1)
    |                                               |                |              rt1{}: 0xc-0xf (3)
0x00|                                    02         |            .   |                n: 2 (valid) 0xc-0xd (1)
    |                                               |                |                x[0:2]: 0xd-0xf (2)
0x00|                                       7d      |             }  |                  [0]: "f32" (0x7d) t 0xd-0xe (1)
0x00|                                          7d   |              } |                  [1]: "f32" (0x7d) t 0xe-0xf (1)
    |                                               |                |              rt2{}: 0xf-0x11 (2)
0x00|                                             01|               .|                n: 1 (valid) 0xf-0x10 (1)
    |                                               |                |                x[0:1]: 0x10-0x11 (1)
0x10|7f                                             |.               |                  [0]: "i32" (0x7f) t 0x10-0x11 (1)
    |                                               |                |            [1]{}: ft 0x11-0x17 (6)
0x10|   60                                          | `              |              tag: 0x60 (valid) 0x11-0x12 (1)
    |                                               |                |              rt1{}: 0x12-0x15 (3)
0x10|      02                                       |  .             |                n: 2 (valid) 0x12-0x13 (1)
    |                                               |                |                x[0:2]: 0x13-0x15 (2)
0x10|         7c                                    |   |            |                  [0]: "f64" (0x7c) t 0x13-0x14 (1)
0x10|            7c                                 |    |           |                  [1]: "f64" (0x7c) t 0x14-0x15 (1)
    |                                               |                |              rt2{}: 0x15-0x17 (2)
0x10|               01                              |     .          |                n: 1 (valid) 0x15-0x16 (1)
    |                                               |                |                x[0:1]: 0x16-0x17 (1)
0x10|                  7f                           |      .         |                  [0]: "i32" (0x7f) t 0x16-0x17 (1)
    |                                               |                |            [2]{}: ft 0x17-0x1d (6)
0x10|                     60                        |       `        |              tag: 0x60 (valid) 0x17-0x18 (1)
    |                                               |                |              rt1{}: 0x18-0x1b (3)
0x10|                        02                     |        .       |                n: 2 (valid) 0x18-0x19 (1)
    |                                               |                |                x[0:2]: 0x19-0x1b (2)
0x10|                           7c                  |         |      |                  [0]: "f64" (0x7c) t 0x19-0x1a (1)
0x10|                              7d               |          }     |                  [1]: "f32" (0x7d) t 0x1a-0x1b (1)
    |                                               |                |              rt2{}: 0x1b-0x1d (2)
0x10|                                 01            |           .    |                n: 1 (valid) 0x1b-0x1c (1)
    |                                               |                |                x[0:1]: 0x1c-0x1d (1)
0x10|                                    7d         |            }   |                  [0]: "f32" (0x7d) t 0x1c-0x1d (1)
    |                                               |                |    [1]{}: section 0x1d-0x27 (10)
0x10|                                       03      |             .  |      id: "function_section" (3) 0x1d-0x1e (1)
0x10|                                          08   |              . |      size: 8 (valid) 0x1e-0x1f (1)
    |                                               |                |      content{}: 0x1f-0x27 (8)
    |                                               |                |        x{}: 0x1f-0x27 (8)
0x10|                                             07|               .|          n: 7 (valid) 0x1f-0x20 (1)
    |                                               |                |          x[0:7]: 0x20-0x27 (7)
0x20|00                                             |.               |            [0]: 0 x (valid) 0x20-0x21 (1)
0x20|   00                                          | .              |            [1]: 0 x (valid) 0x21-0x22 (1)
0x20|      00                                       |  .             |            [2]: 0 x (valid) 0x22-0x23 (1)
0x20|         01                                    |   .            |            [3]: 1 x (valid) 0x23-0x24 (1)
0x20|            01                                 |    .           |            [4]: 1 x (valid) 0x24-0x25 (1)
0x20|               01                              |     .          |            [5]: 1 x (valid) 0x25-0x26 (1)
0x20|                  02                           |      .         |            [6]: 2 x (valid) 0x26-0x27 (1)
    |                                               |                |    [2]{}: section 0x27-0xa8 (129)
0x20|                     07                        |       .        |      id: "export_section" (7) 0x27-0x28 (1)
0x20|                        7f                     |        .       |      size: 127 (valid) 0x28-0x29 (1)
    |                                               |                |      content{}: 0x29-0xa8 (127)
    |                                               |                |        ex{}: 0x29-0xa8 (127)
0x20|                           07                  |         .      |          n: 7 (valid) 0x29-0x2a (1)
    |                                               |                |          x[0:7]: 0x2a-0xa8 (126)
    |                                               |                |            [0]{}: ex 0x2a-0x3c (18)
    |                                               |                |              nm{}: 0x2a-0x3a (16)
0x20|                              0f               |          .     |                n: 15 (valid) 0x2a-0x2b (1)
0x20|                                 66 33 32 2e 72|           f32.r|                b: "f32.recoding_eq" 0x2b-0x3a (15)
0x30|65 63 6f 64 69 6e 67 5f 65 71                  |ecoding_eq      |
    |                                               |                |              d{}: 0x3a-0x3c (2)
0x30|                              00               |          .     |                tag: "funcidx" (0x0) 0x3a-0x3b (1)
0x30|                                 00            |           .    |                x: 0 (valid) 0x3b-0x3c (1)
    |                                               |                |            [1]{}: ex 0x3c-0x4e (18)
    |                                               |                |              nm{}: 0x3c-0x4c (16)
0x30|                                    0f         |            .   |                n: 15 (valid) 0x3c-0x3d (1)
0x30|                                       66 33 32|             f32|                b: "f32.recoding_le" 0x3d-0x4c (15)
0x40|2e 72 65 63 6f 64 69 6e 67 5f 6c 65            |.recoding_le    |
    |                                               |                |              d{}: 0x4c-0x4e (2)
0x40|                                    00         |            .   |                tag: "funcidx" (0x0) 0x4c-0x4d (1)
0x40|                                       01      |             .  |                x: 1 (valid) 0x4d-0x4e (1)
    |                                               |                |            [2]{}: ex 0x4e-0x60 (18)
    |                                               |                |              nm{}: 0x4e-0x5e (16)
0x40|                                          0f   |              . |                n: 15 (valid) 0x4e-0x4f (1)
0x40|                                             66|               f|                b: "f32.recoding_lt" 0x4f-0x5e (15)
0x50|33 32 2e 72 65 63 6f 64 69 6e 67 5f 6c 74      |32.recoding_lt  |
    |                                               |                |              d{}: 0x5e-0x60 (2)
0x50|                                          00   |              . |                tag: "funcidx" (0x0) 0x5e-0x5f (1)
0x50|                                             02|               .|                x: 2 (valid) 0x5f-0x60 (1)
    |                                               |                |            [3]{}: ex 0x60-0x72 (18)
    |                                               |                |              nm{}: 0x60-0x70 (16)
0x60|0f                                             |.               |                n: 15 (valid) 0x60-0x61 (1)
0x60|   66 36 34 2e 72 65 63 6f 64 69 6e 67 5f 65 71| f64.recoding_eq|                b: "f64.recoding_eq" 0x61-0x70 (15)
    |                                               |                |              d{}: 0x70-0x72 (2)
0x70|00                                             |.               |                tag: "funcidx" (0x0) 0x70-0x71 (1)
0x70|   03                                          | .              |                x: 3 (valid) 0x71-0x72 (1)
    |                                               |                |            [4]{}: ex 0x72-0x84 (18)
    |                                               |                |              nm{}: 0x72-0x82 (16)
0x70|      0f                                       |  .             |                n: 15 (valid) 0x72-0x73 (1)
0x70|         66 36 34 2e 72 65 63 6f 64 69 6e 67 5f|   f64.recoding_|                b: "f64.recoding_le" 0x73-0x82 (15)
0x80|6c 65                                          |le              |
    |                                               |                |              d{}: 0x82-0x84 (2)
0x80|      00                                       |  .             |                tag: "funcidx" (0x0) 0x82-0x83 (1)
0x80|         04                                    |   .            |                x: 4 (valid) 0x83-0x84 (1)
    |                                               |                |            [5]{}: ex 0x84-0x96 (18)
    |                                               |                |              nm{}: 0x84-0x94 (16)
0x80|            0f                                 |    .           |                n: 15 (valid) 0x84-0x85 (1)
0x80|               66 36 34 2e 72 65 63 6f 64 69 6e|     f64.recodin|                b: "f64.recoding_lt" 0x85-0x94 (15)
0x90|67 5f 6c 74                                    |g_lt            |
    |                                               |                |              d{}: 0x94-0x96 (2)
0x90|            00                                 |    .           |                tag: "funcidx" (0x0) 0x94-0x95 (1)
0x90|               05                              |     .          |                x: 5 (valid) 0x95-0x96 (1)
    |                                               |                |            [6]{}: ex 0x96-0xa8 (18)
    |                                               |                |              nm{}: 0x96-0xa6 (16)
0x90|                  0f                           |      .         |                n: 15 (valid) 0x96-0x97 (1)
0x90|                     72 65 63 6f 64 69 6e 67 5f|       recoding_|                b: "recoding_demote" 0x97-0xa6 (15)
0xa0|64 65 6d 6f 74 65                              |demote          |
    |                                               |                |              d{}: 0xa6-0xa8 (2)
0xa0|                  00                           |      .         |                tag: "funcidx" (0x0) 0xa6-0xa7 (1)
0xa0|                     06                        |       .        |                x: 6 (valid) 0xa7-0xa8 (1)
    |                                               |                |    [3]{}: section 0xa8-0xf6 (78)
0xa0|                        0a                     |        .       |      id: "code_section" (10) 0xa8-0xa9 (1)
0xa0|                           4c                  |         L      |      size: 76 (valid) 0xa9-0xaa (1)
    |                                               |                |      content{}: 0xaa-0xf6 (76)
    |                                               |                |        code{}: 0xaa-0xf6 (76)
0xa0|                              07               |          .     |          n: 7 (valid) 0xaa-0xab (1)
    |                                               |                |          x[0:7]: 0xab-0xf6 (75)
    |                                               |                |            [0]{}: code 0xab-0xb6 (11)
0xa0|                                 0a            |           .    |              size: 10 (valid) 0xab-0xac (1)
    |                                               |                |              code{}: 0xac-0xb6 (10)
    |                                               |                |                t{}: 0xac-0xad (1)
0xa0|                                    00         |            .   |                  n: 0 (valid) 0xac-0xad (1)
    |                                               |                |                  x[0:0]: 0xad-0xad (0)
    |                                               |                |                e[0:6]: 0xad-0xb6 (9)
    |                                               |                |                  [0]{}: in 0xad-0xaf (2)
0xa0|                                       20      |                |                    opcode: "local.get" (0x20) 0xad-0xae (1)
0xa0|                                          00   |              . |                    x: 0 (valid) 0xae-0xaf (1)
    |                                               |                |                  [1]{}: in 0xaf-0xb1 (2)
0xa0|                                             20|                |                    opcode: "local.get" (0x20) 0xaf-0xb0 (1)
0xb0|01                                             |.               |                    x: 1 (valid) 0xb0-0xb1 (1)
    |                                               |                |                  [2]{}: in 0xb1-0xb2 (1)
0xb0|   94                                          | .              |                    opcode: "f32.mul" (0x94) 0xb1-0xb2 (1)
    |                                               |                |                  [3]{}: in 0xb2-0xb4 (2)
0xb0|      20                                       |                |                    opcode: "local.get" (0x20) 0xb2-0xb3 (1)
0xb0|         00                                    |   .            |                    x: 0 (valid) 0xb3-0xb4 (1)
    |                                               |                |                  [4]{}: in 0xb4-0xb5 (1)
0xb0|            5b                                 |    [           |                    opcode: "f32.eq" (0x5b) 0xb4-0xb5 (1)
    |                                               |                |                  [5]{}: in 0xb5-0xb6 (1)
0xb0|               0b                              |     .          |                    opcode: "end" (0xb) 0xb5-0xb6 (1)
    |                                               |                |            [1]{}: code 0xb6-0xc1 (11)
0xb0|                  0a                           |      .         |              size: 10 (valid) 0xb6-0xb7 (1)
    |                                               |                |              code{}: 0xb7-0xc1 (10)
    |                                               |                |                t{}: 0xb7-0xb8 (1)
0xb0|                     00                        |       .        |                  n: 0 (valid) 0xb7-0xb8 (1)
    |                                               |                |                  x[0:0]: 0xb8-0xb8 (0)
    |                                               |                |                e[0:6]: 0xb8-0xc1 (9)
    |                                               |                |                  [0]{}: in 0xb8-0xba (2)
0xb0|                        20                     |                |                    opcode: "local.get" (0x20) 0xb8-0xb9 (1)
0xb0|                           00                  |         .      |                    x: 0 (valid) 0xb9-0xba (1)
    |                                               |                |                  [1]{}: in 0xba-0xbc (2)
0xb0|                              20               |                |                    opcode: "local.get" (0x20) 0xba-0xbb (1)
0xb0|                                 01            |           .    |                    x: 1 (valid) 0xbb-0xbc (1)
    |                                               |                |                  [2]{}: in 0xbc-0xbd (1)
0xb0|                                    94         |            .   |                    opcode: "f32.mul" (0x94) 0xbc-0xbd (1)
    |                                               |                |                  [3]{}: in 0xbd-0xbf (2)
0xb0|                                       20      |                |                    opcode: "local.get" (0x20) 0xbd-0xbe (1)
0xb0|                                          00   |              . |                    x: 0 (valid) 0xbe-0xbf (1)
    |                                               |                |                  [4]{}: in 0xbf-0xc0 (1)
0xb0|                                             5f|               _|                    opcode: "f32.le" (0x5f) 0xbf-0xc0 (1)
    |                                               |                |                  [5]{}: in 0xc0-0xc1 (1)
0xc0|0b                                             |.               |                    opcode: "end" (0xb) 0xc0-0xc1 (1)
    |                                               |                |            [2]{}: code 0xc1-0xcc (11)
0xc0|   0a                                          | .              |              size: 10 (valid) 0xc1-0xc2 (1)
    |                                               |                |              code{}: 0xc2-0xcc (10)
    |                                               |                |                t{}: 0xc2-0xc3 (1)
0xc0|      00                                       |  .             |                  n: 0 (valid) 0xc2-0xc3 (1)
    |                                               |                |                  x[0:0]: 0xc3-0xc3 (0)
    |                                               |                |                e[0:6]: 0xc3-0xcc (9)
    |                                               |                |                  [0]{}: in 0xc3-0xc5 (2)
0xc0|         20                                    |                |                    opcode: "local.get" (0x20) 0xc3-0xc4 (1)
0xc0|            00                                 |    .           |                    x: 0 (valid) 0xc4-0xc5 (1)
    |                                               |                |                  [1]{}: in 0xc5-0xc7 (2)
0xc0|               20                              |                |                    opcode: "local.get" (0x20) 0xc5-0xc6 (1)
0xc0|                  01                           |      .         |                    x: 1 (valid) 0xc6-0xc7 (1)
    |                                               |                |                  [2]{}: in 0xc7-0xc8 (1)
0xc0|                     94                        |       .        |                    opcode: "f32.mul" (0x94) 0xc7-0xc8 (1)
    |                                               |                |                  [3]{}: in 0xc8-0xca (2)
0xc0|                        20                     |                |                    opcode: "local.get" (0x20) 0xc8-0xc9 (1)
0xc0|                           00                  |         .      |                    x: 0 (valid) 0xc9-0xca (1)
    |                                               |                |                  [4]{}: in 0xca-0xcb (1)
0xc0|                              5d               |          ]     |                    opcode: "f32.lt" (0x5d) 0xca-0xcb (1)
    |                                               |                |                  [5]{}: in 0xcb-0xcc (1)
0xc0|                                 0b            |           .    |                    opcode: "end" (0xb) 0xcb-0xcc (1)
    |                                               |                |            [3]{}: code 0xcc-0xd7 (11)
0xc0|                                    0a         |            .   |              size: 10 (valid) 0xcc-0xcd (1)
    |                                               |                |              code{}: 0xcd-0xd7 (10)
    |                                               |                |                t{}: 0xcd-0xce (1)
0xc0|                                       00      |             .  |                  n: 0 (valid) 0xcd-0xce (1)
    |                                               |                |                  x[0:0]: 0xce-0xce (0)
    |                                               |                |                e[0:6]: 0xce-0xd7 (9)
    |                                               |                |                  [0]{}: in 0xce-0xd0 (2)
0xc0|                                          20   |                |                    opcode: "local.get" (0x20) 0xce-0xcf (1)
0xc0|                                             00|               .|                    x: 0 (valid) 0xcf-0xd0 (1)
    |                                               |                |                  [1]{}: in 0xd0-0xd2 (2)
0xd0|20                                             |                |                    opcode: "local.get" (0x20) 0xd0-0xd1 (1)
0xd0|   01                                          | .              |                    x: 1 (valid) 0xd1-0xd2 (1)
    |                                               |                |                  [2]{}: in 0xd2-0xd3 (1)
0xd0|      a2                                       |  .             |                    opcode: "f64.mul" (0xa2) 0xd2-0xd3 (1)
    |                                               |                |                  [3]{}: in 0xd3-0xd5 (2)
0xd0|         20                                    |                |                    opcode: "local.get" (0x20) 0xd3-0xd4 (1)
0xd0|            00                                 |    .           |                    x: 0 (valid) 0xd4-0xd5 (1)
    |                                               |                |                  [4]{}: in 0xd5-0xd6 (1)
0xd0|               61                              |     a          |                    opcode: "f64.eq" (0x61) 0xd5-0xd6 (1)
    |                                               |                |                  [5]{}: in 0xd6-0xd7 (1)
0xd0|                  0b                           |      .         |                    opcode: "end" (0xb) 0xd6-0xd7 (1)
    |                                               |                |            [4]{}: code 0xd7-0xe2 (11)
0xd0|                     0a                        |       .        |              size: 10 (valid) 0xd7-0xd8 (1)
    |                                               |                |              code{}: 0xd8-0xe2 (10)
    |                                               |                |                t{}: 0xd8-0xd9 (1)
0xd0|                        00                     |        .       |                  n: 0 (valid) 0xd8-0xd9 (1)
    |                                               |                |                  x[0:0]: 0xd9-0xd9 (0)
    |                                               |                |                e[0:6]: 0xd9-0xe2 (9)
    |                                               |                |                  [0]{}: in 0xd9-0xdb (2)
0xd0|                           20                  |                |                    opcode: "local.get" (0x20) 0xd9-0xda (1)
0xd0|                              00               |          .     |                    x: 0 (valid) 0xda-0xdb (1)
    |                                               |                |                  [1]{}: in 0xdb-0xdd (2)
0xd0|                                 20            |                |                    opcode: "local.get" (0x20) 0xdb-0xdc (1)
0xd0|                                    01         |            .   |                    x: 1 (valid) 0xdc-0xdd (1)
    |                                               |                |                  [2]{}: in 0xdd-0xde (1)
0xd0|                                       a2      |             .  |                    opcode: "f64.mul" (0xa2) 0xdd-0xde (1)
    |                                               |                |                  [3]{}: in 0xde-0xe0 (2)
0xd0|                                          20   |                |                    opcode: "local.get" (0x20) 0xde-0xdf (1)
0xd0|                                             00|               .|                    x: 0 (valid) 0xdf-0xe0 (1)
    |                                               |                |                  [4]{}: in 0xe0-0xe1 (1)
0xe0|65                                             |e               |                    opcode: "f64.le" (0x65) 0xe0-0xe1 (1)
    |                                               |                |                  [5]{}: in 0xe1-0xe2 (1)
0xe0|   0b                                          | .              |                    opcode: "end" (0xb) 0xe1-0xe2 (1)
    |                                               |                |            [5]{}: code 0xe2-0xed (11)
0xe0|      0a                                       |  .             |              size: 10 (valid) 0xe2-0xe3 (1)
    |                                               |                |              code{}: 0xe3-0xed (10)
    |                                               |                |                t{}: 0xe3-0xe4 (1)
0xe0|         00                                    |   .            |                  n: 0 (valid) 0xe3-0xe4 (1)
    |                                               |                |                  x[0:0]: 0xe4-0xe4 (0)
    |                                               |                |                e[0:6]: 0xe4-0xed (9)
    |                                               |                |                  [0]{}: in 0xe4-0xe6 (2)
0xe0|            20                                 |                |                    opcode: "local.get" (0x20) 0xe4-0xe5 (1)
0xe0|               00                              |     .          |                    x: 0 (valid) 0xe5-0xe6 (1)
    |                                               |                |                  [1]{}: in 0xe6-0xe8 (2)
0xe0|                  20                           |                |                    opcode: "local.get" (0x20) 0xe6-0xe7 (1)
0xe0|                     01                        |       .        |                    x: 1 (valid) 0xe7-0xe8 (1)
    |                                               |                |                  [2]{}: in 0xe8-0xe9 (1)
0xe0|                        a2                     |        .       |                    opcode: "f64.mul" (0xa2) 0xe8-0xe9 (1)
    |                                               |                |                  [3]{}: in 0xe9-0xeb (2)
0xe0|                           20                  |                |                    opcode: "local.get" (0x20) 0xe9-0xea (1)
0xe0|                              00               |          .     |                    x: 0 (valid) 0xea-0xeb (1)
    |                                               |                |                  [4]{}: in 0xeb-0xec (1)
0xe0|                                 63            |           c    |                    opcode: "f64.lt" (0x63) 0xeb-0xec (1)
    |                                               |                |                  [5]{}: in 0xec-0xed (1)
0xe0|                                    0b         |            .   |                    opcode: "end" (0xb) 0xec-0xed (1)
    |                                               |                |            [6]{}: code 0xed-0xf6 (9)
0xe0|                                       08      |             .  |              size: 8 (valid) 0xed-0xee (1)
    |                                               |                |              code{}: 0xee-0xf6 (8)
    |                                               |                |                t{}: 0xee-0xef (1)
0xe0|                                          00   |              . |                  n: 0 (valid) 0xee-0xef (1)
    |                                               |                |                  x[0:0]: 0xef-0xef (0)
    |                                               |                |                e[0:5]: 0xef-0xf6 (7)
    |                                               |                |                  [0]{}: in 0xef-0xf1 (2)
0xe0|                                             20|                |                    opcode: "local.get" (0x20) 0xef-0xf0 (1)
0xf0|00                                             |.               |                    x: 0 (valid) 0xf0-0xf1 (1)
    |                                               |                |                  [1]{}: in 0xf1-0xf2 (1)
0xf0|   b6                                          | .              |                    opcode: "f32.demote_f64" (0xb6) 0xf1-0xf2 (1)
    |                                               |                |                  [2]{}: in 0xf2-0xf4 (2)
0xf0|      20                                       |                |                    opcode: "local.get" (0x20) 0xf2-0xf3 (1)
0xf0|         01                                    |   .            |                    x: 1 (valid) 0xf3-0xf4 (1)
    |                                               |                |                  [3]{}: in 0xf4-0xf5 (1)
0xf0|            94                                 |    .           |                    opcode: "f32.mul" (0x94) 0xf4-0xf5 (1)
    |                                               |                |                  [4]{}: in 0xf5-0xf6 (1)
0xf0|               0b|                             |     .|         |                    opcode: "end" (0xb) 0xf5-0xf6 (1)
