$ fq -d wasm dv float_exprs-87.wasm
     |00 01 02 03 04 05 06 07 08 09 0a 0b 0c 0d 0e 0f|0123456789abcdef|.{}: float_exprs-87.wasm (wasm) 0x0-0x3c4 (964)
0x000|00 61 73 6d                                    |.asm            |  magic: raw bits (valid) 0x0-0x4 (4)
0x000|            01 00 00 00                        |    ....        |  version: 1 0x4-0x8 (4)
     |                                               |                |  sections[0:4]: 0x8-0x3c4 (956)
     |                                               |                |    [0]{}: section 0x8-0x21 (25)
0x000|                        01                     |        .       |      id: "type_section" (1) 0x8-0x9 (1)
0x000|                           17                  |         .      |      size: 23 (valid) 0x9-0xa (1)
     |                                               |                |      content{}: 0xa-0x21 (23)
     |                                               |                |        ft{}: 0xa-0x21 (23)
0x000|                              04               |          .     |          n: 4 (valid) 0xa-0xb (1)
     |                                               |                |          x[0:4]: 0xb-0x21 (22)
     |                                               |                |            [0]{}: ft 0xb-0x11 (6)
0x000|                                 60            |           `    |              tag: 0x60 (valid) 0xb-0xc (1)
     |                                               |                |              rt1{}: 0xc-0xf (3)
0x000|                                    02         |            .   |                n: 2 (valid) 0xc-0xd (1)
     |                                               |                |                x[0:2]: 0xd-0xf (2)
0x000|                                       7f      |             .  |                  [0]: "i32" (0x7f) t 0xd-0xe (1)
0x000|                                          7f   |              . |                  [1]: "i32" (0x7f) t 0xe-0xf (1)
     |                                               |                |              rt2{}: 0xf-0x11 (2)
0x000|                                             01|               .|                n: 1 (valid) 0xf-0x10 (1)
     |                                               |                |                x[0:1]: 0x10-0x11 (1)
0x010|7f                                             |.               |                  [0]: "i32" (0x7f) t 0x10-0x11 (1)
     |                                               |                |            [1]{}: ft 0x11-0x16 (5)
0x010|   60                                          | `              |              tag: 0x60 (valid) 0x11-0x12 (1)
     |                                               |                |              rt1{}: 0x12-0x14 (2)
0x010|      01                                       |  .             |                n: 1 (valid) 0x12-0x13 (1)
     |                                               |                |                x[0:1]: 0x13-0x14 (1)
0x010|         7f                                    |   .            |                  [0]: "i32" (0x7f) t 0x13-0x14 (1)
     |                                               |                |              rt2{}: 0x14-0x16 (2)
0x010|            01                                 |    .           |                n: 1 (valid) 0x14-0x15 (1)
     |                                               |                |                x[0:1]: 0x15-0x16 (1)
0x010|               7f                              |     .          |                  [0]: "i32" (0x7f) t 0x15-0x16 (1)
     |                                               |                |            [2]{}: ft 0x16-0x1c (6)
0x010|                  60                           |      `         |              tag: 0x60 (valid) 0x16-0x17 (1)
     |                                               |                |              rt1{}: 0x17-0x1a (3)
0x010|                     02                        |       .        |                n: 2 (valid) 0x17-0x18 (1)
     |                                               |                |                x[0:2]: 0x18-0x1a (2)
0x010|                        7e                     |        ~       |                  [0]: "i64" (0x7e) t 0x18-0x19 (1)
0x010|                           7e                  |         ~      |                  [1]: "i64" (0x7e) t 0x19-0x1a (1)
     |                                               |                |              rt2{}: 0x1a-0x1c (2)
0x010|                              01               |          .     |                n: 1 (valid) 0x1a-0x1b (1)
     |                                               |                |                x[0:1]: 0x1b-0x1c (1)
0x010|                                 7e            |           ~    |                  [0]: "i64" (0x7e) t 0x1b-0x1c (1)
     |                                               |                |            [3]{}: ft 0x1c-0x21 (5)
0x010|                                    60         |            `   |              tag: 0x60 (valid) 0x1c-0x1d (1)
     |                                               |                |              rt1{}: 0x1d-0x1f (2)
0x010|                                       01      |             .  |                n: 1 (valid) 0x1d-0x1e (1)
     |                                               |                |                x[0:1]: 0x1e-0x1f (1)
0x010|                                          7e   |              ~ |                  [0]: "i64" (0x7e) t 0x1e-0x1f (1)
     |                                               |                |              rt2{}: 0x1f-0x21 (2)
0x010|                                             01|               .|                n: 1 (valid) 0x1f-0x20 (1)
     |                                               |                |                x[0:1]: 0x20-0x21 (1)
0x020|7e                                             |~               |                  [0]: "i64" (0x7e) t 0x20-0x21 (1)
     |                                               |                |    [1]{}: section 0x21-0x37 (22)
0x020|   03                                          | .              |      id: "function_section" (3) 0x21-0x22 (1)
0x020|      14                                       |  .             |      size: 20 (valid) 0x22-0x23 (1)
     |                                               |                |      content{}: 0x23-0x37 (20)
     |                                               |                |        x{}: 0x23-0x37 (20)
0x020|         13                                    |   .            |          n: 19 (valid) 0x23-0x24 (1)
     |                                               |                |          x[0:19]: 0x24-0x37 (19)
0x020|            00                                 |    .           |            [0]: 0 x (valid) 0x24-0x25 (1)
0x020|               00                              |     .          |            [1]: 0 x (valid) 0x25-0x26 (1)
0x020|                  01                           |      .         |            [2]: 1 x (valid) 0x26-0x27 (1)
0x020|                     02                        |       .        |            [3]: 2 x (valid) 0x27-0x28 (1)
0x020|                        02                     |        .       |            [4]: 2 x (valid) 0x28-0x29 (1)
0x020|                           03                  |         .      |            [5]: 3 x (valid) 0x29-0x2a (1)
0x020|                              01               |          .     |            [6]: 1 x (valid) 0x2a-0x2b (1)
0x020|                                 01            |           .    |            [7]: 1 x (valid) 0x2b-0x2c (1)
0x020|                                    01         |            .   |            [8]: 1 x (valid) 0x2c-0x2d (1)
0x020|                                       01      |             .  |            [9]: 1 x (valid) 0x2d-0x2e (1)
0x020|                                          01   |              . |            [10]: 1 x (valid) 0x2e-0x2f (1)
0x020|                                             01|               .|            [11]: 1 x (valid) 0x2f-0x30 (1)
0x030|03                                             |.               |            [12]: 3 x (valid) 0x30-0x31 (1)
0x030|   03                                          | .              |            [13]: 3 x (valid) 0x31-0x32 (1)
0x030|      03                                       |  .             |            [14]: 3 x (valid) 0x32-0x33 (1)
0x030|         03                                    |   .            |            [15]: 3 x (valid) 0x33-0x34 (1)
0x030|            03                                 |    .           |            [16]: 3 x (valid) 0x34-0x35 (1)
0x030|               03                              |     .          |            [17]: 3 x (valid) 0x35-0x36 (1)
0x030|                  01                           |      .         |            [18]: 1 x (valid) 0x36-0x37 (1)
     |                                               |                |    [2]{}: section 0x37-0x228 (497)
0x030|                     07                        |       .        |      id: "export_section" (7) 0x37-0x38 (1)
0x030|                        ee 03                  |        ..      |      size: 494 (valid) 0x38-0x3a (2)
     |                                               |                |      content{}: 0x3a-0x228 (494)
     |                                               |                |        ex{}: 0x3a-0x228 (494)
0x030|                              13               |          .     |          n: 19 (valid) 0x3a-0x3b (1)
     |                                               |                |          x[0:19]: 0x3b-0x228 (493)
     |                                               |                |            [0]{}: ex 0x3b-0x5b (32)
     |                                               |                |              nm{}: 0x3b-0x59 (30)
0x030|                                 1d            |           .    |                n: 29 (valid) 0x3b-0x3c (1)
0x030|                                    66 33 32 2e|            f32.|                b: "f32.arithmetic_nan_bitpattern" 0x3c-0x59 (29)
0x040|61 72 69 74 68 6d 65 74 69 63 5f 6e 61 6e 5f 62|arithmetic_nan_b|
0x050|69 74 70 61 74 74 65 72 6e                     |itpattern       |
     |                                               |                |              d{}: 0x59-0x5b (2)
0x050|                           00                  |         .      |                tag: "funcidx" (0x0) 0x59-0x5a (1)
0x050|                              00               |          .     |                x: 0 (valid) 0x5a-0x5b (1)
     |                                               |                |            [1]{}: ex 0x5b-0x7a (31)
     |                                               |                |              nm{}: 0x5b-0x78 (29)
0x050|                                 1c            |           .    |                n: 28 (valid) 0x5b-0x5c (1)
0x050|                                    66 33 32 2e|            f32.|                b: "f32.canonical_nan_bitpattern" 0x5c-0x78 (28)
0x060|63 61 6e 6f 6e 69 63 61 6c 5f 6e 61 6e 5f 62 69|canonical_nan_bi|
0x070|74 70 61 74 74 65 72 6e                        |tpattern        |
     |                                               |                |              d{}: 0x78-0x7a (2)
0x070|                        00                     |        .       |                tag: "funcidx" (0x0) 0x78-0x79 (1)
0x070|                           01                  |         .      |                x: 1 (valid) 0x79-0x7a (1)
     |                                               |                |            [2]{}: ex 0x7a-0x9d (35)
     |                                               |                |              nm{}: 0x7a-0x9b (33)
0x070|                              20               |                |                n: 32 (valid) 0x7a-0x7b (1)
0x070|                                 66 33 32 2e 6e|           f32.n|                b: "f32.nonarithmetic_nan_bitpattern" 0x7b-0x9b (32)
0x080|6f 6e 61 72 69 74 68 6d 65 74 69 63 5f 6e 61 6e|onarithmetic_nan|
0x090|5f 62 69 74 70 61 74 74 65 72 6e               |_bitpattern     |
     |                                               |                |              d{}: 0x9b-0x9d (2)
0x090|                                 00            |           .    |                tag: "funcidx" (0x0) 0x9b-0x9c (1)
0x090|                                    02         |            .   |                x: 2 (valid) 0x9c-0x9d (1)
     |                                               |                |            [3]{}: ex 0x9d-0xbd (32)
     |                                               |                |              nm{}: 0x9d-0xbb (30)
0x090|                                       1d      |             .  |                n: 29 (valid) 0x9d-0x9e (1)
0x090|                                          66 36|              f6|                b: "f64.arithmetic_nan_bitpattern" 0x9e-0xbb (29)
0x0a0|34 2e 61 72 69 74 68 6d 65 74 69 63 5f 6e 61 6e|4.arithmetic_nan|
0x0b0|5f 62 69 74 70 61 74 74 65 72 6e               |_bitpattern     |
     |                                               |                |              d{}: 0xbb-0xbd (2)
0x0b0|                                 00            |           .    |                tag: "funcidx" (0x0) 0xbb-0xbc (1)
0x0b0|                                    03         |            .   |                x: 3 (valid) 0xbc-0xbd (1)
     |                                               |                |            [4]{}: ex 0xbd-0xdc (31)
     |                                               |                |              nm{}: 0xbd-0xda (29)
0x0b0|                                       1c      |             .  |                n: 28 (valid) 0xbd-0xbe (1)
0x0b0|                                          66 36|              f6|                b: "f64.canonical_nan_bitpattern" 0xbe-0xda (28)
0x0c0|34 2e 63 61 6e 6f 6e 69 63 61 6c 5f 6e 61 6e 5f|4.canonical_nan_|
0x0d0|62 69 74 70 61 74 74 65 72 6e                  |bitpattern      |
     |                                               |                |              d{}: 0xda-0xdc (2)
0x0d0|                              00               |          .     |                tag: "funcidx" (0x0) 0xda-0xdb (1)
0x0d0|                                 04            |           .    |                x: 4 (valid) 0xdb-0xdc (1)
     |                                               |                |            [5]{}: ex 0xdc-0xff (35)
     |                                               |                |              nm{}: 0xdc-0xfd (33)
0x0d0|                                    20         |                |                n: 32 (valid) 0xdc-0xdd (1)
0x0d0|                                       66 36 34|             f64|                b: "f64.nonarithmetic_nan_bitpattern" 0xdd-0xfd (32)
0x0e0|2e 6e 6f 6e 61 72 69 74 68 6d 65 74 69 63 5f 6e|.nonarithmetic_n|
0x0f0|61 6e 5f 62 69 74 70 61 74 74 65 72 6e         |an_bitpattern   |
     |                                               |                |              d{}: 0xfd-0xff (2)
0x0f0|                                       00      |             .  |                tag: "funcidx" (0x0) 0xfd-0xfe (1)
0x0f0|                                          05   |              . |                x: 5 (valid) 0xfe-0xff (1)
     |                                               |                |            [6]{}: ex 0xff-0x116 (23)
     |                                               |                |              nm{}: 0xff-0x114 (21)
0x0f0|                                             14|               .|                n: 20 (valid) 0xff-0x100 (1)
0x100|66 33 32 2e 6e 6f 5f 66 6f 6c 64 5f 73 75 62 5f|f32.no_fold_sub_|                b: "f32.no_fold_sub_zero" 0x100-0x114 (20)
0x110|7a 65 72 6f                                    |zero            |
     |                                               |                |              d{}: 0x114-0x116 (2)
0x110|            00                                 |    .           |                tag: "funcidx" (0x0) 0x114-0x115 (1)
0x110|               06                              |     .          |                x: 6 (valid) 0x115-0x116 (1)
     |                                               |                |            [7]{}: ex 0x116-0x12d (23)
     |                                               |                |              nm{}: 0x116-0x12b (21)
0x110|                  14                           |      .         |                n: 20 (valid) 0x116-0x117 (1)
0x110|                     66 33 32 2e 6e 6f 5f 66 6f|       f32.no_fo|                b: "f32.no_fold_neg0_sub" 0x117-0x12b (20)
0x120|6c 64 5f 6e 65 67 30 5f 73 75 62               |ld_neg0_sub     |
     |                                               |                |              d{}: 0x12b-0x12d (2)
0x120|                                 00            |           .    |                tag: "funcidx" (0x0) 0x12b-0x12c (1)
0x120|                                    07         |            .   |                x: 7 (valid) 0x12c-0x12d (1)
     |                                               |                |            [8]{}: ex 0x12d-0x143 (22)
     |                                               |                |              nm{}: 0x12d-0x141 (20)
0x120|                                       13      |             .  |                n: 19 (valid) 0x12d-0x12e (1)
0x120|                                          66 33|              f3|                b: "f32.no_fold_mul_one" 0x12e-0x141 (19)
0x130|32 2e 6e 6f 5f 66 6f 6c 64 5f 6d 75 6c 5f 6f 6e|2.no_fold_mul_on|
0x140|65                                             |e               |
     |                                               |                |              d{}: 0x141-0x143 (2)
0x140|   00                                          | .              |                tag: "funcidx" (0x0) 0x141-0x142 (1)
0x140|      08                                       |  .             |                x: 8 (valid) 0x142-0x143 (1)
     |                                               |                |            [9]{}: ex 0x143-0x15a (23)
     |                                               |                |              nm{}: 0x143-0x158 (21)
0x140|         14                                    |   .            |                n: 20 (valid) 0x143-0x144 (1)
0x140|            66 33 32 2e 6e 6f 5f 66 6f 6c 64 5f|    f32.no_fold_|                b: "f32.no_fold_neg1_mul" 0x144-0x158 (20)
0x150|6e 65 67 31 5f 6d 75 6c                        |neg1_mul        |
     |                                               |                |              d{}: 0x158-0x15a (2)
0x150|                        00                     |        .       |                tag: "funcidx" (0x0) 0x158-0x159 (1)
0x150|                           09                  |         .      |                x: 9 (valid) 0x159-0x15a (1)
     |                                               |                |            [10]{}: ex 0x15a-0x170 (22)
     |                                               |                |              nm{}: 0x15a-0x16e (20)
0x150|                              13               |          .     |                n: 19 (valid) 0x15a-0x15b (1)
0x150|                                 66 33 32 2e 6e|           f32.n|                b: "f32.no_fold_div_one" 0x15b-0x16e (19)
0x160|6f 5f 66 6f 6c 64 5f 64 69 76 5f 6f 6e 65      |o_fold_div_one  |
     |                                               |                |              d{}: 0x16e-0x170 (2)
0x160|                                          00   |              . |                tag: "funcidx" (0x0) 0x16e-0x16f (1)
0x160|                                             0a|               .|                x: 10 (valid) 0x16f-0x170 (1)
     |                                               |                |            [11]{}: ex 0x170-0x187 (23)
     |                                               |                |              nm{}: 0x170-0x185 (21)
0x170|14                                             |.               |                n: 20 (valid) 0x170-0x171 (1)
0x170|   66 33 32 2e 6e 6f 5f 66 6f 6c 64 5f 64 69 76| f32.no_fold_div|                b: "f32.no_fold_div_neg1" 0x171-0x185 (20)
0x180|5f 6e 65 67 31                                 |_neg1           |
     |                                               |                |              d{}: 0x185-0x187 (2)
0x180|               00                              |     .          |                tag: "funcidx" (0x0) 0x185-0x186 (1)
0x180|                  0b                           |      .         |                x: 11 (valid) 0x186-0x187 (1)
     |                                               |                |            [12]{}: ex 0x187-0x19e (23)
     |                                               |                |              nm{}: 0x187-0x19c (21)
0x180|                     14                        |       .        |                n: 20 (valid) 0x187-0x188 (1)
0x180|                        66 36 34 2e 6e 6f 5f 66|        f64.no_f|                b: "f64.no_fold_sub_zero" 0x188-0x19c (20)
0x190|6f 6c 64 5f 73 75 62 5f 7a 65 72 6f            |old_sub_zero    |
     |                                               |                |              d{}: 0x19c-0x19e (2)
0x190|                                    00         |            .   |                tag: "funcidx" (0x0) 0x19c-0x19d (1)
0x190|                                       0c      |             .  |                x: 12 (valid) 0x19d-0x19e (1)
     |                                               |                |            [13]{}: ex 0x19e-0x1b5 (23)
     |                                               |                |              nm{}: 0x19e-0x1b3 (21)
0x190|                                          14   |              . |                n: 20 (valid) 0x19e-0x19f (1)
0x190|                                             66|               f|                b: "f64.no_fold_neg0_sub" 0x19f-0x1b3 (20)
0x1a0|36 34 2e 6e 6f 5f 66 6f 6c 64 5f 6e 65 67 30 5f|64.no_fold_neg0_|
0x1b0|73 75 62                                       |sub             |
     |                                               |                |              d{}: 0x1b3-0x1b5 (2)
0x1b0|         00                                    |   .            |                tag: "funcidx" (0x0) 0x1b3-0x1b4 (1)
0x1b0|            0d                                 |    .           |                x: 13 (valid) 0x1b4-0x1b5 (1)
     |                                               |                |            [14]{}: ex 0x1b5-0x1cb (22)
     |                                               |                |              nm{}: 0x1b5-0x1c9 (20)
0x1b0|               13                              |     .          |                n: 19 (valid) 0x1b5-0x1b6 (1)
0x1b0|                  66 36 34 2e 6e 6f 5f 66 6f 6c|      f64.no_fol|                b: "f64.no_fold_mul_one" 0x1b6-0x1c9 (19)
0x1c0|64 5f 6d 75 6c 5f 6f 6e 65                     |d_mul_one       |
     |                                               |                |              d{}: 0x1c9-0x1cb (2)
0x1c0|                           00                  |         .      |                tag: "funcidx" (0x0) 0x1c9-0x1ca (1)
0x1c0|                              0e               |          .     |                x: 14 (valid) 0x1ca-0x1cb (1)
     |                                               |                |            [15]{}: ex 0x1cb-0x1e2 (23)
     |                                               |                |              nm{}: 0x1cb-0x1e0 (21)
0x1c0|                                 14            |           .    |                n: 20 (valid) 0x1cb-0x1cc (1)
0x1c0|                                    66 36 34 2e|            f64.|                b: "f64.no_fold_neg1_mul" 0x1cc-0x1e0 (20)
0x1d0|6e 6f 5f 66 6f 6c 64 5f 6e 65 67 31 5f 6d 75 6c|no_fold_neg1_mul|
     |                                               |                |              d{}: 0x1e0-0x1e2 (2)
0x1e0|00                                             |.               |                tag: "funcidx" (0x0) 0x1e0-0x1e1 (1)
0x1e0|   0f                                          | .              |                x: 15 (valid) 0x1e1-0x1e2 (1)
     |                                               |                |            [16]{}: ex 0x1e2-0x1f8 (22)
     |                                               |                |              nm{}: 0x1e2-0x1f6 (20)
0x1e0|      13                                       |  .             |                n: 19 (valid) 0x1e2-0x1e3 (1)
0x1e0|         66 36 34 2e 6e 6f 5f 66 6f 6c 64 5f 64|   f64.no_fold_d|                b: "f64.no_fold_div_one" 0x1e3-0x1f6 (19)
0x1f0|69 76 5f 6f 6e 65                              |iv_one          |
     |                                               |                |              d{}: 0x1f6-0x1f8 (2)
0x1f0|                  00                           |      .         |                tag: "funcidx" (0x0) 0x1f6-0x1f7 (1)
0x1f0|                     10                        |       .        |                x: 16 (valid) 0x1f7-0x1f8 (1)
     |                                               |                |            [17]{}: ex 0x1f8-0x20f (23)
     |                                               |                |              nm{}: 0x1f8-0x20d (21)
0x1f0|                        14                     |        .       |                n: 20 (valid) 0x1f8-0x1f9 (1)
0x1f0|                           66 36 34 2e 6e 6f 5f|         f64.no_|                b: "f64.no_fold_div_neg1" 0x1f9-0x20d (20)
0x200|66 6f 6c 64 5f 64 69 76 5f 6e 65 67 31         |fold_div_neg1   |
     |                                               |                |              d{}: 0x20d-0x20f (2)
0x200|                                       00      |             .  |                tag: "funcidx" (0x0) 0x20d-0x20e (1)
0x200|                                          11   |              . |                x: 17 (valid) 0x20e-0x20f (1)
     |                                               |                |            [18]{}: ex 0x20f-0x228 (25)
     |                                               |                |              nm{}: 0x20f-0x226 (23)
0x200|                                             16|               .|                n: 22 (valid) 0x20f-0x210 (1)
0x210|6e 6f 5f 66 6f 6c 64 5f 70 72 6f 6d 6f 74 65 5f|no_fold_promote_|                b: "no_fold_promote_demote" 0x210-0x226 (22)
0x220|64 65 6d 6f 74 65                              |demote          |
     |                                               |                |              d{}: 0x226-0x228 (2)
0x220|                  00                           |      .         |                tag: "funcidx" (0x0) 0x226-0x227 (1)
0x220|                     12                        |       .        |                x: 18 (valid) 0x227-0x228 (1)
     |                                               |                |    [3]{}: section 0x228-0x3c4 (412)
0x220|                        0a                     |        .       |      id: "code_section" (10) 0x228-0x229 (1)
0x220|                           99 03               |         ..     |      size: 409 (valid) 0x229-0x22b (2)
     |                                               |                |      content{}: 0x22b-0x3c4 (409)
     |                                               |                |        code{}: 0x22b-0x3c4 (409)
0x220|                                 13            |           .    |          n: 19 (valid) 0x22b-0x22c (1)
     |                                               |                |          x[0:19]: 0x22c-0x3c4 (408)
     |                                               |                |            [0]{}: code 0x22c-0x23e (18)
0x220|                                    11         |            .   |              size: 17 (valid) 0x22c-0x22d (1)
     |                                               |                |              code{}: 0x22d-0x23e (17)
     |                                               |                |                t{}: 0x22d-0x22e (1)
0x220|                                       00      |             .  |                  n: 0 (valid) 0x22d-0x22e (1)
     |                                               |                |                  x[0:0]: 0x22e-0x22e (0)
     |                                               |                |                e[0:9]: 0x22e-0x23e (16)
     |                                               |                |                  [0]{}: in 0x22e-0x230 (2)
0x220|                                          20   |                |                    opcode: "local.get" (0x20) 0x22e-0x22f (1)
0x220|                                             00|               .|                    x: 0 (valid) 0x22f-0x230 (1)
     |                                               |                |                  [1]{}: in 0x230-0x231 (1)
0x230|be                                             |.               |                    opcode: "f32.reinterpret_i32" (0xbe) 0x230-0x231 (1)
     |                                               |                |                  [2]{}: in 0x231-0x233 (2)
0x230|   20                                          |                |                    opcode: "local.get" (0x20) 0x231-0x232 (1)
0x230|      01                                       |  .             |                    x: 1 (valid) 0x232-0x233 (1)
     |                                               |                |                  [3]{}: in 0x233-0x234 (1)
0x230|         be                                    |   .            |                    opcode: "f32.reinterpret_i32" (0xbe) 0x233-0x234 (1)
     |                                               |                |                  [4]{}: in 0x234-0x235 (1)
0x230|            95                                 |    .           |                    opcode: "f32.div" (0x95) 0x234-0x235 (1)
     |                                               |                |                  [5]{}: in 0x235-0x236 (1)
0x230|               bc                              |     .          |                    opcode: "i32.reinterpret_f32" (0xbc) 0x235-0x236 (1)
     |                                               |                |                  [6]{}: in 0x236-0x23c (6)
0x230|                  41                           |      A         |                    opcode: "i32.const" (0x41) 0x236-0x237 (1)
0x230|                     80 80 80 fe 07            |       .....    |                    n: 2143289344 (valid) 0x237-0x23c (5)
     |                                               |                |                  [7]{}: in 0x23c-0x23d (1)
0x230|                                    71         |            q   |                    opcode: "i32.and" (0x71) 0x23c-0x23d (1)
     |                                               |                |                  [8]{}: in 0x23d-0x23e (1)
0x230|                                       0b      |             .  |                    opcode: "end" (0xb) 0x23d-0x23e (1)
     |                                               |                |            [1]{}: code 0x23e-0x250 (18)
0x230|                                          11   |              . |              size: 17 (valid) 0x23e-0x23f (1)
     |                                               |                |              code{}: 0x23f-0x250 (17)
     |                                               |                |                t{}: 0x23f-0x240 (1)
0x230|                                             00|               .|                  n: 0 (valid) 0x23f-0x240 (1)
     |                                               |                |                  x[0:0]: 0x240-0x240 (0)
     |                                               |                |                e[0:9]: 0x240-0x250 (16)
     |                                               |                |                  [0]{}: in 0x240-0x242 (2)
0x240|20                                             |                |                    opcode: "local.get" (0x20) 0x240-0x241 (1)
0x240|   00                                          | .              |                    x: 0 (valid) 0x241-0x242 (1)
     |                                               |                |                  [1]{}: in 0x242-0x243 (1)
0x240|      be                                       |  .             |                    opcode: "f32.reinterpret_i32" (0xbe) 0x242-0x243 (1)
     |                                               |                |                  [2]{}: in 0x243-0x245 (2)
0x240|         20                                    |                |                    opcode: "local.get" (0x20) 0x243-0x244 (1)
0x240|            01                                 |    .           |                    x: 1 (valid) 0x244-0x245 (1)
     |                                               |                |                  [3]{}: in 0x245-0x246 (1)
0x240|               be                              |     .          |                    opcode: "f32.reinterpret_i32" (0xbe) 0x245-0x246 (1)
     |                                               |                |                  [4]{}: in 0x246-0x247 (1)
0x240|                  95                           |      .         |                    opcode: "f32.div" (0x95) 0x246-0x247 (1)
     |                                               |                |                  [5]{}: in 0x247-0x248 (1)
0x240|                     bc                        |       .        |                    opcode: "i32.reinterpret_f32" (0xbc) 0x247-0x248 (1)
     |                                               |                |                  [6]{}: in 0x248-0x24e (6)
0x240|                        41                     |        A       |                    opcode: "i32.const" (0x41) 0x248-0x249 (1)
0x240|                           ff ff ff ff 07      |         .....  |                    n: 2147483647 (valid) 0x249-0x24e (5)
     |                                               |                |                  [7]{}: in 0x24e-0x24f (1)
0x240|                                          71   |              q |                    opcode: "i32.and" (0x71) 0x24e-0x24f (1)
     |                                               |                |                  [8]{}: in 0x24f-0x250 (1)
0x240|                                             0b|               .|                    opcode: "end" (0xb) 0x24f-0x250 (1)
     |                                               |                |            [2]{}: code 0x250-0x258 (8)
0x250|07                                             |.               |              size: 7 (valid) 0x250-0x251 (1)
     |                                               |                |              code{}: 0x251-0x258 (7)
     |                                               |                |                t{}: 0x251-0x252 (1)
0x250|   00                                          | .              |                  n: 0 (valid) 0x251-0x252 (1)
     |                                               |                |                  x[0:0]: 0x252-0x252 (0)
     |                                               |                |                e[0:5]: 0x252-0x258 (6)
     |                                               |                |                  [0]{}: in 0x252-0x254 (2)
0x250|      20                                       |                |                    opcode: "local.get" (0x20) 0x252-0x253 (1)
0x250|         00                                    |   .            |                    x: 0 (valid) 0x253-0x254 (1)
     |                                               |                |                  [1]{}: in 0x254-0x255 (1)
0x250|            be                                 |    .           |                    opcode: "f32.reinterpret_i32" (0xbe) 0x254-0x255 (1)
     |                                               |                |                  [2]{}: in 0x255-0x256 (1)
0x250|               8c                              |     .          |                    opcode: "f32.neg" (0x8c) 0x255-0x256 (1)
     |                                               |                |                  [3]{}: in 0x256-0x257 (1)
0x250|                  bc                           |      .         |                    opcode: "i32.reinterpret_f32" (0xbc) 0x256-0x257 (1)
     |                                               |                |                  [4]{}: in 0x257-0x258 (1)
0x250|                     0b                        |       .        |                    opcode: "end" (0xb) 0x257-0x258 (1)
     |                                               |                |            [3]{}: code 0x258-0x26f (23)
0x250|                        16                     |        .       |              size: 22 (valid) 0x258-0x259 (1)
     |                                               |                |              code{}: 0x259-0x26f (22)
     |                                               |                |                t{}: 0x259-0x25a (1)
0x250|                           00                  |         .      |                  n: 0 (valid) 0x259-0x25a (1)
     |                                               |                |                  x[0:0]: 0x25a-0x25a (0)
     |                                               |                |                e[0:9]: 0x25a-0x26f (21)
     |                                               |                |                  [0]{}: in 0x25a-0x25c (2)
0x250|                              20               |                |                    opcode: "local.get" (0x20) 0x25a-0x25b (1)
0x250|                                 00            |           .    |                    x: 0 (valid) 0x25b-0x25c (1)
     |                                               |                |                  [1]{}: in 0x25c-0x25d (1)
0x250|                                    bf         |            .   |                    opcode: "f64.reinterpret_i64" (0xbf) 0x25c-0x25d (1)
     |                                               |                |                  [2]{}: in 0x25d-0x25f (2)
0x250|                                       20      |                |                    opcode: "local.get" (0x20) 0x25d-0x25e (1)
0x250|                                          01   |              . |                    x: 1 (valid) 0x25e-0x25f (1)
     |                                               |                |                  [3]{}: in 0x25f-0x260 (1)
0x250|                                             bf|               .|                    opcode: "f64.reinterpret_i64" (0xbf) 0x25f-0x260 (1)
     |                                               |                |                  [4]{}: in 0x260-0x261 (1)
0x260|a3                                             |.               |                    opcode: "f64.div" (0xa3) 0x260-0x261 (1)
     |                                               |                |                  [5]{}: in 0x261-0x262 (1)
0x260|   bd                                          | .              |                    opcode: "i64.reinterpret_f64" (0xbd) 0x261-0x262 (1)
     |                                               |                |                  [6]{}: in 0x262-0x26d (11)
0x260|      42                                       |  B             |                    opcode: "i64.const" (0x42) 0x262-0x263 (1)
0x260|         80 80 80 80 80 80 80 fc ff 00         |   ..........   |                    n: 9221120237041090560 0x263-0x26d (10)
     |                                               |                |                  [7]{}: in 0x26d-0x26e (1)
0x260|                                       83      |             .  |                    opcode: "i64.and" (0x83) 0x26d-0x26e (1)
     |                                               |                |                  [8]{}: in 0x26e-0x26f (1)
0x260|                                          0b   |              . |                    opcode: "end" (0xb) 0x26e-0x26f (1)
     |                                               |                |            [4]{}: code 0x26f-0x286 (23)
0x260|                                             16|               .|              size: 22 (valid) 0x26f-0x270 (1)
     |                                               |                |              code{}: 0x270-0x286 (22)
     |                                               |                |                t{}: 0x270-0x271 (1)
0x270|00                                             |.               |                  n: 0 (valid) 0x270-0x271 (1)
     |                                               |                |                  x[0:0]: 0x271-0x271 (0)
     |                                               |                |                e[0:9]: 0x271-0x286 (21)
     |                                               |                |                  [0]{}: in 0x271-0x273 (2)
0x270|   20                                          |                |                    opcode: "local.get" (0x20) 0x271-0x272 (1)
0x270|      00                                       |  .             |                    x: 0 (valid) 0x272-0x273 (1)
     |                                               |                |                  [1]{}: in 0x273-0x274 (1)
0x270|         bf                                    |   .            |                    opcode: "f64.reinterpret_i64" (0xbf) 0x273-0x274 (1)
     |                                               |                |                  [2]{}: in 0x274-0x276 (2)
0x270|            20                                 |                |                    opcode: "local.get" (0x20) 0x274-0x275 (1)
0x270|               01                              |     .          |                    x: 1 (valid) 0x275-0x276 (1)
     |                                               |                |                  [3]{}: in 0x276-0x277 (1)
0x270|                  bf                           |      .         |                    opcode: "f64.reinterpret_i64" (0xbf) 0x276-0x277 (1)
     |                                               |                |                  [4]{}: in 0x277-0x278 (1)
0x270|                     a3                        |       .        |                    opcode: "f64.div" (0xa3) 0x277-0x278 (1)
     |                                               |                |                  [5]{}: in 0x278-0x279 (1)
0x270|                        bd                     |        .       |                    opcode: "i64.reinterpret_f64" (0xbd) 0x278-0x279 (1)
     |                                               |                |                  [6]{}: in 0x279-0x284 (11)
0x270|                           42                  |         B      |                    opcode: "i64.const" (0x42) 0x279-0x27a (1)
0x270|                              ff ff ff ff ff ff|          ......|                    n: 9223372036854775807 0x27a-0x284 (10)
0x280|ff ff ff 00                                    |....            |
     |                                               |                |                  [7]{}: in 0x284-0x285 (1)
0x280|            83                                 |    .           |                    opcode: "i64.and" (0x83) 0x284-0x285 (1)
     |                                               |                |                  [8]{}: in 0x285-0x286 (1)
0x280|               0b                              |     .          |                    opcode: "end" (0xb) 0x285-0x286 (1)
     |                                               |                |            [5]{}: code 0x286-0x28e (8)
0x280|                  07                           |      .         |              size: 7 (valid) 0x286-0x287 (1)
     |                                               |                |              code{}: 0x287-0x28e (7)
     |                                               |                |                t{}: 0x287-0x288 (1)
0x280|                     00                        |       .        |                  n: 0 (valid) 0x287-0x288 (1)
     |                                               |                |                  x[0:0]: 0x288-0x288 (0)
     |                                               |                |                e[0:5]: 0x288-0x28e (6)
     |                                               |                |                  [0]{}: in 0x288-0x28a (2)
0x280|                        20                     |                |                    opcode: "local.get" (0x20) 0x288-0x289 (1)
0x280|                           00                  |         .      |                    x: 0 (valid) 0x289-0x28a (1)
     |                                               |                |                  [1]{}: in 0x28a-0x28b (1)
0x280|                              bf               |          .     |                    opcode: "f64.reinterpret_i64" (0xbf) 0x28a-0x28b (1)
     |                                               |                |                  [2]{}: in 0x28b-0x28c (1)
0x280|                                 9a            |           .    |                    opcode: "f64.neg" (0x9a) 0x28b-0x28c (1)
     |                                               |                |                  [3]{}: in 0x28c-0x28d (1)
0x280|                                    bd         |            .   |                    opcode: "i64.reinterpret_f64" (0xbd) 0x28c-0x28d (1)
     |                                               |                |                  [4]{}: in 0x28d-0x28e (1)
0x280|                                       0b      |             .  |                    opcode: "end" (0xb) 0x28d-0x28e (1)
     |                                               |                |            [6]{}: code 0x28e-0x2a2 (20)
0x280|                                          13   |              . |              size: 19 (valid) 0x28e-0x28f (1)
     |                                               |                |              code{}: 0x28f-0x2a2 (19)
     |                                               |                |                t{}: 0x28f-0x290 (1)
0x280|                                             00|               .|                  n: 0 (valid) 0x28f-0x290 (1)
     |                                               |                |                  x[0:0]: 0x290-0x290 (0)
     |                                               |                |                e[0:8]: 0x290-0x2a2 (18)
     |                                               |                |                  [0]{}: in 0x290-0x292 (2)
0x290|20                                             |                |                    opcode: "local.get" (0x20) 0x290-0x291 (1)
0x290|   00                                          | .              |                    x: 0 (valid) 0x291-0x292 (1)
     |                                               |                |                  [1]{}: in 0x292-0x293 (1)
0x290|      be                                       |  .             |                    opcode: "f32.reinterpret_i32" (0xbe) 0x292-0x293 (1)
     |                                               |                |                  [2]{}: in 0x293-0x298 (5)
0x290|         43                                    |   C            |                    opcode: "f32.const" (0x43) 0x293-0x294 (1)
0x290|            00 00 00 00                        |    ....        |                    z: 0 0x294-0x298 (4)
     |                                               |                |                  [3]{}: in 0x298-0x299 (1)
0x290|                        93                     |        .       |                    opcode: "f32.sub" (0x93) 0x298-0x299 (1)
     |                                               |                |                  [4]{}: in 0x299-0x29a (1)
0x290|                           bc                  |         .      |                    opcode: "i32.reinterpret_f32" (0xbc) 0x299-0x29a (1)
     |                                               |                |                  [5]{}: in 0x29a-0x2a0 (6)
0x290|                              41               |          A     |                    opcode: "i32.const" (0x41) 0x29a-0x29b (1)
0x290|                                 80 80 80 fe 07|           .....|                    n: 2143289344 (valid) 0x29b-0x2a0 (5)
     |                                               |                |                  [6]{}: in 0x2a0-0x2a1 (1)
0x2a0|71                                             |q               |                    opcode: "i32.and" (0x71) 0x2a0-0x2a1 (1)
     |                                               |                |                  [7]{}: in 0x2a1-0x2a2 (1)
0x2a0|   0b                                          | .              |                    opcode: "end" (0xb) 0x2a1-0x2a2 (1)
     |                                               |                |            [7]{}: code 0x2a2-0x2b6 (20)
0x2a0|      13                                       |  .             |              size: 19 (valid) 0x2a2-0x2a3 (1)
     |                                               |                |              code{}: 0x2a3-0x2b6 (19)
     |                                               |                |                t{}: 0x2a3-0x2a4 (1)
0x2a0|         00                                    |   .            |                  n: 0 (valid) 0x2a3-0x2a4 (1)
     |                                               |                |                  x[0:0]: 0x2a4-0x2a4 (0)
     |                                               |                |                e[0:8]: 0x2a4-0x2b6 (18)
     |                                               |                |                  [0]{}: in 0x2a4-0x2a9 (5)
0x2a0|            43                                 |    C           |                    opcode: "f32.const" (0x43) 0x2a4-0x2a5 (1)
0x2a0|               00 00 00 80                     |     ....       |                    z: -0 0x2a5-0x2a9 (4)
     |                                               |                |                  [1]{}: in 0x2a9-0x2ab (2)
0x2a0|                           20                  |                |                    opcode: "local.get" (0x20) 0x2a9-0x2aa (1)
0x2a0|                              00               |          .     |                    x: 0 (valid) 0x2aa-0x2ab (1)
     |                                               |                |                  [2]{}: in 0x2ab-0x2ac (1)
0x2a0|                                 be            |           .    |                    opcode: "f32.reinterpret_i32" (0xbe) 0x2ab-0x2ac (1)
     |                                               |                |                  [3]{}: in 0x2ac-0x2ad (1)
0x2a0|                                    93         |            .   |                    opcode: "f32.sub" (0x93) 0x2ac-0x2ad (1)
     |                                               |                |                  [4]{}: in 0x2ad-0x2ae (1)
0x2a0|                                       bc      |             .  |                    opcode: "i32.reinterpret_f32" (0xbc) 0x2ad-0x2ae (1)
     |                                               |                |                  [5]{}: in 0x2ae-0x2b4 (6)
0x2a0|                                          41   |              A |                    opcode: "i32.const" (0x41) 0x2ae-0x2af (1)
0x2a0|                                             80|               .|                    n: 2143289344 (valid) 0x2af-0x2b4 (5)
0x2b0|80 80 fe 07                                    |....            |
     |                                               |                |                  [6]{}: in 0x2b4-0x2b5 (1)
0x2b0|            71                                 |    q           |                    opcode: "i32.and" (0x71) 0x2b4-0x2b5 (1)
     |                                               |                |                  [7]{}: in 0x2b5-0x2b6 (1)
0x2b0|               0b                              |     .          |                    opcode: "end" (0xb) 0x2b5-0x2b6 (1)
     |                                               |                |            [8]{}: code 0x2b6-0x2ca (20)
0x2b0|                  13                           |      .         |              size: 19 (valid) 0x2b6-0x2b7 (1)
     |                                               |                |              code{}: 0x2b7-0x2ca (19)
     |                                               |                |                t{}: 0x2b7-0x2b8 (1)
0x2b0|                     00                        |       .        |                  n: 0 (valid) 0x2b7-0x2b8 (1)
     |                                               |                |                  x[0:0]: 0x2b8-0x2b8 (0)
     |                                               |                |                e[0:8]: 0x2b8-0x2ca (18)
     |                                               |                |                  [0]{}: in 0x2b8-0x2ba (2)
0x2b0|                        20                     |                |                    opcode: "local.get" (0x20) 0x2b8-0x2b9 (1)
0x2b0|                           00                  |         .      |                    x: 0 (valid) 0x2b9-0x2ba (1)
     |                                               |                |                  [1]{}: in 0x2ba-0x2bb (1)
0x2b0|                              be               |          .     |                    opcode: "f32.reinterpret_i32" (0xbe) 0x2ba-0x2bb (1)
     |                                               |                |                  [2]{}: in 0x2bb-0x2c0 (5)
0x2b0|                                 43            |           C    |                    opcode: "f32.const" (0x43) 0x2bb-0x2bc (1)
0x2b0|                                    00 00 80 3f|            ...?|                    z: 1 0x2bc-0x2c0 (4)
     |                                               |                |                  [3]{}: in 0x2c0-0x2c1 (1)
0x2c0|94                                             |.               |                    opcode: "f32.mul" (0x94) 0x2c0-0x2c1 (1)
     |                                               |                |                  [4]{}: in 0x2c1-0x2c2 (1)
0x2c0|   bc                                          | .              |                    opcode: "i32.reinterpret_f32" (0xbc) 0x2c1-0x2c2 (1)
     |                                               |                |                  [5]{}: in 0x2c2-0x2c8 (6)
0x2c0|      41                                       |  A             |                    opcode: "i32.const" (0x41) 0x2c2-0x2c3 (1)
0x2c0|         80 80 80 fe 07                        |   .....        |                    n: 2143289344 (valid) 0x2c3-0x2c8 (5)
     |                                               |                |                  [6]{}: in 0x2c8-0x2c9 (1)
0x2c0|                        71                     |        q       |                    opcode: "i32.and" (0x71) 0x2c8-0x2c9 (1)
     |                                               |                |                  [7]{}: in 0x2c9-0x2ca (1)
0x2c0|                           0b                  |         .      |                    opcode: "end" (0xb) 0x2c9-0x2ca (1)
     |                                               |                |            [9]{}: code 0x2ca-0x2de (20)
0x2c0|                              13               |          .     |              size: 19 (valid) 0x2ca-0x2cb (1)
     |                                               |                |              code{}: 0x2cb-0x2de (19)
     |                                               |                |                t{}: 0x2cb-0x2cc (1)
0x2c0|                                 00            |           .    |                  n: 0 (valid) 0x2cb-0x2cc (1)
     |                                               |                |                  x[0:0]: 0x2cc-0x2cc (0)
     |                                               |                |                e[0:8]: 0x2cc-0x2de (18)
     |                                               |                |                  [0]{}: in 0x2cc-0x2d1 (5)
0x2c0|                                    43         |            C   |                    opcode: "f32.const" (0x43) 0x2cc-0x2cd (1)
0x2c0|                                       00 00 80|             ...|                    z: -1 0x2cd-0x2d1 (4)
0x2d0|bf                                             |.               |
     |                                               |                |                  [1]{}: in 0x2d1-0x2d3 (2)
0x2d0|   20                                          |                |                    opcode: "local.get" (0x20) 0x2d1-0x2d2 (1)
0x2d0|      00                                       |  .             |                    x: 0 (valid) 0x2d2-0x2d3 (1)
     |                                               |                |                  [2]{}: in 0x2d3-0x2d4 (1)
0x2d0|         be                                    |   .            |                    opcode: "f32.reinterpret_i32" (0xbe) 0x2d3-0x2d4 (1)
     |                                               |                |                  [3]{}: in 0x2d4-0x2d5 (1)
0x2d0|            94                                 |    .           |                    opcode: "f32.mul" (0x94) 0x2d4-0x2d5 (1)
     |                                               |                |                  [4]{}: in 0x2d5-0x2d6 (1)
0x2d0|               bc                              |     .          |                    opcode: "i32.reinterpret_f32" (0xbc) 0x2d5-0x2d6 (1)
     |                                               |                |                  [5]{}: in 0x2d6-0x2dc (6)
0x2d0|                  41                           |      A         |                    opcode: "i32.const" (0x41) 0x2d6-0x2d7 (1)
0x2d0|                     80 80 80 fe 07            |       .....    |                    n: 2143289344 (valid) 0x2d7-0x2dc (5)
     |                                               |                |                  [6]{}: in 0x2dc-0x2dd (1)
0x2d0|                                    71         |            q   |                    opcode: "i32.and" (0x71) 0x2dc-0x2dd (1)
     |                                               |                |                  [7]{}: in 0x2dd-0x2de (1)
0x2d0|                                       0b      |             .  |                    opcode: "end" (0xb) 0x2dd-0x2de (1)
     |                                               |                |            [10]{}: code 0x2de-0x2f2 (20)
0x2d0|                                          13   |              . |              size: 19 (valid) 0x2de-0x2df (1)
     |                                               |                |              code{}: 0x2df-0x2f2 (19)
     |                                               |                |                t{}: 0x2df-0x2e0 (1)
0x2d0|                                             00|               .|                  n: 0 (valid) 0x2df-0x2e0 (1)
     |                                               |                |                  x[0:0]: 0x2e0-0x2e0 (0)
     |                                               |                |                e[0:8]: 0x2e0-0x2f2 (18)
     |                                               |                |                  [0]{}: in 0x2e0-0x2e2 (2)
0x2e0|20                                             |                |                    opcode: "local.get" (0x20) 0x2e0-0x2e1 (1)
0x2e0|   00                                          | .              |                    x: 0 (valid) 0x2e1-0x2e2 (1)
     |                                               |                |                  [1]{}: in 0x2e2-0x2e3 (1)
0x2e0|      be                                       |  .             |                    opcode: "f32.reinterpret_i32" (0xbe) 0x2e2-0x2e3 (1)
     |                                               |                |                  [2]{}: in 0x2e3-0x2e8 (5)
0x2e0|         43                                    |   C            |                    opcode: "f32.const" (0x43) 0x2e3-0x2e4 (1)
0x2e0|            00 00 80 3f                        |    ...?        |                    z: 1 0x2e4-0x2e8 (4)
     |                                               |                |                  [3]{}: in 0x2e8-0x2e9 (1)
0x2e0|                        95                     |        .       |                    opcode: "f32.div" (0x95) 0x2e8-0x2e9 (1)
     |                                               |                |                  [4]{}: in 0x2e9-0x2ea (1)
0x2e0|                           bc                  |         .      |                    opcode: "i32.reinterpret_f32" (0xbc) 0x2e9-0x2ea (1)
     |                                               |                |                  [5]{}: in 0x2ea-0x2f0 (6)
0x2e0|                              41               |          A     |                    opcode: "i32.const" (0x41) 0x2ea-0x2eb (1)
0x2e0|                                 80 80 80 fe 07|           .....|                    n: 2143289344 (valid) 0x2eb-0x2f0 (5)
     |                                               |                |                  [6]{}: in 0x2f0-0x2f1 (1)
0x2f0|71                                             |q               |                    opcode: "i32.and" (0x71) 0x2f0-0x2f1 (1)
     |                                               |                |                  [7]{}: in 0x2f1-0x2f2 (1)
0x2f0|   0b                                          | .              |                    opcode: "end" (0xb) 0x2f1-0x2f2 (1)
     |                                               |                |            [11]{}: code 0x2f2-0x306 (20)
0x2f0|      13                                       |  .             |              size: 19 (valid) 0x2f2-0x2f3 (1)
     |                                               |                |              code{}: 0x2f3-0x306 (19)
     |                                               |                |                t{}: 0x2f3-0x2f4 (1)
0x2f0|         00                                    |   .            |                  n: 0 (valid) 0x2f3-0x2f4 (1)
     |                                               |                |                  x[0:0]: 0x2f4-0x2f4 (0)
     |                                               |                |                e[0:8]: 0x2f4-0x306 (18)
     |                                               |                |                  [0]{}: in 0x2f4-0x2f6 (2)
0x2f0|            20                                 |                |                    opcode: "local.get" (0x20) 0x2f4-0x2f5 (1)
0x2f0|               00                              |     .          |                    x: 0 (valid) 0x2f5-0x2f6 (1)
     |                                               |                |                  [1]{}: in 0x2f6-0x2f7 (1)
0x2f0|                  be                           |      .         |                    opcode: "f32.reinterpret_i32" (0xbe) 0x2f6-0x2f7 (1)
     |                                               |                |                  [2]{}: in 0x2f7-0x2fc (5)
0x2f0|                     43                        |       C        |                    opcode: "f32.const" (0x43) 0x2f7-0x2f8 (1)
0x2f0|                        00 00 80 bf            |        ....    |                    z: -1 0x2f8-0x2fc (4)
     |                                               |                |                  [3]{}: in 0x2fc-0x2fd (1)
0x2f0|                                    95         |            .   |                    opcode: "f32.div" (0x95) 0x2fc-0x2fd (1)
     |                                               |                |                  [4]{}: in 0x2fd-0x2fe (1)
0x2f0|                                       bc      |             .  |                    opcode: "i32.reinterpret_f32" (0xbc) 0x2fd-0x2fe (1)
     |                                               |                |                  [5]{}: in 0x2fe-0x304 (6)
0x2f0|                                          41   |              A |                    opcode: "i32.const" (0x41) 0x2fe-0x2ff (1)
0x2f0|                                             80|               .|                    n: 2143289344 (valid) 0x2ff-0x304 (5)
0x300|80 80 fe 07                                    |....            |
     |                                               |                |                  [6]{}: in 0x304-0x305 (1)
0x300|            71                                 |    q           |                    opcode: "i32.and" (0x71) 0x304-0x305 (1)
     |                                               |                |                  [7]{}: in 0x305-0x306 (1)
0x300|               0b                              |     .          |                    opcode: "end" (0xb) 0x305-0x306 (1)
     |                                               |                |            [12]{}: code 0x306-0x323 (29)
0x300|                  1c                           |      .         |              size: 28 (valid) 0x306-0x307 (1)
     |                                               |                |              code{}: 0x307-0x323 (28)
     |                                               |                |                t{}: 0x307-0x308 (1)
0x300|                     00                        |       .        |                  n: 0 (valid) 0x307-0x308 (1)
     |                                               |                |                  x[0:0]: 0x308-0x308 (0)
     |                                               |                |                e[0:8]: 0x308-0x323 (27)
     |                                               |                |                  [0]{}: in 0x308-0x30a (2)
0x300|                        20                     |                |                    opcode: "local.get" (0x20) 0x308-0x309 (1)
0x300|                           00                  |         .      |                    x: 0 (valid) 0x309-0x30a (1)
     |                                               |                |                  [1]{}: in 0x30a-0x30b (1)
0x300|                              bf               |          .     |                    opcode: "f64.reinterpret_i64" (0xbf) 0x30a-0x30b (1)
     |                                               |                |                  [2]{}: in 0x30b-0x314 (9)
0x300|                                 44            |           D    |                    opcode: "f64.const" (0x44) 0x30b-0x30c (1)
0x300|                                    00 00 00 00|            ....|                    z: 0 0x30c-0x314 (8)
0x310|00 00 00 00                                    |....            |
     |                                               |                |                  [3]{}: in 0x314-0x315 (1)
0x310|            a1                                 |    .           |                    opcode: "f64.sub" (0xa1) 0x314-0x315 (1)
     |                                               |                |                  [4]{}: in 0x315-0x316 (1)
0x310|               bd                              |     .          |                    opcode: "i64.reinterpret_f64" (0xbd) 0x315-0x316 (1)
     |                                               |                |                  [5]{}: in 0x316-0x321 (11)
0x310|                  42                           |      B         |                    opcode: "i64.const" (0x42) 0x316-0x317 (1)
0x310|                     80 80 80 80 80 80 80 fc ff|       .........|                    n: 9221120237041090560 0x317-0x321 (10)
0x320|00                                             |.               |
     |                                               |                |                  [6]{}: in 0x321-0x322 (1)
0x320|   83                                          | .              |                    opcode: "i64.and" (0x83) 0x321-0x322 (1)
     |                                               |                |                  [7]{}: in 0x322-0x323 (1)
0x320|      0b                                       |  .             |                    opcode: "end" (0xb) 0x322-0x323 (1)
     |                                               |                |            [13]{}: code 0x323-0x340 (29)
0x320|         1c                                    |   .            |              size: 28 (valid) 0x323-0x324 (1)
     |                                               |                |              code{}: 0x324-0x340 (28)
     |                                               |                |                t{}: 0x324-0x325 (1)
0x320|            00                                 |    .           |                  n: 0 (valid) 0x324-0x325 (1)
     |                                               |                |                  x[0:0]: 0x325-0x325 (0)
     |                                               |                |                e[0:8]: 0x325-0x340 (27)
     |                                               |                |                  [0]{}: in 0x325-0x32e (9)
0x320|               44                              |     D          |                    opcode: "f64.const" (0x44) 0x325-0x326 (1)
0x320|                  00 00 00 00 00 00 00 80      |      ........  |                    z: -0 0x326-0x32e (8)
     |                                               |                |                  [1]{}: in 0x32e-0x330 (2)
0x320|                                          20   |                |                    opcode: "local.get" (0x20) 0x32e-0x32f (1)
0x320|                                             00|               .|                    x: 0 (valid) 0x32f-0x330 (1)
     |                                               |                |                  [2]{}: in 0x330-0x331 (1)
0x330|bf                                             |.               |                    opcode: "f64.reinterpret_i64" (0xbf) 0x330-0x331 (1)
     |                                               |                |                  [3]{}: in 0x331-0x332 (1)
0x330|   a1                                          | .              |                    opcode: "f64.sub" (0xa1) 0x331-0x332 (1)
     |                                               |                |                  [4]{}: in 0x332-0x333 (1)
0x330|      bd                                       |  .             |                    opcode: "i64.reinterpret_f64" (0xbd) 0x332-0x333 (1)
     |                                               |                |                  [5]{}: in 0x333-0x33e (11)
0x330|         42                                    |   B            |                    opcode: "i64.const" (0x42) 0x333-0x334 (1)
0x330|            80 80 80 80 80 80 80 fc ff 00      |    ..........  |                    n: 9221120237041090560 0x334-0x33e (10)
     |                                               |                |                  [6]{}: in 0x33e-0x33f (1)
0x330|                                          83   |              . |                    opcode: "i64.and" (0x83) 0x33e-0x33f (1)
     |                                               |                |                  [7]{}: in 0x33f-0x340 (1)
0x330|                                             0b|               .|                    opcode: "end" (0xb) 0x33f-0x340 (1)
     |                                               |                |            [14]{}: code 0x340-0x35d (29)
0x340|1c                                             |.               |              size: 28 (valid) 0x340-0x341 (1)
     |                                               |                |              code{}: 0x341-0x35d (28)
     |                                               |                |                t{}: 0x341-0x342 (1)
0x340|   00                                          | .              |                  n: 0 (valid) 0x341-0x342 (1)
     |                                               |                |                  x[0:0]: 0x342-0x342 (0)
     |                                               |                |                e[0:8]: 0x342-0x35d (27)
     |                                               |                |                  [0]{}: in 0x342-0x344 (2)
0x340|      20                                       |                |                    opcode: "local.get" (0x20) 0x342-0x343 (1)
0x340|         00                                    |   .            |                    x: 0 (valid) 0x343-0x344 (1)
     |                                               |                |                  [1]{}: in 0x344-0x345 (1)
0x340|            bf                                 |    .           |                    opcode: "f64.reinterpret_i64" (0xbf) 0x344-0x345 (1)
     |                                               |                |                  [2]{}: in 0x345-0x34e (9)
0x340|               44                              |     D          |                    opcode: "f64.const" (0x44) 0x345-0x346 (1)
0x340|                  00 00 00 00 00 00 f0 3f      |      .......?  |                    z: 1 0x346-0x34e (8)
     |                                               |                |                  [3]{}: in 0x34e-0x34f (1)
0x340|                                          a2   |              . |                    opcode: "f64.mul" (0xa2) 0x34e-0x34f (1)
     |                                               |                |                  [4]{}: in 0x34f-0x350 (1)
0x340|                                             bd|               .|                    opcode: "i64.reinterpret_f64" (0xbd) 0x34f-0x350 (1)
     |                                               |                |                  [5]{}: in 0x350-0x35b (11)
0x350|42                                             |B               |                    opcode: "i64.const" (0x42) 0x350-0x351 (1)
0x350|   80 80 80 80 80 80 80 fc ff 00               | ..........     |                    n: 9221120237041090560 0x351-0x35b (10)
     |                                               |                |                  [6]{}: in 0x35b-0x35c (1)
0x350|                                 83            |           .    |                    opcode: "i64.and" (0x83) 0x35b-0x35c (1)
     |                                               |                |                  [7]{}: in 0x35c-0x35d (1)
0x350|                                    0b         |            .   |                    opcode: "end" (0xb) 0x35c-0x35d (1)
     |                                               |                |            [15]{}: code 0x35d-0x37a (29)
0x350|                                       1c      |             .  |              size: 28 (valid) 0x35d-0x35e (1)
     |                                               |                |              code{}: 0x35e-0x37a (28)
     |                                               |                |                t{}: 0x35e-0x35f (1)
0x350|                                          00   |              . |                  n: 0 (valid) 0x35e-0x35f (1)
     |                                               |                |                  x[0:0]: 0x35f-0x35f (0)
     |                                               |                |                e[0:8]: 0x35f-0x37a (27)
     |                                               |                |                  [0]{}: in 0x35f-0x368 (9)
0x350|                                             44|               D|                    opcode: "f64.const" (0x44) 0x35f-0x360 (1)
0x360|00 00 00 00 00 00 f0 bf                        |........        |                    z: -1 0x360-0x368 (8)
     |                                               |                |                  [1]{}: in 0x368-0x36a (2)
0x360|                        20                     |                |                    opcode: "local.get" (0x20) 0x368-0x369 (1)
0x360|                           00                  |         .      |                    x: 0 (valid) 0x369-0x36a (1)
     |                                               |                |                  [2]{}: in 0x36a-0x36b (1)
0x360|                              bf               |          .     |                    opcode: "f64.reinterpret_i64" (0xbf) 0x36a-0x36b (1)
     |                                               |                |                  [3]{}: in 0x36b-0x36c (1)
0x360|                                 a2            |           .    |                    opcode: "f64.mul" (0xa2) 0x36b-0x36c (1)
     |                                               |                |                  [4]{}: in 0x36c-0x36d (1)
0x360|                                    bd         |            .   |                    opcode: "i64.reinterpret_f64" (0xbd) 0x36c-0x36d (1)
     |                                               |                |                  [5]{}: in 0x36d-0x378 (11)
0x360|                                       42      |             B  |                    opcode: "i64.const" (0x42) 0x36d-0x36e (1)
0x360|                                          80 80|              ..|                    n: 9221120237041090560 0x36e-0x378 (10)
0x370|80 80 80 80 80 fc ff 00                        |........        |
     |                                               |                |                  [6]{}: in 0x378-0x379 (1)
0x370|                        83                     |        .       |                    opcode: "i64.and" (0x83) 0x378-0x379 (1)
     |                                               |                |                  [7]{}: in 0x379-0x37a (1)
0x370|                           0b                  |         .      |                    opcode: "end" (0xb) 0x379-0x37a (1)
     |                                               |                |            [16]{}: code 0x37a-0x397 (29)
0x370|                              1c               |          .     |              size: 28 (valid) 0x37a-0x37b (1)
     |                                               |                |              code{}: 0x37b-0x397 (28)
     |                                               |                |                t{}: 0x37b-0x37c (1)
0x370|                                 00            |           .    |                  n: 0 (valid) 0x37b-0x37c (1)
     |                                               |                |                  x[0:0]: 0x37c-0x37c (0)
     |                                               |                |                e[0:8]: 0x37c-0x397 (27)
     |                                               |                |                  [0]{}: in 0x37c-0x37e (2)
0x370|                                    20         |                |                    opcode: "local.get" (0x20) 0x37c-0x37d (1)
0x370|                                       00      |             .  |                    x: 0 (valid) 0x37d-0x37e (1)
     |                                               |                |                  [1]{}: in 0x37e-0x37f (1)
0x370|                                          bf   |              . |                    opcode: "f64.reinterpret_i64" (0xbf) 0x37e-0x37f (1)
     |                                               |                |                  [2]{}: in 0x37f-0x388 (9)
0x370|                                             44|               D|                    opcode: "f64.const" (0x44) 0x37f-0x380 (1)
0x380|00 00 00 00 00 00 f0 3f                        |.......?        |                    z: 1 0x380-0x388 (8)
     |                                               |                |                  [3]{}: in 0x388-0x389 (1)
0x380|                        a3                     |        .       |                    opcode: "f64.div" (0xa3) 0x388-0x389 (1)
     |                                               |                |                  [4]{}: in 0x389-0x38a (1)
0x380|                           bd                  |         .      |                    opcode: "i64.reinterpret_f64" (0xbd) 0x389-0x38a (1)
     |                                               |                |                  [5]{}: in 0x38a-0x395 (11)
0x380|                              42               |          B     |                    opcode: "i64.const" (0x42) 0x38a-0x38b (1)
0x380|                                 80 80 80 80 80|           .....|                    n: 9221120237041090560 0x38b-0x395 (10)
0x390|80 80 fc ff 00                                 |.....           |
     |                                               |                |                  [6]{}: in 0x395-0x396 (1)
0x390|               83                              |     .          |                    opcode: "i64.and" (0x83) 0x395-0x396 (1)
     |                                               |                |                  [7]{}: in 0x396-0x397 (1)
0x390|                  0b                           |      .         |                    opcode: "end" (0xb) 0x396-0x397 (1)
     |                                               |                |            [17]{}: code 0x397-0x3b4 (29)
0x390|                     1c                        |       .        |              size: 28 (valid) 0x397-0x398 (1)
     |                                               |                |              code{}: 0x398-0x3b4 (28)
     |                                               |                |                t{}: 0x398-0x399 (1)
0x390|                        00                     |        .       |                  n: 0 (valid) 0x398-0x399 (1)
     |                                               |                |                  x[0:0]: 0x399-0x399 (0)
     |                                               |                |                e[0:8]: 0x399-0x3b4 (27)
     |                                               |                |                  [0]{}: in 0x399-0x39b (2)
0x390|                           20                  |                |                    opcode: "local.get" (0x20) 0x399-0x39a (1)
0x390|                              00               |          .     |                    x: 0 (valid) 0x39a-0x39b (1)
     |                                               |                |                  [1]{}: in 0x39b-0x39c (1)
0x390|                                 bf            |           .    |                    opcode: "f64.reinterpret_i64" (0xbf) 0x39b-0x39c (1)
     |                                               |                |                  [2]{}: in 0x39c-0x3a5 (9)
0x390|                                    44         |            D   |                    opcode: "f64.const" (0x44) 0x39c-0x39d (1)
0x390|                                       00 00 00|             ...|                    z: -1 0x39d-0x3a5 (8)
0x3a0|00 00 00 f0 bf                                 |.....           |
     |                                               |                |                  [3]{}: in 0x3a5-0x3a6 (1)
0x3a0|               a3                              |     .          |                    opcode: "f64.div" (0xa3) 0x3a5-0x3a6 (1)
     |                                               |                |                  [4]{}: in 0x3a6-0x3a7 (1)
0x3a0|                  bd                           |      .         |                    opcode: "i64.reinterpret_f64" (0xbd) 0x3a6-0x3a7 (1)
     |                                               |                |                  [5]{}: in 0x3a7-0x3b2 (11)
0x3a0|                     42                        |       B        |                    opcode: "i64.const" (0x42) 0x3a7-0x3a8 (1)
0x3a0|                        80 80 80 80 80 80 80 fc|        ........|                    n: 9221120237041090560 0x3a8-0x3b2 (10)
0x3b0|ff 00                                          |..              |
     |                                               |                |                  [6]{}: in 0x3b2-0x3b3 (1)
0x3b0|      83                                       |  .             |                    opcode: "i64.and" (0x83) 0x3b2-0x3b3 (1)
     |                                               |                |                  [7]{}: in 0x3b3-0x3b4 (1)
0x3b0|         0b                                    |   .            |                    opcode: "end" (0xb) 0x3b3-0x3b4 (1)
     |                                               |                |            [18]{}: code 0x3b4-0x3c4 (16)
0x3b0|            0f                                 |    .           |              size: 15 (valid) 0x3b4-0x3b5 (1)
     |                                               |                |              code{}: 0x3b5-0x3c4 (15)
     |                                               |                |                t{}: 0x3b5-0x3b6 (1)
0x3b0|               00                              |     .          |                  n: 0 (valid) 0x3b5-0x3b6 (1)
     |                                               |                |                  x[0:0]: 0x3b6-0x3b6 (0)
     |                                               |                |                e[0:8]: 0x3b6-0x3c4 (14)
     |                                               |                |                  [0]{}: in 0x3b6-0x3b8 (2)
0x3b0|                  20                           |                |                    opcode: "local.get" (0x20) 0x3b6-0x3b7 (1)
0x3b0|                     00                        |       .        |                    x: 0 (valid) 0x3b7-0x3b8 (1)
     |                                               |                |                  [1]{}: in 0x3b8-0x3b9 (1)
0x3b0|                        be                     |        .       |                    opcode: "f32.reinterpret_i32" (0xbe) 0x3b8-0x3b9 (1)
     |                                               |                |                  [2]{}: in 0x3b9-0x3ba (1)
0x3b0|                           bb                  |         .      |                    opcode: "f64.promote_f32" (0xbb) 0x3b9-0x3ba (1)
     |                                               |                |                  [3]{}: in 0x3ba-0x3bb (1)
0x3b0|                              b6               |          .     |                    opcode: "f32.demote_f64" (0xb6) 0x3ba-0x3bb (1)
     |                                               |                |                  [4]{}: in 0x3bb-0x3bc (1)
0x3b0|                                 bc            |           .    |                    opcode: "i32.reinterpret_f32" (0xbc) 0x3bb-0x3bc (1)
     |                                               |                |                  [5]{}: in 0x3bc-0x3c2 (6)
0x3b0|                                    41         |            A   |                    opcode: "i32.const" (0x41) 0x3bc-0x3bd (1)
0x3b0|                                       80 80 80|             ...|                    n: 2143289344 (valid) 0x3bd-0x3c2 (5)
0x3c0|fe 07                                          |..              |
     |                                               |                |                  [6]{}: in 0x3c2-0x3c3 (1)
0x3c0|      71                                       |  q             |                    opcode: "i32.and" (0x71) 0x3c2-0x3c3 (1)
     |                                               |                |                  [7]{}: in 0x3c3-0x3c4 (1)
0x3c0|         0b|                                   |   .|           |                    opcode: "end" (0xb) 0x3c3-0x3c4 (1)
