$ fq -d wasm dv float_exprs-39.wasm
     |00 01 02 03 04 05 06 07 08 09 0a 0b 0c 0d 0e 0f|0123456789abcdef|.{}: float_exprs-39.wasm (wasm) 0x0-0x2de.7 (735)
0x000|00 61 73 6d                                    |.asm            |  magic: raw bits (valid) 0x0-0x3.7 (4)
0x000|            01 00 00 00                        |    ....        |  version: 1 0x4-0x7.7 (4)
     |                                               |                |  sections[0:4]: 0x8-0x2de.7 (727)
     |                                               |                |    [0]{}: section 0x8-0x14.7 (13)
0x000|                        01                     |        .       |      id: "type_section" (1) 0x8-0x8.7 (1)
0x000|                           0b                  |         .      |      size: 11 (valid) 0x9-0x9.7 (1)
     |                                               |                |      content{}: 0xa-0x14.7 (11)
     |                                               |                |        ft{}: 0xa-0x14.7 (11)
0x000|                              02               |          .     |          n: 2 (valid) 0xa-0xa.7 (1)
     |                                               |                |          x[0:2]: 0xb-0x14.7 (10)
     |                                               |                |            [0]{}: ft 0xb-0xf.7 (5)
0x000|                                 60            |           `    |              tag: 0x60 (valid) 0xb-0xb.7 (1)
     |                                               |                |              rt1{}: 0xc-0xd.7 (2)
0x000|                                    01         |            .   |                n: 1 (valid) 0xc-0xc.7 (1)
     |                                               |                |                x[0:1]: 0xd-0xd.7 (1)
0x000|                                       7d      |             }  |                  [0]: "f32" (0x7d) t 0xd-0xd.7 (1)
     |                                               |                |              rt2{}: 0xe-0xf.7 (2)
0x000|                                          01   |              . |                n: 1 (valid) 0xe-0xe.7 (1)
     |                                               |                |                x[0:1]: 0xf-0xf.7 (1)
0x000|                                             7d|               }|                  [0]: "f32" (0x7d) t 0xf-0xf.7 (1)
     |                                               |                |            [1]{}: ft 0x10-0x14.7 (5)
0x010|60                                             |`               |              tag: 0x60 (valid) 0x10-0x10.7 (1)
     |                                               |                |              rt1{}: 0x11-0x12.7 (2)
0x010|   01                                          | .              |                n: 1 (valid) 0x11-0x11.7 (1)
     |                                               |                |                x[0:1]: 0x12-0x12.7 (1)
0x010|      7c                                       |  |             |                  [0]: "f64" (0x7c) t 0x12-0x12.7 (1)
     |                                               |                |              rt2{}: 0x13-0x14.7 (2)
0x010|         01                                    |   .            |                n: 1 (valid) 0x13-0x13.7 (1)
     |                                               |                |                x[0:1]: 0x14-0x14.7 (1)
0x010|            7c                                 |    |           |                  [0]: "f64" (0x7c) t 0x14-0x14.7 (1)
     |                                               |                |    [1]{}: section 0x15-0x27.7 (19)
0x010|               03                              |     .          |      id: "function_section" (3) 0x15-0x15.7 (1)
0x010|                  11                           |      .         |      size: 17 (valid) 0x16-0x16.7 (1)
     |                                               |                |      content{}: 0x17-0x27.7 (17)
     |                                               |                |        x{}: 0x17-0x27.7 (17)
0x010|                     10                        |       .        |          n: 16 (valid) 0x17-0x17.7 (1)
     |                                               |                |          x[0:16]: 0x18-0x27.7 (16)
0x010|                        00                     |        .       |            [0]: 0 x (valid) 0x18-0x18.7 (1)
0x010|                           00                  |         .      |            [1]: 0 x (valid) 0x19-0x19.7 (1)
0x010|                              00               |          .     |            [2]: 0 x (valid) 0x1a-0x1a.7 (1)
0x010|                                 00            |           .    |            [3]: 0 x (valid) 0x1b-0x1b.7 (1)
0x010|                                    01         |            .   |            [4]: 1 x (valid) 0x1c-0x1c.7 (1)
0x010|                                       01      |             .  |            [5]: 1 x (valid) 0x1d-0x1d.7 (1)
0x010|                                          01   |              . |            [6]: 1 x (valid) 0x1e-0x1e.7 (1)
0x010|                                             01|               .|            [7]: 1 x (valid) 0x1f-0x1f.7 (1)
0x020|00                                             |.               |            [8]: 0 x (valid) 0x20-0x20.7 (1)
0x020|   00                                          | .              |            [9]: 0 x (valid) 0x21-0x21.7 (1)
0x020|      00                                       |  .             |            [10]: 0 x (valid) 0x22-0x22.7 (1)
0x020|         00                                    |   .            |            [11]: 0 x (valid) 0x23-0x23.7 (1)
0x020|            01                                 |    .           |            [12]: 1 x (valid) 0x24-0x24.7 (1)
0x020|               01                              |     .          |            [13]: 1 x (valid) 0x25-0x25.7 (1)
0x020|                  01                           |      .         |            [14]: 1 x (valid) 0x26-0x26.7 (1)
0x020|                     01                        |       .        |            [15]: 1 x (valid) 0x27-0x27.7 (1)
     |                                               |                |    [2]{}: section 0x28-0x26b.7 (580)
0x020|                        07                     |        .       |      id: "export_section" (7) 0x28-0x28.7 (1)
0x020|                           c1 04               |         ..     |      size: 577 (valid) 0x29-0x2a.7 (2)
     |                                               |                |      content{}: 0x2b-0x26b.7 (577)
     |                                               |                |        ex{}: 0x2b-0x26b.7 (577)
0x020|                                 10            |           .    |          n: 16 (valid) 0x2b-0x2b.7 (1)
     |                                               |                |          x[0:16]: 0x2c-0x26b.7 (576)
     |                                               |                |            [0]{}: ex 0x2c-0x4f.7 (36)
     |                                               |                |              nm{}: 0x2c-0x4d.7 (34)
0x020|                                    21         |            !   |                n: 33 (valid) 0x2c-0x2c.7 (1)
0x020|                                       66 33 32|             f32|                b: "f32.i32.no_fold_trunc_s_convert_s" 0x2d-0x4d.7 (33)
0x030|2e 69 33 32 2e 6e 6f 5f 66 6f 6c 64 5f 74 72 75|.i32.no_fold_tru|
0x040|6e 63 5f 73 5f 63 6f 6e 76 65 72 74 5f 73      |nc_s_convert_s  |
     |                                               |                |              d{}: 0x4e-0x4f.7 (2)
0x040|                                          00   |              . |                tag: "funcidx" (0x0) 0x4e-0x4e.7 (1)
0x040|                                             00|               .|                x: 0 (valid) 0x4f-0x4f.7 (1)
     |                                               |                |            [1]{}: ex 0x50-0x73.7 (36)
     |                                               |                |              nm{}: 0x50-0x71.7 (34)
0x050|21                                             |!               |                n: 33 (valid) 0x50-0x50.7 (1)
0x050|   66 33 32 2e 69 33 32 2e 6e 6f 5f 66 6f 6c 64| f32.i32.no_fold|                b: "f32.i32.no_fold_trunc_u_convert_s" 0x51-0x71.7 (33)
0x060|5f 74 72 75 6e 63 5f 75 5f 63 6f 6e 76 65 72 74|_trunc_u_convert|
0x070|5f 73                                          |_s              |
     |                                               |                |              d{}: 0x72-0x73.7 (2)
0x070|      00                                       |  .             |                tag: "funcidx" (0x0) 0x72-0x72.7 (1)
0x070|         01                                    |   .            |                x: 1 (valid) 0x73-0x73.7 (1)
     |                                               |                |            [2]{}: ex 0x74-0x97.7 (36)
     |                                               |                |              nm{}: 0x74-0x95.7 (34)
0x070|            21                                 |    !           |                n: 33 (valid) 0x74-0x74.7 (1)
0x070|               66 33 32 2e 69 33 32 2e 6e 6f 5f|     f32.i32.no_|                b: "f32.i32.no_fold_trunc_s_convert_u" 0x75-0x95.7 (33)
0x080|66 6f 6c 64 5f 74 72 75 6e 63 5f 73 5f 63 6f 6e|fold_trunc_s_con|
0x090|76 65 72 74 5f 75                              |vert_u          |
     |                                               |                |              d{}: 0x96-0x97.7 (2)
0x090|                  00                           |      .         |                tag: "funcidx" (0x0) 0x96-0x96.7 (1)
0x090|                     02                        |       .        |                x: 2 (valid) 0x97-0x97.7 (1)
     |                                               |                |            [3]{}: ex 0x98-0xbb.7 (36)
     |                                               |                |              nm{}: 0x98-0xb9.7 (34)
0x090|                        21                     |        !       |                n: 33 (valid) 0x98-0x98.7 (1)
0x090|                           66 33 32 2e 69 33 32|         f32.i32|                b: "f32.i32.no_fold_trunc_u_convert_u" 0x99-0xb9.7 (33)
0x0a0|2e 6e 6f 5f 66 6f 6c 64 5f 74 72 75 6e 63 5f 75|.no_fold_trunc_u|
0x0b0|5f 63 6f 6e 76 65 72 74 5f 75                  |_convert_u      |
     |                                               |                |              d{}: 0xba-0xbb.7 (2)
0x0b0|                              00               |          .     |                tag: "funcidx" (0x0) 0xba-0xba.7 (1)
0x0b0|                                 03            |           .    |                x: 3 (valid) 0xbb-0xbb.7 (1)
     |                                               |                |            [4]{}: ex 0xbc-0xdf.7 (36)
     |                                               |                |              nm{}: 0xbc-0xdd.7 (34)
0x0b0|                                    21         |            !   |                n: 33 (valid) 0xbc-0xbc.7 (1)
0x0b0|                                       66 36 34|             f64|                b: "f64.i32.no_fold_trunc_s_convert_s" 0xbd-0xdd.7 (33)
0x0c0|2e 69 33 32 2e 6e 6f 5f 66 6f 6c 64 5f 74 72 75|.i32.no_fold_tru|
0x0d0|6e 63 5f 73 5f 63 6f 6e 76 65 72 74 5f 73      |nc_s_convert_s  |
     |                                               |                |              d{}: 0xde-0xdf.7 (2)
0x0d0|                                          00   |              . |                tag: "funcidx" (0x0) 0xde-0xde.7 (1)
0x0d0|                                             04|               .|                x: 4 (valid) 0xdf-0xdf.7 (1)
     |                                               |                |            [5]{}: ex 0xe0-0x103.7 (36)
     |                                               |                |              nm{}: 0xe0-0x101.7 (34)
0x0e0|21                                             |!               |                n: 33 (valid) 0xe0-0xe0.7 (1)
0x0e0|   66 36 34 2e 69 33 32 2e 6e 6f 5f 66 6f 6c 64| f64.i32.no_fold|                b: "f64.i32.no_fold_trunc_u_convert_s" 0xe1-0x101.7 (33)
0x0f0|5f 74 72 75 6e 63 5f 75 5f 63 6f 6e 76 65 72 74|_trunc_u_convert|
0x100|5f 73                                          |_s              |
     |                                               |                |              d{}: 0x102-0x103.7 (2)
0x100|      00                                       |  .             |                tag: "funcidx" (0x0) 0x102-0x102.7 (1)
0x100|         05                                    |   .            |                x: 5 (valid) 0x103-0x103.7 (1)
     |                                               |                |            [6]{}: ex 0x104-0x127.7 (36)
     |                                               |                |              nm{}: 0x104-0x125.7 (34)
0x100|            21                                 |    !           |                n: 33 (valid) 0x104-0x104.7 (1)
0x100|               66 36 34 2e 69 33 32 2e 6e 6f 5f|     f64.i32.no_|                b: "f64.i32.no_fold_trunc_s_convert_u" 0x105-0x125.7 (33)
0x110|66 6f 6c 64 5f 74 72 75 6e 63 5f 73 5f 63 6f 6e|fold_trunc_s_con|
0x120|76 65 72 74 5f 75                              |vert_u          |
     |                                               |                |              d{}: 0x126-0x127.7 (2)
0x120|                  00                           |      .         |                tag: "funcidx" (0x0) 0x126-0x126.7 (1)
0x120|                     06                        |       .        |                x: 6 (valid) 0x127-0x127.7 (1)
     |                                               |                |            [7]{}: ex 0x128-0x14b.7 (36)
     |                                               |                |              nm{}: 0x128-0x149.7 (34)
0x120|                        21                     |        !       |                n: 33 (valid) 0x128-0x128.7 (1)
0x120|                           66 36 34 2e 69 33 32|         f64.i32|                b: "f64.i32.no_fold_trunc_u_convert_u" 0x129-0x149.7 (33)
0x130|2e 6e 6f 5f 66 6f 6c 64 5f 74 72 75 6e 63 5f 75|.no_fold_trunc_u|
0x140|5f 63 6f 6e 76 65 72 74 5f 75                  |_convert_u      |
     |                                               |                |              d{}: 0x14a-0x14b.7 (2)
0x140|                              00               |          .     |                tag: "funcidx" (0x0) 0x14a-0x14a.7 (1)
0x140|                                 07            |           .    |                x: 7 (valid) 0x14b-0x14b.7 (1)
     |                                               |                |            [8]{}: ex 0x14c-0x16f.7 (36)
     |                                               |                |              nm{}: 0x14c-0x16d.7 (34)
0x140|                                    21         |            !   |                n: 33 (valid) 0x14c-0x14c.7 (1)
0x140|                                       66 33 32|             f32|                b: "f32.i64.no_fold_trunc_s_convert_s" 0x14d-0x16d.7 (33)
0x150|2e 69 36 34 2e 6e 6f 5f 66 6f 6c 64 5f 74 72 75|.i64.no_fold_tru|
0x160|6e 63 5f 73 5f 63 6f 6e 76 65 72 74 5f 73      |nc_s_convert_s  |
     |                                               |                |              d{}: 0x16e-0x16f.7 (2)
0x160|                                          00   |              . |                tag: "funcidx" (0x0) 0x16e-0x16e.7 (1)
0x160|                                             08|               .|                x: 8 (valid) 0x16f-0x16f.7 (1)
     |                                               |                |            [9]{}: ex 0x170-0x193.7 (36)
     |                                               |                |              nm{}: 0x170-0x191.7 (34)
0x170|21                                             |!               |                n: 33 (valid) 0x170-0x170.7 (1)
0x170|   66 33 32 2e 69 36 34 2e 6e 6f 5f 66 6f 6c 64| f32.i64.no_fold|                b: "f32.i64.no_fold_trunc_u_convert_s" 0x171-0x191.7 (33)
0x180|5f 74 72 75 6e 63 5f 75 5f 63 6f 6e 76 65 72 74|_trunc_u_convert|
0x190|5f 73                                          |_s              |
     |                                               |                |              d{}: 0x192-0x193.7 (2)
0x190|      00                                       |  .             |                tag: "funcidx" (0x0) 0x192-0x192.7 (1)
0x190|         09                                    |   .            |                x: 9 (valid) 0x193-0x193.7 (1)
     |                                               |                |            [10]{}: ex 0x194-0x1b7.7 (36)
     |                                               |                |              nm{}: 0x194-0x1b5.7 (34)
0x190|            21                                 |    !           |                n: 33 (valid) 0x194-0x194.7 (1)
0x190|               66 33 32 2e 69 36 34 2e 6e 6f 5f|     f32.i64.no_|                b: "f32.i64.no_fold_trunc_s_convert_u" 0x195-0x1b5.7 (33)
0x1a0|66 6f 6c 64 5f 74 72 75 6e 63 5f 73 5f 63 6f 6e|fold_trunc_s_con|
0x1b0|76 65 72 74 5f 75                              |vert_u          |
     |                                               |                |              d{}: 0x1b6-0x1b7.7 (2)
0x1b0|                  00                           |      .         |                tag: "funcidx" (0x0) 0x1b6-0x1b6.7 (1)
0x1b0|                     0a                        |       .        |                x: 10 (valid) 0x1b7-0x1b7.7 (1)
     |                                               |                |            [11]{}: ex 0x1b8-0x1db.7 (36)
     |                                               |                |              nm{}: 0x1b8-0x1d9.7 (34)
0x1b0|                        21                     |        !       |                n: 33 (valid) 0x1b8-0x1b8.7 (1)
0x1b0|                           66 33 32 2e 69 36 34|         f32.i64|                b: "f32.i64.no_fold_trunc_u_convert_u" 0x1b9-0x1d9.7 (33)
0x1c0|2e 6e 6f 5f 66 6f 6c 64 5f 74 72 75 6e 63 5f 75|.no_fold_trunc_u|
0x1d0|5f 63 6f 6e 76 65 72 74 5f 75                  |_convert_u      |
     |                                               |                |              d{}: 0x1da-0x1db.7 (2)
0x1d0|                              00               |          .     |                tag: "funcidx" (0x0) 0x1da-0x1da.7 (1)
0x1d0|                                 0b            |           .    |                x: 11 (valid) 0x1db-0x1db.7 (1)
     |                                               |                |            [12]{}: ex 0x1dc-0x1ff.7 (36)
     |                                               |                |              nm{}: 0x1dc-0x1fd.7 (34)
0x1d0|                                    21         |            !   |                n: 33 (valid) 0x1dc-0x1dc.7 (1)
0x1d0|                                       66 36 34|             f64|                b: "f64.i64.no_fold_trunc_s_convert_s" 0x1dd-0x1fd.7 (33)
0x1e0|2e 69 36 34 2e 6e 6f 5f 66 6f 6c 64 5f 74 72 75|.i64.no_fold_tru|
0x1f0|6e 63 5f 73 5f 63 6f 6e 76 65 72 74 5f 73      |nc_s_convert_s  |
     |                                               |                |              d{}: 0x1fe-0x1ff.7 (2)
0x1f0|                                          00   |              . |                tag: "funcidx" (0x0) 0x1fe-0x1fe.7 (1)
0x1f0|                                             0c|               .|                x: 12 (valid) 0x1ff-0x1ff.7 (1)
     |                                               |                |            [13]{}: ex 0x200-0x223.7 (36)
     |                                               |                |              nm{}: 0x200-0x221.7 (34)
0x200|21                                             |!               |                n: 33 (valid) 0x200-0x200.7 (1)
0x200|   66 36 34 2e 69 36 34 2e 6e 6f 5f 66 6f 6c 64| f64.i64.no_fold|                b: "f64.i64.no_fold_trunc_u_convert_s" 0x201-0x221.7 (33)
0x210|5f 74 72 75 6e 63 5f 75 5f 63 6f 6e 76 65 72 74|_trunc_u_convert|
0x220|5f 73                                          |_s              |
     |                                               |                |              d{}: 0x222-0x223.7 (2)
0x220|      00                                       |  .             |                tag: "funcidx" (0x0) 0x222-0x222.7 (1)
0x220|         0d                                    |   .            |                x: 13 (valid) 0x223-0x223.7 (1)
     |                                               |                |            [14]{}: ex 0x224-0x247.7 (36)
     |                                               |                |              nm{}: 0x224-0x245.7 (34)
0x220|            21                                 |    !           |                n: 33 (valid) 0x224-0x224.7 (1)
0x220|               66 36 34 2e 69 36 34 2e 6e 6f 5f|     f64.i64.no_|                b: "f64.i64.no_fold_trunc_s_convert_u" 0x225-0x245.7 (33)
0x230|66 6f 6c 64 5f 74 72 75 6e 63 5f 73 5f 63 6f 6e|fold_trunc_s_con|
0x240|76 65 72 74 5f 75                              |vert_u          |
     |                                               |                |              d{}: 0x246-0x247.7 (2)
0x240|                  00                           |      .         |                tag: "funcidx" (0x0) 0x246-0x246.7 (1)
0x240|                     0e                        |       .        |                x: 14 (valid) 0x247-0x247.7 (1)
     |                                               |                |            [15]{}: ex 0x248-0x26b.7 (36)
     |                                               |                |              nm{}: 0x248-0x269.7 (34)
0x240|                        21                     |        !       |                n: 33 (valid) 0x248-0x248.7 (1)
0x240|                           66 36 34 2e 69 36 34|         f64.i64|                b: "f64.i64.no_fold_trunc_u_convert_u" 0x249-0x269.7 (33)
0x250|2e 6e 6f 5f 66 6f 6c 64 5f 74 72 75 6e 63 5f 75|.no_fold_trunc_u|
0x260|5f 63 6f 6e 76 65 72 74 5f 75                  |_convert_u      |
     |                                               |                |              d{}: 0x26a-0x26b.7 (2)
0x260|                              00               |          .     |                tag: "funcidx" (0x0) 0x26a-0x26a.7 (1)
0x260|                                 0f            |           .    |                x: 15 (valid) 0x26b-0x26b.7 (1)
     |                                               |                |    [3]{}: section 0x26c-0x2de.7 (115)
0x260|                                    0a         |            .   |      id: "code_section" (10) 0x26c-0x26c.7 (1)
0x260|                                       71      |             q  |      size: 113 (valid) 0x26d-0x26d.7 (1)
     |                                               |                |      content{}: 0x26e-0x2de.7 (113)
     |                                               |                |        code{}: 0x26e-0x2de.7 (113)
0x260|                                          10   |              . |          n: 16 (valid) 0x26e-0x26e.7 (1)
     |                                               |                |          x[0:16]: 0x26f-0x2de.7 (112)
     |                                               |                |            [0]{}: code 0x26f-0x275.7 (7)
0x260|                                             06|               .|              size: 6 (valid) 0x26f-0x26f.7 (1)
     |                                               |                |              code{}: 0x270-0x275.7 (6)
     |                                               |                |                t{}: 0x270-0x270.7 (1)
0x270|00                                             |.               |                  n: 0 (valid) 0x270-0x270.7 (1)
     |                                               |                |                  x[0:0]: 0x271-NA (0)
     |                                               |                |                e[0:4]: 0x271-0x275.7 (5)
     |                                               |                |                  [0]{}: in 0x271-0x272.7 (2)
0x270|   20                                          |                |                    opcode: "local.get" (0x20) 0x271-0x271.7 (1)
0x270|      00                                       |  .             |                    x: 0 (valid) 0x272-0x272.7 (1)
     |                                               |                |                  [1]{}: in 0x273-0x273.7 (1)
0x270|         a8                                    |   .            |                    opcode: "i32.trunc_f32_s" (0xa8) 0x273-0x273.7 (1)
     |                                               |                |                  [2]{}: in 0x274-0x274.7 (1)
0x270|            b2                                 |    .           |                    opcode: "f32.convert_i32_s" (0xb2) 0x274-0x274.7 (1)
     |                                               |                |                  [3]{}: in 0x275-0x275.7 (1)
0x270|               0b                              |     .          |                    opcode: "end" (0xb) 0x275-0x275.7 (1)
     |                                               |                |            [1]{}: code 0x276-0x27c.7 (7)
0x270|                  06                           |      .         |              size: 6 (valid) 0x276-0x276.7 (1)
     |                                               |                |              code{}: 0x277-0x27c.7 (6)
     |                                               |                |                t{}: 0x277-0x277.7 (1)
0x270|                     00                        |       .        |                  n: 0 (valid) 0x277-0x277.7 (1)
     |                                               |                |                  x[0:0]: 0x278-NA (0)
     |                                               |                |                e[0:4]: 0x278-0x27c.7 (5)
     |                                               |                |                  [0]{}: in 0x278-0x279.7 (2)
0x270|                        20                     |                |                    opcode: "local.get" (0x20) 0x278-0x278.7 (1)
0x270|                           00                  |         .      |                    x: 0 (valid) 0x279-0x279.7 (1)
     |                                               |                |                  [1]{}: in 0x27a-0x27a.7 (1)
0x270|                              a9               |          .     |                    opcode: "i32.trunc_f32_u" (0xa9) 0x27a-0x27a.7 (1)
     |                                               |                |                  [2]{}: in 0x27b-0x27b.7 (1)
0x270|                                 b2            |           .    |                    opcode: "f32.convert_i32_s" (0xb2) 0x27b-0x27b.7 (1)
     |                                               |                |                  [3]{}: in 0x27c-0x27c.7 (1)
0x270|                                    0b         |            .   |                    opcode: "end" (0xb) 0x27c-0x27c.7 (1)
     |                                               |                |            [2]{}: code 0x27d-0x283.7 (7)
0x270|                                       06      |             .  |              size: 6 (valid) 0x27d-0x27d.7 (1)
     |                                               |                |              code{}: 0x27e-0x283.7 (6)
     |                                               |                |                t{}: 0x27e-0x27e.7 (1)
0x270|                                          00   |              . |                  n: 0 (valid) 0x27e-0x27e.7 (1)
     |                                               |                |                  x[0:0]: 0x27f-NA (0)
     |                                               |                |                e[0:4]: 0x27f-0x283.7 (5)
     |                                               |                |                  [0]{}: in 0x27f-0x280.7 (2)
0x270|                                             20|                |                    opcode: "local.get" (0x20) 0x27f-0x27f.7 (1)
0x280|00                                             |.               |                    x: 0 (valid) 0x280-0x280.7 (1)
     |                                               |                |                  [1]{}: in 0x281-0x281.7 (1)
0x280|   a8                                          | .              |                    opcode: "i32.trunc_f32_s" (0xa8) 0x281-0x281.7 (1)
     |                                               |                |                  [2]{}: in 0x282-0x282.7 (1)
0x280|      b3                                       |  .             |                    opcode: "f32.convert_i32_u" (0xb3) 0x282-0x282.7 (1)
     |                                               |                |                  [3]{}: in 0x283-0x283.7 (1)
0x280|         0b                                    |   .            |                    opcode: "end" (0xb) 0x283-0x283.7 (1)
     |                                               |                |            [3]{}: code 0x284-0x28a.7 (7)
0x280|            06                                 |    .           |              size: 6 (valid) 0x284-0x284.7 (1)
     |                                               |                |              code{}: 0x285-0x28a.7 (6)
     |                                               |                |                t{}: 0x285-0x285.7 (1)
0x280|               00                              |     .          |                  n: 0 (valid) 0x285-0x285.7 (1)
     |                                               |                |                  x[0:0]: 0x286-NA (0)
     |                                               |                |                e[0:4]: 0x286-0x28a.7 (5)
     |                                               |                |                  [0]{}: in 0x286-0x287.7 (2)
0x280|                  20                           |                |                    opcode: "local.get" (0x20) 0x286-0x286.7 (1)
0x280|                     00                        |       .        |                    x: 0 (valid) 0x287-0x287.7 (1)
     |                                               |                |                  [1]{}: in 0x288-0x288.7 (1)
0x280|                        a9                     |        .       |                    opcode: "i32.trunc_f32_u" (0xa9) 0x288-0x288.7 (1)
     |                                               |                |                  [2]{}: in 0x289-0x289.7 (1)
0x280|                           b3                  |         .      |                    opcode: "f32.convert_i32_u" (0xb3) 0x289-0x289.7 (1)
     |                                               |                |                  [3]{}: in 0x28a-0x28a.7 (1)
0x280|                              0b               |          .     |                    opcode: "end" (0xb) 0x28a-0x28a.7 (1)
     |                                               |                |            [4]{}: code 0x28b-0x291.7 (7)
0x280|                                 06            |           .    |              size: 6 (valid) 0x28b-0x28b.7 (1)
     |                                               |                |              code{}: 0x28c-0x291.7 (6)
     |                                               |                |                t{}: 0x28c-0x28c.7 (1)
0x280|                                    00         |            .   |                  n: 0 (valid) 0x28c-0x28c.7 (1)
     |                                               |                |                  x[0:0]: 0x28d-NA (0)
     |                                               |                |                e[0:4]: 0x28d-0x291.7 (5)
     |                                               |                |                  [0]{}: in 0x28d-0x28e.7 (2)
0x280|                                       20      |                |                    opcode: "local.get" (0x20) 0x28d-0x28d.7 (1)
0x280|                                          00   |              . |                    x: 0 (valid) 0x28e-0x28e.7 (1)
     |                                               |                |                  [1]{}: in 0x28f-0x28f.7 (1)
0x280|                                             aa|               .|                    opcode: "i32.trunc_f64_s" (0xaa) 0x28f-0x28f.7 (1)
     |                                               |                |                  [2]{}: in 0x290-0x290.7 (1)
0x290|b7                                             |.               |                    opcode: "f64.convert_i32_s" (0xb7) 0x290-0x290.7 (1)
     |                                               |                |                  [3]{}: in 0x291-0x291.7 (1)
0x290|   0b                                          | .              |                    opcode: "end" (0xb) 0x291-0x291.7 (1)
     |                                               |                |            [5]{}: code 0x292-0x298.7 (7)
0x290|      06                                       |  .             |              size: 6 (valid) 0x292-0x292.7 (1)
     |                                               |                |              code{}: 0x293-0x298.7 (6)
     |                                               |                |                t{}: 0x293-0x293.7 (1)
0x290|         00                                    |   .            |                  n: 0 (valid) 0x293-0x293.7 (1)
     |                                               |                |                  x[0:0]: 0x294-NA (0)
     |                                               |                |                e[0:4]: 0x294-0x298.7 (5)
     |                                               |                |                  [0]{}: in 0x294-0x295.7 (2)
0x290|            20                                 |                |                    opcode: "local.get" (0x20) 0x294-0x294.7 (1)
0x290|               00                              |     .          |                    x: 0 (valid) 0x295-0x295.7 (1)
     |                                               |                |                  [1]{}: in 0x296-0x296.7 (1)
0x290|                  ab                           |      .         |                    opcode: "i32.trunc_f64_u" (0xab) 0x296-0x296.7 (1)
     |                                               |                |                  [2]{}: in 0x297-0x297.7 (1)
0x290|                     b7                        |       .        |                    opcode: "f64.convert_i32_s" (0xb7) 0x297-0x297.7 (1)
     |                                               |                |                  [3]{}: in 0x298-0x298.7 (1)
0x290|                        0b                     |        .       |                    opcode: "end" (0xb) 0x298-0x298.7 (1)
     |                                               |                |            [6]{}: code 0x299-0x29f.7 (7)
0x290|                           06                  |         .      |              size: 6 (valid) 0x299-0x299.7 (1)
     |                                               |                |              code{}: 0x29a-0x29f.7 (6)
     |                                               |                |                t{}: 0x29a-0x29a.7 (1)
0x290|                              00               |          .     |                  n: 0 (valid) 0x29a-0x29a.7 (1)
     |                                               |                |                  x[0:0]: 0x29b-NA (0)
     |                                               |                |                e[0:4]: 0x29b-0x29f.7 (5)
     |                                               |                |                  [0]{}: in 0x29b-0x29c.7 (2)
0x290|                                 20            |                |                    opcode: "local.get" (0x20) 0x29b-0x29b.7 (1)
0x290|                                    00         |            .   |                    x: 0 (valid) 0x29c-0x29c.7 (1)
     |                                               |                |                  [1]{}: in 0x29d-0x29d.7 (1)
0x290|                                       aa      |             .  |                    opcode: "i32.trunc_f64_s" (0xaa) 0x29d-0x29d.7 (1)
     |                                               |                |                  [2]{}: in 0x29e-0x29e.7 (1)
0x290|                                          b8   |              . |                    opcode: "f64.convert_i32_u" (0xb8) 0x29e-0x29e.7 (1)
     |                                               |                |                  [3]{}: in 0x29f-0x29f.7 (1)
0x290|                                             0b|               .|                    opcode: "end" (0xb) 0x29f-0x29f.7 (1)
     |                                               |                |            [7]{}: code 0x2a0-0x2a6.7 (7)
0x2a0|06                                             |.               |              size: 6 (valid) 0x2a0-0x2a0.7 (1)
     |                                               |                |              code{}: 0x2a1-0x2a6.7 (6)
     |                                               |                |                t{}: 0x2a1-0x2a1.7 (1)
0x2a0|   00                                          | .              |                  n: 0 (valid) 0x2a1-0x2a1.7 (1)
     |                                               |                |                  x[0:0]: 0x2a2-NA (0)
     |                                               |                |                e[0:4]: 0x2a2-0x2a6.7 (5)
     |                                               |                |                  [0]{}: in 0x2a2-0x2a3.7 (2)
0x2a0|      20                                       |                |                    opcode: "local.get" (0x20) 0x2a2-0x2a2.7 (1)
0x2a0|         00                                    |   .            |                    x: 0 (valid) 0x2a3-0x2a3.7 (1)
     |                                               |                |                  [1]{}: in 0x2a4-0x2a4.7 (1)
0x2a0|            ab                                 |    .           |                    opcode: "i32.trunc_f64_u" (0xab) 0x2a4-0x2a4.7 (1)
     |                                               |                |                  [2]{}: in 0x2a5-0x2a5.7 (1)
0x2a0|               b8                              |     .          |                    opcode: "f64.convert_i32_u" (0xb8) 0x2a5-0x2a5.7 (1)
     |                                               |                |                  [3]{}: in 0x2a6-0x2a6.7 (1)
0x2a0|                  0b                           |      .         |                    opcode: "end" (0xb) 0x2a6-0x2a6.7 (1)
     |                                               |                |            [8]{}: code 0x2a7-0x2ad.7 (7)
0x2a0|                     06                        |       .        |              size: 6 (valid) 0x2a7-0x2a7.7 (1)
     |                                               |                |              code{}: 0x2a8-0x2ad.7 (6)
     |                                               |                |                t{}: 0x2a8-0x2a8.7 (1)
0x2a0|                        00                     |        .       |                  n: 0 (valid) 0x2a8-0x2a8.7 (1)
     |                                               |                |                  x[0:0]: 0x2a9-NA (0)
     |                                               |                |                e[0:4]: 0x2a9-0x2ad.7 (5)
     |                                               |                |                  [0]{}: in 0x2a9-0x2aa.7 (2)
0x2a0|                           20                  |                |                    opcode: "local.get" (0x20) 0x2a9-0x2a9.7 (1)
0x2a0|                              00               |          .     |                    x: 0 (valid) 0x2aa-0x2aa.7 (1)
     |                                               |                |                  [1]{}: in 0x2ab-0x2ab.7 (1)
0x2a0|                                 ae            |           .    |                    opcode: "i64.trunc_f32_s" (0xae) 0x2ab-0x2ab.7 (1)
     |                                               |                |                  [2]{}: in 0x2ac-0x2ac.7 (1)
0x2a0|                                    b4         |            .   |                    opcode: "f32.convert_i64_s" (0xb4) 0x2ac-0x2ac.7 (1)
     |                                               |                |                  [3]{}: in 0x2ad-0x2ad.7 (1)
0x2a0|                                       0b      |             .  |                    opcode: "end" (0xb) 0x2ad-0x2ad.7 (1)
     |                                               |                |            [9]{}: code 0x2ae-0x2b4.7 (7)
0x2a0|                                          06   |              . |              size: 6 (valid) 0x2ae-0x2ae.7 (1)
     |                                               |                |              code{}: 0x2af-0x2b4.7 (6)
     |                                               |                |                t{}: 0x2af-0x2af.7 (1)
0x2a0|                                             00|               .|                  n: 0 (valid) 0x2af-0x2af.7 (1)
     |                                               |                |                  x[0:0]: 0x2b0-NA (0)
     |                                               |                |                e[0:4]: 0x2b0-0x2b4.7 (5)
     |                                               |                |                  [0]{}: in 0x2b0-0x2b1.7 (2)
0x2b0|20                                             |                |                    opcode: "local.get" (0x20) 0x2b0-0x2b0.7 (1)
0x2b0|   00                                          | .              |                    x: 0 (valid) 0x2b1-0x2b1.7 (1)
     |                                               |                |                  [1]{}: in 0x2b2-0x2b2.7 (1)
0x2b0|      af                                       |  .             |                    opcode: "i64.trunc_f32_u" (0xaf) 0x2b2-0x2b2.7 (1)
     |                                               |                |                  [2]{}: in 0x2b3-0x2b3.7 (1)
0x2b0|         b4                                    |   .            |                    opcode: "f32.convert_i64_s" (0xb4) 0x2b3-0x2b3.7 (1)
     |                                               |                |                  [3]{}: in 0x2b4-0x2b4.7 (1)
0x2b0|            0b                                 |    .           |                    opcode: "end" (0xb) 0x2b4-0x2b4.7 (1)
     |                                               |                |            [10]{}: code 0x2b5-0x2bb.7 (7)
0x2b0|               06                              |     .          |              size: 6 (valid) 0x2b5-0x2b5.7 (1)
     |                                               |                |              code{}: 0x2b6-0x2bb.7 (6)
     |                                               |                |                t{}: 0x2b6-0x2b6.7 (1)
0x2b0|                  00                           |      .         |                  n: 0 (valid) 0x2b6-0x2b6.7 (1)
     |                                               |                |                  x[0:0]: 0x2b7-NA (0)
     |                                               |                |                e[0:4]: 0x2b7-0x2bb.7 (5)
     |                                               |                |                  [0]{}: in 0x2b7-0x2b8.7 (2)
0x2b0|                     20                        |                |                    opcode: "local.get" (0x20) 0x2b7-0x2b7.7 (1)
0x2b0|                        00                     |        .       |                    x: 0 (valid) 0x2b8-0x2b8.7 (1)
     |                                               |                |                  [1]{}: in 0x2b9-0x2b9.7 (1)
0x2b0|                           ae                  |         .      |                    opcode: "i64.trunc_f32_s" (0xae) 0x2b9-0x2b9.7 (1)
     |                                               |                |                  [2]{}: in 0x2ba-0x2ba.7 (1)
0x2b0|                              b5               |          .     |                    opcode: "f32.convert_i64_u" (0xb5) 0x2ba-0x2ba.7 (1)
     |                                               |                |                  [3]{}: in 0x2bb-0x2bb.7 (1)
0x2b0|                                 0b            |           .    |                    opcode: "end" (0xb) 0x2bb-0x2bb.7 (1)
     |                                               |                |            [11]{}: code 0x2bc-0x2c2.7 (7)
0x2b0|                                    06         |            .   |              size: 6 (valid) 0x2bc-0x2bc.7 (1)
     |                                               |                |              code{}: 0x2bd-0x2c2.7 (6)
     |                                               |                |                t{}: 0x2bd-0x2bd.7 (1)
0x2b0|                                       00      |             .  |                  n: 0 (valid) 0x2bd-0x2bd.7 (1)
     |                                               |                |                  x[0:0]: 0x2be-NA (0)
     |                                               |                |                e[0:4]: 0x2be-0x2c2.7 (5)
     |                                               |                |                  [0]{}: in 0x2be-0x2bf.7 (2)
0x2b0|                                          20   |                |                    opcode: "local.get" (0x20) 0x2be-0x2be.7 (1)
0x2b0|                                             00|               .|                    x: 0 (valid) 0x2bf-0x2bf.7 (1)
     |                                               |                |                  [1]{}: in 0x2c0-0x2c0.7 (1)
0x2c0|af                                             |.               |                    opcode: "i64.trunc_f32_u" (0xaf) 0x2c0-0x2c0.7 (1)
     |                                               |                |                  [2]{}: in 0x2c1-0x2c1.7 (1)
0x2c0|   b5                                          | .              |                    opcode: "f32.convert_i64_u" (0xb5) 0x2c1-0x2c1.7 (1)
     |                                               |                |                  [3]{}: in 0x2c2-0x2c2.7 (1)
0x2c0|      0b                                       |  .             |                    opcode: "end" (0xb) 0x2c2-0x2c2.7 (1)
     |                                               |                |            [12]{}: code 0x2c3-0x2c9.7 (7)
0x2c0|         06                                    |   .            |              size: 6 (valid) 0x2c3-0x2c3.7 (1)
     |                                               |                |              code{}: 0x2c4-0x2c9.7 (6)
     |                                               |                |                t{}: 0x2c4-0x2c4.7 (1)
0x2c0|            00                                 |    .           |                  n: 0 (valid) 0x2c4-0x2c4.7 (1)
     |                                               |                |                  x[0:0]: 0x2c5-NA (0)
     |                                               |                |                e[0:4]: 0x2c5-0x2c9.7 (5)
     |                                               |                |                  [0]{}: in 0x2c5-0x2c6.7 (2)
0x2c0|               20                              |                |                    opcode: "local.get" (0x20) 0x2c5-0x2c5.7 (1)
0x2c0|                  00                           |      .         |                    x: 0 (valid) 0x2c6-0x2c6.7 (1)
     |                                               |                |                  [1]{}: in 0x2c7-0x2c7.7 (1)
0x2c0|                     b0                        |       .        |                    opcode: "i64.trunc_f64_s" (0xb0) 0x2c7-0x2c7.7 (1)
     |                                               |                |                  [2]{}: in 0x2c8-0x2c8.7 (1)
0x2c0|                        b9                     |        .       |                    opcode: "f64.convert_i64_s" (0xb9) 0x2c8-0x2c8.7 (1)
     |                                               |                |                  [3]{}: in 0x2c9-0x2c9.7 (1)
0x2c0|                           0b                  |         .      |                    opcode: "end" (0xb) 0x2c9-0x2c9.7 (1)
     |                                               |                |            [13]{}: code 0x2ca-0x2d0.7 (7)
0x2c0|                              06               |          .     |              size: 6 (valid) 0x2ca-0x2ca.7 (1)
     |                                               |                |              code{}: 0x2cb-0x2d0.7 (6)
     |                                               |                |                t{}: 0x2cb-0x2cb.7 (1)
0x2c0|                                 00            |           .    |                  n: 0 (valid) 0x2cb-0x2cb.7 (1)
     |                                               |                |                  x[0:0]: 0x2cc-NA (0)
     |                                               |                |                e[0:4]: 0x2cc-0x2d0.7 (5)
     |                                               |                |                  [0]{}: in 0x2cc-0x2cd.7 (2)
0x2c0|                                    20         |                |                    opcode: "local.get" (0x20) 0x2cc-0x2cc.7 (1)
0x2c0|                                       00      |             .  |                    x: 0 (valid) 0x2cd-0x2cd.7 (1)
     |                                               |                |                  [1]{}: in 0x2ce-0x2ce.7 (1)
0x2c0|                                          b1   |              . |                    opcode: "i64.trunc_f64_u" (0xb1) 0x2ce-0x2ce.7 (1)
     |                                               |                |                  [2]{}: in 0x2cf-0x2cf.7 (1)
0x2c0|                                             b9|               .|                    opcode: "f64.convert_i64_s" (0xb9) 0x2cf-0x2cf.7 (1)
     |                                               |                |                  [3]{}: in 0x2d0-0x2d0.7 (1)
0x2d0|0b                                             |.               |                    opcode: "end" (0xb) 0x2d0-0x2d0.7 (1)
     |                                               |                |            [14]{}: code 0x2d1-0x2d7.7 (7)
0x2d0|   06                                          | .              |              size: 6 (valid) 0x2d1-0x2d1.7 (1)
     |                                               |                |              code{}: 0x2d2-0x2d7.7 (6)
     |                                               |                |                t{}: 0x2d2-0x2d2.7 (1)
0x2d0|      00                                       |  .             |                  n: 0 (valid) 0x2d2-0x2d2.7 (1)
     |                                               |                |                  x[0:0]: 0x2d3-NA (0)
     |                                               |                |                e[0:4]: 0x2d3-0x2d7.7 (5)
     |                                               |                |                  [0]{}: in 0x2d3-0x2d4.7 (2)
0x2d0|         20                                    |                |                    opcode: "local.get" (0x20) 0x2d3-0x2d3.7 (1)
0x2d0|            00                                 |    .           |                    x: 0 (valid) 0x2d4-0x2d4.7 (1)
     |                                               |                |                  [1]{}: in 0x2d5-0x2d5.7 (1)
0x2d0|               b0                              |     .          |                    opcode: "i64.trunc_f64_s" (0xb0) 0x2d5-0x2d5.7 (1)
     |                                               |                |                  [2]{}: in 0x2d6-0x2d6.7 (1)
0x2d0|                  ba                           |      .         |                    opcode: "f64.convert_i64_u" (0xba) 0x2d6-0x2d6.7 (1)
     |                                               |                |                  [3]{}: in 0x2d7-0x2d7.7 (1)
0x2d0|                     0b                        |       .        |                    opcode: "end" (0xb) 0x2d7-0x2d7.7 (1)
     |                                               |                |            [15]{}: code 0x2d8-0x2de.7 (7)
0x2d0|                        06                     |        .       |              size: 6 (valid) 0x2d8-0x2d8.7 (1)
     |                                               |                |              code{}: 0x2d9-0x2de.7 (6)
     |                                               |                |                t{}: 0x2d9-0x2d9.7 (1)
0x2d0|                           00                  |         .      |                  n: 0 (valid) 0x2d9-0x2d9.7 (1)
     |                                               |                |                  x[0:0]: 0x2da-NA (0)
     |                                               |                |                e[0:4]: 0x2da-0x2de.7 (5)
     |                                               |                |                  [0]{}: in 0x2da-0x2db.7 (2)
0x2d0|                              20               |                |                    opcode: "local.get" (0x20) 0x2da-0x2da.7 (1)
0x2d0|                                 00            |           .    |                    x: 0 (valid) 0x2db-0x2db.7 (1)
     |                                               |                |                  [1]{}: in 0x2dc-0x2dc.7 (1)
0x2d0|                                    b1         |            .   |                    opcode: "i64.trunc_f64_u" (0xb1) 0x2dc-0x2dc.7 (1)
     |                                               |                |                  [2]{}: in 0x2dd-0x2dd.7 (1)
0x2d0|                                       ba      |             .  |                    opcode: "f64.convert_i64_u" (0xba) 0x2dd-0x2dd.7 (1)
     |                                               |                |                  [3]{}: in 0x2de-0x2de.7 (1)
0x2d0|                                          0b|  |              .||                    opcode: "end" (0xb) 0x2de-0x2de.7 (1)
