$ fq -d wasm dv float_exprs-42.wasm
    |00 01 02 03 04 05 06 07 08 09 0a 0b 0c 0d 0e 0f|0123456789abcdef|.{}: float_exprs-42.wasm (wasm) 0x0-0xc0 (192)
0x00|00 61 73 6d                                    |.asm            |  magic: raw bits (valid) 0x0-0x4 (4)
0x00|            01 00 00 00                        |    ....        |  version: 1 0x4-0x8 (4)
    |                                               |                |  sections[0:4]: 0x8-0xc0 (184)
    |                                               |                |    [0]{}: section 0x8-0x17 (15)
0x00|                        01                     |        .       |      id: "type_section" (1) 0x8-0x9 (1)
0x00|                           0d                  |         .      |      size: 13 (valid) 0x9-0xa (1)
    |                                               |                |      content{}: 0xa-0x17 (13)
    |                                               |                |        ft{}: 0xa-0x17 (13)
0x00|                              02               |          .     |          n: 2 (valid) 0xa-0xb (1)
    |                                               |                |          x[0:2]: 0xb-0x17 (12)
    |                                               |                |            [0]{}: ft 0xb-0x11 (6)
0x00|                                 60            |           `    |              tag: 0x60 (valid) 0xb-0xc (1)
    |                                               |                |              rt1{}: 0xc-0xf (3)
0x00|                                    02         |            .   |                n: 2 (valid) 0xc-0xd (1)
    |                                               |                |                x[0:2]: 0xd-0xf (2)
0x00|                                       7d      |             }  |                  [0]: "f32" (0x7d) t 0xd-0xe (1)
0x00|                                          7d   |              } |                  [1]: "f32" (0x7d) t 0xe-0xf (1)
    |                                               |                |              rt2{}: 0xf-0x11 (2)
0x00|                                             01|               .|                n: 1 (valid) 0xf-0x10 (1)
    |                                               |                |                x[0:1]: 0x10-0x11 (1)
0x10|7f                                             |.               |                  [0]: "i32" (0x7f) t 0x10-0x11 (1)
    |                                               |                |            [1]{}: ft 0x11-0x17 (6)
0x10|   60                                          | `              |              tag: 0x60 (valid) 0x11-0x12 (1)
    |                                               |                |              rt1{}: 0x12-0x15 (3)
0x10|      02                                       |  .             |                n: 2 (valid) 0x12-0x13 (1)
    |                                               |                |                x[0:2]: 0x13-0x15 (2)
0x10|         7c                                    |   |            |                  [0]: "f64" (0x7c) t 0x13-0x14 (1)
0x10|            7c                                 |    |           |                  [1]: "f64" (0x7c) t 0x14-0x15 (1)
    |                                               |                |              rt2{}: 0x15-0x17 (2)
0x10|               01                              |     .          |                n: 1 (valid) 0x15-0x16 (1)
    |                                               |                |                x[0:1]: 0x16-0x17 (1)
0x10|                  7f                           |      .         |                  [0]: "i32" (0x7f) t 0x16-0x17 (1)
    |                                               |                |    [1]{}: section 0x17-0x22 (11)
0x10|                     03                        |       .        |      id: "function_section" (3) 0x17-0x18 (1)
0x10|                        09                     |        .       |      size: 9 (valid) 0x18-0x19 (1)
    |                                               |                |      content{}: 0x19-0x22 (9)
    |                                               |                |        x{}: 0x19-0x22 (9)
0x10|                           08                  |         .      |          n: 8 (valid) 0x19-0x1a (1)
    |                                               |                |          x[0:8]: 0x1a-0x22 (8)
0x10|                              00               |          .     |            [0]: 0 x (valid) 0x1a-0x1b (1)
0x10|                                 00            |           .    |            [1]: 0 x (valid) 0x1b-0x1c (1)
0x10|                                    00         |            .   |            [2]: 0 x (valid) 0x1c-0x1d (1)
0x10|                                       00      |             .  |            [3]: 0 x (valid) 0x1d-0x1e (1)
0x10|                                          01   |              . |            [4]: 1 x (valid) 0x1e-0x1f (1)
0x10|                                             01|               .|            [5]: 1 x (valid) 0x1f-0x20 (1)
0x20|01                                             |.               |            [6]: 1 x (valid) 0x20-0x21 (1)
0x20|   01                                          | .              |            [7]: 1 x (valid) 0x21-0x22 (1)
    |                                               |                |    [2]{}: section 0x22-0x75 (83)
0x20|      07                                       |  .             |      id: "export_section" (7) 0x22-0x23 (1)
0x20|         51                                    |   Q            |      size: 81 (valid) 0x23-0x24 (1)
    |                                               |                |      content{}: 0x24-0x75 (81)
    |                                               |                |        ex{}: 0x24-0x75 (81)
0x20|            08                                 |    .           |          n: 8 (valid) 0x24-0x25 (1)
    |                                               |                |          x[0:8]: 0x25-0x75 (80)
    |                                               |                |            [0]{}: ex 0x25-0x2f (10)
    |                                               |                |              nm{}: 0x25-0x2d (8)
0x20|               07                              |     .          |                n: 7 (valid) 0x25-0x26 (1)
0x20|                  66 33 32 2e 75 6c 74         |      f32.ult   |                b: "f32.ult" 0x26-0x2d (7)
    |                                               |                |              d{}: 0x2d-0x2f (2)
0x20|                                       00      |             .  |                tag: "funcidx" (0x0) 0x2d-0x2e (1)
0x20|                                          00   |              . |                x: 0 (valid) 0x2e-0x2f (1)
    |                                               |                |            [1]{}: ex 0x2f-0x39 (10)
    |                                               |                |              nm{}: 0x2f-0x37 (8)
0x20|                                             07|               .|                n: 7 (valid) 0x2f-0x30 (1)
0x30|66 33 32 2e 75 6c 65                           |f32.ule         |                b: "f32.ule" 0x30-0x37 (7)
    |                                               |                |              d{}: 0x37-0x39 (2)
0x30|                     00                        |       .        |                tag: "funcidx" (0x0) 0x37-0x38 (1)
0x30|                        01                     |        .       |                x: 1 (valid) 0x38-0x39 (1)
    |                                               |                |            [2]{}: ex 0x39-0x43 (10)
    |                                               |                |              nm{}: 0x39-0x41 (8)
0x30|                           07                  |         .      |                n: 7 (valid) 0x39-0x3a (1)
0x30|                              66 33 32 2e 75 67|          f32.ug|                b: "f32.ugt" 0x3a-0x41 (7)
0x40|74                                             |t               |
    |                                               |                |              d{}: 0x41-0x43 (2)
0x40|   00                                          | .              |                tag: "funcidx" (0x0) 0x41-0x42 (1)
0x40|      02                                       |  .             |                x: 2 (valid) 0x42-0x43 (1)
    |                                               |                |            [3]{}: ex 0x43-0x4d (10)
    |                                               |                |              nm{}: 0x43-0x4b (8)
0x40|         07                                    |   .            |                n: 7 (valid) 0x43-0x44 (1)
0x40|            66 33 32 2e 75 67 65               |    f32.uge     |                b: "f32.uge" 0x44-0x4b (7)
    |                                               |                |              d{}: 0x4b-0x4d (2)
0x40|                                 00            |           .    |                tag: "funcidx" (0x0) 0x4b-0x4c (1)
0x40|                                    03         |            .   |                x: 3 (valid) 0x4c-0x4d (1)
    |                                               |                |            [4]{}: ex 0x4d-0x57 (10)
    |                                               |                |              nm{}: 0x4d-0x55 (8)
0x40|                                       07      |             .  |                n: 7 (valid) 0x4d-0x4e (1)
0x40|                                          66 36|              f6|                b: "f64.ult" 0x4e-0x55 (7)
0x50|34 2e 75 6c 74                                 |4.ult           |
    |                                               |                |              d{}: 0x55-0x57 (2)
0x50|               00                              |     .          |                tag: "funcidx" (0x0) 0x55-0x56 (1)
0x50|                  04                           |      .         |                x: 4 (valid) 0x56-0x57 (1)
    |                                               |                |            [5]{}: ex 0x57-0x61 (10)
    |                                               |                |              nm{}: 0x57-0x5f (8)
0x50|                     07                        |       .        |                n: 7 (valid) 0x57-0x58 (1)
0x50|                        66 36 34 2e 75 6c 65   |        f64.ule |                b: "f64.ule" 0x58-0x5f (7)
    |                                               |                |              d{}: 0x5f-0x61 (2)
0x50|                                             00|               .|                tag: "funcidx" (0x0) 0x5f-0x60 (1)
0x60|05                                             |.               |                x: 5 (valid) 0x60-0x61 (1)
    |                                               |                |            [6]{}: ex 0x61-0x6b (10)
    |                                               |                |              nm{}: 0x61-0x69 (8)
0x60|   07                                          | .              |                n: 7 (valid) 0x61-0x62 (1)
0x60|      66 36 34 2e 75 67 74                     |  f64.ugt       |                b: "f64.ugt" 0x62-0x69 (7)
    |                                               |                |              d{}: 0x69-0x6b (2)
0x60|                           00                  |         .      |                tag: "funcidx" (0x0) 0x69-0x6a (1)
0x60|                              06               |          .     |                x: 6 (valid) 0x6a-0x6b (1)
    |                                               |                |            [7]{}: ex 0x6b-0x75 (10)
    |                                               |                |              nm{}: 0x6b-0x73 (8)
0x60|                                 07            |           .    |                n: 7 (valid) 0x6b-0x6c (1)
0x60|                                    66 36 34 2e|            f64.|                b: "f64.uge" 0x6c-0x73 (7)
0x70|75 67 65                                       |uge             |
    |                                               |                |              d{}: 0x73-0x75 (2)
0x70|         00                                    |   .            |                tag: "funcidx" (0x0) 0x73-0x74 (1)
0x70|            07                                 |    .           |                x: 7 (valid) 0x74-0x75 (1)
    |                                               |                |    [3]{}: section 0x75-0xc0 (75)
0x70|               0a                              |     .          |      id: "code_section" (10) 0x75-0x76 (1)
0x70|                  49                           |      I         |      size: 73 (valid) 0x76-0x77 (1)
    |                                               |                |      content{}: 0x77-0xc0 (73)
    |                                               |                |        code{}: 0x77-0xc0 (73)
0x70|                     08                        |       .        |          n: 8 (valid) 0x77-0x78 (1)
    |                                               |                |          x[0:8]: 0x78-0xc0 (72)
    |                                               |                |            [0]{}: code 0x78-0x81 (9)
0x70|                        08                     |        .       |              size: 8 (valid) 0x78-0x79 (1)
    |                                               |                |              code{}: 0x79-0x81 (8)
    |                                               |                |                t{}: 0x79-0x7a (1)
0x70|                           00                  |         .      |                  n: 0 (valid) 0x79-0x7a (1)
    |                                               |                |                  x[0:0]: 0x7a-0x7a (0)
    |                                               |                |                e[0:5]: 0x7a-0x81 (7)
    |                                               |                |                  [0]{}: in 0x7a-0x7c (2)
0x70|                              20               |                |                    opcode: "local.get" (0x20) 0x7a-0x7b (1)
0x70|                                 00            |           .    |                    x: 0 (valid) 0x7b-0x7c (1)
    |                                               |                |                  [1]{}: in 0x7c-0x7e (2)
0x70|                                    20         |                |                    opcode: "local.get" (0x20) 0x7c-0x7d (1)
0x70|                                       01      |             .  |                    x: 1 (valid) 0x7d-0x7e (1)
    |                                               |                |                  [2]{}: in 0x7e-0x7f (1)
0x70|                                          60   |              ` |                    opcode: "f32.ge" (0x60) 0x7e-0x7f (1)
    |                                               |                |                  [3]{}: in 0x7f-0x80 (1)
0x70|                                             45|               E|                    opcode: "32.eqz" (0x45) 0x7f-0x80 (1)
    |                                               |                |                  [4]{}: in 0x80-0x81 (1)
0x80|0b                                             |.               |                    opcode: "end" (0xb) 0x80-0x81 (1)
    |                                               |                |            [1]{}: code 0x81-0x8a (9)
0x80|   08                                          | .              |              size: 8 (valid) 0x81-0x82 (1)
    |                                               |                |              code{}: 0x82-0x8a (8)
    |                                               |                |                t{}: 0x82-0x83 (1)
0x80|      00                                       |  .             |                  n: 0 (valid) 0x82-0x83 (1)
    |                                               |                |                  x[0:0]: 0x83-0x83 (0)
    |                                               |                |                e[0:5]: 0x83-0x8a (7)
    |                                               |                |                  [0]{}: in 0x83-0x85 (2)
0x80|         20                                    |                |                    opcode: "local.get" (0x20) 0x83-0x84 (1)
0x80|            00                                 |    .           |                    x: 0 (valid) 0x84-0x85 (1)
    |                                               |                |                  [1]{}: in 0x85-0x87 (2)
0x80|               20                              |                |                    opcode: "local.get" (0x20) 0x85-0x86 (1)
0x80|                  01                           |      .         |                    x: 1 (valid) 0x86-0x87 (1)
    |                                               |                |                  [2]{}: in 0x87-0x88 (1)
0x80|                     5e                        |       ^        |                    opcode: "f32.gt" (0x5e) 0x87-0x88 (1)
    |                                               |                |                  [3]{}: in 0x88-0x89 (1)
0x80|                        45                     |        E       |                    opcode: "32.eqz" (0x45) 0x88-0x89 (1)
    |                                               |                |                  [4]{}: in 0x89-0x8a (1)
0x80|                           0b                  |         .      |                    opcode: "end" (0xb) 0x89-0x8a (1)
    |                                               |                |            [2]{}: code 0x8a-0x93 (9)
0x80|                              08               |          .     |              size: 8 (valid) 0x8a-0x8b (1)
    |                                               |                |              code{}: 0x8b-0x93 (8)
    |                                               |                |                t{}: 0x8b-0x8c (1)
0x80|                                 00            |           .    |                  n: 0 (valid) 0x8b-0x8c (1)
    |                                               |                |                  x[0:0]: 0x8c-0x8c (0)
    |                                               |                |                e[0:5]: 0x8c-0x93 (7)
    |                                               |                |                  [0]{}: in 0x8c-0x8e (2)
0x80|                                    20         |                |                    opcode: "local.get" (0x20) 0x8c-0x8d (1)
0x80|                                       00      |             .  |                    x: 0 (valid) 0x8d-0x8e (1)
    |                                               |                |                  [1]{}: in 0x8e-0x90 (2)
0x80|                                          20   |                |                    opcode: "local.get" (0x20) 0x8e-0x8f (1)
0x80|                                             01|               .|                    x: 1 (valid) 0x8f-0x90 (1)
    |                                               |                |                  [2]{}: in 0x90-0x91 (1)
0x90|5f                                             |_               |                    opcode: "f32.le" (0x5f) 0x90-0x91 (1)
    |                                               |                |                  [3]{}: in 0x91-0x92 (1)
0x90|   45                                          | E              |                    opcode: "32.eqz" (0x45) 0x91-0x92 (1)
    |                                               |                |                  [4]{}: in 0x92-0x93 (1)
0x90|      0b                                       |  .             |                    opcode: "end" (0xb) 0x92-0x93 (1)
    |                                               |                |            [3]{}: code 0x93-0x9c (9)
0x90|         08                                    |   .            |              size: 8 (valid) 0x93-0x94 (1)
    |                                               |                |              code{}: 0x94-0x9c (8)
    |                                               |                |                t{}: 0x94-0x95 (1)
0x90|            00                                 |    .           |                  n: 0 (valid) 0x94-0x95 (1)
    |                                               |                |                  x[0:0]: 0x95-0x95 (0)
    |                                               |                |                e[0:5]: 0x95-0x9c (7)
    |                                               |                |                  [0]{}: in 0x95-0x97 (2)
0x90|               20                              |                |                    opcode: "local.get" (0x20) 0x95-0x96 (1)
0x90|                  00                           |      .         |                    x: 0 (valid) 0x96-0x97 (1)
    |                                               |                |                  [1]{}: in 0x97-0x99 (2)
0x90|                     20                        |                |                    opcode: "local.get" (0x20) 0x97-0x98 (1)
0x90|                        01                     |        .       |                    x: 1 (valid) 0x98-0x99 (1)
    |                                               |                |                  [2]{}: in 0x99-0x9a (1)
0x90|                           5d                  |         ]      |                    opcode: "f32.lt" (0x5d) 0x99-0x9a (1)
    |                                               |                |                  [3]{}: in 0x9a-0x9b (1)
0x90|                              45               |          E     |                    opcode: "32.eqz" (0x45) 0x9a-0x9b (1)
    |                                               |                |                  [4]{}: in 0x9b-0x9c (1)
0x90|                                 0b            |           .    |                    opcode: "end" (0xb) 0x9b-0x9c (1)
    |                                               |                |            [4]{}: code 0x9c-0xa5 (9)
0x90|                                    08         |            .   |              size: 8 (valid) 0x9c-0x9d (1)
    |                                               |                |              code{}: 0x9d-0xa5 (8)
    |                                               |                |                t{}: 0x9d-0x9e (1)
0x90|                                       00      |             .  |                  n: 0 (valid) 0x9d-0x9e (1)
    |                                               |                |                  x[0:0]: 0x9e-0x9e (0)
    |                                               |                |                e[0:5]: 0x9e-0xa5 (7)
    |                                               |                |                  [0]{}: in 0x9e-0xa0 (2)
0x90|                                          20   |                |                    opcode: "local.get" (0x20) 0x9e-0x9f (1)
0x90|                                             00|               .|                    x: 0 (valid) 0x9f-0xa0 (1)
    |                                               |                |                  [1]{}: in 0xa0-0xa2 (2)
0xa0|20                                             |                |                    opcode: "local.get" (0x20) 0xa0-0xa1 (1)
0xa0|   01                                          | .              |                    x: 1 (valid) 0xa1-0xa2 (1)
    |                                               |                |                  [2]{}: in 0xa2-0xa3 (1)
0xa0|      66                                       |  f             |                    opcode: "f64.ge" (0x66) 0xa2-0xa3 (1)
    |                                               |                |                  [3]{}: in 0xa3-0xa4 (1)
0xa0|         45                                    |   E            |                    opcode: "32.eqz" (0x45) 0xa3-0xa4 (1)
    |                                               |                |                  [4]{}: in 0xa4-0xa5 (1)
0xa0|            0b                                 |    .           |                    opcode: "end" (0xb) 0xa4-0xa5 (1)
    |                                               |                |            [5]{}: code 0xa5-0xae (9)
0xa0|               08                              |     .          |              size: 8 (valid) 0xa5-0xa6 (1)
    |                                               |                |              code{}: 0xa6-0xae (8)
    |                                               |                |                t{}: 0xa6-0xa7 (1)
0xa0|                  00                           |      .         |                  n: 0 (valid) 0xa6-0xa7 (1)
    |                                               |                |                  x[0:0]: 0xa7-0xa7 (0)
    |                                               |                |                e[0:5]: 0xa7-0xae (7)
    |                                               |                |                  [0]{}: in 0xa7-0xa9 (2)
0xa0|                     20                        |                |                    opcode: "local.get" (0x20) 0xa7-0xa8 (1)
0xa0|                        00                     |        .       |                    x: 0 (valid) 0xa8-0xa9 (1)
    |                                               |                |                  [1]{}: in 0xa9-0xab (2)
0xa0|                           20                  |                |                    opcode: "local.get" (0x20) 0xa9-0xaa (1)
0xa0|                              01               |          .     |                    x: 1 (valid) 0xaa-0xab (1)
    |                                               |                |                  [2]{}: in 0xab-0xac (1)
0xa0|                                 64            |           d    |                    opcode: "f64.gt" (0x64) 0xab-0xac (1)
    |                                               |                |                  [3]{}: in 0xac-0xad (1)
0xa0|                                    45         |            E   |                    opcode: "32.eqz" (0x45) 0xac-0xad (1)
    |                                               |                |                  [4]{}: in 0xad-0xae (1)
0xa0|                                       0b      |             .  |                    opcode: "end" (0xb) 0xad-0xae (1)
    |                                               |                |            [6]{}: code 0xae-0xb7 (9)
0xa0|                                          08   |              . |              size: 8 (valid) 0xae-0xaf (1)
    |                                               |                |              code{}: 0xaf-0xb7 (8)
    |                                               |                |                t{}: 0xaf-0xb0 (1)
0xa0|                                             00|               .|                  n: 0 (valid) 0xaf-0xb0 (1)
    |                                               |                |                  x[0:0]: 0xb0-0xb0 (0)
    |                                               |                |                e[0:5]: 0xb0-0xb7 (7)
    |                                               |                |                  [0]{}: in 0xb0-0xb2 (2)
0xb0|20                                             |                |                    opcode: "local.get" (0x20) 0xb0-0xb1 (1)
0xb0|   00                                          | .              |                    x: 0 (valid) 0xb1-0xb2 (1)
    |                                               |                |                  [1]{}: in 0xb2-0xb4 (2)
0xb0|      20                                       |                |                    opcode: "local.get" (0x20) 0xb2-0xb3 (1)
0xb0|         01                                    |   .            |                    x: 1 (valid) 0xb3-0xb4 (1)
    |                                               |                |                  [2]{}: in 0xb4-0xb5 (1)
0xb0|            65                                 |    e           |                    opcode: "f64.le" (0x65) 0xb4-0xb5 (1)
    |                                               |                |                  [3]{}: in 0xb5-0xb6 (1)
0xb0|               45                              |     E          |                    opcode: "32.eqz" (0x45) 0xb5-0xb6 (1)
    |                                               |                |                  [4]{}: in 0xb6-0xb7 (1)
0xb0|                  0b                           |      .         |                    opcode: "end" (0xb) 0xb6-0xb7 (1)
    |                                               |                |            [7]{}: code 0xb7-0xc0 (9)
0xb0|                     08                        |       .        |              size: 8 (valid) 0xb7-0xb8 (1)
    |                                               |                |              code{}: 0xb8-0xc0 (8)
    |                                               |                |                t{}: 0xb8-0xb9 (1)
0xb0|                        00                     |        .       |                  n: 0 (valid) 0xb8-0xb9 (1)
    |                                               |                |                  x[0:0]: 0xb9-0xb9 (0)
    |                                               |                |                e[0:5]: 0xb9-0xc0 (7)
    |                                               |                |                  [0]{}: in 0xb9-0xbb (2)
0xb0|                           20                  |                |                    opcode: "local.get" (0x20) 0xb9-0xba (1)
0xb0|                              00               |          .     |                    x: 0 (valid) 0xba-0xbb (1)
    |                                               |                |                  [1]{}: in 0xbb-0xbd (2)
0xb0|                                 20            |                |                    opcode: "local.get" (0x20) 0xbb-0xbc (1)
0xb0|                                    01         |            .   |                    x: 1 (valid) 0xbc-0xbd (1)
    |                                               |                |                  [2]{}: in 0xbd-0xbe (1)
0xb0|                                       63      |             c  |                    opcode: "f64.lt" (0x63) 0xbd-0xbe (1)
    |                                               |                |                  [3]{}: in 0xbe-0xbf (1)
0xb0|                                          45   |              E |                    opcode: "32.eqz" (0x45) 0xbe-0xbf (1)
    |                                               |                |                  [4]{}: in 0xbf-0xc0 (1)
0xb0|                                             0b|               .|                    opcode: "end" (0xb) 0xbf-0xc0 (1)
