$ fq -d wasm dv float_exprs-34.wasm
    |00 01 02 03 04 05 06 07 08 09 0a 0b 0c 0d 0e 0f|0123456789abcdef|.{}: float_exprs-34.wasm (wasm) 0x0-0x79.7 (122)
0x00|00 61 73 6d                                    |.asm            |  magic: raw bits (valid) 0x0-0x3.7 (4)
0x00|            01 00 00 00                        |    ....        |  version: 1 0x4-0x7.7 (4)
    |                                               |                |  sections[0:4]: 0x8-0x79.7 (114)
    |                                               |                |    [0]{}: section 0x8-0x14.7 (13)
0x00|                        01                     |        .       |      id: "type section" (1) 0x8-0x8.7 (1)
0x00|                           0b                  |         .      |      size: 11 0x9-0x9.7 (1)
    |                                               |                |      content{}: 0xa-0x14.7 (11)
    |                                               |                |        ft{}: 0xa-0x14.7 (11)
0x00|                              02               |          .     |          n: 2 0xa-0xa.7 (1)
    |                                               |                |          x[0:2]: 0xb-0x14.7 (10)
    |                                               |                |            [0]{}: ft 0xb-0xf.7 (5)
0x00|                                 60            |           `    |              tag: 0x60 (valid) 0xb-0xb.7 (1)
    |                                               |                |              rt1{}: 0xc-0xd.7 (2)
0x00|                                    01         |            .   |                n: 1 0xc-0xc.7 (1)
    |                                               |                |                x[0:1]: 0xd-0xd.7 (1)
0x00|                                       7d      |             }  |                  [0]: "f32" (0x7d) t 0xd-0xd.7 (1)
    |                                               |                |              rt2{}: 0xe-0xf.7 (2)
0x00|                                          01   |              . |                n: 1 0xe-0xe.7 (1)
    |                                               |                |                x[0:1]: 0xf-0xf.7 (1)
0x00|                                             7d|               }|                  [0]: "f32" (0x7d) t 0xf-0xf.7 (1)
    |                                               |                |            [1]{}: ft 0x10-0x14.7 (5)
0x10|60                                             |`               |              tag: 0x60 (valid) 0x10-0x10.7 (1)
    |                                               |                |              rt1{}: 0x11-0x12.7 (2)
0x10|   01                                          | .              |                n: 1 0x11-0x11.7 (1)
    |                                               |                |                x[0:1]: 0x12-0x12.7 (1)
0x10|      7c                                       |  |             |                  [0]: "f64" (0x7c) t 0x12-0x12.7 (1)
    |                                               |                |              rt2{}: 0x13-0x14.7 (2)
0x10|         01                                    |   .            |                n: 1 0x13-0x13.7 (1)
    |                                               |                |                x[0:1]: 0x14-0x14.7 (1)
0x10|            7c                                 |    |           |                  [0]: "f64" (0x7c) t 0x14-0x14.7 (1)
    |                                               |                |    [1]{}: section 0x15-0x19.7 (5)
0x10|               03                              |     .          |      id: "function section" (3) 0x15-0x15.7 (1)
0x10|                  03                           |      .         |      size: 3 0x16-0x16.7 (1)
    |                                               |                |      content{}: 0x17-0x19.7 (3)
    |                                               |                |        x{}: 0x17-0x19.7 (3)
0x10|                     02                        |       .        |          n: 2 0x17-0x17.7 (1)
    |                                               |                |          x[0:2]: 0x18-0x19.7 (2)
0x10|                        00                     |        .       |            [0]: 0 x 0x18-0x18.7 (1)
0x10|                           01                  |         .      |            [1]: 1 x 0x19-0x19.7 (1)
    |                                               |                |    [2]{}: section 0x1a-0x4c.7 (51)
0x10|                              07               |          .     |      id: "export section" (7) 0x1a-0x1a.7 (1)
0x10|                                 31            |           1    |      size: 49 0x1b-0x1b.7 (1)
    |                                               |                |      content{}: 0x1c-0x4c.7 (49)
    |                                               |                |        ex{}: 0x1c-0x4c.7 (49)
0x10|                                    02         |            .   |          n: 2 0x1c-0x1c.7 (1)
    |                                               |                |          x[0:2]: 0x1d-0x4c.7 (48)
    |                                               |                |            [0]{}: ex 0x1d-0x34.7 (24)
    |                                               |                |              nm{}: 0x1d-0x32.7 (22)
0x10|                                       15      |             .  |                n: 21 0x1d-0x1d.7 (1)
0x10|                                          66 33|              f3|                b: "f32.no_fold_div2_mul2" 0x1e-0x32.7 (21)
0x20|32 2e 6e 6f 5f 66 6f 6c 64 5f 64 69 76 32 5f 6d|2.no_fold_div2_m|
0x30|75 6c 32                                       |ul2             |
    |                                               |                |              d{}: 0x33-0x34.7 (2)
0x30|         00                                    |   .            |                tag: "funcidx" (0x0) 0x33-0x33.7 (1)
0x30|            00                                 |    .           |                x: 0 0x34-0x34.7 (1)
    |                                               |                |            [1]{}: ex 0x35-0x4c.7 (24)
    |                                               |                |              nm{}: 0x35-0x4a.7 (22)
0x30|               15                              |     .          |                n: 21 0x35-0x35.7 (1)
0x30|                  66 36 34 2e 6e 6f 5f 66 6f 6c|      f64.no_fol|                b: "f64.no_fold_div2_mul2" 0x36-0x4a.7 (21)
0x40|64 5f 64 69 76 32 5f 6d 75 6c 32               |d_div2_mul2     |
    |                                               |                |              d{}: 0x4b-0x4c.7 (2)
0x40|                                 00            |           .    |                tag: "funcidx" (0x0) 0x4b-0x4b.7 (1)
0x40|                                    01         |            .   |                x: 1 0x4c-0x4c.7 (1)
    |                                               |                |    [3]{}: section 0x4d-0x79.7 (45)
0x40|                                       0a      |             .  |      id: "code section" (10) 0x4d-0x4d.7 (1)
0x40|                                          2b   |              + |      size: 43 0x4e-0x4e.7 (1)
    |                                               |                |      content{}: 0x4f-0x79.7 (43)
    |                                               |                |        code{}: 0x4f-0x79.7 (43)
0x40|                                             02|               .|          n: 2 0x4f-0x4f.7 (1)
    |                                               |                |          x[0:2]: 0x50-0x79.7 (42)
    |                                               |                |            [0]{}: code 0x50-0x60.7 (17)
0x50|10                                             |.               |              size: 16 0x50-0x50.7 (1)
    |                                               |                |              code{}: 0x51-0x60.7 (16)
    |                                               |                |                t{}: 0x51-0x51.7 (1)
0x50|   00                                          | .              |                  n: 0 0x51-0x51.7 (1)
    |                                               |                |                  x[0:0]: 0x52-NA (0)
    |                                               |                |                e[0:6]: 0x52-0x60.7 (15)
    |                                               |                |                  [0]{}: in 0x52-0x53.7 (2)
0x50|      20                                       |                |                    local.get: 0x20 (valid) 0x52-0x52.7 (1)
0x50|         00                                    |   .            |                    x: 0 0x53-0x53.7 (1)
    |                                               |                |                  [1]{}: in 0x54-0x58.7 (5)
0x50|            43                                 |    C           |                    f32.const: 0x43 (valid) 0x54-0x54.7 (1)
0x50|               00 00 00 40                     |     ...@       |                    z: 2 0x55-0x58.7 (4)
    |                                               |                |                  [2]{}: in 0x59-0x59.7 (1)
0x50|                           95                  |         .      |                    f32.div: 0x95 (valid) 0x59-0x59.7 (1)
    |                                               |                |                  [3]{}: in 0x5a-0x5e.7 (5)
0x50|                              43               |          C     |                    f32.const: 0x43 (valid) 0x5a-0x5a.7 (1)
0x50|                                 00 00 00 40   |           ...@ |                    z: 2 0x5b-0x5e.7 (4)
    |                                               |                |                  [4]{}: in 0x5f-0x5f.7 (1)
0x50|                                             94|               .|                    f32.mul: 0x94 (valid) 0x5f-0x5f.7 (1)
    |                                               |                |                  [5]{}: in 0x60-0x60.7 (1)
0x60|0b                                             |.               |                    end: 0xb (valid) 0x60-0x60.7 (1)
    |                                               |                |            [1]{}: code 0x61-0x79.7 (25)
0x60|   18                                          | .              |              size: 24 0x61-0x61.7 (1)
    |                                               |                |              code{}: 0x62-0x79.7 (24)
    |                                               |                |                t{}: 0x62-0x62.7 (1)
0x60|      00                                       |  .             |                  n: 0 0x62-0x62.7 (1)
    |                                               |                |                  x[0:0]: 0x63-NA (0)
    |                                               |                |                e[0:6]: 0x63-0x79.7 (23)
    |                                               |                |                  [0]{}: in 0x63-0x64.7 (2)
0x60|         20                                    |                |                    local.get: 0x20 (valid) 0x63-0x63.7 (1)
0x60|            00                                 |    .           |                    x: 0 0x64-0x64.7 (1)
    |                                               |                |                  [1]{}: in 0x65-0x6d.7 (9)
0x60|               44                              |     D          |                    f64.const: 0x44 (valid) 0x65-0x65.7 (1)
0x60|                  00 00 00 00 00 00 00 40      |      .......@  |                    z: 2 0x66-0x6d.7 (8)
    |                                               |                |                  [2]{}: in 0x6e-0x6e.7 (1)
0x60|                                          a3   |              . |                    f64.div: 0xa3 (valid) 0x6e-0x6e.7 (1)
    |                                               |                |                  [3]{}: in 0x6f-0x77.7 (9)
0x60|                                             44|               D|                    f64.const: 0x44 (valid) 0x6f-0x6f.7 (1)
0x70|00 00 00 00 00 00 00 40                        |.......@        |                    z: 2 0x70-0x77.7 (8)
    |                                               |                |                  [4]{}: in 0x78-0x78.7 (1)
0x70|                        a2                     |        .       |                    f64.mul: 0xa2 (valid) 0x78-0x78.7 (1)
    |                                               |                |                  [5]{}: in 0x79-0x79.7 (1)
0x70|                           0b|                 |         .|     |                    end: 0xb (valid) 0x79-0x79.7 (1)
