$ fq -d wasm dv float_exprs-34.wasm
    |00 01 02 03 04 05 06 07 08 09 0a 0b 0c 0d 0e 0f|0123456789abcdef|.{}: float_exprs-34.wasm (wasm) 0x0-0x7a (122)
0x00|00 61 73 6d                                    |.asm            |  magic: raw bits (valid) 0x0-0x4 (4)
0x00|            01 00 00 00                        |    ....        |  version: 1 0x4-0x8 (4)
    |                                               |                |  sections[0:4]: 0x8-0x7a (114)
    |                                               |                |    [0]{}: section 0x8-0x15 (13)
0x00|                        01                     |        .       |      id: "type_section" (1) 0x8-0x9 (1)
0x00|                           0b                  |         .      |      size: 11 (valid) 0x9-0xa (1)
    |                                               |                |      content{}: 0xa-0x15 (11)
    |                                               |                |        ft{}: 0xa-0x15 (11)
0x00|                              02               |          .     |          n: 2 (valid) 0xa-0xb (1)
    |                                               |                |          x[0:2]: 0xb-0x15 (10)
    |                                               |                |            [0]{}: ft 0xb-0x10 (5)
0x00|                                 60            |           `    |              tag: 0x60 (valid) 0xb-0xc (1)
    |                                               |                |              rt1{}: 0xc-0xe (2)
0x00|                                    01         |            .   |                n: 1 (valid) 0xc-0xd (1)
    |                                               |                |                x[0:1]: 0xd-0xe (1)
0x00|                                       7d      |             }  |                  [0]: "f32" (0x7d) t 0xd-0xe (1)
    |                                               |                |              rt2{}: 0xe-0x10 (2)
0x00|                                          01   |              . |                n: 1 (valid) 0xe-0xf (1)
    |                                               |                |                x[0:1]: 0xf-0x10 (1)
0x00|                                             7d|               }|                  [0]: "f32" (0x7d) t 0xf-0x10 (1)
    |                                               |                |            [1]{}: ft 0x10-0x15 (5)
0x10|60                                             |`               |              tag: 0x60 (valid) 0x10-0x11 (1)
    |                                               |                |              rt1{}: 0x11-0x13 (2)
0x10|   01                                          | .              |                n: 1 (valid) 0x11-0x12 (1)
    |                                               |                |                x[0:1]: 0x12-0x13 (1)
0x10|      7c                                       |  |             |                  [0]: "f64" (0x7c) t 0x12-0x13 (1)
    |                                               |                |              rt2{}: 0x13-0x15 (2)
0x10|         01                                    |   .            |                n: 1 (valid) 0x13-0x14 (1)
    |                                               |                |                x[0:1]: 0x14-0x15 (1)
0x10|            7c                                 |    |           |                  [0]: "f64" (0x7c) t 0x14-0x15 (1)
    |                                               |                |    [1]{}: section 0x15-0x1a (5)
0x10|               03                              |     .          |      id: "function_section" (3) 0x15-0x16 (1)
0x10|                  03                           |      .         |      size: 3 (valid) 0x16-0x17 (1)
    |                                               |                |      content{}: 0x17-0x1a (3)
    |                                               |                |        x{}: 0x17-0x1a (3)
0x10|                     02                        |       .        |          n: 2 (valid) 0x17-0x18 (1)
    |                                               |                |          x[0:2]: 0x18-0x1a (2)
0x10|                        00                     |        .       |            [0]: 0 x (valid) 0x18-0x19 (1)
0x10|                           01                  |         .      |            [1]: 1 x (valid) 0x19-0x1a (1)
    |                                               |                |    [2]{}: section 0x1a-0x4d (51)
0x10|                              07               |          .     |      id: "export_section" (7) 0x1a-0x1b (1)
0x10|                                 31            |           1    |      size: 49 (valid) 0x1b-0x1c (1)
    |                                               |                |      content{}: 0x1c-0x4d (49)
    |                                               |                |        ex{}: 0x1c-0x4d (49)
0x10|                                    02         |            .   |          n: 2 (valid) 0x1c-0x1d (1)
    |                                               |                |          x[0:2]: 0x1d-0x4d (48)
    |                                               |                |            [0]{}: ex 0x1d-0x35 (24)
    |                                               |                |              nm{}: 0x1d-0x33 (22)
0x10|                                       15      |             .  |                n: 21 (valid) 0x1d-0x1e (1)
0x10|                                          66 33|              f3|                b: "f32.no_fold_div2_mul2" 0x1e-0x33 (21)
0x20|32 2e 6e 6f 5f 66 6f 6c 64 5f 64 69 76 32 5f 6d|2.no_fold_div2_m|
0x30|75 6c 32                                       |ul2             |
    |                                               |                |              d{}: 0x33-0x35 (2)
0x30|         00                                    |   .            |                tag: "funcidx" (0x0) 0x33-0x34 (1)
0x30|            00                                 |    .           |                x: 0 (valid) 0x34-0x35 (1)
    |                                               |                |            [1]{}: ex 0x35-0x4d (24)
    |                                               |                |              nm{}: 0x35-0x4b (22)
0x30|               15                              |     .          |                n: 21 (valid) 0x35-0x36 (1)
0x30|                  66 36 34 2e 6e 6f 5f 66 6f 6c|      f64.no_fol|                b: "f64.no_fold_div2_mul2" 0x36-0x4b (21)
0x40|64 5f 64 69 76 32 5f 6d 75 6c 32               |d_div2_mul2     |
    |                                               |                |              d{}: 0x4b-0x4d (2)
0x40|                                 00            |           .    |                tag: "funcidx" (0x0) 0x4b-0x4c (1)
0x40|                                    01         |            .   |                x: 1 (valid) 0x4c-0x4d (1)
    |                                               |                |    [3]{}: section 0x4d-0x7a (45)
0x40|                                       0a      |             .  |      id: "code_section" (10) 0x4d-0x4e (1)
0x40|                                          2b   |              + |      size: 43 (valid) 0x4e-0x4f (1)
    |                                               |                |      content{}: 0x4f-0x7a (43)
    |                                               |                |        code{}: 0x4f-0x7a (43)
0x40|                                             02|               .|          n: 2 (valid) 0x4f-0x50 (1)
    |                                               |                |          x[0:2]: 0x50-0x7a (42)
    |                                               |                |            [0]{}: code 0x50-0x61 (17)
0x50|10                                             |.               |              size: 16 (valid) 0x50-0x51 (1)
    |                                               |                |              code{}: 0x51-0x61 (16)
    |                                               |                |                t{}: 0x51-0x52 (1)
0x50|   00                                          | .              |                  n: 0 (valid) 0x51-0x52 (1)
    |                                               |                |                  x[0:0]: 0x52-0x52 (0)
    |                                               |                |                e[0:6]: 0x52-0x61 (15)
    |                                               |                |                  [0]{}: in 0x52-0x54 (2)
0x50|      20                                       |                |                    opcode: "local.get" (0x20) 0x52-0x53 (1)
0x50|         00                                    |   .            |                    x: 0 (valid) 0x53-0x54 (1)
    |                                               |                |                  [1]{}: in 0x54-0x59 (5)
0x50|            43                                 |    C           |                    opcode: "f32.const" (0x43) 0x54-0x55 (1)
0x50|               00 00 00 40                     |     ...@       |                    z: 2 0x55-0x59 (4)
    |                                               |                |                  [2]{}: in 0x59-0x5a (1)
0x50|                           95                  |         .      |                    opcode: "f32.div" (0x95) 0x59-0x5a (1)
    |                                               |                |                  [3]{}: in 0x5a-0x5f (5)
0x50|                              43               |          C     |                    opcode: "f32.const" (0x43) 0x5a-0x5b (1)
0x50|                                 00 00 00 40   |           ...@ |                    z: 2 0x5b-0x5f (4)
    |                                               |                |                  [4]{}: in 0x5f-0x60 (1)
0x50|                                             94|               .|                    opcode: "f32.mul" (0x94) 0x5f-0x60 (1)
    |                                               |                |                  [5]{}: in 0x60-0x61 (1)
0x60|0b                                             |.               |                    opcode: "end" (0xb) 0x60-0x61 (1)
    |                                               |                |            [1]{}: code 0x61-0x7a (25)
0x60|   18                                          | .              |              size: 24 (valid) 0x61-0x62 (1)
    |                                               |                |              code{}: 0x62-0x7a (24)
    |                                               |                |                t{}: 0x62-0x63 (1)
0x60|      00                                       |  .             |                  n: 0 (valid) 0x62-0x63 (1)
    |                                               |                |                  x[0:0]: 0x63-0x63 (0)
    |                                               |                |                e[0:6]: 0x63-0x7a (23)
    |                                               |                |                  [0]{}: in 0x63-0x65 (2)
0x60|         20                                    |                |                    opcode: "local.get" (0x20) 0x63-0x64 (1)
0x60|            00                                 |    .           |                    x: 0 (valid) 0x64-0x65 (1)
    |                                               |                |                  [1]{}: in 0x65-0x6e (9)
0x60|               44                              |     D          |                    opcode: "f64.const" (0x44) 0x65-0x66 (1)
0x60|                  00 00 00 00 00 00 00 40      |      .......@  |                    z: 2 0x66-0x6e (8)
    |                                               |                |                  [2]{}: in 0x6e-0x6f (1)
0x60|                                          a3   |              . |                    opcode: "f64.div" (0xa3) 0x6e-0x6f (1)
    |                                               |                |                  [3]{}: in 0x6f-0x78 (9)
0x60|                                             44|               D|                    opcode: "f64.const" (0x44) 0x6f-0x70 (1)
0x70|00 00 00 00 00 00 00 40                        |.......@        |                    z: 2 0x70-0x78 (8)
    |                                               |                |                  [4]{}: in 0x78-0x79 (1)
0x70|                        a2                     |        .       |                    opcode: "f64.mul" (0xa2) 0x78-0x79 (1)
    |                                               |                |                  [5]{}: in 0x79-0x7a (1)
0x70|                           0b|                 |         .|     |                    opcode: "end" (0xb) 0x79-0x7a (1)
