$ fq -d wasm dv float_misc-0.wasm
     |00 01 02 03 04 05 06 07 08 09 0a 0b 0c 0d 0e 0f|0123456789abcdef|.{}: float_misc-0.wasm (wasm) 0x0-0x241.7 (578)
0x000|00 61 73 6d                                    |.asm            |  magic: raw bits (valid) 0x0-0x3.7 (4)
0x000|            01 00 00 00                        |    ....        |  version: 1 0x4-0x7.7 (4)
     |                                               |                |  sections[0:4]: 0x8-0x241.7 (570)
     |                                               |                |    [0]{}: section 0x8-0x20.7 (25)
0x000|                        01                     |        .       |      id: "type section" (1) 0x8-0x8.7 (1)
0x000|                           17                  |         .      |      size: 23 0x9-0x9.7 (1)
     |                                               |                |      content{}: 0xa-0x20.7 (23)
     |                                               |                |        ft{}: 0xa-0x20.7 (23)
0x000|                              04               |          .     |          n: 4 0xa-0xa.7 (1)
     |                                               |                |          x[0:4]: 0xb-0x20.7 (22)
     |                                               |                |            [0]{}: ft 0xb-0x10.7 (6)
0x000|                                 60            |           `    |              tag: 0x60 (valid) 0xb-0xb.7 (1)
     |                                               |                |              rt1{}: 0xc-0xe.7 (3)
0x000|                                    02         |            .   |                n: 2 0xc-0xc.7 (1)
     |                                               |                |                x[0:2]: 0xd-0xe.7 (2)
0x000|                                       7d      |             }  |                  [0]: "f32" (0x7d) t 0xd-0xd.7 (1)
0x000|                                          7d   |              } |                  [1]: "f32" (0x7d) t 0xe-0xe.7 (1)
     |                                               |                |              rt2{}: 0xf-0x10.7 (2)
0x000|                                             01|               .|                n: 1 0xf-0xf.7 (1)
     |                                               |                |                x[0:1]: 0x10-0x10.7 (1)
0x010|7d                                             |}               |                  [0]: "f32" (0x7d) t 0x10-0x10.7 (1)
     |                                               |                |            [1]{}: ft 0x11-0x15.7 (5)
0x010|   60                                          | `              |              tag: 0x60 (valid) 0x11-0x11.7 (1)
     |                                               |                |              rt1{}: 0x12-0x13.7 (2)
0x010|      01                                       |  .             |                n: 1 0x12-0x12.7 (1)
     |                                               |                |                x[0:1]: 0x13-0x13.7 (1)
0x010|         7d                                    |   }            |                  [0]: "f32" (0x7d) t 0x13-0x13.7 (1)
     |                                               |                |              rt2{}: 0x14-0x15.7 (2)
0x010|            01                                 |    .           |                n: 1 0x14-0x14.7 (1)
     |                                               |                |                x[0:1]: 0x15-0x15.7 (1)
0x010|               7d                              |     }          |                  [0]: "f32" (0x7d) t 0x15-0x15.7 (1)
     |                                               |                |            [2]{}: ft 0x16-0x1b.7 (6)
0x010|                  60                           |      `         |              tag: 0x60 (valid) 0x16-0x16.7 (1)
     |                                               |                |              rt1{}: 0x17-0x19.7 (3)
0x010|                     02                        |       .        |                n: 2 0x17-0x17.7 (1)
     |                                               |                |                x[0:2]: 0x18-0x19.7 (2)
0x010|                        7c                     |        |       |                  [0]: "f64" (0x7c) t 0x18-0x18.7 (1)
0x010|                           7c                  |         |      |                  [1]: "f64" (0x7c) t 0x19-0x19.7 (1)
     |                                               |                |              rt2{}: 0x1a-0x1b.7 (2)
0x010|                              01               |          .     |                n: 1 0x1a-0x1a.7 (1)
     |                                               |                |                x[0:1]: 0x1b-0x1b.7 (1)
0x010|                                 7c            |           |    |                  [0]: "f64" (0x7c) t 0x1b-0x1b.7 (1)
     |                                               |                |            [3]{}: ft 0x1c-0x20.7 (5)
0x010|                                    60         |            `   |              tag: 0x60 (valid) 0x1c-0x1c.7 (1)
     |                                               |                |              rt1{}: 0x1d-0x1e.7 (2)
0x010|                                       01      |             .  |                n: 1 0x1d-0x1d.7 (1)
     |                                               |                |                x[0:1]: 0x1e-0x1e.7 (1)
0x010|                                          7c   |              | |                  [0]: "f64" (0x7c) t 0x1e-0x1e.7 (1)
     |                                               |                |              rt2{}: 0x1f-0x20.7 (2)
0x010|                                             01|               .|                n: 1 0x1f-0x1f.7 (1)
     |                                               |                |                x[0:1]: 0x20-0x20.7 (1)
0x020|7c                                             ||               |                  [0]: "f64" (0x7c) t 0x20-0x20.7 (1)
     |                                               |                |    [1]{}: section 0x21-0x3f.7 (31)
0x020|   03                                          | .              |      id: "function section" (3) 0x21-0x21.7 (1)
0x020|      1d                                       |  .             |      size: 29 0x22-0x22.7 (1)
     |                                               |                |      content{}: 0x23-0x3f.7 (29)
     |                                               |                |        x{}: 0x23-0x3f.7 (29)
0x020|         1c                                    |   .            |          n: 28 0x23-0x23.7 (1)
     |                                               |                |          x[0:28]: 0x24-0x3f.7 (28)
0x020|            00                                 |    .           |            [0]: 0 x 0x24-0x24.7 (1)
0x020|               00                              |     .          |            [1]: 0 x 0x25-0x25.7 (1)
0x020|                  00                           |      .         |            [2]: 0 x 0x26-0x26.7 (1)
0x020|                     00                        |       .        |            [3]: 0 x 0x27-0x27.7 (1)
0x020|                        01                     |        .       |            [4]: 1 x 0x28-0x28.7 (1)
0x020|                           01                  |         .      |            [5]: 1 x 0x29-0x29.7 (1)
0x020|                              01               |          .     |            [6]: 1 x 0x2a-0x2a.7 (1)
0x020|                                 00            |           .    |            [7]: 0 x 0x2b-0x2b.7 (1)
0x020|                                    01         |            .   |            [8]: 1 x 0x2c-0x2c.7 (1)
0x020|                                       01      |             .  |            [9]: 1 x 0x2d-0x2d.7 (1)
0x020|                                          01   |              . |            [10]: 1 x 0x2e-0x2e.7 (1)
0x020|                                             01|               .|            [11]: 1 x 0x2f-0x2f.7 (1)
0x030|00                                             |.               |            [12]: 0 x 0x30-0x30.7 (1)
0x030|   00                                          | .              |            [13]: 0 x 0x31-0x31.7 (1)
0x030|      02                                       |  .             |            [14]: 2 x 0x32-0x32.7 (1)
0x030|         02                                    |   .            |            [15]: 2 x 0x33-0x33.7 (1)
0x030|            02                                 |    .           |            [16]: 2 x 0x34-0x34.7 (1)
0x030|               02                              |     .          |            [17]: 2 x 0x35-0x35.7 (1)
0x030|                  03                           |      .         |            [18]: 3 x 0x36-0x36.7 (1)
0x030|                     03                        |       .        |            [19]: 3 x 0x37-0x37.7 (1)
0x030|                        03                     |        .       |            [20]: 3 x 0x38-0x38.7 (1)
0x030|                           02                  |         .      |            [21]: 2 x 0x39-0x39.7 (1)
0x030|                              03               |          .     |            [22]: 3 x 0x3a-0x3a.7 (1)
0x030|                                 03            |           .    |            [23]: 3 x 0x3b-0x3b.7 (1)
0x030|                                    03         |            .   |            [24]: 3 x 0x3c-0x3c.7 (1)
0x030|                                       03      |             .  |            [25]: 3 x 0x3d-0x3d.7 (1)
0x030|                                          02   |              . |            [26]: 2 x 0x3e-0x3e.7 (1)
0x030|                                             02|               .|            [27]: 2 x 0x3f-0x3f.7 (1)
     |                                               |                |    [2]{}: section 0x40-0x179.7 (314)
0x040|07                                             |.               |      id: "export section" (7) 0x40-0x40.7 (1)
0x040|   b7 02                                       | ..             |      size: 311 0x41-0x42.7 (2)
     |                                               |                |      content{}: 0x43-0x179.7 (311)
     |                                               |                |        ex{}: 0x43-0x179.7 (311)
0x040|         1c                                    |   .            |          n: 28 0x43-0x43.7 (1)
     |                                               |                |          x[0:28]: 0x44-0x179.7 (310)
     |                                               |                |            [0]{}: ex 0x44-0x4d.7 (10)
     |                                               |                |              nm{}: 0x44-0x4b.7 (8)
0x040|            07                                 |    .           |                n: 7 0x44-0x44.7 (1)
0x040|               66 33 32 2e 61 64 64            |     f32.add    |                b: "f32.add" 0x45-0x4b.7 (7)
     |                                               |                |              d{}: 0x4c-0x4d.7 (2)
0x040|                                    00         |            .   |                tag: "funcidx" (0x0) 0x4c-0x4c.7 (1)
0x040|                                       00      |             .  |                x: 0 0x4d-0x4d.7 (1)
     |                                               |                |            [1]{}: ex 0x4e-0x57.7 (10)
     |                                               |                |              nm{}: 0x4e-0x55.7 (8)
0x040|                                          07   |              . |                n: 7 0x4e-0x4e.7 (1)
0x040|                                             66|               f|                b: "f32.sub" 0x4f-0x55.7 (7)
0x050|33 32 2e 73 75 62                              |32.sub          |
     |                                               |                |              d{}: 0x56-0x57.7 (2)
0x050|                  00                           |      .         |                tag: "funcidx" (0x0) 0x56-0x56.7 (1)
0x050|                     01                        |       .        |                x: 1 0x57-0x57.7 (1)
     |                                               |                |            [2]{}: ex 0x58-0x61.7 (10)
     |                                               |                |              nm{}: 0x58-0x5f.7 (8)
0x050|                        07                     |        .       |                n: 7 0x58-0x58.7 (1)
0x050|                           66 33 32 2e 6d 75 6c|         f32.mul|                b: "f32.mul" 0x59-0x5f.7 (7)
     |                                               |                |              d{}: 0x60-0x61.7 (2)
0x060|00                                             |.               |                tag: "funcidx" (0x0) 0x60-0x60.7 (1)
0x060|   02                                          | .              |                x: 2 0x61-0x61.7 (1)
     |                                               |                |            [3]{}: ex 0x62-0x6b.7 (10)
     |                                               |                |              nm{}: 0x62-0x69.7 (8)
0x060|      07                                       |  .             |                n: 7 0x62-0x62.7 (1)
0x060|         66 33 32 2e 64 69 76                  |   f32.div      |                b: "f32.div" 0x63-0x69.7 (7)
     |                                               |                |              d{}: 0x6a-0x6b.7 (2)
0x060|                              00               |          .     |                tag: "funcidx" (0x0) 0x6a-0x6a.7 (1)
0x060|                                 03            |           .    |                x: 3 0x6b-0x6b.7 (1)
     |                                               |                |            [4]{}: ex 0x6c-0x76.7 (11)
     |                                               |                |              nm{}: 0x6c-0x74.7 (9)
0x060|                                    08         |            .   |                n: 8 0x6c-0x6c.7 (1)
0x060|                                       66 33 32|             f32|                b: "f32.sqrt" 0x6d-0x74.7 (8)
0x070|2e 73 71 72 74                                 |.sqrt           |
     |                                               |                |              d{}: 0x75-0x76.7 (2)
0x070|               00                              |     .          |                tag: "funcidx" (0x0) 0x75-0x75.7 (1)
0x070|                  04                           |      .         |                x: 4 0x76-0x76.7 (1)
     |                                               |                |            [5]{}: ex 0x77-0x80.7 (10)
     |                                               |                |              nm{}: 0x77-0x7e.7 (8)
0x070|                     07                        |       .        |                n: 7 0x77-0x77.7 (1)
0x070|                        66 33 32 2e 61 62 73   |        f32.abs |                b: "f32.abs" 0x78-0x7e.7 (7)
     |                                               |                |              d{}: 0x7f-0x80.7 (2)
0x070|                                             00|               .|                tag: "funcidx" (0x0) 0x7f-0x7f.7 (1)
0x080|05                                             |.               |                x: 5 0x80-0x80.7 (1)
     |                                               |                |            [6]{}: ex 0x81-0x8a.7 (10)
     |                                               |                |              nm{}: 0x81-0x88.7 (8)
0x080|   07                                          | .              |                n: 7 0x81-0x81.7 (1)
0x080|      66 33 32 2e 6e 65 67                     |  f32.neg       |                b: "f32.neg" 0x82-0x88.7 (7)
     |                                               |                |              d{}: 0x89-0x8a.7 (2)
0x080|                           00                  |         .      |                tag: "funcidx" (0x0) 0x89-0x89.7 (1)
0x080|                              06               |          .     |                x: 6 0x8a-0x8a.7 (1)
     |                                               |                |            [7]{}: ex 0x8b-0x99.7 (15)
     |                                               |                |              nm{}: 0x8b-0x97.7 (13)
0x080|                                 0c            |           .    |                n: 12 0x8b-0x8b.7 (1)
0x080|                                    66 33 32 2e|            f32.|                b: "f32.copysign" 0x8c-0x97.7 (12)
0x090|63 6f 70 79 73 69 67 6e                        |copysign        |
     |                                               |                |              d{}: 0x98-0x99.7 (2)
0x090|                        00                     |        .       |                tag: "funcidx" (0x0) 0x98-0x98.7 (1)
0x090|                           07                  |         .      |                x: 7 0x99-0x99.7 (1)
     |                                               |                |            [8]{}: ex 0x9a-0xa4.7 (11)
     |                                               |                |              nm{}: 0x9a-0xa2.7 (9)
0x090|                              08               |          .     |                n: 8 0x9a-0x9a.7 (1)
0x090|                                 66 33 32 2e 63|           f32.c|                b: "f32.ceil" 0x9b-0xa2.7 (8)
0x0a0|65 69 6c                                       |eil             |
     |                                               |                |              d{}: 0xa3-0xa4.7 (2)
0x0a0|         00                                    |   .            |                tag: "funcidx" (0x0) 0xa3-0xa3.7 (1)
0x0a0|            08                                 |    .           |                x: 8 0xa4-0xa4.7 (1)
     |                                               |                |            [9]{}: ex 0xa5-0xb0.7 (12)
     |                                               |                |              nm{}: 0xa5-0xae.7 (10)
0x0a0|               09                              |     .          |                n: 9 0xa5-0xa5.7 (1)
0x0a0|                  66 33 32 2e 66 6c 6f 6f 72   |      f32.floor |                b: "f32.floor" 0xa6-0xae.7 (9)
     |                                               |                |              d{}: 0xaf-0xb0.7 (2)
0x0a0|                                             00|               .|                tag: "funcidx" (0x0) 0xaf-0xaf.7 (1)
0x0b0|09                                             |.               |                x: 9 0xb0-0xb0.7 (1)
     |                                               |                |            [10]{}: ex 0xb1-0xbc.7 (12)
     |                                               |                |              nm{}: 0xb1-0xba.7 (10)
0x0b0|   09                                          | .              |                n: 9 0xb1-0xb1.7 (1)
0x0b0|      66 33 32 2e 74 72 75 6e 63               |  f32.trunc     |                b: "f32.trunc" 0xb2-0xba.7 (9)
     |                                               |                |              d{}: 0xbb-0xbc.7 (2)
0x0b0|                                 00            |           .    |                tag: "funcidx" (0x0) 0xbb-0xbb.7 (1)
0x0b0|                                    0a         |            .   |                x: 10 0xbc-0xbc.7 (1)
     |                                               |                |            [11]{}: ex 0xbd-0xca.7 (14)
     |                                               |                |              nm{}: 0xbd-0xc8.7 (12)
0x0b0|                                       0b      |             .  |                n: 11 0xbd-0xbd.7 (1)
0x0b0|                                          66 33|              f3|                b: "f32.nearest" 0xbe-0xc8.7 (11)
0x0c0|32 2e 6e 65 61 72 65 73 74                     |2.nearest       |
     |                                               |                |              d{}: 0xc9-0xca.7 (2)
0x0c0|                           00                  |         .      |                tag: "funcidx" (0x0) 0xc9-0xc9.7 (1)
0x0c0|                              0b               |          .     |                x: 11 0xca-0xca.7 (1)
     |                                               |                |            [12]{}: ex 0xcb-0xd4.7 (10)
     |                                               |                |              nm{}: 0xcb-0xd2.7 (8)
0x0c0|                                 07            |           .    |                n: 7 0xcb-0xcb.7 (1)
0x0c0|                                    66 33 32 2e|            f32.|                b: "f32.min" 0xcc-0xd2.7 (7)
0x0d0|6d 69 6e                                       |min             |
     |                                               |                |              d{}: 0xd3-0xd4.7 (2)
0x0d0|         00                                    |   .            |                tag: "funcidx" (0x0) 0xd3-0xd3.7 (1)
0x0d0|            0c                                 |    .           |                x: 12 0xd4-0xd4.7 (1)
     |                                               |                |            [13]{}: ex 0xd5-0xde.7 (10)
     |                                               |                |              nm{}: 0xd5-0xdc.7 (8)
0x0d0|               07                              |     .          |                n: 7 0xd5-0xd5.7 (1)
0x0d0|                  66 33 32 2e 6d 61 78         |      f32.max   |                b: "f32.max" 0xd6-0xdc.7 (7)
     |                                               |                |              d{}: 0xdd-0xde.7 (2)
0x0d0|                                       00      |             .  |                tag: "funcidx" (0x0) 0xdd-0xdd.7 (1)
0x0d0|                                          0d   |              . |                x: 13 0xde-0xde.7 (1)
     |                                               |                |            [14]{}: ex 0xdf-0xe8.7 (10)
     |                                               |                |              nm{}: 0xdf-0xe6.7 (8)
0x0d0|                                             07|               .|                n: 7 0xdf-0xdf.7 (1)
0x0e0|66 36 34 2e 61 64 64                           |f64.add         |                b: "f64.add" 0xe0-0xe6.7 (7)
     |                                               |                |              d{}: 0xe7-0xe8.7 (2)
0x0e0|                     00                        |       .        |                tag: "funcidx" (0x0) 0xe7-0xe7.7 (1)
0x0e0|                        0e                     |        .       |                x: 14 0xe8-0xe8.7 (1)
     |                                               |                |            [15]{}: ex 0xe9-0xf2.7 (10)
     |                                               |                |              nm{}: 0xe9-0xf0.7 (8)
0x0e0|                           07                  |         .      |                n: 7 0xe9-0xe9.7 (1)
0x0e0|                              66 36 34 2e 73 75|          f64.su|                b: "f64.sub" 0xea-0xf0.7 (7)
0x0f0|62                                             |b               |
     |                                               |                |              d{}: 0xf1-0xf2.7 (2)
0x0f0|   00                                          | .              |                tag: "funcidx" (0x0) 0xf1-0xf1.7 (1)
0x0f0|      0f                                       |  .             |                x: 15 0xf2-0xf2.7 (1)
     |                                               |                |            [16]{}: ex 0xf3-0xfc.7 (10)
     |                                               |                |              nm{}: 0xf3-0xfa.7 (8)
0x0f0|         07                                    |   .            |                n: 7 0xf3-0xf3.7 (1)
0x0f0|            66 36 34 2e 6d 75 6c               |    f64.mul     |                b: "f64.mul" 0xf4-0xfa.7 (7)
     |                                               |                |              d{}: 0xfb-0xfc.7 (2)
0x0f0|                                 00            |           .    |                tag: "funcidx" (0x0) 0xfb-0xfb.7 (1)
0x0f0|                                    10         |            .   |                x: 16 0xfc-0xfc.7 (1)
     |                                               |                |            [17]{}: ex 0xfd-0x106.7 (10)
     |                                               |                |              nm{}: 0xfd-0x104.7 (8)
0x0f0|                                       07      |             .  |                n: 7 0xfd-0xfd.7 (1)
0x0f0|                                          66 36|              f6|                b: "f64.div" 0xfe-0x104.7 (7)
0x100|34 2e 64 69 76                                 |4.div           |
     |                                               |                |              d{}: 0x105-0x106.7 (2)
0x100|               00                              |     .          |                tag: "funcidx" (0x0) 0x105-0x105.7 (1)
0x100|                  11                           |      .         |                x: 17 0x106-0x106.7 (1)
     |                                               |                |            [18]{}: ex 0x107-0x111.7 (11)
     |                                               |                |              nm{}: 0x107-0x10f.7 (9)
0x100|                     08                        |       .        |                n: 8 0x107-0x107.7 (1)
0x100|                        66 36 34 2e 73 71 72 74|        f64.sqrt|                b: "f64.sqrt" 0x108-0x10f.7 (8)
     |                                               |                |              d{}: 0x110-0x111.7 (2)
0x110|00                                             |.               |                tag: "funcidx" (0x0) 0x110-0x110.7 (1)
0x110|   12                                          | .              |                x: 18 0x111-0x111.7 (1)
     |                                               |                |            [19]{}: ex 0x112-0x11b.7 (10)
     |                                               |                |              nm{}: 0x112-0x119.7 (8)
0x110|      07                                       |  .             |                n: 7 0x112-0x112.7 (1)
0x110|         66 36 34 2e 61 62 73                  |   f64.abs      |                b: "f64.abs" 0x113-0x119.7 (7)
     |                                               |                |              d{}: 0x11a-0x11b.7 (2)
0x110|                              00               |          .     |                tag: "funcidx" (0x0) 0x11a-0x11a.7 (1)
0x110|                                 13            |           .    |                x: 19 0x11b-0x11b.7 (1)
     |                                               |                |            [20]{}: ex 0x11c-0x125.7 (10)
     |                                               |                |              nm{}: 0x11c-0x123.7 (8)
0x110|                                    07         |            .   |                n: 7 0x11c-0x11c.7 (1)
0x110|                                       66 36 34|             f64|                b: "f64.neg" 0x11d-0x123.7 (7)
0x120|2e 6e 65 67                                    |.neg            |
     |                                               |                |              d{}: 0x124-0x125.7 (2)
0x120|            00                                 |    .           |                tag: "funcidx" (0x0) 0x124-0x124.7 (1)
0x120|               14                              |     .          |                x: 20 0x125-0x125.7 (1)
     |                                               |                |            [21]{}: ex 0x126-0x134.7 (15)
     |                                               |                |              nm{}: 0x126-0x132.7 (13)
0x120|                  0c                           |      .         |                n: 12 0x126-0x126.7 (1)
0x120|                     66 36 34 2e 63 6f 70 79 73|       f64.copys|                b: "f64.copysign" 0x127-0x132.7 (12)
0x130|69 67 6e                                       |ign             |
     |                                               |                |              d{}: 0x133-0x134.7 (2)
0x130|         00                                    |   .            |                tag: "funcidx" (0x0) 0x133-0x133.7 (1)
0x130|            15                                 |    .           |                x: 21 0x134-0x134.7 (1)
     |                                               |                |            [22]{}: ex 0x135-0x13f.7 (11)
     |                                               |                |              nm{}: 0x135-0x13d.7 (9)
0x130|               08                              |     .          |                n: 8 0x135-0x135.7 (1)
0x130|                  66 36 34 2e 63 65 69 6c      |      f64.ceil  |                b: "f64.ceil" 0x136-0x13d.7 (8)
     |                                               |                |              d{}: 0x13e-0x13f.7 (2)
0x130|                                          00   |              . |                tag: "funcidx" (0x0) 0x13e-0x13e.7 (1)
0x130|                                             16|               .|                x: 22 0x13f-0x13f.7 (1)
     |                                               |                |            [23]{}: ex 0x140-0x14b.7 (12)
     |                                               |                |              nm{}: 0x140-0x149.7 (10)
0x140|09                                             |.               |                n: 9 0x140-0x140.7 (1)
0x140|   66 36 34 2e 66 6c 6f 6f 72                  | f64.floor      |                b: "f64.floor" 0x141-0x149.7 (9)
     |                                               |                |              d{}: 0x14a-0x14b.7 (2)
0x140|                              00               |          .     |                tag: "funcidx" (0x0) 0x14a-0x14a.7 (1)
0x140|                                 17            |           .    |                x: 23 0x14b-0x14b.7 (1)
     |                                               |                |            [24]{}: ex 0x14c-0x157.7 (12)
     |                                               |                |              nm{}: 0x14c-0x155.7 (10)
0x140|                                    09         |            .   |                n: 9 0x14c-0x14c.7 (1)
0x140|                                       66 36 34|             f64|                b: "f64.trunc" 0x14d-0x155.7 (9)
0x150|2e 74 72 75 6e 63                              |.trunc          |
     |                                               |                |              d{}: 0x156-0x157.7 (2)
0x150|                  00                           |      .         |                tag: "funcidx" (0x0) 0x156-0x156.7 (1)
0x150|                     18                        |       .        |                x: 24 0x157-0x157.7 (1)
     |                                               |                |            [25]{}: ex 0x158-0x165.7 (14)
     |                                               |                |              nm{}: 0x158-0x163.7 (12)
0x150|                        0b                     |        .       |                n: 11 0x158-0x158.7 (1)
0x150|                           66 36 34 2e 6e 65 61|         f64.nea|                b: "f64.nearest" 0x159-0x163.7 (11)
0x160|72 65 73 74                                    |rest            |
     |                                               |                |              d{}: 0x164-0x165.7 (2)
0x160|            00                                 |    .           |                tag: "funcidx" (0x0) 0x164-0x164.7 (1)
0x160|               19                              |     .          |                x: 25 0x165-0x165.7 (1)
     |                                               |                |            [26]{}: ex 0x166-0x16f.7 (10)
     |                                               |                |              nm{}: 0x166-0x16d.7 (8)
0x160|                  07                           |      .         |                n: 7 0x166-0x166.7 (1)
0x160|                     66 36 34 2e 6d 69 6e      |       f64.min  |                b: "f64.min" 0x167-0x16d.7 (7)
     |                                               |                |              d{}: 0x16e-0x16f.7 (2)
0x160|                                          00   |              . |                tag: "funcidx" (0x0) 0x16e-0x16e.7 (1)
0x160|                                             1a|               .|                x: 26 0x16f-0x16f.7 (1)
     |                                               |                |            [27]{}: ex 0x170-0x179.7 (10)
     |                                               |                |              nm{}: 0x170-0x177.7 (8)
0x170|07                                             |.               |                n: 7 0x170-0x170.7 (1)
0x170|   66 36 34 2e 6d 61 78                        | f64.max        |                b: "f64.max" 0x171-0x177.7 (7)
     |                                               |                |              d{}: 0x178-0x179.7 (2)
0x170|                        00                     |        .       |                tag: "funcidx" (0x0) 0x178-0x178.7 (1)
0x170|                           1b                  |         .      |                x: 27 0x179-0x179.7 (1)
     |                                               |                |    [3]{}: section 0x17a-0x241.7 (200)
0x170|                              0a               |          .     |      id: "code section" (10) 0x17a-0x17a.7 (1)
0x170|                                 c5 01         |           ..   |      size: 197 0x17b-0x17c.7 (2)
     |                                               |                |      content{}: 0x17d-0x241.7 (197)
     |                                               |                |        code{}: 0x17d-0x241.7 (197)
0x170|                                       1c      |             .  |          n: 28 0x17d-0x17d.7 (1)
     |                                               |                |          x[0:28]: 0x17e-0x241.7 (196)
     |                                               |                |            [0]{}: code 0x17e-0x185.7 (8)
0x170|                                          07   |              . |              size: 7 0x17e-0x17e.7 (1)
     |                                               |                |              code{}: 0x17f-0x185.7 (7)
     |                                               |                |                t{}: 0x17f-0x17f.7 (1)
0x170|                                             00|               .|                  n: 0 0x17f-0x17f.7 (1)
     |                                               |                |                  x[0:0]: 0x180-NA (0)
     |                                               |                |                e[0:4]: 0x180-0x185.7 (6)
     |                                               |                |                  [0]{}: in 0x180-0x181.7 (2)
0x180|20                                             |                |                    local.get: 0x20 (valid) 0x180-0x180.7 (1)
0x180|   00                                          | .              |                    x: 0 0x181-0x181.7 (1)
     |                                               |                |                  [1]{}: in 0x182-0x183.7 (2)
0x180|      20                                       |                |                    local.get: 0x20 (valid) 0x182-0x182.7 (1)
0x180|         01                                    |   .            |                    x: 1 0x183-0x183.7 (1)
     |                                               |                |                  [2]{}: in 0x184-0x184.7 (1)
0x180|            92                                 |    .           |                    f32.add: 0x92 (valid) 0x184-0x184.7 (1)
     |                                               |                |                  [3]{}: in 0x185-0x185.7 (1)
0x180|               0b                              |     .          |                    end: 0xb (valid) 0x185-0x185.7 (1)
     |                                               |                |            [1]{}: code 0x186-0x18d.7 (8)
0x180|                  07                           |      .         |              size: 7 0x186-0x186.7 (1)
     |                                               |                |              code{}: 0x187-0x18d.7 (7)
     |                                               |                |                t{}: 0x187-0x187.7 (1)
0x180|                     00                        |       .        |                  n: 0 0x187-0x187.7 (1)
     |                                               |                |                  x[0:0]: 0x188-NA (0)
     |                                               |                |                e[0:4]: 0x188-0x18d.7 (6)
     |                                               |                |                  [0]{}: in 0x188-0x189.7 (2)
0x180|                        20                     |                |                    local.get: 0x20 (valid) 0x188-0x188.7 (1)
0x180|                           00                  |         .      |                    x: 0 0x189-0x189.7 (1)
     |                                               |                |                  [1]{}: in 0x18a-0x18b.7 (2)
0x180|                              20               |                |                    local.get: 0x20 (valid) 0x18a-0x18a.7 (1)
0x180|                                 01            |           .    |                    x: 1 0x18b-0x18b.7 (1)
     |                                               |                |                  [2]{}: in 0x18c-0x18c.7 (1)
0x180|                                    93         |            .   |                    f32.sub: 0x93 (valid) 0x18c-0x18c.7 (1)
     |                                               |                |                  [3]{}: in 0x18d-0x18d.7 (1)
0x180|                                       0b      |             .  |                    end: 0xb (valid) 0x18d-0x18d.7 (1)
     |                                               |                |            [2]{}: code 0x18e-0x195.7 (8)
0x180|                                          07   |              . |              size: 7 0x18e-0x18e.7 (1)
     |                                               |                |              code{}: 0x18f-0x195.7 (7)
     |                                               |                |                t{}: 0x18f-0x18f.7 (1)
0x180|                                             00|               .|                  n: 0 0x18f-0x18f.7 (1)
     |                                               |                |                  x[0:0]: 0x190-NA (0)
     |                                               |                |                e[0:4]: 0x190-0x195.7 (6)
     |                                               |                |                  [0]{}: in 0x190-0x191.7 (2)
0x190|20                                             |                |                    local.get: 0x20 (valid) 0x190-0x190.7 (1)
0x190|   00                                          | .              |                    x: 0 0x191-0x191.7 (1)
     |                                               |                |                  [1]{}: in 0x192-0x193.7 (2)
0x190|      20                                       |                |                    local.get: 0x20 (valid) 0x192-0x192.7 (1)
0x190|         01                                    |   .            |                    x: 1 0x193-0x193.7 (1)
     |                                               |                |                  [2]{}: in 0x194-0x194.7 (1)
0x190|            94                                 |    .           |                    f32.mul: 0x94 (valid) 0x194-0x194.7 (1)
     |                                               |                |                  [3]{}: in 0x195-0x195.7 (1)
0x190|               0b                              |     .          |                    end: 0xb (valid) 0x195-0x195.7 (1)
     |                                               |                |            [3]{}: code 0x196-0x19d.7 (8)
0x190|                  07                           |      .         |              size: 7 0x196-0x196.7 (1)
     |                                               |                |              code{}: 0x197-0x19d.7 (7)
     |                                               |                |                t{}: 0x197-0x197.7 (1)
0x190|                     00                        |       .        |                  n: 0 0x197-0x197.7 (1)
     |                                               |                |                  x[0:0]: 0x198-NA (0)
     |                                               |                |                e[0:4]: 0x198-0x19d.7 (6)
     |                                               |                |                  [0]{}: in 0x198-0x199.7 (2)
0x190|                        20                     |                |                    local.get: 0x20 (valid) 0x198-0x198.7 (1)
0x190|                           00                  |         .      |                    x: 0 0x199-0x199.7 (1)
     |                                               |                |                  [1]{}: in 0x19a-0x19b.7 (2)
0x190|                              20               |                |                    local.get: 0x20 (valid) 0x19a-0x19a.7 (1)
0x190|                                 01            |           .    |                    x: 1 0x19b-0x19b.7 (1)
     |                                               |                |                  [2]{}: in 0x19c-0x19c.7 (1)
0x190|                                    95         |            .   |                    f32.div: 0x95 (valid) 0x19c-0x19c.7 (1)
     |                                               |                |                  [3]{}: in 0x19d-0x19d.7 (1)
0x190|                                       0b      |             .  |                    end: 0xb (valid) 0x19d-0x19d.7 (1)
     |                                               |                |            [4]{}: code 0x19e-0x1a3.7 (6)
0x190|                                          05   |              . |              size: 5 0x19e-0x19e.7 (1)
     |                                               |                |              code{}: 0x19f-0x1a3.7 (5)
     |                                               |                |                t{}: 0x19f-0x19f.7 (1)
0x190|                                             00|               .|                  n: 0 0x19f-0x19f.7 (1)
     |                                               |                |                  x[0:0]: 0x1a0-NA (0)
     |                                               |                |                e[0:3]: 0x1a0-0x1a3.7 (4)
     |                                               |                |                  [0]{}: in 0x1a0-0x1a1.7 (2)
0x1a0|20                                             |                |                    local.get: 0x20 (valid) 0x1a0-0x1a0.7 (1)
0x1a0|   00                                          | .              |                    x: 0 0x1a1-0x1a1.7 (1)
     |                                               |                |                  [1]{}: in 0x1a2-0x1a2.7 (1)
0x1a0|      91                                       |  .             |                    f32.sqrt: 0x91 (valid) 0x1a2-0x1a2.7 (1)
     |                                               |                |                  [2]{}: in 0x1a3-0x1a3.7 (1)
0x1a0|         0b                                    |   .            |                    end: 0xb (valid) 0x1a3-0x1a3.7 (1)
     |                                               |                |            [5]{}: code 0x1a4-0x1a9.7 (6)
0x1a0|            05                                 |    .           |              size: 5 0x1a4-0x1a4.7 (1)
     |                                               |                |              code{}: 0x1a5-0x1a9.7 (5)
     |                                               |                |                t{}: 0x1a5-0x1a5.7 (1)
0x1a0|               00                              |     .          |                  n: 0 0x1a5-0x1a5.7 (1)
     |                                               |                |                  x[0:0]: 0x1a6-NA (0)
     |                                               |                |                e[0:3]: 0x1a6-0x1a9.7 (4)
     |                                               |                |                  [0]{}: in 0x1a6-0x1a7.7 (2)
0x1a0|                  20                           |                |                    local.get: 0x20 (valid) 0x1a6-0x1a6.7 (1)
0x1a0|                     00                        |       .        |                    x: 0 0x1a7-0x1a7.7 (1)
     |                                               |                |                  [1]{}: in 0x1a8-0x1a8.7 (1)
0x1a0|                        8b                     |        .       |                    f32.abs: 0x8b (valid) 0x1a8-0x1a8.7 (1)
     |                                               |                |                  [2]{}: in 0x1a9-0x1a9.7 (1)
0x1a0|                           0b                  |         .      |                    end: 0xb (valid) 0x1a9-0x1a9.7 (1)
     |                                               |                |            [6]{}: code 0x1aa-0x1af.7 (6)
0x1a0|                              05               |          .     |              size: 5 0x1aa-0x1aa.7 (1)
     |                                               |                |              code{}: 0x1ab-0x1af.7 (5)
     |                                               |                |                t{}: 0x1ab-0x1ab.7 (1)
0x1a0|                                 00            |           .    |                  n: 0 0x1ab-0x1ab.7 (1)
     |                                               |                |                  x[0:0]: 0x1ac-NA (0)
     |                                               |                |                e[0:3]: 0x1ac-0x1af.7 (4)
     |                                               |                |                  [0]{}: in 0x1ac-0x1ad.7 (2)
0x1a0|                                    20         |                |                    local.get: 0x20 (valid) 0x1ac-0x1ac.7 (1)
0x1a0|                                       00      |             .  |                    x: 0 0x1ad-0x1ad.7 (1)
     |                                               |                |                  [1]{}: in 0x1ae-0x1ae.7 (1)
0x1a0|                                          8c   |              . |                    f32.neg: 0x8c (valid) 0x1ae-0x1ae.7 (1)
     |                                               |                |                  [2]{}: in 0x1af-0x1af.7 (1)
0x1a0|                                             0b|               .|                    end: 0xb (valid) 0x1af-0x1af.7 (1)
     |                                               |                |            [7]{}: code 0x1b0-0x1b7.7 (8)
0x1b0|07                                             |.               |              size: 7 0x1b0-0x1b0.7 (1)
     |                                               |                |              code{}: 0x1b1-0x1b7.7 (7)
     |                                               |                |                t{}: 0x1b1-0x1b1.7 (1)
0x1b0|   00                                          | .              |                  n: 0 0x1b1-0x1b1.7 (1)
     |                                               |                |                  x[0:0]: 0x1b2-NA (0)
     |                                               |                |                e[0:4]: 0x1b2-0x1b7.7 (6)
     |                                               |                |                  [0]{}: in 0x1b2-0x1b3.7 (2)
0x1b0|      20                                       |                |                    local.get: 0x20 (valid) 0x1b2-0x1b2.7 (1)
0x1b0|         00                                    |   .            |                    x: 0 0x1b3-0x1b3.7 (1)
     |                                               |                |                  [1]{}: in 0x1b4-0x1b5.7 (2)
0x1b0|            20                                 |                |                    local.get: 0x20 (valid) 0x1b4-0x1b4.7 (1)
0x1b0|               01                              |     .          |                    x: 1 0x1b5-0x1b5.7 (1)
     |                                               |                |                  [2]{}: in 0x1b6-0x1b6.7 (1)
0x1b0|                  98                           |      .         |                    f32.copysign: 0x98 (valid) 0x1b6-0x1b6.7 (1)
     |                                               |                |                  [3]{}: in 0x1b7-0x1b7.7 (1)
0x1b0|                     0b                        |       .        |                    end: 0xb (valid) 0x1b7-0x1b7.7 (1)
     |                                               |                |            [8]{}: code 0x1b8-0x1bd.7 (6)
0x1b0|                        05                     |        .       |              size: 5 0x1b8-0x1b8.7 (1)
     |                                               |                |              code{}: 0x1b9-0x1bd.7 (5)
     |                                               |                |                t{}: 0x1b9-0x1b9.7 (1)
0x1b0|                           00                  |         .      |                  n: 0 0x1b9-0x1b9.7 (1)
     |                                               |                |                  x[0:0]: 0x1ba-NA (0)
     |                                               |                |                e[0:3]: 0x1ba-0x1bd.7 (4)
     |                                               |                |                  [0]{}: in 0x1ba-0x1bb.7 (2)
0x1b0|                              20               |                |                    local.get: 0x20 (valid) 0x1ba-0x1ba.7 (1)
0x1b0|                                 00            |           .    |                    x: 0 0x1bb-0x1bb.7 (1)
     |                                               |                |                  [1]{}: in 0x1bc-0x1bc.7 (1)
0x1b0|                                    8d         |            .   |                    f32.ceil: 0x8d (valid) 0x1bc-0x1bc.7 (1)
     |                                               |                |                  [2]{}: in 0x1bd-0x1bd.7 (1)
0x1b0|                                       0b      |             .  |                    end: 0xb (valid) 0x1bd-0x1bd.7 (1)
     |                                               |                |            [9]{}: code 0x1be-0x1c3.7 (6)
0x1b0|                                          05   |              . |              size: 5 0x1be-0x1be.7 (1)
     |                                               |                |              code{}: 0x1bf-0x1c3.7 (5)
     |                                               |                |                t{}: 0x1bf-0x1bf.7 (1)
0x1b0|                                             00|               .|                  n: 0 0x1bf-0x1bf.7 (1)
     |                                               |                |                  x[0:0]: 0x1c0-NA (0)
     |                                               |                |                e[0:3]: 0x1c0-0x1c3.7 (4)
     |                                               |                |                  [0]{}: in 0x1c0-0x1c1.7 (2)
0x1c0|20                                             |                |                    local.get: 0x20 (valid) 0x1c0-0x1c0.7 (1)
0x1c0|   00                                          | .              |                    x: 0 0x1c1-0x1c1.7 (1)
     |                                               |                |                  [1]{}: in 0x1c2-0x1c2.7 (1)
0x1c0|      8e                                       |  .             |                    f32.floor: 0x8e (valid) 0x1c2-0x1c2.7 (1)
     |                                               |                |                  [2]{}: in 0x1c3-0x1c3.7 (1)
0x1c0|         0b                                    |   .            |                    end: 0xb (valid) 0x1c3-0x1c3.7 (1)
     |                                               |                |            [10]{}: code 0x1c4-0x1c9.7 (6)
0x1c0|            05                                 |    .           |              size: 5 0x1c4-0x1c4.7 (1)
     |                                               |                |              code{}: 0x1c5-0x1c9.7 (5)
     |                                               |                |                t{}: 0x1c5-0x1c5.7 (1)
0x1c0|               00                              |     .          |                  n: 0 0x1c5-0x1c5.7 (1)
     |                                               |                |                  x[0:0]: 0x1c6-NA (0)
     |                                               |                |                e[0:3]: 0x1c6-0x1c9.7 (4)
     |                                               |                |                  [0]{}: in 0x1c6-0x1c7.7 (2)
0x1c0|                  20                           |                |                    local.get: 0x20 (valid) 0x1c6-0x1c6.7 (1)
0x1c0|                     00                        |       .        |                    x: 0 0x1c7-0x1c7.7 (1)
     |                                               |                |                  [1]{}: in 0x1c8-0x1c8.7 (1)
0x1c0|                        8f                     |        .       |                    f32.trunc: 0x8f (valid) 0x1c8-0x1c8.7 (1)
     |                                               |                |                  [2]{}: in 0x1c9-0x1c9.7 (1)
0x1c0|                           0b                  |         .      |                    end: 0xb (valid) 0x1c9-0x1c9.7 (1)
     |                                               |                |            [11]{}: code 0x1ca-0x1cf.7 (6)
0x1c0|                              05               |          .     |              size: 5 0x1ca-0x1ca.7 (1)
     |                                               |                |              code{}: 0x1cb-0x1cf.7 (5)
     |                                               |                |                t{}: 0x1cb-0x1cb.7 (1)
0x1c0|                                 00            |           .    |                  n: 0 0x1cb-0x1cb.7 (1)
     |                                               |                |                  x[0:0]: 0x1cc-NA (0)
     |                                               |                |                e[0:3]: 0x1cc-0x1cf.7 (4)
     |                                               |                |                  [0]{}: in 0x1cc-0x1cd.7 (2)
0x1c0|                                    20         |                |                    local.get: 0x20 (valid) 0x1cc-0x1cc.7 (1)
0x1c0|                                       00      |             .  |                    x: 0 0x1cd-0x1cd.7 (1)
     |                                               |                |                  [1]{}: in 0x1ce-0x1ce.7 (1)
0x1c0|                                          90   |              . |                    f32.nearest: 0x90 (valid) 0x1ce-0x1ce.7 (1)
     |                                               |                |                  [2]{}: in 0x1cf-0x1cf.7 (1)
0x1c0|                                             0b|               .|                    end: 0xb (valid) 0x1cf-0x1cf.7 (1)
     |                                               |                |            [12]{}: code 0x1d0-0x1d7.7 (8)
0x1d0|07                                             |.               |              size: 7 0x1d0-0x1d0.7 (1)
     |                                               |                |              code{}: 0x1d1-0x1d7.7 (7)
     |                                               |                |                t{}: 0x1d1-0x1d1.7 (1)
0x1d0|   00                                          | .              |                  n: 0 0x1d1-0x1d1.7 (1)
     |                                               |                |                  x[0:0]: 0x1d2-NA (0)
     |                                               |                |                e[0:4]: 0x1d2-0x1d7.7 (6)
     |                                               |                |                  [0]{}: in 0x1d2-0x1d3.7 (2)
0x1d0|      20                                       |                |                    local.get: 0x20 (valid) 0x1d2-0x1d2.7 (1)
0x1d0|         00                                    |   .            |                    x: 0 0x1d3-0x1d3.7 (1)
     |                                               |                |                  [1]{}: in 0x1d4-0x1d5.7 (2)
0x1d0|            20                                 |                |                    local.get: 0x20 (valid) 0x1d4-0x1d4.7 (1)
0x1d0|               01                              |     .          |                    x: 1 0x1d5-0x1d5.7 (1)
     |                                               |                |                  [2]{}: in 0x1d6-0x1d6.7 (1)
0x1d0|                  96                           |      .         |                    f32.min: 0x96 (valid) 0x1d6-0x1d6.7 (1)
     |                                               |                |                  [3]{}: in 0x1d7-0x1d7.7 (1)
0x1d0|                     0b                        |       .        |                    end: 0xb (valid) 0x1d7-0x1d7.7 (1)
     |                                               |                |            [13]{}: code 0x1d8-0x1df.7 (8)
0x1d0|                        07                     |        .       |              size: 7 0x1d8-0x1d8.7 (1)
     |                                               |                |              code{}: 0x1d9-0x1df.7 (7)
     |                                               |                |                t{}: 0x1d9-0x1d9.7 (1)
0x1d0|                           00                  |         .      |                  n: 0 0x1d9-0x1d9.7 (1)
     |                                               |                |                  x[0:0]: 0x1da-NA (0)
     |                                               |                |                e[0:4]: 0x1da-0x1df.7 (6)
     |                                               |                |                  [0]{}: in 0x1da-0x1db.7 (2)
0x1d0|                              20               |                |                    local.get: 0x20 (valid) 0x1da-0x1da.7 (1)
0x1d0|                                 00            |           .    |                    x: 0 0x1db-0x1db.7 (1)
     |                                               |                |                  [1]{}: in 0x1dc-0x1dd.7 (2)
0x1d0|                                    20         |                |                    local.get: 0x20 (valid) 0x1dc-0x1dc.7 (1)
0x1d0|                                       01      |             .  |                    x: 1 0x1dd-0x1dd.7 (1)
     |                                               |                |                  [2]{}: in 0x1de-0x1de.7 (1)
0x1d0|                                          97   |              . |                    f32.max: 0x97 (valid) 0x1de-0x1de.7 (1)
     |                                               |                |                  [3]{}: in 0x1df-0x1df.7 (1)
0x1d0|                                             0b|               .|                    end: 0xb (valid) 0x1df-0x1df.7 (1)
     |                                               |                |            [14]{}: code 0x1e0-0x1e7.7 (8)
0x1e0|07                                             |.               |              size: 7 0x1e0-0x1e0.7 (1)
     |                                               |                |              code{}: 0x1e1-0x1e7.7 (7)
     |                                               |                |                t{}: 0x1e1-0x1e1.7 (1)
0x1e0|   00                                          | .              |                  n: 0 0x1e1-0x1e1.7 (1)
     |                                               |                |                  x[0:0]: 0x1e2-NA (0)
     |                                               |                |                e[0:4]: 0x1e2-0x1e7.7 (6)
     |                                               |                |                  [0]{}: in 0x1e2-0x1e3.7 (2)
0x1e0|      20                                       |                |                    local.get: 0x20 (valid) 0x1e2-0x1e2.7 (1)
0x1e0|         00                                    |   .            |                    x: 0 0x1e3-0x1e3.7 (1)
     |                                               |                |                  [1]{}: in 0x1e4-0x1e5.7 (2)
0x1e0|            20                                 |                |                    local.get: 0x20 (valid) 0x1e4-0x1e4.7 (1)
0x1e0|               01                              |     .          |                    x: 1 0x1e5-0x1e5.7 (1)
     |                                               |                |                  [2]{}: in 0x1e6-0x1e6.7 (1)
0x1e0|                  a0                           |      .         |                    f64.add: 0xa0 (valid) 0x1e6-0x1e6.7 (1)
     |                                               |                |                  [3]{}: in 0x1e7-0x1e7.7 (1)
0x1e0|                     0b                        |       .        |                    end: 0xb (valid) 0x1e7-0x1e7.7 (1)
     |                                               |                |            [15]{}: code 0x1e8-0x1ef.7 (8)
0x1e0|                        07                     |        .       |              size: 7 0x1e8-0x1e8.7 (1)
     |                                               |                |              code{}: 0x1e9-0x1ef.7 (7)
     |                                               |                |                t{}: 0x1e9-0x1e9.7 (1)
0x1e0|                           00                  |         .      |                  n: 0 0x1e9-0x1e9.7 (1)
     |                                               |                |                  x[0:0]: 0x1ea-NA (0)
     |                                               |                |                e[0:4]: 0x1ea-0x1ef.7 (6)
     |                                               |                |                  [0]{}: in 0x1ea-0x1eb.7 (2)
0x1e0|                              20               |                |                    local.get: 0x20 (valid) 0x1ea-0x1ea.7 (1)
0x1e0|                                 00            |           .    |                    x: 0 0x1eb-0x1eb.7 (1)
     |                                               |                |                  [1]{}: in 0x1ec-0x1ed.7 (2)
0x1e0|                                    20         |                |                    local.get: 0x20 (valid) 0x1ec-0x1ec.7 (1)
0x1e0|                                       01      |             .  |                    x: 1 0x1ed-0x1ed.7 (1)
     |                                               |                |                  [2]{}: in 0x1ee-0x1ee.7 (1)
0x1e0|                                          a1   |              . |                    f64.sub: 0xa1 (valid) 0x1ee-0x1ee.7 (1)
     |                                               |                |                  [3]{}: in 0x1ef-0x1ef.7 (1)
0x1e0|                                             0b|               .|                    end: 0xb (valid) 0x1ef-0x1ef.7 (1)
     |                                               |                |            [16]{}: code 0x1f0-0x1f7.7 (8)
0x1f0|07                                             |.               |              size: 7 0x1f0-0x1f0.7 (1)
     |                                               |                |              code{}: 0x1f1-0x1f7.7 (7)
     |                                               |                |                t{}: 0x1f1-0x1f1.7 (1)
0x1f0|   00                                          | .              |                  n: 0 0x1f1-0x1f1.7 (1)
     |                                               |                |                  x[0:0]: 0x1f2-NA (0)
     |                                               |                |                e[0:4]: 0x1f2-0x1f7.7 (6)
     |                                               |                |                  [0]{}: in 0x1f2-0x1f3.7 (2)
0x1f0|      20                                       |                |                    local.get: 0x20 (valid) 0x1f2-0x1f2.7 (1)
0x1f0|         00                                    |   .            |                    x: 0 0x1f3-0x1f3.7 (1)
     |                                               |                |                  [1]{}: in 0x1f4-0x1f5.7 (2)
0x1f0|            20                                 |                |                    local.get: 0x20 (valid) 0x1f4-0x1f4.7 (1)
0x1f0|               01                              |     .          |                    x: 1 0x1f5-0x1f5.7 (1)
     |                                               |                |                  [2]{}: in 0x1f6-0x1f6.7 (1)
0x1f0|                  a2                           |      .         |                    f64.mul: 0xa2 (valid) 0x1f6-0x1f6.7 (1)
     |                                               |                |                  [3]{}: in 0x1f7-0x1f7.7 (1)
0x1f0|                     0b                        |       .        |                    end: 0xb (valid) 0x1f7-0x1f7.7 (1)
     |                                               |                |            [17]{}: code 0x1f8-0x1ff.7 (8)
0x1f0|                        07                     |        .       |              size: 7 0x1f8-0x1f8.7 (1)
     |                                               |                |              code{}: 0x1f9-0x1ff.7 (7)
     |                                               |                |                t{}: 0x1f9-0x1f9.7 (1)
0x1f0|                           00                  |         .      |                  n: 0 0x1f9-0x1f9.7 (1)
     |                                               |                |                  x[0:0]: 0x1fa-NA (0)
     |                                               |                |                e[0:4]: 0x1fa-0x1ff.7 (6)
     |                                               |                |                  [0]{}: in 0x1fa-0x1fb.7 (2)
0x1f0|                              20               |                |                    local.get: 0x20 (valid) 0x1fa-0x1fa.7 (1)
0x1f0|                                 00            |           .    |                    x: 0 0x1fb-0x1fb.7 (1)
     |                                               |                |                  [1]{}: in 0x1fc-0x1fd.7 (2)
0x1f0|                                    20         |                |                    local.get: 0x20 (valid) 0x1fc-0x1fc.7 (1)
0x1f0|                                       01      |             .  |                    x: 1 0x1fd-0x1fd.7 (1)
     |                                               |                |                  [2]{}: in 0x1fe-0x1fe.7 (1)
0x1f0|                                          a3   |              . |                    f64.div: 0xa3 (valid) 0x1fe-0x1fe.7 (1)
     |                                               |                |                  [3]{}: in 0x1ff-0x1ff.7 (1)
0x1f0|                                             0b|               .|                    end: 0xb (valid) 0x1ff-0x1ff.7 (1)
     |                                               |                |            [18]{}: code 0x200-0x205.7 (6)
0x200|05                                             |.               |              size: 5 0x200-0x200.7 (1)
     |                                               |                |              code{}: 0x201-0x205.7 (5)
     |                                               |                |                t{}: 0x201-0x201.7 (1)
0x200|   00                                          | .              |                  n: 0 0x201-0x201.7 (1)
     |                                               |                |                  x[0:0]: 0x202-NA (0)
     |                                               |                |                e[0:3]: 0x202-0x205.7 (4)
     |                                               |                |                  [0]{}: in 0x202-0x203.7 (2)
0x200|      20                                       |                |                    local.get: 0x20 (valid) 0x202-0x202.7 (1)
0x200|         00                                    |   .            |                    x: 0 0x203-0x203.7 (1)
     |                                               |                |                  [1]{}: in 0x204-0x204.7 (1)
0x200|            9f                                 |    .           |                    f64.sqrt: 0x9f (valid) 0x204-0x204.7 (1)
     |                                               |                |                  [2]{}: in 0x205-0x205.7 (1)
0x200|               0b                              |     .          |                    end: 0xb (valid) 0x205-0x205.7 (1)
     |                                               |                |            [19]{}: code 0x206-0x20b.7 (6)
0x200|                  05                           |      .         |              size: 5 0x206-0x206.7 (1)
     |                                               |                |              code{}: 0x207-0x20b.7 (5)
     |                                               |                |                t{}: 0x207-0x207.7 (1)
0x200|                     00                        |       .        |                  n: 0 0x207-0x207.7 (1)
     |                                               |                |                  x[0:0]: 0x208-NA (0)
     |                                               |                |                e[0:3]: 0x208-0x20b.7 (4)
     |                                               |                |                  [0]{}: in 0x208-0x209.7 (2)
0x200|                        20                     |                |                    local.get: 0x20 (valid) 0x208-0x208.7 (1)
0x200|                           00                  |         .      |                    x: 0 0x209-0x209.7 (1)
     |                                               |                |                  [1]{}: in 0x20a-0x20a.7 (1)
0x200|                              99               |          .     |                    f64.abs: 0x99 (valid) 0x20a-0x20a.7 (1)
     |                                               |                |                  [2]{}: in 0x20b-0x20b.7 (1)
0x200|                                 0b            |           .    |                    end: 0xb (valid) 0x20b-0x20b.7 (1)
     |                                               |                |            [20]{}: code 0x20c-0x211.7 (6)
0x200|                                    05         |            .   |              size: 5 0x20c-0x20c.7 (1)
     |                                               |                |              code{}: 0x20d-0x211.7 (5)
     |                                               |                |                t{}: 0x20d-0x20d.7 (1)
0x200|                                       00      |             .  |                  n: 0 0x20d-0x20d.7 (1)
     |                                               |                |                  x[0:0]: 0x20e-NA (0)
     |                                               |                |                e[0:3]: 0x20e-0x211.7 (4)
     |                                               |                |                  [0]{}: in 0x20e-0x20f.7 (2)
0x200|                                          20   |                |                    local.get: 0x20 (valid) 0x20e-0x20e.7 (1)
0x200|                                             00|               .|                    x: 0 0x20f-0x20f.7 (1)
     |                                               |                |                  [1]{}: in 0x210-0x210.7 (1)
0x210|9a                                             |.               |                    f64.neg: 0x9a (valid) 0x210-0x210.7 (1)
     |                                               |                |                  [2]{}: in 0x211-0x211.7 (1)
0x210|   0b                                          | .              |                    end: 0xb (valid) 0x211-0x211.7 (1)
     |                                               |                |            [21]{}: code 0x212-0x219.7 (8)
0x210|      07                                       |  .             |              size: 7 0x212-0x212.7 (1)
     |                                               |                |              code{}: 0x213-0x219.7 (7)
     |                                               |                |                t{}: 0x213-0x213.7 (1)
0x210|         00                                    |   .            |                  n: 0 0x213-0x213.7 (1)
     |                                               |                |                  x[0:0]: 0x214-NA (0)
     |                                               |                |                e[0:4]: 0x214-0x219.7 (6)
     |                                               |                |                  [0]{}: in 0x214-0x215.7 (2)
0x210|            20                                 |                |                    local.get: 0x20 (valid) 0x214-0x214.7 (1)
0x210|               00                              |     .          |                    x: 0 0x215-0x215.7 (1)
     |                                               |                |                  [1]{}: in 0x216-0x217.7 (2)
0x210|                  20                           |                |                    local.get: 0x20 (valid) 0x216-0x216.7 (1)
0x210|                     01                        |       .        |                    x: 1 0x217-0x217.7 (1)
     |                                               |                |                  [2]{}: in 0x218-0x218.7 (1)
0x210|                        a6                     |        .       |                    f64.copysign: 0xa6 (valid) 0x218-0x218.7 (1)
     |                                               |                |                  [3]{}: in 0x219-0x219.7 (1)
0x210|                           0b                  |         .      |                    end: 0xb (valid) 0x219-0x219.7 (1)
     |                                               |                |            [22]{}: code 0x21a-0x21f.7 (6)
0x210|                              05               |          .     |              size: 5 0x21a-0x21a.7 (1)
     |                                               |                |              code{}: 0x21b-0x21f.7 (5)
     |                                               |                |                t{}: 0x21b-0x21b.7 (1)
0x210|                                 00            |           .    |                  n: 0 0x21b-0x21b.7 (1)
     |                                               |                |                  x[0:0]: 0x21c-NA (0)
     |                                               |                |                e[0:3]: 0x21c-0x21f.7 (4)
     |                                               |                |                  [0]{}: in 0x21c-0x21d.7 (2)
0x210|                                    20         |                |                    local.get: 0x20 (valid) 0x21c-0x21c.7 (1)
0x210|                                       00      |             .  |                    x: 0 0x21d-0x21d.7 (1)
     |                                               |                |                  [1]{}: in 0x21e-0x21e.7 (1)
0x210|                                          9b   |              . |                    f64.ceil: 0x9b (valid) 0x21e-0x21e.7 (1)
     |                                               |                |                  [2]{}: in 0x21f-0x21f.7 (1)
0x210|                                             0b|               .|                    end: 0xb (valid) 0x21f-0x21f.7 (1)
     |                                               |                |            [23]{}: code 0x220-0x225.7 (6)
0x220|05                                             |.               |              size: 5 0x220-0x220.7 (1)
     |                                               |                |              code{}: 0x221-0x225.7 (5)
     |                                               |                |                t{}: 0x221-0x221.7 (1)
0x220|   00                                          | .              |                  n: 0 0x221-0x221.7 (1)
     |                                               |                |                  x[0:0]: 0x222-NA (0)
     |                                               |                |                e[0:3]: 0x222-0x225.7 (4)
     |                                               |                |                  [0]{}: in 0x222-0x223.7 (2)
0x220|      20                                       |                |                    local.get: 0x20 (valid) 0x222-0x222.7 (1)
0x220|         00                                    |   .            |                    x: 0 0x223-0x223.7 (1)
     |                                               |                |                  [1]{}: in 0x224-0x224.7 (1)
0x220|            9c                                 |    .           |                    f64.floor: 0x9c (valid) 0x224-0x224.7 (1)
     |                                               |                |                  [2]{}: in 0x225-0x225.7 (1)
0x220|               0b                              |     .          |                    end: 0xb (valid) 0x225-0x225.7 (1)
     |                                               |                |            [24]{}: code 0x226-0x22b.7 (6)
0x220|                  05                           |      .         |              size: 5 0x226-0x226.7 (1)
     |                                               |                |              code{}: 0x227-0x22b.7 (5)
     |                                               |                |                t{}: 0x227-0x227.7 (1)
0x220|                     00                        |       .        |                  n: 0 0x227-0x227.7 (1)
     |                                               |                |                  x[0:0]: 0x228-NA (0)
     |                                               |                |                e[0:3]: 0x228-0x22b.7 (4)
     |                                               |                |                  [0]{}: in 0x228-0x229.7 (2)
0x220|                        20                     |                |                    local.get: 0x20 (valid) 0x228-0x228.7 (1)
0x220|                           00                  |         .      |                    x: 0 0x229-0x229.7 (1)
     |                                               |                |                  [1]{}: in 0x22a-0x22a.7 (1)
0x220|                              9d               |          .     |                    f64.trunc: 0x9d (valid) 0x22a-0x22a.7 (1)
     |                                               |                |                  [2]{}: in 0x22b-0x22b.7 (1)
0x220|                                 0b            |           .    |                    end: 0xb (valid) 0x22b-0x22b.7 (1)
     |                                               |                |            [25]{}: code 0x22c-0x231.7 (6)
0x220|                                    05         |            .   |              size: 5 0x22c-0x22c.7 (1)
     |                                               |                |              code{}: 0x22d-0x231.7 (5)
     |                                               |                |                t{}: 0x22d-0x22d.7 (1)
0x220|                                       00      |             .  |                  n: 0 0x22d-0x22d.7 (1)
     |                                               |                |                  x[0:0]: 0x22e-NA (0)
     |                                               |                |                e[0:3]: 0x22e-0x231.7 (4)
     |                                               |                |                  [0]{}: in 0x22e-0x22f.7 (2)
0x220|                                          20   |                |                    local.get: 0x20 (valid) 0x22e-0x22e.7 (1)
0x220|                                             00|               .|                    x: 0 0x22f-0x22f.7 (1)
     |                                               |                |                  [1]{}: in 0x230-0x230.7 (1)
0x230|9e                                             |.               |                    f64.nearest: 0x9e (valid) 0x230-0x230.7 (1)
     |                                               |                |                  [2]{}: in 0x231-0x231.7 (1)
0x230|   0b                                          | .              |                    end: 0xb (valid) 0x231-0x231.7 (1)
     |                                               |                |            [26]{}: code 0x232-0x239.7 (8)
0x230|      07                                       |  .             |              size: 7 0x232-0x232.7 (1)
     |                                               |                |              code{}: 0x233-0x239.7 (7)
     |                                               |                |                t{}: 0x233-0x233.7 (1)
0x230|         00                                    |   .            |                  n: 0 0x233-0x233.7 (1)
     |                                               |                |                  x[0:0]: 0x234-NA (0)
     |                                               |                |                e[0:4]: 0x234-0x239.7 (6)
     |                                               |                |                  [0]{}: in 0x234-0x235.7 (2)
0x230|            20                                 |                |                    local.get: 0x20 (valid) 0x234-0x234.7 (1)
0x230|               00                              |     .          |                    x: 0 0x235-0x235.7 (1)
     |                                               |                |                  [1]{}: in 0x236-0x237.7 (2)
0x230|                  20                           |                |                    local.get: 0x20 (valid) 0x236-0x236.7 (1)
0x230|                     01                        |       .        |                    x: 1 0x237-0x237.7 (1)
     |                                               |                |                  [2]{}: in 0x238-0x238.7 (1)
0x230|                        a4                     |        .       |                    f64.min: 0xa4 (valid) 0x238-0x238.7 (1)
     |                                               |                |                  [3]{}: in 0x239-0x239.7 (1)
0x230|                           0b                  |         .      |                    end: 0xb (valid) 0x239-0x239.7 (1)
     |                                               |                |            [27]{}: code 0x23a-0x241.7 (8)
0x230|                              07               |          .     |              size: 7 0x23a-0x23a.7 (1)
     |                                               |                |              code{}: 0x23b-0x241.7 (7)
     |                                               |                |                t{}: 0x23b-0x23b.7 (1)
0x230|                                 00            |           .    |                  n: 0 0x23b-0x23b.7 (1)
     |                                               |                |                  x[0:0]: 0x23c-NA (0)
     |                                               |                |                e[0:4]: 0x23c-0x241.7 (6)
     |                                               |                |                  [0]{}: in 0x23c-0x23d.7 (2)
0x230|                                    20         |                |                    local.get: 0x20 (valid) 0x23c-0x23c.7 (1)
0x230|                                       00      |             .  |                    x: 0 0x23d-0x23d.7 (1)
     |                                               |                |                  [1]{}: in 0x23e-0x23f.7 (2)
0x230|                                          20   |                |                    local.get: 0x20 (valid) 0x23e-0x23e.7 (1)
0x230|                                             01|               .|                    x: 1 0x23f-0x23f.7 (1)
     |                                               |                |                  [2]{}: in 0x240-0x240.7 (1)
0x240|a5                                             |.               |                    f64.max: 0xa5 (valid) 0x240-0x240.7 (1)
     |                                               |                |                  [3]{}: in 0x241-0x241.7 (1)
0x240|   0b|                                         | .|             |                    end: 0xb (valid) 0x241-0x241.7 (1)
