$ fq -d wasm dv float_exprs-67.wasm
    |00 01 02 03 04 05 06 07 08 09 0a 0b 0c 0d 0e 0f|0123456789abcdef|.{}: float_exprs-67.wasm (wasm) 0x0-0x7a (122)
0x00|00 61 73 6d                                    |.asm            |  magic: raw bits (valid) 0x0-0x4 (4)
0x00|            01 00 00 00                        |    ....        |  version: 1 0x4-0x8 (4)
    |                                               |                |  sections[0:4]: 0x8-0x7a (114)
    |                                               |                |    [0]{}: section 0x8-0x15 (13)
0x00|                        01                     |        .       |      id: "type_section" (1) 0x8-0x9 (1)
0x00|                           0b                  |         .      |      size: 11 (valid) 0x9-0xa (1)
    |                                               |                |      content{}: 0xa-0x15 (11)
    |                                               |                |        ft{}: 0xa-0x15 (11)
0x00|                              02               |          .     |          n: 2 (valid) 0xa-0xb (1)
    |                                               |                |          x[0:2]: 0xb-0x15 (10)
    |                                               |                |            [0]{}: ft 0xb-0x10 (5)
0x00|                                 60            |           `    |              tag: 0x60 (valid) 0xb-0xc (1)
    |                                               |                |              rt1{}: 0xc-0xe (2)
0x00|                                    01         |            .   |                n: 1 (valid) 0xc-0xd (1)
    |                                               |                |                x[0:1]: 0xd-0xe (1)
0x00|                                       7d      |             }  |                  [0]: "f32" (0x7d) t 0xd-0xe (1)
    |                                               |                |              rt2{}: 0xe-0x10 (2)
0x00|                                          01   |              . |                n: 1 (valid) 0xe-0xf (1)
    |                                               |                |                x[0:1]: 0xf-0x10 (1)
0x00|                                             7d|               }|                  [0]: "f32" (0x7d) t 0xf-0x10 (1)
    |                                               |                |            [1]{}: ft 0x10-0x15 (5)
0x10|60                                             |`               |              tag: 0x60 (valid) 0x10-0x11 (1)
    |                                               |                |              rt1{}: 0x11-0x13 (2)
0x10|   01                                          | .              |                n: 1 (valid) 0x11-0x12 (1)
    |                                               |                |                x[0:1]: 0x12-0x13 (1)
0x10|      7c                                       |  |             |                  [0]: "f64" (0x7c) t 0x12-0x13 (1)
    |                                               |                |              rt2{}: 0x13-0x15 (2)
0x10|         01                                    |   .            |                n: 1 (valid) 0x13-0x14 (1)
    |                                               |                |                x[0:1]: 0x14-0x15 (1)
0x10|            7c                                 |    |           |                  [0]: "f64" (0x7c) t 0x14-0x15 (1)
    |                                               |                |    [1]{}: section 0x15-0x1a (5)
0x10|               03                              |     .          |      id: "function_section" (3) 0x15-0x16 (1)
0x10|                  03                           |      .         |      size: 3 (valid) 0x16-0x17 (1)
    |                                               |                |      content{}: 0x17-0x1a (3)
    |                                               |                |        x{}: 0x17-0x1a (3)
0x10|                     02                        |       .        |          n: 2 (valid) 0x17-0x18 (1)
    |                                               |                |          x[0:2]: 0x18-0x1a (2)
0x10|                        00                     |        .       |            [0]: 0 x (valid) 0x18-0x19 (1)
0x10|                           01                  |         .      |            [1]: 1 x (valid) 0x19-0x1a (1)
    |                                               |                |    [2]{}: section 0x1a-0x4f (53)
0x10|                              07               |          .     |      id: "export_section" (7) 0x1a-0x1b (1)
0x10|                                 33            |           3    |      size: 51 (valid) 0x1b-0x1c (1)
    |                                               |                |      content{}: 0x1c-0x4f (51)
    |                                               |                |        ex{}: 0x1c-0x4f (51)
0x10|                                    02         |            .   |          n: 2 (valid) 0x1c-0x1d (1)
    |                                               |                |          x[0:2]: 0x1d-0x4f (50)
    |                                               |                |            [0]{}: ex 0x1d-0x36 (25)
    |                                               |                |              nm{}: 0x1d-0x34 (23)
0x10|                                       16      |             .  |                n: 22 (valid) 0x1d-0x1e (1)
0x10|                                          66 33|              f3|                b: "f32.no_fold_6x_via_add" 0x1e-0x34 (22)
0x20|32 2e 6e 6f 5f 66 6f 6c 64 5f 36 78 5f 76 69 61|2.no_fold_6x_via|
0x30|5f 61 64 64                                    |_add            |
    |                                               |                |              d{}: 0x34-0x36 (2)
0x30|            00                                 |    .           |                tag: "funcidx" (0x0) 0x34-0x35 (1)
0x30|               00                              |     .          |                x: 0 (valid) 0x35-0x36 (1)
    |                                               |                |            [1]{}: ex 0x36-0x4f (25)
    |                                               |                |              nm{}: 0x36-0x4d (23)
0x30|                  16                           |      .         |                n: 22 (valid) 0x36-0x37 (1)
0x30|                     66 36 34 2e 6e 6f 5f 66 6f|       f64.no_fo|                b: "f64.no_fold_6x_via_add" 0x37-0x4d (22)
0x40|6c 64 5f 36 78 5f 76 69 61 5f 61 64 64         |ld_6x_via_add   |
    |                                               |                |              d{}: 0x4d-0x4f (2)
0x40|                                       00      |             .  |                tag: "funcidx" (0x0) 0x4d-0x4e (1)
0x40|                                          01   |              . |                x: 1 (valid) 0x4e-0x4f (1)
    |                                               |                |    [3]{}: section 0x4f-0x7a (43)
0x40|                                             0a|               .|      id: "code_section" (10) 0x4f-0x50 (1)
0x50|29                                             |)               |      size: 41 (valid) 0x50-0x51 (1)
    |                                               |                |      content{}: 0x51-0x7a (41)
    |                                               |                |        code{}: 0x51-0x7a (41)
0x50|   02                                          | .              |          n: 2 (valid) 0x51-0x52 (1)
    |                                               |                |          x[0:2]: 0x52-0x7a (40)
    |                                               |                |            [0]{}: code 0x52-0x66 (20)
0x50|      13                                       |  .             |              size: 19 (valid) 0x52-0x53 (1)
    |                                               |                |              code{}: 0x53-0x66 (19)
    |                                               |                |                t{}: 0x53-0x54 (1)
0x50|         00                                    |   .            |                  n: 0 (valid) 0x53-0x54 (1)
    |                                               |                |                  x[0:0]: 0x54-0x54 (0)
    |                                               |                |                e[0:12]: 0x54-0x66 (18)
    |                                               |                |                  [0]{}: in 0x54-0x56 (2)
0x50|            20                                 |                |                    opcode: "local.get" (0x20) 0x54-0x55 (1)
0x50|               00                              |     .          |                    x: 0 (valid) 0x55-0x56 (1)
    |                                               |                |                  [1]{}: in 0x56-0x58 (2)
0x50|                  20                           |                |                    opcode: "local.get" (0x20) 0x56-0x57 (1)
0x50|                     00                        |       .        |                    x: 0 (valid) 0x57-0x58 (1)
    |                                               |                |                  [2]{}: in 0x58-0x59 (1)
0x50|                        92                     |        .       |                    opcode: "f32.add" (0x92) 0x58-0x59 (1)
    |                                               |                |                  [3]{}: in 0x59-0x5b (2)
0x50|                           20                  |                |                    opcode: "local.get" (0x20) 0x59-0x5a (1)
0x50|                              00               |          .     |                    x: 0 (valid) 0x5a-0x5b (1)
    |                                               |                |                  [4]{}: in 0x5b-0x5c (1)
0x50|                                 92            |           .    |                    opcode: "f32.add" (0x92) 0x5b-0x5c (1)
    |                                               |                |                  [5]{}: in 0x5c-0x5e (2)
0x50|                                    20         |                |                    opcode: "local.get" (0x20) 0x5c-0x5d (1)
0x50|                                       00      |             .  |                    x: 0 (valid) 0x5d-0x5e (1)
    |                                               |                |                  [6]{}: in 0x5e-0x5f (1)
0x50|                                          92   |              . |                    opcode: "f32.add" (0x92) 0x5e-0x5f (1)
    |                                               |                |                  [7]{}: in 0x5f-0x61 (2)
0x50|                                             20|                |                    opcode: "local.get" (0x20) 0x5f-0x60 (1)
0x60|00                                             |.               |                    x: 0 (valid) 0x60-0x61 (1)
    |                                               |                |                  [8]{}: in 0x61-0x62 (1)
0x60|   92                                          | .              |                    opcode: "f32.add" (0x92) 0x61-0x62 (1)
    |                                               |                |                  [9]{}: in 0x62-0x64 (2)
0x60|      20                                       |                |                    opcode: "local.get" (0x20) 0x62-0x63 (1)
0x60|         00                                    |   .            |                    x: 0 (valid) 0x63-0x64 (1)
    |                                               |                |                  [10]{}: in 0x64-0x65 (1)
0x60|            92                                 |    .           |                    opcode: "f32.add" (0x92) 0x64-0x65 (1)
    |                                               |                |                  [11]{}: in 0x65-0x66 (1)
0x60|               0b                              |     .          |                    opcode: "end" (0xb) 0x65-0x66 (1)
    |                                               |                |            [1]{}: code 0x66-0x7a (20)
0x60|                  13                           |      .         |              size: 19 (valid) 0x66-0x67 (1)
    |                                               |                |              code{}: 0x67-0x7a (19)
    |                                               |                |                t{}: 0x67-0x68 (1)
0x60|                     00                        |       .        |                  n: 0 (valid) 0x67-0x68 (1)
    |                                               |                |                  x[0:0]: 0x68-0x68 (0)
    |                                               |                |                e[0:12]: 0x68-0x7a (18)
    |                                               |                |                  [0]{}: in 0x68-0x6a (2)
0x60|                        20                     |                |                    opcode: "local.get" (0x20) 0x68-0x69 (1)
0x60|                           00                  |         .      |                    x: 0 (valid) 0x69-0x6a (1)
    |                                               |                |                  [1]{}: in 0x6a-0x6c (2)
0x60|                              20               |                |                    opcode: "local.get" (0x20) 0x6a-0x6b (1)
0x60|                                 00            |           .    |                    x: 0 (valid) 0x6b-0x6c (1)
    |                                               |                |                  [2]{}: in 0x6c-0x6d (1)
0x60|                                    a0         |            .   |                    opcode: "f64.add" (0xa0) 0x6c-0x6d (1)
    |                                               |                |                  [3]{}: in 0x6d-0x6f (2)
0x60|                                       20      |                |                    opcode: "local.get" (0x20) 0x6d-0x6e (1)
0x60|                                          00   |              . |                    x: 0 (valid) 0x6e-0x6f (1)
    |                                               |                |                  [4]{}: in 0x6f-0x70 (1)
0x60|                                             a0|               .|                    opcode: "f64.add" (0xa0) 0x6f-0x70 (1)
    |                                               |                |                  [5]{}: in 0x70-0x72 (2)
0x70|20                                             |                |                    opcode: "local.get" (0x20) 0x70-0x71 (1)
0x70|   00                                          | .              |                    x: 0 (valid) 0x71-0x72 (1)
    |                                               |                |                  [6]{}: in 0x72-0x73 (1)
0x70|      a0                                       |  .             |                    opcode: "f64.add" (0xa0) 0x72-0x73 (1)
    |                                               |                |                  [7]{}: in 0x73-0x75 (2)
0x70|         20                                    |                |                    opcode: "local.get" (0x20) 0x73-0x74 (1)
0x70|            00                                 |    .           |                    x: 0 (valid) 0x74-0x75 (1)
    |                                               |                |                  [8]{}: in 0x75-0x76 (1)
0x70|               a0                              |     .          |                    opcode: "f64.add" (0xa0) 0x75-0x76 (1)
    |                                               |                |                  [9]{}: in 0x76-0x78 (2)
0x70|                  20                           |                |                    opcode: "local.get" (0x20) 0x76-0x77 (1)
0x70|                     00                        |       .        |                    x: 0 (valid) 0x77-0x78 (1)
    |                                               |                |                  [10]{}: in 0x78-0x79 (1)
0x70|                        a0                     |        .       |                    opcode: "f64.add" (0xa0) 0x78-0x79 (1)
    |                                               |                |                  [11]{}: in 0x79-0x7a (1)
0x70|                           0b|                 |         .|     |                    opcode: "end" (0xb) 0x79-0x7a (1)
