$ fq -d wasm dv float_exprs-93.wasm
    |00 01 02 03 04 05 06 07 08 09 0a 0b 0c 0d 0e 0f|0123456789abcdef|.{}: float_exprs-93.wasm (wasm) 0x0-0x3a (58)
0x00|00 61 73 6d                                    |.asm            |  magic: raw bits (valid) 0x0-0x4 (4)
0x00|            01 00 00 00                        |    ....        |  version: 1 0x4-0x8 (4)
    |                                               |                |  sections[0:4]: 0x8-0x3a (50)
    |                                               |                |    [0]{}: section 0x8-0x11 (9)
0x00|                        01                     |        .       |      id: "type_section" (1) 0x8-0x9 (1)
0x00|                           07                  |         .      |      size: 7 (valid) 0x9-0xa (1)
    |                                               |                |      content{}: 0xa-0x11 (7)
    |                                               |                |        ft{}: 0xa-0x11 (7)
0x00|                              01               |          .     |          n: 1 (valid) 0xa-0xb (1)
    |                                               |                |          x[0:1]: 0xb-0x11 (6)
    |                                               |                |            [0]{}: ft 0xb-0x11 (6)
0x00|                                 60            |           `    |              tag: 0x60 (valid) 0xb-0xc (1)
    |                                               |                |              rt1{}: 0xc-0xf (3)
0x00|                                    02         |            .   |                n: 2 (valid) 0xc-0xd (1)
    |                                               |                |                x[0:2]: 0xd-0xf (2)
0x00|                                       7c      |             |  |                  [0]: "f64" (0x7c) t 0xd-0xe (1)
0x00|                                          7c   |              | |                  [1]: "f64" (0x7c) t 0xe-0xf (1)
    |                                               |                |              rt2{}: 0xf-0x11 (2)
0x00|                                             01|               .|                n: 1 (valid) 0xf-0x10 (1)
    |                                               |                |                x[0:1]: 0x10-0x11 (1)
0x10|7f                                             |.               |                  [0]: "i32" (0x7f) t 0x10-0x11 (1)
    |                                               |                |    [1]{}: section 0x11-0x15 (4)
0x10|   03                                          | .              |      id: "function_section" (3) 0x11-0x12 (1)
0x10|      02                                       |  .             |      size: 2 (valid) 0x12-0x13 (1)
    |                                               |                |      content{}: 0x13-0x15 (2)
    |                                               |                |        x{}: 0x13-0x15 (2)
0x10|         01                                    |   .            |          n: 1 (valid) 0x13-0x14 (1)
    |                                               |                |          x[0:1]: 0x14-0x15 (1)
0x10|            00                                 |    .           |            [0]: 0 x (valid) 0x14-0x15 (1)
    |                                               |                |    [2]{}: section 0x15-0x25 (16)
0x10|               07                              |     .          |      id: "export_section" (7) 0x15-0x16 (1)
0x10|                  0e                           |      .         |      size: 14 (valid) 0x16-0x17 (1)
    |                                               |                |      content{}: 0x17-0x25 (14)
    |                                               |                |        ex{}: 0x17-0x25 (14)
0x10|                     01                        |       .        |          n: 1 (valid) 0x17-0x18 (1)
    |                                               |                |          x[0:1]: 0x18-0x25 (13)
    |                                               |                |            [0]{}: ex 0x18-0x25 (13)
    |                                               |                |              nm{}: 0x18-0x23 (11)
0x10|                        0a                     |        .       |                n: 10 (valid) 0x18-0x19 (1)
0x10|                           70 6f 69 6e 74 5f 66|         point_f|                b: "point_four" 0x19-0x23 (10)
0x20|6f 75 72                                       |our             |
    |                                               |                |              d{}: 0x23-0x25 (2)
0x20|         00                                    |   .            |                tag: "funcidx" (0x0) 0x23-0x24 (1)
0x20|            00                                 |    .           |                x: 0 (valid) 0x24-0x25 (1)
    |                                               |                |    [3]{}: section 0x25-0x3a (21)
0x20|               0a                              |     .          |      id: "code_section" (10) 0x25-0x26 (1)
0x20|                  13                           |      .         |      size: 19 (valid) 0x26-0x27 (1)
    |                                               |                |      content{}: 0x27-0x3a (19)
    |                                               |                |        code{}: 0x27-0x3a (19)
0x20|                     01                        |       .        |          n: 1 (valid) 0x27-0x28 (1)
    |                                               |                |          x[0:1]: 0x28-0x3a (18)
    |                                               |                |            [0]{}: code 0x28-0x3a (18)
0x20|                        11                     |        .       |              size: 17 (valid) 0x28-0x29 (1)
    |                                               |                |              code{}: 0x29-0x3a (17)
    |                                               |                |                t{}: 0x29-0x2a (1)
0x20|                           00                  |         .      |                  n: 0 (valid) 0x29-0x2a (1)
    |                                               |                |                  x[0:0]: 0x2a-0x2a (0)
    |                                               |                |                e[0:6]: 0x2a-0x3a (16)
    |                                               |                |                  [0]{}: in 0x2a-0x2c (2)
0x20|                              20               |                |                    opcode: "local.get" (0x20) 0x2a-0x2b (1)
0x20|                                 00            |           .    |                    x: 0 (valid) 0x2b-0x2c (1)
    |                                               |                |                  [1]{}: in 0x2c-0x2e (2)
0x20|                                    20         |                |                    opcode: "local.get" (0x20) 0x2c-0x2d (1)
0x20|                                       01      |             .  |                    x: 1 (valid) 0x2d-0x2e (1)
    |                                               |                |                  [2]{}: in 0x2e-0x2f (1)
0x20|                                          a3   |              . |                    opcode: "f64.div" (0xa3) 0x2e-0x2f (1)
    |                                               |                |                  [3]{}: in 0x2f-0x38 (9)
0x20|                                             44|               D|                    opcode: "f64.const" (0x44) 0x2f-0x30 (1)
0x30|9a 99 99 99 99 99 d9 3f                        |.......?        |                    z: 0.4 0x30-0x38 (8)
    |                                               |                |                  [4]{}: in 0x38-0x39 (1)
0x30|                        63                     |        c       |                    opcode: "f64.lt" (0x63) 0x38-0x39 (1)
    |                                               |                |                  [5]{}: in 0x39-0x3a (1)
0x30|                           0b|                 |         .|     |                    opcode: "end" (0xb) 0x39-0x3a (1)
