$ fq -d wasm dv float_exprs-84.wasm
    |00 01 02 03 04 05 06 07 08 09 0a 0b 0c 0d 0e 0f|0123456789abcdef|.{}: float_exprs-84.wasm (wasm) 0x0-0x8d.7 (142)
0x00|00 61 73 6d                                    |.asm            |  magic: raw bits (valid) 0x0-0x3.7 (4)
0x00|            01 00 00 00                        |    ....        |  version: 1 0x4-0x7.7 (4)
    |                                               |                |  sections[0:4]: 0x8-0x8d.7 (134)
    |                                               |                |    [0]{}: section 0x8-0x12.7 (11)
0x00|                        01                     |        .       |      id: "type section" (1) 0x8-0x8.7 (1)
0x00|                           09                  |         .      |      size: 9 0x9-0x9.7 (1)
    |                                               |                |      content{}: 0xa-0x12.7 (9)
    |                                               |                |        ft{}: 0xa-0x12.7 (9)
0x00|                              02               |          .     |          n: 2 0xa-0xa.7 (1)
    |                                               |                |          x[0:2]: 0xb-0x12.7 (8)
    |                                               |                |            [0]{}: ft 0xb-0xe.7 (4)
0x00|                                 60            |           `    |              tag: 0x60 (valid) 0xb-0xb.7 (1)
    |                                               |                |              rt1{}: 0xc-0xc.7 (1)
0x00|                                    00         |            .   |                n: 0 0xc-0xc.7 (1)
    |                                               |                |                x[0:0]: 0xd-NA (0)
    |                                               |                |              rt2{}: 0xd-0xe.7 (2)
0x00|                                       01      |             .  |                n: 1 0xd-0xd.7 (1)
    |                                               |                |                x[0:1]: 0xe-0xe.7 (1)
0x00|                                          7d   |              } |                  [0]: "f32" (0x7d) t 0xe-0xe.7 (1)
    |                                               |                |            [1]{}: ft 0xf-0x12.7 (4)
0x00|                                             60|               `|              tag: 0x60 (valid) 0xf-0xf.7 (1)
    |                                               |                |              rt1{}: 0x10-0x10.7 (1)
0x10|00                                             |.               |                n: 0 0x10-0x10.7 (1)
    |                                               |                |                x[0:0]: 0x11-NA (0)
    |                                               |                |              rt2{}: 0x11-0x12.7 (2)
0x10|   01                                          | .              |                n: 1 0x11-0x11.7 (1)
    |                                               |                |                x[0:1]: 0x12-0x12.7 (1)
0x10|      7c                                       |  |             |                  [0]: "f64" (0x7c) t 0x12-0x12.7 (1)
    |                                               |                |    [1]{}: section 0x13-0x17.7 (5)
0x10|         03                                    |   .            |      id: "function section" (3) 0x13-0x13.7 (1)
0x10|            03                                 |    .           |      size: 3 0x14-0x14.7 (1)
    |                                               |                |      content{}: 0x15-0x17.7 (3)
    |                                               |                |        x{}: 0x15-0x17.7 (3)
0x10|               02                              |     .          |          n: 2 0x15-0x15.7 (1)
    |                                               |                |          x[0:2]: 0x16-0x17.7 (2)
0x10|                  00                           |      .         |            [0]: 0 x 0x16-0x16.7 (1)
0x10|                     01                        |       .        |            [1]: 1 x 0x17-0x17.7 (1)
    |                                               |                |    [2]{}: section 0x18-0x36.7 (31)
0x10|                        07                     |        .       |      id: "export section" (7) 0x18-0x18.7 (1)
0x10|                           1d                  |         .      |      size: 29 0x19-0x19.7 (1)
    |                                               |                |      content{}: 0x1a-0x36.7 (29)
    |                                               |                |        ex{}: 0x1a-0x36.7 (29)
0x10|                              02               |          .     |          n: 2 0x1a-0x1a.7 (1)
    |                                               |                |          x[0:2]: 0x1b-0x36.7 (28)
    |                                               |                |            [0]{}: ex 0x1b-0x28.7 (14)
    |                                               |                |              nm{}: 0x1b-0x26.7 (12)
0x10|                                 0b            |           .    |                n: 11 0x1b-0x1b.7 (1)
0x10|                                    66 33 32 2e|            f32.|                b: "f32.epsilon" 0x1c-0x26.7 (11)
0x20|65 70 73 69 6c 6f 6e                           |epsilon         |
    |                                               |                |              d{}: 0x27-0x28.7 (2)
0x20|                     00                        |       .        |                tag: "funcidx" (0x0) 0x27-0x27.7 (1)
0x20|                        00                     |        .       |                x: 0 0x28-0x28.7 (1)
    |                                               |                |            [1]{}: ex 0x29-0x36.7 (14)
    |                                               |                |              nm{}: 0x29-0x34.7 (12)
0x20|                           0b                  |         .      |                n: 11 0x29-0x29.7 (1)
0x20|                              66 36 34 2e 65 70|          f64.ep|                b: "f64.epsilon" 0x2a-0x34.7 (11)
0x30|73 69 6c 6f 6e                                 |silon           |
    |                                               |                |              d{}: 0x35-0x36.7 (2)
0x30|               00                              |     .          |                tag: "funcidx" (0x0) 0x35-0x35.7 (1)
0x30|                  01                           |      .         |                x: 1 0x36-0x36.7 (1)
    |                                               |                |    [3]{}: section 0x37-0x8d.7 (87)
0x30|                     0a                        |       .        |      id: "code section" (10) 0x37-0x37.7 (1)
0x30|                        55                     |        U       |      size: 85 0x38-0x38.7 (1)
    |                                               |                |      content{}: 0x39-0x8d.7 (85)
    |                                               |                |        code{}: 0x39-0x8d.7 (85)
0x30|                           02                  |         .      |          n: 2 0x39-0x39.7 (1)
    |                                               |                |          x[0:2]: 0x3a-0x8d.7 (84)
    |                                               |                |            [0]{}: code 0x3a-0x59.7 (32)
0x30|                              1f               |          .     |              size: 31 0x3a-0x3a.7 (1)
    |                                               |                |              code{}: 0x3b-0x59.7 (31)
    |                                               |                |                t{}: 0x3b-0x3b.7 (1)
0x30|                                 00            |           .    |                  n: 0 0x3b-0x3b.7 (1)
    |                                               |                |                  x[0:0]: 0x3c-NA (0)
    |                                               |                |                e[0:10]: 0x3c-0x59.7 (30)
    |                                               |                |                  [0]{}: in 0x3c-0x40.7 (5)
0x30|                                    43         |            C   |                    f32.const: 0x43 (valid) 0x3c-0x3c.7 (1)
0x30|                                       00 00 80|             ...|                    z: 1 0x3d-0x40.7 (4)
0x40|3f                                             |?               |
    |                                               |                |                  [1]{}: in 0x41-0x45.7 (5)
0x40|   43                                          | C              |                    f32.const: 0x43 (valid) 0x41-0x41.7 (1)
0x40|      00 00 40 40                              |  ..@@          |                    z: 3 0x42-0x45.7 (4)
    |                                               |                |                  [2]{}: in 0x46-0x4a.7 (5)
0x40|                  43                           |      C         |                    f32.const: 0x43 (valid) 0x46-0x46.7 (1)
0x40|                     00 00 80 40               |       ...@     |                    z: 4 0x47-0x4a.7 (4)
    |                                               |                |                  [3]{}: in 0x4b-0x4f.7 (5)
0x40|                                 43            |           C    |                    f32.const: 0x43 (valid) 0x4b-0x4b.7 (1)
0x40|                                    00 00 40 40|            ..@@|                    z: 3 0x4c-0x4f.7 (4)
    |                                               |                |                  [4]{}: in 0x50-0x50.7 (1)
0x50|95                                             |.               |                    f32.div: 0x95 (valid) 0x50-0x50.7 (1)
    |                                               |                |                  [5]{}: in 0x51-0x55.7 (5)
0x50|   43                                          | C              |                    f32.const: 0x43 (valid) 0x51-0x51.7 (1)
0x50|      00 00 80 3f                              |  ...?          |                    z: 1 0x52-0x55.7 (4)
    |                                               |                |                  [6]{}: in 0x56-0x56.7 (1)
0x50|                  93                           |      .         |                    f32.sub: 0x93 (valid) 0x56-0x56.7 (1)
    |                                               |                |                  [7]{}: in 0x57-0x57.7 (1)
0x50|                     94                        |       .        |                    f32.mul: 0x94 (valid) 0x57-0x57.7 (1)
    |                                               |                |                  [8]{}: in 0x58-0x58.7 (1)
0x50|                        93                     |        .       |                    f32.sub: 0x93 (valid) 0x58-0x58.7 (1)
    |                                               |                |                  [9]{}: in 0x59-0x59.7 (1)
0x50|                           0b                  |         .      |                    end: 0xb (valid) 0x59-0x59.7 (1)
    |                                               |                |            [1]{}: code 0x5a-0x8d.7 (52)
0x50|                              33               |          3     |              size: 51 0x5a-0x5a.7 (1)
    |                                               |                |              code{}: 0x5b-0x8d.7 (51)
    |                                               |                |                t{}: 0x5b-0x5b.7 (1)
0x50|                                 00            |           .    |                  n: 0 0x5b-0x5b.7 (1)
    |                                               |                |                  x[0:0]: 0x5c-NA (0)
    |                                               |                |                e[0:10]: 0x5c-0x8d.7 (50)
    |                                               |                |                  [0]{}: in 0x5c-0x64.7 (9)
0x50|                                    44         |            D   |                    f64.const: 0x44 (valid) 0x5c-0x5c.7 (1)
0x50|                                       00 00 00|             ...|                    z: 1 0x5d-0x64.7 (8)
0x60|00 00 00 f0 3f                                 |....?           |
    |                                               |                |                  [1]{}: in 0x65-0x6d.7 (9)
0x60|               44                              |     D          |                    f64.const: 0x44 (valid) 0x65-0x65.7 (1)
0x60|                  00 00 00 00 00 00 08 40      |      .......@  |                    z: 3 0x66-0x6d.7 (8)
    |                                               |                |                  [2]{}: in 0x6e-0x76.7 (9)
0x60|                                          44   |              D |                    f64.const: 0x44 (valid) 0x6e-0x6e.7 (1)
0x60|                                             00|               .|                    z: 4 0x6f-0x76.7 (8)
0x70|00 00 00 00 00 10 40                           |......@         |
    |                                               |                |                  [3]{}: in 0x77-0x7f.7 (9)
0x70|                     44                        |       D        |                    f64.const: 0x44 (valid) 0x77-0x77.7 (1)
0x70|                        00 00 00 00 00 00 08 40|        .......@|                    z: 3 0x78-0x7f.7 (8)
    |                                               |                |                  [4]{}: in 0x80-0x80.7 (1)
0x80|a3                                             |.               |                    f64.div: 0xa3 (valid) 0x80-0x80.7 (1)
    |                                               |                |                  [5]{}: in 0x81-0x89.7 (9)
0x80|   44                                          | D              |                    f64.const: 0x44 (valid) 0x81-0x81.7 (1)
0x80|      00 00 00 00 00 00 f0 3f                  |  .......?      |                    z: 1 0x82-0x89.7 (8)
    |                                               |                |                  [6]{}: in 0x8a-0x8a.7 (1)
0x80|                              a1               |          .     |                    f64.sub: 0xa1 (valid) 0x8a-0x8a.7 (1)
    |                                               |                |                  [7]{}: in 0x8b-0x8b.7 (1)
0x80|                                 a2            |           .    |                    f64.mul: 0xa2 (valid) 0x8b-0x8b.7 (1)
    |                                               |                |                  [8]{}: in 0x8c-0x8c.7 (1)
0x80|                                    a1         |            .   |                    f64.sub: 0xa1 (valid) 0x8c-0x8c.7 (1)
    |                                               |                |                  [9]{}: in 0x8d-0x8d.7 (1)
0x80|                                       0b|     |             .| |                    end: 0xb (valid) 0x8d-0x8d.7 (1)
