$ fq -d wasm dv float_exprs-49.wasm
    |00 01 02 03 04 05 06 07 08 09 0a 0b 0c 0d 0e 0f|0123456789abcdef|.{}: float_exprs-49.wasm (wasm) 0x0-0x7a (122)
0x00|00 61 73 6d                                    |.asm            |  magic: raw bits (valid) 0x0-0x4 (4)
0x00|            01 00 00 00                        |    ....        |  version: 1 0x4-0x8 (4)
    |                                               |                |  sections[0:4]: 0x8-0x7a (114)
    |                                               |                |    [0]{}: section 0x8-0xf (7)
0x00|                        01                     |        .       |      id: "type_section" (1) 0x8-0x9 (1)
0x00|                           05                  |         .      |      size: 5 (valid) 0x9-0xa (1)
    |                                               |                |      content{}: 0xa-0xf (5)
    |                                               |                |        ft{}: 0xa-0xf (5)
0x00|                              01               |          .     |          n: 1 (valid) 0xa-0xb (1)
    |                                               |                |          x[0:1]: 0xb-0xf (4)
    |                                               |                |            [0]{}: ft 0xb-0xf (4)
0x00|                                 60            |           `    |              tag: 0x60 (valid) 0xb-0xc (1)
    |                                               |                |              rt1{}: 0xc-0xd (1)
0x00|                                    00         |            .   |                n: 0 (valid) 0xc-0xd (1)
    |                                               |                |                x[0:0]: 0xd-0xd (0)
    |                                               |                |              rt2{}: 0xd-0xf (2)
0x00|                                       01      |             .  |                n: 1 (valid) 0xd-0xe (1)
    |                                               |                |                x[0:1]: 0xe-0xf (1)
0x00|                                          7c   |              | |                  [0]: "f64" (0x7c) t 0xe-0xf (1)
    |                                               |                |    [1]{}: section 0xf-0x13 (4)
0x00|                                             03|               .|      id: "function_section" (3) 0xf-0x10 (1)
0x10|02                                             |.               |      size: 2 (valid) 0x10-0x11 (1)
    |                                               |                |      content{}: 0x11-0x13 (2)
    |                                               |                |        x{}: 0x11-0x13 (2)
0x10|   01                                          | .              |          n: 1 (valid) 0x11-0x12 (1)
    |                                               |                |          x[0:1]: 0x12-0x13 (1)
0x10|      00                                       |  .             |            [0]: 0 x (valid) 0x12-0x13 (1)
    |                                               |                |    [2]{}: section 0x13-0x22 (15)
0x10|         07                                    |   .            |      id: "export_section" (7) 0x13-0x14 (1)
0x10|            0d                                 |    .           |      size: 13 (valid) 0x14-0x15 (1)
    |                                               |                |      content{}: 0x15-0x22 (13)
    |                                               |                |        ex{}: 0x15-0x22 (13)
0x10|               01                              |     .          |          n: 1 (valid) 0x15-0x16 (1)
    |                                               |                |          x[0:1]: 0x16-0x22 (12)
    |                                               |                |            [0]{}: ex 0x16-0x22 (12)
    |                                               |                |              nm{}: 0x16-0x20 (10)
0x10|                  09                           |      .         |                n: 9 (valid) 0x16-0x17 (1)
0x10|                     63 61 6c 63 75 6c 61 74 65|       calculate|                b: "calculate" 0x17-0x20 (9)
    |                                               |                |              d{}: 0x20-0x22 (2)
0x20|00                                             |.               |                tag: "funcidx" (0x0) 0x20-0x21 (1)
0x20|   00                                          | .              |                x: 0 (valid) 0x21-0x22 (1)
    |                                               |                |    [3]{}: section 0x22-0x7a (88)
0x20|      0a                                       |  .             |      id: "code_section" (10) 0x22-0x23 (1)
0x20|         56                                    |   V            |      size: 86 (valid) 0x23-0x24 (1)
    |                                               |                |      content{}: 0x24-0x7a (86)
    |                                               |                |        code{}: 0x24-0x7a (86)
0x20|            01                                 |    .           |          n: 1 (valid) 0x24-0x25 (1)
    |                                               |                |          x[0:1]: 0x25-0x7a (85)
    |                                               |                |            [0]{}: code 0x25-0x7a (85)
0x20|               54                              |     T          |              size: 84 (valid) 0x25-0x26 (1)
    |                                               |                |              code{}: 0x26-0x7a (84)
    |                                               |                |                t{}: 0x26-0x29 (3)
0x20|                  01                           |      .         |                  n: 1 (valid) 0x26-0x27 (1)
    |                                               |                |                  x[0:1]: 0x27-0x29 (2)
    |                                               |                |                    [0]{}: t 0x27-0x29 (2)
0x20|                     05                        |       .        |                      n: 5 (valid) 0x27-0x28 (1)
0x20|                        7c                     |        |       |                      t: "f64" (0x7c) 0x28-0x29 (1)
    |                                               |                |                e[0:31]: 0x29-0x7a (81)
    |                                               |                |                  [0]{}: in 0x29-0x32 (9)
0x20|                           44                  |         D      |                    opcode: "f64.const" (0x44) 0x29-0x2a (1)
0x20|                              00 00 00 00 00 88|          ......|                    z: 156.25 0x2a-0x32 (8)
0x30|63 40                                          |c@              |
    |                                               |                |                  [1]{}: in 0x32-0x34 (2)
0x30|      21                                       |  !             |                    opcode: "local.set" (0x21) 0x32-0x33 (1)
0x30|         00                                    |   .            |                    x: 0 (valid) 0x33-0x34 (1)
    |                                               |                |                  [2]{}: in 0x34-0x3d (9)
0x30|            44                                 |    D           |                    opcode: "f64.const" (0x44) 0x34-0x35 (1)
0x30|               4b 06 ab aa aa 0a 6a 40         |     K.....j@   |                    z: 208.333333334 0x35-0x3d (8)
    |                                               |                |                  [3]{}: in 0x3d-0x3f (2)
0x30|                                       21      |             !  |                    opcode: "local.set" (0x21) 0x3d-0x3e (1)
0x30|                                          01   |              . |                    x: 1 (valid) 0x3e-0x3f (1)
    |                                               |                |                  [4]{}: in 0x3f-0x48 (9)
0x30|                                             44|               D|                    opcode: "f64.const" (0x44) 0x3f-0x40 (1)
0x40|96 d0 e3 aa e2 78 fc 3f                        |.....x.?        |                    z: 1.77951304201 0x40-0x48 (8)
    |                                               |                |                  [5]{}: in 0x48-0x4a (2)
0x40|                        21                     |        !       |                    opcode: "local.set" (0x21) 0x48-0x49 (1)
0x40|                           02                  |         .      |                    x: 2 (valid) 0x49-0x4a (1)
    |                                               |                |                  [6]{}: in 0x4a-0x4c (2)
0x40|                              20               |                |                    opcode: "local.get" (0x20) 0x4a-0x4b (1)
0x40|                                 01            |           .    |                    x: 1 (valid) 0x4b-0x4c (1)
    |                                               |                |                  [7]{}: in 0x4c-0x4d (1)
0x40|                                    9a         |            .   |                    opcode: "f64.neg" (0x9a) 0x4c-0x4d (1)
    |                                               |                |                  [8]{}: in 0x4d-0x4f (2)
0x40|                                       20      |                |                    opcode: "local.get" (0x20) 0x4d-0x4e (1)
0x40|                                          00   |              . |                    x: 0 (valid) 0x4e-0x4f (1)
    |                                               |                |                  [9]{}: in 0x4f-0x50 (1)
0x40|                                             a2|               .|                    opcode: "f64.mul" (0xa2) 0x4f-0x50 (1)
    |                                               |                |                  [10]{}: in 0x50-0x52 (2)
0x50|20                                             |                |                    opcode: "local.get" (0x20) 0x50-0x51 (1)
0x50|   00                                          | .              |                    x: 0 (valid) 0x51-0x52 (1)
    |                                               |                |                  [11]{}: in 0x52-0x54 (2)
0x50|      20                                       |                |                    opcode: "local.get" (0x20) 0x52-0x53 (1)
0x50|         02                                    |   .            |                    x: 2 (valid) 0x53-0x54 (1)
    |                                               |                |                  [12]{}: in 0x54-0x55 (1)
0x50|            a2                                 |    .           |                    opcode: "f64.mul" (0xa2) 0x54-0x55 (1)
    |                                               |                |                  [13]{}: in 0x55-0x57 (2)
0x50|               20                              |                |                    opcode: "local.get" (0x20) 0x55-0x56 (1)
0x50|                  01                           |      .         |                    x: 1 (valid) 0x56-0x57 (1)
    |                                               |                |                  [14]{}: in 0x57-0x58 (1)
0x50|                     a1                        |       .        |                    opcode: "f64.sub" (0xa1) 0x57-0x58 (1)
    |                                               |                |                  [15]{}: in 0x58-0x59 (1)
0x50|                        a3                     |        .       |                    opcode: "f64.div" (0xa3) 0x58-0x59 (1)
    |                                               |                |                  [16]{}: in 0x59-0x5b (2)
0x50|                           21                  |         !      |                    opcode: "local.set" (0x21) 0x59-0x5a (1)
0x50|                              03               |          .     |                    x: 3 (valid) 0x5a-0x5b (1)
    |                                               |                |                  [17]{}: in 0x5b-0x5d (2)
0x50|                                 20            |                |                    opcode: "local.get" (0x20) 0x5b-0x5c (1)
0x50|                                    01         |            .   |                    x: 1 (valid) 0x5c-0x5d (1)
    |                                               |                |                  [18]{}: in 0x5d-0x5e (1)
0x50|                                       9a      |             .  |                    opcode: "f64.neg" (0x9a) 0x5d-0x5e (1)
    |                                               |                |                  [19]{}: in 0x5e-0x60 (2)
0x50|                                          20   |                |                    opcode: "local.get" (0x20) 0x5e-0x5f (1)
0x50|                                             00|               .|                    x: 0 (valid) 0x5f-0x60 (1)
    |                                               |                |                  [20]{}: in 0x60-0x61 (1)
0x60|a2                                             |.               |                    opcode: "f64.mul" (0xa2) 0x60-0x61 (1)
    |                                               |                |                  [21]{}: in 0x61-0x63 (2)
0x60|   20                                          |                |                    opcode: "local.get" (0x20) 0x61-0x62 (1)
0x60|      00                                       |  .             |                    x: 0 (valid) 0x62-0x63 (1)
    |                                               |                |                  [22]{}: in 0x63-0x65 (2)
0x60|         20                                    |                |                    opcode: "local.get" (0x20) 0x63-0x64 (1)
0x60|            02                                 |    .           |                    x: 2 (valid) 0x64-0x65 (1)
    |                                               |                |                  [23]{}: in 0x65-0x66 (1)
0x60|               a2                              |     .          |                    opcode: "f64.mul" (0xa2) 0x65-0x66 (1)
    |                                               |                |                  [24]{}: in 0x66-0x68 (2)
0x60|                  20                           |                |                    opcode: "local.get" (0x20) 0x66-0x67 (1)
0x60|                     01                        |       .        |                    x: 1 (valid) 0x67-0x68 (1)
    |                                               |                |                  [25]{}: in 0x68-0x69 (1)
0x60|                        a1                     |        .       |                    opcode: "f64.sub" (0xa1) 0x68-0x69 (1)
    |                                               |                |                  [26]{}: in 0x69-0x6a (1)
0x60|                           a3                  |         .      |                    opcode: "f64.div" (0xa3) 0x69-0x6a (1)
    |                                               |                |                  [27]{}: in 0x6a-0x6c (2)
0x60|                              21               |          !     |                    opcode: "local.set" (0x21) 0x6a-0x6b (1)
0x60|                                 04            |           .    |                    x: 4 (valid) 0x6b-0x6c (1)
    |                                               |                |                  [28]{}: in 0x6c-0x77 (11)
0x60|                                    02         |            .   |                    opcode: "block" (0x2) 0x6c-0x6d (1)
0x60|                                       40      |             @  |                    bt: "ε" (64) 0x6d-0x6e (1)
    |                                               |                |                    instructions[0:5]: 0x6e-0x76 (8)
    |                                               |                |                      [0]{}: instr 0x6e-0x70 (2)
0x60|                                          20   |                |                        opcode: "local.get" (0x20) 0x6e-0x6f (1)
0x60|                                             03|               .|                        x: 3 (valid) 0x6f-0x70 (1)
    |                                               |                |                      [1]{}: instr 0x70-0x72 (2)
0x70|20                                             |                |                        opcode: "local.get" (0x20) 0x70-0x71 (1)
0x70|   04                                          | .              |                        x: 4 (valid) 0x71-0x72 (1)
    |                                               |                |                      [2]{}: instr 0x72-0x73 (1)
0x70|      61                                       |  a             |                        opcode: "f64.eq" (0x61) 0x72-0x73 (1)
    |                                               |                |                      [3]{}: instr 0x73-0x75 (2)
0x70|         0d                                    |   .            |                        opcode: "br_if" (0xd) 0x73-0x74 (1)
0x70|            00                                 |    .           |                        l: 0 (valid) 0x74-0x75 (1)
    |                                               |                |                      [4]{}: instr 0x75-0x76 (1)
0x70|               00                              |     .          |                        opcode: "unreachable" (0x0) 0x75-0x76 (1)
0x70|                  0b                           |      .         |                    end: 0xb (valid) 0x76-0x77 (1)
    |                                               |                |                  [29]{}: in 0x77-0x79 (2)
0x70|                     20                        |                |                    opcode: "local.get" (0x20) 0x77-0x78 (1)
0x70|                        04                     |        .       |                    x: 4 (valid) 0x78-0x79 (1)
    |                                               |                |                  [30]{}: in 0x79-0x7a (1)
0x70|                           0b|                 |         .|     |                    opcode: "end" (0xb) 0x79-0x7a (1)
