$ fq -d wasm dv float_exprs-89.wasm
    |00 01 02 03 04 05 06 07 08 09 0a 0b 0c 0d 0e 0f|0123456789abcdef|.{}: float_exprs-89.wasm (wasm) 0x0-0x65.7 (102)
0x00|00 61 73 6d                                    |.asm            |  magic: raw bits (valid) 0x0-0x3.7 (4)
0x00|            01 00 00 00                        |    ....        |  version: 1 0x4-0x7.7 (4)
    |                                               |                |  sections[0:4]: 0x8-0x65.7 (94)
    |                                               |                |    [0]{}: section 0x8-0x16.7 (15)
0x00|                        01                     |        .       |      id: "type section" (1) 0x8-0x8.7 (1)
0x00|                           0d                  |         .      |      size: 13 0x9-0x9.7 (1)
    |                                               |                |      content{}: 0xa-0x16.7 (13)
    |                                               |                |        ft{}: 0xa-0x16.7 (13)
0x00|                              02               |          .     |          n: 2 0xa-0xa.7 (1)
    |                                               |                |          x[0:2]: 0xb-0x16.7 (12)
    |                                               |                |            [0]{}: ft 0xb-0x10.7 (6)
0x00|                                 60            |           `    |              tag: 0x60 (valid) 0xb-0xb.7 (1)
    |                                               |                |              rt1{}: 0xc-0xe.7 (3)
0x00|                                    02         |            .   |                n: 2 0xc-0xc.7 (1)
    |                                               |                |                x[0:2]: 0xd-0xe.7 (2)
0x00|                                       7d      |             }  |                  [0]: "f32" (0x7d) t 0xd-0xd.7 (1)
0x00|                                          7d   |              } |                  [1]: "f32" (0x7d) t 0xe-0xe.7 (1)
    |                                               |                |              rt2{}: 0xf-0x10.7 (2)
0x00|                                             01|               .|                n: 1 0xf-0xf.7 (1)
    |                                               |                |                x[0:1]: 0x10-0x10.7 (1)
0x10|7d                                             |}               |                  [0]: "f32" (0x7d) t 0x10-0x10.7 (1)
    |                                               |                |            [1]{}: ft 0x11-0x16.7 (6)
0x10|   60                                          | `              |              tag: 0x60 (valid) 0x11-0x11.7 (1)
    |                                               |                |              rt1{}: 0x12-0x14.7 (3)
0x10|      02                                       |  .             |                n: 2 0x12-0x12.7 (1)
    |                                               |                |                x[0:2]: 0x13-0x14.7 (2)
0x10|         7c                                    |   |            |                  [0]: "f64" (0x7c) t 0x13-0x13.7 (1)
0x10|            7c                                 |    |           |                  [1]: "f64" (0x7c) t 0x14-0x14.7 (1)
    |                                               |                |              rt2{}: 0x15-0x16.7 (2)
0x10|               01                              |     .          |                n: 1 0x15-0x15.7 (1)
    |                                               |                |                x[0:1]: 0x16-0x16.7 (1)
0x10|                  7c                           |      |         |                  [0]: "f64" (0x7c) t 0x16-0x16.7 (1)
    |                                               |                |    [1]{}: section 0x17-0x1b.7 (5)
0x10|                     03                        |       .        |      id: "function section" (3) 0x17-0x17.7 (1)
0x10|                        03                     |        .       |      size: 3 0x18-0x18.7 (1)
    |                                               |                |      content{}: 0x19-0x1b.7 (3)
    |                                               |                |        x{}: 0x19-0x1b.7 (3)
0x10|                           02                  |         .      |          n: 2 0x19-0x19.7 (1)
    |                                               |                |          x[0:2]: 0x1a-0x1b.7 (2)
0x10|                              00               |          .     |            [0]: 0 x 0x1a-0x1a.7 (1)
0x10|                                 01            |           .    |            [1]: 1 x 0x1b-0x1b.7 (1)
    |                                               |                |    [2]{}: section 0x1c-0x44.7 (41)
0x10|                                    07         |            .   |      id: "export section" (7) 0x1c-0x1c.7 (1)
0x10|                                       27      |             '  |      size: 39 0x1d-0x1d.7 (1)
    |                                               |                |      content{}: 0x1e-0x44.7 (39)
    |                                               |                |        ex{}: 0x1e-0x44.7 (39)
0x10|                                          02   |              . |          n: 2 0x1e-0x1e.7 (1)
    |                                               |                |          x[0:2]: 0x1f-0x44.7 (38)
    |                                               |                |            [0]{}: ex 0x1f-0x31.7 (19)
    |                                               |                |              nm{}: 0x1f-0x2f.7 (17)
0x10|                                             10|               .|                n: 16 0x1f-0x1f.7 (1)
0x20|66 33 32 2e 63 6f 6e 74 72 61 63 74 32 66 6d 61|f32.contract2fma|                b: "f32.contract2fma" 0x20-0x2f.7 (16)
    |                                               |                |              d{}: 0x30-0x31.7 (2)
0x30|00                                             |.               |                tag: "funcidx" (0x0) 0x30-0x30.7 (1)
0x30|   00                                          | .              |                x: 0 0x31-0x31.7 (1)
    |                                               |                |            [1]{}: ex 0x32-0x44.7 (19)
    |                                               |                |              nm{}: 0x32-0x42.7 (17)
0x30|      10                                       |  .             |                n: 16 0x32-0x32.7 (1)
0x30|         66 36 34 2e 63 6f 6e 74 72 61 63 74 32|   f64.contract2|                b: "f64.contract2fma" 0x33-0x42.7 (16)
0x40|66 6d 61                                       |fma             |
    |                                               |                |              d{}: 0x43-0x44.7 (2)
0x40|         00                                    |   .            |                tag: "funcidx" (0x0) 0x43-0x43.7 (1)
0x40|            01                                 |    .           |                x: 1 0x44-0x44.7 (1)
    |                                               |                |    [3]{}: section 0x45-0x65.7 (33)
0x40|               0a                              |     .          |      id: "code section" (10) 0x45-0x45.7 (1)
0x40|                  1f                           |      .         |      size: 31 0x46-0x46.7 (1)
    |                                               |                |      content{}: 0x47-0x65.7 (31)
    |                                               |                |        code{}: 0x47-0x65.7 (31)
0x40|                     02                        |       .        |          n: 2 0x47-0x47.7 (1)
    |                                               |                |          x[0:2]: 0x48-0x65.7 (30)
    |                                               |                |            [0]{}: code 0x48-0x56.7 (15)
0x40|                        0e                     |        .       |              size: 14 0x48-0x48.7 (1)
    |                                               |                |              code{}: 0x49-0x56.7 (14)
    |                                               |                |                t{}: 0x49-0x49.7 (1)
0x40|                           00                  |         .      |                  n: 0 0x49-0x49.7 (1)
    |                                               |                |                  x[0:0]: 0x4a-NA (0)
    |                                               |                |                e[0:9]: 0x4a-0x56.7 (13)
    |                                               |                |                  [0]{}: in 0x4a-0x4b.7 (2)
0x40|                              20               |                |                    local.get: 0x20 (valid) 0x4a-0x4a.7 (1)
0x40|                                 00            |           .    |                    x: 0 0x4b-0x4b.7 (1)
    |                                               |                |                  [1]{}: in 0x4c-0x4d.7 (2)
0x40|                                    20         |                |                    local.get: 0x20 (valid) 0x4c-0x4c.7 (1)
0x40|                                       00      |             .  |                    x: 0 0x4d-0x4d.7 (1)
    |                                               |                |                  [2]{}: in 0x4e-0x4e.7 (1)
0x40|                                          94   |              . |                    f32.mul: 0x94 (valid) 0x4e-0x4e.7 (1)
    |                                               |                |                  [3]{}: in 0x4f-0x50.7 (2)
0x40|                                             20|                |                    local.get: 0x20 (valid) 0x4f-0x4f.7 (1)
0x50|01                                             |.               |                    x: 1 0x50-0x50.7 (1)
    |                                               |                |                  [4]{}: in 0x51-0x52.7 (2)
0x50|   20                                          |                |                    local.get: 0x20 (valid) 0x51-0x51.7 (1)
0x50|      01                                       |  .             |                    x: 1 0x52-0x52.7 (1)
    |                                               |                |                  [5]{}: in 0x53-0x53.7 (1)
0x50|         94                                    |   .            |                    f32.mul: 0x94 (valid) 0x53-0x53.7 (1)
    |                                               |                |                  [6]{}: in 0x54-0x54.7 (1)
0x50|            93                                 |    .           |                    f32.sub: 0x93 (valid) 0x54-0x54.7 (1)
    |                                               |                |                  [7]{}: in 0x55-0x55.7 (1)
0x50|               91                              |     .          |                    f32.sqrt: 0x91 (valid) 0x55-0x55.7 (1)
    |                                               |                |                  [8]{}: in 0x56-0x56.7 (1)
0x50|                  0b                           |      .         |                    end: 0xb (valid) 0x56-0x56.7 (1)
    |                                               |                |            [1]{}: code 0x57-0x65.7 (15)
0x50|                     0e                        |       .        |              size: 14 0x57-0x57.7 (1)
    |                                               |                |              code{}: 0x58-0x65.7 (14)
    |                                               |                |                t{}: 0x58-0x58.7 (1)
0x50|                        00                     |        .       |                  n: 0 0x58-0x58.7 (1)
    |                                               |                |                  x[0:0]: 0x59-NA (0)
    |                                               |                |                e[0:9]: 0x59-0x65.7 (13)
    |                                               |                |                  [0]{}: in 0x59-0x5a.7 (2)
0x50|                           20                  |                |                    local.get: 0x20 (valid) 0x59-0x59.7 (1)
0x50|                              00               |          .     |                    x: 0 0x5a-0x5a.7 (1)
    |                                               |                |                  [1]{}: in 0x5b-0x5c.7 (2)
0x50|                                 20            |                |                    local.get: 0x20 (valid) 0x5b-0x5b.7 (1)
0x50|                                    00         |            .   |                    x: 0 0x5c-0x5c.7 (1)
    |                                               |                |                  [2]{}: in 0x5d-0x5d.7 (1)
0x50|                                       a2      |             .  |                    f64.mul: 0xa2 (valid) 0x5d-0x5d.7 (1)
    |                                               |                |                  [3]{}: in 0x5e-0x5f.7 (2)
0x50|                                          20   |                |                    local.get: 0x20 (valid) 0x5e-0x5e.7 (1)
0x50|                                             01|               .|                    x: 1 0x5f-0x5f.7 (1)
    |                                               |                |                  [4]{}: in 0x60-0x61.7 (2)
0x60|20                                             |                |                    local.get: 0x20 (valid) 0x60-0x60.7 (1)
0x60|   01                                          | .              |                    x: 1 0x61-0x61.7 (1)
    |                                               |                |                  [5]{}: in 0x62-0x62.7 (1)
0x60|      a2                                       |  .             |                    f64.mul: 0xa2 (valid) 0x62-0x62.7 (1)
    |                                               |                |                  [6]{}: in 0x63-0x63.7 (1)
0x60|         a1                                    |   .            |                    f64.sub: 0xa1 (valid) 0x63-0x63.7 (1)
    |                                               |                |                  [7]{}: in 0x64-0x64.7 (1)
0x60|            9f                                 |    .           |                    f64.sqrt: 0x9f (valid) 0x64-0x64.7 (1)
    |                                               |                |                  [8]{}: in 0x65-0x65.7 (1)
0x60|               0b|                             |     .|         |                    end: 0xb (valid) 0x65-0x65.7 (1)
