$ fq -d wasm dv float_exprs-28.wasm
    |00 01 02 03 04 05 06 07 08 09 0a 0b 0c 0d 0e 0f|0123456789abcdef|.{}: float_exprs-28.wasm (wasm) 0x0-0x4a.7 (75)
0x00|00 61 73 6d                                    |.asm            |  magic: raw bits (valid) 0x0-0x3.7 (4)
0x00|            01 00 00 00                        |    ....        |  version: 1 0x4-0x7.7 (4)
    |                                               |                |  sections[0:4]: 0x8-0x4a.7 (67)
    |                                               |                |    [0]{}: section 0x8-0xf.7 (8)
0x00|                        01                     |        .       |      id: "type_section" (1) 0x8-0x8.7 (1)
0x00|                           06                  |         .      |      size: 6 (valid) 0x9-0x9.7 (1)
    |                                               |                |      content{}: 0xa-0xf.7 (6)
    |                                               |                |        ft{}: 0xa-0xf.7 (6)
0x00|                              01               |          .     |          n: 1 (valid) 0xa-0xa.7 (1)
    |                                               |                |          x[0:1]: 0xb-0xf.7 (5)
    |                                               |                |            [0]{}: ft 0xb-0xf.7 (5)
0x00|                                 60            |           `    |              tag: 0x60 (valid) 0xb-0xb.7 (1)
    |                                               |                |              rt1{}: 0xc-0xd.7 (2)
0x00|                                    01         |            .   |                n: 1 (valid) 0xc-0xc.7 (1)
    |                                               |                |                x[0:1]: 0xd-0xd.7 (1)
0x00|                                       7d      |             }  |                  [0]: "f32" (0x7d) t 0xd-0xd.7 (1)
    |                                               |                |              rt2{}: 0xe-0xf.7 (2)
0x00|                                          01   |              . |                n: 1 (valid) 0xe-0xe.7 (1)
    |                                               |                |                x[0:1]: 0xf-0xf.7 (1)
0x00|                                             7d|               }|                  [0]: "f32" (0x7d) t 0xf-0xf.7 (1)
    |                                               |                |    [1]{}: section 0x10-0x13.7 (4)
0x10|03                                             |.               |      id: "function_section" (3) 0x10-0x10.7 (1)
0x10|   02                                          | .              |      size: 2 (valid) 0x11-0x11.7 (1)
    |                                               |                |      content{}: 0x12-0x13.7 (2)
    |                                               |                |        x{}: 0x12-0x13.7 (2)
0x10|      01                                       |  .             |          n: 1 (valid) 0x12-0x12.7 (1)
    |                                               |                |          x[0:1]: 0x13-0x13.7 (1)
0x10|         00                                    |   .            |            [0]: 0 x (valid) 0x13-0x13.7 (1)
    |                                               |                |    [2]{}: section 0x14-0x3b.7 (40)
0x10|            07                                 |    .           |      id: "export_section" (7) 0x14-0x14.7 (1)
0x10|               26                              |     &          |      size: 38 (valid) 0x15-0x15.7 (1)
    |                                               |                |      content{}: 0x16-0x3b.7 (38)
    |                                               |                |        ex{}: 0x16-0x3b.7 (38)
0x10|                  01                           |      .         |          n: 1 (valid) 0x16-0x16.7 (1)
    |                                               |                |          x[0:1]: 0x17-0x3b.7 (37)
    |                                               |                |            [0]{}: ex 0x17-0x3b.7 (37)
    |                                               |                |              nm{}: 0x17-0x39.7 (35)
0x10|                     22                        |       "        |                n: 34 (valid) 0x17-0x17.7 (1)
0x10|                        66 33 32 2e 6e 6f 5f 61|        f32.no_a|                b: "f32.no_approximate_sqrt_reciprocal" 0x18-0x39.7 (34)
0x20|70 70 72 6f 78 69 6d 61 74 65 5f 73 71 72 74 5f|pproximate_sqrt_|
0x30|72 65 63 69 70 72 6f 63 61 6c                  |reciprocal      |
    |                                               |                |              d{}: 0x3a-0x3b.7 (2)
0x30|                              00               |          .     |                tag: "funcidx" (0x0) 0x3a-0x3a.7 (1)
0x30|                                 00            |           .    |                x: 0 (valid) 0x3b-0x3b.7 (1)
    |                                               |                |    [3]{}: section 0x3c-0x4a.7 (15)
0x30|                                    0a         |            .   |      id: "code_section" (10) 0x3c-0x3c.7 (1)
0x30|                                       0d      |             .  |      size: 13 (valid) 0x3d-0x3d.7 (1)
    |                                               |                |      content{}: 0x3e-0x4a.7 (13)
    |                                               |                |        code{}: 0x3e-0x4a.7 (13)
0x30|                                          01   |              . |          n: 1 (valid) 0x3e-0x3e.7 (1)
    |                                               |                |          x[0:1]: 0x3f-0x4a.7 (12)
    |                                               |                |            [0]{}: code 0x3f-0x4a.7 (12)
0x30|                                             0b|               .|              size: 11 (valid) 0x3f-0x3f.7 (1)
    |                                               |                |              code{}: 0x40-0x4a.7 (11)
    |                                               |                |                t{}: 0x40-0x40.7 (1)
0x40|00                                             |.               |                  n: 0 (valid) 0x40-0x40.7 (1)
    |                                               |                |                  x[0:0]: 0x41-NA (0)
    |                                               |                |                e[0:5]: 0x41-0x4a.7 (10)
    |                                               |                |                  [0]{}: in 0x41-0x45.7 (5)
0x40|   43                                          | C              |                    opcode: "f32.const" (0x43) 0x41-0x41.7 (1)
0x40|      00 00 80 3f                              |  ...?          |                    z: 1 0x42-0x45.7 (4)
    |                                               |                |                  [1]{}: in 0x46-0x47.7 (2)
0x40|                  20                           |                |                    opcode: "local.get" (0x20) 0x46-0x46.7 (1)
0x40|                     00                        |       .        |                    x: 0 (valid) 0x47-0x47.7 (1)
    |                                               |                |                  [2]{}: in 0x48-0x48.7 (1)
0x40|                        95                     |        .       |                    opcode: "f32.div" (0x95) 0x48-0x48.7 (1)
    |                                               |                |                  [3]{}: in 0x49-0x49.7 (1)
0x40|                           91                  |         .      |                    opcode: "f32.sqrt" (0x91) 0x49-0x49.7 (1)
    |                                               |                |                  [4]{}: in 0x4a-0x4a.7 (1)
0x40|                              0b|              |          .|    |                    opcode: "end" (0xb) 0x4a-0x4a.7 (1)
