$ fq -d wasm dv float_exprs-51.wasm
    |00 01 02 03 04 05 06 07 08 09 0a 0b 0c 0d 0e 0f|0123456789abcdef|.{}: float_exprs-51.wasm (wasm) 0x0-0x3b.7 (60)
0x00|00 61 73 6d                                    |.asm            |  magic: raw bits (valid) 0x0-0x3.7 (4)
0x00|            01 00 00 00                        |    ....        |  version: 1 0x4-0x7.7 (4)
    |                                               |                |  sections[0:4]: 0x8-0x3b.7 (52)
    |                                               |                |    [0]{}: section 0x8-0xf.7 (8)
0x00|                        01                     |        .       |      id: "type section" (1) 0x8-0x8.7 (1)
0x00|                           06                  |         .      |      size: 6 0x9-0x9.7 (1)
    |                                               |                |      content{}: 0xa-0xf.7 (6)
    |                                               |                |        ft{}: 0xa-0xf.7 (6)
0x00|                              01               |          .     |          n: 1 0xa-0xa.7 (1)
    |                                               |                |          x[0:1]: 0xb-0xf.7 (5)
    |                                               |                |            [0]{}: ft 0xb-0xf.7 (5)
0x00|                                 60            |           `    |              tag: 0x60 (valid) 0xb-0xb.7 (1)
    |                                               |                |              rt1{}: 0xc-0xd.7 (2)
0x00|                                    01         |            .   |                n: 1 0xc-0xc.7 (1)
    |                                               |                |                x[0:1]: 0xd-0xd.7 (1)
0x00|                                       7f      |             .  |                  [0]: "i32" (0x7f) t 0xd-0xd.7 (1)
    |                                               |                |              rt2{}: 0xe-0xf.7 (2)
0x00|                                          01   |              . |                n: 1 0xe-0xe.7 (1)
    |                                               |                |                x[0:1]: 0xf-0xf.7 (1)
0x00|                                             7d|               }|                  [0]: "f32" (0x7d) t 0xf-0xf.7 (1)
    |                                               |                |    [1]{}: section 0x10-0x13.7 (4)
0x10|03                                             |.               |      id: "function section" (3) 0x10-0x10.7 (1)
0x10|   02                                          | .              |      size: 2 0x11-0x11.7 (1)
    |                                               |                |      content{}: 0x12-0x13.7 (2)
    |                                               |                |        x{}: 0x12-0x13.7 (2)
0x10|      01                                       |  .             |          n: 1 0x12-0x12.7 (1)
    |                                               |                |          x[0:1]: 0x13-0x13.7 (1)
0x10|         00                                    |   .            |            [0]: 0 x 0x13-0x13.7 (1)
    |                                               |                |    [2]{}: section 0x14-0x25.7 (18)
0x10|            07                                 |    .           |      id: "export section" (7) 0x14-0x14.7 (1)
0x10|               10                              |     .          |      size: 16 0x15-0x15.7 (1)
    |                                               |                |      content{}: 0x16-0x25.7 (16)
    |                                               |                |        ex{}: 0x16-0x25.7 (16)
0x10|                  01                           |      .         |          n: 1 0x16-0x16.7 (1)
    |                                               |                |          x[0:1]: 0x17-0x25.7 (15)
    |                                               |                |            [0]{}: ex 0x17-0x25.7 (15)
    |                                               |                |              nm{}: 0x17-0x23.7 (13)
0x10|                     0c                        |       .        |                n: 12 0x17-0x17.7 (1)
0x10|                        6c 6c 76 6d 5f 70 72 32|        llvm_pr2|                b: "llvm_pr27153" 0x18-0x23.7 (12)
0x20|37 31 35 33                                    |7153            |
    |                                               |                |              d{}: 0x24-0x25.7 (2)
0x20|            00                                 |    .           |                tag: "funcidx" (0x0) 0x24-0x24.7 (1)
0x20|               00                              |     .          |                x: 0 0x25-0x25.7 (1)
    |                                               |                |    [3]{}: section 0x26-0x3b.7 (22)
0x20|                  0a                           |      .         |      id: "code section" (10) 0x26-0x26.7 (1)
0x20|                     14                        |       .        |      size: 20 0x27-0x27.7 (1)
    |                                               |                |      content{}: 0x28-0x3b.7 (20)
    |                                               |                |        code{}: 0x28-0x3b.7 (20)
0x20|                        01                     |        .       |          n: 1 0x28-0x28.7 (1)
    |                                               |                |          x[0:1]: 0x29-0x3b.7 (19)
    |                                               |                |            [0]{}: code 0x29-0x3b.7 (19)
0x20|                           12                  |         .      |              size: 18 0x29-0x29.7 (1)
    |                                               |                |              code{}: 0x2a-0x3b.7 (18)
    |                                               |                |                t{}: 0x2a-0x2a.7 (1)
0x20|                              00               |          .     |                  n: 0 0x2a-0x2a.7 (1)
    |                                               |                |                  x[0:0]: 0x2b-NA (0)
    |                                               |                |                e[0:7]: 0x2b-0x3b.7 (17)
    |                                               |                |                  [0]{}: in 0x2b-0x2c.7 (2)
0x20|                                 20            |                |                    local.get: 0x20 (valid) 0x2b-0x2b.7 (1)
0x20|                                    00         |            .   |                    x: 0 0x2c-0x2c.7 (1)
    |                                               |                |                  [1]{}: in 0x2d-0x32.7 (6)
0x20|                                       41      |             A  |                    i32.const: 0x41 (valid) 0x2d-0x2d.7 (1)
0x20|                                          ff ff|              ..|                    n: 268435455 0x2e-0x32.7 (5)
0x30|ff ff 00                                       |...             |
    |                                               |                |                  [2]{}: in 0x33-0x33.7 (1)
0x30|         71                                    |   q            |                    i32.and: 0x71 (valid) 0x33-0x33.7 (1)
    |                                               |                |                  [3]{}: in 0x34-0x34.7 (1)
0x30|            b2                                 |    .           |                    f32.convert_i32_s: 0xb2 (valid) 0x34-0x34.7 (1)
    |                                               |                |                  [4]{}: in 0x35-0x39.7 (5)
0x30|               43                              |     C          |                    f32.const: 0x43 (valid) 0x35-0x35.7 (1)
0x30|                  00 00 00 cb                  |      ....      |                    z: -8.388608e+06 0x36-0x39.7 (4)
    |                                               |                |                  [5]{}: in 0x3a-0x3a.7 (1)
0x30|                              92               |          .     |                    f32.add: 0x92 (valid) 0x3a-0x3a.7 (1)
    |                                               |                |                  [6]{}: in 0x3b-0x3b.7 (1)
0x30|                                 0b|           |           .|   |                    end: 0xb (valid) 0x3b-0x3b.7 (1)
