$ fq -d wasm dv float_exprs-82.wasm
    |00 01 02 03 04 05 06 07 08 09 0a 0b 0c 0d 0e 0f|0123456789abcdef|.{}: float_exprs-82.wasm (wasm) 0x0-0xe6.7 (231)
0x00|00 61 73 6d                                    |.asm            |  magic: raw bits (valid) 0x0-0x3.7 (4)
0x00|            01 00 00 00                        |    ....        |  version: 1 0x4-0x7.7 (4)
    |                                               |                |  sections[0:4]: 0x8-0xe6.7 (223)
    |                                               |                |    [0]{}: section 0x8-0x18.7 (17)
0x00|                        01                     |        .       |      id: "type section" (1) 0x8-0x8.7 (1)
0x00|                           0f                  |         .      |      size: 15 0x9-0x9.7 (1)
    |                                               |                |      content{}: 0xa-0x18.7 (15)
    |                                               |                |        ft{}: 0xa-0x18.7 (15)
0x00|                              02               |          .     |          n: 2 0xa-0xa.7 (1)
    |                                               |                |          x[0:2]: 0xb-0x18.7 (14)
    |                                               |                |            [0]{}: ft 0xb-0x11.7 (7)
0x00|                                 60            |           `    |              tag: 0x60 (valid) 0xb-0xb.7 (1)
    |                                               |                |              rt1{}: 0xc-0xf.7 (4)
0x00|                                    03         |            .   |                n: 3 0xc-0xc.7 (1)
    |                                               |                |                x[0:3]: 0xd-0xf.7 (3)
0x00|                                       7d      |             }  |                  [0]: "f32" (0x7d) t 0xd-0xd.7 (1)
0x00|                                          7d   |              } |                  [1]: "f32" (0x7d) t 0xe-0xe.7 (1)
0x00|                                             7d|               }|                  [2]: "f32" (0x7d) t 0xf-0xf.7 (1)
    |                                               |                |              rt2{}: 0x10-0x11.7 (2)
0x10|01                                             |.               |                n: 1 0x10-0x10.7 (1)
    |                                               |                |                x[0:1]: 0x11-0x11.7 (1)
0x10|   7f                                          | .              |                  [0]: "i32" (0x7f) t 0x11-0x11.7 (1)
    |                                               |                |            [1]{}: ft 0x12-0x18.7 (7)
0x10|      60                                       |  `             |              tag: 0x60 (valid) 0x12-0x12.7 (1)
    |                                               |                |              rt1{}: 0x13-0x16.7 (4)
0x10|         03                                    |   .            |                n: 3 0x13-0x13.7 (1)
    |                                               |                |                x[0:3]: 0x14-0x16.7 (3)
0x10|            7c                                 |    |           |                  [0]: "f64" (0x7c) t 0x14-0x14.7 (1)
0x10|               7c                              |     |          |                  [1]: "f64" (0x7c) t 0x15-0x15.7 (1)
0x10|                  7c                           |      |         |                  [2]: "f64" (0x7c) t 0x16-0x16.7 (1)
    |                                               |                |              rt2{}: 0x17-0x18.7 (2)
0x10|                     01                        |       .        |                n: 1 0x17-0x17.7 (1)
    |                                               |                |                x[0:1]: 0x18-0x18.7 (1)
0x10|                        7f                     |        .       |                  [0]: "i32" (0x7f) t 0x18-0x18.7 (1)
    |                                               |                |    [1]{}: section 0x19-0x1f.7 (7)
0x10|                           03                  |         .      |      id: "function section" (3) 0x19-0x19.7 (1)
0x10|                              05               |          .     |      size: 5 0x1a-0x1a.7 (1)
    |                                               |                |      content{}: 0x1b-0x1f.7 (5)
    |                                               |                |        x{}: 0x1b-0x1f.7 (5)
0x10|                                 04            |           .    |          n: 4 0x1b-0x1b.7 (1)
    |                                               |                |          x[0:4]: 0x1c-0x1f.7 (4)
0x10|                                    00         |            .   |            [0]: 0 x 0x1c-0x1c.7 (1)
0x10|                                       00      |             .  |            [1]: 0 x 0x1d-0x1d.7 (1)
0x10|                                          01   |              . |            [2]: 1 x 0x1e-0x1e.7 (1)
0x10|                                             01|               .|            [3]: 1 x 0x1f-0x1f.7 (1)
    |                                               |                |    [2]{}: section 0x20-0xab.7 (140)
0x20|07                                             |.               |      id: "export section" (7) 0x20-0x20.7 (1)
0x20|   89 01                                       | ..             |      size: 137 0x21-0x22.7 (2)
    |                                               |                |      content{}: 0x23-0xab.7 (137)
    |                                               |                |        ex{}: 0x23-0xab.7 (137)
0x20|         04                                    |   .            |          n: 4 0x23-0x23.7 (1)
    |                                               |                |          x[0:4]: 0x24-0xab.7 (136)
    |                                               |                |            [0]{}: ex 0x24-0x45.7 (34)
    |                                               |                |              nm{}: 0x24-0x43.7 (32)
0x20|            1f                                 |    .           |                n: 31 0x24-0x24.7 (1)
0x20|               66 33 32 2e 6e 6f 5f 66 6f 6c 64|     f32.no_fold|                b: "f32.no_fold_add_le_monotonicity" 0x25-0x43.7 (31)
0x30|5f 61 64 64 5f 6c 65 5f 6d 6f 6e 6f 74 6f 6e 69|_add_le_monotoni|
0x40|63 69 74 79                                    |city            |
    |                                               |                |              d{}: 0x44-0x45.7 (2)
0x40|            00                                 |    .           |                tag: "funcidx" (0x0) 0x44-0x44.7 (1)
0x40|               00                              |     .          |                x: 0 0x45-0x45.7 (1)
    |                                               |                |            [1]{}: ex 0x46-0x67.7 (34)
    |                                               |                |              nm{}: 0x46-0x65.7 (32)
0x40|                  1f                           |      .         |                n: 31 0x46-0x46.7 (1)
0x40|                     66 33 32 2e 6e 6f 5f 66 6f|       f32.no_fo|                b: "f32.no_fold_add_ge_monotonicity" 0x47-0x65.7 (31)
0x50|6c 64 5f 61 64 64 5f 67 65 5f 6d 6f 6e 6f 74 6f|ld_add_ge_monoto|
0x60|6e 69 63 69 74 79                              |nicity          |
    |                                               |                |              d{}: 0x66-0x67.7 (2)
0x60|                  00                           |      .         |                tag: "funcidx" (0x0) 0x66-0x66.7 (1)
0x60|                     01                        |       .        |                x: 1 0x67-0x67.7 (1)
    |                                               |                |            [2]{}: ex 0x68-0x89.7 (34)
    |                                               |                |              nm{}: 0x68-0x87.7 (32)
0x60|                        1f                     |        .       |                n: 31 0x68-0x68.7 (1)
0x60|                           66 36 34 2e 6e 6f 5f|         f64.no_|                b: "f64.no_fold_add_le_monotonicity" 0x69-0x87.7 (31)
0x70|66 6f 6c 64 5f 61 64 64 5f 6c 65 5f 6d 6f 6e 6f|fold_add_le_mono|
0x80|74 6f 6e 69 63 69 74 79                        |tonicity        |
    |                                               |                |              d{}: 0x88-0x89.7 (2)
0x80|                        00                     |        .       |                tag: "funcidx" (0x0) 0x88-0x88.7 (1)
0x80|                           02                  |         .      |                x: 2 0x89-0x89.7 (1)
    |                                               |                |            [3]{}: ex 0x8a-0xab.7 (34)
    |                                               |                |              nm{}: 0x8a-0xa9.7 (32)
0x80|                              1f               |          .     |                n: 31 0x8a-0x8a.7 (1)
0x80|                                 66 36 34 2e 6e|           f64.n|                b: "f64.no_fold_add_ge_monotonicity" 0x8b-0xa9.7 (31)
0x90|6f 5f 66 6f 6c 64 5f 61 64 64 5f 67 65 5f 6d 6f|o_fold_add_ge_mo|
0xa0|6e 6f 74 6f 6e 69 63 69 74 79                  |notonicity      |
    |                                               |                |              d{}: 0xaa-0xab.7 (2)
0xa0|                              00               |          .     |                tag: "funcidx" (0x0) 0xaa-0xaa.7 (1)
0xa0|                                 03            |           .    |                x: 3 0xab-0xab.7 (1)
    |                                               |                |    [3]{}: section 0xac-0xe6.7 (59)
0xa0|                                    0a         |            .   |      id: "code section" (10) 0xac-0xac.7 (1)
0xa0|                                       39      |             9  |      size: 57 0xad-0xad.7 (1)
    |                                               |                |      content{}: 0xae-0xe6.7 (57)
    |                                               |                |        code{}: 0xae-0xe6.7 (57)
0xa0|                                          04   |              . |          n: 4 0xae-0xae.7 (1)
    |                                               |                |          x[0:4]: 0xaf-0xe6.7 (56)
    |                                               |                |            [0]{}: code 0xaf-0xbc.7 (14)
0xa0|                                             0d|               .|              size: 13 0xaf-0xaf.7 (1)
    |                                               |                |              code{}: 0xb0-0xbc.7 (13)
    |                                               |                |                t{}: 0xb0-0xb0.7 (1)
0xb0|00                                             |.               |                  n: 0 0xb0-0xb0.7 (1)
    |                                               |                |                  x[0:0]: 0xb1-NA (0)
    |                                               |                |                e[0:8]: 0xb1-0xbc.7 (12)
    |                                               |                |                  [0]{}: in 0xb1-0xb2.7 (2)
0xb0|   20                                          |                |                    local.get: 0x20 (valid) 0xb1-0xb1.7 (1)
0xb0|      00                                       |  .             |                    x: 0 0xb2-0xb2.7 (1)
    |                                               |                |                  [1]{}: in 0xb3-0xb4.7 (2)
0xb0|         20                                    |                |                    local.get: 0x20 (valid) 0xb3-0xb3.7 (1)
0xb0|            02                                 |    .           |                    x: 2 0xb4-0xb4.7 (1)
    |                                               |                |                  [2]{}: in 0xb5-0xb5.7 (1)
0xb0|               92                              |     .          |                    f32.add: 0x92 (valid) 0xb5-0xb5.7 (1)
    |                                               |                |                  [3]{}: in 0xb6-0xb7.7 (2)
0xb0|                  20                           |                |                    local.get: 0x20 (valid) 0xb6-0xb6.7 (1)
0xb0|                     01                        |       .        |                    x: 1 0xb7-0xb7.7 (1)
    |                                               |                |                  [4]{}: in 0xb8-0xb9.7 (2)
0xb0|                        20                     |                |                    local.get: 0x20 (valid) 0xb8-0xb8.7 (1)
0xb0|                           02                  |         .      |                    x: 2 0xb9-0xb9.7 (1)
    |                                               |                |                  [5]{}: in 0xba-0xba.7 (1)
0xb0|                              92               |          .     |                    f32.add: 0x92 (valid) 0xba-0xba.7 (1)
    |                                               |                |                  [6]{}: in 0xbb-0xbb.7 (1)
0xb0|                                 5f            |           _    |                    f32.le: 0x5f (valid) 0xbb-0xbb.7 (1)
    |                                               |                |                  [7]{}: in 0xbc-0xbc.7 (1)
0xb0|                                    0b         |            .   |                    end: 0xb (valid) 0xbc-0xbc.7 (1)
    |                                               |                |            [1]{}: code 0xbd-0xca.7 (14)
0xb0|                                       0d      |             .  |              size: 13 0xbd-0xbd.7 (1)
    |                                               |                |              code{}: 0xbe-0xca.7 (13)
    |                                               |                |                t{}: 0xbe-0xbe.7 (1)
0xb0|                                          00   |              . |                  n: 0 0xbe-0xbe.7 (1)
    |                                               |                |                  x[0:0]: 0xbf-NA (0)
    |                                               |                |                e[0:8]: 0xbf-0xca.7 (12)
    |                                               |                |                  [0]{}: in 0xbf-0xc0.7 (2)
0xb0|                                             20|                |                    local.get: 0x20 (valid) 0xbf-0xbf.7 (1)
0xc0|00                                             |.               |                    x: 0 0xc0-0xc0.7 (1)
    |                                               |                |                  [1]{}: in 0xc1-0xc2.7 (2)
0xc0|   20                                          |                |                    local.get: 0x20 (valid) 0xc1-0xc1.7 (1)
0xc0|      02                                       |  .             |                    x: 2 0xc2-0xc2.7 (1)
    |                                               |                |                  [2]{}: in 0xc3-0xc3.7 (1)
0xc0|         92                                    |   .            |                    f32.add: 0x92 (valid) 0xc3-0xc3.7 (1)
    |                                               |                |                  [3]{}: in 0xc4-0xc5.7 (2)
0xc0|            20                                 |                |                    local.get: 0x20 (valid) 0xc4-0xc4.7 (1)
0xc0|               01                              |     .          |                    x: 1 0xc5-0xc5.7 (1)
    |                                               |                |                  [4]{}: in 0xc6-0xc7.7 (2)
0xc0|                  20                           |                |                    local.get: 0x20 (valid) 0xc6-0xc6.7 (1)
0xc0|                     02                        |       .        |                    x: 2 0xc7-0xc7.7 (1)
    |                                               |                |                  [5]{}: in 0xc8-0xc8.7 (1)
0xc0|                        92                     |        .       |                    f32.add: 0x92 (valid) 0xc8-0xc8.7 (1)
    |                                               |                |                  [6]{}: in 0xc9-0xc9.7 (1)
0xc0|                           60                  |         `      |                    f32.ge: 0x60 (valid) 0xc9-0xc9.7 (1)
    |                                               |                |                  [7]{}: in 0xca-0xca.7 (1)
0xc0|                              0b               |          .     |                    end: 0xb (valid) 0xca-0xca.7 (1)
    |                                               |                |            [2]{}: code 0xcb-0xd8.7 (14)
0xc0|                                 0d            |           .    |              size: 13 0xcb-0xcb.7 (1)
    |                                               |                |              code{}: 0xcc-0xd8.7 (13)
    |                                               |                |                t{}: 0xcc-0xcc.7 (1)
0xc0|                                    00         |            .   |                  n: 0 0xcc-0xcc.7 (1)
    |                                               |                |                  x[0:0]: 0xcd-NA (0)
    |                                               |                |                e[0:8]: 0xcd-0xd8.7 (12)
    |                                               |                |                  [0]{}: in 0xcd-0xce.7 (2)
0xc0|                                       20      |                |                    local.get: 0x20 (valid) 0xcd-0xcd.7 (1)
0xc0|                                          00   |              . |                    x: 0 0xce-0xce.7 (1)
    |                                               |                |                  [1]{}: in 0xcf-0xd0.7 (2)
0xc0|                                             20|                |                    local.get: 0x20 (valid) 0xcf-0xcf.7 (1)
0xd0|02                                             |.               |                    x: 2 0xd0-0xd0.7 (1)
    |                                               |                |                  [2]{}: in 0xd1-0xd1.7 (1)
0xd0|   a0                                          | .              |                    f64.add: 0xa0 (valid) 0xd1-0xd1.7 (1)
    |                                               |                |                  [3]{}: in 0xd2-0xd3.7 (2)
0xd0|      20                                       |                |                    local.get: 0x20 (valid) 0xd2-0xd2.7 (1)
0xd0|         01                                    |   .            |                    x: 1 0xd3-0xd3.7 (1)
    |                                               |                |                  [4]{}: in 0xd4-0xd5.7 (2)
0xd0|            20                                 |                |                    local.get: 0x20 (valid) 0xd4-0xd4.7 (1)
0xd0|               02                              |     .          |                    x: 2 0xd5-0xd5.7 (1)
    |                                               |                |                  [5]{}: in 0xd6-0xd6.7 (1)
0xd0|                  a0                           |      .         |                    f64.add: 0xa0 (valid) 0xd6-0xd6.7 (1)
    |                                               |                |                  [6]{}: in 0xd7-0xd7.7 (1)
0xd0|                     65                        |       e        |                    f64.le: 0x65 (valid) 0xd7-0xd7.7 (1)
    |                                               |                |                  [7]{}: in 0xd8-0xd8.7 (1)
0xd0|                        0b                     |        .       |                    end: 0xb (valid) 0xd8-0xd8.7 (1)
    |                                               |                |            [3]{}: code 0xd9-0xe6.7 (14)
0xd0|                           0d                  |         .      |              size: 13 0xd9-0xd9.7 (1)
    |                                               |                |              code{}: 0xda-0xe6.7 (13)
    |                                               |                |                t{}: 0xda-0xda.7 (1)
0xd0|                              00               |          .     |                  n: 0 0xda-0xda.7 (1)
    |                                               |                |                  x[0:0]: 0xdb-NA (0)
    |                                               |                |                e[0:8]: 0xdb-0xe6.7 (12)
    |                                               |                |                  [0]{}: in 0xdb-0xdc.7 (2)
0xd0|                                 20            |                |                    local.get: 0x20 (valid) 0xdb-0xdb.7 (1)
0xd0|                                    00         |            .   |                    x: 0 0xdc-0xdc.7 (1)
    |                                               |                |                  [1]{}: in 0xdd-0xde.7 (2)
0xd0|                                       20      |                |                    local.get: 0x20 (valid) 0xdd-0xdd.7 (1)
0xd0|                                          02   |              . |                    x: 2 0xde-0xde.7 (1)
    |                                               |                |                  [2]{}: in 0xdf-0xdf.7 (1)
0xd0|                                             a0|               .|                    f64.add: 0xa0 (valid) 0xdf-0xdf.7 (1)
    |                                               |                |                  [3]{}: in 0xe0-0xe1.7 (2)
0xe0|20                                             |                |                    local.get: 0x20 (valid) 0xe0-0xe0.7 (1)
0xe0|   01                                          | .              |                    x: 1 0xe1-0xe1.7 (1)
    |                                               |                |                  [4]{}: in 0xe2-0xe3.7 (2)
0xe0|      20                                       |                |                    local.get: 0x20 (valid) 0xe2-0xe2.7 (1)
0xe0|         02                                    |   .            |                    x: 2 0xe3-0xe3.7 (1)
    |                                               |                |                  [5]{}: in 0xe4-0xe4.7 (1)
0xe0|            a0                                 |    .           |                    f64.add: 0xa0 (valid) 0xe4-0xe4.7 (1)
    |                                               |                |                  [6]{}: in 0xe5-0xe5.7 (1)
0xe0|               66                              |     f          |                    f64.ge: 0x66 (valid) 0xe5-0xe5.7 (1)
    |                                               |                |                  [7]{}: in 0xe6-0xe6.7 (1)
0xe0|                  0b|                          |      .|        |                    end: 0xb (valid) 0xe6-0xe6.7 (1)
