$ fq -d wasm dv float_exprs-56.wasm
    |00 01 02 03 04 05 06 07 08 09 0a 0b 0c 0d 0e 0f|0123456789abcdef|.{}: float_exprs-56.wasm (wasm) 0x0-0x7e (126)
0x00|00 61 73 6d                                    |.asm            |  magic: raw bits (valid) 0x0-0x4 (4)
0x00|            01 00 00 00                        |    ....        |  version: 1 0x4-0x8 (4)
    |                                               |                |  sections[0:4]: 0x8-0x7e (118)
    |                                               |                |    [0]{}: section 0x8-0x15 (13)
0x00|                        01                     |        .       |      id: "type_section" (1) 0x8-0x9 (1)
0x00|                           0b                  |         .      |      size: 11 (valid) 0x9-0xa (1)
    |                                               |                |      content{}: 0xa-0x15 (11)
    |                                               |                |        ft{}: 0xa-0x15 (11)
0x00|                              02               |          .     |          n: 2 (valid) 0xa-0xb (1)
    |                                               |                |          x[0:2]: 0xb-0x15 (10)
    |                                               |                |            [0]{}: ft 0xb-0x10 (5)
0x00|                                 60            |           `    |              tag: 0x60 (valid) 0xb-0xc (1)
    |                                               |                |              rt1{}: 0xc-0xe (2)
0x00|                                    01         |            .   |                n: 1 (valid) 0xc-0xd (1)
    |                                               |                |                x[0:1]: 0xd-0xe (1)
0x00|                                       7d      |             }  |                  [0]: "f32" (0x7d) t 0xd-0xe (1)
    |                                               |                |              rt2{}: 0xe-0x10 (2)
0x00|                                          01   |              . |                n: 1 (valid) 0xe-0xf (1)
    |                                               |                |                x[0:1]: 0xf-0x10 (1)
0x00|                                             7d|               }|                  [0]: "f32" (0x7d) t 0xf-0x10 (1)
    |                                               |                |            [1]{}: ft 0x10-0x15 (5)
0x10|60                                             |`               |              tag: 0x60 (valid) 0x10-0x11 (1)
    |                                               |                |              rt1{}: 0x11-0x13 (2)
0x10|   01                                          | .              |                n: 1 (valid) 0x11-0x12 (1)
    |                                               |                |                x[0:1]: 0x12-0x13 (1)
0x10|      7c                                       |  |             |                  [0]: "f64" (0x7c) t 0x12-0x13 (1)
    |                                               |                |              rt2{}: 0x13-0x15 (2)
0x10|         01                                    |   .            |                n: 1 (valid) 0x13-0x14 (1)
    |                                               |                |                x[0:1]: 0x14-0x15 (1)
0x10|            7c                                 |    |           |                  [0]: "f64" (0x7c) t 0x14-0x15 (1)
    |                                               |                |    [1]{}: section 0x15-0x1a (5)
0x10|               03                              |     .          |      id: "function_section" (3) 0x15-0x16 (1)
0x10|                  03                           |      .         |      size: 3 (valid) 0x16-0x17 (1)
    |                                               |                |      content{}: 0x17-0x1a (3)
    |                                               |                |        x{}: 0x17-0x1a (3)
0x10|                     02                        |       .        |          n: 2 (valid) 0x17-0x18 (1)
    |                                               |                |          x[0:2]: 0x18-0x1a (2)
0x10|                        00                     |        .       |            [0]: 0 x (valid) 0x18-0x19 (1)
0x10|                           01                  |         .      |            [1]: 1 x (valid) 0x19-0x1a (1)
    |                                               |                |    [2]{}: section 0x1a-0x51 (55)
0x10|                              07               |          .     |      id: "export_section" (7) 0x1a-0x1b (1)
0x10|                                 35            |           5    |      size: 53 (valid) 0x1b-0x1c (1)
    |                                               |                |      content{}: 0x1c-0x51 (53)
    |                                               |                |        ex{}: 0x1c-0x51 (53)
0x10|                                    02         |            .   |          n: 2 (valid) 0x1c-0x1d (1)
    |                                               |                |          x[0:2]: 0x1d-0x51 (52)
    |                                               |                |            [0]{}: ex 0x1d-0x37 (26)
    |                                               |                |              nm{}: 0x1d-0x35 (24)
0x10|                                       17      |             .  |                n: 23 (valid) 0x1d-0x1e (1)
0x10|                                          66 33|              f3|                b: "f32.no_fold_recip_recip" 0x1e-0x35 (23)
0x20|32 2e 6e 6f 5f 66 6f 6c 64 5f 72 65 63 69 70 5f|2.no_fold_recip_|
0x30|72 65 63 69 70                                 |recip           |
    |                                               |                |              d{}: 0x35-0x37 (2)
0x30|               00                              |     .          |                tag: "funcidx" (0x0) 0x35-0x36 (1)
0x30|                  00                           |      .         |                x: 0 (valid) 0x36-0x37 (1)
    |                                               |                |            [1]{}: ex 0x37-0x51 (26)
    |                                               |                |              nm{}: 0x37-0x4f (24)
0x30|                     17                        |       .        |                n: 23 (valid) 0x37-0x38 (1)
0x30|                        66 36 34 2e 6e 6f 5f 66|        f64.no_f|                b: "f64.no_fold_recip_recip" 0x38-0x4f (23)
0x40|6f 6c 64 5f 72 65 63 69 70 5f 72 65 63 69 70   |old_recip_recip |
    |                                               |                |              d{}: 0x4f-0x51 (2)
0x40|                                             00|               .|                tag: "funcidx" (0x0) 0x4f-0x50 (1)
0x50|01                                             |.               |                x: 1 (valid) 0x50-0x51 (1)
    |                                               |                |    [3]{}: section 0x51-0x7e (45)
0x50|   0a                                          | .              |      id: "code_section" (10) 0x51-0x52 (1)
0x50|      2b                                       |  +             |      size: 43 (valid) 0x52-0x53 (1)
    |                                               |                |      content{}: 0x53-0x7e (43)
    |                                               |                |        code{}: 0x53-0x7e (43)
0x50|         02                                    |   .            |          n: 2 (valid) 0x53-0x54 (1)
    |                                               |                |          x[0:2]: 0x54-0x7e (42)
    |                                               |                |            [0]{}: code 0x54-0x65 (17)
0x50|            10                                 |    .           |              size: 16 (valid) 0x54-0x55 (1)
    |                                               |                |              code{}: 0x55-0x65 (16)
    |                                               |                |                t{}: 0x55-0x56 (1)
0x50|               00                              |     .          |                  n: 0 (valid) 0x55-0x56 (1)
    |                                               |                |                  x[0:0]: 0x56-0x56 (0)
    |                                               |                |                e[0:6]: 0x56-0x65 (15)
    |                                               |                |                  [0]{}: in 0x56-0x5b (5)
0x50|                  43                           |      C         |                    opcode: "f32.const" (0x43) 0x56-0x57 (1)
0x50|                     00 00 80 3f               |       ...?     |                    z: 1 0x57-0x5b (4)
    |                                               |                |                  [1]{}: in 0x5b-0x60 (5)
0x50|                                 43            |           C    |                    opcode: "f32.const" (0x43) 0x5b-0x5c (1)
0x50|                                    00 00 80 3f|            ...?|                    z: 1 0x5c-0x60 (4)
    |                                               |                |                  [2]{}: in 0x60-0x62 (2)
0x60|20                                             |                |                    opcode: "local.get" (0x20) 0x60-0x61 (1)
0x60|   00                                          | .              |                    x: 0 (valid) 0x61-0x62 (1)
    |                                               |                |                  [3]{}: in 0x62-0x63 (1)
0x60|      95                                       |  .             |                    opcode: "f32.div" (0x95) 0x62-0x63 (1)
    |                                               |                |                  [4]{}: in 0x63-0x64 (1)
0x60|         95                                    |   .            |                    opcode: "f32.div" (0x95) 0x63-0x64 (1)
    |                                               |                |                  [5]{}: in 0x64-0x65 (1)
0x60|            0b                                 |    .           |                    opcode: "end" (0xb) 0x64-0x65 (1)
    |                                               |                |            [1]{}: code 0x65-0x7e (25)
0x60|               18                              |     .          |              size: 24 (valid) 0x65-0x66 (1)
    |                                               |                |              code{}: 0x66-0x7e (24)
    |                                               |                |                t{}: 0x66-0x67 (1)
0x60|                  00                           |      .         |                  n: 0 (valid) 0x66-0x67 (1)
    |                                               |                |                  x[0:0]: 0x67-0x67 (0)
    |                                               |                |                e[0:6]: 0x67-0x7e (23)
    |                                               |                |                  [0]{}: in 0x67-0x70 (9)
0x60|                     44                        |       D        |                    opcode: "f64.const" (0x44) 0x67-0x68 (1)
0x60|                        00 00 00 00 00 00 f0 3f|        .......?|                    z: 1 0x68-0x70 (8)
    |                                               |                |                  [1]{}: in 0x70-0x79 (9)
0x70|44                                             |D               |                    opcode: "f64.const" (0x44) 0x70-0x71 (1)
0x70|   00 00 00 00 00 00 f0 3f                     | .......?       |                    z: 1 0x71-0x79 (8)
    |                                               |                |                  [2]{}: in 0x79-0x7b (2)
0x70|                           20                  |                |                    opcode: "local.get" (0x20) 0x79-0x7a (1)
0x70|                              00               |          .     |                    x: 0 (valid) 0x7a-0x7b (1)
    |                                               |                |                  [3]{}: in 0x7b-0x7c (1)
0x70|                                 a3            |           .    |                    opcode: "f64.div" (0xa3) 0x7b-0x7c (1)
    |                                               |                |                  [4]{}: in 0x7c-0x7d (1)
0x70|                                    a3         |            .   |                    opcode: "f64.div" (0xa3) 0x7c-0x7d (1)
    |                                               |                |                  [5]{}: in 0x7d-0x7e (1)
0x70|                                       0b|     |             .| |                    opcode: "end" (0xb) 0x7d-0x7e (1)
