$ fq -d wasm dv float_exprs-80.wasm
    |00 01 02 03 04 05 06 07 08 09 0a 0b 0c 0d 0e 0f|0123456789abcdef|.{}: float_exprs-80.wasm (wasm) 0x0-0xe7 (231)
0x00|00 61 73 6d                                    |.asm            |  magic: raw bits (valid) 0x0-0x4 (4)
0x00|            01 00 00 00                        |    ....        |  version: 1 0x4-0x8 (4)
    |                                               |                |  sections[0:4]: 0x8-0xe7 (223)
    |                                               |                |    [0]{}: section 0x8-0x17 (15)
0x00|                        01                     |        .       |      id: "type_section" (1) 0x8-0x9 (1)
0x00|                           0d                  |         .      |      size: 13 (valid) 0x9-0xa (1)
    |                                               |                |      content{}: 0xa-0x17 (13)
    |                                               |                |        ft{}: 0xa-0x17 (13)
0x00|                              02               |          .     |          n: 2 (valid) 0xa-0xb (1)
    |                                               |                |          x[0:2]: 0xb-0x17 (12)
    |                                               |                |            [0]{}: ft 0xb-0x11 (6)
0x00|                                 60            |           `    |              tag: 0x60 (valid) 0xb-0xc (1)
    |                                               |                |              rt1{}: 0xc-0xf (3)
0x00|                                    02         |            .   |                n: 2 (valid) 0xc-0xd (1)
    |                                               |                |                x[0:2]: 0xd-0xf (2)
0x00|                                       7d      |             }  |                  [0]: "f32" (0x7d) t 0xd-0xe (1)
0x00|                                          7d   |              } |                  [1]: "f32" (0x7d) t 0xe-0xf (1)
    |                                               |                |              rt2{}: 0xf-0x11 (2)
0x00|                                             01|               .|                n: 1 (valid) 0xf-0x10 (1)
    |                                               |                |                x[0:1]: 0x10-0x11 (1)
0x10|7d                                             |}               |                  [0]: "f32" (0x7d) t 0x10-0x11 (1)
    |                                               |                |            [1]{}: ft 0x11-0x17 (6)
0x10|   60                                          | `              |              tag: 0x60 (valid) 0x11-0x12 (1)
    |                                               |                |              rt1{}: 0x12-0x15 (3)
0x10|      02                                       |  .             |                n: 2 (valid) 0x12-0x13 (1)
    |                                               |                |                x[0:2]: 0x13-0x15 (2)
0x10|         7c                                    |   |            |                  [0]: "f64" (0x7c) t 0x13-0x14 (1)
0x10|            7c                                 |    |           |                  [1]: "f64" (0x7c) t 0x14-0x15 (1)
    |                                               |                |              rt2{}: 0x15-0x17 (2)
0x10|               01                              |     .          |                n: 1 (valid) 0x15-0x16 (1)
    |                                               |                |                x[0:1]: 0x16-0x17 (1)
0x10|                  7c                           |      |         |                  [0]: "f64" (0x7c) t 0x16-0x17 (1)
    |                                               |                |    [1]{}: section 0x17-0x1c (5)
0x10|                     03                        |       .        |      id: "function_section" (3) 0x17-0x18 (1)
0x10|                        03                     |        .       |      size: 3 (valid) 0x18-0x19 (1)
    |                                               |                |      content{}: 0x19-0x1c (3)
    |                                               |                |        x{}: 0x19-0x1c (3)
0x10|                           02                  |         .      |          n: 2 (valid) 0x19-0x1a (1)
    |                                               |                |          x[0:2]: 0x1a-0x1c (2)
0x10|                              00               |          .     |            [0]: 0 x (valid) 0x1a-0x1b (1)
0x10|                                 01            |           .    |            [1]: 1 x (valid) 0x1b-0x1c (1)
    |                                               |                |    [2]{}: section 0x1c-0x47 (43)
0x10|                                    07         |            .   |      id: "export_section" (7) 0x1c-0x1d (1)
0x10|                                       29      |             )  |      size: 41 (valid) 0x1d-0x1e (1)
    |                                               |                |      content{}: 0x1e-0x47 (41)
    |                                               |                |        ex{}: 0x1e-0x47 (41)
0x10|                                          02   |              . |          n: 2 (valid) 0x1e-0x1f (1)
    |                                               |                |          x[0:2]: 0x1f-0x47 (40)
    |                                               |                |            [0]{}: ex 0x1f-0x33 (20)
    |                                               |                |              nm{}: 0x1f-0x31 (18)
0x10|                                             11|               .|                n: 17 (valid) 0x1f-0x20 (1)
0x20|66 33 32 2e 63 6f 6d 70 75 74 65 5f 72 61 64 69|f32.compute_radi|                b: "f32.compute_radix" 0x20-0x31 (17)
0x30|78                                             |x               |
    |                                               |                |              d{}: 0x31-0x33 (2)
0x30|   00                                          | .              |                tag: "funcidx" (0x0) 0x31-0x32 (1)
0x30|      00                                       |  .             |                x: 0 (valid) 0x32-0x33 (1)
    |                                               |                |            [1]{}: ex 0x33-0x47 (20)
    |                                               |                |              nm{}: 0x33-0x45 (18)
0x30|         11                                    |   .            |                n: 17 (valid) 0x33-0x34 (1)
0x30|            66 36 34 2e 63 6f 6d 70 75 74 65 5f|    f64.compute_|                b: "f64.compute_radix" 0x34-0x45 (17)
0x40|72 61 64 69 78                                 |radix           |
    |                                               |                |              d{}: 0x45-0x47 (2)
0x40|               00                              |     .          |                tag: "funcidx" (0x0) 0x45-0x46 (1)
0x40|                  01                           |      .         |                x: 1 (valid) 0x46-0x47 (1)
    |                                               |                |    [3]{}: section 0x47-0xe7 (160)
0x40|                     0a                        |       .        |      id: "code_section" (10) 0x47-0x48 (1)
0x40|                        9d 01                  |        ..      |      size: 157 (valid) 0x48-0x4a (2)
    |                                               |                |      content{}: 0x4a-0xe7 (157)
    |                                               |                |        code{}: 0x4a-0xe7 (157)
0x40|                              02               |          .     |          n: 2 (valid) 0x4a-0x4b (1)
    |                                               |                |          x[0:2]: 0x4b-0xe7 (156)
    |                                               |                |            [0]{}: code 0x4b-0x8f (68)
0x40|                                 43            |           C    |              size: 67 (valid) 0x4b-0x4c (1)
    |                                               |                |              code{}: 0x4c-0x8f (67)
    |                                               |                |                t{}: 0x4c-0x4d (1)
0x40|                                    00         |            .   |                  n: 0 (valid) 0x4c-0x4d (1)
    |                                               |                |                  x[0:0]: 0x4d-0x4d (0)
    |                                               |                |                e[0:4]: 0x4d-0x8f (66)
    |                                               |                |                  [0]{}: in 0x4d-0x6e (33)
0x40|                                       03      |             .  |                    opcode: "loop" (0x3) 0x4d-0x4e (1)
0x40|                                          40   |              @ |                    bt: "ε" (64) 0x4e-0x4f (1)
    |                                               |                |                    instructions[0:13]: 0x4f-0x6d (30)
    |                                               |                |                      [0]{}: instr 0x4f-0x51 (2)
0x40|                                             20|                |                        opcode: "local.get" (0x20) 0x4f-0x50 (1)
0x50|00                                             |.               |                        x: 0 (valid) 0x50-0x51 (1)
    |                                               |                |                      [1]{}: instr 0x51-0x53 (2)
0x50|   20                                          |                |                        opcode: "local.get" (0x20) 0x51-0x52 (1)
0x50|      00                                       |  .             |                        x: 0 (valid) 0x52-0x53 (1)
    |                                               |                |                      [2]{}: instr 0x53-0x54 (1)
0x50|         92                                    |   .            |                        opcode: "f32.add" (0x92) 0x53-0x54 (1)
    |                                               |                |                      [3]{}: instr 0x54-0x56 (2)
0x50|            22                                 |    "           |                        opcode: "local.tee" (0x22) 0x54-0x55 (1)
0x50|               00                              |     .          |                        x: 0 (valid) 0x55-0x56 (1)
    |                                               |                |                      [4]{}: instr 0x56-0x5b (5)
0x50|                  43                           |      C         |                        opcode: "f32.const" (0x43) 0x56-0x57 (1)
0x50|                     00 00 80 3f               |       ...?     |                        z: 1 0x57-0x5b (4)
    |                                               |                |                      [5]{}: instr 0x5b-0x5c (1)
0x50|                                 92            |           .    |                        opcode: "f32.add" (0x92) 0x5b-0x5c (1)
    |                                               |                |                      [6]{}: instr 0x5c-0x5e (2)
0x50|                                    20         |                |                        opcode: "local.get" (0x20) 0x5c-0x5d (1)
0x50|                                       00      |             .  |                        x: 0 (valid) 0x5d-0x5e (1)
    |                                               |                |                      [7]{}: instr 0x5e-0x5f (1)
0x50|                                          93   |              . |                        opcode: "f32.sub" (0x93) 0x5e-0x5f (1)
    |                                               |                |                      [8]{}: instr 0x5f-0x64 (5)
0x50|                                             43|               C|                        opcode: "f32.const" (0x43) 0x5f-0x60 (1)
0x60|00 00 80 bf                                    |....            |                        z: -1 0x60-0x64 (4)
    |                                               |                |                      [9]{}: instr 0x64-0x65 (1)
0x60|            92                                 |    .           |                        opcode: "f32.add" (0x92) 0x64-0x65 (1)
    |                                               |                |                      [10]{}: instr 0x65-0x6a (5)
0x60|               43                              |     C          |                        opcode: "f32.const" (0x43) 0x65-0x66 (1)
0x60|                  00 00 00 00                  |      ....      |                        z: 0 0x66-0x6a (4)
    |                                               |                |                      [11]{}: instr 0x6a-0x6b (1)
0x60|                              5b               |          [     |                        opcode: "f32.eq" (0x5b) 0x6a-0x6b (1)
    |                                               |                |                      [12]{}: instr 0x6b-0x6d (2)
0x60|                                 0d            |           .    |                        opcode: "br_if" (0xd) 0x6b-0x6c (1)
0x60|                                    00         |            .   |                        l: 0 (valid) 0x6c-0x6d (1)
0x60|                                       0b      |             .  |                    end: 0xb (valid) 0x6d-0x6e (1)
    |                                               |                |                  [1]{}: in 0x6e-0x8c (30)
0x60|                                          03   |              . |                    opcode: "loop" (0x3) 0x6e-0x6f (1)
0x60|                                             40|               @|                    bt: "ε" (64) 0x6f-0x70 (1)
    |                                               |                |                    instructions[0:13]: 0x70-0x8b (27)
    |                                               |                |                      [0]{}: instr 0x70-0x72 (2)
0x70|20                                             |                |                        opcode: "local.get" (0x20) 0x70-0x71 (1)
0x70|   00                                          | .              |                        x: 0 (valid) 0x71-0x72 (1)
    |                                               |                |                      [1]{}: instr 0x72-0x74 (2)
0x70|      20                                       |                |                        opcode: "local.get" (0x20) 0x72-0x73 (1)
0x70|         01                                    |   .            |                        x: 1 (valid) 0x73-0x74 (1)
    |                                               |                |                      [2]{}: instr 0x74-0x79 (5)
0x70|            43                                 |    C           |                        opcode: "f32.const" (0x43) 0x74-0x75 (1)
0x70|               00 00 80 3f                     |     ...?       |                        z: 1 0x75-0x79 (4)
    |                                               |                |                      [3]{}: instr 0x79-0x7a (1)
0x70|                           92                  |         .      |                        opcode: "f32.add" (0x92) 0x79-0x7a (1)
    |                                               |                |                      [4]{}: instr 0x7a-0x7c (2)
0x70|                              22               |          "     |                        opcode: "local.tee" (0x22) 0x7a-0x7b (1)
0x70|                                 01            |           .    |                        x: 1 (valid) 0x7b-0x7c (1)
    |                                               |                |                      [5]{}: instr 0x7c-0x7d (1)
0x70|                                    92         |            .   |                        opcode: "f32.add" (0x92) 0x7c-0x7d (1)
    |                                               |                |                      [6]{}: instr 0x7d-0x7f (2)
0x70|                                       20      |                |                        opcode: "local.get" (0x20) 0x7d-0x7e (1)
0x70|                                          00   |              . |                        x: 0 (valid) 0x7e-0x7f (1)
    |                                               |                |                      [7]{}: instr 0x7f-0x80 (1)
0x70|                                             93|               .|                        opcode: "f32.sub" (0x93) 0x7f-0x80 (1)
    |                                               |                |                      [8]{}: instr 0x80-0x82 (2)
0x80|20                                             |                |                        opcode: "local.get" (0x20) 0x80-0x81 (1)
0x80|   01                                          | .              |                        x: 1 (valid) 0x81-0x82 (1)
    |                                               |                |                      [9]{}: instr 0x82-0x83 (1)
0x80|      93                                       |  .             |                        opcode: "f32.sub" (0x93) 0x82-0x83 (1)
    |                                               |                |                      [10]{}: instr 0x83-0x88 (5)
0x80|         43                                    |   C            |                        opcode: "f32.const" (0x43) 0x83-0x84 (1)
0x80|            00 00 00 00                        |    ....        |                        z: 0 0x84-0x88 (4)
    |                                               |                |                      [11]{}: instr 0x88-0x89 (1)
0x80|                        5c                     |        \       |                        opcode: "f32.ne" (0x5c) 0x88-0x89 (1)
    |                                               |                |                      [12]{}: instr 0x89-0x8b (2)
0x80|                           0d                  |         .      |                        opcode: "br_if" (0xd) 0x89-0x8a (1)
0x80|                              00               |          .     |                        l: 0 (valid) 0x8a-0x8b (1)
0x80|                                 0b            |           .    |                    end: 0xb (valid) 0x8b-0x8c (1)
    |                                               |                |                  [2]{}: in 0x8c-0x8e (2)
0x80|                                    20         |                |                    opcode: "local.get" (0x20) 0x8c-0x8d (1)
0x80|                                       01      |             .  |                    x: 1 (valid) 0x8d-0x8e (1)
    |                                               |                |                  [3]{}: in 0x8e-0x8f (1)
0x80|                                          0b   |              . |                    opcode: "end" (0xb) 0x8e-0x8f (1)
    |                                               |                |            [1]{}: code 0x8f-0xe7 (88)
0x80|                                             57|               W|              size: 87 (valid) 0x8f-0x90 (1)
    |                                               |                |              code{}: 0x90-0xe7 (87)
    |                                               |                |                t{}: 0x90-0x91 (1)
0x90|00                                             |.               |                  n: 0 (valid) 0x90-0x91 (1)
    |                                               |                |                  x[0:0]: 0x91-0x91 (0)
    |                                               |                |                e[0:4]: 0x91-0xe7 (86)
    |                                               |                |                  [0]{}: in 0x91-0xbe (45)
0x90|   03                                          | .              |                    opcode: "loop" (0x3) 0x91-0x92 (1)
0x90|      40                                       |  @             |                    bt: "ε" (64) 0x92-0x93 (1)
    |                                               |                |                    instructions[0:13]: 0x93-0xbd (42)
    |                                               |                |                      [0]{}: instr 0x93-0x95 (2)
0x90|         20                                    |                |                        opcode: "local.get" (0x20) 0x93-0x94 (1)
0x90|            00                                 |    .           |                        x: 0 (valid) 0x94-0x95 (1)
    |                                               |                |                      [1]{}: instr 0x95-0x97 (2)
0x90|               20                              |                |                        opcode: "local.get" (0x20) 0x95-0x96 (1)
0x90|                  00                           |      .         |                        x: 0 (valid) 0x96-0x97 (1)
    |                                               |                |                      [2]{}: instr 0x97-0x98 (1)
0x90|                     a0                        |       .        |                        opcode: "f64.add" (0xa0) 0x97-0x98 (1)
    |                                               |                |                      [3]{}: instr 0x98-0x9a (2)
0x90|                        22                     |        "       |                        opcode: "local.tee" (0x22) 0x98-0x99 (1)
0x90|                           00                  |         .      |                        x: 0 (valid) 0x99-0x9a (1)
    |                                               |                |                      [4]{}: instr 0x9a-0xa3 (9)
0x90|                              44               |          D     |                        opcode: "f64.const" (0x44) 0x9a-0x9b (1)
0x90|                                 00 00 00 00 00|           .....|                        z: 1 0x9b-0xa3 (8)
0xa0|00 f0 3f                                       |..?             |
    |                                               |                |                      [5]{}: instr 0xa3-0xa4 (1)
0xa0|         a0                                    |   .            |                        opcode: "f64.add" (0xa0) 0xa3-0xa4 (1)
    |                                               |                |                      [6]{}: instr 0xa4-0xa6 (2)
0xa0|            20                                 |                |                        opcode: "local.get" (0x20) 0xa4-0xa5 (1)
0xa0|               00                              |     .          |                        x: 0 (valid) 0xa5-0xa6 (1)
    |                                               |                |                      [7]{}: instr 0xa6-0xa7 (1)
0xa0|                  a1                           |      .         |                        opcode: "f64.sub" (0xa1) 0xa6-0xa7 (1)
    |                                               |                |                      [8]{}: instr 0xa7-0xb0 (9)
0xa0|                     44                        |       D        |                        opcode: "f64.const" (0x44) 0xa7-0xa8 (1)
0xa0|                        00 00 00 00 00 00 f0 bf|        ........|                        z: -1 0xa8-0xb0 (8)
    |                                               |                |                      [9]{}: instr 0xb0-0xb1 (1)
0xb0|a0                                             |.               |                        opcode: "f64.add" (0xa0) 0xb0-0xb1 (1)
    |                                               |                |                      [10]{}: instr 0xb1-0xba (9)
0xb0|   44                                          | D              |                        opcode: "f64.const" (0x44) 0xb1-0xb2 (1)
0xb0|      00 00 00 00 00 00 00 00                  |  ........      |                        z: 0 0xb2-0xba (8)
    |                                               |                |                      [11]{}: instr 0xba-0xbb (1)
0xb0|                              61               |          a     |                        opcode: "f64.eq" (0x61) 0xba-0xbb (1)
    |                                               |                |                      [12]{}: instr 0xbb-0xbd (2)
0xb0|                                 0d            |           .    |                        opcode: "br_if" (0xd) 0xbb-0xbc (1)
0xb0|                                    00         |            .   |                        l: 0 (valid) 0xbc-0xbd (1)
0xb0|                                       0b      |             .  |                    end: 0xb (valid) 0xbd-0xbe (1)
    |                                               |                |                  [1]{}: in 0xbe-0xe4 (38)
0xb0|                                          03   |              . |                    opcode: "loop" (0x3) 0xbe-0xbf (1)
0xb0|                                             40|               @|                    bt: "ε" (64) 0xbf-0xc0 (1)
    |                                               |                |                    instructions[0:13]: 0xc0-0xe3 (35)
    |                                               |                |                      [0]{}: instr 0xc0-0xc2 (2)
0xc0|20                                             |                |                        opcode: "local.get" (0x20) 0xc0-0xc1 (1)
0xc0|   00                                          | .              |                        x: 0 (valid) 0xc1-0xc2 (1)
    |                                               |                |                      [1]{}: instr 0xc2-0xc4 (2)
0xc0|      20                                       |                |                        opcode: "local.get" (0x20) 0xc2-0xc3 (1)
0xc0|         01                                    |   .            |                        x: 1 (valid) 0xc3-0xc4 (1)
    |                                               |                |                      [2]{}: instr 0xc4-0xcd (9)
0xc0|            44                                 |    D           |                        opcode: "f64.const" (0x44) 0xc4-0xc5 (1)
0xc0|               00 00 00 00 00 00 f0 3f         |     .......?   |                        z: 1 0xc5-0xcd (8)
    |                                               |                |                      [3]{}: instr 0xcd-0xce (1)
0xc0|                                       a0      |             .  |                        opcode: "f64.add" (0xa0) 0xcd-0xce (1)
    |                                               |                |                      [4]{}: instr 0xce-0xd0 (2)
0xc0|                                          22   |              " |                        opcode: "local.tee" (0x22) 0xce-0xcf (1)
0xc0|                                             01|               .|                        x: 1 (valid) 0xcf-0xd0 (1)
    |                                               |                |                      [5]{}: instr 0xd0-0xd1 (1)
0xd0|a0                                             |.               |                        opcode: "f64.add" (0xa0) 0xd0-0xd1 (1)
    |                                               |                |                      [6]{}: instr 0xd1-0xd3 (2)
0xd0|   20                                          |                |                        opcode: "local.get" (0x20) 0xd1-0xd2 (1)
0xd0|      00                                       |  .             |                        x: 0 (valid) 0xd2-0xd3 (1)
    |                                               |                |                      [7]{}: instr 0xd3-0xd4 (1)
0xd0|         a1                                    |   .            |                        opcode: "f64.sub" (0xa1) 0xd3-0xd4 (1)
    |                                               |                |                      [8]{}: instr 0xd4-0xd6 (2)
0xd0|            20                                 |                |                        opcode: "local.get" (0x20) 0xd4-0xd5 (1)
0xd0|               01                              |     .          |                        x: 1 (valid) 0xd5-0xd6 (1)
    |                                               |                |                      [9]{}: instr 0xd6-0xd7 (1)
0xd0|                  a1                           |      .         |                        opcode: "f64.sub" (0xa1) 0xd6-0xd7 (1)
    |                                               |                |                      [10]{}: instr 0xd7-0xe0 (9)
0xd0|                     44                        |       D        |                        opcode: "f64.const" (0x44) 0xd7-0xd8 (1)
0xd0|                        00 00 00 00 00 00 00 00|        ........|                        z: 0 0xd8-0xe0 (8)
    |                                               |                |                      [11]{}: instr 0xe0-0xe1 (1)
0xe0|62                                             |b               |                        opcode: "f64.ne" (0x62) 0xe0-0xe1 (1)
    |                                               |                |                      [12]{}: instr 0xe1-0xe3 (2)
0xe0|   0d                                          | .              |                        opcode: "br_if" (0xd) 0xe1-0xe2 (1)
0xe0|      00                                       |  .             |                        l: 0 (valid) 0xe2-0xe3 (1)
0xe0|         0b                                    |   .            |                    end: 0xb (valid) 0xe3-0xe4 (1)
    |                                               |                |                  [2]{}: in 0xe4-0xe6 (2)
0xe0|            20                                 |                |                    opcode: "local.get" (0x20) 0xe4-0xe5 (1)
0xe0|               01                              |     .          |                    x: 1 (valid) 0xe5-0xe6 (1)
    |                                               |                |                  [3]{}: in 0xe6-0xe7 (1)
0xe0|                  0b|                          |      .|        |                    opcode: "end" (0xb) 0xe6-0xe7 (1)
