$ fq -d wasm dv float_exprs-30.wasm
    |00 01 02 03 04 05 06 07 08 09 0a 0b 0c 0d 0e 0f|0123456789abcdef|.{}: float_exprs-30.wasm (wasm) 0x0-0x63.7 (100)
0x00|00 61 73 6d                                    |.asm            |  magic: raw bits (valid) 0x0-0x3.7 (4)
0x00|            01 00 00 00                        |    ....        |  version: 1 0x4-0x7.7 (4)
    |                                               |                |  sections[0:4]: 0x8-0x63.7 (92)
    |                                               |                |    [0]{}: section 0x8-0x16.7 (15)
0x00|                        01                     |        .       |      id: "type section" (1) 0x8-0x8.7 (1)
0x00|                           0d                  |         .      |      size: 13 0x9-0x9.7 (1)
    |                                               |                |      content{}: 0xa-0x16.7 (13)
    |                                               |                |        ft{}: 0xa-0x16.7 (13)
0x00|                              02               |          .     |          n: 2 0xa-0xa.7 (1)
    |                                               |                |          x[0:2]: 0xb-0x16.7 (12)
    |                                               |                |            [0]{}: ft 0xb-0x10.7 (6)
0x00|                                 60            |           `    |              tag: 0x60 (valid) 0xb-0xb.7 (1)
    |                                               |                |              rt1{}: 0xc-0xe.7 (3)
0x00|                                    02         |            .   |                n: 2 0xc-0xc.7 (1)
    |                                               |                |                x[0:2]: 0xd-0xe.7 (2)
0x00|                                       7d      |             }  |                  [0]: "f32" (0x7d) t 0xd-0xd.7 (1)
0x00|                                          7d   |              } |                  [1]: "f32" (0x7d) t 0xe-0xe.7 (1)
    |                                               |                |              rt2{}: 0xf-0x10.7 (2)
0x00|                                             01|               .|                n: 1 0xf-0xf.7 (1)
    |                                               |                |                x[0:1]: 0x10-0x10.7 (1)
0x10|7d                                             |}               |                  [0]: "f32" (0x7d) t 0x10-0x10.7 (1)
    |                                               |                |            [1]{}: ft 0x11-0x16.7 (6)
0x10|   60                                          | `              |              tag: 0x60 (valid) 0x11-0x11.7 (1)
    |                                               |                |              rt1{}: 0x12-0x14.7 (3)
0x10|      02                                       |  .             |                n: 2 0x12-0x12.7 (1)
    |                                               |                |                x[0:2]: 0x13-0x14.7 (2)
0x10|         7c                                    |   |            |                  [0]: "f64" (0x7c) t 0x13-0x13.7 (1)
0x10|            7c                                 |    |           |                  [1]: "f64" (0x7c) t 0x14-0x14.7 (1)
    |                                               |                |              rt2{}: 0x15-0x16.7 (2)
0x10|               01                              |     .          |                n: 1 0x15-0x15.7 (1)
    |                                               |                |                x[0:1]: 0x16-0x16.7 (1)
0x10|                  7c                           |      |         |                  [0]: "f64" (0x7c) t 0x16-0x16.7 (1)
    |                                               |                |    [1]{}: section 0x17-0x1b.7 (5)
0x10|                     03                        |       .        |      id: "function section" (3) 0x17-0x17.7 (1)
0x10|                        03                     |        .       |      size: 3 0x18-0x18.7 (1)
    |                                               |                |      content{}: 0x19-0x1b.7 (3)
    |                                               |                |        x{}: 0x19-0x1b.7 (3)
0x10|                           02                  |         .      |          n: 2 0x19-0x19.7 (1)
    |                                               |                |          x[0:2]: 0x1a-0x1b.7 (2)
0x10|                              00               |          .     |            [0]: 0 x 0x1a-0x1a.7 (1)
0x10|                                 01            |           .    |            [1]: 1 x 0x1b-0x1b.7 (1)
    |                                               |                |    [2]{}: section 0x1c-0x4a.7 (47)
0x10|                                    07         |            .   |      id: "export section" (7) 0x1c-0x1c.7 (1)
0x10|                                       2d      |             -  |      size: 45 0x1d-0x1d.7 (1)
    |                                               |                |      content{}: 0x1e-0x4a.7 (45)
    |                                               |                |        ex{}: 0x1e-0x4a.7 (45)
0x10|                                          02   |              . |          n: 2 0x1e-0x1e.7 (1)
    |                                               |                |          x[0:2]: 0x1f-0x4a.7 (44)
    |                                               |                |            [0]{}: ex 0x1f-0x34.7 (22)
    |                                               |                |              nm{}: 0x1f-0x32.7 (20)
0x10|                                             13|               .|                n: 19 0x1f-0x1f.7 (1)
0x20|66 33 32 2e 6e 6f 5f 66 6f 6c 64 5f 61 64 64 5f|f32.no_fold_add_|                b: "f32.no_fold_add_sub" 0x20-0x32.7 (19)
0x30|73 75 62                                       |sub             |
    |                                               |                |              d{}: 0x33-0x34.7 (2)
0x30|         00                                    |   .            |                tag: "funcidx" (0x0) 0x33-0x33.7 (1)
0x30|            00                                 |    .           |                x: 0 0x34-0x34.7 (1)
    |                                               |                |            [1]{}: ex 0x35-0x4a.7 (22)
    |                                               |                |              nm{}: 0x35-0x48.7 (20)
0x30|               13                              |     .          |                n: 19 0x35-0x35.7 (1)
0x30|                  66 36 34 2e 6e 6f 5f 66 6f 6c|      f64.no_fol|                b: "f64.no_fold_add_sub" 0x36-0x48.7 (19)
0x40|64 5f 61 64 64 5f 73 75 62                     |d_add_sub       |
    |                                               |                |              d{}: 0x49-0x4a.7 (2)
0x40|                           00                  |         .      |                tag: "funcidx" (0x0) 0x49-0x49.7 (1)
0x40|                              01               |          .     |                x: 1 0x4a-0x4a.7 (1)
    |                                               |                |    [3]{}: section 0x4b-0x63.7 (25)
0x40|                                 0a            |           .    |      id: "code section" (10) 0x4b-0x4b.7 (1)
0x40|                                    17         |            .   |      size: 23 0x4c-0x4c.7 (1)
    |                                               |                |      content{}: 0x4d-0x63.7 (23)
    |                                               |                |        code{}: 0x4d-0x63.7 (23)
0x40|                                       02      |             .  |          n: 2 0x4d-0x4d.7 (1)
    |                                               |                |          x[0:2]: 0x4e-0x63.7 (22)
    |                                               |                |            [0]{}: code 0x4e-0x58.7 (11)
0x40|                                          0a   |              . |              size: 10 0x4e-0x4e.7 (1)
    |                                               |                |              code{}: 0x4f-0x58.7 (10)
    |                                               |                |                t{}: 0x4f-0x4f.7 (1)
0x40|                                             00|               .|                  n: 0 0x4f-0x4f.7 (1)
    |                                               |                |                  x[0:0]: 0x50-NA (0)
    |                                               |                |                e[0:6]: 0x50-0x58.7 (9)
    |                                               |                |                  [0]{}: in 0x50-0x51.7 (2)
0x50|20                                             |                |                    local.get: 0x20 (valid) 0x50-0x50.7 (1)
0x50|   00                                          | .              |                    x: 0 0x51-0x51.7 (1)
    |                                               |                |                  [1]{}: in 0x52-0x53.7 (2)
0x50|      20                                       |                |                    local.get: 0x20 (valid) 0x52-0x52.7 (1)
0x50|         01                                    |   .            |                    x: 1 0x53-0x53.7 (1)
    |                                               |                |                  [2]{}: in 0x54-0x54.7 (1)
0x50|            92                                 |    .           |                    f32.add: 0x92 (valid) 0x54-0x54.7 (1)
    |                                               |                |                  [3]{}: in 0x55-0x56.7 (2)
0x50|               20                              |                |                    local.get: 0x20 (valid) 0x55-0x55.7 (1)
0x50|                  01                           |      .         |                    x: 1 0x56-0x56.7 (1)
    |                                               |                |                  [4]{}: in 0x57-0x57.7 (1)
0x50|                     93                        |       .        |                    f32.sub: 0x93 (valid) 0x57-0x57.7 (1)
    |                                               |                |                  [5]{}: in 0x58-0x58.7 (1)
0x50|                        0b                     |        .       |                    end: 0xb (valid) 0x58-0x58.7 (1)
    |                                               |                |            [1]{}: code 0x59-0x63.7 (11)
0x50|                           0a                  |         .      |              size: 10 0x59-0x59.7 (1)
    |                                               |                |              code{}: 0x5a-0x63.7 (10)
    |                                               |                |                t{}: 0x5a-0x5a.7 (1)
0x50|                              00               |          .     |                  n: 0 0x5a-0x5a.7 (1)
    |                                               |                |                  x[0:0]: 0x5b-NA (0)
    |                                               |                |                e[0:6]: 0x5b-0x63.7 (9)
    |                                               |                |                  [0]{}: in 0x5b-0x5c.7 (2)
0x50|                                 20            |                |                    local.get: 0x20 (valid) 0x5b-0x5b.7 (1)
0x50|                                    00         |            .   |                    x: 0 0x5c-0x5c.7 (1)
    |                                               |                |                  [1]{}: in 0x5d-0x5e.7 (2)
0x50|                                       20      |                |                    local.get: 0x20 (valid) 0x5d-0x5d.7 (1)
0x50|                                          01   |              . |                    x: 1 0x5e-0x5e.7 (1)
    |                                               |                |                  [2]{}: in 0x5f-0x5f.7 (1)
0x50|                                             a0|               .|                    f64.add: 0xa0 (valid) 0x5f-0x5f.7 (1)
    |                                               |                |                  [3]{}: in 0x60-0x61.7 (2)
0x60|20                                             |                |                    local.get: 0x20 (valid) 0x60-0x60.7 (1)
0x60|   01                                          | .              |                    x: 1 0x61-0x61.7 (1)
    |                                               |                |                  [4]{}: in 0x62-0x62.7 (1)
0x60|      a1                                       |  .             |                    f64.sub: 0xa1 (valid) 0x62-0x62.7 (1)
    |                                               |                |                  [5]{}: in 0x63-0x63.7 (1)
0x60|         0b|                                   |   .|           |                    end: 0xb (valid) 0x63-0x63.7 (1)
