$ fq -d wasm dv float_exprs-74.wasm
    |00 01 02 03 04 05 06 07 08 09 0a 0b 0c 0d 0e 0f|0123456789abcdef|.{}: float_exprs-74.wasm (wasm) 0x0-0x6f.7 (112)
0x00|00 61 73 6d                                    |.asm            |  magic: raw bits (valid) 0x0-0x3.7 (4)
0x00|            01 00 00 00                        |    ....        |  version: 1 0x4-0x7.7 (4)
    |                                               |                |  sections[0:4]: 0x8-0x6f.7 (104)
    |                                               |                |    [0]{}: section 0x8-0x16.7 (15)
0x00|                        01                     |        .       |      id: "type section" (1) 0x8-0x8.7 (1)
0x00|                           0d                  |         .      |      size: 13 0x9-0x9.7 (1)
    |                                               |                |      content{}: 0xa-0x16.7 (13)
    |                                               |                |        ft{}: 0xa-0x16.7 (13)
0x00|                              02               |          .     |          n: 2 0xa-0xa.7 (1)
    |                                               |                |          x[0:2]: 0xb-0x16.7 (12)
    |                                               |                |            [0]{}: ft 0xb-0x10.7 (6)
0x00|                                 60            |           `    |              tag: 0x60 (valid) 0xb-0xb.7 (1)
    |                                               |                |              rt1{}: 0xc-0xe.7 (3)
0x00|                                    02         |            .   |                n: 2 0xc-0xc.7 (1)
    |                                               |                |                x[0:2]: 0xd-0xe.7 (2)
0x00|                                       7d      |             }  |                  [0]: "f32" (0x7d) t 0xd-0xd.7 (1)
0x00|                                          7d   |              } |                  [1]: "f32" (0x7d) t 0xe-0xe.7 (1)
    |                                               |                |              rt2{}: 0xf-0x10.7 (2)
0x00|                                             01|               .|                n: 1 0xf-0xf.7 (1)
    |                                               |                |                x[0:1]: 0x10-0x10.7 (1)
0x10|7d                                             |}               |                  [0]: "f32" (0x7d) t 0x10-0x10.7 (1)
    |                                               |                |            [1]{}: ft 0x11-0x16.7 (6)
0x10|   60                                          | `              |              tag: 0x60 (valid) 0x11-0x11.7 (1)
    |                                               |                |              rt1{}: 0x12-0x14.7 (3)
0x10|      02                                       |  .             |                n: 2 0x12-0x12.7 (1)
    |                                               |                |                x[0:2]: 0x13-0x14.7 (2)
0x10|         7c                                    |   |            |                  [0]: "f64" (0x7c) t 0x13-0x13.7 (1)
0x10|            7c                                 |    |           |                  [1]: "f64" (0x7c) t 0x14-0x14.7 (1)
    |                                               |                |              rt2{}: 0x15-0x16.7 (2)
0x10|               01                              |     .          |                n: 1 0x15-0x15.7 (1)
    |                                               |                |                x[0:1]: 0x16-0x16.7 (1)
0x10|                  7c                           |      |         |                  [0]: "f64" (0x7c) t 0x16-0x16.7 (1)
    |                                               |                |    [1]{}: section 0x17-0x1b.7 (5)
0x10|                     03                        |       .        |      id: "function section" (3) 0x17-0x17.7 (1)
0x10|                        03                     |        .       |      size: 3 0x18-0x18.7 (1)
    |                                               |                |      content{}: 0x19-0x1b.7 (3)
    |                                               |                |        x{}: 0x19-0x1b.7 (3)
0x10|                           02                  |         .      |          n: 2 0x19-0x19.7 (1)
    |                                               |                |          x[0:2]: 0x1a-0x1b.7 (2)
0x10|                              00               |          .     |            [0]: 0 x 0x1a-0x1a.7 (1)
0x10|                                 01            |           .    |            [1]: 1 x 0x1b-0x1b.7 (1)
    |                                               |                |    [2]{}: section 0x1c-0x54.7 (57)
0x10|                                    07         |            .   |      id: "export section" (7) 0x1c-0x1c.7 (1)
0x10|                                       37      |             7  |      size: 55 0x1d-0x1d.7 (1)
    |                                               |                |      content{}: 0x1e-0x54.7 (55)
    |                                               |                |        ex{}: 0x1e-0x54.7 (55)
0x10|                                          02   |              . |          n: 2 0x1e-0x1e.7 (1)
    |                                               |                |          x[0:2]: 0x1f-0x54.7 (54)
    |                                               |                |            [0]{}: ex 0x1f-0x39.7 (27)
    |                                               |                |              nm{}: 0x1f-0x37.7 (25)
0x10|                                             18|               .|                n: 24 0x1f-0x1f.7 (1)
0x20|66 33 32 2e 6e 6f 5f 66 6f 6c 64 5f 6d 75 6c 5f|f32.no_fold_mul_|                b: "f32.no_fold_mul_sqrt_div" 0x20-0x37.7 (24)
0x30|73 71 72 74 5f 64 69 76                        |sqrt_div        |
    |                                               |                |              d{}: 0x38-0x39.7 (2)
0x30|                        00                     |        .       |                tag: "funcidx" (0x0) 0x38-0x38.7 (1)
0x30|                           00                  |         .      |                x: 0 0x39-0x39.7 (1)
    |                                               |                |            [1]{}: ex 0x3a-0x54.7 (27)
    |                                               |                |              nm{}: 0x3a-0x52.7 (25)
0x30|                              18               |          .     |                n: 24 0x3a-0x3a.7 (1)
0x30|                                 66 36 34 2e 6e|           f64.n|                b: "f64.no_fold_mul_sqrt_div" 0x3b-0x52.7 (24)
0x40|6f 5f 66 6f 6c 64 5f 6d 75 6c 5f 73 71 72 74 5f|o_fold_mul_sqrt_|
0x50|64 69 76                                       |div             |
    |                                               |                |              d{}: 0x53-0x54.7 (2)
0x50|         00                                    |   .            |                tag: "funcidx" (0x0) 0x53-0x53.7 (1)
0x50|            01                                 |    .           |                x: 1 0x54-0x54.7 (1)
    |                                               |                |    [3]{}: section 0x55-0x6f.7 (27)
0x50|               0a                              |     .          |      id: "code section" (10) 0x55-0x55.7 (1)
0x50|                  19                           |      .         |      size: 25 0x56-0x56.7 (1)
    |                                               |                |      content{}: 0x57-0x6f.7 (25)
    |                                               |                |        code{}: 0x57-0x6f.7 (25)
0x50|                     02                        |       .        |          n: 2 0x57-0x57.7 (1)
    |                                               |                |          x[0:2]: 0x58-0x6f.7 (24)
    |                                               |                |            [0]{}: code 0x58-0x63.7 (12)
0x50|                        0b                     |        .       |              size: 11 0x58-0x58.7 (1)
    |                                               |                |              code{}: 0x59-0x63.7 (11)
    |                                               |                |                t{}: 0x59-0x59.7 (1)
0x50|                           00                  |         .      |                  n: 0 0x59-0x59.7 (1)
    |                                               |                |                  x[0:0]: 0x5a-NA (0)
    |                                               |                |                e[0:7]: 0x5a-0x63.7 (10)
    |                                               |                |                  [0]{}: in 0x5a-0x5b.7 (2)
0x50|                              20               |                |                    local.get: 0x20 (valid) 0x5a-0x5a.7 (1)
0x50|                                 00            |           .    |                    x: 0 0x5b-0x5b.7 (1)
    |                                               |                |                  [1]{}: in 0x5c-0x5d.7 (2)
0x50|                                    20         |                |                    local.get: 0x20 (valid) 0x5c-0x5c.7 (1)
0x50|                                       01      |             .  |                    x: 1 0x5d-0x5d.7 (1)
    |                                               |                |                  [2]{}: in 0x5e-0x5e.7 (1)
0x50|                                          91   |              . |                    f32.sqrt: 0x91 (valid) 0x5e-0x5e.7 (1)
    |                                               |                |                  [3]{}: in 0x5f-0x5f.7 (1)
0x50|                                             94|               .|                    f32.mul: 0x94 (valid) 0x5f-0x5f.7 (1)
    |                                               |                |                  [4]{}: in 0x60-0x61.7 (2)
0x60|20                                             |                |                    local.get: 0x20 (valid) 0x60-0x60.7 (1)
0x60|   01                                          | .              |                    x: 1 0x61-0x61.7 (1)
    |                                               |                |                  [5]{}: in 0x62-0x62.7 (1)
0x60|      95                                       |  .             |                    f32.div: 0x95 (valid) 0x62-0x62.7 (1)
    |                                               |                |                  [6]{}: in 0x63-0x63.7 (1)
0x60|         0b                                    |   .            |                    end: 0xb (valid) 0x63-0x63.7 (1)
    |                                               |                |            [1]{}: code 0x64-0x6f.7 (12)
0x60|            0b                                 |    .           |              size: 11 0x64-0x64.7 (1)
    |                                               |                |              code{}: 0x65-0x6f.7 (11)
    |                                               |                |                t{}: 0x65-0x65.7 (1)
0x60|               00                              |     .          |                  n: 0 0x65-0x65.7 (1)
    |                                               |                |                  x[0:0]: 0x66-NA (0)
    |                                               |                |                e[0:7]: 0x66-0x6f.7 (10)
    |                                               |                |                  [0]{}: in 0x66-0x67.7 (2)
0x60|                  20                           |                |                    local.get: 0x20 (valid) 0x66-0x66.7 (1)
0x60|                     00                        |       .        |                    x: 0 0x67-0x67.7 (1)
    |                                               |                |                  [1]{}: in 0x68-0x69.7 (2)
0x60|                        20                     |                |                    local.get: 0x20 (valid) 0x68-0x68.7 (1)
0x60|                           01                  |         .      |                    x: 1 0x69-0x69.7 (1)
    |                                               |                |                  [2]{}: in 0x6a-0x6a.7 (1)
0x60|                              9f               |          .     |                    f64.sqrt: 0x9f (valid) 0x6a-0x6a.7 (1)
    |                                               |                |                  [3]{}: in 0x6b-0x6b.7 (1)
0x60|                                 a2            |           .    |                    f64.mul: 0xa2 (valid) 0x6b-0x6b.7 (1)
    |                                               |                |                  [4]{}: in 0x6c-0x6d.7 (2)
0x60|                                    20         |                |                    local.get: 0x20 (valid) 0x6c-0x6c.7 (1)
0x60|                                       01      |             .  |                    x: 1 0x6d-0x6d.7 (1)
    |                                               |                |                  [5]{}: in 0x6e-0x6e.7 (1)
0x60|                                          a3   |              . |                    f64.div: 0xa3 (valid) 0x6e-0x6e.7 (1)
    |                                               |                |                  [6]{}: in 0x6f-0x6f.7 (1)
0x60|                                             0b|               .|                    end: 0xb (valid) 0x6f-0x6f.7 (1)
