$ fq -d wasm dv float_exprs-81.wasm
    |00 01 02 03 04 05 06 07 08 09 0a 0b 0c 0d 0e 0f|0123456789abcdef|.{}: float_exprs-81.wasm (wasm) 0x0-0x7d.7 (126)
0x00|00 61 73 6d                                    |.asm            |  magic: raw bits (valid) 0x0-0x3.7 (4)
0x00|            01 00 00 00                        |    ....        |  version: 1 0x4-0x7.7 (4)
    |                                               |                |  sections[0:4]: 0x8-0x7d.7 (118)
    |                                               |                |    [0]{}: section 0x8-0x16.7 (15)
0x00|                        01                     |        .       |      id: "type section" (1) 0x8-0x8.7 (1)
0x00|                           0d                  |         .      |      size: 13 0x9-0x9.7 (1)
    |                                               |                |      content{}: 0xa-0x16.7 (13)
    |                                               |                |        ft{}: 0xa-0x16.7 (13)
0x00|                              02               |          .     |          n: 2 0xa-0xa.7 (1)
    |                                               |                |          x[0:2]: 0xb-0x16.7 (12)
    |                                               |                |            [0]{}: ft 0xb-0x10.7 (6)
0x00|                                 60            |           `    |              tag: 0x60 (valid) 0xb-0xb.7 (1)
    |                                               |                |              rt1{}: 0xc-0xe.7 (3)
0x00|                                    02         |            .   |                n: 2 0xc-0xc.7 (1)
    |                                               |                |                x[0:2]: 0xd-0xe.7 (2)
0x00|                                       7d      |             }  |                  [0]: "f32" (0x7d) t 0xd-0xd.7 (1)
0x00|                                          7d   |              } |                  [1]: "f32" (0x7d) t 0xe-0xe.7 (1)
    |                                               |                |              rt2{}: 0xf-0x10.7 (2)
0x00|                                             01|               .|                n: 1 0xf-0xf.7 (1)
    |                                               |                |                x[0:1]: 0x10-0x10.7 (1)
0x10|7d                                             |}               |                  [0]: "f32" (0x7d) t 0x10-0x10.7 (1)
    |                                               |                |            [1]{}: ft 0x11-0x16.7 (6)
0x10|   60                                          | `              |              tag: 0x60 (valid) 0x11-0x11.7 (1)
    |                                               |                |              rt1{}: 0x12-0x14.7 (3)
0x10|      02                                       |  .             |                n: 2 0x12-0x12.7 (1)
    |                                               |                |                x[0:2]: 0x13-0x14.7 (2)
0x10|         7c                                    |   |            |                  [0]: "f64" (0x7c) t 0x13-0x13.7 (1)
0x10|            7c                                 |    |           |                  [1]: "f64" (0x7c) t 0x14-0x14.7 (1)
    |                                               |                |              rt2{}: 0x15-0x16.7 (2)
0x10|               01                              |     .          |                n: 1 0x15-0x15.7 (1)
    |                                               |                |                x[0:1]: 0x16-0x16.7 (1)
0x10|                  7c                           |      |         |                  [0]: "f64" (0x7c) t 0x16-0x16.7 (1)
    |                                               |                |    [1]{}: section 0x17-0x1b.7 (5)
0x10|                     03                        |       .        |      id: "function section" (3) 0x17-0x17.7 (1)
0x10|                        03                     |        .       |      size: 3 0x18-0x18.7 (1)
    |                                               |                |      content{}: 0x19-0x1b.7 (3)
    |                                               |                |        x{}: 0x19-0x1b.7 (3)
0x10|                           02                  |         .      |          n: 2 0x19-0x19.7 (1)
    |                                               |                |          x[0:2]: 0x1a-0x1b.7 (2)
0x10|                              00               |          .     |            [0]: 0 x 0x1a-0x1a.7 (1)
0x10|                                 01            |           .    |            [1]: 1 x 0x1b-0x1b.7 (1)
    |                                               |                |    [2]{}: section 0x1c-0x54.7 (57)
0x10|                                    07         |            .   |      id: "export section" (7) 0x1c-0x1c.7 (1)
0x10|                                       37      |             7  |      size: 55 0x1d-0x1d.7 (1)
    |                                               |                |      content{}: 0x1e-0x54.7 (55)
    |                                               |                |        ex{}: 0x1e-0x54.7 (55)
0x10|                                          02   |              . |          n: 2 0x1e-0x1e.7 (1)
    |                                               |                |          x[0:2]: 0x1f-0x54.7 (54)
    |                                               |                |            [0]{}: ex 0x1f-0x39.7 (27)
    |                                               |                |              nm{}: 0x1f-0x37.7 (25)
0x10|                                             18|               .|                n: 24 0x1f-0x1f.7 (1)
0x20|66 33 32 2e 6e 6f 5f 66 6f 6c 64 5f 73 75 62 31|f32.no_fold_sub1|                b: "f32.no_fold_sub1_mul_add" 0x20-0x37.7 (24)
0x30|5f 6d 75 6c 5f 61 64 64                        |_mul_add        |
    |                                               |                |              d{}: 0x38-0x39.7 (2)
0x30|                        00                     |        .       |                tag: "funcidx" (0x0) 0x38-0x38.7 (1)
0x30|                           00                  |         .      |                x: 0 0x39-0x39.7 (1)
    |                                               |                |            [1]{}: ex 0x3a-0x54.7 (27)
    |                                               |                |              nm{}: 0x3a-0x52.7 (25)
0x30|                              18               |          .     |                n: 24 0x3a-0x3a.7 (1)
0x30|                                 66 36 34 2e 6e|           f64.n|                b: "f64.no_fold_sub1_mul_add" 0x3b-0x52.7 (24)
0x40|6f 5f 66 6f 6c 64 5f 73 75 62 31 5f 6d 75 6c 5f|o_fold_sub1_mul_|
0x50|61 64 64                                       |add             |
    |                                               |                |              d{}: 0x53-0x54.7 (2)
0x50|         00                                    |   .            |                tag: "funcidx" (0x0) 0x53-0x53.7 (1)
0x50|            01                                 |    .           |                x: 1 0x54-0x54.7 (1)
    |                                               |                |    [3]{}: section 0x55-0x7d.7 (41)
0x50|               0a                              |     .          |      id: "code section" (10) 0x55-0x55.7 (1)
0x50|                  27                           |      '         |      size: 39 0x56-0x56.7 (1)
    |                                               |                |      content{}: 0x57-0x7d.7 (39)
    |                                               |                |        code{}: 0x57-0x7d.7 (39)
0x50|                     02                        |       .        |          n: 2 0x57-0x57.7 (1)
    |                                               |                |          x[0:2]: 0x58-0x7d.7 (38)
    |                                               |                |            [0]{}: code 0x58-0x68.7 (17)
0x50|                        10                     |        .       |              size: 16 0x58-0x58.7 (1)
    |                                               |                |              code{}: 0x59-0x68.7 (16)
    |                                               |                |                t{}: 0x59-0x59.7 (1)
0x50|                           00                  |         .      |                  n: 0 0x59-0x59.7 (1)
    |                                               |                |                  x[0:0]: 0x5a-NA (0)
    |                                               |                |                e[0:8]: 0x5a-0x68.7 (15)
    |                                               |                |                  [0]{}: in 0x5a-0x5b.7 (2)
0x50|                              20               |                |                    local.get: 0x20 (valid) 0x5a-0x5a.7 (1)
0x50|                                 00            |           .    |                    x: 0 0x5b-0x5b.7 (1)
    |                                               |                |                  [1]{}: in 0x5c-0x60.7 (5)
0x50|                                    43         |            C   |                    f32.const: 0x43 (valid) 0x5c-0x5c.7 (1)
0x50|                                       00 00 80|             ...|                    z: 1 0x5d-0x60.7 (4)
0x60|3f                                             |?               |
    |                                               |                |                  [2]{}: in 0x61-0x61.7 (1)
0x60|   93                                          | .              |                    f32.sub: 0x93 (valid) 0x61-0x61.7 (1)
    |                                               |                |                  [3]{}: in 0x62-0x63.7 (2)
0x60|      20                                       |                |                    local.get: 0x20 (valid) 0x62-0x62.7 (1)
0x60|         01                                    |   .            |                    x: 1 0x63-0x63.7 (1)
    |                                               |                |                  [4]{}: in 0x64-0x64.7 (1)
0x60|            94                                 |    .           |                    f32.mul: 0x94 (valid) 0x64-0x64.7 (1)
    |                                               |                |                  [5]{}: in 0x65-0x66.7 (2)
0x60|               20                              |                |                    local.get: 0x20 (valid) 0x65-0x65.7 (1)
0x60|                  01                           |      .         |                    x: 1 0x66-0x66.7 (1)
    |                                               |                |                  [6]{}: in 0x67-0x67.7 (1)
0x60|                     92                        |       .        |                    f32.add: 0x92 (valid) 0x67-0x67.7 (1)
    |                                               |                |                  [7]{}: in 0x68-0x68.7 (1)
0x60|                        0b                     |        .       |                    end: 0xb (valid) 0x68-0x68.7 (1)
    |                                               |                |            [1]{}: code 0x69-0x7d.7 (21)
0x60|                           14                  |         .      |              size: 20 0x69-0x69.7 (1)
    |                                               |                |              code{}: 0x6a-0x7d.7 (20)
    |                                               |                |                t{}: 0x6a-0x6a.7 (1)
0x60|                              00               |          .     |                  n: 0 0x6a-0x6a.7 (1)
    |                                               |                |                  x[0:0]: 0x6b-NA (0)
    |                                               |                |                e[0:8]: 0x6b-0x7d.7 (19)
    |                                               |                |                  [0]{}: in 0x6b-0x6c.7 (2)
0x60|                                 20            |                |                    local.get: 0x20 (valid) 0x6b-0x6b.7 (1)
0x60|                                    00         |            .   |                    x: 0 0x6c-0x6c.7 (1)
    |                                               |                |                  [1]{}: in 0x6d-0x75.7 (9)
0x60|                                       44      |             D  |                    f64.const: 0x44 (valid) 0x6d-0x6d.7 (1)
0x60|                                          00 00|              ..|                    z: 1 0x6e-0x75.7 (8)
0x70|00 00 00 00 f0 3f                              |.....?          |
    |                                               |                |                  [2]{}: in 0x76-0x76.7 (1)
0x70|                  a1                           |      .         |                    f64.sub: 0xa1 (valid) 0x76-0x76.7 (1)
    |                                               |                |                  [3]{}: in 0x77-0x78.7 (2)
0x70|                     20                        |                |                    local.get: 0x20 (valid) 0x77-0x77.7 (1)
0x70|                        01                     |        .       |                    x: 1 0x78-0x78.7 (1)
    |                                               |                |                  [4]{}: in 0x79-0x79.7 (1)
0x70|                           a2                  |         .      |                    f64.mul: 0xa2 (valid) 0x79-0x79.7 (1)
    |                                               |                |                  [5]{}: in 0x7a-0x7b.7 (2)
0x70|                              20               |                |                    local.get: 0x20 (valid) 0x7a-0x7a.7 (1)
0x70|                                 01            |           .    |                    x: 1 0x7b-0x7b.7 (1)
    |                                               |                |                  [6]{}: in 0x7c-0x7c.7 (1)
0x70|                                    a0         |            .   |                    f64.add: 0xa0 (valid) 0x7c-0x7c.7 (1)
    |                                               |                |                  [7]{}: in 0x7d-0x7d.7 (1)
0x70|                                       0b|     |             .| |                    end: 0xb (valid) 0x7d-0x7d.7 (1)
