$ fq -d wasm dv float_exprs-40.wasm
    |00 01 02 03 04 05 06 07 08 09 0a 0b 0c 0d 0e 0f|0123456789abcdef|.{}: float_exprs-40.wasm (wasm) 0x0-0x74 (116)
0x00|00 61 73 6d                                    |.asm            |  magic: raw bits (valid) 0x0-0x4 (4)
0x00|            01 00 00 00                        |    ....        |  version: 1 0x4-0x8 (4)
    |                                               |                |  sections[0:5]: 0x8-0x74 (108)
    |                                               |                |    [0]{}: section 0x8-0x15 (13)
0x00|                        01                     |        .       |      id: "type_section" (1) 0x8-0x9 (1)
0x00|                           0b                  |         .      |      size: 11 (valid) 0x9-0xa (1)
    |                                               |                |      content{}: 0xa-0x15 (11)
    |                                               |                |        ft{}: 0xa-0x15 (11)
0x00|                              02               |          .     |          n: 2 (valid) 0xa-0xb (1)
    |                                               |                |          x[0:2]: 0xb-0x15 (10)
    |                                               |                |            [0]{}: ft 0xb-0x10 (5)
0x00|                                 60            |           `    |              tag: 0x60 (valid) 0xb-0xc (1)
    |                                               |                |              rt1{}: 0xc-0xf (3)
0x00|                                    02         |            .   |                n: 2 (valid) 0xc-0xd (1)
    |                                               |                |                x[0:2]: 0xd-0xf (2)
0x00|                                       7f      |             .  |                  [0]: "i32" (0x7f) t 0xd-0xe (1)
0x00|                                          7d   |              } |                  [1]: "f32" (0x7d) t 0xe-0xf (1)
    |                                               |                |              rt2{}: 0xf-0x10 (1)
0x00|                                             00|               .|                n: 0 (valid) 0xf-0x10 (1)
    |                                               |                |                x[0:0]: 0x10-0x10 (0)
    |                                               |                |            [1]{}: ft 0x10-0x15 (5)
0x10|60                                             |`               |              tag: 0x60 (valid) 0x10-0x11 (1)
    |                                               |                |              rt1{}: 0x11-0x13 (2)
0x10|   01                                          | .              |                n: 1 (valid) 0x11-0x12 (1)
    |                                               |                |                x[0:1]: 0x12-0x13 (1)
0x10|      7f                                       |  .             |                  [0]: "i32" (0x7f) t 0x12-0x13 (1)
    |                                               |                |              rt2{}: 0x13-0x15 (2)
0x10|         01                                    |   .            |                n: 1 (valid) 0x13-0x14 (1)
    |                                               |                |                x[0:1]: 0x14-0x15 (1)
0x10|            7d                                 |    }           |                  [0]: "f32" (0x7d) t 0x14-0x15 (1)
    |                                               |                |    [1]{}: section 0x15-0x1b (6)
0x10|               03                              |     .          |      id: "function_section" (3) 0x15-0x16 (1)
0x10|                  04                           |      .         |      size: 4 (valid) 0x16-0x17 (1)
    |                                               |                |      content{}: 0x17-0x1b (4)
    |                                               |                |        x{}: 0x17-0x1b (4)
0x10|                     03                        |       .        |          n: 3 (valid) 0x17-0x18 (1)
    |                                               |                |          x[0:3]: 0x18-0x1b (3)
0x10|                        00                     |        .       |            [0]: 0 x (valid) 0x18-0x19 (1)
0x10|                           00                  |         .      |            [1]: 0 x (valid) 0x19-0x1a (1)
0x10|                              01               |          .     |            [2]: 1 x (valid) 0x1a-0x1b (1)
    |                                               |                |    [2]{}: section 0x1b-0x21 (6)
0x10|                                 05            |           .    |      id: "memory_section" (5) 0x1b-0x1c (1)
0x10|                                    04         |            .   |      size: 4 (valid) 0x1c-0x1d (1)
    |                                               |                |      content{}: 0x1d-0x21 (4)
    |                                               |                |        mem{}: 0x1d-0x21 (4)
0x10|                                       01      |             .  |          n: 1 (valid) 0x1d-0x1e (1)
    |                                               |                |          x[0:1]: 0x1e-0x21 (3)
    |                                               |                |            [0]{}: mem 0x1e-0x21 (3)
    |                                               |                |              lim{}: 0x1e-0x21 (3)
0x10|                                          01   |              . |                tag: 0x1 0x1e-0x1f (1)
0x10|                                             01|               .|                n: 1 (valid) 0x1f-0x20 (1)
0x20|01                                             |.               |                m: 1 (valid) 0x20-0x21 (1)
    |                                               |                |    [3]{}: section 0x21-0x39 (24)
0x20|   07                                          | .              |      id: "export_section" (7) 0x21-0x22 (1)
0x20|      16                                       |  .             |      size: 22 (valid) 0x22-0x23 (1)
    |                                               |                |      content{}: 0x23-0x39 (22)
    |                                               |                |        ex{}: 0x23-0x39 (22)
0x20|         03                                    |   .            |          n: 3 (valid) 0x23-0x24 (1)
    |                                               |                |          x[0:3]: 0x24-0x39 (21)
    |                                               |                |            [0]{}: ex 0x24-0x2b (7)
    |                                               |                |              nm{}: 0x24-0x29 (5)
0x20|            04                                 |    .           |                n: 4 (valid) 0x24-0x25 (1)
0x20|               69 6e 69 74                     |     init       |                b: "init" 0x25-0x29 (4)
    |                                               |                |              d{}: 0x29-0x2b (2)
0x20|                           00                  |         .      |                tag: "funcidx" (0x0) 0x29-0x2a (1)
0x20|                              00               |          .     |                x: 0 (valid) 0x2a-0x2b (1)
    |                                               |                |            [1]{}: ex 0x2b-0x31 (6)
    |                                               |                |              nm{}: 0x2b-0x2f (4)
0x20|                                 03            |           .    |                n: 3 (valid) 0x2b-0x2c (1)
0x20|                                    72 75 6e   |            run |                b: "run" 0x2c-0x2f (3)
    |                                               |                |              d{}: 0x2f-0x31 (2)
0x20|                                             00|               .|                tag: "funcidx" (0x0) 0x2f-0x30 (1)
0x30|01                                             |.               |                x: 1 (valid) 0x30-0x31 (1)
    |                                               |                |            [2]{}: ex 0x31-0x39 (8)
    |                                               |                |              nm{}: 0x31-0x37 (6)
0x30|   05                                          | .              |                n: 5 (valid) 0x31-0x32 (1)
0x30|      63 68 65 63 6b                           |  check         |                b: "check" 0x32-0x37 (5)
    |                                               |                |              d{}: 0x37-0x39 (2)
0x30|                     00                        |       .        |                tag: "funcidx" (0x0) 0x37-0x38 (1)
0x30|                        02                     |        .       |                x: 2 (valid) 0x38-0x39 (1)
    |                                               |                |    [4]{}: section 0x39-0x74 (59)
0x30|                           0a                  |         .      |      id: "code_section" (10) 0x39-0x3a (1)
0x30|                              39               |          9     |      size: 57 (valid) 0x3a-0x3b (1)
    |                                               |                |      content{}: 0x3b-0x74 (57)
    |                                               |                |        code{}: 0x3b-0x74 (57)
0x30|                                 03            |           .    |          n: 3 (valid) 0x3b-0x3c (1)
    |                                               |                |          x[0:3]: 0x3c-0x74 (56)
    |                                               |                |            [0]{}: code 0x3c-0x46 (10)
0x30|                                    09         |            .   |              size: 9 (valid) 0x3c-0x3d (1)
    |                                               |                |              code{}: 0x3d-0x46 (9)
    |                                               |                |                t{}: 0x3d-0x3e (1)
0x30|                                       00      |             .  |                  n: 0 (valid) 0x3d-0x3e (1)
    |                                               |                |                  x[0:0]: 0x3e-0x3e (0)
    |                                               |                |                e[0:4]: 0x3e-0x46 (8)
    |                                               |                |                  [0]{}: in 0x3e-0x40 (2)
0x30|                                          20   |                |                    opcode: "local.get" (0x20) 0x3e-0x3f (1)
0x30|                                             00|               .|                    x: 0 (valid) 0x3f-0x40 (1)
    |                                               |                |                  [1]{}: in 0x40-0x42 (2)
0x40|20                                             |                |                    opcode: "local.get" (0x20) 0x40-0x41 (1)
0x40|   01                                          | .              |                    x: 1 (valid) 0x41-0x42 (1)
    |                                               |                |                  [2]{}: in 0x42-0x45 (3)
0x40|      38                                       |  8             |                    opcode: "f32.store" (0x38) 0x42-0x43 (1)
    |                                               |                |                    m{}: 0x43-0x45 (2)
0x40|         02                                    |   .            |                      a: 2 (valid) 0x43-0x44 (1)
0x40|            00                                 |    .           |                      o: 0 (valid) 0x44-0x45 (1)
    |                                               |                |                  [3]{}: in 0x45-0x46 (1)
0x40|               0b                              |     .          |                    opcode: "end" (0xb) 0x45-0x46 (1)
    |                                               |                |            [1]{}: code 0x46-0x6c (38)
0x40|                  25                           |      %         |              size: 37 (valid) 0x46-0x47 (1)
    |                                               |                |              code{}: 0x47-0x6c (37)
    |                                               |                |                t{}: 0x47-0x4a (3)
0x40|                     01                        |       .        |                  n: 1 (valid) 0x47-0x48 (1)
    |                                               |                |                  x[0:1]: 0x48-0x4a (2)
    |                                               |                |                    [0]{}: t 0x48-0x4a (2)
0x40|                        01                     |        .       |                      n: 1 (valid) 0x48-0x49 (1)
0x40|                           7f                  |         .      |                      t: "i32" (0x7f) 0x49-0x4a (1)
    |                                               |                |                e[0:2]: 0x4a-0x6c (34)
    |                                               |                |                  [0]{}: in 0x4a-0x6b (33)
0x40|                              02               |          .     |                    opcode: "block" (0x2) 0x4a-0x4b (1)
0x40|                                 40            |           @    |                    bt: "ε" (64) 0x4b-0x4c (1)
    |                                               |                |                    instructions[0:1]: 0x4c-0x6a (30)
    |                                               |                |                      [0]{}: instr 0x4c-0x6a (30)
0x40|                                    03         |            .   |                        opcode: "loop" (0x3) 0x4c-0x4d (1)
0x40|                                       40      |             @  |                        bt: "ε" (64) 0x4d-0x4e (1)
    |                                               |                |                        instructions[0:14]: 0x4e-0x69 (27)
    |                                               |                |                          [0]{}: instr 0x4e-0x50 (2)
0x40|                                          20   |                |                            opcode: "local.get" (0x20) 0x4e-0x4f (1)
0x40|                                             02|               .|                            x: 2 (valid) 0x4f-0x50 (1)
    |                                               |                |                          [1]{}: instr 0x50-0x52 (2)
0x50|20                                             |                |                            opcode: "local.get" (0x20) 0x50-0x51 (1)
0x50|   02                                          | .              |                            x: 2 (valid) 0x51-0x52 (1)
    |                                               |                |                          [2]{}: instr 0x52-0x55 (3)
0x50|      2a                                       |  *             |                            opcode: "f32.load" (0x2a) 0x52-0x53 (1)
    |                                               |                |                            m{}: 0x53-0x55 (2)
0x50|         02                                    |   .            |                              a: 2 (valid) 0x53-0x54 (1)
0x50|            00                                 |    .           |                              o: 0 (valid) 0x54-0x55 (1)
    |                                               |                |                          [3]{}: instr 0x55-0x57 (2)
0x50|               20                              |                |                            opcode: "local.get" (0x20) 0x55-0x56 (1)
0x50|                  01                           |      .         |                            x: 1 (valid) 0x56-0x57 (1)
    |                                               |                |                          [4]{}: instr 0x57-0x58 (1)
0x50|                     95                        |       .        |                            opcode: "f32.div" (0x95) 0x57-0x58 (1)
    |                                               |                |                          [5]{}: instr 0x58-0x5b (3)
0x50|                        38                     |        8       |                            opcode: "f32.store" (0x38) 0x58-0x59 (1)
    |                                               |                |                            m{}: 0x59-0x5b (2)
0x50|                           02                  |         .      |                              a: 2 (valid) 0x59-0x5a (1)
0x50|                              00               |          .     |                              o: 0 (valid) 0x5a-0x5b (1)
    |                                               |                |                          [6]{}: instr 0x5b-0x5d (2)
0x50|                                 20            |                |                            opcode: "local.get" (0x20) 0x5b-0x5c (1)
0x50|                                    02         |            .   |                            x: 2 (valid) 0x5c-0x5d (1)
    |                                               |                |                          [7]{}: instr 0x5d-0x5f (2)
0x50|                                       41      |             A  |                            opcode: "i32.const" (0x41) 0x5d-0x5e (1)
0x50|                                          04   |              . |                            n: 4 (valid) 0x5e-0x5f (1)
    |                                               |                |                          [8]{}: instr 0x5f-0x60 (1)
0x50|                                             6a|               j|                            opcode: "i32.add" (0x6a) 0x5f-0x60 (1)
    |                                               |                |                          [9]{}: instr 0x60-0x62 (2)
0x60|21                                             |!               |                            opcode: "local.set" (0x21) 0x60-0x61 (1)
0x60|   02                                          | .              |                            x: 2 (valid) 0x61-0x62 (1)
    |                                               |                |                          [10]{}: instr 0x62-0x64 (2)
0x60|      20                                       |                |                            opcode: "local.get" (0x20) 0x62-0x63 (1)
0x60|         02                                    |   .            |                            x: 2 (valid) 0x63-0x64 (1)
    |                                               |                |                          [11]{}: instr 0x64-0x66 (2)
0x60|            20                                 |                |                            opcode: "local.get" (0x20) 0x64-0x65 (1)
0x60|               00                              |     .          |                            x: 0 (valid) 0x65-0x66 (1)
    |                                               |                |                          [12]{}: instr 0x66-0x67 (1)
0x60|                  49                           |      I         |                            opcode: "i32.lt_u" (0x49) 0x66-0x67 (1)
    |                                               |                |                          [13]{}: instr 0x67-0x69 (2)
0x60|                     0d                        |       .        |                            opcode: "br_if" (0xd) 0x67-0x68 (1)
0x60|                        00                     |        .       |                            l: 0 (valid) 0x68-0x69 (1)
0x60|                           0b                  |         .      |                        end: 0xb (valid) 0x69-0x6a (1)
0x60|                              0b               |          .     |                    end: 0xb (valid) 0x6a-0x6b (1)
    |                                               |                |                  [1]{}: in 0x6b-0x6c (1)
0x60|                                 0b            |           .    |                    opcode: "end" (0xb) 0x6b-0x6c (1)
    |                                               |                |            [2]{}: code 0x6c-0x74 (8)
0x60|                                    07         |            .   |              size: 7 (valid) 0x6c-0x6d (1)
    |                                               |                |              code{}: 0x6d-0x74 (7)
    |                                               |                |                t{}: 0x6d-0x6e (1)
0x60|                                       00      |             .  |                  n: 0 (valid) 0x6d-0x6e (1)
    |                                               |                |                  x[0:0]: 0x6e-0x6e (0)
    |                                               |                |                e[0:3]: 0x6e-0x74 (6)
    |                                               |                |                  [0]{}: in 0x6e-0x70 (2)
0x60|                                          20   |                |                    opcode: "local.get" (0x20) 0x6e-0x6f (1)
0x60|                                             00|               .|                    x: 0 (valid) 0x6f-0x70 (1)
    |                                               |                |                  [1]{}: in 0x70-0x73 (3)
0x70|2a                                             |*               |                    opcode: "f32.load" (0x2a) 0x70-0x71 (1)
    |                                               |                |                    m{}: 0x71-0x73 (2)
0x70|   02                                          | .              |                      a: 2 (valid) 0x71-0x72 (1)
0x70|      00                                       |  .             |                      o: 0 (valid) 0x72-0x73 (1)
    |                                               |                |                  [2]{}: in 0x73-0x74 (1)
0x70|         0b|                                   |   .|           |                    opcode: "end" (0xb) 0x73-0x74 (1)
