$ fq -d wasm dv float_exprs-43.wasm
     |00 01 02 03 04 05 06 07 08 09 0a 0b 0c 0d 0e 0f|0123456789abcdef|.{}: float_exprs-43.wasm (wasm) 0x0-0x150.7 (337)
0x000|00 61 73 6d                                    |.asm            |  magic: raw bits (valid) 0x0-0x3.7 (4)
0x000|            01 00 00 00                        |    ....        |  version: 1 0x4-0x7.7 (4)
     |                                               |                |  sections[0:4]: 0x8-0x150.7 (329)
     |                                               |                |    [0]{}: section 0x8-0x16.7 (15)
0x000|                        01                     |        .       |      id: "type section" (1) 0x8-0x8.7 (1)
0x000|                           0d                  |         .      |      size: 13 0x9-0x9.7 (1)
     |                                               |                |      content{}: 0xa-0x16.7 (13)
     |                                               |                |        ft{}: 0xa-0x16.7 (13)
0x000|                              02               |          .     |          n: 2 0xa-0xa.7 (1)
     |                                               |                |          x[0:2]: 0xb-0x16.7 (12)
     |                                               |                |            [0]{}: ft 0xb-0x10.7 (6)
0x000|                                 60            |           `    |              tag: 0x60 (valid) 0xb-0xb.7 (1)
     |                                               |                |              rt1{}: 0xc-0xe.7 (3)
0x000|                                    02         |            .   |                n: 2 0xc-0xc.7 (1)
     |                                               |                |                x[0:2]: 0xd-0xe.7 (2)
0x000|                                       7d      |             }  |                  [0]: "f32" (0x7d) t 0xd-0xd.7 (1)
0x000|                                          7d   |              } |                  [1]: "f32" (0x7d) t 0xe-0xe.7 (1)
     |                                               |                |              rt2{}: 0xf-0x10.7 (2)
0x000|                                             01|               .|                n: 1 0xf-0xf.7 (1)
     |                                               |                |                x[0:1]: 0x10-0x10.7 (1)
0x010|7d                                             |}               |                  [0]: "f32" (0x7d) t 0x10-0x10.7 (1)
     |                                               |                |            [1]{}: ft 0x11-0x16.7 (6)
0x010|   60                                          | `              |              tag: 0x60 (valid) 0x11-0x11.7 (1)
     |                                               |                |              rt1{}: 0x12-0x14.7 (3)
0x010|      02                                       |  .             |                n: 2 0x12-0x12.7 (1)
     |                                               |                |                x[0:2]: 0x13-0x14.7 (2)
0x010|         7c                                    |   |            |                  [0]: "f64" (0x7c) t 0x13-0x13.7 (1)
0x010|            7c                                 |    |           |                  [1]: "f64" (0x7c) t 0x14-0x14.7 (1)
     |                                               |                |              rt2{}: 0x15-0x16.7 (2)
0x010|               01                              |     .          |                n: 1 0x15-0x15.7 (1)
     |                                               |                |                x[0:1]: 0x16-0x16.7 (1)
0x010|                  7c                           |      |         |                  [0]: "f64" (0x7c) t 0x16-0x16.7 (1)
     |                                               |                |    [1]{}: section 0x17-0x21.7 (11)
0x010|                     03                        |       .        |      id: "function section" (3) 0x17-0x17.7 (1)
0x010|                        09                     |        .       |      size: 9 0x18-0x18.7 (1)
     |                                               |                |      content{}: 0x19-0x21.7 (9)
     |                                               |                |        x{}: 0x19-0x21.7 (9)
0x010|                           08                  |         .      |          n: 8 0x19-0x19.7 (1)
     |                                               |                |          x[0:8]: 0x1a-0x21.7 (8)
0x010|                              00               |          .     |            [0]: 0 x 0x1a-0x1a.7 (1)
0x010|                                 00            |           .    |            [1]: 0 x 0x1b-0x1b.7 (1)
0x010|                                    00         |            .   |            [2]: 0 x 0x1c-0x1c.7 (1)
0x010|                                       00      |             .  |            [3]: 0 x 0x1d-0x1d.7 (1)
0x010|                                          01   |              . |            [4]: 1 x 0x1e-0x1e.7 (1)
0x010|                                             01|               .|            [5]: 1 x 0x1f-0x1f.7 (1)
0x020|01                                             |.               |            [6]: 1 x 0x20-0x20.7 (1)
0x020|   01                                          | .              |            [7]: 1 x 0x21-0x21.7 (1)
     |                                               |                |    [2]{}: section 0x22-0xe5.7 (196)
0x020|      07                                       |  .             |      id: "export section" (7) 0x22-0x22.7 (1)
0x020|         c1 01                                 |   ..           |      size: 193 0x23-0x24.7 (2)
     |                                               |                |      content{}: 0x25-0xe5.7 (193)
     |                                               |                |        ex{}: 0x25-0xe5.7 (193)
0x020|               08                              |     .          |          n: 8 0x25-0x25.7 (1)
     |                                               |                |          x[0:8]: 0x26-0xe5.7 (192)
     |                                               |                |            [0]{}: ex 0x26-0x3d.7 (24)
     |                                               |                |              nm{}: 0x26-0x3b.7 (22)
0x020|                  15                           |      .         |                n: 21 0x26-0x26.7 (1)
0x020|                     66 33 32 2e 6e 6f 5f 66 6f|       f32.no_fo|                b: "f32.no_fold_lt_select" 0x27-0x3b.7 (21)
0x030|6c 64 5f 6c 74 5f 73 65 6c 65 63 74            |ld_lt_select    |
     |                                               |                |              d{}: 0x3c-0x3d.7 (2)
0x030|                                    00         |            .   |                tag: "funcidx" (0x0) 0x3c-0x3c.7 (1)
0x030|                                       00      |             .  |                x: 0 0x3d-0x3d.7 (1)
     |                                               |                |            [1]{}: ex 0x3e-0x55.7 (24)
     |                                               |                |              nm{}: 0x3e-0x53.7 (22)
0x030|                                          15   |              . |                n: 21 0x3e-0x3e.7 (1)
0x030|                                             66|               f|                b: "f32.no_fold_le_select" 0x3f-0x53.7 (21)
0x040|33 32 2e 6e 6f 5f 66 6f 6c 64 5f 6c 65 5f 73 65|32.no_fold_le_se|
0x050|6c 65 63 74                                    |lect            |
     |                                               |                |              d{}: 0x54-0x55.7 (2)
0x050|            00                                 |    .           |                tag: "funcidx" (0x0) 0x54-0x54.7 (1)
0x050|               01                              |     .          |                x: 1 0x55-0x55.7 (1)
     |                                               |                |            [2]{}: ex 0x56-0x6d.7 (24)
     |                                               |                |              nm{}: 0x56-0x6b.7 (22)
0x050|                  15                           |      .         |                n: 21 0x56-0x56.7 (1)
0x050|                     66 33 32 2e 6e 6f 5f 66 6f|       f32.no_fo|                b: "f32.no_fold_gt_select" 0x57-0x6b.7 (21)
0x060|6c 64 5f 67 74 5f 73 65 6c 65 63 74            |ld_gt_select    |
     |                                               |                |              d{}: 0x6c-0x6d.7 (2)
0x060|                                    00         |            .   |                tag: "funcidx" (0x0) 0x6c-0x6c.7 (1)
0x060|                                       02      |             .  |                x: 2 0x6d-0x6d.7 (1)
     |                                               |                |            [3]{}: ex 0x6e-0x85.7 (24)
     |                                               |                |              nm{}: 0x6e-0x83.7 (22)
0x060|                                          15   |              . |                n: 21 0x6e-0x6e.7 (1)
0x060|                                             66|               f|                b: "f32.no_fold_ge_select" 0x6f-0x83.7 (21)
0x070|33 32 2e 6e 6f 5f 66 6f 6c 64 5f 67 65 5f 73 65|32.no_fold_ge_se|
0x080|6c 65 63 74                                    |lect            |
     |                                               |                |              d{}: 0x84-0x85.7 (2)
0x080|            00                                 |    .           |                tag: "funcidx" (0x0) 0x84-0x84.7 (1)
0x080|               03                              |     .          |                x: 3 0x85-0x85.7 (1)
     |                                               |                |            [4]{}: ex 0x86-0x9d.7 (24)
     |                                               |                |              nm{}: 0x86-0x9b.7 (22)
0x080|                  15                           |      .         |                n: 21 0x86-0x86.7 (1)
0x080|                     66 36 34 2e 6e 6f 5f 66 6f|       f64.no_fo|                b: "f64.no_fold_lt_select" 0x87-0x9b.7 (21)
0x090|6c 64 5f 6c 74 5f 73 65 6c 65 63 74            |ld_lt_select    |
     |                                               |                |              d{}: 0x9c-0x9d.7 (2)
0x090|                                    00         |            .   |                tag: "funcidx" (0x0) 0x9c-0x9c.7 (1)
0x090|                                       04      |             .  |                x: 4 0x9d-0x9d.7 (1)
     |                                               |                |            [5]{}: ex 0x9e-0xb5.7 (24)
     |                                               |                |              nm{}: 0x9e-0xb3.7 (22)
0x090|                                          15   |              . |                n: 21 0x9e-0x9e.7 (1)
0x090|                                             66|               f|                b: "f64.no_fold_le_select" 0x9f-0xb3.7 (21)
0x0a0|36 34 2e 6e 6f 5f 66 6f 6c 64 5f 6c 65 5f 73 65|64.no_fold_le_se|
0x0b0|6c 65 63 74                                    |lect            |
     |                                               |                |              d{}: 0xb4-0xb5.7 (2)
0x0b0|            00                                 |    .           |                tag: "funcidx" (0x0) 0xb4-0xb4.7 (1)
0x0b0|               05                              |     .          |                x: 5 0xb5-0xb5.7 (1)
     |                                               |                |            [6]{}: ex 0xb6-0xcd.7 (24)
     |                                               |                |              nm{}: 0xb6-0xcb.7 (22)
0x0b0|                  15                           |      .         |                n: 21 0xb6-0xb6.7 (1)
0x0b0|                     66 36 34 2e 6e 6f 5f 66 6f|       f64.no_fo|                b: "f64.no_fold_gt_select" 0xb7-0xcb.7 (21)
0x0c0|6c 64 5f 67 74 5f 73 65 6c 65 63 74            |ld_gt_select    |
     |                                               |                |              d{}: 0xcc-0xcd.7 (2)
0x0c0|                                    00         |            .   |                tag: "funcidx" (0x0) 0xcc-0xcc.7 (1)
0x0c0|                                       06      |             .  |                x: 6 0xcd-0xcd.7 (1)
     |                                               |                |            [7]{}: ex 0xce-0xe5.7 (24)
     |                                               |                |              nm{}: 0xce-0xe3.7 (22)
0x0c0|                                          15   |              . |                n: 21 0xce-0xce.7 (1)
0x0c0|                                             66|               f|                b: "f64.no_fold_ge_select" 0xcf-0xe3.7 (21)
0x0d0|36 34 2e 6e 6f 5f 66 6f 6c 64 5f 67 65 5f 73 65|64.no_fold_ge_se|
0x0e0|6c 65 63 74                                    |lect            |
     |                                               |                |              d{}: 0xe4-0xe5.7 (2)
0x0e0|            00                                 |    .           |                tag: "funcidx" (0x0) 0xe4-0xe4.7 (1)
0x0e0|               07                              |     .          |                x: 7 0xe5-0xe5.7 (1)
     |                                               |                |    [3]{}: section 0xe6-0x150.7 (107)
0x0e0|                  0a                           |      .         |      id: "code section" (10) 0xe6-0xe6.7 (1)
0x0e0|                     69                        |       i        |      size: 105 0xe7-0xe7.7 (1)
     |                                               |                |      content{}: 0xe8-0x150.7 (105)
     |                                               |                |        code{}: 0xe8-0x150.7 (105)
0x0e0|                        08                     |        .       |          n: 8 0xe8-0xe8.7 (1)
     |                                               |                |          x[0:8]: 0xe9-0x150.7 (104)
     |                                               |                |            [0]{}: code 0xe9-0xf5.7 (13)
0x0e0|                           0c                  |         .      |              size: 12 0xe9-0xe9.7 (1)
     |                                               |                |              code{}: 0xea-0xf5.7 (12)
     |                                               |                |                t{}: 0xea-0xea.7 (1)
0x0e0|                              00               |          .     |                  n: 0 0xea-0xea.7 (1)
     |                                               |                |                  x[0:0]: 0xeb-NA (0)
     |                                               |                |                e[0:7]: 0xeb-0xf5.7 (11)
     |                                               |                |                  [0]{}: in 0xeb-0xec.7 (2)
0x0e0|                                 20            |                |                    local.get: 0x20 (valid) 0xeb-0xeb.7 (1)
0x0e0|                                    00         |            .   |                    x: 0 0xec-0xec.7 (1)
     |                                               |                |                  [1]{}: in 0xed-0xee.7 (2)
0x0e0|                                       20      |                |                    local.get: 0x20 (valid) 0xed-0xed.7 (1)
0x0e0|                                          01   |              . |                    x: 1 0xee-0xee.7 (1)
     |                                               |                |                  [2]{}: in 0xef-0xf0.7 (2)
0x0e0|                                             20|                |                    local.get: 0x20 (valid) 0xef-0xef.7 (1)
0x0f0|00                                             |.               |                    x: 0 0xf0-0xf0.7 (1)
     |                                               |                |                  [3]{}: in 0xf1-0xf2.7 (2)
0x0f0|   20                                          |                |                    local.get: 0x20 (valid) 0xf1-0xf1.7 (1)
0x0f0|      01                                       |  .             |                    x: 1 0xf2-0xf2.7 (1)
     |                                               |                |                  [4]{}: in 0xf3-0xf3.7 (1)
0x0f0|         5d                                    |   ]            |                    f32.lt: 0x5d (valid) 0xf3-0xf3.7 (1)
     |                                               |                |                  [5]{}: in 0xf4-0xf4.7 (1)
0x0f0|            1b                                 |    .           |                    select: 0x1b (valid) 0xf4-0xf4.7 (1)
     |                                               |                |                  [6]{}: in 0xf5-0xf5.7 (1)
0x0f0|               0b                              |     .          |                    end: 0xb (valid) 0xf5-0xf5.7 (1)
     |                                               |                |            [1]{}: code 0xf6-0x102.7 (13)
0x0f0|                  0c                           |      .         |              size: 12 0xf6-0xf6.7 (1)
     |                                               |                |              code{}: 0xf7-0x102.7 (12)
     |                                               |                |                t{}: 0xf7-0xf7.7 (1)
0x0f0|                     00                        |       .        |                  n: 0 0xf7-0xf7.7 (1)
     |                                               |                |                  x[0:0]: 0xf8-NA (0)
     |                                               |                |                e[0:7]: 0xf8-0x102.7 (11)
     |                                               |                |                  [0]{}: in 0xf8-0xf9.7 (2)
0x0f0|                        20                     |                |                    local.get: 0x20 (valid) 0xf8-0xf8.7 (1)
0x0f0|                           00                  |         .      |                    x: 0 0xf9-0xf9.7 (1)
     |                                               |                |                  [1]{}: in 0xfa-0xfb.7 (2)
0x0f0|                              20               |                |                    local.get: 0x20 (valid) 0xfa-0xfa.7 (1)
0x0f0|                                 01            |           .    |                    x: 1 0xfb-0xfb.7 (1)
     |                                               |                |                  [2]{}: in 0xfc-0xfd.7 (2)
0x0f0|                                    20         |                |                    local.get: 0x20 (valid) 0xfc-0xfc.7 (1)
0x0f0|                                       00      |             .  |                    x: 0 0xfd-0xfd.7 (1)
     |                                               |                |                  [3]{}: in 0xfe-0xff.7 (2)
0x0f0|                                          20   |                |                    local.get: 0x20 (valid) 0xfe-0xfe.7 (1)
0x0f0|                                             01|               .|                    x: 1 0xff-0xff.7 (1)
     |                                               |                |                  [4]{}: in 0x100-0x100.7 (1)
0x100|5f                                             |_               |                    f32.le: 0x5f (valid) 0x100-0x100.7 (1)
     |                                               |                |                  [5]{}: in 0x101-0x101.7 (1)
0x100|   1b                                          | .              |                    select: 0x1b (valid) 0x101-0x101.7 (1)
     |                                               |                |                  [6]{}: in 0x102-0x102.7 (1)
0x100|      0b                                       |  .             |                    end: 0xb (valid) 0x102-0x102.7 (1)
     |                                               |                |            [2]{}: code 0x103-0x10f.7 (13)
0x100|         0c                                    |   .            |              size: 12 0x103-0x103.7 (1)
     |                                               |                |              code{}: 0x104-0x10f.7 (12)
     |                                               |                |                t{}: 0x104-0x104.7 (1)
0x100|            00                                 |    .           |                  n: 0 0x104-0x104.7 (1)
     |                                               |                |                  x[0:0]: 0x105-NA (0)
     |                                               |                |                e[0:7]: 0x105-0x10f.7 (11)
     |                                               |                |                  [0]{}: in 0x105-0x106.7 (2)
0x100|               20                              |                |                    local.get: 0x20 (valid) 0x105-0x105.7 (1)
0x100|                  00                           |      .         |                    x: 0 0x106-0x106.7 (1)
     |                                               |                |                  [1]{}: in 0x107-0x108.7 (2)
0x100|                     20                        |                |                    local.get: 0x20 (valid) 0x107-0x107.7 (1)
0x100|                        01                     |        .       |                    x: 1 0x108-0x108.7 (1)
     |                                               |                |                  [2]{}: in 0x109-0x10a.7 (2)
0x100|                           20                  |                |                    local.get: 0x20 (valid) 0x109-0x109.7 (1)
0x100|                              00               |          .     |                    x: 0 0x10a-0x10a.7 (1)
     |                                               |                |                  [3]{}: in 0x10b-0x10c.7 (2)
0x100|                                 20            |                |                    local.get: 0x20 (valid) 0x10b-0x10b.7 (1)
0x100|                                    01         |            .   |                    x: 1 0x10c-0x10c.7 (1)
     |                                               |                |                  [4]{}: in 0x10d-0x10d.7 (1)
0x100|                                       5e      |             ^  |                    f32.gt: 0x5e (valid) 0x10d-0x10d.7 (1)
     |                                               |                |                  [5]{}: in 0x10e-0x10e.7 (1)
0x100|                                          1b   |              . |                    select: 0x1b (valid) 0x10e-0x10e.7 (1)
     |                                               |                |                  [6]{}: in 0x10f-0x10f.7 (1)
0x100|                                             0b|               .|                    end: 0xb (valid) 0x10f-0x10f.7 (1)
     |                                               |                |            [3]{}: code 0x110-0x11c.7 (13)
0x110|0c                                             |.               |              size: 12 0x110-0x110.7 (1)
     |                                               |                |              code{}: 0x111-0x11c.7 (12)
     |                                               |                |                t{}: 0x111-0x111.7 (1)
0x110|   00                                          | .              |                  n: 0 0x111-0x111.7 (1)
     |                                               |                |                  x[0:0]: 0x112-NA (0)
     |                                               |                |                e[0:7]: 0x112-0x11c.7 (11)
     |                                               |                |                  [0]{}: in 0x112-0x113.7 (2)
0x110|      20                                       |                |                    local.get: 0x20 (valid) 0x112-0x112.7 (1)
0x110|         00                                    |   .            |                    x: 0 0x113-0x113.7 (1)
     |                                               |                |                  [1]{}: in 0x114-0x115.7 (2)
0x110|            20                                 |                |                    local.get: 0x20 (valid) 0x114-0x114.7 (1)
0x110|               01                              |     .          |                    x: 1 0x115-0x115.7 (1)
     |                                               |                |                  [2]{}: in 0x116-0x117.7 (2)
0x110|                  20                           |                |                    local.get: 0x20 (valid) 0x116-0x116.7 (1)
0x110|                     00                        |       .        |                    x: 0 0x117-0x117.7 (1)
     |                                               |                |                  [3]{}: in 0x118-0x119.7 (2)
0x110|                        20                     |                |                    local.get: 0x20 (valid) 0x118-0x118.7 (1)
0x110|                           01                  |         .      |                    x: 1 0x119-0x119.7 (1)
     |                                               |                |                  [4]{}: in 0x11a-0x11a.7 (1)
0x110|                              60               |          `     |                    f32.ge: 0x60 (valid) 0x11a-0x11a.7 (1)
     |                                               |                |                  [5]{}: in 0x11b-0x11b.7 (1)
0x110|                                 1b            |           .    |                    select: 0x1b (valid) 0x11b-0x11b.7 (1)
     |                                               |                |                  [6]{}: in 0x11c-0x11c.7 (1)
0x110|                                    0b         |            .   |                    end: 0xb (valid) 0x11c-0x11c.7 (1)
     |                                               |                |            [4]{}: code 0x11d-0x129.7 (13)
0x110|                                       0c      |             .  |              size: 12 0x11d-0x11d.7 (1)
     |                                               |                |              code{}: 0x11e-0x129.7 (12)
     |                                               |                |                t{}: 0x11e-0x11e.7 (1)
0x110|                                          00   |              . |                  n: 0 0x11e-0x11e.7 (1)
     |                                               |                |                  x[0:0]: 0x11f-NA (0)
     |                                               |                |                e[0:7]: 0x11f-0x129.7 (11)
     |                                               |                |                  [0]{}: in 0x11f-0x120.7 (2)
0x110|                                             20|                |                    local.get: 0x20 (valid) 0x11f-0x11f.7 (1)
0x120|00                                             |.               |                    x: 0 0x120-0x120.7 (1)
     |                                               |                |                  [1]{}: in 0x121-0x122.7 (2)
0x120|   20                                          |                |                    local.get: 0x20 (valid) 0x121-0x121.7 (1)
0x120|      01                                       |  .             |                    x: 1 0x122-0x122.7 (1)
     |                                               |                |                  [2]{}: in 0x123-0x124.7 (2)
0x120|         20                                    |                |                    local.get: 0x20 (valid) 0x123-0x123.7 (1)
0x120|            00                                 |    .           |                    x: 0 0x124-0x124.7 (1)
     |                                               |                |                  [3]{}: in 0x125-0x126.7 (2)
0x120|               20                              |                |                    local.get: 0x20 (valid) 0x125-0x125.7 (1)
0x120|                  01                           |      .         |                    x: 1 0x126-0x126.7 (1)
     |                                               |                |                  [4]{}: in 0x127-0x127.7 (1)
0x120|                     63                        |       c        |                    f64.lt: 0x63 (valid) 0x127-0x127.7 (1)
     |                                               |                |                  [5]{}: in 0x128-0x128.7 (1)
0x120|                        1b                     |        .       |                    select: 0x1b (valid) 0x128-0x128.7 (1)
     |                                               |                |                  [6]{}: in 0x129-0x129.7 (1)
0x120|                           0b                  |         .      |                    end: 0xb (valid) 0x129-0x129.7 (1)
     |                                               |                |            [5]{}: code 0x12a-0x136.7 (13)
0x120|                              0c               |          .     |              size: 12 0x12a-0x12a.7 (1)
     |                                               |                |              code{}: 0x12b-0x136.7 (12)
     |                                               |                |                t{}: 0x12b-0x12b.7 (1)
0x120|                                 00            |           .    |                  n: 0 0x12b-0x12b.7 (1)
     |                                               |                |                  x[0:0]: 0x12c-NA (0)
     |                                               |                |                e[0:7]: 0x12c-0x136.7 (11)
     |                                               |                |                  [0]{}: in 0x12c-0x12d.7 (2)
0x120|                                    20         |                |                    local.get: 0x20 (valid) 0x12c-0x12c.7 (1)
0x120|                                       00      |             .  |                    x: 0 0x12d-0x12d.7 (1)
     |                                               |                |                  [1]{}: in 0x12e-0x12f.7 (2)
0x120|                                          20   |                |                    local.get: 0x20 (valid) 0x12e-0x12e.7 (1)
0x120|                                             01|               .|                    x: 1 0x12f-0x12f.7 (1)
     |                                               |                |                  [2]{}: in 0x130-0x131.7 (2)
0x130|20                                             |                |                    local.get: 0x20 (valid) 0x130-0x130.7 (1)
0x130|   00                                          | .              |                    x: 0 0x131-0x131.7 (1)
     |                                               |                |                  [3]{}: in 0x132-0x133.7 (2)
0x130|      20                                       |                |                    local.get: 0x20 (valid) 0x132-0x132.7 (1)
0x130|         01                                    |   .            |                    x: 1 0x133-0x133.7 (1)
     |                                               |                |                  [4]{}: in 0x134-0x134.7 (1)
0x130|            65                                 |    e           |                    f64.le: 0x65 (valid) 0x134-0x134.7 (1)
     |                                               |                |                  [5]{}: in 0x135-0x135.7 (1)
0x130|               1b                              |     .          |                    select: 0x1b (valid) 0x135-0x135.7 (1)
     |                                               |                |                  [6]{}: in 0x136-0x136.7 (1)
0x130|                  0b                           |      .         |                    end: 0xb (valid) 0x136-0x136.7 (1)
     |                                               |                |            [6]{}: code 0x137-0x143.7 (13)
0x130|                     0c                        |       .        |              size: 12 0x137-0x137.7 (1)
     |                                               |                |              code{}: 0x138-0x143.7 (12)
     |                                               |                |                t{}: 0x138-0x138.7 (1)
0x130|                        00                     |        .       |                  n: 0 0x138-0x138.7 (1)
     |                                               |                |                  x[0:0]: 0x139-NA (0)
     |                                               |                |                e[0:7]: 0x139-0x143.7 (11)
     |                                               |                |                  [0]{}: in 0x139-0x13a.7 (2)
0x130|                           20                  |                |                    local.get: 0x20 (valid) 0x139-0x139.7 (1)
0x130|                              00               |          .     |                    x: 0 0x13a-0x13a.7 (1)
     |                                               |                |                  [1]{}: in 0x13b-0x13c.7 (2)
0x130|                                 20            |                |                    local.get: 0x20 (valid) 0x13b-0x13b.7 (1)
0x130|                                    01         |            .   |                    x: 1 0x13c-0x13c.7 (1)
     |                                               |                |                  [2]{}: in 0x13d-0x13e.7 (2)
0x130|                                       20      |                |                    local.get: 0x20 (valid) 0x13d-0x13d.7 (1)
0x130|                                          00   |              . |                    x: 0 0x13e-0x13e.7 (1)
     |                                               |                |                  [3]{}: in 0x13f-0x140.7 (2)
0x130|                                             20|                |                    local.get: 0x20 (valid) 0x13f-0x13f.7 (1)
0x140|01                                             |.               |                    x: 1 0x140-0x140.7 (1)
     |                                               |                |                  [4]{}: in 0x141-0x141.7 (1)
0x140|   64                                          | d              |                    f64.gt: 0x64 (valid) 0x141-0x141.7 (1)
     |                                               |                |                  [5]{}: in 0x142-0x142.7 (1)
0x140|      1b                                       |  .             |                    select: 0x1b (valid) 0x142-0x142.7 (1)
     |                                               |                |                  [6]{}: in 0x143-0x143.7 (1)
0x140|         0b                                    |   .            |                    end: 0xb (valid) 0x143-0x143.7 (1)
     |                                               |                |            [7]{}: code 0x144-0x150.7 (13)
0x140|            0c                                 |    .           |              size: 12 0x144-0x144.7 (1)
     |                                               |                |              code{}: 0x145-0x150.7 (12)
     |                                               |                |                t{}: 0x145-0x145.7 (1)
0x140|               00                              |     .          |                  n: 0 0x145-0x145.7 (1)
     |                                               |                |                  x[0:0]: 0x146-NA (0)
     |                                               |                |                e[0:7]: 0x146-0x150.7 (11)
     |                                               |                |                  [0]{}: in 0x146-0x147.7 (2)
0x140|                  20                           |                |                    local.get: 0x20 (valid) 0x146-0x146.7 (1)
0x140|                     00                        |       .        |                    x: 0 0x147-0x147.7 (1)
     |                                               |                |                  [1]{}: in 0x148-0x149.7 (2)
0x140|                        20                     |                |                    local.get: 0x20 (valid) 0x148-0x148.7 (1)
0x140|                           01                  |         .      |                    x: 1 0x149-0x149.7 (1)
     |                                               |                |                  [2]{}: in 0x14a-0x14b.7 (2)
0x140|                              20               |                |                    local.get: 0x20 (valid) 0x14a-0x14a.7 (1)
0x140|                                 00            |           .    |                    x: 0 0x14b-0x14b.7 (1)
     |                                               |                |                  [3]{}: in 0x14c-0x14d.7 (2)
0x140|                                    20         |                |                    local.get: 0x20 (valid) 0x14c-0x14c.7 (1)
0x140|                                       01      |             .  |                    x: 1 0x14d-0x14d.7 (1)
     |                                               |                |                  [4]{}: in 0x14e-0x14e.7 (1)
0x140|                                          66   |              f |                    f64.ge: 0x66 (valid) 0x14e-0x14e.7 (1)
     |                                               |                |                  [5]{}: in 0x14f-0x14f.7 (1)
0x140|                                             1b|               .|                    select: 0x1b (valid) 0x14f-0x14f.7 (1)
     |                                               |                |                  [6]{}: in 0x150-0x150.7 (1)
0x150|0b|                                            |.|              |                    end: 0xb (valid) 0x150-0x150.7 (1)
