$ fq -d wasm dv float_memory-5.wasm
    |00 01 02 03 04 05 06 07 08 09 0a 0b 0c 0d 0e 0f|0123456789abcdef|.{}: float_memory-5.wasm (wasm) 0x0-0xae (174)
0x00|00 61 73 6d                                    |.asm            |  magic: raw bits (valid) 0x0-0x4 (4)
0x00|            01 00 00 00                        |    ....        |  version: 1 0x4-0x8 (4)
    |                                               |                |  sections[0:6]: 0x8-0xae (166)
    |                                               |                |    [0]{}: section 0x8-0x16 (14)
0x00|                        01                     |        .       |      id: "type_section" (1) 0x8-0x9 (1)
0x00|                           0c                  |         .      |      size: 12 (valid) 0x9-0xa (1)
    |                                               |                |      content{}: 0xa-0x16 (12)
    |                                               |                |        ft{}: 0xa-0x16 (12)
0x00|                              03               |          .     |          n: 3 (valid) 0xa-0xb (1)
    |                                               |                |          x[0:3]: 0xb-0x16 (11)
    |                                               |                |            [0]{}: ft 0xb-0xf (4)
0x00|                                 60            |           `    |              tag: 0x60 (valid) 0xb-0xc (1)
    |                                               |                |              rt1{}: 0xc-0xd (1)
0x00|                                    00         |            .   |                n: 0 (valid) 0xc-0xd (1)
    |                                               |                |                x[0:0]: 0xd-0xd (0)
    |                                               |                |              rt2{}: 0xd-0xf (2)
0x00|                                       01      |             .  |                n: 1 (valid) 0xd-0xe (1)
    |                                               |                |                x[0:1]: 0xe-0xf (1)
0x00|                                          7c   |              | |                  [0]: "f64" (0x7c) t 0xe-0xf (1)
    |                                               |                |            [1]{}: ft 0xf-0x13 (4)
0x00|                                             60|               `|              tag: 0x60 (valid) 0xf-0x10 (1)
    |                                               |                |              rt1{}: 0x10-0x11 (1)
0x10|00                                             |.               |                n: 0 (valid) 0x10-0x11 (1)
    |                                               |                |                x[0:0]: 0x11-0x11 (0)
    |                                               |                |              rt2{}: 0x11-0x13 (2)
0x10|   01                                          | .              |                n: 1 (valid) 0x11-0x12 (1)
    |                                               |                |                x[0:1]: 0x12-0x13 (1)
0x10|      7e                                       |  ~             |                  [0]: "i64" (0x7e) t 0x12-0x13 (1)
    |                                               |                |            [2]{}: ft 0x13-0x16 (3)
0x10|         60                                    |   `            |              tag: 0x60 (valid) 0x13-0x14 (1)
    |                                               |                |              rt1{}: 0x14-0x15 (1)
0x10|            00                                 |    .           |                n: 0 (valid) 0x14-0x15 (1)
    |                                               |                |                x[0:0]: 0x15-0x15 (0)
    |                                               |                |              rt2{}: 0x15-0x16 (1)
0x10|               00                              |     .          |                n: 0 (valid) 0x15-0x16 (1)
    |                                               |                |                x[0:0]: 0x16-0x16 (0)
    |                                               |                |    [1]{}: section 0x16-0x1e (8)
0x10|                  03                           |      .         |      id: "function_section" (3) 0x16-0x17 (1)
0x10|                     06                        |       .        |      size: 6 (valid) 0x17-0x18 (1)
    |                                               |                |      content{}: 0x18-0x1e (6)
    |                                               |                |        x{}: 0x18-0x1e (6)
0x10|                        05                     |        .       |          n: 5 (valid) 0x18-0x19 (1)
    |                                               |                |          x[0:5]: 0x19-0x1e (5)
0x10|                           00                  |         .      |            [0]: 0 x (valid) 0x19-0x1a (1)
0x10|                              01               |          .     |            [1]: 1 x (valid) 0x1a-0x1b (1)
0x10|                                 02            |           .    |            [2]: 2 x (valid) 0x1b-0x1c (1)
0x10|                                    02         |            .   |            [3]: 2 x (valid) 0x1c-0x1d (1)
0x10|                                       02      |             .  |            [4]: 2 x (valid) 0x1d-0x1e (1)
    |                                               |                |    [2]{}: section 0x1e-0x24 (6)
0x10|                                          05   |              . |      id: "memory_section" (5) 0x1e-0x1f (1)
0x10|                                             04|               .|      size: 4 (valid) 0x1f-0x20 (1)
    |                                               |                |      content{}: 0x20-0x24 (4)
    |                                               |                |        mem{}: 0x20-0x24 (4)
0x20|01                                             |.               |          n: 1 (valid) 0x20-0x21 (1)
    |                                               |                |          x[0:1]: 0x21-0x24 (3)
    |                                               |                |            [0]{}: mem 0x21-0x24 (3)
    |                                               |                |              lim{}: 0x21-0x24 (3)
0x20|   01                                          | .              |                tag: 0x1 0x21-0x22 (1)
0x20|      01                                       |  .             |                n: 1 (valid) 0x22-0x23 (1)
0x20|         01                                    |   .            |                m: 1 (valid) 0x23-0x24 (1)
    |                                               |                |    [3]{}: section 0x24-0x5d (57)
0x20|            07                                 |    .           |      id: "export_section" (7) 0x24-0x25 (1)
0x20|               37                              |     7          |      size: 55 (valid) 0x25-0x26 (1)
    |                                               |                |      content{}: 0x26-0x5d (55)
    |                                               |                |        ex{}: 0x26-0x5d (55)
0x20|                  05                           |      .         |          n: 5 (valid) 0x26-0x27 (1)
    |                                               |                |          x[0:5]: 0x27-0x5d (54)
    |                                               |                |            [0]{}: ex 0x27-0x32 (11)
    |                                               |                |              nm{}: 0x27-0x30 (9)
0x20|                     08                        |       .        |                n: 8 (valid) 0x27-0x28 (1)
0x20|                        66 36 34 2e 6c 6f 61 64|        f64.load|                b: "f64.load" 0x28-0x30 (8)
    |                                               |                |              d{}: 0x30-0x32 (2)
0x30|00                                             |.               |                tag: "funcidx" (0x0) 0x30-0x31 (1)
0x30|   00                                          | .              |                x: 0 (valid) 0x31-0x32 (1)
    |                                               |                |            [1]{}: ex 0x32-0x3d (11)
    |                                               |                |              nm{}: 0x32-0x3b (9)
0x30|      08                                       |  .             |                n: 8 (valid) 0x32-0x33 (1)
0x30|         69 36 34 2e 6c 6f 61 64               |   i64.load     |                b: "i64.load" 0x33-0x3b (8)
    |                                               |                |              d{}: 0x3b-0x3d (2)
0x30|                                 00            |           .    |                tag: "funcidx" (0x0) 0x3b-0x3c (1)
0x30|                                    01         |            .   |                x: 1 (valid) 0x3c-0x3d (1)
    |                                               |                |            [2]{}: ex 0x3d-0x49 (12)
    |                                               |                |              nm{}: 0x3d-0x47 (10)
0x30|                                       09      |             .  |                n: 9 (valid) 0x3d-0x3e (1)
0x30|                                          66 36|              f6|                b: "f64.store" 0x3e-0x47 (9)
0x40|34 2e 73 74 6f 72 65                           |4.store         |
    |                                               |                |              d{}: 0x47-0x49 (2)
0x40|                     00                        |       .        |                tag: "funcidx" (0x0) 0x47-0x48 (1)
0x40|                        02                     |        .       |                x: 2 (valid) 0x48-0x49 (1)
    |                                               |                |            [3]{}: ex 0x49-0x55 (12)
    |                                               |                |              nm{}: 0x49-0x53 (10)
0x40|                           09                  |         .      |                n: 9 (valid) 0x49-0x4a (1)
0x40|                              69 36 34 2e 73 74|          i64.st|                b: "i64.store" 0x4a-0x53 (9)
0x50|6f 72 65                                       |ore             |
    |                                               |                |              d{}: 0x53-0x55 (2)
0x50|         00                                    |   .            |                tag: "funcidx" (0x0) 0x53-0x54 (1)
0x50|            03                                 |    .           |                x: 3 (valid) 0x54-0x55 (1)
    |                                               |                |            [4]{}: ex 0x55-0x5d (8)
    |                                               |                |              nm{}: 0x55-0x5b (6)
0x50|               05                              |     .          |                n: 5 (valid) 0x55-0x56 (1)
0x50|                  72 65 73 65 74               |      reset     |                b: "reset" 0x56-0x5b (5)
    |                                               |                |              d{}: 0x5b-0x5d (2)
0x50|                                 00            |           .    |                tag: "funcidx" (0x0) 0x5b-0x5c (1)
0x50|                                    04         |            .   |                x: 4 (valid) 0x5c-0x5d (1)
    |                                               |                |    [4]{}: section 0x5d-0x9e (65)
0x50|                                       0a      |             .  |      id: "code_section" (10) 0x5d-0x5e (1)
0x50|                                          3f   |              ? |      size: 63 (valid) 0x5e-0x5f (1)
    |                                               |                |      content{}: 0x5f-0x9e (63)
    |                                               |                |        code{}: 0x5f-0x9e (63)
0x50|                                             05|               .|          n: 5 (valid) 0x5f-0x60 (1)
    |                                               |                |          x[0:5]: 0x60-0x9e (62)
    |                                               |                |            [0]{}: code 0x60-0x68 (8)
0x60|07                                             |.               |              size: 7 (valid) 0x60-0x61 (1)
    |                                               |                |              code{}: 0x61-0x68 (7)
    |                                               |                |                t{}: 0x61-0x62 (1)
0x60|   00                                          | .              |                  n: 0 (valid) 0x61-0x62 (1)
    |                                               |                |                  x[0:0]: 0x62-0x62 (0)
    |                                               |                |                e[0:3]: 0x62-0x68 (6)
    |                                               |                |                  [0]{}: in 0x62-0x64 (2)
0x60|      41                                       |  A             |                    opcode: "i32.const" (0x41) 0x62-0x63 (1)
0x60|         00                                    |   .            |                    n: 0 (valid) 0x63-0x64 (1)
    |                                               |                |                  [1]{}: in 0x64-0x67 (3)
0x60|            2b                                 |    +           |                    opcode: "f64.load" (0x2b) 0x64-0x65 (1)
    |                                               |                |                    m{}: 0x65-0x67 (2)
0x60|               03                              |     .          |                      a: 3 (valid) 0x65-0x66 (1)
0x60|                  00                           |      .         |                      o: 0 (valid) 0x66-0x67 (1)
    |                                               |                |                  [2]{}: in 0x67-0x68 (1)
0x60|                     0b                        |       .        |                    opcode: "end" (0xb) 0x67-0x68 (1)
    |                                               |                |            [1]{}: code 0x68-0x70 (8)
0x60|                        07                     |        .       |              size: 7 (valid) 0x68-0x69 (1)
    |                                               |                |              code{}: 0x69-0x70 (7)
    |                                               |                |                t{}: 0x69-0x6a (1)
0x60|                           00                  |         .      |                  n: 0 (valid) 0x69-0x6a (1)
    |                                               |                |                  x[0:0]: 0x6a-0x6a (0)
    |                                               |                |                e[0:3]: 0x6a-0x70 (6)
    |                                               |                |                  [0]{}: in 0x6a-0x6c (2)
0x60|                              41               |          A     |                    opcode: "i32.const" (0x41) 0x6a-0x6b (1)
0x60|                                 00            |           .    |                    n: 0 (valid) 0x6b-0x6c (1)
    |                                               |                |                  [1]{}: in 0x6c-0x6f (3)
0x60|                                    29         |            )   |                    opcode: "i64.load" (0x29) 0x6c-0x6d (1)
    |                                               |                |                    m{}: 0x6d-0x6f (2)
0x60|                                       03      |             .  |                      a: 3 (valid) 0x6d-0x6e (1)
0x60|                                          00   |              . |                      o: 0 (valid) 0x6e-0x6f (1)
    |                                               |                |                  [2]{}: in 0x6f-0x70 (1)
0x60|                                             0b|               .|                    opcode: "end" (0xb) 0x6f-0x70 (1)
    |                                               |                |            [2]{}: code 0x70-0x81 (17)
0x70|10                                             |.               |              size: 16 (valid) 0x70-0x71 (1)
    |                                               |                |              code{}: 0x71-0x81 (16)
    |                                               |                |                t{}: 0x71-0x72 (1)
0x70|   00                                          | .              |                  n: 0 (valid) 0x71-0x72 (1)
    |                                               |                |                  x[0:0]: 0x72-0x72 (0)
    |                                               |                |                e[0:4]: 0x72-0x81 (15)
    |                                               |                |                  [0]{}: in 0x72-0x74 (2)
0x70|      41                                       |  A             |                    opcode: "i32.const" (0x41) 0x72-0x73 (1)
0x70|         00                                    |   .            |                    n: 0 (valid) 0x73-0x74 (1)
    |                                               |                |                  [1]{}: in 0x74-0x7d (9)
0x70|            44                                 |    D           |                    opcode: "f64.const" (0x44) 0x74-0x75 (1)
0x70|               01 00 00 00 00 00 fc 7f         |     ........   |                    z: NaN 0x75-0x7d (8)
    |                                               |                |                  [2]{}: in 0x7d-0x80 (3)
0x70|                                       39      |             9  |                    opcode: "f64.store" (0x39) 0x7d-0x7e (1)
    |                                               |                |                    m{}: 0x7e-0x80 (2)
0x70|                                          03   |              . |                      a: 3 (valid) 0x7e-0x7f (1)
0x70|                                             00|               .|                      o: 0 (valid) 0x7f-0x80 (1)
    |                                               |                |                  [3]{}: in 0x80-0x81 (1)
0x80|0b                                             |.               |                    opcode: "end" (0xb) 0x80-0x81 (1)
    |                                               |                |            [3]{}: code 0x81-0x94 (19)
0x80|   12                                          | .              |              size: 18 (valid) 0x81-0x82 (1)
    |                                               |                |              code{}: 0x82-0x94 (18)
    |                                               |                |                t{}: 0x82-0x83 (1)
0x80|      00                                       |  .             |                  n: 0 (valid) 0x82-0x83 (1)
    |                                               |                |                  x[0:0]: 0x83-0x83 (0)
    |                                               |                |                e[0:4]: 0x83-0x94 (17)
    |                                               |                |                  [0]{}: in 0x83-0x85 (2)
0x80|         41                                    |   A            |                    opcode: "i32.const" (0x41) 0x83-0x84 (1)
0x80|            00                                 |    .           |                    n: 0 (valid) 0x84-0x85 (1)
    |                                               |                |                  [1]{}: in 0x85-0x90 (11)
0x80|               42                              |     B          |                    opcode: "i64.const" (0x42) 0x85-0x86 (1)
0x80|                  81 80 80 80 80 80 80 fe ff 00|      ..........|                    n: 9222246136947933185 0x86-0x90 (10)
    |                                               |                |                  [2]{}: in 0x90-0x93 (3)
0x90|37                                             |7               |                    opcode: "i64.store" (0x37) 0x90-0x91 (1)
    |                                               |                |                    m{}: 0x91-0x93 (2)
0x90|   03                                          | .              |                      a: 3 (valid) 0x91-0x92 (1)
0x90|      00                                       |  .             |                      o: 0 (valid) 0x92-0x93 (1)
    |                                               |                |                  [3]{}: in 0x93-0x94 (1)
0x90|         0b                                    |   .            |                    opcode: "end" (0xb) 0x93-0x94 (1)
    |                                               |                |            [4]{}: code 0x94-0x9e (10)
0x90|            09                                 |    .           |              size: 9 (valid) 0x94-0x95 (1)
    |                                               |                |              code{}: 0x95-0x9e (9)
    |                                               |                |                t{}: 0x95-0x96 (1)
0x90|               00                              |     .          |                  n: 0 (valid) 0x95-0x96 (1)
    |                                               |                |                  x[0:0]: 0x96-0x96 (0)
    |                                               |                |                e[0:4]: 0x96-0x9e (8)
    |                                               |                |                  [0]{}: in 0x96-0x98 (2)
0x90|                  41                           |      A         |                    opcode: "i32.const" (0x41) 0x96-0x97 (1)
0x90|                     00                        |       .        |                    n: 0 (valid) 0x97-0x98 (1)
    |                                               |                |                  [1]{}: in 0x98-0x9a (2)
0x90|                        42                     |        B       |                    opcode: "i64.const" (0x42) 0x98-0x99 (1)
0x90|                           00                  |         .      |                    n: 0 0x99-0x9a (1)
    |                                               |                |                  [2]{}: in 0x9a-0x9d (3)
0x90|                              37               |          7     |                    opcode: "i64.store" (0x37) 0x9a-0x9b (1)
    |                                               |                |                    m{}: 0x9b-0x9d (2)
0x90|                                 03            |           .    |                      a: 3 (valid) 0x9b-0x9c (1)
0x90|                                    00         |            .   |                      o: 0 (valid) 0x9c-0x9d (1)
    |                                               |                |                  [3]{}: in 0x9d-0x9e (1)
0x90|                                       0b      |             .  |                    opcode: "end" (0xb) 0x9d-0x9e (1)
    |                                               |                |    [5]{}: section 0x9e-0xae (16)
0x90|                                          0b   |              . |      id: "data_section" (11) 0x9e-0x9f (1)
0x90|                                             0e|               .|      size: 14 (valid) 0x9f-0xa0 (1)
    |                                               |                |      content{}: 0xa0-0xae (14)
    |                                               |                |        seg{}: 0xa0-0xae (14)
0xa0|01                                             |.               |          n: 1 (valid) 0xa0-0xa1 (1)
    |                                               |                |          x[0:1]: 0xa1-0xae (13)
    |                                               |                |            [0]{}: seg 0xa1-0xae (13)
0xa0|   00                                          | .              |              tag: 0 (valid) 0xa1-0xa2 (1)
    |                                               |                |              e[0:2]: 0xa2-0xa5 (3)
    |                                               |                |                [0]{}: in 0xa2-0xa4 (2)
0xa0|      41                                       |  A             |                  opcode: "i32.const" (0x41) 0xa2-0xa3 (1)
0xa0|         00                                    |   .            |                  n: 0 (valid) 0xa3-0xa4 (1)
    |                                               |                |                [1]{}: in 0xa4-0xa5 (1)
0xa0|            0b                                 |    .           |                  opcode: "end" (0xb) 0xa4-0xa5 (1)
    |                                               |                |              b{}: 0xa5-0xae (9)
0xa0|               08                              |     .          |                n: 8 (valid) 0xa5-0xa6 (1)
0xa0|                  01 00 00 00 00 00 fc 7f|     |      ........| |                x: raw bits 0xa6-0xae (8)
