$ fq -d wasm dv float_literals-1.wasm
    |00 01 02 03 04 05 06 07 08 09 0a 0b 0c 0d 0e 0f|0123456789abcdef|.{}: float_literals-1.wasm (wasm) 0x0-0x31.7 (50)
0x00|00 61 73 6d                                    |.asm            |  magic: raw bits (valid) 0x0-0x3.7 (4)
0x00|            01 00 00 00                        |    ....        |  version: 1 0x4-0x7.7 (4)
    |                                               |                |  sections[0:4]: 0x8-0x31.7 (42)
    |                                               |                |    [0]{}: section 0x8-0xe.7 (7)
0x00|                        01                     |        .       |      id: "type section" (1) 0x8-0x8.7 (1)
0x00|                           05                  |         .      |      size: 5 0x9-0x9.7 (1)
    |                                               |                |      content{}: 0xa-0xe.7 (5)
    |                                               |                |        ft{}: 0xa-0xe.7 (5)
0x00|                              01               |          .     |          n: 1 0xa-0xa.7 (1)
    |                                               |                |          x[0:1]: 0xb-0xe.7 (4)
    |                                               |                |            [0]{}: ft 0xb-0xe.7 (4)
0x00|                                 60            |           `    |              tag: 0x60 (valid) 0xb-0xb.7 (1)
    |                                               |                |              rt1{}: 0xc-0xc.7 (1)
0x00|                                    00         |            .   |                n: 0 0xc-0xc.7 (1)
    |                                               |                |                x[0:0]: 0xd-NA (0)
    |                                               |                |              rt2{}: 0xd-0xe.7 (2)
0x00|                                       01      |             .  |                n: 1 0xd-0xd.7 (1)
    |                                               |                |                x[0:1]: 0xe-0xe.7 (1)
0x00|                                          7c   |              | |                  [0]: "f64" (0x7c) t 0xe-0xe.7 (1)
    |                                               |                |    [1]{}: section 0xf-0x12.7 (4)
0x00|                                             03|               .|      id: "function section" (3) 0xf-0xf.7 (1)
0x10|02                                             |.               |      size: 2 0x10-0x10.7 (1)
    |                                               |                |      content{}: 0x11-0x12.7 (2)
    |                                               |                |        x{}: 0x11-0x12.7 (2)
0x10|   01                                          | .              |          n: 1 0x11-0x11.7 (1)
    |                                               |                |          x[0:1]: 0x12-0x12.7 (1)
0x10|      00                                       |  .             |            [0]: 0 x 0x12-0x12.7 (1)
    |                                               |                |    [2]{}: section 0x13-0x22.7 (16)
0x10|         07                                    |   .            |      id: "export section" (7) 0x13-0x13.7 (1)
0x10|            0e                                 |    .           |      size: 14 0x14-0x14.7 (1)
    |                                               |                |      content{}: 0x15-0x22.7 (14)
    |                                               |                |        ex{}: 0x15-0x22.7 (14)
0x10|               01                              |     .          |          n: 1 0x15-0x15.7 (1)
    |                                               |                |          x[0:1]: 0x16-0x22.7 (13)
    |                                               |                |            [0]{}: ex 0x16-0x22.7 (13)
    |                                               |                |              nm{}: 0x16-0x20.7 (11)
0x10|                  0a                           |      .         |                n: 10 0x16-0x16.7 (1)
0x10|                     34 32 39 34 39 36 37 32 34|       429496724|                b: "4294967249" 0x17-0x20.7 (10)
0x20|39                                             |9               |
    |                                               |                |              d{}: 0x21-0x22.7 (2)
0x20|   00                                          | .              |                tag: "funcidx" (0x0) 0x21-0x21.7 (1)
0x20|      00                                       |  .             |                x: 0 0x22-0x22.7 (1)
    |                                               |                |    [3]{}: section 0x23-0x31.7 (15)
0x20|         0a                                    |   .            |      id: "code section" (10) 0x23-0x23.7 (1)
0x20|            0d                                 |    .           |      size: 13 0x24-0x24.7 (1)
    |                                               |                |      content{}: 0x25-0x31.7 (13)
    |                                               |                |        code{}: 0x25-0x31.7 (13)
0x20|               01                              |     .          |          n: 1 0x25-0x25.7 (1)
    |                                               |                |          x[0:1]: 0x26-0x31.7 (12)
    |                                               |                |            [0]{}: code 0x26-0x31.7 (12)
0x20|                  0b                           |      .         |              size: 11 0x26-0x26.7 (1)
    |                                               |                |              code{}: 0x27-0x31.7 (11)
    |                                               |                |                t{}: 0x27-0x27.7 (1)
0x20|                     00                        |       .        |                  n: 0 0x27-0x27.7 (1)
    |                                               |                |                  x[0:0]: 0x28-NA (0)
    |                                               |                |                e[0:2]: 0x28-0x31.7 (10)
    |                                               |                |                  [0]{}: in 0x28-0x30.7 (9)
0x20|                        44                     |        D       |                    f64.const: 0x44 (valid) 0x28-0x28.7 (1)
0x20|                           00 00 20 fa ff ff ef|         .. ....|                    z: 4.294967249e+09 0x29-0x30.7 (8)
0x30|41                                             |A               |
    |                                               |                |                  [1]{}: in 0x31-0x31.7 (1)
0x30|   0b|                                         | .|             |                    end: 0xb (valid) 0x31-0x31.7 (1)
