$ fq -d wasm dv float_memory-4.wasm
    |00 01 02 03 04 05 06 07 08 09 0a 0b 0c 0d 0e 0f|0123456789abcdef|.{}: float_memory-4.wasm (wasm) 0x0-0xa0.7 (161)
0x00|00 61 73 6d                                    |.asm            |  magic: raw bits (valid) 0x0-0x3.7 (4)
0x00|            01 00 00 00                        |    ....        |  version: 1 0x4-0x7.7 (4)
    |                                               |                |  sections[0:6]: 0x8-0xa0.7 (153)
    |                                               |                |    [0]{}: section 0x8-0x15.7 (14)
0x00|                        01                     |        .       |      id: "type section" (1) 0x8-0x8.7 (1)
0x00|                           0c                  |         .      |      size: 12 0x9-0x9.7 (1)
    |                                               |                |      content{}: 0xa-0x15.7 (12)
    |                                               |                |        ft{}: 0xa-0x15.7 (12)
0x00|                              03               |          .     |          n: 3 0xa-0xa.7 (1)
    |                                               |                |          x[0:3]: 0xb-0x15.7 (11)
    |                                               |                |            [0]{}: ft 0xb-0xe.7 (4)
0x00|                                 60            |           `    |              tag: 0x60 (valid) 0xb-0xb.7 (1)
    |                                               |                |              rt1{}: 0xc-0xc.7 (1)
0x00|                                    00         |            .   |                n: 0 0xc-0xc.7 (1)
    |                                               |                |                x[0:0]: 0xd-NA (0)
    |                                               |                |              rt2{}: 0xd-0xe.7 (2)
0x00|                                       01      |             .  |                n: 1 0xd-0xd.7 (1)
    |                                               |                |                x[0:1]: 0xe-0xe.7 (1)
0x00|                                          7d   |              } |                  [0]: "f32" (0x7d) t 0xe-0xe.7 (1)
    |                                               |                |            [1]{}: ft 0xf-0x12.7 (4)
0x00|                                             60|               `|              tag: 0x60 (valid) 0xf-0xf.7 (1)
    |                                               |                |              rt1{}: 0x10-0x10.7 (1)
0x10|00                                             |.               |                n: 0 0x10-0x10.7 (1)
    |                                               |                |                x[0:0]: 0x11-NA (0)
    |                                               |                |              rt2{}: 0x11-0x12.7 (2)
0x10|   01                                          | .              |                n: 1 0x11-0x11.7 (1)
    |                                               |                |                x[0:1]: 0x12-0x12.7 (1)
0x10|      7f                                       |  .             |                  [0]: "i32" (0x7f) t 0x12-0x12.7 (1)
    |                                               |                |            [2]{}: ft 0x13-0x15.7 (3)
0x10|         60                                    |   `            |              tag: 0x60 (valid) 0x13-0x13.7 (1)
    |                                               |                |              rt1{}: 0x14-0x14.7 (1)
0x10|            00                                 |    .           |                n: 0 0x14-0x14.7 (1)
    |                                               |                |                x[0:0]: 0x15-NA (0)
    |                                               |                |              rt2{}: 0x15-0x15.7 (1)
0x10|               00                              |     .          |                n: 0 0x15-0x15.7 (1)
    |                                               |                |                x[0:0]: 0x16-NA (0)
    |                                               |                |    [1]{}: section 0x16-0x1d.7 (8)
0x10|                  03                           |      .         |      id: "function section" (3) 0x16-0x16.7 (1)
0x10|                     06                        |       .        |      size: 6 0x17-0x17.7 (1)
    |                                               |                |      content{}: 0x18-0x1d.7 (6)
    |                                               |                |        x{}: 0x18-0x1d.7 (6)
0x10|                        05                     |        .       |          n: 5 0x18-0x18.7 (1)
    |                                               |                |          x[0:5]: 0x19-0x1d.7 (5)
0x10|                           00                  |         .      |            [0]: 0 x 0x19-0x19.7 (1)
0x10|                              01               |          .     |            [1]: 1 x 0x1a-0x1a.7 (1)
0x10|                                 02            |           .    |            [2]: 2 x 0x1b-0x1b.7 (1)
0x10|                                    02         |            .   |            [3]: 2 x 0x1c-0x1c.7 (1)
0x10|                                       02      |             .  |            [4]: 2 x 0x1d-0x1d.7 (1)
    |                                               |                |    [2]{}: section 0x1e-0x23.7 (6)
0x10|                                          05   |              . |      id: "memory section" (5) 0x1e-0x1e.7 (1)
0x10|                                             04|               .|      size: 4 0x1f-0x1f.7 (1)
    |                                               |                |      content{}: 0x20-0x23.7 (4)
    |                                               |                |        mem{}: 0x20-0x23.7 (4)
0x20|01                                             |.               |          n: 1 0x20-0x20.7 (1)
    |                                               |                |          x[0:1]: 0x21-0x23.7 (3)
    |                                               |                |            [0]{}: mem 0x21-0x23.7 (3)
    |                                               |                |              lim{}: 0x21-0x23.7 (3)
0x20|   01                                          | .              |                tag: 0x1 0x21-0x21.7 (1)
0x20|      01                                       |  .             |                n: 1 0x22-0x22.7 (1)
0x20|         01                                    |   .            |                m: 1 0x23-0x23.7 (1)
    |                                               |                |    [3]{}: section 0x24-0x5c.7 (57)
0x20|            07                                 |    .           |      id: "export section" (7) 0x24-0x24.7 (1)
0x20|               37                              |     7          |      size: 55 0x25-0x25.7 (1)
    |                                               |                |      content{}: 0x26-0x5c.7 (55)
    |                                               |                |        ex{}: 0x26-0x5c.7 (55)
0x20|                  05                           |      .         |          n: 5 0x26-0x26.7 (1)
    |                                               |                |          x[0:5]: 0x27-0x5c.7 (54)
    |                                               |                |            [0]{}: ex 0x27-0x31.7 (11)
    |                                               |                |              nm{}: 0x27-0x2f.7 (9)
0x20|                     08                        |       .        |                n: 8 0x27-0x27.7 (1)
0x20|                        66 33 32 2e 6c 6f 61 64|        f32.load|                b: "f32.load" 0x28-0x2f.7 (8)
    |                                               |                |              d{}: 0x30-0x31.7 (2)
0x30|00                                             |.               |                tag: "funcidx" (0x0) 0x30-0x30.7 (1)
0x30|   00                                          | .              |                x: 0 0x31-0x31.7 (1)
    |                                               |                |            [1]{}: ex 0x32-0x3c.7 (11)
    |                                               |                |              nm{}: 0x32-0x3a.7 (9)
0x30|      08                                       |  .             |                n: 8 0x32-0x32.7 (1)
0x30|         69 33 32 2e 6c 6f 61 64               |   i32.load     |                b: "i32.load" 0x33-0x3a.7 (8)
    |                                               |                |              d{}: 0x3b-0x3c.7 (2)
0x30|                                 00            |           .    |                tag: "funcidx" (0x0) 0x3b-0x3b.7 (1)
0x30|                                    01         |            .   |                x: 1 0x3c-0x3c.7 (1)
    |                                               |                |            [2]{}: ex 0x3d-0x48.7 (12)
    |                                               |                |              nm{}: 0x3d-0x46.7 (10)
0x30|                                       09      |             .  |                n: 9 0x3d-0x3d.7 (1)
0x30|                                          66 33|              f3|                b: "f32.store" 0x3e-0x46.7 (9)
0x40|32 2e 73 74 6f 72 65                           |2.store         |
    |                                               |                |              d{}: 0x47-0x48.7 (2)
0x40|                     00                        |       .        |                tag: "funcidx" (0x0) 0x47-0x47.7 (1)
0x40|                        02                     |        .       |                x: 2 0x48-0x48.7 (1)
    |                                               |                |            [3]{}: ex 0x49-0x54.7 (12)
    |                                               |                |              nm{}: 0x49-0x52.7 (10)
0x40|                           09                  |         .      |                n: 9 0x49-0x49.7 (1)
0x40|                              69 33 32 2e 73 74|          i32.st|                b: "i32.store" 0x4a-0x52.7 (9)
0x50|6f 72 65                                       |ore             |
    |                                               |                |              d{}: 0x53-0x54.7 (2)
0x50|         00                                    |   .            |                tag: "funcidx" (0x0) 0x53-0x53.7 (1)
0x50|            03                                 |    .           |                x: 3 0x54-0x54.7 (1)
    |                                               |                |            [4]{}: ex 0x55-0x5c.7 (8)
    |                                               |                |              nm{}: 0x55-0x5a.7 (6)
0x50|               05                              |     .          |                n: 5 0x55-0x55.7 (1)
0x50|                  72 65 73 65 74               |      reset     |                b: "reset" 0x56-0x5a.7 (5)
    |                                               |                |              d{}: 0x5b-0x5c.7 (2)
0x50|                                 00            |           .    |                tag: "funcidx" (0x0) 0x5b-0x5b.7 (1)
0x50|                                    04         |            .   |                x: 4 0x5c-0x5c.7 (1)
    |                                               |                |    [4]{}: section 0x5d-0x94.7 (56)
0x50|                                       0a      |             .  |      id: "code section" (10) 0x5d-0x5d.7 (1)
0x50|                                          36   |              6 |      size: 54 0x5e-0x5e.7 (1)
    |                                               |                |      content{}: 0x5f-0x94.7 (54)
    |                                               |                |        code{}: 0x5f-0x94.7 (54)
0x50|                                             05|               .|          n: 5 0x5f-0x5f.7 (1)
    |                                               |                |          x[0:5]: 0x60-0x94.7 (53)
    |                                               |                |            [0]{}: code 0x60-0x67.7 (8)
0x60|07                                             |.               |              size: 7 0x60-0x60.7 (1)
    |                                               |                |              code{}: 0x61-0x67.7 (7)
    |                                               |                |                t{}: 0x61-0x61.7 (1)
0x60|   00                                          | .              |                  n: 0 0x61-0x61.7 (1)
    |                                               |                |                  x[0:0]: 0x62-NA (0)
    |                                               |                |                e[0:3]: 0x62-0x67.7 (6)
    |                                               |                |                  [0]{}: in 0x62-0x63.7 (2)
0x60|      41                                       |  A             |                    i32.const: 0x41 (valid) 0x62-0x62.7 (1)
0x60|         00                                    |   .            |                    n: 0 0x63-0x63.7 (1)
    |                                               |                |                  [1]{}: in 0x64-0x66.7 (3)
0x60|            2a                                 |    *           |                    f32.load: 0x2a (valid) 0x64-0x64.7 (1)
    |                                               |                |                    m{}: 0x65-0x66.7 (2)
0x60|               02                              |     .          |                      a: 2 0x65-0x65.7 (1)
0x60|                  00                           |      .         |                      o: 0 0x66-0x66.7 (1)
    |                                               |                |                  [2]{}: in 0x67-0x67.7 (1)
0x60|                     0b                        |       .        |                    end: 0xb (valid) 0x67-0x67.7 (1)
    |                                               |                |            [1]{}: code 0x68-0x6f.7 (8)
0x60|                        07                     |        .       |              size: 7 0x68-0x68.7 (1)
    |                                               |                |              code{}: 0x69-0x6f.7 (7)
    |                                               |                |                t{}: 0x69-0x69.7 (1)
0x60|                           00                  |         .      |                  n: 0 0x69-0x69.7 (1)
    |                                               |                |                  x[0:0]: 0x6a-NA (0)
    |                                               |                |                e[0:3]: 0x6a-0x6f.7 (6)
    |                                               |                |                  [0]{}: in 0x6a-0x6b.7 (2)
0x60|                              41               |          A     |                    i32.const: 0x41 (valid) 0x6a-0x6a.7 (1)
0x60|                                 00            |           .    |                    n: 0 0x6b-0x6b.7 (1)
    |                                               |                |                  [1]{}: in 0x6c-0x6e.7 (3)
0x60|                                    28         |            (   |                    i32.load: 0x28 (valid) 0x6c-0x6c.7 (1)
    |                                               |                |                    m{}: 0x6d-0x6e.7 (2)
0x60|                                       02      |             .  |                      a: 2 0x6d-0x6d.7 (1)
0x60|                                          00   |              . |                      o: 0 0x6e-0x6e.7 (1)
    |                                               |                |                  [2]{}: in 0x6f-0x6f.7 (1)
0x60|                                             0b|               .|                    end: 0xb (valid) 0x6f-0x6f.7 (1)
    |                                               |                |            [2]{}: code 0x70-0x7c.7 (13)
0x70|0c                                             |.               |              size: 12 0x70-0x70.7 (1)
    |                                               |                |              code{}: 0x71-0x7c.7 (12)
    |                                               |                |                t{}: 0x71-0x71.7 (1)
0x70|   00                                          | .              |                  n: 0 0x71-0x71.7 (1)
    |                                               |                |                  x[0:0]: 0x72-NA (0)
    |                                               |                |                e[0:4]: 0x72-0x7c.7 (11)
    |                                               |                |                  [0]{}: in 0x72-0x73.7 (2)
0x70|      41                                       |  A             |                    i32.const: 0x41 (valid) 0x72-0x72.7 (1)
0x70|         00                                    |   .            |                    n: 0 0x73-0x73.7 (1)
    |                                               |                |                  [1]{}: in 0x74-0x78.7 (5)
0x70|            43                                 |    C           |                    f32.const: 0x43 (valid) 0x74-0x74.7 (1)
0x70|               01 00 d0 7f                     |     ....       |                    z: NaN 0x75-0x78.7 (4)
    |                                               |                |                  [2]{}: in 0x79-0x7b.7 (3)
0x70|                           38                  |         8      |                    f32.store: 0x38 (valid) 0x79-0x79.7 (1)
    |                                               |                |                    m{}: 0x7a-0x7b.7 (2)
0x70|                              02               |          .     |                      a: 2 0x7a-0x7a.7 (1)
0x70|                                 00            |           .    |                      o: 0 0x7b-0x7b.7 (1)
    |                                               |                |                  [3]{}: in 0x7c-0x7c.7 (1)
0x70|                                    0b         |            .   |                    end: 0xb (valid) 0x7c-0x7c.7 (1)
    |                                               |                |            [3]{}: code 0x7d-0x8a.7 (14)
0x70|                                       0d      |             .  |              size: 13 0x7d-0x7d.7 (1)
    |                                               |                |              code{}: 0x7e-0x8a.7 (13)
    |                                               |                |                t{}: 0x7e-0x7e.7 (1)
0x70|                                          00   |              . |                  n: 0 0x7e-0x7e.7 (1)
    |                                               |                |                  x[0:0]: 0x7f-NA (0)
    |                                               |                |                e[0:4]: 0x7f-0x8a.7 (12)
    |                                               |                |                  [0]{}: in 0x7f-0x80.7 (2)
0x70|                                             41|               A|                    i32.const: 0x41 (valid) 0x7f-0x7f.7 (1)
0x80|00                                             |.               |                    n: 0 0x80-0x80.7 (1)
    |                                               |                |                  [1]{}: in 0x81-0x86.7 (6)
0x80|   41                                          | A              |                    i32.const: 0x41 (valid) 0x81-0x81.7 (1)
0x80|      81 80 c0 fe 07                           |  .....         |                    n: 2144337921 0x82-0x86.7 (5)
    |                                               |                |                  [2]{}: in 0x87-0x89.7 (3)
0x80|                     36                        |       6        |                    i32.store: 0x36 (valid) 0x87-0x87.7 (1)
    |                                               |                |                    m{}: 0x88-0x89.7 (2)
0x80|                        02                     |        .       |                      a: 2 0x88-0x88.7 (1)
0x80|                           00                  |         .      |                      o: 0 0x89-0x89.7 (1)
    |                                               |                |                  [3]{}: in 0x8a-0x8a.7 (1)
0x80|                              0b               |          .     |                    end: 0xb (valid) 0x8a-0x8a.7 (1)
    |                                               |                |            [4]{}: code 0x8b-0x94.7 (10)
0x80|                                 09            |           .    |              size: 9 0x8b-0x8b.7 (1)
    |                                               |                |              code{}: 0x8c-0x94.7 (9)
    |                                               |                |                t{}: 0x8c-0x8c.7 (1)
0x80|                                    00         |            .   |                  n: 0 0x8c-0x8c.7 (1)
    |                                               |                |                  x[0:0]: 0x8d-NA (0)
    |                                               |                |                e[0:4]: 0x8d-0x94.7 (8)
    |                                               |                |                  [0]{}: in 0x8d-0x8e.7 (2)
0x80|                                       41      |             A  |                    i32.const: 0x41 (valid) 0x8d-0x8d.7 (1)
0x80|                                          00   |              . |                    n: 0 0x8e-0x8e.7 (1)
    |                                               |                |                  [1]{}: in 0x8f-0x90.7 (2)
0x80|                                             41|               A|                    i32.const: 0x41 (valid) 0x8f-0x8f.7 (1)
0x90|00                                             |.               |                    n: 0 0x90-0x90.7 (1)
    |                                               |                |                  [2]{}: in 0x91-0x93.7 (3)
0x90|   36                                          | 6              |                    i32.store: 0x36 (valid) 0x91-0x91.7 (1)
    |                                               |                |                    m{}: 0x92-0x93.7 (2)
0x90|      02                                       |  .             |                      a: 2 0x92-0x92.7 (1)
0x90|         00                                    |   .            |                      o: 0 0x93-0x93.7 (1)
    |                                               |                |                  [3]{}: in 0x94-0x94.7 (1)
0x90|            0b                                 |    .           |                    end: 0xb (valid) 0x94-0x94.7 (1)
    |                                               |                |    [5]{}: section 0x95-0xa0.7 (12)
0x90|               0b                              |     .          |      id: "data section" (11) 0x95-0x95.7 (1)
0x90|                  0a                           |      .         |      size: 10 0x96-0x96.7 (1)
    |                                               |                |      content{}: 0x97-0xa0.7 (10)
    |                                               |                |        seg{}: 0x97-0xa0.7 (10)
0x90|                     01                        |       .        |          n: 1 0x97-0x97.7 (1)
    |                                               |                |          x[0:1]: 0x98-0xa0.7 (9)
    |                                               |                |            [0]{}: seg 0x98-0xa0.7 (9)
0x90|                        00                     |        .       |              tag: 0 0x98-0x98.7 (1)
    |                                               |                |              e[0:2]: 0x99-0x9b.7 (3)
    |                                               |                |                [0]{}: in 0x99-0x9a.7 (2)
0x90|                           41                  |         A      |                  i32.const: 0x41 (valid) 0x99-0x99.7 (1)
0x90|                              00               |          .     |                  n: 0 0x9a-0x9a.7 (1)
    |                                               |                |                [1]{}: in 0x9b-0x9b.7 (1)
0x90|                                 0b            |           .    |                  end: 0xb (valid) 0x9b-0x9b.7 (1)
    |                                               |                |              b{}: 0x9c-0xa0.7 (5)
0x90|                                    04         |            .   |                n: 4 0x9c-0x9c.7 (1)
0x90|                                       01 00 d0|             ...|                x: raw bits 0x9d-0xa0.7 (4)
0xa0|7f|                                            |.|              |
