$ fq -d wasm dv float_exprs-7.wasm
    |00 01 02 03 04 05 06 07 08 09 0a 0b 0c 0d 0e 0f|0123456789abcdef|.{}: float_exprs-7.wasm (wasm) 0x0-0x68 (104)
0x00|00 61 73 6d                                    |.asm            |  magic: raw bits (valid) 0x0-0x4 (4)
0x00|            01 00 00 00                        |    ....        |  version: 1 0x4-0x8 (4)
    |                                               |                |  sections[0:4]: 0x8-0x68 (96)
    |                                               |                |    [0]{}: section 0x8-0x15 (13)
0x00|                        01                     |        .       |      id: "type_section" (1) 0x8-0x9 (1)
0x00|                           0b                  |         .      |      size: 11 (valid) 0x9-0xa (1)
    |                                               |                |      content{}: 0xa-0x15 (11)
    |                                               |                |        ft{}: 0xa-0x15 (11)
0x00|                              02               |          .     |          n: 2 (valid) 0xa-0xb (1)
    |                                               |                |          x[0:2]: 0xb-0x15 (10)
    |                                               |                |            [0]{}: ft 0xb-0x10 (5)
0x00|                                 60            |           `    |              tag: 0x60 (valid) 0xb-0xc (1)
    |                                               |                |              rt1{}: 0xc-0xe (2)
0x00|                                    01         |            .   |                n: 1 (valid) 0xc-0xd (1)
    |                                               |                |                x[0:1]: 0xd-0xe (1)
0x00|                                       7d      |             }  |                  [0]: "f32" (0x7d) t 0xd-0xe (1)
    |                                               |                |              rt2{}: 0xe-0x10 (2)
0x00|                                          01   |              . |                n: 1 (valid) 0xe-0xf (1)
    |                                               |                |                x[0:1]: 0xf-0x10 (1)
0x00|                                             7d|               }|                  [0]: "f32" (0x7d) t 0xf-0x10 (1)
    |                                               |                |            [1]{}: ft 0x10-0x15 (5)
0x10|60                                             |`               |              tag: 0x60 (valid) 0x10-0x11 (1)
    |                                               |                |              rt1{}: 0x11-0x13 (2)
0x10|   01                                          | .              |                n: 1 (valid) 0x11-0x12 (1)
    |                                               |                |                x[0:1]: 0x12-0x13 (1)
0x10|      7c                                       |  |             |                  [0]: "f64" (0x7c) t 0x12-0x13 (1)
    |                                               |                |              rt2{}: 0x13-0x15 (2)
0x10|         01                                    |   .            |                n: 1 (valid) 0x13-0x14 (1)
    |                                               |                |                x[0:1]: 0x14-0x15 (1)
0x10|            7c                                 |    |           |                  [0]: "f64" (0x7c) t 0x14-0x15 (1)
    |                                               |                |    [1]{}: section 0x15-0x1a (5)
0x10|               03                              |     .          |      id: "function_section" (3) 0x15-0x16 (1)
0x10|                  03                           |      .         |      size: 3 (valid) 0x16-0x17 (1)
    |                                               |                |      content{}: 0x17-0x1a (3)
    |                                               |                |        x{}: 0x17-0x1a (3)
0x10|                     02                        |       .        |          n: 2 (valid) 0x17-0x18 (1)
    |                                               |                |          x[0:2]: 0x18-0x1a (2)
0x10|                        00                     |        .       |            [0]: 0 x (valid) 0x18-0x19 (1)
0x10|                           01                  |         .      |            [1]: 1 x (valid) 0x19-0x1a (1)
    |                                               |                |    [2]{}: section 0x1a-0x4b (49)
0x10|                              07               |          .     |      id: "export_section" (7) 0x1a-0x1b (1)
0x10|                                 2f            |           /    |      size: 47 (valid) 0x1b-0x1c (1)
    |                                               |                |      content{}: 0x1c-0x4b (47)
    |                                               |                |        ex{}: 0x1c-0x4b (47)
0x10|                                    02         |            .   |          n: 2 (valid) 0x1c-0x1d (1)
    |                                               |                |          x[0:2]: 0x1d-0x4b (46)
    |                                               |                |            [0]{}: ex 0x1d-0x34 (23)
    |                                               |                |              nm{}: 0x1d-0x32 (21)
0x10|                                       14      |             .  |                n: 20 (valid) 0x1d-0x1e (1)
0x10|                                          66 33|              f3|                b: "f32.no_fold_zero_div" 0x1e-0x32 (20)
0x20|32 2e 6e 6f 5f 66 6f 6c 64 5f 7a 65 72 6f 5f 64|2.no_fold_zero_d|
0x30|69 76                                          |iv              |
    |                                               |                |              d{}: 0x32-0x34 (2)
0x30|      00                                       |  .             |                tag: "funcidx" (0x0) 0x32-0x33 (1)
0x30|         00                                    |   .            |                x: 0 (valid) 0x33-0x34 (1)
    |                                               |                |            [1]{}: ex 0x34-0x4b (23)
    |                                               |                |              nm{}: 0x34-0x49 (21)
0x30|            14                                 |    .           |                n: 20 (valid) 0x34-0x35 (1)
0x30|               66 36 34 2e 6e 6f 5f 66 6f 6c 64|     f64.no_fold|                b: "f64.no_fold_zero_div" 0x35-0x49 (20)
0x40|5f 7a 65 72 6f 5f 64 69 76                     |_zero_div       |
    |                                               |                |              d{}: 0x49-0x4b (2)
0x40|                           00                  |         .      |                tag: "funcidx" (0x0) 0x49-0x4a (1)
0x40|                              01               |          .     |                x: 1 (valid) 0x4a-0x4b (1)
    |                                               |                |    [3]{}: section 0x4b-0x68 (29)
0x40|                                 0a            |           .    |      id: "code_section" (10) 0x4b-0x4c (1)
0x40|                                    1b         |            .   |      size: 27 (valid) 0x4c-0x4d (1)
    |                                               |                |      content{}: 0x4d-0x68 (27)
    |                                               |                |        code{}: 0x4d-0x68 (27)
0x40|                                       02      |             .  |          n: 2 (valid) 0x4d-0x4e (1)
    |                                               |                |          x[0:2]: 0x4e-0x68 (26)
    |                                               |                |            [0]{}: code 0x4e-0x59 (11)
0x40|                                          0a   |              . |              size: 10 (valid) 0x4e-0x4f (1)
    |                                               |                |              code{}: 0x4f-0x59 (10)
    |                                               |                |                t{}: 0x4f-0x50 (1)
0x40|                                             00|               .|                  n: 0 (valid) 0x4f-0x50 (1)
    |                                               |                |                  x[0:0]: 0x50-0x50 (0)
    |                                               |                |                e[0:4]: 0x50-0x59 (9)
    |                                               |                |                  [0]{}: in 0x50-0x55 (5)
0x50|43                                             |C               |                    opcode: "f32.const" (0x43) 0x50-0x51 (1)
0x50|   00 00 00 00                                 | ....           |                    z: 0 0x51-0x55 (4)
    |                                               |                |                  [1]{}: in 0x55-0x57 (2)
0x50|               20                              |                |                    opcode: "local.get" (0x20) 0x55-0x56 (1)
0x50|                  00                           |      .         |                    x: 0 (valid) 0x56-0x57 (1)
    |                                               |                |                  [2]{}: in 0x57-0x58 (1)
0x50|                     95                        |       .        |                    opcode: "f32.div" (0x95) 0x57-0x58 (1)
    |                                               |                |                  [3]{}: in 0x58-0x59 (1)
0x50|                        0b                     |        .       |                    opcode: "end" (0xb) 0x58-0x59 (1)
    |                                               |                |            [1]{}: code 0x59-0x68 (15)
0x50|                           0e                  |         .      |              size: 14 (valid) 0x59-0x5a (1)
    |                                               |                |              code{}: 0x5a-0x68 (14)
    |                                               |                |                t{}: 0x5a-0x5b (1)
0x50|                              00               |          .     |                  n: 0 (valid) 0x5a-0x5b (1)
    |                                               |                |                  x[0:0]: 0x5b-0x5b (0)
    |                                               |                |                e[0:4]: 0x5b-0x68 (13)
    |                                               |                |                  [0]{}: in 0x5b-0x64 (9)
0x50|                                 44            |           D    |                    opcode: "f64.const" (0x44) 0x5b-0x5c (1)
0x50|                                    00 00 00 00|            ....|                    z: 0 0x5c-0x64 (8)
0x60|00 00 00 00                                    |....            |
    |                                               |                |                  [1]{}: in 0x64-0x66 (2)
0x60|            20                                 |                |                    opcode: "local.get" (0x20) 0x64-0x65 (1)
0x60|               00                              |     .          |                    x: 0 (valid) 0x65-0x66 (1)
    |                                               |                |                  [2]{}: in 0x66-0x67 (1)
0x60|                  a3                           |      .         |                    opcode: "f64.div" (0xa3) 0x66-0x67 (1)
    |                                               |                |                  [3]{}: in 0x67-0x68 (1)
0x60|                     0b|                       |       .|       |                    opcode: "end" (0xb) 0x67-0x68 (1)
