$ fq -d wasm dv float_exprs-43.wasm
     |00 01 02 03 04 05 06 07 08 09 0a 0b 0c 0d 0e 0f|0123456789abcdef|.{}: float_exprs-43.wasm (wasm) 0x0-0x151 (337)
0x000|00 61 73 6d                                    |.asm            |  magic: raw bits (valid) 0x0-0x4 (4)
0x000|            01 00 00 00                        |    ....        |  version: 1 0x4-0x8 (4)
     |                                               |                |  sections[0:4]: 0x8-0x151 (329)
     |                                               |                |    [0]{}: section 0x8-0x17 (15)
0x000|                        01                     |        .       |      id: "type_section" (1) 0x8-0x9 (1)
0x000|                           0d                  |         .      |      size: 13 (valid) 0x9-0xa (1)
     |                                               |                |      content{}: 0xa-0x17 (13)
     |                                               |                |        ft{}: 0xa-0x17 (13)
0x000|                              02               |          .     |          n: 2 (valid) 0xa-0xb (1)
     |                                               |                |          x[0:2]: 0xb-0x17 (12)
     |                                               |                |            [0]{}: ft 0xb-0x11 (6)
0x000|                                 60            |           `    |              tag: 0x60 (valid) 0xb-0xc (1)
     |                                               |                |              rt1{}: 0xc-0xf (3)
0x000|                                    02         |            .   |                n: 2 (valid) 0xc-0xd (1)
     |                                               |                |                x[0:2]: 0xd-0xf (2)
0x000|                                       7d      |             }  |                  [0]: "f32" (0x7d) t 0xd-0xe (1)
0x000|                                          7d   |              } |                  [1]: "f32" (0x7d) t 0xe-0xf (1)
     |                                               |                |              rt2{}: 0xf-0x11 (2)
0x000|                                             01|               .|                n: 1 (valid) 0xf-0x10 (1)
     |                                               |                |                x[0:1]: 0x10-0x11 (1)
0x010|7d                                             |}               |                  [0]: "f32" (0x7d) t 0x10-0x11 (1)
     |                                               |                |            [1]{}: ft 0x11-0x17 (6)
0x010|   60                                          | `              |              tag: 0x60 (valid) 0x11-0x12 (1)
     |                                               |                |              rt1{}: 0x12-0x15 (3)
0x010|      02                                       |  .             |                n: 2 (valid) 0x12-0x13 (1)
     |                                               |                |                x[0:2]: 0x13-0x15 (2)
0x010|         7c                                    |   |            |                  [0]: "f64" (0x7c) t 0x13-0x14 (1)
0x010|            7c                                 |    |           |                  [1]: "f64" (0x7c) t 0x14-0x15 (1)
     |                                               |                |              rt2{}: 0x15-0x17 (2)
0x010|               01                              |     .          |                n: 1 (valid) 0x15-0x16 (1)
     |                                               |                |                x[0:1]: 0x16-0x17 (1)
0x010|                  7c                           |      |         |                  [0]: "f64" (0x7c) t 0x16-0x17 (1)
     |                                               |                |    [1]{}: section 0x17-0x22 (11)
0x010|                     03                        |       .        |      id: "function_section" (3) 0x17-0x18 (1)
0x010|                        09                     |        .       |      size: 9 (valid) 0x18-0x19 (1)
     |                                               |                |      content{}: 0x19-0x22 (9)
     |                                               |                |        x{}: 0x19-0x22 (9)
0x010|                           08                  |         .      |          n: 8 (valid) 0x19-0x1a (1)
     |                                               |                |          x[0:8]: 0x1a-0x22 (8)
0x010|                              00               |          .     |            [0]: 0 x (valid) 0x1a-0x1b (1)
0x010|                                 00            |           .    |            [1]: 0 x (valid) 0x1b-0x1c (1)
0x010|                                    00         |            .   |            [2]: 0 x (valid) 0x1c-0x1d (1)
0x010|                                       00      |             .  |            [3]: 0 x (valid) 0x1d-0x1e (1)
0x010|                                          01   |              . |            [4]: 1 x (valid) 0x1e-0x1f (1)
0x010|                                             01|               .|            [5]: 1 x (valid) 0x1f-0x20 (1)
0x020|01                                             |.               |            [6]: 1 x (valid) 0x20-0x21 (1)
0x020|   01                                          | .              |            [7]: 1 x (valid) 0x21-0x22 (1)
     |                                               |                |    [2]{}: section 0x22-0xe6 (196)
0x020|      07                                       |  .             |      id: "export_section" (7) 0x22-0x23 (1)
0x020|         c1 01                                 |   ..           |      size: 193 (valid) 0x23-0x25 (2)
     |                                               |                |      content{}: 0x25-0xe6 (193)
     |                                               |                |        ex{}: 0x25-0xe6 (193)
0x020|               08                              |     .          |          n: 8 (valid) 0x25-0x26 (1)
     |                                               |                |          x[0:8]: 0x26-0xe6 (192)
     |                                               |                |            [0]{}: ex 0x26-0x3e (24)
     |                                               |                |              nm{}: 0x26-0x3c (22)
0x020|                  15                           |      .         |                n: 21 (valid) 0x26-0x27 (1)
0x020|                     66 33 32 2e 6e 6f 5f 66 6f|       f32.no_fo|                b: "f32.no_fold_lt_select" 0x27-0x3c (21)
0x030|6c 64 5f 6c 74 5f 73 65 6c 65 63 74            |ld_lt_select    |
     |                                               |                |              d{}: 0x3c-0x3e (2)
0x030|                                    00         |            .   |                tag: "funcidx" (0x0) 0x3c-0x3d (1)
0x030|                                       00      |             .  |                x: 0 (valid) 0x3d-0x3e (1)
     |                                               |                |            [1]{}: ex 0x3e-0x56 (24)
     |                                               |                |              nm{}: 0x3e-0x54 (22)
0x030|                                          15   |              . |                n: 21 (valid) 0x3e-0x3f (1)
0x030|                                             66|               f|                b: "f32.no_fold_le_select" 0x3f-0x54 (21)
0x040|33 32 2e 6e 6f 5f 66 6f 6c 64 5f 6c 65 5f 73 65|32.no_fold_le_se|
0x050|6c 65 63 74                                    |lect            |
     |                                               |                |              d{}: 0x54-0x56 (2)
0x050|            00                                 |    .           |                tag: "funcidx" (0x0) 0x54-0x55 (1)
0x050|               01                              |     .          |                x: 1 (valid) 0x55-0x56 (1)
     |                                               |                |            [2]{}: ex 0x56-0x6e (24)
     |                                               |                |              nm{}: 0x56-0x6c (22)
0x050|                  15                           |      .         |                n: 21 (valid) 0x56-0x57 (1)
0x050|                     66 33 32 2e 6e 6f 5f 66 6f|       f32.no_fo|                b: "f32.no_fold_gt_select" 0x57-0x6c (21)
0x060|6c 64 5f 67 74 5f 73 65 6c 65 63 74            |ld_gt_select    |
     |                                               |                |              d{}: 0x6c-0x6e (2)
0x060|                                    00         |            .   |                tag: "funcidx" (0x0) 0x6c-0x6d (1)
0x060|                                       02      |             .  |                x: 2 (valid) 0x6d-0x6e (1)
     |                                               |                |            [3]{}: ex 0x6e-0x86 (24)
     |                                               |                |              nm{}: 0x6e-0x84 (22)
0x060|                                          15   |              . |                n: 21 (valid) 0x6e-0x6f (1)
0x060|                                             66|               f|                b: "f32.no_fold_ge_select" 0x6f-0x84 (21)
0x070|33 32 2e 6e 6f 5f 66 6f 6c 64 5f 67 65 5f 73 65|32.no_fold_ge_se|
0x080|6c 65 63 74                                    |lect            |
     |                                               |                |              d{}: 0x84-0x86 (2)
0x080|            00                                 |    .           |                tag: "funcidx" (0x0) 0x84-0x85 (1)
0x080|               03                              |     .          |                x: 3 (valid) 0x85-0x86 (1)
     |                                               |                |            [4]{}: ex 0x86-0x9e (24)
     |                                               |                |              nm{}: 0x86-0x9c (22)
0x080|                  15                           |      .         |                n: 21 (valid) 0x86-0x87 (1)
0x080|                     66 36 34 2e 6e 6f 5f 66 6f|       f64.no_fo|                b: "f64.no_fold_lt_select" 0x87-0x9c (21)
0x090|6c 64 5f 6c 74 5f 73 65 6c 65 63 74            |ld_lt_select    |
     |                                               |                |              d{}: 0x9c-0x9e (2)
0x090|                                    00         |            .   |                tag: "funcidx" (0x0) 0x9c-0x9d (1)
0x090|                                       04      |             .  |                x: 4 (valid) 0x9d-0x9e (1)
     |                                               |                |            [5]{}: ex 0x9e-0xb6 (24)
     |                                               |                |              nm{}: 0x9e-0xb4 (22)
0x090|                                          15   |              . |                n: 21 (valid) 0x9e-0x9f (1)
0x090|                                             66|               f|                b: "f64.no_fold_le_select" 0x9f-0xb4 (21)
0x0a0|36 34 2e 6e 6f 5f 66 6f 6c 64 5f 6c 65 5f 73 65|64.no_fold_le_se|
0x0b0|6c 65 63 74                                    |lect            |
     |                                               |                |              d{}: 0xb4-0xb6 (2)
0x0b0|            00                                 |    .           |                tag: "funcidx" (0x0) 0xb4-0xb5 (1)
0x0b0|               05                              |     .          |                x: 5 (valid) 0xb5-0xb6 (1)
     |                                               |                |            [6]{}: ex 0xb6-0xce (24)
     |                                               |                |              nm{}: 0xb6-0xcc (22)
0x0b0|                  15                           |      .         |                n: 21 (valid) 0xb6-0xb7 (1)
0x0b0|                     66 36 34 2e 6e 6f 5f 66 6f|       f64.no_fo|                b: "f64.no_fold_gt_select" 0xb7-0xcc (21)
0x0c0|6c 64 5f 67 74 5f 73 65 6c 65 63 74            |ld_gt_select    |
     |                                               |                |              d{}: 0xcc-0xce (2)
0x0c0|                                    00         |            .   |                tag: "funcidx" (0x0) 0xcc-0xcd (1)
0x0c0|                                       06      |             .  |                x: 6 (valid) 0xcd-0xce (1)
     |                                               |                |            [7]{}: ex 0xce-0xe6 (24)
     |                                               |                |              nm{}: 0xce-0xe4 (22)
0x0c0|                                          15   |              . |                n: 21 (valid) 0xce-0xcf (1)
0x0c0|                                             66|               f|                b: "f64.no_fold_ge_select" 0xcf-0xe4 (21)
0x0d0|36 34 2e 6e 6f 5f 66 6f 6c 64 5f 67 65 5f 73 65|64.no_fold_ge_se|
0x0e0|6c 65 63 74                                    |lect            |
     |                                               |                |              d{}: 0xe4-0xe6 (2)
0x0e0|            00                                 |    .           |                tag: "funcidx" (0x0) 0xe4-0xe5 (1)
0x0e0|               07                              |     .          |                x: 7 (valid) 0xe5-0xe6 (1)
     |                                               |                |    [3]{}: section 0xe6-0x151 (107)
0x0e0|                  0a                           |      .         |      id: "code_section" (10) 0xe6-0xe7 (1)
0x0e0|                     69                        |       i        |      size: 105 (valid) 0xe7-0xe8 (1)
     |                                               |                |      content{}: 0xe8-0x151 (105)
     |                                               |                |        code{}: 0xe8-0x151 (105)
0x0e0|                        08                     |        .       |          n: 8 (valid) 0xe8-0xe9 (1)
     |                                               |                |          x[0:8]: 0xe9-0x151 (104)
     |                                               |                |            [0]{}: code 0xe9-0xf6 (13)
0x0e0|                           0c                  |         .      |              size: 12 (valid) 0xe9-0xea (1)
     |                                               |                |              code{}: 0xea-0xf6 (12)
     |                                               |                |                t{}: 0xea-0xeb (1)
0x0e0|                              00               |          .     |                  n: 0 (valid) 0xea-0xeb (1)
     |                                               |                |                  x[0:0]: 0xeb-0xeb (0)
     |                                               |                |                e[0:7]: 0xeb-0xf6 (11)
     |                                               |                |                  [0]{}: in 0xeb-0xed (2)
0x0e0|                                 20            |                |                    opcode: "local.get" (0x20) 0xeb-0xec (1)
0x0e0|                                    00         |            .   |                    x: 0 (valid) 0xec-0xed (1)
     |                                               |                |                  [1]{}: in 0xed-0xef (2)
0x0e0|                                       20      |                |                    opcode: "local.get" (0x20) 0xed-0xee (1)
0x0e0|                                          01   |              . |                    x: 1 (valid) 0xee-0xef (1)
     |                                               |                |                  [2]{}: in 0xef-0xf1 (2)
0x0e0|                                             20|                |                    opcode: "local.get" (0x20) 0xef-0xf0 (1)
0x0f0|00                                             |.               |                    x: 0 (valid) 0xf0-0xf1 (1)
     |                                               |                |                  [3]{}: in 0xf1-0xf3 (2)
0x0f0|   20                                          |                |                    opcode: "local.get" (0x20) 0xf1-0xf2 (1)
0x0f0|      01                                       |  .             |                    x: 1 (valid) 0xf2-0xf3 (1)
     |                                               |                |                  [4]{}: in 0xf3-0xf4 (1)
0x0f0|         5d                                    |   ]            |                    opcode: "f32.lt" (0x5d) 0xf3-0xf4 (1)
     |                                               |                |                  [5]{}: in 0xf4-0xf5 (1)
0x0f0|            1b                                 |    .           |                    opcode: "select" (0x1b) 0xf4-0xf5 (1)
     |                                               |                |                  [6]{}: in 0xf5-0xf6 (1)
0x0f0|               0b                              |     .          |                    opcode: "end" (0xb) 0xf5-0xf6 (1)
     |                                               |                |            [1]{}: code 0xf6-0x103 (13)
0x0f0|                  0c                           |      .         |              size: 12 (valid) 0xf6-0xf7 (1)
     |                                               |                |              code{}: 0xf7-0x103 (12)
     |                                               |                |                t{}: 0xf7-0xf8 (1)
0x0f0|                     00                        |       .        |                  n: 0 (valid) 0xf7-0xf8 (1)
     |                                               |                |                  x[0:0]: 0xf8-0xf8 (0)
     |                                               |                |                e[0:7]: 0xf8-0x103 (11)
     |                                               |                |                  [0]{}: in 0xf8-0xfa (2)
0x0f0|                        20                     |                |                    opcode: "local.get" (0x20) 0xf8-0xf9 (1)
0x0f0|                           00                  |         .      |                    x: 0 (valid) 0xf9-0xfa (1)
     |                                               |                |                  [1]{}: in 0xfa-0xfc (2)
0x0f0|                              20               |                |                    opcode: "local.get" (0x20) 0xfa-0xfb (1)
0x0f0|                                 01            |           .    |                    x: 1 (valid) 0xfb-0xfc (1)
     |                                               |                |                  [2]{}: in 0xfc-0xfe (2)
0x0f0|                                    20         |                |                    opcode: "local.get" (0x20) 0xfc-0xfd (1)
0x0f0|                                       00      |             .  |                    x: 0 (valid) 0xfd-0xfe (1)
     |                                               |                |                  [3]{}: in 0xfe-0x100 (2)
0x0f0|                                          20   |                |                    opcode: "local.get" (0x20) 0xfe-0xff (1)
0x0f0|                                             01|               .|                    x: 1 (valid) 0xff-0x100 (1)
     |                                               |                |                  [4]{}: in 0x100-0x101 (1)
0x100|5f                                             |_               |                    opcode: "f32.le" (0x5f) 0x100-0x101 (1)
     |                                               |                |                  [5]{}: in 0x101-0x102 (1)
0x100|   1b                                          | .              |                    opcode: "select" (0x1b) 0x101-0x102 (1)
     |                                               |                |                  [6]{}: in 0x102-0x103 (1)
0x100|      0b                                       |  .             |                    opcode: "end" (0xb) 0x102-0x103 (1)
     |                                               |                |            [2]{}: code 0x103-0x110 (13)
0x100|         0c                                    |   .            |              size: 12 (valid) 0x103-0x104 (1)
     |                                               |                |              code{}: 0x104-0x110 (12)
     |                                               |                |                t{}: 0x104-0x105 (1)
0x100|            00                                 |    .           |                  n: 0 (valid) 0x104-0x105 (1)
     |                                               |                |                  x[0:0]: 0x105-0x105 (0)
     |                                               |                |                e[0:7]: 0x105-0x110 (11)
     |                                               |                |                  [0]{}: in 0x105-0x107 (2)
0x100|               20                              |                |                    opcode: "local.get" (0x20) 0x105-0x106 (1)
0x100|                  00                           |      .         |                    x: 0 (valid) 0x106-0x107 (1)
     |                                               |                |                  [1]{}: in 0x107-0x109 (2)
0x100|                     20                        |                |                    opcode: "local.get" (0x20) 0x107-0x108 (1)
0x100|                        01                     |        .       |                    x: 1 (valid) 0x108-0x109 (1)
     |                                               |                |                  [2]{}: in 0x109-0x10b (2)
0x100|                           20                  |                |                    opcode: "local.get" (0x20) 0x109-0x10a (1)
0x100|                              00               |          .     |                    x: 0 (valid) 0x10a-0x10b (1)
     |                                               |                |                  [3]{}: in 0x10b-0x10d (2)
0x100|                                 20            |                |                    opcode: "local.get" (0x20) 0x10b-0x10c (1)
0x100|                                    01         |            .   |                    x: 1 (valid) 0x10c-0x10d (1)
     |                                               |                |                  [4]{}: in 0x10d-0x10e (1)
0x100|                                       5e      |             ^  |                    opcode: "f32.gt" (0x5e) 0x10d-0x10e (1)
     |                                               |                |                  [5]{}: in 0x10e-0x10f (1)
0x100|                                          1b   |              . |                    opcode: "select" (0x1b) 0x10e-0x10f (1)
     |                                               |                |                  [6]{}: in 0x10f-0x110 (1)
0x100|                                             0b|               .|                    opcode: "end" (0xb) 0x10f-0x110 (1)
     |                                               |                |            [3]{}: code 0x110-0x11d (13)
0x110|0c                                             |.               |              size: 12 (valid) 0x110-0x111 (1)
     |                                               |                |              code{}: 0x111-0x11d (12)
     |                                               |                |                t{}: 0x111-0x112 (1)
0x110|   00                                          | .              |                  n: 0 (valid) 0x111-0x112 (1)
     |                                               |                |                  x[0:0]: 0x112-0x112 (0)
     |                                               |                |                e[0:7]: 0x112-0x11d (11)
     |                                               |                |                  [0]{}: in 0x112-0x114 (2)
0x110|      20                                       |                |                    opcode: "local.get" (0x20) 0x112-0x113 (1)
0x110|         00                                    |   .            |                    x: 0 (valid) 0x113-0x114 (1)
     |                                               |                |                  [1]{}: in 0x114-0x116 (2)
0x110|            20                                 |                |                    opcode: "local.get" (0x20) 0x114-0x115 (1)
0x110|               01                              |     .          |                    x: 1 (valid) 0x115-0x116 (1)
     |                                               |                |                  [2]{}: in 0x116-0x118 (2)
0x110|                  20                           |                |                    opcode: "local.get" (0x20) 0x116-0x117 (1)
0x110|                     00                        |       .        |                    x: 0 (valid) 0x117-0x118 (1)
     |                                               |                |                  [3]{}: in 0x118-0x11a (2)
0x110|                        20                     |                |                    opcode: "local.get" (0x20) 0x118-0x119 (1)
0x110|                           01                  |         .      |                    x: 1 (valid) 0x119-0x11a (1)
     |                                               |                |                  [4]{}: in 0x11a-0x11b (1)
0x110|                              60               |          `     |                    opcode: "f32.ge" (0x60) 0x11a-0x11b (1)
     |                                               |                |                  [5]{}: in 0x11b-0x11c (1)
0x110|                                 1b            |           .    |                    opcode: "select" (0x1b) 0x11b-0x11c (1)
     |                                               |                |                  [6]{}: in 0x11c-0x11d (1)
0x110|                                    0b         |            .   |                    opcode: "end" (0xb) 0x11c-0x11d (1)
     |                                               |                |            [4]{}: code 0x11d-0x12a (13)
0x110|                                       0c      |             .  |              size: 12 (valid) 0x11d-0x11e (1)
     |                                               |                |              code{}: 0x11e-0x12a (12)
     |                                               |                |                t{}: 0x11e-0x11f (1)
0x110|                                          00   |              . |                  n: 0 (valid) 0x11e-0x11f (1)
     |                                               |                |                  x[0:0]: 0x11f-0x11f (0)
     |                                               |                |                e[0:7]: 0x11f-0x12a (11)
     |                                               |                |                  [0]{}: in 0x11f-0x121 (2)
0x110|                                             20|                |                    opcode: "local.get" (0x20) 0x11f-0x120 (1)
0x120|00                                             |.               |                    x: 0 (valid) 0x120-0x121 (1)
     |                                               |                |                  [1]{}: in 0x121-0x123 (2)
0x120|   20                                          |                |                    opcode: "local.get" (0x20) 0x121-0x122 (1)
0x120|      01                                       |  .             |                    x: 1 (valid) 0x122-0x123 (1)
     |                                               |                |                  [2]{}: in 0x123-0x125 (2)
0x120|         20                                    |                |                    opcode: "local.get" (0x20) 0x123-0x124 (1)
0x120|            00                                 |    .           |                    x: 0 (valid) 0x124-0x125 (1)
     |                                               |                |                  [3]{}: in 0x125-0x127 (2)
0x120|               20                              |                |                    opcode: "local.get" (0x20) 0x125-0x126 (1)
0x120|                  01                           |      .         |                    x: 1 (valid) 0x126-0x127 (1)
     |                                               |                |                  [4]{}: in 0x127-0x128 (1)
0x120|                     63                        |       c        |                    opcode: "f64.lt" (0x63) 0x127-0x128 (1)
     |                                               |                |                  [5]{}: in 0x128-0x129 (1)
0x120|                        1b                     |        .       |                    opcode: "select" (0x1b) 0x128-0x129 (1)
     |                                               |                |                  [6]{}: in 0x129-0x12a (1)
0x120|                           0b                  |         .      |                    opcode: "end" (0xb) 0x129-0x12a (1)
     |                                               |                |            [5]{}: code 0x12a-0x137 (13)
0x120|                              0c               |          .     |              size: 12 (valid) 0x12a-0x12b (1)
     |                                               |                |              code{}: 0x12b-0x137 (12)
     |                                               |                |                t{}: 0x12b-0x12c (1)
0x120|                                 00            |           .    |                  n: 0 (valid) 0x12b-0x12c (1)
     |                                               |                |                  x[0:0]: 0x12c-0x12c (0)
     |                                               |                |                e[0:7]: 0x12c-0x137 (11)
     |                                               |                |                  [0]{}: in 0x12c-0x12e (2)
0x120|                                    20         |                |                    opcode: "local.get" (0x20) 0x12c-0x12d (1)
0x120|                                       00      |             .  |                    x: 0 (valid) 0x12d-0x12e (1)
     |                                               |                |                  [1]{}: in 0x12e-0x130 (2)
0x120|                                          20   |                |                    opcode: "local.get" (0x20) 0x12e-0x12f (1)
0x120|                                             01|               .|                    x: 1 (valid) 0x12f-0x130 (1)
     |                                               |                |                  [2]{}: in 0x130-0x132 (2)
0x130|20                                             |                |                    opcode: "local.get" (0x20) 0x130-0x131 (1)
0x130|   00                                          | .              |                    x: 0 (valid) 0x131-0x132 (1)
     |                                               |                |                  [3]{}: in 0x132-0x134 (2)
0x130|      20                                       |                |                    opcode: "local.get" (0x20) 0x132-0x133 (1)
0x130|         01                                    |   .            |                    x: 1 (valid) 0x133-0x134 (1)
     |                                               |                |                  [4]{}: in 0x134-0x135 (1)
0x130|            65                                 |    e           |                    opcode: "f64.le" (0x65) 0x134-0x135 (1)
     |                                               |                |                  [5]{}: in 0x135-0x136 (1)
0x130|               1b                              |     .          |                    opcode: "select" (0x1b) 0x135-0x136 (1)
     |                                               |                |                  [6]{}: in 0x136-0x137 (1)
0x130|                  0b                           |      .         |                    opcode: "end" (0xb) 0x136-0x137 (1)
     |                                               |                |            [6]{}: code 0x137-0x144 (13)
0x130|                     0c                        |       .        |              size: 12 (valid) 0x137-0x138 (1)
     |                                               |                |              code{}: 0x138-0x144 (12)
     |                                               |                |                t{}: 0x138-0x139 (1)
0x130|                        00                     |        .       |                  n: 0 (valid) 0x138-0x139 (1)
     |                                               |                |                  x[0:0]: 0x139-0x139 (0)
     |                                               |                |                e[0:7]: 0x139-0x144 (11)
     |                                               |                |                  [0]{}: in 0x139-0x13b (2)
0x130|                           20                  |                |                    opcode: "local.get" (0x20) 0x139-0x13a (1)
0x130|                              00               |          .     |                    x: 0 (valid) 0x13a-0x13b (1)
     |                                               |                |                  [1]{}: in 0x13b-0x13d (2)
0x130|                                 20            |                |                    opcode: "local.get" (0x20) 0x13b-0x13c (1)
0x130|                                    01         |            .   |                    x: 1 (valid) 0x13c-0x13d (1)
     |                                               |                |                  [2]{}: in 0x13d-0x13f (2)
0x130|                                       20      |                |                    opcode: "local.get" (0x20) 0x13d-0x13e (1)
0x130|                                          00   |              . |                    x: 0 (valid) 0x13e-0x13f (1)
     |                                               |                |                  [3]{}: in 0x13f-0x141 (2)
0x130|                                             20|                |                    opcode: "local.get" (0x20) 0x13f-0x140 (1)
0x140|01                                             |.               |                    x: 1 (valid) 0x140-0x141 (1)
     |                                               |                |                  [4]{}: in 0x141-0x142 (1)
0x140|   64                                          | d              |                    opcode: "f64.gt" (0x64) 0x141-0x142 (1)
     |                                               |                |                  [5]{}: in 0x142-0x143 (1)
0x140|      1b                                       |  .             |                    opcode: "select" (0x1b) 0x142-0x143 (1)
     |                                               |                |                  [6]{}: in 0x143-0x144 (1)
0x140|         0b                                    |   .            |                    opcode: "end" (0xb) 0x143-0x144 (1)
     |                                               |                |            [7]{}: code 0x144-0x151 (13)
0x140|            0c                                 |    .           |              size: 12 (valid) 0x144-0x145 (1)
     |                                               |                |              code{}: 0x145-0x151 (12)
     |                                               |                |                t{}: 0x145-0x146 (1)
0x140|               00                              |     .          |                  n: 0 (valid) 0x145-0x146 (1)
     |                                               |                |                  x[0:0]: 0x146-0x146 (0)
     |                                               |                |                e[0:7]: 0x146-0x151 (11)
     |                                               |                |                  [0]{}: in 0x146-0x148 (2)
0x140|                  20                           |                |                    opcode: "local.get" (0x20) 0x146-0x147 (1)
0x140|                     00                        |       .        |                    x: 0 (valid) 0x147-0x148 (1)
     |                                               |                |                  [1]{}: in 0x148-0x14a (2)
0x140|                        20                     |                |                    opcode: "local.get" (0x20) 0x148-0x149 (1)
0x140|                           01                  |         .      |                    x: 1 (valid) 0x149-0x14a (1)
     |                                               |                |                  [2]{}: in 0x14a-0x14c (2)
0x140|                              20               |                |                    opcode: "local.get" (0x20) 0x14a-0x14b (1)
0x140|                                 00            |           .    |                    x: 0 (valid) 0x14b-0x14c (1)
     |                                               |                |                  [3]{}: in 0x14c-0x14e (2)
0x140|                                    20         |                |                    opcode: "local.get" (0x20) 0x14c-0x14d (1)
0x140|                                       01      |             .  |                    x: 1 (valid) 0x14d-0x14e (1)
     |                                               |                |                  [4]{}: in 0x14e-0x14f (1)
0x140|                                          66   |              f |                    opcode: "f64.ge" (0x66) 0x14e-0x14f (1)
     |                                               |                |                  [5]{}: in 0x14f-0x150 (1)
0x140|                                             1b|               .|                    opcode: "select" (0x1b) 0x14f-0x150 (1)
     |                                               |                |                  [6]{}: in 0x150-0x151 (1)
0x150|0b|                                            |.|              |                    opcode: "end" (0xb) 0x150-0x151 (1)
