$ fq -d wasm dv float_exprs-72.wasm
    |00 01 02 03 04 05 06 07 08 09 0a 0b 0c 0d 0e 0f|0123456789abcdef|.{}: float_exprs-72.wasm (wasm) 0x0-0x66 (102)
0x00|00 61 73 6d                                    |.asm            |  magic: raw bits (valid) 0x0-0x4 (4)
0x00|            01 00 00 00                        |    ....        |  version: 1 0x4-0x8 (4)
    |                                               |                |  sections[0:4]: 0x8-0x66 (94)
    |                                               |                |    [0]{}: section 0x8-0x17 (15)
0x00|                        01                     |        .       |      id: "type_section" (1) 0x8-0x9 (1)
0x00|                           0d                  |         .      |      size: 13 (valid) 0x9-0xa (1)
    |                                               |                |      content{}: 0xa-0x17 (13)
    |                                               |                |        ft{}: 0xa-0x17 (13)
0x00|                              02               |          .     |          n: 2 (valid) 0xa-0xb (1)
    |                                               |                |          x[0:2]: 0xb-0x17 (12)
    |                                               |                |            [0]{}: ft 0xb-0x11 (6)
0x00|                                 60            |           `    |              tag: 0x60 (valid) 0xb-0xc (1)
    |                                               |                |              rt1{}: 0xc-0xf (3)
0x00|                                    02         |            .   |                n: 2 (valid) 0xc-0xd (1)
    |                                               |                |                x[0:2]: 0xd-0xf (2)
0x00|                                       7d      |             }  |                  [0]: "f32" (0x7d) t 0xd-0xe (1)
0x00|                                          7d   |              } |                  [1]: "f32" (0x7d) t 0xe-0xf (1)
    |                                               |                |              rt2{}: 0xf-0x11 (2)
0x00|                                             01|               .|                n: 1 (valid) 0xf-0x10 (1)
    |                                               |                |                x[0:1]: 0x10-0x11 (1)
0x10|7d                                             |}               |                  [0]: "f32" (0x7d) t 0x10-0x11 (1)
    |                                               |                |            [1]{}: ft 0x11-0x17 (6)
0x10|   60                                          | `              |              tag: 0x60 (valid) 0x11-0x12 (1)
    |                                               |                |              rt1{}: 0x12-0x15 (3)
0x10|      02                                       |  .             |                n: 2 (valid) 0x12-0x13 (1)
    |                                               |                |                x[0:2]: 0x13-0x15 (2)
0x10|         7c                                    |   |            |                  [0]: "f64" (0x7c) t 0x13-0x14 (1)
0x10|            7c                                 |    |           |                  [1]: "f64" (0x7c) t 0x14-0x15 (1)
    |                                               |                |              rt2{}: 0x15-0x17 (2)
0x10|               01                              |     .          |                n: 1 (valid) 0x15-0x16 (1)
    |                                               |                |                x[0:1]: 0x16-0x17 (1)
0x10|                  7c                           |      |         |                  [0]: "f64" (0x7c) t 0x16-0x17 (1)
    |                                               |                |    [1]{}: section 0x17-0x1c (5)
0x10|                     03                        |       .        |      id: "function_section" (3) 0x17-0x18 (1)
0x10|                        03                     |        .       |      size: 3 (valid) 0x18-0x19 (1)
    |                                               |                |      content{}: 0x19-0x1c (3)
    |                                               |                |        x{}: 0x19-0x1c (3)
0x10|                           02                  |         .      |          n: 2 (valid) 0x19-0x1a (1)
    |                                               |                |          x[0:2]: 0x1a-0x1c (2)
0x10|                              00               |          .     |            [0]: 0 x (valid) 0x1a-0x1b (1)
0x10|                                 01            |           .    |            [1]: 1 x (valid) 0x1b-0x1c (1)
    |                                               |                |    [2]{}: section 0x1c-0x4f (51)
0x10|                                    07         |            .   |      id: "export_section" (7) 0x1c-0x1d (1)
0x10|                                       31      |             1  |      size: 49 (valid) 0x1d-0x1e (1)
    |                                               |                |      content{}: 0x1e-0x4f (49)
    |                                               |                |        ex{}: 0x1e-0x4f (49)
0x10|                                          02   |              . |          n: 2 (valid) 0x1e-0x1f (1)
    |                                               |                |          x[0:2]: 0x1f-0x4f (48)
    |                                               |                |            [0]{}: ex 0x1f-0x37 (24)
    |                                               |                |              nm{}: 0x1f-0x35 (22)
0x10|                                             15|               .|                n: 21 (valid) 0x1f-0x20 (1)
0x20|66 33 32 2e 6e 6f 5f 66 6f 6c 64 5f 6d 75 6c 5f|f32.no_fold_mul_|                b: "f32.no_fold_mul_sqrts" 0x20-0x35 (21)
0x30|73 71 72 74 73                                 |sqrts           |
    |                                               |                |              d{}: 0x35-0x37 (2)
0x30|               00                              |     .          |                tag: "funcidx" (0x0) 0x35-0x36 (1)
0x30|                  00                           |      .         |                x: 0 (valid) 0x36-0x37 (1)
    |                                               |                |            [1]{}: ex 0x37-0x4f (24)
    |                                               |                |              nm{}: 0x37-0x4d (22)
0x30|                     15                        |       .        |                n: 21 (valid) 0x37-0x38 (1)
0x30|                        66 36 34 2e 6e 6f 5f 66|        f64.no_f|                b: "f64.no_fold_mul_sqrts" 0x38-0x4d (21)
0x40|6f 6c 64 5f 6d 75 6c 5f 73 71 72 74 73         |old_mul_sqrts   |
    |                                               |                |              d{}: 0x4d-0x4f (2)
0x40|                                       00      |             .  |                tag: "funcidx" (0x0) 0x4d-0x4e (1)
0x40|                                          01   |              . |                x: 1 (valid) 0x4e-0x4f (1)
    |                                               |                |    [3]{}: section 0x4f-0x66 (23)
0x40|                                             0a|               .|      id: "code_section" (10) 0x4f-0x50 (1)
0x50|15                                             |.               |      size: 21 (valid) 0x50-0x51 (1)
    |                                               |                |      content{}: 0x51-0x66 (21)
    |                                               |                |        code{}: 0x51-0x66 (21)
0x50|   02                                          | .              |          n: 2 (valid) 0x51-0x52 (1)
    |                                               |                |          x[0:2]: 0x52-0x66 (20)
    |                                               |                |            [0]{}: code 0x52-0x5c (10)
0x50|      09                                       |  .             |              size: 9 (valid) 0x52-0x53 (1)
    |                                               |                |              code{}: 0x53-0x5c (9)
    |                                               |                |                t{}: 0x53-0x54 (1)
0x50|         00                                    |   .            |                  n: 0 (valid) 0x53-0x54 (1)
    |                                               |                |                  x[0:0]: 0x54-0x54 (0)
    |                                               |                |                e[0:6]: 0x54-0x5c (8)
    |                                               |                |                  [0]{}: in 0x54-0x56 (2)
0x50|            20                                 |                |                    opcode: "local.get" (0x20) 0x54-0x55 (1)
0x50|               00                              |     .          |                    x: 0 (valid) 0x55-0x56 (1)
    |                                               |                |                  [1]{}: in 0x56-0x57 (1)
0x50|                  91                           |      .         |                    opcode: "f32.sqrt" (0x91) 0x56-0x57 (1)
    |                                               |                |                  [2]{}: in 0x57-0x59 (2)
0x50|                     20                        |                |                    opcode: "local.get" (0x20) 0x57-0x58 (1)
0x50|                        01                     |        .       |                    x: 1 (valid) 0x58-0x59 (1)
    |                                               |                |                  [3]{}: in 0x59-0x5a (1)
0x50|                           91                  |         .      |                    opcode: "f32.sqrt" (0x91) 0x59-0x5a (1)
    |                                               |                |                  [4]{}: in 0x5a-0x5b (1)
0x50|                              94               |          .     |                    opcode: "f32.mul" (0x94) 0x5a-0x5b (1)
    |                                               |                |                  [5]{}: in 0x5b-0x5c (1)
0x50|                                 0b            |           .    |                    opcode: "end" (0xb) 0x5b-0x5c (1)
    |                                               |                |            [1]{}: code 0x5c-0x66 (10)
0x50|                                    09         |            .   |              size: 9 (valid) 0x5c-0x5d (1)
    |                                               |                |              code{}: 0x5d-0x66 (9)
    |                                               |                |                t{}: 0x5d-0x5e (1)
0x50|                                       00      |             .  |                  n: 0 (valid) 0x5d-0x5e (1)
    |                                               |                |                  x[0:0]: 0x5e-0x5e (0)
    |                                               |                |                e[0:6]: 0x5e-0x66 (8)
    |                                               |                |                  [0]{}: in 0x5e-0x60 (2)
0x50|                                          20   |                |                    opcode: "local.get" (0x20) 0x5e-0x5f (1)
0x50|                                             00|               .|                    x: 0 (valid) 0x5f-0x60 (1)
    |                                               |                |                  [1]{}: in 0x60-0x61 (1)
0x60|9f                                             |.               |                    opcode: "f64.sqrt" (0x9f) 0x60-0x61 (1)
    |                                               |                |                  [2]{}: in 0x61-0x63 (2)
0x60|   20                                          |                |                    opcode: "local.get" (0x20) 0x61-0x62 (1)
0x60|      01                                       |  .             |                    x: 1 (valid) 0x62-0x63 (1)
    |                                               |                |                  [3]{}: in 0x63-0x64 (1)
0x60|         9f                                    |   .            |                    opcode: "f64.sqrt" (0x9f) 0x63-0x64 (1)
    |                                               |                |                  [4]{}: in 0x64-0x65 (1)
0x60|            a2                                 |    .           |                    opcode: "f64.mul" (0xa2) 0x64-0x65 (1)
    |                                               |                |                  [5]{}: in 0x65-0x66 (1)
0x60|               0b|                             |     .|         |                    opcode: "end" (0xb) 0x65-0x66 (1)
