$ fq -d wasm dv float_literals-0.wasm
     |00 01 02 03 04 05 06 07 08 09 0a 0b 0c 0d 0e 0f|0123456789abcdef|.{}: float_literals-0.wasm (wasm) 0x0-0x9e6 (2534)
0x000|00 61 73 6d                                    |.asm            |  magic: raw bits (valid) 0x0-0x4 (4)
0x000|            01 00 00 00                        |    ....        |  version: 1 0x4-0x8 (4)
     |                                               |                |  sections[0:4]: 0x8-0x9e6 (2526)
     |                                               |                |    [0]{}: section 0x8-0x1b (19)
0x000|                        01                     |        .       |      id: "type_section" (1) 0x8-0x9 (1)
0x000|                           11                  |         .      |      size: 17 (valid) 0x9-0xa (1)
     |                                               |                |      content{}: 0xa-0x1b (17)
     |                                               |                |        ft{}: 0xa-0x1b (17)
0x000|                              04               |          .     |          n: 4 (valid) 0xa-0xb (1)
     |                                               |                |          x[0:4]: 0xb-0x1b (16)
     |                                               |                |            [0]{}: ft 0xb-0xf (4)
0x000|                                 60            |           `    |              tag: 0x60 (valid) 0xb-0xc (1)
     |                                               |                |              rt1{}: 0xc-0xd (1)
0x000|                                    00         |            .   |                n: 0 (valid) 0xc-0xd (1)
     |                                               |                |                x[0:0]: 0xd-0xd (0)
     |                                               |                |              rt2{}: 0xd-0xf (2)
0x000|                                       01      |             .  |                n: 1 (valid) 0xd-0xe (1)
     |                                               |                |                x[0:1]: 0xe-0xf (1)
0x000|                                          7f   |              . |                  [0]: "i32" (0x7f) t 0xe-0xf (1)
     |                                               |                |            [1]{}: ft 0xf-0x13 (4)
0x000|                                             60|               `|              tag: 0x60 (valid) 0xf-0x10 (1)
     |                                               |                |              rt1{}: 0x10-0x11 (1)
0x010|00                                             |.               |                n: 0 (valid) 0x10-0x11 (1)
     |                                               |                |                x[0:0]: 0x11-0x11 (0)
     |                                               |                |              rt2{}: 0x11-0x13 (2)
0x010|   01                                          | .              |                n: 1 (valid) 0x11-0x12 (1)
     |                                               |                |                x[0:1]: 0x12-0x13 (1)
0x010|      7e                                       |  ~             |                  [0]: "i64" (0x7e) t 0x12-0x13 (1)
     |                                               |                |            [2]{}: ft 0x13-0x17 (4)
0x010|         60                                    |   `            |              tag: 0x60 (valid) 0x13-0x14 (1)
     |                                               |                |              rt1{}: 0x14-0x15 (1)
0x010|            00                                 |    .           |                n: 0 (valid) 0x14-0x15 (1)
     |                                               |                |                x[0:0]: 0x15-0x15 (0)
     |                                               |                |              rt2{}: 0x15-0x17 (2)
0x010|               01                              |     .          |                n: 1 (valid) 0x15-0x16 (1)
     |                                               |                |                x[0:1]: 0x16-0x17 (1)
0x010|                  7d                           |      }         |                  [0]: "f32" (0x7d) t 0x16-0x17 (1)
     |                                               |                |            [3]{}: ft 0x17-0x1b (4)
0x010|                     60                        |       `        |              tag: 0x60 (valid) 0x17-0x18 (1)
     |                                               |                |              rt1{}: 0x18-0x19 (1)
0x010|                        00                     |        .       |                n: 0 (valid) 0x18-0x19 (1)
     |                                               |                |                x[0:0]: 0x19-0x19 (0)
     |                                               |                |              rt2{}: 0x19-0x1b (2)
0x010|                           01                  |         .      |                n: 1 (valid) 0x19-0x1a (1)
     |                                               |                |                x[0:1]: 0x1a-0x1b (1)
0x010|                              7c               |          |     |                  [0]: "f64" (0x7c) t 0x1a-0x1b (1)
     |                                               |                |    [1]{}: section 0x1b-0x70 (85)
0x010|                                 03            |           .    |      id: "function_section" (3) 0x1b-0x1c (1)
0x010|                                    53         |            S   |      size: 83 (valid) 0x1c-0x1d (1)
     |                                               |                |      content{}: 0x1d-0x70 (83)
     |                                               |                |        x{}: 0x1d-0x70 (83)
0x010|                                       52      |             R  |          n: 82 (valid) 0x1d-0x1e (1)
     |                                               |                |          x[0:82]: 0x1e-0x70 (82)
0x010|                                          00   |              . |            [0]: 0 x (valid) 0x1e-0x1f (1)
0x010|                                             00|               .|            [1]: 0 x (valid) 0x1f-0x20 (1)
0x020|00                                             |.               |            [2]: 0 x (valid) 0x20-0x21 (1)
0x020|   00                                          | .              |            [3]: 0 x (valid) 0x21-0x22 (1)
0x020|      00                                       |  .             |            [4]: 0 x (valid) 0x22-0x23 (1)
0x020|         00                                    |   .            |            [5]: 0 x (valid) 0x23-0x24 (1)
0x020|            00                                 |    .           |            [6]: 0 x (valid) 0x24-0x25 (1)
0x020|               00                              |     .          |            [7]: 0 x (valid) 0x25-0x26 (1)
0x020|                  00                           |      .         |            [8]: 0 x (valid) 0x26-0x27 (1)
0x020|                     00                        |       .        |            [9]: 0 x (valid) 0x27-0x28 (1)
0x020|                        00                     |        .       |            [10]: 0 x (valid) 0x28-0x29 (1)
0x020|                           00                  |         .      |            [11]: 0 x (valid) 0x29-0x2a (1)
0x020|                              00               |          .     |            [12]: 0 x (valid) 0x2a-0x2b (1)
0x020|                                 00            |           .    |            [13]: 0 x (valid) 0x2b-0x2c (1)
0x020|                                    00         |            .   |            [14]: 0 x (valid) 0x2c-0x2d (1)
0x020|                                       00      |             .  |            [15]: 0 x (valid) 0x2d-0x2e (1)
0x020|                                          00   |              . |            [16]: 0 x (valid) 0x2e-0x2f (1)
0x020|                                             00|               .|            [17]: 0 x (valid) 0x2f-0x30 (1)
0x030|00                                             |.               |            [18]: 0 x (valid) 0x30-0x31 (1)
0x030|   00                                          | .              |            [19]: 0 x (valid) 0x31-0x32 (1)
0x030|      00                                       |  .             |            [20]: 0 x (valid) 0x32-0x33 (1)
0x030|         00                                    |   .            |            [21]: 0 x (valid) 0x33-0x34 (1)
0x030|            00                                 |    .           |            [22]: 0 x (valid) 0x34-0x35 (1)
0x030|               00                              |     .          |            [23]: 0 x (valid) 0x35-0x36 (1)
0x030|                  00                           |      .         |            [24]: 0 x (valid) 0x36-0x37 (1)
0x030|                     00                        |       .        |            [25]: 0 x (valid) 0x37-0x38 (1)
0x030|                        00                     |        .       |            [26]: 0 x (valid) 0x38-0x39 (1)
0x030|                           00                  |         .      |            [27]: 0 x (valid) 0x39-0x3a (1)
0x030|                              00               |          .     |            [28]: 0 x (valid) 0x3a-0x3b (1)
0x030|                                 00            |           .    |            [29]: 0 x (valid) 0x3b-0x3c (1)
0x030|                                    00         |            .   |            [30]: 0 x (valid) 0x3c-0x3d (1)
0x030|                                       01      |             .  |            [31]: 1 x (valid) 0x3d-0x3e (1)
0x030|                                          01   |              . |            [32]: 1 x (valid) 0x3e-0x3f (1)
0x030|                                             01|               .|            [33]: 1 x (valid) 0x3f-0x40 (1)
0x040|01                                             |.               |            [34]: 1 x (valid) 0x40-0x41 (1)
0x040|   01                                          | .              |            [35]: 1 x (valid) 0x41-0x42 (1)
0x040|      01                                       |  .             |            [36]: 1 x (valid) 0x42-0x43 (1)
0x040|         01                                    |   .            |            [37]: 1 x (valid) 0x43-0x44 (1)
0x040|            01                                 |    .           |            [38]: 1 x (valid) 0x44-0x45 (1)
0x040|               01                              |     .          |            [39]: 1 x (valid) 0x45-0x46 (1)
0x040|                  01                           |      .         |            [40]: 1 x (valid) 0x46-0x47 (1)
0x040|                     01                        |       .        |            [41]: 1 x (valid) 0x47-0x48 (1)
0x040|                        01                     |        .       |            [42]: 1 x (valid) 0x48-0x49 (1)
0x040|                           01                  |         .      |            [43]: 1 x (valid) 0x49-0x4a (1)
0x040|                              01               |          .     |            [44]: 1 x (valid) 0x4a-0x4b (1)
0x040|                                 01            |           .    |            [45]: 1 x (valid) 0x4b-0x4c (1)
0x040|                                    01         |            .   |            [46]: 1 x (valid) 0x4c-0x4d (1)
0x040|                                       01      |             .  |            [47]: 1 x (valid) 0x4d-0x4e (1)
0x040|                                          01   |              . |            [48]: 1 x (valid) 0x4e-0x4f (1)
0x040|                                             01|               .|            [49]: 1 x (valid) 0x4f-0x50 (1)
0x050|01                                             |.               |            [50]: 1 x (valid) 0x50-0x51 (1)
0x050|   01                                          | .              |            [51]: 1 x (valid) 0x51-0x52 (1)
0x050|      01                                       |  .             |            [52]: 1 x (valid) 0x52-0x53 (1)
0x050|         01                                    |   .            |            [53]: 1 x (valid) 0x53-0x54 (1)
0x050|            01                                 |    .           |            [54]: 1 x (valid) 0x54-0x55 (1)
0x050|               01                              |     .          |            [55]: 1 x (valid) 0x55-0x56 (1)
0x050|                  01                           |      .         |            [56]: 1 x (valid) 0x56-0x57 (1)
0x050|                     01                        |       .        |            [57]: 1 x (valid) 0x57-0x58 (1)
0x050|                        01                     |        .       |            [58]: 1 x (valid) 0x58-0x59 (1)
0x050|                           01                  |         .      |            [59]: 1 x (valid) 0x59-0x5a (1)
0x050|                              01               |          .     |            [60]: 1 x (valid) 0x5a-0x5b (1)
0x050|                                 01            |           .    |            [61]: 1 x (valid) 0x5b-0x5c (1)
0x050|                                    02         |            .   |            [62]: 2 x (valid) 0x5c-0x5d (1)
0x050|                                       02      |             .  |            [63]: 2 x (valid) 0x5d-0x5e (1)
0x050|                                          02   |              . |            [64]: 2 x (valid) 0x5e-0x5f (1)
0x050|                                             02|               .|            [65]: 2 x (valid) 0x5f-0x60 (1)
0x060|02                                             |.               |            [66]: 2 x (valid) 0x60-0x61 (1)
0x060|   02                                          | .              |            [67]: 2 x (valid) 0x61-0x62 (1)
0x060|      02                                       |  .             |            [68]: 2 x (valid) 0x62-0x63 (1)
0x060|         02                                    |   .            |            [69]: 2 x (valid) 0x63-0x64 (1)
0x060|            02                                 |    .           |            [70]: 2 x (valid) 0x64-0x65 (1)
0x060|               02                              |     .          |            [71]: 2 x (valid) 0x65-0x66 (1)
0x060|                  03                           |      .         |            [72]: 3 x (valid) 0x66-0x67 (1)
0x060|                     03                        |       .        |            [73]: 3 x (valid) 0x67-0x68 (1)
0x060|                        03                     |        .       |            [74]: 3 x (valid) 0x68-0x69 (1)
0x060|                           03                  |         .      |            [75]: 3 x (valid) 0x69-0x6a (1)
0x060|                              03               |          .     |            [76]: 3 x (valid) 0x6a-0x6b (1)
0x060|                                 03            |           .    |            [77]: 3 x (valid) 0x6b-0x6c (1)
0x060|                                    03         |            .   |            [78]: 3 x (valid) 0x6c-0x6d (1)
0x060|                                       03      |             .  |            [79]: 3 x (valid) 0x6d-0x6e (1)
0x060|                                          03   |              . |            [80]: 3 x (valid) 0x6e-0x6f (1)
0x060|                                             03|               .|            [81]: 3 x (valid) 0x6f-0x70 (1)
     |                                               |                |    [2]{}: section 0x70-0x670 (1536)
0x070|07                                             |.               |      id: "export_section" (7) 0x70-0x71 (1)
0x070|   fd 0b                                       | ..             |      size: 1533 (valid) 0x71-0x73 (2)
     |                                               |                |      content{}: 0x73-0x670 (1533)
     |                                               |                |        ex{}: 0x73-0x670 (1533)
0x070|         52                                    |   R            |          n: 82 (valid) 0x73-0x74 (1)
     |                                               |                |          x[0:82]: 0x74-0x670 (1532)
     |                                               |                |            [0]{}: ex 0x74-0x7e (10)
     |                                               |                |              nm{}: 0x74-0x7c (8)
0x070|            07                                 |    .           |                n: 7 (valid) 0x74-0x75 (1)
0x070|               66 33 32 2e 6e 61 6e            |     f32.nan    |                b: "f32.nan" 0x75-0x7c (7)
     |                                               |                |              d{}: 0x7c-0x7e (2)
0x070|                                    00         |            .   |                tag: "funcidx" (0x0) 0x7c-0x7d (1)
0x070|                                       00      |             .  |                x: 0 (valid) 0x7d-0x7e (1)
     |                                               |                |            [1]{}: ex 0x7e-0x91 (19)
     |                                               |                |              nm{}: 0x7e-0x8f (17)
0x070|                                          10   |              . |                n: 16 (valid) 0x7e-0x7f (1)
0x070|                                             66|               f|                b: "f32.positive_nan" 0x7f-0x8f (16)
0x080|33 32 2e 70 6f 73 69 74 69 76 65 5f 6e 61 6e   |32.positive_nan |
     |                                               |                |              d{}: 0x8f-0x91 (2)
0x080|                                             00|               .|                tag: "funcidx" (0x0) 0x8f-0x90 (1)
0x090|01                                             |.               |                x: 1 (valid) 0x90-0x91 (1)
     |                                               |                |            [2]{}: ex 0x91-0xa4 (19)
     |                                               |                |              nm{}: 0x91-0xa2 (17)
0x090|   10                                          | .              |                n: 16 (valid) 0x91-0x92 (1)
0x090|      66 33 32 2e 6e 65 67 61 74 69 76 65 5f 6e|  f32.negative_n|                b: "f32.negative_nan" 0x92-0xa2 (16)
0x0a0|61 6e                                          |an              |
     |                                               |                |              d{}: 0xa2-0xa4 (2)
0x0a0|      00                                       |  .             |                tag: "funcidx" (0x0) 0xa2-0xa3 (1)
0x0a0|         02                                    |   .            |                x: 2 (valid) 0xa3-0xa4 (1)
     |                                               |                |            [3]{}: ex 0xa4-0xb4 (16)
     |                                               |                |              nm{}: 0xa4-0xb2 (14)
0x0a0|            0d                                 |    .           |                n: 13 (valid) 0xa4-0xa5 (1)
0x0a0|               66 33 32 2e 70 6c 61 69 6e 5f 6e|     f32.plain_n|                b: "f32.plain_nan" 0xa5-0xb2 (13)
0x0b0|61 6e                                          |an              |
     |                                               |                |              d{}: 0xb2-0xb4 (2)
0x0b0|      00                                       |  .             |                tag: "funcidx" (0x0) 0xb2-0xb3 (1)
0x0b0|         03                                    |   .            |                x: 3 (valid) 0xb3-0xb4 (1)
     |                                               |                |            [4]{}: ex 0xb4-0xd9 (37)
     |                                               |                |              nm{}: 0xb4-0xd7 (35)
0x0b0|            22                                 |    "           |                n: 34 (valid) 0xb4-0xb5 (1)
0x0b0|               66 33 32 2e 69 6e 66 6f 72 6d 61|     f32.informa|                b: "f32.informally_known_as_plain_snan" 0xb5-0xd7 (34)
0x0c0|6c 6c 79 5f 6b 6e 6f 77 6e 5f 61 73 5f 70 6c 61|lly_known_as_pla|
0x0d0|69 6e 5f 73 6e 61 6e                           |in_snan         |
     |                                               |                |              d{}: 0xd7-0xd9 (2)
0x0d0|                     00                        |       .        |                tag: "funcidx" (0x0) 0xd7-0xd8 (1)
0x0d0|                        04                     |        .       |                x: 4 (valid) 0xd8-0xd9 (1)
     |                                               |                |            [5]{}: ex 0xd9-0xec (19)
     |                                               |                |              nm{}: 0xd9-0xea (17)
0x0d0|                           10                  |         .      |                n: 16 (valid) 0xd9-0xda (1)
0x0d0|                              66 33 32 2e 61 6c|          f32.al|                b: "f32.all_ones_nan" 0xda-0xea (16)
0x0e0|6c 5f 6f 6e 65 73 5f 6e 61 6e                  |l_ones_nan      |
     |                                               |                |              d{}: 0xea-0xec (2)
0x0e0|                              00               |          .     |                tag: "funcidx" (0x0) 0xea-0xeb (1)
0x0e0|                                 05            |           .    |                x: 5 (valid) 0xeb-0xec (1)
     |                                               |                |            [6]{}: ex 0xec-0xfb (15)
     |                                               |                |              nm{}: 0xec-0xf9 (13)
0x0e0|                                    0c         |            .   |                n: 12 (valid) 0xec-0xed (1)
0x0e0|                                       66 33 32|             f32|                b: "f32.misc_nan" 0xed-0xf9 (12)
0x0f0|2e 6d 69 73 63 5f 6e 61 6e                     |.misc_nan       |
     |                                               |                |              d{}: 0xf9-0xfb (2)
0x0f0|                           00                  |         .      |                tag: "funcidx" (0x0) 0xf9-0xfa (1)
0x0f0|                              06               |          .     |                x: 6 (valid) 0xfa-0xfb (1)
     |                                               |                |            [7]{}: ex 0xfb-0x113 (24)
     |                                               |                |              nm{}: 0xfb-0x111 (22)
0x0f0|                                 15            |           .    |                n: 21 (valid) 0xfb-0xfc (1)
0x0f0|                                    66 33 32 2e|            f32.|                b: "f32.misc_positive_nan" 0xfc-0x111 (21)
0x100|6d 69 73 63 5f 70 6f 73 69 74 69 76 65 5f 6e 61|misc_positive_na|
0x110|6e                                             |n               |
     |                                               |                |              d{}: 0x111-0x113 (2)
0x110|   00                                          | .              |                tag: "funcidx" (0x0) 0x111-0x112 (1)
0x110|      07                                       |  .             |                x: 7 (valid) 0x112-0x113 (1)
     |                                               |                |            [8]{}: ex 0x113-0x12b (24)
     |                                               |                |              nm{}: 0x113-0x129 (22)
0x110|         15                                    |   .            |                n: 21 (valid) 0x113-0x114 (1)
0x110|            66 33 32 2e 6d 69 73 63 5f 6e 65 67|    f32.misc_neg|                b: "f32.misc_negative_nan" 0x114-0x129 (21)
0x120|61 74 69 76 65 5f 6e 61 6e                     |ative_nan       |
     |                                               |                |              d{}: 0x129-0x12b (2)
0x120|                           00                  |         .      |                tag: "funcidx" (0x0) 0x129-0x12a (1)
0x120|                              08               |          .     |                x: 8 (valid) 0x12a-0x12b (1)
     |                                               |                |            [9]{}: ex 0x12b-0x13a (15)
     |                                               |                |              nm{}: 0x12b-0x138 (13)
0x120|                                 0c            |           .    |                n: 12 (valid) 0x12b-0x12c (1)
0x120|                                    66 33 32 2e|            f32.|                b: "f32.infinity" 0x12c-0x138 (12)
0x130|69 6e 66 69 6e 69 74 79                        |infinity        |
     |                                               |                |              d{}: 0x138-0x13a (2)
0x130|                        00                     |        .       |                tag: "funcidx" (0x0) 0x138-0x139 (1)
0x130|                           09                  |         .      |                x: 9 (valid) 0x139-0x13a (1)
     |                                               |                |            [10]{}: ex 0x13a-0x152 (24)
     |                                               |                |              nm{}: 0x13a-0x150 (22)
0x130|                              15               |          .     |                n: 21 (valid) 0x13a-0x13b (1)
0x130|                                 66 33 32 2e 70|           f32.p|                b: "f32.positive_infinity" 0x13b-0x150 (21)
0x140|6f 73 69 74 69 76 65 5f 69 6e 66 69 6e 69 74 79|ositive_infinity|
     |                                               |                |              d{}: 0x150-0x152 (2)
0x150|00                                             |.               |                tag: "funcidx" (0x0) 0x150-0x151 (1)
0x150|   0a                                          | .              |                x: 10 (valid) 0x151-0x152 (1)
     |                                               |                |            [11]{}: ex 0x152-0x16a (24)
     |                                               |                |              nm{}: 0x152-0x168 (22)
0x150|      15                                       |  .             |                n: 21 (valid) 0x152-0x153 (1)
0x150|         66 33 32 2e 6e 65 67 61 74 69 76 65 5f|   f32.negative_|                b: "f32.negative_infinity" 0x153-0x168 (21)
0x160|69 6e 66 69 6e 69 74 79                        |infinity        |
     |                                               |                |              d{}: 0x168-0x16a (2)
0x160|                        00                     |        .       |                tag: "funcidx" (0x0) 0x168-0x169 (1)
0x160|                           0b                  |         .      |                x: 11 (valid) 0x169-0x16a (1)
     |                                               |                |            [12]{}: ex 0x16a-0x175 (11)
     |                                               |                |              nm{}: 0x16a-0x173 (9)
0x160|                              08               |          .     |                n: 8 (valid) 0x16a-0x16b (1)
0x160|                                 66 33 32 2e 7a|           f32.z|                b: "f32.zero" 0x16b-0x173 (8)
0x170|65 72 6f                                       |ero             |
     |                                               |                |              d{}: 0x173-0x175 (2)
0x170|         00                                    |   .            |                tag: "funcidx" (0x0) 0x173-0x174 (1)
0x170|            0c                                 |    .           |                x: 12 (valid) 0x174-0x175 (1)
     |                                               |                |            [13]{}: ex 0x175-0x189 (20)
     |                                               |                |              nm{}: 0x175-0x187 (18)
0x170|               11                              |     .          |                n: 17 (valid) 0x175-0x176 (1)
0x170|                  66 33 32 2e 70 6f 73 69 74 69|      f32.positi|                b: "f32.positive_zero" 0x176-0x187 (17)
0x180|76 65 5f 7a 65 72 6f                           |ve_zero         |
     |                                               |                |              d{}: 0x187-0x189 (2)
0x180|                     00                        |       .        |                tag: "funcidx" (0x0) 0x187-0x188 (1)
0x180|                        0d                     |        .       |                x: 13 (valid) 0x188-0x189 (1)
     |                                               |                |            [14]{}: ex 0x189-0x19d (20)
     |                                               |                |              nm{}: 0x189-0x19b (18)
0x180|                           11                  |         .      |                n: 17 (valid) 0x189-0x18a (1)
0x180|                              66 33 32 2e 6e 65|          f32.ne|                b: "f32.negative_zero" 0x18a-0x19b (17)
0x190|67 61 74 69 76 65 5f 7a 65 72 6f               |gative_zero     |
     |                                               |                |              d{}: 0x19b-0x19d (2)
0x190|                                 00            |           .    |                tag: "funcidx" (0x0) 0x19b-0x19c (1)
0x190|                                    0e         |            .   |                x: 14 (valid) 0x19c-0x19d (1)
     |                                               |                |            [15]{}: ex 0x19d-0x1a8 (11)
     |                                               |                |              nm{}: 0x19d-0x1a6 (9)
0x190|                                       08      |             .  |                n: 8 (valid) 0x19d-0x19e (1)
0x190|                                          66 33|              f3|                b: "f32.misc" 0x19e-0x1a6 (8)
0x1a0|32 2e 6d 69 73 63                              |2.misc          |
     |                                               |                |              d{}: 0x1a6-0x1a8 (2)
0x1a0|                  00                           |      .         |                tag: "funcidx" (0x0) 0x1a6-0x1a7 (1)
0x1a0|                     0f                        |       .        |                x: 15 (valid) 0x1a7-0x1a8 (1)
     |                                               |                |            [16]{}: ex 0x1a8-0x1bb (19)
     |                                               |                |              nm{}: 0x1a8-0x1b9 (17)
0x1a0|                        10                     |        .       |                n: 16 (valid) 0x1a8-0x1a9 (1)
0x1a0|                           66 33 32 2e 6d 69 6e|         f32.min|                b: "f32.min_positive" 0x1a9-0x1b9 (16)
0x1b0|5f 70 6f 73 69 74 69 76 65                     |_positive       |
     |                                               |                |              d{}: 0x1b9-0x1bb (2)
0x1b0|                           00                  |         .      |                tag: "funcidx" (0x0) 0x1b9-0x1ba (1)
0x1b0|                              10               |          .     |                x: 16 (valid) 0x1ba-0x1bb (1)
     |                                               |                |            [17]{}: ex 0x1bb-0x1cc (17)
     |                                               |                |              nm{}: 0x1bb-0x1ca (15)
0x1b0|                                 0e            |           .    |                n: 14 (valid) 0x1bb-0x1bc (1)
0x1b0|                                    66 33 32 2e|            f32.|                b: "f32.min_normal" 0x1bc-0x1ca (14)
0x1c0|6d 69 6e 5f 6e 6f 72 6d 61 6c                  |min_normal      |
     |                                               |                |              d{}: 0x1ca-0x1cc (2)
0x1c0|                              00               |          .     |                tag: "funcidx" (0x0) 0x1ca-0x1cb (1)
0x1c0|                                 11            |           .    |                x: 17 (valid) 0x1cb-0x1cc (1)
     |                                               |                |            [18]{}: ex 0x1cc-0x1dd (17)
     |                                               |                |              nm{}: 0x1cc-0x1db (15)
0x1c0|                                    0e         |            .   |                n: 14 (valid) 0x1cc-0x1cd (1)
0x1c0|                                       66 33 32|             f32|                b: "f32.max_finite" 0x1cd-0x1db (14)
0x1d0|2e 6d 61 78 5f 66 69 6e 69 74 65               |.max_finite     |
     |                                               |                |              d{}: 0x1db-0x1dd (2)
0x1d0|                                 00            |           .    |                tag: "funcidx" (0x0) 0x1db-0x1dc (1)
0x1d0|                                    12         |            .   |                x: 18 (valid) 0x1dc-0x1dd (1)
     |                                               |                |            [19]{}: ex 0x1dd-0x1f1 (20)
     |                                               |                |              nm{}: 0x1dd-0x1ef (18)
0x1d0|                                       11      |             .  |                n: 17 (valid) 0x1dd-0x1de (1)
0x1d0|                                          66 33|              f3|                b: "f32.max_subnormal" 0x1de-0x1ef (17)
0x1e0|32 2e 6d 61 78 5f 73 75 62 6e 6f 72 6d 61 6c   |2.max_subnormal |
     |                                               |                |              d{}: 0x1ef-0x1f1 (2)
0x1e0|                                             00|               .|                tag: "funcidx" (0x0) 0x1ef-0x1f0 (1)
0x1f0|13                                             |.               |                x: 19 (valid) 0x1f0-0x1f1 (1)
     |                                               |                |            [20]{}: ex 0x1f1-0x204 (19)
     |                                               |                |              nm{}: 0x1f1-0x202 (17)
0x1f0|   10                                          | .              |                n: 16 (valid) 0x1f1-0x1f2 (1)
0x1f0|      66 33 32 2e 74 72 61 69 6c 69 6e 67 5f 64|  f32.trailing_d|                b: "f32.trailing_dot" 0x1f2-0x202 (16)
0x200|6f 74                                          |ot              |
     |                                               |                |              d{}: 0x202-0x204 (2)
0x200|      00                                       |  .             |                tag: "funcidx" (0x0) 0x202-0x203 (1)
0x200|         14                                    |   .            |                x: 20 (valid) 0x203-0x204 (1)
     |                                               |                |            [21]{}: ex 0x204-0x213 (15)
     |                                               |                |              nm{}: 0x204-0x211 (13)
0x200|            0c                                 |    .           |                n: 12 (valid) 0x204-0x205 (1)
0x200|               66 33 32 5f 64 65 63 2e 7a 65 72|     f32_dec.zer|                b: "f32_dec.zero" 0x205-0x211 (12)
0x210|6f                                             |o               |
     |                                               |                |              d{}: 0x211-0x213 (2)
0x210|   00                                          | .              |                tag: "funcidx" (0x0) 0x211-0x212 (1)
0x210|      15                                       |  .             |                x: 21 (valid) 0x212-0x213 (1)
     |                                               |                |            [22]{}: ex 0x213-0x22b (24)
     |                                               |                |              nm{}: 0x213-0x229 (22)
0x210|         15                                    |   .            |                n: 21 (valid) 0x213-0x214 (1)
0x210|            66 33 32 5f 64 65 63 2e 70 6f 73 69|    f32_dec.posi|                b: "f32_dec.positive_zero" 0x214-0x229 (21)
0x220|74 69 76 65 5f 7a 65 72 6f                     |tive_zero       |
     |                                               |                |              d{}: 0x229-0x22b (2)
0x220|                           00                  |         .      |                tag: "funcidx" (0x0) 0x229-0x22a (1)
0x220|                              16               |          .     |                x: 22 (valid) 0x22a-0x22b (1)
     |                                               |                |            [23]{}: ex 0x22b-0x243 (24)
     |                                               |                |              nm{}: 0x22b-0x241 (22)
0x220|                                 15            |           .    |                n: 21 (valid) 0x22b-0x22c (1)
0x220|                                    66 33 32 5f|            f32_|                b: "f32_dec.negative_zero" 0x22c-0x241 (21)
0x230|64 65 63 2e 6e 65 67 61 74 69 76 65 5f 7a 65 72|dec.negative_zer|
0x240|6f                                             |o               |
     |                                               |                |              d{}: 0x241-0x243 (2)
0x240|   00                                          | .              |                tag: "funcidx" (0x0) 0x241-0x242 (1)
0x240|      17                                       |  .             |                x: 23 (valid) 0x242-0x243 (1)
     |                                               |                |            [24]{}: ex 0x243-0x252 (15)
     |                                               |                |              nm{}: 0x243-0x250 (13)
0x240|         0c                                    |   .            |                n: 12 (valid) 0x243-0x244 (1)
0x240|            66 33 32 5f 64 65 63 2e 6d 69 73 63|    f32_dec.misc|                b: "f32_dec.misc" 0x244-0x250 (12)
     |                                               |                |              d{}: 0x250-0x252 (2)
0x250|00                                             |.               |                tag: "funcidx" (0x0) 0x250-0x251 (1)
0x250|   18                                          | .              |                x: 24 (valid) 0x251-0x252 (1)
     |                                               |                |            [25]{}: ex 0x252-0x269 (23)
     |                                               |                |              nm{}: 0x252-0x267 (21)
0x250|      14                                       |  .             |                n: 20 (valid) 0x252-0x253 (1)
0x250|         66 33 32 5f 64 65 63 2e 6d 69 6e 5f 70|   f32_dec.min_p|                b: "f32_dec.min_positive" 0x253-0x267 (20)
0x260|6f 73 69 74 69 76 65                           |ositive         |
     |                                               |                |              d{}: 0x267-0x269 (2)
0x260|                     00                        |       .        |                tag: "funcidx" (0x0) 0x267-0x268 (1)
0x260|                        19                     |        .       |                x: 25 (valid) 0x268-0x269 (1)
     |                                               |                |            [26]{}: ex 0x269-0x27e (21)
     |                                               |                |              nm{}: 0x269-0x27c (19)
0x260|                           12                  |         .      |                n: 18 (valid) 0x269-0x26a (1)
0x260|                              66 33 32 5f 64 65|          f32_de|                b: "f32_dec.min_normal" 0x26a-0x27c (18)
0x270|63 2e 6d 69 6e 5f 6e 6f 72 6d 61 6c            |c.min_normal    |
     |                                               |                |              d{}: 0x27c-0x27e (2)
0x270|                                    00         |            .   |                tag: "funcidx" (0x0) 0x27c-0x27d (1)
0x270|                                       1a      |             .  |                x: 26 (valid) 0x27d-0x27e (1)
     |                                               |                |            [27]{}: ex 0x27e-0x296 (24)
     |                                               |                |              nm{}: 0x27e-0x294 (22)
0x270|                                          15   |              . |                n: 21 (valid) 0x27e-0x27f (1)
0x270|                                             66|               f|                b: "f32_dec.max_subnormal" 0x27f-0x294 (21)
0x280|33 32 5f 64 65 63 2e 6d 61 78 5f 73 75 62 6e 6f|32_dec.max_subno|
0x290|72 6d 61 6c                                    |rmal            |
     |                                               |                |              d{}: 0x294-0x296 (2)
0x290|            00                                 |    .           |                tag: "funcidx" (0x0) 0x294-0x295 (1)
0x290|               1b                              |     .          |                x: 27 (valid) 0x295-0x296 (1)
     |                                               |                |            [28]{}: ex 0x296-0x2ab (21)
     |                                               |                |              nm{}: 0x296-0x2a9 (19)
0x290|                  12                           |      .         |                n: 18 (valid) 0x296-0x297 (1)
0x290|                     66 33 32 5f 64 65 63 2e 6d|       f32_dec.m|                b: "f32_dec.max_finite" 0x297-0x2a9 (18)
0x2a0|61 78 5f 66 69 6e 69 74 65                     |ax_finite       |
     |                                               |                |              d{}: 0x2a9-0x2ab (2)
0x2a0|                           00                  |         .      |                tag: "funcidx" (0x0) 0x2a9-0x2aa (1)
0x2a0|                              1c               |          .     |                x: 28 (valid) 0x2aa-0x2ab (1)
     |                                               |                |            [29]{}: ex 0x2ab-0x2c2 (23)
     |                                               |                |              nm{}: 0x2ab-0x2c0 (21)
0x2a0|                                 14            |           .    |                n: 20 (valid) 0x2ab-0x2ac (1)
0x2a0|                                    66 33 32 5f|            f32_|                b: "f32_dec.trailing_dot" 0x2ac-0x2c0 (20)
0x2b0|64 65 63 2e 74 72 61 69 6c 69 6e 67 5f 64 6f 74|dec.trailing_dot|
     |                                               |                |              d{}: 0x2c0-0x2c2 (2)
0x2c0|00                                             |.               |                tag: "funcidx" (0x0) 0x2c0-0x2c1 (1)
0x2c0|   1d                                          | .              |                x: 29 (valid) 0x2c1-0x2c2 (1)
     |                                               |                |            [30]{}: ex 0x2c2-0x2dc (26)
     |                                               |                |              nm{}: 0x2c2-0x2da (24)
0x2c0|      17                                       |  .             |                n: 23 (valid) 0x2c2-0x2c3 (1)
0x2c0|         66 33 32 5f 64 65 63 2e 72 6f 6f 74 5f|   f32_dec.root_|                b: "f32_dec.root_beer_float" 0x2c3-0x2da (23)
0x2d0|62 65 65 72 5f 66 6c 6f 61 74                  |beer_float      |
     |                                               |                |              d{}: 0x2da-0x2dc (2)
0x2d0|                              00               |          .     |                tag: "funcidx" (0x0) 0x2da-0x2db (1)
0x2d0|                                 1e            |           .    |                x: 30 (valid) 0x2db-0x2dc (1)
     |                                               |                |            [31]{}: ex 0x2dc-0x2e6 (10)
     |                                               |                |              nm{}: 0x2dc-0x2e4 (8)
0x2d0|                                    07         |            .   |                n: 7 (valid) 0x2dc-0x2dd (1)
0x2d0|                                       66 36 34|             f64|                b: "f64.nan" 0x2dd-0x2e4 (7)
0x2e0|2e 6e 61 6e                                    |.nan            |
     |                                               |                |              d{}: 0x2e4-0x2e6 (2)
0x2e0|            00                                 |    .           |                tag: "funcidx" (0x0) 0x2e4-0x2e5 (1)
0x2e0|               1f                              |     .          |                x: 31 (valid) 0x2e5-0x2e6 (1)
     |                                               |                |            [32]{}: ex 0x2e6-0x2f9 (19)
     |                                               |                |              nm{}: 0x2e6-0x2f7 (17)
0x2e0|                  10                           |      .         |                n: 16 (valid) 0x2e6-0x2e7 (1)
0x2e0|                     66 36 34 2e 70 6f 73 69 74|       f64.posit|                b: "f64.positive_nan" 0x2e7-0x2f7 (16)
0x2f0|69 76 65 5f 6e 61 6e                           |ive_nan         |
     |                                               |                |              d{}: 0x2f7-0x2f9 (2)
0x2f0|                     00                        |       .        |                tag: "funcidx" (0x0) 0x2f7-0x2f8 (1)
0x2f0|                        20                     |                |                x: 32 (valid) 0x2f8-0x2f9 (1)
     |                                               |                |            [33]{}: ex 0x2f9-0x30c (19)
     |                                               |                |              nm{}: 0x2f9-0x30a (17)
0x2f0|                           10                  |         .      |                n: 16 (valid) 0x2f9-0x2fa (1)
0x2f0|                              66 36 34 2e 6e 65|          f64.ne|                b: "f64.negative_nan" 0x2fa-0x30a (16)
0x300|67 61 74 69 76 65 5f 6e 61 6e                  |gative_nan      |
     |                                               |                |              d{}: 0x30a-0x30c (2)
0x300|                              00               |          .     |                tag: "funcidx" (0x0) 0x30a-0x30b (1)
0x300|                                 21            |           !    |                x: 33 (valid) 0x30b-0x30c (1)
     |                                               |                |            [34]{}: ex 0x30c-0x31c (16)
     |                                               |                |              nm{}: 0x30c-0x31a (14)
0x300|                                    0d         |            .   |                n: 13 (valid) 0x30c-0x30d (1)
0x300|                                       66 36 34|             f64|                b: "f64.plain_nan" 0x30d-0x31a (13)
0x310|2e 70 6c 61 69 6e 5f 6e 61 6e                  |.plain_nan      |
     |                                               |                |              d{}: 0x31a-0x31c (2)
0x310|                              00               |          .     |                tag: "funcidx" (0x0) 0x31a-0x31b (1)
0x310|                                 22            |           "    |                x: 34 (valid) 0x31b-0x31c (1)
     |                                               |                |            [35]{}: ex 0x31c-0x341 (37)
     |                                               |                |              nm{}: 0x31c-0x33f (35)
0x310|                                    22         |            "   |                n: 34 (valid) 0x31c-0x31d (1)
0x310|                                       66 36 34|             f64|                b: "f64.informally_known_as_plain_snan" 0x31d-0x33f (34)
0x320|2e 69 6e 66 6f 72 6d 61 6c 6c 79 5f 6b 6e 6f 77|.informally_know|
0x330|6e 5f 61 73 5f 70 6c 61 69 6e 5f 73 6e 61 6e   |n_as_plain_snan |
     |                                               |                |              d{}: 0x33f-0x341 (2)
0x330|                                             00|               .|                tag: "funcidx" (0x0) 0x33f-0x340 (1)
0x340|23                                             |#               |                x: 35 (valid) 0x340-0x341 (1)
     |                                               |                |            [36]{}: ex 0x341-0x354 (19)
     |                                               |                |              nm{}: 0x341-0x352 (17)
0x340|   10                                          | .              |                n: 16 (valid) 0x341-0x342 (1)
0x340|      66 36 34 2e 61 6c 6c 5f 6f 6e 65 73 5f 6e|  f64.all_ones_n|                b: "f64.all_ones_nan" 0x342-0x352 (16)
0x350|61 6e                                          |an              |
     |                                               |                |              d{}: 0x352-0x354 (2)
0x350|      00                                       |  .             |                tag: "funcidx" (0x0) 0x352-0x353 (1)
0x350|         24                                    |   $            |                x: 36 (valid) 0x353-0x354 (1)
     |                                               |                |            [37]{}: ex 0x354-0x363 (15)
     |                                               |                |              nm{}: 0x354-0x361 (13)
0x350|            0c                                 |    .           |                n: 12 (valid) 0x354-0x355 (1)
0x350|               66 36 34 2e 6d 69 73 63 5f 6e 61|     f64.misc_na|                b: "f64.misc_nan" 0x355-0x361 (12)
0x360|6e                                             |n               |
     |                                               |                |              d{}: 0x361-0x363 (2)
0x360|   00                                          | .              |                tag: "funcidx" (0x0) 0x361-0x362 (1)
0x360|      25                                       |  %             |                x: 37 (valid) 0x362-0x363 (1)
     |                                               |                |            [38]{}: ex 0x363-0x37b (24)
     |                                               |                |              nm{}: 0x363-0x379 (22)
0x360|         15                                    |   .            |                n: 21 (valid) 0x363-0x364 (1)
0x360|            66 36 34 2e 6d 69 73 63 5f 70 6f 73|    f64.misc_pos|                b: "f64.misc_positive_nan" 0x364-0x379 (21)
0x370|69 74 69 76 65 5f 6e 61 6e                     |itive_nan       |
     |                                               |                |              d{}: 0x379-0x37b (2)
0x370|                           00                  |         .      |                tag: "funcidx" (0x0) 0x379-0x37a (1)
0x370|                              26               |          &     |                x: 38 (valid) 0x37a-0x37b (1)
     |                                               |                |            [39]{}: ex 0x37b-0x393 (24)
     |                                               |                |              nm{}: 0x37b-0x391 (22)
0x370|                                 15            |           .    |                n: 21 (valid) 0x37b-0x37c (1)
0x370|                                    66 36 34 2e|            f64.|                b: "f64.misc_negative_nan" 0x37c-0x391 (21)
0x380|6d 69 73 63 5f 6e 65 67 61 74 69 76 65 5f 6e 61|misc_negative_na|
0x390|6e                                             |n               |
     |                                               |                |              d{}: 0x391-0x393 (2)
0x390|   00                                          | .              |                tag: "funcidx" (0x0) 0x391-0x392 (1)
0x390|      27                                       |  '             |                x: 39 (valid) 0x392-0x393 (1)
     |                                               |                |            [40]{}: ex 0x393-0x3a2 (15)
     |                                               |                |              nm{}: 0x393-0x3a0 (13)
0x390|         0c                                    |   .            |                n: 12 (valid) 0x393-0x394 (1)
0x390|            66 36 34 2e 69 6e 66 69 6e 69 74 79|    f64.infinity|                b: "f64.infinity" 0x394-0x3a0 (12)
     |                                               |                |              d{}: 0x3a0-0x3a2 (2)
0x3a0|00                                             |.               |                tag: "funcidx" (0x0) 0x3a0-0x3a1 (1)
0x3a0|   28                                          | (              |                x: 40 (valid) 0x3a1-0x3a2 (1)
     |                                               |                |            [41]{}: ex 0x3a2-0x3ba (24)
     |                                               |                |              nm{}: 0x3a2-0x3b8 (22)
0x3a0|      15                                       |  .             |                n: 21 (valid) 0x3a2-0x3a3 (1)
0x3a0|         66 36 34 2e 70 6f 73 69 74 69 76 65 5f|   f64.positive_|                b: "f64.positive_infinity" 0x3a3-0x3b8 (21)
0x3b0|69 6e 66 69 6e 69 74 79                        |infinity        |
     |                                               |                |              d{}: 0x3b8-0x3ba (2)
0x3b0|                        00                     |        .       |                tag: "funcidx" (0x0) 0x3b8-0x3b9 (1)
0x3b0|                           29                  |         )      |                x: 41 (valid) 0x3b9-0x3ba (1)
     |                                               |                |            [42]{}: ex 0x3ba-0x3d2 (24)
     |                                               |                |              nm{}: 0x3ba-0x3d0 (22)
0x3b0|                              15               |          .     |                n: 21 (valid) 0x3ba-0x3bb (1)
0x3b0|                                 66 36 34 2e 6e|           f64.n|                b: "f64.negative_infinity" 0x3bb-0x3d0 (21)
0x3c0|65 67 61 74 69 76 65 5f 69 6e 66 69 6e 69 74 79|egative_infinity|
     |                                               |                |              d{}: 0x3d0-0x3d2 (2)
0x3d0|00                                             |.               |                tag: "funcidx" (0x0) 0x3d0-0x3d1 (1)
0x3d0|   2a                                          | *              |                x: 42 (valid) 0x3d1-0x3d2 (1)
     |                                               |                |            [43]{}: ex 0x3d2-0x3dd (11)
     |                                               |                |              nm{}: 0x3d2-0x3db (9)
0x3d0|      08                                       |  .             |                n: 8 (valid) 0x3d2-0x3d3 (1)
0x3d0|         66 36 34 2e 7a 65 72 6f               |   f64.zero     |                b: "f64.zero" 0x3d3-0x3db (8)
     |                                               |                |              d{}: 0x3db-0x3dd (2)
0x3d0|                                 00            |           .    |                tag: "funcidx" (0x0) 0x3db-0x3dc (1)
0x3d0|                                    2b         |            +   |                x: 43 (valid) 0x3dc-0x3dd (1)
     |                                               |                |            [44]{}: ex 0x3dd-0x3f1 (20)
     |                                               |                |              nm{}: 0x3dd-0x3ef (18)
0x3d0|                                       11      |             .  |                n: 17 (valid) 0x3dd-0x3de (1)
0x3d0|                                          66 36|              f6|                b: "f64.positive_zero" 0x3de-0x3ef (17)
0x3e0|34 2e 70 6f 73 69 74 69 76 65 5f 7a 65 72 6f   |4.positive_zero |
     |                                               |                |              d{}: 0x3ef-0x3f1 (2)
0x3e0|                                             00|               .|                tag: "funcidx" (0x0) 0x3ef-0x3f0 (1)
0x3f0|2c                                             |,               |                x: 44 (valid) 0x3f0-0x3f1 (1)
     |                                               |                |            [45]{}: ex 0x3f1-0x405 (20)
     |                                               |                |              nm{}: 0x3f1-0x403 (18)
0x3f0|   11                                          | .              |                n: 17 (valid) 0x3f1-0x3f2 (1)
0x3f0|      66 36 34 2e 6e 65 67 61 74 69 76 65 5f 7a|  f64.negative_z|                b: "f64.negative_zero" 0x3f2-0x403 (17)
0x400|65 72 6f                                       |ero             |
     |                                               |                |              d{}: 0x403-0x405 (2)
0x400|         00                                    |   .            |                tag: "funcidx" (0x0) 0x403-0x404 (1)
0x400|            2d                                 |    -           |                x: 45 (valid) 0x404-0x405 (1)
     |                                               |                |            [46]{}: ex 0x405-0x410 (11)
     |                                               |                |              nm{}: 0x405-0x40e (9)
0x400|               08                              |     .          |                n: 8 (valid) 0x405-0x406 (1)
0x400|                  66 36 34 2e 6d 69 73 63      |      f64.misc  |                b: "f64.misc" 0x406-0x40e (8)
     |                                               |                |              d{}: 0x40e-0x410 (2)
0x400|                                          00   |              . |                tag: "funcidx" (0x0) 0x40e-0x40f (1)
0x400|                                             2e|               .|                x: 46 (valid) 0x40f-0x410 (1)
     |                                               |                |            [47]{}: ex 0x410-0x423 (19)
     |                                               |                |              nm{}: 0x410-0x421 (17)
0x410|10                                             |.               |                n: 16 (valid) 0x410-0x411 (1)
0x410|   66 36 34 2e 6d 69 6e 5f 70 6f 73 69 74 69 76| f64.min_positiv|                b: "f64.min_positive" 0x411-0x421 (16)
0x420|65                                             |e               |
     |                                               |                |              d{}: 0x421-0x423 (2)
0x420|   00                                          | .              |                tag: "funcidx" (0x0) 0x421-0x422 (1)
0x420|      2f                                       |  /             |                x: 47 (valid) 0x422-0x423 (1)
     |                                               |                |            [48]{}: ex 0x423-0x434 (17)
     |                                               |                |              nm{}: 0x423-0x432 (15)
0x420|         0e                                    |   .            |                n: 14 (valid) 0x423-0x424 (1)
0x420|            66 36 34 2e 6d 69 6e 5f 6e 6f 72 6d|    f64.min_norm|                b: "f64.min_normal" 0x424-0x432 (14)
0x430|61 6c                                          |al              |
     |                                               |                |              d{}: 0x432-0x434 (2)
0x430|      00                                       |  .             |                tag: "funcidx" (0x0) 0x432-0x433 (1)
0x430|         30                                    |   0            |                x: 48 (valid) 0x433-0x434 (1)
     |                                               |                |            [49]{}: ex 0x434-0x448 (20)
     |                                               |                |              nm{}: 0x434-0x446 (18)
0x430|            11                                 |    .           |                n: 17 (valid) 0x434-0x435 (1)
0x430|               66 36 34 2e 6d 61 78 5f 73 75 62|     f64.max_sub|                b: "f64.max_subnormal" 0x435-0x446 (17)
0x440|6e 6f 72 6d 61 6c                              |normal          |
     |                                               |                |              d{}: 0x446-0x448 (2)
0x440|                  00                           |      .         |                tag: "funcidx" (0x0) 0x446-0x447 (1)
0x440|                     31                        |       1        |                x: 49 (valid) 0x447-0x448 (1)
     |                                               |                |            [50]{}: ex 0x448-0x459 (17)
     |                                               |                |              nm{}: 0x448-0x457 (15)
0x440|                        0e                     |        .       |                n: 14 (valid) 0x448-0x449 (1)
0x440|                           66 36 34 2e 6d 61 78|         f64.max|                b: "f64.max_finite" 0x449-0x457 (14)
0x450|5f 66 69 6e 69 74 65                           |_finite         |
     |                                               |                |              d{}: 0x457-0x459 (2)
0x450|                     00                        |       .        |                tag: "funcidx" (0x0) 0x457-0x458 (1)
0x450|                        32                     |        2       |                x: 50 (valid) 0x458-0x459 (1)
     |                                               |                |            [51]{}: ex 0x459-0x46c (19)
     |                                               |                |              nm{}: 0x459-0x46a (17)
0x450|                           10                  |         .      |                n: 16 (valid) 0x459-0x45a (1)
0x450|                              66 36 34 2e 74 72|          f64.tr|                b: "f64.trailing_dot" 0x45a-0x46a (16)
0x460|61 69 6c 69 6e 67 5f 64 6f 74                  |ailing_dot      |
     |                                               |                |              d{}: 0x46a-0x46c (2)
0x460|                              00               |          .     |                tag: "funcidx" (0x0) 0x46a-0x46b (1)
0x460|                                 33            |           3    |                x: 51 (valid) 0x46b-0x46c (1)
     |                                               |                |            [52]{}: ex 0x46c-0x47b (15)
     |                                               |                |              nm{}: 0x46c-0x479 (13)
0x460|                                    0c         |            .   |                n: 12 (valid) 0x46c-0x46d (1)
0x460|                                       66 36 34|             f64|                b: "f64_dec.zero" 0x46d-0x479 (12)
0x470|5f 64 65 63 2e 7a 65 72 6f                     |_dec.zero       |
     |                                               |                |              d{}: 0x479-0x47b (2)
0x470|                           00                  |         .      |                tag: "funcidx" (0x0) 0x479-0x47a (1)
0x470|                              34               |          4     |                x: 52 (valid) 0x47a-0x47b (1)
     |                                               |                |            [53]{}: ex 0x47b-0x493 (24)
     |                                               |                |              nm{}: 0x47b-0x491 (22)
0x470|                                 15            |           .    |                n: 21 (valid) 0x47b-0x47c (1)
0x470|                                    66 36 34 5f|            f64_|                b: "f64_dec.positive_zero" 0x47c-0x491 (21)
0x480|64 65 63 2e 70 6f 73 69 74 69 76 65 5f 7a 65 72|dec.positive_zer|
0x490|6f                                             |o               |
     |                                               |                |              d{}: 0x491-0x493 (2)
0x490|   00                                          | .              |                tag: "funcidx" (0x0) 0x491-0x492 (1)
0x490|      35                                       |  5             |                x: 53 (valid) 0x492-0x493 (1)
     |                                               |                |            [54]{}: ex 0x493-0x4ab (24)
     |                                               |                |              nm{}: 0x493-0x4a9 (22)
0x490|         15                                    |   .            |                n: 21 (valid) 0x493-0x494 (1)
0x490|            66 36 34 5f 64 65 63 2e 6e 65 67 61|    f64_dec.nega|                b: "f64_dec.negative_zero" 0x494-0x4a9 (21)
0x4a0|74 69 76 65 5f 7a 65 72 6f                     |tive_zero       |
     |                                               |                |              d{}: 0x4a9-0x4ab (2)
0x4a0|                           00                  |         .      |                tag: "funcidx" (0x0) 0x4a9-0x4aa (1)
0x4a0|                              36               |          6     |                x: 54 (valid) 0x4aa-0x4ab (1)
     |                                               |                |            [55]{}: ex 0x4ab-0x4ba (15)
     |                                               |                |              nm{}: 0x4ab-0x4b8 (13)
0x4a0|                                 0c            |           .    |                n: 12 (valid) 0x4ab-0x4ac (1)
0x4a0|                                    66 36 34 5f|            f64_|                b: "f64_dec.misc" 0x4ac-0x4b8 (12)
0x4b0|64 65 63 2e 6d 69 73 63                        |dec.misc        |
     |                                               |                |              d{}: 0x4b8-0x4ba (2)
0x4b0|                        00                     |        .       |                tag: "funcidx" (0x0) 0x4b8-0x4b9 (1)
0x4b0|                           37                  |         7      |                x: 55 (valid) 0x4b9-0x4ba (1)
     |                                               |                |            [56]{}: ex 0x4ba-0x4d1 (23)
     |                                               |                |              nm{}: 0x4ba-0x4cf (21)
0x4b0|                              14               |          .     |                n: 20 (valid) 0x4ba-0x4bb (1)
0x4b0|                                 66 36 34 5f 64|           f64_d|                b: "f64_dec.min_positive" 0x4bb-0x4cf (20)
0x4c0|65 63 2e 6d 69 6e 5f 70 6f 73 69 74 69 76 65   |ec.min_positive |
     |                                               |                |              d{}: 0x4cf-0x4d1 (2)
0x4c0|                                             00|               .|                tag: "funcidx" (0x0) 0x4cf-0x4d0 (1)
0x4d0|38                                             |8               |                x: 56 (valid) 0x4d0-0x4d1 (1)
     |                                               |                |            [57]{}: ex 0x4d1-0x4e6 (21)
     |                                               |                |              nm{}: 0x4d1-0x4e4 (19)
0x4d0|   12                                          | .              |                n: 18 (valid) 0x4d1-0x4d2 (1)
0x4d0|      66 36 34 5f 64 65 63 2e 6d 69 6e 5f 6e 6f|  f64_dec.min_no|                b: "f64_dec.min_normal" 0x4d2-0x4e4 (18)
0x4e0|72 6d 61 6c                                    |rmal            |
     |                                               |                |              d{}: 0x4e4-0x4e6 (2)
0x4e0|            00                                 |    .           |                tag: "funcidx" (0x0) 0x4e4-0x4e5 (1)
0x4e0|               39                              |     9          |                x: 57 (valid) 0x4e5-0x4e6 (1)
     |                                               |                |            [58]{}: ex 0x4e6-0x4fe (24)
     |                                               |                |              nm{}: 0x4e6-0x4fc (22)
0x4e0|                  15                           |      .         |                n: 21 (valid) 0x4e6-0x4e7 (1)
0x4e0|                     66 36 34 5f 64 65 63 2e 6d|       f64_dec.m|                b: "f64_dec.max_subnormal" 0x4e7-0x4fc (21)
0x4f0|61 78 5f 73 75 62 6e 6f 72 6d 61 6c            |ax_subnormal    |
     |                                               |                |              d{}: 0x4fc-0x4fe (2)
0x4f0|                                    00         |            .   |                tag: "funcidx" (0x0) 0x4fc-0x4fd (1)
0x4f0|                                       3a      |             :  |                x: 58 (valid) 0x4fd-0x4fe (1)
     |                                               |                |            [59]{}: ex 0x4fe-0x513 (21)
     |                                               |                |              nm{}: 0x4fe-0x511 (19)
0x4f0|                                          12   |              . |                n: 18 (valid) 0x4fe-0x4ff (1)
0x4f0|                                             66|               f|                b: "f64_dec.max_finite" 0x4ff-0x511 (18)
0x500|36 34 5f 64 65 63 2e 6d 61 78 5f 66 69 6e 69 74|64_dec.max_finit|
0x510|65                                             |e               |
     |                                               |                |              d{}: 0x511-0x513 (2)
0x510|   00                                          | .              |                tag: "funcidx" (0x0) 0x511-0x512 (1)
0x510|      3b                                       |  ;             |                x: 59 (valid) 0x512-0x513 (1)
     |                                               |                |            [60]{}: ex 0x513-0x52a (23)
     |                                               |                |              nm{}: 0x513-0x528 (21)
0x510|         14                                    |   .            |                n: 20 (valid) 0x513-0x514 (1)
0x510|            66 36 34 5f 64 65 63 2e 74 72 61 69|    f64_dec.trai|                b: "f64_dec.trailing_dot" 0x514-0x528 (20)
0x520|6c 69 6e 67 5f 64 6f 74                        |ling_dot        |
     |                                               |                |              d{}: 0x528-0x52a (2)
0x520|                        00                     |        .       |                tag: "funcidx" (0x0) 0x528-0x529 (1)
0x520|                           3c                  |         <      |                x: 60 (valid) 0x529-0x52a (1)
     |                                               |                |            [61]{}: ex 0x52a-0x544 (26)
     |                                               |                |              nm{}: 0x52a-0x542 (24)
0x520|                              17               |          .     |                n: 23 (valid) 0x52a-0x52b (1)
0x520|                                 66 36 34 5f 64|           f64_d|                b: "f64_dec.root_beer_float" 0x52b-0x542 (23)
0x530|65 63 2e 72 6f 6f 74 5f 62 65 65 72 5f 66 6c 6f|ec.root_beer_flo|
0x540|61 74                                          |at              |
     |                                               |                |              d{}: 0x542-0x544 (2)
0x540|      00                                       |  .             |                tag: "funcidx" (0x0) 0x542-0x543 (1)
0x540|         3d                                    |   =            |                x: 61 (valid) 0x543-0x544 (1)
     |                                               |                |            [62]{}: ex 0x544-0x553 (15)
     |                                               |                |              nm{}: 0x544-0x551 (13)
0x540|            0c                                 |    .           |                n: 12 (valid) 0x544-0x545 (1)
0x540|               66 33 32 2d 64 65 63 2d 73 65 70|     f32-dec-sep|                b: "f32-dec-sep1" 0x545-0x551 (12)
0x550|31                                             |1               |
     |                                               |                |              d{}: 0x551-0x553 (2)
0x550|   00                                          | .              |                tag: "funcidx" (0x0) 0x551-0x552 (1)
0x550|      3e                                       |  >             |                x: 62 (valid) 0x552-0x553 (1)
     |                                               |                |            [63]{}: ex 0x553-0x562 (15)
     |                                               |                |              nm{}: 0x553-0x560 (13)
0x550|         0c                                    |   .            |                n: 12 (valid) 0x553-0x554 (1)
0x550|            66 33 32 2d 64 65 63 2d 73 65 70 32|    f32-dec-sep2|                b: "f32-dec-sep2" 0x554-0x560 (12)
     |                                               |                |              d{}: 0x560-0x562 (2)
0x560|00                                             |.               |                tag: "funcidx" (0x0) 0x560-0x561 (1)
0x560|   3f                                          | ?              |                x: 63 (valid) 0x561-0x562 (1)
     |                                               |                |            [64]{}: ex 0x562-0x571 (15)
     |                                               |                |              nm{}: 0x562-0x56f (13)
0x560|      0c                                       |  .             |                n: 12 (valid) 0x562-0x563 (1)
0x560|         66 33 32 2d 64 65 63 2d 73 65 70 33   |   f32-dec-sep3 |                b: "f32-dec-sep3" 0x563-0x56f (12)
     |                                               |                |              d{}: 0x56f-0x571 (2)
0x560|                                             00|               .|                tag: "funcidx" (0x0) 0x56f-0x570 (1)
0x570|40                                             |@               |                x: 64 (valid) 0x570-0x571 (1)
     |                                               |                |            [65]{}: ex 0x571-0x580 (15)
     |                                               |                |              nm{}: 0x571-0x57e (13)
0x570|   0c                                          | .              |                n: 12 (valid) 0x571-0x572 (1)
0x570|      66 33 32 2d 64 65 63 2d 73 65 70 34      |  f32-dec-sep4  |                b: "f32-dec-sep4" 0x572-0x57e (12)
     |                                               |                |              d{}: 0x57e-0x580 (2)
0x570|                                          00   |              . |                tag: "funcidx" (0x0) 0x57e-0x57f (1)
0x570|                                             41|               A|                x: 65 (valid) 0x57f-0x580 (1)
     |                                               |                |            [66]{}: ex 0x580-0x58f (15)
     |                                               |                |              nm{}: 0x580-0x58d (13)
0x580|0c                                             |.               |                n: 12 (valid) 0x580-0x581 (1)
0x580|   66 33 32 2d 64 65 63 2d 73 65 70 35         | f32-dec-sep5   |                b: "f32-dec-sep5" 0x581-0x58d (12)
     |                                               |                |              d{}: 0x58d-0x58f (2)
0x580|                                       00      |             .  |                tag: "funcidx" (0x0) 0x58d-0x58e (1)
0x580|                                          42   |              B |                x: 66 (valid) 0x58e-0x58f (1)
     |                                               |                |            [67]{}: ex 0x58f-0x59e (15)
     |                                               |                |              nm{}: 0x58f-0x59c (13)
0x580|                                             0c|               .|                n: 12 (valid) 0x58f-0x590 (1)
0x590|66 33 32 2d 68 65 78 2d 73 65 70 31            |f32-hex-sep1    |                b: "f32-hex-sep1" 0x590-0x59c (12)
     |                                               |                |              d{}: 0x59c-0x59e (2)
0x590|                                    00         |            .   |                tag: "funcidx" (0x0) 0x59c-0x59d (1)
0x590|                                       43      |             C  |                x: 67 (valid) 0x59d-0x59e (1)
     |                                               |                |            [68]{}: ex 0x59e-0x5ad (15)
     |                                               |                |              nm{}: 0x59e-0x5ab (13)
0x590|                                          0c   |              . |                n: 12 (valid) 0x59e-0x59f (1)
0x590|                                             66|               f|                b: "f32-hex-sep2" 0x59f-0x5ab (12)
0x5a0|33 32 2d 68 65 78 2d 73 65 70 32               |32-hex-sep2     |
     |                                               |                |              d{}: 0x5ab-0x5ad (2)
0x5a0|                                 00            |           .    |                tag: "funcidx" (0x0) 0x5ab-0x5ac (1)
0x5a0|                                    44         |            D   |                x: 68 (valid) 0x5ac-0x5ad (1)
     |                                               |                |            [69]{}: ex 0x5ad-0x5bc (15)
     |                                               |                |              nm{}: 0x5ad-0x5ba (13)
0x5a0|                                       0c      |             .  |                n: 12 (valid) 0x5ad-0x5ae (1)
0x5a0|                                          66 33|              f3|                b: "f32-hex-sep3" 0x5ae-0x5ba (12)
0x5b0|32 2d 68 65 78 2d 73 65 70 33                  |2-hex-sep3      |
     |                                               |                |              d{}: 0x5ba-0x5bc (2)
0x5b0|                              00               |          .     |                tag: "funcidx" (0x0) 0x5ba-0x5bb (1)
0x5b0|                                 45            |           E    |                x: 69 (valid) 0x5bb-0x5bc (1)
     |                                               |                |            [70]{}: ex 0x5bc-0x5cb (15)
     |                                               |                |              nm{}: 0x5bc-0x5c9 (13)
0x5b0|                                    0c         |            .   |                n: 12 (valid) 0x5bc-0x5bd (1)
0x5b0|                                       66 33 32|             f32|                b: "f32-hex-sep4" 0x5bd-0x5c9 (12)
0x5c0|2d 68 65 78 2d 73 65 70 34                     |-hex-sep4       |
     |                                               |                |              d{}: 0x5c9-0x5cb (2)
0x5c0|                           00                  |         .      |                tag: "funcidx" (0x0) 0x5c9-0x5ca (1)
0x5c0|                              46               |          F     |                x: 70 (valid) 0x5ca-0x5cb (1)
     |                                               |                |            [71]{}: ex 0x5cb-0x5da (15)
     |                                               |                |              nm{}: 0x5cb-0x5d8 (13)
0x5c0|                                 0c            |           .    |                n: 12 (valid) 0x5cb-0x5cc (1)
0x5c0|                                    66 33 32 2d|            f32-|                b: "f32-hex-sep5" 0x5cc-0x5d8 (12)
0x5d0|68 65 78 2d 73 65 70 35                        |hex-sep5        |
     |                                               |                |              d{}: 0x5d8-0x5da (2)
0x5d0|                        00                     |        .       |                tag: "funcidx" (0x0) 0x5d8-0x5d9 (1)
0x5d0|                           47                  |         G      |                x: 71 (valid) 0x5d9-0x5da (1)
     |                                               |                |            [72]{}: ex 0x5da-0x5e9 (15)
     |                                               |                |              nm{}: 0x5da-0x5e7 (13)
0x5d0|                              0c               |          .     |                n: 12 (valid) 0x5da-0x5db (1)
0x5d0|                                 66 36 34 2d 64|           f64-d|                b: "f64-dec-sep1" 0x5db-0x5e7 (12)
0x5e0|65 63 2d 73 65 70 31                           |ec-sep1         |
     |                                               |                |              d{}: 0x5e7-0x5e9 (2)
0x5e0|                     00                        |       .        |                tag: "funcidx" (0x0) 0x5e7-0x5e8 (1)
0x5e0|                        48                     |        H       |                x: 72 (valid) 0x5e8-0x5e9 (1)
     |                                               |                |            [73]{}: ex 0x5e9-0x5f8 (15)
     |                                               |                |              nm{}: 0x5e9-0x5f6 (13)
0x5e0|                           0c                  |         .      |                n: 12 (valid) 0x5e9-0x5ea (1)
0x5e0|                              66 36 34 2d 64 65|          f64-de|                b: "f64-dec-sep2" 0x5ea-0x5f6 (12)
0x5f0|63 2d 73 65 70 32                              |c-sep2          |
     |                                               |                |              d{}: 0x5f6-0x5f8 (2)
0x5f0|                  00                           |      .         |                tag: "funcidx" (0x0) 0x5f6-0x5f7 (1)
0x5f0|                     49                        |       I        |                x: 73 (valid) 0x5f7-0x5f8 (1)
     |                                               |                |            [74]{}: ex 0x5f8-0x607 (15)
     |                                               |                |              nm{}: 0x5f8-0x605 (13)
0x5f0|                        0c                     |        .       |                n: 12 (valid) 0x5f8-0x5f9 (1)
0x5f0|                           66 36 34 2d 64 65 63|         f64-dec|                b: "f64-dec-sep3" 0x5f9-0x605 (12)
0x600|2d 73 65 70 33                                 |-sep3           |
     |                                               |                |              d{}: 0x605-0x607 (2)
0x600|               00                              |     .          |                tag: "funcidx" (0x0) 0x605-0x606 (1)
0x600|                  4a                           |      J         |                x: 74 (valid) 0x606-0x607 (1)
     |                                               |                |            [75]{}: ex 0x607-0x616 (15)
     |                                               |                |              nm{}: 0x607-0x614 (13)
0x600|                     0c                        |       .        |                n: 12 (valid) 0x607-0x608 (1)
0x600|                        66 36 34 2d 64 65 63 2d|        f64-dec-|                b: "f64-dec-sep4" 0x608-0x614 (12)
0x610|73 65 70 34                                    |sep4            |
     |                                               |                |              d{}: 0x614-0x616 (2)
0x610|            00                                 |    .           |                tag: "funcidx" (0x0) 0x614-0x615 (1)
0x610|               4b                              |     K          |                x: 75 (valid) 0x615-0x616 (1)
     |                                               |                |            [76]{}: ex 0x616-0x625 (15)
     |                                               |                |              nm{}: 0x616-0x623 (13)
0x610|                  0c                           |      .         |                n: 12 (valid) 0x616-0x617 (1)
0x610|                     66 36 34 2d 64 65 63 2d 73|       f64-dec-s|                b: "f64-dec-sep5" 0x617-0x623 (12)
0x620|65 70 35                                       |ep5             |
     |                                               |                |              d{}: 0x623-0x625 (2)
0x620|         00                                    |   .            |                tag: "funcidx" (0x0) 0x623-0x624 (1)
0x620|            4c                                 |    L           |                x: 76 (valid) 0x624-0x625 (1)
     |                                               |                |            [77]{}: ex 0x625-0x634 (15)
     |                                               |                |              nm{}: 0x625-0x632 (13)
0x620|               0c                              |     .          |                n: 12 (valid) 0x625-0x626 (1)
0x620|                  66 36 34 2d 68 65 78 2d 73 65|      f64-hex-se|                b: "f64-hex-sep1" 0x626-0x632 (12)
0x630|70 31                                          |p1              |
     |                                               |                |              d{}: 0x632-0x634 (2)
0x630|      00                                       |  .             |                tag: "funcidx" (0x0) 0x632-0x633 (1)
0x630|         4d                                    |   M            |                x: 77 (valid) 0x633-0x634 (1)
     |                                               |                |            [78]{}: ex 0x634-0x643 (15)
     |                                               |                |              nm{}: 0x634-0x641 (13)
0x630|            0c                                 |    .           |                n: 12 (valid) 0x634-0x635 (1)
0x630|               66 36 34 2d 68 65 78 2d 73 65 70|     f64-hex-sep|                b: "f64-hex-sep2" 0x635-0x641 (12)
0x640|32                                             |2               |
     |                                               |                |              d{}: 0x641-0x643 (2)
0x640|   00                                          | .              |                tag: "funcidx" (0x0) 0x641-0x642 (1)
0x640|      4e                                       |  N             |                x: 78 (valid) 0x642-0x643 (1)
     |                                               |                |            [79]{}: ex 0x643-0x652 (15)
     |                                               |                |              nm{}: 0x643-0x650 (13)
0x640|         0c                                    |   .            |                n: 12 (valid) 0x643-0x644 (1)
0x640|            66 36 34 2d 68 65 78 2d 73 65 70 33|    f64-hex-sep3|                b: "f64-hex-sep3" 0x644-0x650 (12)
     |                                               |                |              d{}: 0x650-0x652 (2)
0x650|00                                             |.               |                tag: "funcidx" (0x0) 0x650-0x651 (1)
0x650|   4f                                          | O              |                x: 79 (valid) 0x651-0x652 (1)
     |                                               |                |            [80]{}: ex 0x652-0x661 (15)
     |                                               |                |              nm{}: 0x652-0x65f (13)
0x650|      0c                                       |  .             |                n: 12 (valid) 0x652-0x653 (1)
0x650|         66 36 34 2d 68 65 78 2d 73 65 70 34   |   f64-hex-sep4 |                b: "f64-hex-sep4" 0x653-0x65f (12)
     |                                               |                |              d{}: 0x65f-0x661 (2)
0x650|                                             00|               .|                tag: "funcidx" (0x0) 0x65f-0x660 (1)
0x660|50                                             |P               |                x: 80 (valid) 0x660-0x661 (1)
     |                                               |                |            [81]{}: ex 0x661-0x670 (15)
     |                                               |                |              nm{}: 0x661-0x66e (13)
0x660|   0c                                          | .              |                n: 12 (valid) 0x661-0x662 (1)
0x660|      66 36 34 2d 68 65 78 2d 73 65 70 35      |  f64-hex-sep5  |                b: "f64-hex-sep5" 0x662-0x66e (12)
     |                                               |                |              d{}: 0x66e-0x670 (2)
0x660|                                          00   |              . |                tag: "funcidx" (0x0) 0x66e-0x66f (1)
0x660|                                             51|               Q|                x: 81 (valid) 0x66f-0x670 (1)
     |                                               |                |    [3]{}: section 0x670-0x9e6 (886)
0x670|0a                                             |.               |      id: "code_section" (10) 0x670-0x671 (1)
0x670|   f3 06                                       | ..             |      size: 883 (valid) 0x671-0x673 (2)
     |                                               |                |      content{}: 0x673-0x9e6 (883)
     |                                               |                |        code{}: 0x673-0x9e6 (883)
0x670|         52                                    |   R            |          n: 82 (valid) 0x673-0x674 (1)
     |                                               |                |          x[0:82]: 0x674-0x9e6 (882)
     |                                               |                |            [0]{}: code 0x674-0x67d (9)
0x670|            08                                 |    .           |              size: 8 (valid) 0x674-0x675 (1)
     |                                               |                |              code{}: 0x675-0x67d (8)
     |                                               |                |                t{}: 0x675-0x676 (1)
0x670|               00                              |     .          |                  n: 0 (valid) 0x675-0x676 (1)
     |                                               |                |                  x[0:0]: 0x676-0x676 (0)
     |                                               |                |                e[0:3]: 0x676-0x67d (7)
     |                                               |                |                  [0]{}: in 0x676-0x67b (5)
0x670|                  43                           |      C         |                    opcode: "f32.const" (0x43) 0x676-0x677 (1)
0x670|                     00 00 c0 7f               |       ....     |                    z: NaN 0x677-0x67b (4)
     |                                               |                |                  [1]{}: in 0x67b-0x67c (1)
0x670|                                 bc            |           .    |                    opcode: "i32.reinterpret_f32" (0xbc) 0x67b-0x67c (1)
     |                                               |                |                  [2]{}: in 0x67c-0x67d (1)
0x670|                                    0b         |            .   |                    opcode: "end" (0xb) 0x67c-0x67d (1)
     |                                               |                |            [1]{}: code 0x67d-0x686 (9)
0x670|                                       08      |             .  |              size: 8 (valid) 0x67d-0x67e (1)
     |                                               |                |              code{}: 0x67e-0x686 (8)
     |                                               |                |                t{}: 0x67e-0x67f (1)
0x670|                                          00   |              . |                  n: 0 (valid) 0x67e-0x67f (1)
     |                                               |                |                  x[0:0]: 0x67f-0x67f (0)
     |                                               |                |                e[0:3]: 0x67f-0x686 (7)
     |                                               |                |                  [0]{}: in 0x67f-0x684 (5)
0x670|                                             43|               C|                    opcode: "f32.const" (0x43) 0x67f-0x680 (1)
0x680|00 00 c0 7f                                    |....            |                    z: NaN 0x680-0x684 (4)
     |                                               |                |                  [1]{}: in 0x684-0x685 (1)
0x680|            bc                                 |    .           |                    opcode: "i32.reinterpret_f32" (0xbc) 0x684-0x685 (1)
     |                                               |                |                  [2]{}: in 0x685-0x686 (1)
0x680|               0b                              |     .          |                    opcode: "end" (0xb) 0x685-0x686 (1)
     |                                               |                |            [2]{}: code 0x686-0x68f (9)
0x680|                  08                           |      .         |              size: 8 (valid) 0x686-0x687 (1)
     |                                               |                |              code{}: 0x687-0x68f (8)
     |                                               |                |                t{}: 0x687-0x688 (1)
0x680|                     00                        |       .        |                  n: 0 (valid) 0x687-0x688 (1)
     |                                               |                |                  x[0:0]: 0x688-0x688 (0)
     |                                               |                |                e[0:3]: 0x688-0x68f (7)
     |                                               |                |                  [0]{}: in 0x688-0x68d (5)
0x680|                        43                     |        C       |                    opcode: "f32.const" (0x43) 0x688-0x689 (1)
0x680|                           00 00 c0 ff         |         ....   |                    z: NaN 0x689-0x68d (4)
     |                                               |                |                  [1]{}: in 0x68d-0x68e (1)
0x680|                                       bc      |             .  |                    opcode: "i32.reinterpret_f32" (0xbc) 0x68d-0x68e (1)
     |                                               |                |                  [2]{}: in 0x68e-0x68f (1)
0x680|                                          0b   |              . |                    opcode: "end" (0xb) 0x68e-0x68f (1)
     |                                               |                |            [3]{}: code 0x68f-0x698 (9)
0x680|                                             08|               .|              size: 8 (valid) 0x68f-0x690 (1)
     |                                               |                |              code{}: 0x690-0x698 (8)
     |                                               |                |                t{}: 0x690-0x691 (1)
0x690|00                                             |.               |                  n: 0 (valid) 0x690-0x691 (1)
     |                                               |                |                  x[0:0]: 0x691-0x691 (0)
     |                                               |                |                e[0:3]: 0x691-0x698 (7)
     |                                               |                |                  [0]{}: in 0x691-0x696 (5)
0x690|   43                                          | C              |                    opcode: "f32.const" (0x43) 0x691-0x692 (1)
0x690|      00 00 c0 7f                              |  ....          |                    z: NaN 0x692-0x696 (4)
     |                                               |                |                  [1]{}: in 0x696-0x697 (1)
0x690|                  bc                           |      .         |                    opcode: "i32.reinterpret_f32" (0xbc) 0x696-0x697 (1)
     |                                               |                |                  [2]{}: in 0x697-0x698 (1)
0x690|                     0b                        |       .        |                    opcode: "end" (0xb) 0x697-0x698 (1)
     |                                               |                |            [4]{}: code 0x698-0x6a1 (9)
0x690|                        08                     |        .       |              size: 8 (valid) 0x698-0x699 (1)
     |                                               |                |              code{}: 0x699-0x6a1 (8)
     |                                               |                |                t{}: 0x699-0x69a (1)
0x690|                           00                  |         .      |                  n: 0 (valid) 0x699-0x69a (1)
     |                                               |                |                  x[0:0]: 0x69a-0x69a (0)
     |                                               |                |                e[0:3]: 0x69a-0x6a1 (7)
     |                                               |                |                  [0]{}: in 0x69a-0x69f (5)
0x690|                              43               |          C     |                    opcode: "f32.const" (0x43) 0x69a-0x69b (1)
0x690|                                 00 00 a0 7f   |           .... |                    z: NaN 0x69b-0x69f (4)
     |                                               |                |                  [1]{}: in 0x69f-0x6a0 (1)
0x690|                                             bc|               .|                    opcode: "i32.reinterpret_f32" (0xbc) 0x69f-0x6a0 (1)
     |                                               |                |                  [2]{}: in 0x6a0-0x6a1 (1)
0x6a0|0b                                             |.               |                    opcode: "end" (0xb) 0x6a0-0x6a1 (1)
     |                                               |                |            [5]{}: code 0x6a1-0x6aa (9)
0x6a0|   08                                          | .              |              size: 8 (valid) 0x6a1-0x6a2 (1)
     |                                               |                |              code{}: 0x6a2-0x6aa (8)
     |                                               |                |                t{}: 0x6a2-0x6a3 (1)
0x6a0|      00                                       |  .             |                  n: 0 (valid) 0x6a2-0x6a3 (1)
     |                                               |                |                  x[0:0]: 0x6a3-0x6a3 (0)
     |                                               |                |                e[0:3]: 0x6a3-0x6aa (7)
     |                                               |                |                  [0]{}: in 0x6a3-0x6a8 (5)
0x6a0|         43                                    |   C            |                    opcode: "f32.const" (0x43) 0x6a3-0x6a4 (1)
0x6a0|            ff ff ff ff                        |    ....        |                    z: NaN 0x6a4-0x6a8 (4)
     |                                               |                |                  [1]{}: in 0x6a8-0x6a9 (1)
0x6a0|                        bc                     |        .       |                    opcode: "i32.reinterpret_f32" (0xbc) 0x6a8-0x6a9 (1)
     |                                               |                |                  [2]{}: in 0x6a9-0x6aa (1)
0x6a0|                           0b                  |         .      |                    opcode: "end" (0xb) 0x6a9-0x6aa (1)
     |                                               |                |            [6]{}: code 0x6aa-0x6b3 (9)
0x6a0|                              08               |          .     |              size: 8 (valid) 0x6aa-0x6ab (1)
     |                                               |                |              code{}: 0x6ab-0x6b3 (8)
     |                                               |                |                t{}: 0x6ab-0x6ac (1)
0x6a0|                                 00            |           .    |                  n: 0 (valid) 0x6ab-0x6ac (1)
     |                                               |                |                  x[0:0]: 0x6ac-0x6ac (0)
     |                                               |                |                e[0:3]: 0x6ac-0x6b3 (7)
     |                                               |                |                  [0]{}: in 0x6ac-0x6b1 (5)
0x6a0|                                    43         |            C   |                    opcode: "f32.const" (0x43) 0x6ac-0x6ad (1)
0x6a0|                                       45 23 81|             E#.|                    z: NaN 0x6ad-0x6b1 (4)
0x6b0|7f                                             |.               |
     |                                               |                |                  [1]{}: in 0x6b1-0x6b2 (1)
0x6b0|   bc                                          | .              |                    opcode: "i32.reinterpret_f32" (0xbc) 0x6b1-0x6b2 (1)
     |                                               |                |                  [2]{}: in 0x6b2-0x6b3 (1)
0x6b0|      0b                                       |  .             |                    opcode: "end" (0xb) 0x6b2-0x6b3 (1)
     |                                               |                |            [7]{}: code 0x6b3-0x6bc (9)
0x6b0|         08                                    |   .            |              size: 8 (valid) 0x6b3-0x6b4 (1)
     |                                               |                |              code{}: 0x6b4-0x6bc (8)
     |                                               |                |                t{}: 0x6b4-0x6b5 (1)
0x6b0|            00                                 |    .           |                  n: 0 (valid) 0x6b4-0x6b5 (1)
     |                                               |                |                  x[0:0]: 0x6b5-0x6b5 (0)
     |                                               |                |                e[0:3]: 0x6b5-0x6bc (7)
     |                                               |                |                  [0]{}: in 0x6b5-0x6ba (5)
0x6b0|               43                              |     C          |                    opcode: "f32.const" (0x43) 0x6b5-0x6b6 (1)
0x6b0|                  50 40 b0 7f                  |      P@..      |                    z: NaN 0x6b6-0x6ba (4)
     |                                               |                |                  [1]{}: in 0x6ba-0x6bb (1)
0x6b0|                              bc               |          .     |                    opcode: "i32.reinterpret_f32" (0xbc) 0x6ba-0x6bb (1)
     |                                               |                |                  [2]{}: in 0x6bb-0x6bc (1)
0x6b0|                                 0b            |           .    |                    opcode: "end" (0xb) 0x6bb-0x6bc (1)
     |                                               |                |            [8]{}: code 0x6bc-0x6c5 (9)
0x6b0|                                    08         |            .   |              size: 8 (valid) 0x6bc-0x6bd (1)
     |                                               |                |              code{}: 0x6bd-0x6c5 (8)
     |                                               |                |                t{}: 0x6bd-0x6be (1)
0x6b0|                                       00      |             .  |                  n: 0 (valid) 0x6bd-0x6be (1)
     |                                               |                |                  x[0:0]: 0x6be-0x6be (0)
     |                                               |                |                e[0:3]: 0x6be-0x6c5 (7)
     |                                               |                |                  [0]{}: in 0x6be-0x6c3 (5)
0x6b0|                                          43   |              C |                    opcode: "f32.const" (0x43) 0x6be-0x6bf (1)
0x6b0|                                             de|               .|                    z: NaN 0x6bf-0x6c3 (4)
0x6c0|bc aa ff                                       |...             |
     |                                               |                |                  [1]{}: in 0x6c3-0x6c4 (1)
0x6c0|         bc                                    |   .            |                    opcode: "i32.reinterpret_f32" (0xbc) 0x6c3-0x6c4 (1)
     |                                               |                |                  [2]{}: in 0x6c4-0x6c5 (1)
0x6c0|            0b                                 |    .           |                    opcode: "end" (0xb) 0x6c4-0x6c5 (1)
     |                                               |                |            [9]{}: code 0x6c5-0x6ce (9)
0x6c0|               08                              |     .          |              size: 8 (valid) 0x6c5-0x6c6 (1)
     |                                               |                |              code{}: 0x6c6-0x6ce (8)
     |                                               |                |                t{}: 0x6c6-0x6c7 (1)
0x6c0|                  00                           |      .         |                  n: 0 (valid) 0x6c6-0x6c7 (1)
     |                                               |                |                  x[0:0]: 0x6c7-0x6c7 (0)
     |                                               |                |                e[0:3]: 0x6c7-0x6ce (7)
     |                                               |                |                  [0]{}: in 0x6c7-0x6cc (5)
0x6c0|                     43                        |       C        |                    opcode: "f32.const" (0x43) 0x6c7-0x6c8 (1)
0x6c0|                        00 00 80 7f            |        ....    |                    z: +Inf 0x6c8-0x6cc (4)
     |                                               |                |                  [1]{}: in 0x6cc-0x6cd (1)
0x6c0|                                    bc         |            .   |                    opcode: "i32.reinterpret_f32" (0xbc) 0x6cc-0x6cd (1)
     |                                               |                |                  [2]{}: in 0x6cd-0x6ce (1)
0x6c0|                                       0b      |             .  |                    opcode: "end" (0xb) 0x6cd-0x6ce (1)
     |                                               |                |            [10]{}: code 0x6ce-0x6d7 (9)
0x6c0|                                          08   |              . |              size: 8 (valid) 0x6ce-0x6cf (1)
     |                                               |                |              code{}: 0x6cf-0x6d7 (8)
     |                                               |                |                t{}: 0x6cf-0x6d0 (1)
0x6c0|                                             00|               .|                  n: 0 (valid) 0x6cf-0x6d0 (1)
     |                                               |                |                  x[0:0]: 0x6d0-0x6d0 (0)
     |                                               |                |                e[0:3]: 0x6d0-0x6d7 (7)
     |                                               |                |                  [0]{}: in 0x6d0-0x6d5 (5)
0x6d0|43                                             |C               |                    opcode: "f32.const" (0x43) 0x6d0-0x6d1 (1)
0x6d0|   00 00 80 7f                                 | ....           |                    z: +Inf 0x6d1-0x6d5 (4)
     |                                               |                |                  [1]{}: in 0x6d5-0x6d6 (1)
0x6d0|               bc                              |     .          |                    opcode: "i32.reinterpret_f32" (0xbc) 0x6d5-0x6d6 (1)
     |                                               |                |                  [2]{}: in 0x6d6-0x6d7 (1)
0x6d0|                  0b                           |      .         |                    opcode: "end" (0xb) 0x6d6-0x6d7 (1)
     |                                               |                |            [11]{}: code 0x6d7-0x6e0 (9)
0x6d0|                     08                        |       .        |              size: 8 (valid) 0x6d7-0x6d8 (1)
     |                                               |                |              code{}: 0x6d8-0x6e0 (8)
     |                                               |                |                t{}: 0x6d8-0x6d9 (1)
0x6d0|                        00                     |        .       |                  n: 0 (valid) 0x6d8-0x6d9 (1)
     |                                               |                |                  x[0:0]: 0x6d9-0x6d9 (0)
     |                                               |                |                e[0:3]: 0x6d9-0x6e0 (7)
     |                                               |                |                  [0]{}: in 0x6d9-0x6de (5)
0x6d0|                           43                  |         C      |                    opcode: "f32.const" (0x43) 0x6d9-0x6da (1)
0x6d0|                              00 00 80 ff      |          ....  |                    z: -Inf 0x6da-0x6de (4)
     |                                               |                |                  [1]{}: in 0x6de-0x6df (1)
0x6d0|                                          bc   |              . |                    opcode: "i32.reinterpret_f32" (0xbc) 0x6de-0x6df (1)
     |                                               |                |                  [2]{}: in 0x6df-0x6e0 (1)
0x6d0|                                             0b|               .|                    opcode: "end" (0xb) 0x6df-0x6e0 (1)
     |                                               |                |            [12]{}: code 0x6e0-0x6e9 (9)
0x6e0|08                                             |.               |              size: 8 (valid) 0x6e0-0x6e1 (1)
     |                                               |                |              code{}: 0x6e1-0x6e9 (8)
     |                                               |                |                t{}: 0x6e1-0x6e2 (1)
0x6e0|   00                                          | .              |                  n: 0 (valid) 0x6e1-0x6e2 (1)
     |                                               |                |                  x[0:0]: 0x6e2-0x6e2 (0)
     |                                               |                |                e[0:3]: 0x6e2-0x6e9 (7)
     |                                               |                |                  [0]{}: in 0x6e2-0x6e7 (5)
0x6e0|      43                                       |  C             |                    opcode: "f32.const" (0x43) 0x6e2-0x6e3 (1)
0x6e0|         00 00 00 00                           |   ....         |                    z: 0 0x6e3-0x6e7 (4)
     |                                               |                |                  [1]{}: in 0x6e7-0x6e8 (1)
0x6e0|                     bc                        |       .        |                    opcode: "i32.reinterpret_f32" (0xbc) 0x6e7-0x6e8 (1)
     |                                               |                |                  [2]{}: in 0x6e8-0x6e9 (1)
0x6e0|                        0b                     |        .       |                    opcode: "end" (0xb) 0x6e8-0x6e9 (1)
     |                                               |                |            [13]{}: code 0x6e9-0x6f2 (9)
0x6e0|                           08                  |         .      |              size: 8 (valid) 0x6e9-0x6ea (1)
     |                                               |                |              code{}: 0x6ea-0x6f2 (8)
     |                                               |                |                t{}: 0x6ea-0x6eb (1)
0x6e0|                              00               |          .     |                  n: 0 (valid) 0x6ea-0x6eb (1)
     |                                               |                |                  x[0:0]: 0x6eb-0x6eb (0)
     |                                               |                |                e[0:3]: 0x6eb-0x6f2 (7)
     |                                               |                |                  [0]{}: in 0x6eb-0x6f0 (5)
0x6e0|                                 43            |           C    |                    opcode: "f32.const" (0x43) 0x6eb-0x6ec (1)
0x6e0|                                    00 00 00 00|            ....|                    z: 0 0x6ec-0x6f0 (4)
     |                                               |                |                  [1]{}: in 0x6f0-0x6f1 (1)
0x6f0|bc                                             |.               |                    opcode: "i32.reinterpret_f32" (0xbc) 0x6f0-0x6f1 (1)
     |                                               |                |                  [2]{}: in 0x6f1-0x6f2 (1)
0x6f0|   0b                                          | .              |                    opcode: "end" (0xb) 0x6f1-0x6f2 (1)
     |                                               |                |            [14]{}: code 0x6f2-0x6fb (9)
0x6f0|      08                                       |  .             |              size: 8 (valid) 0x6f2-0x6f3 (1)
     |                                               |                |              code{}: 0x6f3-0x6fb (8)
     |                                               |                |                t{}: 0x6f3-0x6f4 (1)
0x6f0|         00                                    |   .            |                  n: 0 (valid) 0x6f3-0x6f4 (1)
     |                                               |                |                  x[0:0]: 0x6f4-0x6f4 (0)
     |                                               |                |                e[0:3]: 0x6f4-0x6fb (7)
     |                                               |                |                  [0]{}: in 0x6f4-0x6f9 (5)
0x6f0|            43                                 |    C           |                    opcode: "f32.const" (0x43) 0x6f4-0x6f5 (1)
0x6f0|               00 00 00 80                     |     ....       |                    z: -0 0x6f5-0x6f9 (4)
     |                                               |                |                  [1]{}: in 0x6f9-0x6fa (1)
0x6f0|                           bc                  |         .      |                    opcode: "i32.reinterpret_f32" (0xbc) 0x6f9-0x6fa (1)
     |                                               |                |                  [2]{}: in 0x6fa-0x6fb (1)
0x6f0|                              0b               |          .     |                    opcode: "end" (0xb) 0x6fa-0x6fb (1)
     |                                               |                |            [15]{}: code 0x6fb-0x704 (9)
0x6f0|                                 08            |           .    |              size: 8 (valid) 0x6fb-0x6fc (1)
     |                                               |                |              code{}: 0x6fc-0x704 (8)
     |                                               |                |                t{}: 0x6fc-0x6fd (1)
0x6f0|                                    00         |            .   |                  n: 0 (valid) 0x6fc-0x6fd (1)
     |                                               |                |                  x[0:0]: 0x6fd-0x6fd (0)
     |                                               |                |                e[0:3]: 0x6fd-0x704 (7)
     |                                               |                |                  [0]{}: in 0x6fd-0x702 (5)
0x6f0|                                       43      |             C  |                    opcode: "f32.const" (0x43) 0x6fd-0x6fe (1)
0x6f0|                                          db 0f|              ..|                    z: 6.2831854820251465 0x6fe-0x702 (4)
0x700|c9 40                                          |.@              |
     |                                               |                |                  [1]{}: in 0x702-0x703 (1)
0x700|      bc                                       |  .             |                    opcode: "i32.reinterpret_f32" (0xbc) 0x702-0x703 (1)
     |                                               |                |                  [2]{}: in 0x703-0x704 (1)
0x700|         0b                                    |   .            |                    opcode: "end" (0xb) 0x703-0x704 (1)
     |                                               |                |            [16]{}: code 0x704-0x70d (9)
0x700|            08                                 |    .           |              size: 8 (valid) 0x704-0x705 (1)
     |                                               |                |              code{}: 0x705-0x70d (8)
     |                                               |                |                t{}: 0x705-0x706 (1)
0x700|               00                              |     .          |                  n: 0 (valid) 0x705-0x706 (1)
     |                                               |                |                  x[0:0]: 0x706-0x706 (0)
     |                                               |                |                e[0:3]: 0x706-0x70d (7)
     |                                               |                |                  [0]{}: in 0x706-0x70b (5)
0x700|                  43                           |      C         |                    opcode: "f32.const" (0x43) 0x706-0x707 (1)
0x700|                     01 00 00 00               |       ....     |                    z: 1.401298464324817e-45 0x707-0x70b (4)
     |                                               |                |                  [1]{}: in 0x70b-0x70c (1)
0x700|                                 bc            |           .    |                    opcode: "i32.reinterpret_f32" (0xbc) 0x70b-0x70c (1)
     |                                               |                |                  [2]{}: in 0x70c-0x70d (1)
0x700|                                    0b         |            .   |                    opcode: "end" (0xb) 0x70c-0x70d (1)
     |                                               |                |            [17]{}: code 0x70d-0x716 (9)
0x700|                                       08      |             .  |              size: 8 (valid) 0x70d-0x70e (1)
     |                                               |                |              code{}: 0x70e-0x716 (8)
     |                                               |                |                t{}: 0x70e-0x70f (1)
0x700|                                          00   |              . |                  n: 0 (valid) 0x70e-0x70f (1)
     |                                               |                |                  x[0:0]: 0x70f-0x70f (0)
     |                                               |                |                e[0:3]: 0x70f-0x716 (7)
     |                                               |                |                  [0]{}: in 0x70f-0x714 (5)
0x700|                                             43|               C|                    opcode: "f32.const" (0x43) 0x70f-0x710 (1)
0x710|00 00 80 00                                    |....            |                    z: 1.1754943508222875e-38 0x710-0x714 (4)
     |                                               |                |                  [1]{}: in 0x714-0x715 (1)
0x710|            bc                                 |    .           |                    opcode: "i32.reinterpret_f32" (0xbc) 0x714-0x715 (1)
     |                                               |                |                  [2]{}: in 0x715-0x716 (1)
0x710|               0b                              |     .          |                    opcode: "end" (0xb) 0x715-0x716 (1)
     |                                               |                |            [18]{}: code 0x716-0x71f (9)
0x710|                  08                           |      .         |              size: 8 (valid) 0x716-0x717 (1)
     |                                               |                |              code{}: 0x717-0x71f (8)
     |                                               |                |                t{}: 0x717-0x718 (1)
0x710|                     00                        |       .        |                  n: 0 (valid) 0x717-0x718 (1)
     |                                               |                |                  x[0:0]: 0x718-0x718 (0)
     |                                               |                |                e[0:3]: 0x718-0x71f (7)
     |                                               |                |                  [0]{}: in 0x718-0x71d (5)
0x710|                        43                     |        C       |                    opcode: "f32.const" (0x43) 0x718-0x719 (1)
0x710|                           ff ff 7f 7f         |         ....   |                    z: 3.4028234663852886e+38 0x719-0x71d (4)
     |                                               |                |                  [1]{}: in 0x71d-0x71e (1)
0x710|                                       bc      |             .  |                    opcode: "i32.reinterpret_f32" (0xbc) 0x71d-0x71e (1)
     |                                               |                |                  [2]{}: in 0x71e-0x71f (1)
0x710|                                          0b   |              . |                    opcode: "end" (0xb) 0x71e-0x71f (1)
     |                                               |                |            [19]{}: code 0x71f-0x728 (9)
0x710|                                             08|               .|              size: 8 (valid) 0x71f-0x720 (1)
     |                                               |                |              code{}: 0x720-0x728 (8)
     |                                               |                |                t{}: 0x720-0x721 (1)
0x720|00                                             |.               |                  n: 0 (valid) 0x720-0x721 (1)
     |                                               |                |                  x[0:0]: 0x721-0x721 (0)
     |                                               |                |                e[0:3]: 0x721-0x728 (7)
     |                                               |                |                  [0]{}: in 0x721-0x726 (5)
0x720|   43                                          | C              |                    opcode: "f32.const" (0x43) 0x721-0x722 (1)
0x720|      ff ff 7f 00                              |  ....          |                    z: 1.1754942106924411e-38 0x722-0x726 (4)
     |                                               |                |                  [1]{}: in 0x726-0x727 (1)
0x720|                  bc                           |      .         |                    opcode: "i32.reinterpret_f32" (0xbc) 0x726-0x727 (1)
     |                                               |                |                  [2]{}: in 0x727-0x728 (1)
0x720|                     0b                        |       .        |                    opcode: "end" (0xb) 0x727-0x728 (1)
     |                                               |                |            [20]{}: code 0x728-0x731 (9)
0x720|                        08                     |        .       |              size: 8 (valid) 0x728-0x729 (1)
     |                                               |                |              code{}: 0x729-0x731 (8)
     |                                               |                |                t{}: 0x729-0x72a (1)
0x720|                           00                  |         .      |                  n: 0 (valid) 0x729-0x72a (1)
     |                                               |                |                  x[0:0]: 0x72a-0x72a (0)
     |                                               |                |                e[0:3]: 0x72a-0x731 (7)
     |                                               |                |                  [0]{}: in 0x72a-0x72f (5)
0x720|                              43               |          C     |                    opcode: "f32.const" (0x43) 0x72a-0x72b (1)
0x720|                                 00 00 80 44   |           ...D |                    z: 1024 0x72b-0x72f (4)
     |                                               |                |                  [1]{}: in 0x72f-0x730 (1)
0x720|                                             bc|               .|                    opcode: "i32.reinterpret_f32" (0xbc) 0x72f-0x730 (1)
     |                                               |                |                  [2]{}: in 0x730-0x731 (1)
0x730|0b                                             |.               |                    opcode: "end" (0xb) 0x730-0x731 (1)
     |                                               |                |            [21]{}: code 0x731-0x73a (9)
0x730|   08                                          | .              |              size: 8 (valid) 0x731-0x732 (1)
     |                                               |                |              code{}: 0x732-0x73a (8)
     |                                               |                |                t{}: 0x732-0x733 (1)
0x730|      00                                       |  .             |                  n: 0 (valid) 0x732-0x733 (1)
     |                                               |                |                  x[0:0]: 0x733-0x733 (0)
     |                                               |                |                e[0:3]: 0x733-0x73a (7)
     |                                               |                |                  [0]{}: in 0x733-0x738 (5)
0x730|         43                                    |   C            |                    opcode: "f32.const" (0x43) 0x733-0x734 (1)
0x730|            00 00 00 00                        |    ....        |                    z: 0 0x734-0x738 (4)
     |                                               |                |                  [1]{}: in 0x738-0x739 (1)
0x730|                        bc                     |        .       |                    opcode: "i32.reinterpret_f32" (0xbc) 0x738-0x739 (1)
     |                                               |                |                  [2]{}: in 0x739-0x73a (1)
0x730|                           0b                  |         .      |                    opcode: "end" (0xb) 0x739-0x73a (1)
     |                                               |                |            [22]{}: code 0x73a-0x743 (9)
0x730|                              08               |          .     |              size: 8 (valid) 0x73a-0x73b (1)
     |                                               |                |              code{}: 0x73b-0x743 (8)
     |                                               |                |                t{}: 0x73b-0x73c (1)
0x730|                                 00            |           .    |                  n: 0 (valid) 0x73b-0x73c (1)
     |                                               |                |                  x[0:0]: 0x73c-0x73c (0)
     |                                               |                |                e[0:3]: 0x73c-0x743 (7)
     |                                               |                |                  [0]{}: in 0x73c-0x741 (5)
0x730|                                    43         |            C   |                    opcode: "f32.const" (0x43) 0x73c-0x73d (1)
0x730|                                       00 00 00|             ...|                    z: 0 0x73d-0x741 (4)
0x740|00                                             |.               |
     |                                               |                |                  [1]{}: in 0x741-0x742 (1)
0x740|   bc                                          | .              |                    opcode: "i32.reinterpret_f32" (0xbc) 0x741-0x742 (1)
     |                                               |                |                  [2]{}: in 0x742-0x743 (1)
0x740|      0b                                       |  .             |                    opcode: "end" (0xb) 0x742-0x743 (1)
     |                                               |                |            [23]{}: code 0x743-0x74c (9)
0x740|         08                                    |   .            |              size: 8 (valid) 0x743-0x744 (1)
     |                                               |                |              code{}: 0x744-0x74c (8)
     |                                               |                |                t{}: 0x744-0x745 (1)
0x740|            00                                 |    .           |                  n: 0 (valid) 0x744-0x745 (1)
     |                                               |                |                  x[0:0]: 0x745-0x745 (0)
     |                                               |                |                e[0:3]: 0x745-0x74c (7)
     |                                               |                |                  [0]{}: in 0x745-0x74a (5)
0x740|               43                              |     C          |                    opcode: "f32.const" (0x43) 0x745-0x746 (1)
0x740|                  00 00 00 80                  |      ....      |                    z: -0 0x746-0x74a (4)
     |                                               |                |                  [1]{}: in 0x74a-0x74b (1)
0x740|                              bc               |          .     |                    opcode: "i32.reinterpret_f32" (0xbc) 0x74a-0x74b (1)
     |                                               |                |                  [2]{}: in 0x74b-0x74c (1)
0x740|                                 0b            |           .    |                    opcode: "end" (0xb) 0x74b-0x74c (1)
     |                                               |                |            [24]{}: code 0x74c-0x755 (9)
0x740|                                    08         |            .   |              size: 8 (valid) 0x74c-0x74d (1)
     |                                               |                |              code{}: 0x74d-0x755 (8)
     |                                               |                |                t{}: 0x74d-0x74e (1)
0x740|                                       00      |             .  |                  n: 0 (valid) 0x74d-0x74e (1)
     |                                               |                |                  x[0:0]: 0x74e-0x74e (0)
     |                                               |                |                e[0:3]: 0x74e-0x755 (7)
     |                                               |                |                  [0]{}: in 0x74e-0x753 (5)
0x740|                                          43   |              C |                    opcode: "f32.const" (0x43) 0x74e-0x74f (1)
0x740|                                             db|               .|                    z: 6.2831854820251465 0x74f-0x753 (4)
0x750|0f c9 40                                       |..@             |
     |                                               |                |                  [1]{}: in 0x753-0x754 (1)
0x750|         bc                                    |   .            |                    opcode: "i32.reinterpret_f32" (0xbc) 0x753-0x754 (1)
     |                                               |                |                  [2]{}: in 0x754-0x755 (1)
0x750|            0b                                 |    .           |                    opcode: "end" (0xb) 0x754-0x755 (1)
     |                                               |                |            [25]{}: code 0x755-0x75e (9)
0x750|               08                              |     .          |              size: 8 (valid) 0x755-0x756 (1)
     |                                               |                |              code{}: 0x756-0x75e (8)
     |                                               |                |                t{}: 0x756-0x757 (1)
0x750|                  00                           |      .         |                  n: 0 (valid) 0x756-0x757 (1)
     |                                               |                |                  x[0:0]: 0x757-0x757 (0)
     |                                               |                |                e[0:3]: 0x757-0x75e (7)
     |                                               |                |                  [0]{}: in 0x757-0x75c (5)
0x750|                     43                        |       C        |                    opcode: "f32.const" (0x43) 0x757-0x758 (1)
0x750|                        01 00 00 00            |        ....    |                    z: 1.401298464324817e-45 0x758-0x75c (4)
     |                                               |                |                  [1]{}: in 0x75c-0x75d (1)
0x750|                                    bc         |            .   |                    opcode: "i32.reinterpret_f32" (0xbc) 0x75c-0x75d (1)
     |                                               |                |                  [2]{}: in 0x75d-0x75e (1)
0x750|                                       0b      |             .  |                    opcode: "end" (0xb) 0x75d-0x75e (1)
     |                                               |                |            [26]{}: code 0x75e-0x767 (9)
0x750|                                          08   |              . |              size: 8 (valid) 0x75e-0x75f (1)
     |                                               |                |              code{}: 0x75f-0x767 (8)
     |                                               |                |                t{}: 0x75f-0x760 (1)
0x750|                                             00|               .|                  n: 0 (valid) 0x75f-0x760 (1)
     |                                               |                |                  x[0:0]: 0x760-0x760 (0)
     |                                               |                |                e[0:3]: 0x760-0x767 (7)
     |                                               |                |                  [0]{}: in 0x760-0x765 (5)
0x760|43                                             |C               |                    opcode: "f32.const" (0x43) 0x760-0x761 (1)
0x760|   00 00 80 00                                 | ....           |                    z: 1.1754943508222875e-38 0x761-0x765 (4)
     |                                               |                |                  [1]{}: in 0x765-0x766 (1)
0x760|               bc                              |     .          |                    opcode: "i32.reinterpret_f32" (0xbc) 0x765-0x766 (1)
     |                                               |                |                  [2]{}: in 0x766-0x767 (1)
0x760|                  0b                           |      .         |                    opcode: "end" (0xb) 0x766-0x767 (1)
     |                                               |                |            [27]{}: code 0x767-0x770 (9)
0x760|                     08                        |       .        |              size: 8 (valid) 0x767-0x768 (1)
     |                                               |                |              code{}: 0x768-0x770 (8)
     |                                               |                |                t{}: 0x768-0x769 (1)
0x760|                        00                     |        .       |                  n: 0 (valid) 0x768-0x769 (1)
     |                                               |                |                  x[0:0]: 0x769-0x769 (0)
     |                                               |                |                e[0:3]: 0x769-0x770 (7)
     |                                               |                |                  [0]{}: in 0x769-0x76e (5)
0x760|                           43                  |         C      |                    opcode: "f32.const" (0x43) 0x769-0x76a (1)
0x760|                              ff ff 7f 00      |          ....  |                    z: 1.1754942106924411e-38 0x76a-0x76e (4)
     |                                               |                |                  [1]{}: in 0x76e-0x76f (1)
0x760|                                          bc   |              . |                    opcode: "i32.reinterpret_f32" (0xbc) 0x76e-0x76f (1)
     |                                               |                |                  [2]{}: in 0x76f-0x770 (1)
0x760|                                             0b|               .|                    opcode: "end" (0xb) 0x76f-0x770 (1)
     |                                               |                |            [28]{}: code 0x770-0x779 (9)
0x770|08                                             |.               |              size: 8 (valid) 0x770-0x771 (1)
     |                                               |                |              code{}: 0x771-0x779 (8)
     |                                               |                |                t{}: 0x771-0x772 (1)
0x770|   00                                          | .              |                  n: 0 (valid) 0x771-0x772 (1)
     |                                               |                |                  x[0:0]: 0x772-0x772 (0)
     |                                               |                |                e[0:3]: 0x772-0x779 (7)
     |                                               |                |                  [0]{}: in 0x772-0x777 (5)
0x770|      43                                       |  C             |                    opcode: "f32.const" (0x43) 0x772-0x773 (1)
0x770|         ff ff 7f 7f                           |   ....         |                    z: 3.4028234663852886e+38 0x773-0x777 (4)
     |                                               |                |                  [1]{}: in 0x777-0x778 (1)
0x770|                     bc                        |       .        |                    opcode: "i32.reinterpret_f32" (0xbc) 0x777-0x778 (1)
     |                                               |                |                  [2]{}: in 0x778-0x779 (1)
0x770|                        0b                     |        .       |                    opcode: "end" (0xb) 0x778-0x779 (1)
     |                                               |                |            [29]{}: code 0x779-0x782 (9)
0x770|                           08                  |         .      |              size: 8 (valid) 0x779-0x77a (1)
     |                                               |                |              code{}: 0x77a-0x782 (8)
     |                                               |                |                t{}: 0x77a-0x77b (1)
0x770|                              00               |          .     |                  n: 0 (valid) 0x77a-0x77b (1)
     |                                               |                |                  x[0:0]: 0x77b-0x77b (0)
     |                                               |                |                e[0:3]: 0x77b-0x782 (7)
     |                                               |                |                  [0]{}: in 0x77b-0x780 (5)
0x770|                                 43            |           C    |                    opcode: "f32.const" (0x43) 0x77b-0x77c (1)
0x770|                                    f9 02 15 50|            ...P|                    z: 1e+10 0x77c-0x780 (4)
     |                                               |                |                  [1]{}: in 0x780-0x781 (1)
0x780|bc                                             |.               |                    opcode: "i32.reinterpret_f32" (0xbc) 0x780-0x781 (1)
     |                                               |                |                  [2]{}: in 0x781-0x782 (1)
0x780|   0b                                          | .              |                    opcode: "end" (0xb) 0x781-0x782 (1)
     |                                               |                |            [30]{}: code 0x782-0x78b (9)
0x780|      08                                       |  .             |              size: 8 (valid) 0x782-0x783 (1)
     |                                               |                |              code{}: 0x783-0x78b (8)
     |                                               |                |                t{}: 0x783-0x784 (1)
0x780|         00                                    |   .            |                  n: 0 (valid) 0x783-0x784 (1)
     |                                               |                |                  x[0:0]: 0x784-0x784 (0)
     |                                               |                |                e[0:3]: 0x784-0x78b (7)
     |                                               |                |                  [0]{}: in 0x784-0x789 (5)
0x780|            43                                 |    C           |                    opcode: "f32.const" (0x43) 0x784-0x785 (1)
0x780|               01 00 80 3f                     |     ...?       |                    z: 1.0000001192092896 0x785-0x789 (4)
     |                                               |                |                  [1]{}: in 0x789-0x78a (1)
0x780|                           bc                  |         .      |                    opcode: "i32.reinterpret_f32" (0xbc) 0x789-0x78a (1)
     |                                               |                |                  [2]{}: in 0x78a-0x78b (1)
0x780|                              0b               |          .     |                    opcode: "end" (0xb) 0x78a-0x78b (1)
     |                                               |                |            [31]{}: code 0x78b-0x798 (13)
0x780|                                 0c            |           .    |              size: 12 (valid) 0x78b-0x78c (1)
     |                                               |                |              code{}: 0x78c-0x798 (12)
     |                                               |                |                t{}: 0x78c-0x78d (1)
0x780|                                    00         |            .   |                  n: 0 (valid) 0x78c-0x78d (1)
     |                                               |                |                  x[0:0]: 0x78d-0x78d (0)
     |                                               |                |                e[0:3]: 0x78d-0x798 (11)
     |                                               |                |                  [0]{}: in 0x78d-0x796 (9)
0x780|                                       44      |             D  |                    opcode: "f64.const" (0x44) 0x78d-0x78e (1)
0x780|                                          00 00|              ..|                    z: NaN 0x78e-0x796 (8)
0x790|00 00 00 00 f8 7f                              |......          |
     |                                               |                |                  [1]{}: in 0x796-0x797 (1)
0x790|                  bd                           |      .         |                    opcode: "i64.reinterpret_f64" (0xbd) 0x796-0x797 (1)
     |                                               |                |                  [2]{}: in 0x797-0x798 (1)
0x790|                     0b                        |       .        |                    opcode: "end" (0xb) 0x797-0x798 (1)
     |                                               |                |            [32]{}: code 0x798-0x7a5 (13)
0x790|                        0c                     |        .       |              size: 12 (valid) 0x798-0x799 (1)
     |                                               |                |              code{}: 0x799-0x7a5 (12)
     |                                               |                |                t{}: 0x799-0x79a (1)
0x790|                           00                  |         .      |                  n: 0 (valid) 0x799-0x79a (1)
     |                                               |                |                  x[0:0]: 0x79a-0x79a (0)
     |                                               |                |                e[0:3]: 0x79a-0x7a5 (11)
     |                                               |                |                  [0]{}: in 0x79a-0x7a3 (9)
0x790|                              44               |          D     |                    opcode: "f64.const" (0x44) 0x79a-0x79b (1)
0x790|                                 00 00 00 00 00|           .....|                    z: NaN 0x79b-0x7a3 (8)
0x7a0|00 f8 7f                                       |...             |
     |                                               |                |                  [1]{}: in 0x7a3-0x7a4 (1)
0x7a0|         bd                                    |   .            |                    opcode: "i64.reinterpret_f64" (0xbd) 0x7a3-0x7a4 (1)
     |                                               |                |                  [2]{}: in 0x7a4-0x7a5 (1)
0x7a0|            0b                                 |    .           |                    opcode: "end" (0xb) 0x7a4-0x7a5 (1)
     |                                               |                |            [33]{}: code 0x7a5-0x7b2 (13)
0x7a0|               0c                              |     .          |              size: 12 (valid) 0x7a5-0x7a6 (1)
     |                                               |                |              code{}: 0x7a6-0x7b2 (12)
     |                                               |                |                t{}: 0x7a6-0x7a7 (1)
0x7a0|                  00                           |      .         |                  n: 0 (valid) 0x7a6-0x7a7 (1)
     |                                               |                |                  x[0:0]: 0x7a7-0x7a7 (0)
     |                                               |                |                e[0:3]: 0x7a7-0x7b2 (11)
     |                                               |                |                  [0]{}: in 0x7a7-0x7b0 (9)
0x7a0|                     44                        |       D        |                    opcode: "f64.const" (0x44) 0x7a7-0x7a8 (1)
0x7a0|                        00 00 00 00 00 00 f8 ff|        ........|                    z: NaN 0x7a8-0x7b0 (8)
     |                                               |                |                  [1]{}: in 0x7b0-0x7b1 (1)
0x7b0|bd                                             |.               |                    opcode: "i64.reinterpret_f64" (0xbd) 0x7b0-0x7b1 (1)
     |                                               |                |                  [2]{}: in 0x7b1-0x7b2 (1)
0x7b0|   0b                                          | .              |                    opcode: "end" (0xb) 0x7b1-0x7b2 (1)
     |                                               |                |            [34]{}: code 0x7b2-0x7bf (13)
0x7b0|      0c                                       |  .             |              size: 12 (valid) 0x7b2-0x7b3 (1)
     |                                               |                |              code{}: 0x7b3-0x7bf (12)
     |                                               |                |                t{}: 0x7b3-0x7b4 (1)
0x7b0|         00                                    |   .            |                  n: 0 (valid) 0x7b3-0x7b4 (1)
     |                                               |                |                  x[0:0]: 0x7b4-0x7b4 (0)
     |                                               |                |                e[0:3]: 0x7b4-0x7bf (11)
     |                                               |                |                  [0]{}: in 0x7b4-0x7bd (9)
0x7b0|            44                                 |    D           |                    opcode: "f64.const" (0x44) 0x7b4-0x7b5 (1)
0x7b0|               00 00 00 00 00 00 f8 7f         |     ........   |                    z: NaN 0x7b5-0x7bd (8)
     |                                               |                |                  [1]{}: in 0x7bd-0x7be (1)
0x7b0|                                       bd      |             .  |                    opcode: "i64.reinterpret_f64" (0xbd) 0x7bd-0x7be (1)
     |                                               |                |                  [2]{}: in 0x7be-0x7bf (1)
0x7b0|                                          0b   |              . |                    opcode: "end" (0xb) 0x7be-0x7bf (1)
     |                                               |                |            [35]{}: code 0x7bf-0x7cc (13)
0x7b0|                                             0c|               .|              size: 12 (valid) 0x7bf-0x7c0 (1)
     |                                               |                |              code{}: 0x7c0-0x7cc (12)
     |                                               |                |                t{}: 0x7c0-0x7c1 (1)
0x7c0|00                                             |.               |                  n: 0 (valid) 0x7c0-0x7c1 (1)
     |                                               |                |                  x[0:0]: 0x7c1-0x7c1 (0)
     |                                               |                |                e[0:3]: 0x7c1-0x7cc (11)
     |                                               |                |                  [0]{}: in 0x7c1-0x7ca (9)
0x7c0|   44                                          | D              |                    opcode: "f64.const" (0x44) 0x7c1-0x7c2 (1)
0x7c0|      00 00 00 00 00 00 f4 7f                  |  ........      |                    z: NaN 0x7c2-0x7ca (8)
     |                                               |                |                  [1]{}: in 0x7ca-0x7cb (1)
0x7c0|                              bd               |          .     |                    opcode: "i64.reinterpret_f64" (0xbd) 0x7ca-0x7cb (1)
     |                                               |                |                  [2]{}: in 0x7cb-0x7cc (1)
0x7c0|                                 0b            |           .    |                    opcode: "end" (0xb) 0x7cb-0x7cc (1)
     |                                               |                |            [36]{}: code 0x7cc-0x7d9 (13)
0x7c0|                                    0c         |            .   |              size: 12 (valid) 0x7cc-0x7cd (1)
     |                                               |                |              code{}: 0x7cd-0x7d9 (12)
     |                                               |                |                t{}: 0x7cd-0x7ce (1)
0x7c0|                                       00      |             .  |                  n: 0 (valid) 0x7cd-0x7ce (1)
     |                                               |                |                  x[0:0]: 0x7ce-0x7ce (0)
     |                                               |                |                e[0:3]: 0x7ce-0x7d9 (11)
     |                                               |                |                  [0]{}: in 0x7ce-0x7d7 (9)
0x7c0|                                          44   |              D |                    opcode: "f64.const" (0x44) 0x7ce-0x7cf (1)
0x7c0|                                             ff|               .|                    z: NaN 0x7cf-0x7d7 (8)
0x7d0|ff ff ff ff ff ff ff                           |.......         |
     |                                               |                |                  [1]{}: in 0x7d7-0x7d8 (1)
0x7d0|                     bd                        |       .        |                    opcode: "i64.reinterpret_f64" (0xbd) 0x7d7-0x7d8 (1)
     |                                               |                |                  [2]{}: in 0x7d8-0x7d9 (1)
0x7d0|                        0b                     |        .       |                    opcode: "end" (0xb) 0x7d8-0x7d9 (1)
     |                                               |                |            [37]{}: code 0x7d9-0x7e6 (13)
0x7d0|                           0c                  |         .      |              size: 12 (valid) 0x7d9-0x7da (1)
     |                                               |                |              code{}: 0x7da-0x7e6 (12)
     |                                               |                |                t{}: 0x7da-0x7db (1)
0x7d0|                              00               |          .     |                  n: 0 (valid) 0x7da-0x7db (1)
     |                                               |                |                  x[0:0]: 0x7db-0x7db (0)
     |                                               |                |                e[0:3]: 0x7db-0x7e6 (11)
     |                                               |                |                  [0]{}: in 0x7db-0x7e4 (9)
0x7d0|                                 44            |           D    |                    opcode: "f64.const" (0x44) 0x7db-0x7dc (1)
0x7d0|                                    bc 9a 78 56|            ..xV|                    z: NaN 0x7dc-0x7e4 (8)
0x7e0|34 12 f0 7f                                    |4...            |
     |                                               |                |                  [1]{}: in 0x7e4-0x7e5 (1)
0x7e0|            bd                                 |    .           |                    opcode: "i64.reinterpret_f64" (0xbd) 0x7e4-0x7e5 (1)
     |                                               |                |                  [2]{}: in 0x7e5-0x7e6 (1)
0x7e0|               0b                              |     .          |                    opcode: "end" (0xb) 0x7e5-0x7e6 (1)
     |                                               |                |            [38]{}: code 0x7e6-0x7f3 (13)
0x7e0|                  0c                           |      .         |              size: 12 (valid) 0x7e6-0x7e7 (1)
     |                                               |                |              code{}: 0x7e7-0x7f3 (12)
     |                                               |                |                t{}: 0x7e7-0x7e8 (1)
0x7e0|                     00                        |       .        |                  n: 0 (valid) 0x7e7-0x7e8 (1)
     |                                               |                |                  x[0:0]: 0x7e8-0x7e8 (0)
     |                                               |                |                e[0:3]: 0x7e8-0x7f3 (11)
     |                                               |                |                  [0]{}: in 0x7e8-0x7f1 (9)
0x7e0|                        44                     |        D       |                    opcode: "f64.const" (0x44) 0x7e8-0x7e9 (1)
0x7e0|                           09 08 07 06 05 04 f3|         .......|                    z: NaN 0x7e9-0x7f1 (8)
0x7f0|7f                                             |.               |
     |                                               |                |                  [1]{}: in 0x7f1-0x7f2 (1)
0x7f0|   bd                                          | .              |                    opcode: "i64.reinterpret_f64" (0xbd) 0x7f1-0x7f2 (1)
     |                                               |                |                  [2]{}: in 0x7f2-0x7f3 (1)
0x7f0|      0b                                       |  .             |                    opcode: "end" (0xb) 0x7f2-0x7f3 (1)
     |                                               |                |            [39]{}: code 0x7f3-0x800 (13)
0x7f0|         0c                                    |   .            |              size: 12 (valid) 0x7f3-0x7f4 (1)
     |                                               |                |              code{}: 0x7f4-0x800 (12)
     |                                               |                |                t{}: 0x7f4-0x7f5 (1)
0x7f0|            00                                 |    .           |                  n: 0 (valid) 0x7f4-0x7f5 (1)
     |                                               |                |                  x[0:0]: 0x7f5-0x7f5 (0)
     |                                               |                |                e[0:3]: 0x7f5-0x800 (11)
     |                                               |                |                  [0]{}: in 0x7f5-0x7fe (9)
0x7f0|               44                              |     D          |                    opcode: "f64.const" (0x44) 0x7f5-0x7f6 (1)
0x7f0|                  45 23 01 ef cd ab f2 ff      |      E#......  |                    z: NaN 0x7f6-0x7fe (8)
     |                                               |                |                  [1]{}: in 0x7fe-0x7ff (1)
0x7f0|                                          bd   |              . |                    opcode: "i64.reinterpret_f64" (0xbd) 0x7fe-0x7ff (1)
     |                                               |                |                  [2]{}: in 0x7ff-0x800 (1)
0x7f0|                                             0b|               .|                    opcode: "end" (0xb) 0x7ff-0x800 (1)
     |                                               |                |            [40]{}: code 0x800-0x80d (13)
0x800|0c                                             |.               |              size: 12 (valid) 0x800-0x801 (1)
     |                                               |                |              code{}: 0x801-0x80d (12)
     |                                               |                |                t{}: 0x801-0x802 (1)
0x800|   00                                          | .              |                  n: 0 (valid) 0x801-0x802 (1)
     |                                               |                |                  x[0:0]: 0x802-0x802 (0)
     |                                               |                |                e[0:3]: 0x802-0x80d (11)
     |                                               |                |                  [0]{}: in 0x802-0x80b (9)
0x800|      44                                       |  D             |                    opcode: "f64.const" (0x44) 0x802-0x803 (1)
0x800|         00 00 00 00 00 00 f0 7f               |   ........     |                    z: +Inf 0x803-0x80b (8)
     |                                               |                |                  [1]{}: in 0x80b-0x80c (1)
0x800|                                 bd            |           .    |                    opcode: "i64.reinterpret_f64" (0xbd) 0x80b-0x80c (1)
     |                                               |                |                  [2]{}: in 0x80c-0x80d (1)
0x800|                                    0b         |            .   |                    opcode: "end" (0xb) 0x80c-0x80d (1)
     |                                               |                |            [41]{}: code 0x80d-0x81a (13)
0x800|                                       0c      |             .  |              size: 12 (valid) 0x80d-0x80e (1)
     |                                               |                |              code{}: 0x80e-0x81a (12)
     |                                               |                |                t{}: 0x80e-0x80f (1)
0x800|                                          00   |              . |                  n: 0 (valid) 0x80e-0x80f (1)
     |                                               |                |                  x[0:0]: 0x80f-0x80f (0)
     |                                               |                |                e[0:3]: 0x80f-0x81a (11)
     |                                               |                |                  [0]{}: in 0x80f-0x818 (9)
0x800|                                             44|               D|                    opcode: "f64.const" (0x44) 0x80f-0x810 (1)
0x810|00 00 00 00 00 00 f0 7f                        |........        |                    z: +Inf 0x810-0x818 (8)
     |                                               |                |                  [1]{}: in 0x818-0x819 (1)
0x810|                        bd                     |        .       |                    opcode: "i64.reinterpret_f64" (0xbd) 0x818-0x819 (1)
     |                                               |                |                  [2]{}: in 0x819-0x81a (1)
0x810|                           0b                  |         .      |                    opcode: "end" (0xb) 0x819-0x81a (1)
     |                                               |                |            [42]{}: code 0x81a-0x827 (13)
0x810|                              0c               |          .     |              size: 12 (valid) 0x81a-0x81b (1)
     |                                               |                |              code{}: 0x81b-0x827 (12)
     |                                               |                |                t{}: 0x81b-0x81c (1)
0x810|                                 00            |           .    |                  n: 0 (valid) 0x81b-0x81c (1)
     |                                               |                |                  x[0:0]: 0x81c-0x81c (0)
     |                                               |                |                e[0:3]: 0x81c-0x827 (11)
     |                                               |                |                  [0]{}: in 0x81c-0x825 (9)
0x810|                                    44         |            D   |                    opcode: "f64.const" (0x44) 0x81c-0x81d (1)
0x810|                                       00 00 00|             ...|                    z: -Inf 0x81d-0x825 (8)
0x820|00 00 00 f0 ff                                 |.....           |
     |                                               |                |                  [1]{}: in 0x825-0x826 (1)
0x820|               bd                              |     .          |                    opcode: "i64.reinterpret_f64" (0xbd) 0x825-0x826 (1)
     |                                               |                |                  [2]{}: in 0x826-0x827 (1)
0x820|                  0b                           |      .         |                    opcode: "end" (0xb) 0x826-0x827 (1)
     |                                               |                |            [43]{}: code 0x827-0x834 (13)
0x820|                     0c                        |       .        |              size: 12 (valid) 0x827-0x828 (1)
     |                                               |                |              code{}: 0x828-0x834 (12)
     |                                               |                |                t{}: 0x828-0x829 (1)
0x820|                        00                     |        .       |                  n: 0 (valid) 0x828-0x829 (1)
     |                                               |                |                  x[0:0]: 0x829-0x829 (0)
     |                                               |                |                e[0:3]: 0x829-0x834 (11)
     |                                               |                |                  [0]{}: in 0x829-0x832 (9)
0x820|                           44                  |         D      |                    opcode: "f64.const" (0x44) 0x829-0x82a (1)
0x820|                              00 00 00 00 00 00|          ......|                    z: 0 0x82a-0x832 (8)
0x830|00 00                                          |..              |
     |                                               |                |                  [1]{}: in 0x832-0x833 (1)
0x830|      bd                                       |  .             |                    opcode: "i64.reinterpret_f64" (0xbd) 0x832-0x833 (1)
     |                                               |                |                  [2]{}: in 0x833-0x834 (1)
0x830|         0b                                    |   .            |                    opcode: "end" (0xb) 0x833-0x834 (1)
     |                                               |                |            [44]{}: code 0x834-0x841 (13)
0x830|            0c                                 |    .           |              size: 12 (valid) 0x834-0x835 (1)
     |                                               |                |              code{}: 0x835-0x841 (12)
     |                                               |                |                t{}: 0x835-0x836 (1)
0x830|               00                              |     .          |                  n: 0 (valid) 0x835-0x836 (1)
     |                                               |                |                  x[0:0]: 0x836-0x836 (0)
     |                                               |                |                e[0:3]: 0x836-0x841 (11)
     |                                               |                |                  [0]{}: in 0x836-0x83f (9)
0x830|                  44                           |      D         |                    opcode: "f64.const" (0x44) 0x836-0x837 (1)
0x830|                     00 00 00 00 00 00 00 00   |       ........ |                    z: 0 0x837-0x83f (8)
     |                                               |                |                  [1]{}: in 0x83f-0x840 (1)
0x830|                                             bd|               .|                    opcode: "i64.reinterpret_f64" (0xbd) 0x83f-0x840 (1)
     |                                               |                |                  [2]{}: in 0x840-0x841 (1)
0x840|0b                                             |.               |                    opcode: "end" (0xb) 0x840-0x841 (1)
     |                                               |                |            [45]{}: code 0x841-0x84e (13)
0x840|   0c                                          | .              |              size: 12 (valid) 0x841-0x842 (1)
     |                                               |                |              code{}: 0x842-0x84e (12)
     |                                               |                |                t{}: 0x842-0x843 (1)
0x840|      00                                       |  .             |                  n: 0 (valid) 0x842-0x843 (1)
     |                                               |                |                  x[0:0]: 0x843-0x843 (0)
     |                                               |                |                e[0:3]: 0x843-0x84e (11)
     |                                               |                |                  [0]{}: in 0x843-0x84c (9)
0x840|         44                                    |   D            |                    opcode: "f64.const" (0x44) 0x843-0x844 (1)
0x840|            00 00 00 00 00 00 00 80            |    ........    |                    z: -0 0x844-0x84c (8)
     |                                               |                |                  [1]{}: in 0x84c-0x84d (1)
0x840|                                    bd         |            .   |                    opcode: "i64.reinterpret_f64" (0xbd) 0x84c-0x84d (1)
     |                                               |                |                  [2]{}: in 0x84d-0x84e (1)
0x840|                                       0b      |             .  |                    opcode: "end" (0xb) 0x84d-0x84e (1)
     |                                               |                |            [46]{}: code 0x84e-0x85b (13)
0x840|                                          0c   |              . |              size: 12 (valid) 0x84e-0x84f (1)
     |                                               |                |              code{}: 0x84f-0x85b (12)
     |                                               |                |                t{}: 0x84f-0x850 (1)
0x840|                                             00|               .|                  n: 0 (valid) 0x84f-0x850 (1)
     |                                               |                |                  x[0:0]: 0x850-0x850 (0)
     |                                               |                |                e[0:3]: 0x850-0x85b (11)
     |                                               |                |                  [0]{}: in 0x850-0x859 (9)
0x850|44                                             |D               |                    opcode: "f64.const" (0x44) 0x850-0x851 (1)
0x850|   18 2d 44 54 fb 21 19 40                     | .-DT.!.@       |                    z: 6.283185307179586 0x851-0x859 (8)
     |                                               |                |                  [1]{}: in 0x859-0x85a (1)
0x850|                           bd                  |         .      |                    opcode: "i64.reinterpret_f64" (0xbd) 0x859-0x85a (1)
     |                                               |                |                  [2]{}: in 0x85a-0x85b (1)
0x850|                              0b               |          .     |                    opcode: "end" (0xb) 0x85a-0x85b (1)
     |                                               |                |            [47]{}: code 0x85b-0x868 (13)
0x850|                                 0c            |           .    |              size: 12 (valid) 0x85b-0x85c (1)
     |                                               |                |              code{}: 0x85c-0x868 (12)
     |                                               |                |                t{}: 0x85c-0x85d (1)
0x850|                                    00         |            .   |                  n: 0 (valid) 0x85c-0x85d (1)
     |                                               |                |                  x[0:0]: 0x85d-0x85d (0)
     |                                               |                |                e[0:3]: 0x85d-0x868 (11)
     |                                               |                |                  [0]{}: in 0x85d-0x866 (9)
0x850|                                       44      |             D  |                    opcode: "f64.const" (0x44) 0x85d-0x85e (1)
0x850|                                          01 00|              ..|                    z: 5e-324 0x85e-0x866 (8)
0x860|00 00 00 00 00 00                              |......          |
     |                                               |                |                  [1]{}: in 0x866-0x867 (1)
0x860|                  bd                           |      .         |                    opcode: "i64.reinterpret_f64" (0xbd) 0x866-0x867 (1)
     |                                               |                |                  [2]{}: in 0x867-0x868 (1)
0x860|                     0b                        |       .        |                    opcode: "end" (0xb) 0x867-0x868 (1)
     |                                               |                |            [48]{}: code 0x868-0x875 (13)
0x860|                        0c                     |        .       |              size: 12 (valid) 0x868-0x869 (1)
     |                                               |                |              code{}: 0x869-0x875 (12)
     |                                               |                |                t{}: 0x869-0x86a (1)
0x860|                           00                  |         .      |                  n: 0 (valid) 0x869-0x86a (1)
     |                                               |                |                  x[0:0]: 0x86a-0x86a (0)
     |                                               |                |                e[0:3]: 0x86a-0x875 (11)
     |                                               |                |                  [0]{}: in 0x86a-0x873 (9)
0x860|                              44               |          D     |                    opcode: "f64.const" (0x44) 0x86a-0x86b (1)
0x860|                                 00 00 00 00 00|           .....|                    z: 2.2250738585072014e-308 0x86b-0x873 (8)
0x870|00 10 00                                       |...             |
     |                                               |                |                  [1]{}: in 0x873-0x874 (1)
0x870|         bd                                    |   .            |                    opcode: "i64.reinterpret_f64" (0xbd) 0x873-0x874 (1)
     |                                               |                |                  [2]{}: in 0x874-0x875 (1)
0x870|            0b                                 |    .           |                    opcode: "end" (0xb) 0x874-0x875 (1)
     |                                               |                |            [49]{}: code 0x875-0x882 (13)
0x870|               0c                              |     .          |              size: 12 (valid) 0x875-0x876 (1)
     |                                               |                |              code{}: 0x876-0x882 (12)
     |                                               |                |                t{}: 0x876-0x877 (1)
0x870|                  00                           |      .         |                  n: 0 (valid) 0x876-0x877 (1)
     |                                               |                |                  x[0:0]: 0x877-0x877 (0)
     |                                               |                |                e[0:3]: 0x877-0x882 (11)
     |                                               |                |                  [0]{}: in 0x877-0x880 (9)
0x870|                     44                        |       D        |                    opcode: "f64.const" (0x44) 0x877-0x878 (1)
0x870|                        ff ff ff ff ff ff 0f 00|        ........|                    z: 2.225073858507201e-308 0x878-0x880 (8)
     |                                               |                |                  [1]{}: in 0x880-0x881 (1)
0x880|bd                                             |.               |                    opcode: "i64.reinterpret_f64" (0xbd) 0x880-0x881 (1)
     |                                               |                |                  [2]{}: in 0x881-0x882 (1)
0x880|   0b                                          | .              |                    opcode: "end" (0xb) 0x881-0x882 (1)
     |                                               |                |            [50]{}: code 0x882-0x88f (13)
0x880|      0c                                       |  .             |              size: 12 (valid) 0x882-0x883 (1)
     |                                               |                |              code{}: 0x883-0x88f (12)
     |                                               |                |                t{}: 0x883-0x884 (1)
0x880|         00                                    |   .            |                  n: 0 (valid) 0x883-0x884 (1)
     |                                               |                |                  x[0:0]: 0x884-0x884 (0)
     |                                               |                |                e[0:3]: 0x884-0x88f (11)
     |                                               |                |                  [0]{}: in 0x884-0x88d (9)
0x880|            44                                 |    D           |                    opcode: "f64.const" (0x44) 0x884-0x885 (1)
0x880|               ff ff ff ff ff ff ef 7f         |     ........   |                    z: 1.7976931348623157e+308 0x885-0x88d (8)
     |                                               |                |                  [1]{}: in 0x88d-0x88e (1)
0x880|                                       bd      |             .  |                    opcode: "i64.reinterpret_f64" (0xbd) 0x88d-0x88e (1)
     |                                               |                |                  [2]{}: in 0x88e-0x88f (1)
0x880|                                          0b   |              . |                    opcode: "end" (0xb) 0x88e-0x88f (1)
     |                                               |                |            [51]{}: code 0x88f-0x89c (13)
0x880|                                             0c|               .|              size: 12 (valid) 0x88f-0x890 (1)
     |                                               |                |              code{}: 0x890-0x89c (12)
     |                                               |                |                t{}: 0x890-0x891 (1)
0x890|00                                             |.               |                  n: 0 (valid) 0x890-0x891 (1)
     |                                               |                |                  x[0:0]: 0x891-0x891 (0)
     |                                               |                |                e[0:3]: 0x891-0x89c (11)
     |                                               |                |                  [0]{}: in 0x891-0x89a (9)
0x890|   44                                          | D              |                    opcode: "f64.const" (0x44) 0x891-0x892 (1)
0x890|      00 00 00 00 00 00 30 46                  |  ......0F      |                    z: 1.2676506002282294e+30 0x892-0x89a (8)
     |                                               |                |                  [1]{}: in 0x89a-0x89b (1)
0x890|                              bd               |          .     |                    opcode: "i64.reinterpret_f64" (0xbd) 0x89a-0x89b (1)
     |                                               |                |                  [2]{}: in 0x89b-0x89c (1)
0x890|                                 0b            |           .    |                    opcode: "end" (0xb) 0x89b-0x89c (1)
     |                                               |                |            [52]{}: code 0x89c-0x8a9 (13)
0x890|                                    0c         |            .   |              size: 12 (valid) 0x89c-0x89d (1)
     |                                               |                |              code{}: 0x89d-0x8a9 (12)
     |                                               |                |                t{}: 0x89d-0x89e (1)
0x890|                                       00      |             .  |                  n: 0 (valid) 0x89d-0x89e (1)
     |                                               |                |                  x[0:0]: 0x89e-0x89e (0)
     |                                               |                |                e[0:3]: 0x89e-0x8a9 (11)
     |                                               |                |                  [0]{}: in 0x89e-0x8a7 (9)
0x890|                                          44   |              D |                    opcode: "f64.const" (0x44) 0x89e-0x89f (1)
0x890|                                             00|               .|                    z: 0 0x89f-0x8a7 (8)
0x8a0|00 00 00 00 00 00 00                           |.......         |
     |                                               |                |                  [1]{}: in 0x8a7-0x8a8 (1)
0x8a0|                     bd                        |       .        |                    opcode: "i64.reinterpret_f64" (0xbd) 0x8a7-0x8a8 (1)
     |                                               |                |                  [2]{}: in 0x8a8-0x8a9 (1)
0x8a0|                        0b                     |        .       |                    opcode: "end" (0xb) 0x8a8-0x8a9 (1)
     |                                               |                |            [53]{}: code 0x8a9-0x8b6 (13)
0x8a0|                           0c                  |         .      |              size: 12 (valid) 0x8a9-0x8aa (1)
     |                                               |                |              code{}: 0x8aa-0x8b6 (12)
     |                                               |                |                t{}: 0x8aa-0x8ab (1)
0x8a0|                              00               |          .     |                  n: 0 (valid) 0x8aa-0x8ab (1)
     |                                               |                |                  x[0:0]: 0x8ab-0x8ab (0)
     |                                               |                |                e[0:3]: 0x8ab-0x8b6 (11)
     |                                               |                |                  [0]{}: in 0x8ab-0x8b4 (9)
0x8a0|                                 44            |           D    |                    opcode: "f64.const" (0x44) 0x8ab-0x8ac (1)
0x8a0|                                    00 00 00 00|            ....|                    z: 0 0x8ac-0x8b4 (8)
0x8b0|00 00 00 00                                    |....            |
     |                                               |                |                  [1]{}: in 0x8b4-0x8b5 (1)
0x8b0|            bd                                 |    .           |                    opcode: "i64.reinterpret_f64" (0xbd) 0x8b4-0x8b5 (1)
     |                                               |                |                  [2]{}: in 0x8b5-0x8b6 (1)
0x8b0|               0b                              |     .          |                    opcode: "end" (0xb) 0x8b5-0x8b6 (1)
     |                                               |                |            [54]{}: code 0x8b6-0x8c3 (13)
0x8b0|                  0c                           |      .         |              size: 12 (valid) 0x8b6-0x8b7 (1)
     |                                               |                |              code{}: 0x8b7-0x8c3 (12)
     |                                               |                |                t{}: 0x8b7-0x8b8 (1)
0x8b0|                     00                        |       .        |                  n: 0 (valid) 0x8b7-0x8b8 (1)
     |                                               |                |                  x[0:0]: 0x8b8-0x8b8 (0)
     |                                               |                |                e[0:3]: 0x8b8-0x8c3 (11)
     |                                               |                |                  [0]{}: in 0x8b8-0x8c1 (9)
0x8b0|                        44                     |        D       |                    opcode: "f64.const" (0x44) 0x8b8-0x8b9 (1)
0x8b0|                           00 00 00 00 00 00 00|         .......|                    z: -0 0x8b9-0x8c1 (8)
0x8c0|80                                             |.               |
     |                                               |                |                  [1]{}: in 0x8c1-0x8c2 (1)
0x8c0|   bd                                          | .              |                    opcode: "i64.reinterpret_f64" (0xbd) 0x8c1-0x8c2 (1)
     |                                               |                |                  [2]{}: in 0x8c2-0x8c3 (1)
0x8c0|      0b                                       |  .             |                    opcode: "end" (0xb) 0x8c2-0x8c3 (1)
     |                                               |                |            [55]{}: code 0x8c3-0x8d0 (13)
0x8c0|         0c                                    |   .            |              size: 12 (valid) 0x8c3-0x8c4 (1)
     |                                               |                |              code{}: 0x8c4-0x8d0 (12)
     |                                               |                |                t{}: 0x8c4-0x8c5 (1)
0x8c0|            00                                 |    .           |                  n: 0 (valid) 0x8c4-0x8c5 (1)
     |                                               |                |                  x[0:0]: 0x8c5-0x8c5 (0)
     |                                               |                |                e[0:3]: 0x8c5-0x8d0 (11)
     |                                               |                |                  [0]{}: in 0x8c5-0x8ce (9)
0x8c0|               44                              |     D          |                    opcode: "f64.const" (0x44) 0x8c5-0x8c6 (1)
0x8c0|                  18 2d 44 54 fb 21 19 40      |      .-DT.!.@  |                    z: 6.283185307179586 0x8c6-0x8ce (8)
     |                                               |                |                  [1]{}: in 0x8ce-0x8cf (1)
0x8c0|                                          bd   |              . |                    opcode: "i64.reinterpret_f64" (0xbd) 0x8ce-0x8cf (1)
     |                                               |                |                  [2]{}: in 0x8cf-0x8d0 (1)
0x8c0|                                             0b|               .|                    opcode: "end" (0xb) 0x8cf-0x8d0 (1)
     |                                               |                |            [56]{}: code 0x8d0-0x8dd (13)
0x8d0|0c                                             |.               |              size: 12 (valid) 0x8d0-0x8d1 (1)
     |                                               |                |              code{}: 0x8d1-0x8dd (12)
     |                                               |                |                t{}: 0x8d1-0x8d2 (1)
0x8d0|   00                                          | .              |                  n: 0 (valid) 0x8d1-0x8d2 (1)
     |                                               |                |                  x[0:0]: 0x8d2-0x8d2 (0)
     |                                               |                |                e[0:3]: 0x8d2-0x8dd (11)
     |                                               |                |                  [0]{}: in 0x8d2-0x8db (9)
0x8d0|      44                                       |  D             |                    opcode: "f64.const" (0x44) 0x8d2-0x8d3 (1)
0x8d0|         01 00 00 00 00 00 00 00               |   ........     |                    z: 5e-324 0x8d3-0x8db (8)
     |                                               |                |                  [1]{}: in 0x8db-0x8dc (1)
0x8d0|                                 bd            |           .    |                    opcode: "i64.reinterpret_f64" (0xbd) 0x8db-0x8dc (1)
     |                                               |                |                  [2]{}: in 0x8dc-0x8dd (1)
0x8d0|                                    0b         |            .   |                    opcode: "end" (0xb) 0x8dc-0x8dd (1)
     |                                               |                |            [57]{}: code 0x8dd-0x8ea (13)
0x8d0|                                       0c      |             .  |              size: 12 (valid) 0x8dd-0x8de (1)
     |                                               |                |              code{}: 0x8de-0x8ea (12)
     |                                               |                |                t{}: 0x8de-0x8df (1)
0x8d0|                                          00   |              . |                  n: 0 (valid) 0x8de-0x8df (1)
     |                                               |                |                  x[0:0]: 0x8df-0x8df (0)
     |                                               |                |                e[0:3]: 0x8df-0x8ea (11)
     |                                               |                |                  [0]{}: in 0x8df-0x8e8 (9)
0x8d0|                                             44|               D|                    opcode: "f64.const" (0x44) 0x8df-0x8e0 (1)
0x8e0|00 00 00 00 00 00 10 00                        |........        |                    z: 2.2250738585072014e-308 0x8e0-0x8e8 (8)
     |                                               |                |                  [1]{}: in 0x8e8-0x8e9 (1)
0x8e0|                        bd                     |        .       |                    opcode: "i64.reinterpret_f64" (0xbd) 0x8e8-0x8e9 (1)
     |                                               |                |                  [2]{}: in 0x8e9-0x8ea (1)
0x8e0|                           0b                  |         .      |                    opcode: "end" (0xb) 0x8e9-0x8ea (1)
     |                                               |                |            [58]{}: code 0x8ea-0x8f7 (13)
0x8e0|                              0c               |          .     |              size: 12 (valid) 0x8ea-0x8eb (1)
     |                                               |                |              code{}: 0x8eb-0x8f7 (12)
     |                                               |                |                t{}: 0x8eb-0x8ec (1)
0x8e0|                                 00            |           .    |                  n: 0 (valid) 0x8eb-0x8ec (1)
     |                                               |                |                  x[0:0]: 0x8ec-0x8ec (0)
     |                                               |                |                e[0:3]: 0x8ec-0x8f7 (11)
     |                                               |                |                  [0]{}: in 0x8ec-0x8f5 (9)
0x8e0|                                    44         |            D   |                    opcode: "f64.const" (0x44) 0x8ec-0x8ed (1)
0x8e0|                                       ff ff ff|             ...|                    z: 2.225073858507201e-308 0x8ed-0x8f5 (8)
0x8f0|ff ff ff 0f 00                                 |.....           |
     |                                               |                |                  [1]{}: in 0x8f5-0x8f6 (1)
0x8f0|               bd                              |     .          |                    opcode: "i64.reinterpret_f64" (0xbd) 0x8f5-0x8f6 (1)
     |                                               |                |                  [2]{}: in 0x8f6-0x8f7 (1)
0x8f0|                  0b                           |      .         |                    opcode: "end" (0xb) 0x8f6-0x8f7 (1)
     |                                               |                |            [59]{}: code 0x8f7-0x904 (13)
0x8f0|                     0c                        |       .        |              size: 12 (valid) 0x8f7-0x8f8 (1)
     |                                               |                |              code{}: 0x8f8-0x904 (12)
     |                                               |                |                t{}: 0x8f8-0x8f9 (1)
0x8f0|                        00                     |        .       |                  n: 0 (valid) 0x8f8-0x8f9 (1)
     |                                               |                |                  x[0:0]: 0x8f9-0x8f9 (0)
     |                                               |                |                e[0:3]: 0x8f9-0x904 (11)
     |                                               |                |                  [0]{}: in 0x8f9-0x902 (9)
0x8f0|                           44                  |         D      |                    opcode: "f64.const" (0x44) 0x8f9-0x8fa (1)
0x8f0|                              ff ff ff ff ff ff|          ......|                    z: 1.7976931348623157e+308 0x8fa-0x902 (8)
0x900|ef 7f                                          |..              |
     |                                               |                |                  [1]{}: in 0x902-0x903 (1)
0x900|      bd                                       |  .             |                    opcode: "i64.reinterpret_f64" (0xbd) 0x902-0x903 (1)
     |                                               |                |                  [2]{}: in 0x903-0x904 (1)
0x900|         0b                                    |   .            |                    opcode: "end" (0xb) 0x903-0x904 (1)
     |                                               |                |            [60]{}: code 0x904-0x911 (13)
0x900|            0c                                 |    .           |              size: 12 (valid) 0x904-0x905 (1)
     |                                               |                |              code{}: 0x905-0x911 (12)
     |                                               |                |                t{}: 0x905-0x906 (1)
0x900|               00                              |     .          |                  n: 0 (valid) 0x905-0x906 (1)
     |                                               |                |                  x[0:0]: 0x906-0x906 (0)
     |                                               |                |                e[0:3]: 0x906-0x911 (11)
     |                                               |                |                  [0]{}: in 0x906-0x90f (9)
0x900|                  44                           |      D         |                    opcode: "f64.const" (0x44) 0x906-0x907 (1)
0x900|                     7d c3 94 25 ad 49 b2 54   |       }..%.I.T |                    z: 1e+100 0x907-0x90f (8)
     |                                               |                |                  [1]{}: in 0x90f-0x910 (1)
0x900|                                             bd|               .|                    opcode: "i64.reinterpret_f64" (0xbd) 0x90f-0x910 (1)
     |                                               |                |                  [2]{}: in 0x910-0x911 (1)
0x910|0b                                             |.               |                    opcode: "end" (0xb) 0x910-0x911 (1)
     |                                               |                |            [61]{}: code 0x911-0x91e (13)
0x910|   0c                                          | .              |              size: 12 (valid) 0x911-0x912 (1)
     |                                               |                |              code{}: 0x912-0x91e (12)
     |                                               |                |                t{}: 0x912-0x913 (1)
0x910|      00                                       |  .             |                  n: 0 (valid) 0x912-0x913 (1)
     |                                               |                |                  x[0:0]: 0x913-0x913 (0)
     |                                               |                |                e[0:3]: 0x913-0x91e (11)
     |                                               |                |                  [0]{}: in 0x913-0x91c (9)
0x910|         44                                    |   D            |                    opcode: "f64.const" (0x44) 0x913-0x914 (1)
0x910|            24 9e f1 1f 00 00 f0 3f            |    $......?    |                    z: 1.000000119 0x914-0x91c (8)
     |                                               |                |                  [1]{}: in 0x91c-0x91d (1)
0x910|                                    bd         |            .   |                    opcode: "i64.reinterpret_f64" (0xbd) 0x91c-0x91d (1)
     |                                               |                |                  [2]{}: in 0x91d-0x91e (1)
0x910|                                       0b      |             .  |                    opcode: "end" (0xb) 0x91d-0x91e (1)
     |                                               |                |            [62]{}: code 0x91e-0x926 (8)
0x910|                                          07   |              . |              size: 7 (valid) 0x91e-0x91f (1)
     |                                               |                |              code{}: 0x91f-0x926 (7)
     |                                               |                |                t{}: 0x91f-0x920 (1)
0x910|                                             00|               .|                  n: 0 (valid) 0x91f-0x920 (1)
     |                                               |                |                  x[0:0]: 0x920-0x920 (0)
     |                                               |                |                e[0:2]: 0x920-0x926 (6)
     |                                               |                |                  [0]{}: in 0x920-0x925 (5)
0x920|43                                             |C               |                    opcode: "f32.const" (0x43) 0x920-0x921 (1)
0x920|   00 24 74 49                                 | .$tI           |                    z: 1e+06 0x921-0x925 (4)
     |                                               |                |                  [1]{}: in 0x925-0x926 (1)
0x920|               0b                              |     .          |                    opcode: "end" (0xb) 0x925-0x926 (1)
     |                                               |                |            [63]{}: code 0x926-0x92e (8)
0x920|                  07                           |      .         |              size: 7 (valid) 0x926-0x927 (1)
     |                                               |                |              code{}: 0x927-0x92e (7)
     |                                               |                |                t{}: 0x927-0x928 (1)
0x920|                     00                        |       .        |                  n: 0 (valid) 0x927-0x928 (1)
     |                                               |                |                  x[0:0]: 0x928-0x928 (0)
     |                                               |                |                e[0:2]: 0x928-0x92e (6)
     |                                               |                |                  [0]{}: in 0x928-0x92d (5)
0x920|                        43                     |        C       |                    opcode: "f32.const" (0x43) 0x928-0x929 (1)
0x920|                           00 00 7a 44         |         ..zD   |                    z: 1000 0x929-0x92d (4)
     |                                               |                |                  [1]{}: in 0x92d-0x92e (1)
0x920|                                       0b      |             .  |                    opcode: "end" (0xb) 0x92d-0x92e (1)
     |                                               |                |            [64]{}: code 0x92e-0x936 (8)
0x920|                                          07   |              . |              size: 7 (valid) 0x92e-0x92f (1)
     |                                               |                |              code{}: 0x92f-0x936 (7)
     |                                               |                |                t{}: 0x92f-0x930 (1)
0x920|                                             00|               .|                  n: 0 (valid) 0x92f-0x930 (1)
     |                                               |                |                  x[0:0]: 0x930-0x930 (0)
     |                                               |                |                e[0:2]: 0x930-0x936 (6)
     |                                               |                |                  [0]{}: in 0x930-0x935 (5)
0x930|43                                             |C               |                    opcode: "f32.const" (0x43) 0x930-0x931 (1)
0x930|   10 c9 7a 44                                 | ..zD           |                    z: 1003.1416015625 0x931-0x935 (4)
     |                                               |                |                  [1]{}: in 0x935-0x936 (1)
0x930|               0b                              |     .          |                    opcode: "end" (0xb) 0x935-0x936 (1)
     |                                               |                |            [65]{}: code 0x936-0x93e (8)
0x930|                  07                           |      .         |              size: 7 (valid) 0x936-0x937 (1)
     |                                               |                |              code{}: 0x937-0x93e (7)
     |                                               |                |                t{}: 0x937-0x938 (1)
0x930|                     00                        |       .        |                  n: 0 (valid) 0x937-0x938 (1)
     |                                               |                |                  x[0:0]: 0x938-0x938 (0)
     |                                               |                |                e[0:2]: 0x938-0x93e (6)
     |                                               |                |                  [0]{}: in 0x938-0x93d (5)
0x930|                        43                     |        C       |                    opcode: "f32.const" (0x43) 0x938-0x939 (1)
0x930|                           96 19 61 58         |         ..aX   |                    z: 9.900000280576e+14 0x939-0x93d (4)
     |                                               |                |                  [1]{}: in 0x93d-0x93e (1)
0x930|                                       0b      |             .  |                    opcode: "end" (0xb) 0x93d-0x93e (1)
     |                                               |                |            [66]{}: code 0x93e-0x946 (8)
0x930|                                          07   |              . |              size: 7 (valid) 0x93e-0x93f (1)
     |                                               |                |              code{}: 0x93f-0x946 (7)
     |                                               |                |                t{}: 0x93f-0x940 (1)
0x930|                                             00|               .|                  n: 0 (valid) 0x93f-0x940 (1)
     |                                               |                |                  x[0:0]: 0x940-0x940 (0)
     |                                               |                |                e[0:2]: 0x940-0x946 (6)
     |                                               |                |                  [0]{}: in 0x940-0x945 (5)
0x940|43                                             |C               |                    opcode: "f32.const" (0x43) 0x940-0x941 (1)
0x940|   74 ae 1d 6e                                 | t..n           |                    z: 1.2200011857269034e+28 0x941-0x945 (4)
     |                                               |                |                  [1]{}: in 0x945-0x946 (1)
0x940|               0b                              |     .          |                    opcode: "end" (0xb) 0x945-0x946 (1)
     |                                               |                |            [67]{}: code 0x946-0x94e (8)
0x940|                  07                           |      .         |              size: 7 (valid) 0x946-0x947 (1)
     |                                               |                |              code{}: 0x947-0x94e (7)
     |                                               |                |                t{}: 0x947-0x948 (1)
0x940|                     00                        |       .        |                  n: 0 (valid) 0x947-0x948 (1)
     |                                               |                |                  x[0:0]: 0x948-0x948 (0)
     |                                               |                |                e[0:2]: 0x948-0x94e (6)
     |                                               |                |                  [0]{}: in 0x948-0x94d (5)
0x940|                        43                     |        C       |                    opcode: "f32.const" (0x43) 0x948-0x949 (1)
0x940|                           0a f0 20 4d         |         .. M   |                    z: 1.6875536e+08 0x949-0x94d (4)
     |                                               |                |                  [1]{}: in 0x94d-0x94e (1)
0x940|                                       0b      |             .  |                    opcode: "end" (0xb) 0x94d-0x94e (1)
     |                                               |                |            [68]{}: code 0x94e-0x956 (8)
0x940|                                          07   |              . |              size: 7 (valid) 0x94e-0x94f (1)
     |                                               |                |              code{}: 0x94f-0x956 (7)
     |                                               |                |                t{}: 0x94f-0x950 (1)
0x940|                                             00|               .|                  n: 0 (valid) 0x94f-0x950 (1)
     |                                               |                |                  x[0:0]: 0x950-0x950 (0)
     |                                               |                |                e[0:2]: 0x950-0x956 (6)
     |                                               |                |                  [0]{}: in 0x950-0x955 (5)
0x950|43                                             |C               |                    opcode: "f32.const" (0x43) 0x950-0x951 (1)
0x950|   80 07 d5 47                                 | ...G           |                    z: 109071 0x951-0x955 (4)
     |                                               |                |                  [1]{}: in 0x955-0x956 (1)
0x950|               0b                              |     .          |                    opcode: "end" (0xb) 0x955-0x956 (1)
     |                                               |                |            [69]{}: code 0x956-0x95e (8)
0x950|                  07                           |      .         |              size: 7 (valid) 0x956-0x957 (1)
     |                                               |                |              code{}: 0x957-0x95e (7)
     |                                               |                |                t{}: 0x957-0x958 (1)
0x950|                     00                        |       .        |                  n: 0 (valid) 0x957-0x958 (1)
     |                                               |                |                  x[0:0]: 0x958-0x958 (0)
     |                                               |                |                e[0:2]: 0x958-0x95e (6)
     |                                               |                |                  [0]{}: in 0x958-0x95d (5)
0x950|                        43                     |        C       |                    opcode: "f32.const" (0x43) 0x958-0x959 (1)
0x950|                           f1 ff 20 47         |         .. G   |                    z: 41215.94140625 0x959-0x95d (4)
     |                                               |                |                  [1]{}: in 0x95d-0x95e (1)
0x950|                                       0b      |             .  |                    opcode: "end" (0xb) 0x95d-0x95e (1)
     |                                               |                |            [70]{}: code 0x95e-0x966 (8)
0x950|                                          07   |              . |              size: 7 (valid) 0x95e-0x95f (1)
     |                                               |                |              code{}: 0x95f-0x966 (7)
     |                                               |                |                t{}: 0x95f-0x960 (1)
0x950|                                             00|               .|                  n: 0 (valid) 0x95f-0x960 (1)
     |                                               |                |                  x[0:0]: 0x960-0x960 (0)
     |                                               |                |                e[0:2]: 0x960-0x966 (6)
     |                                               |                |                  [0]{}: in 0x960-0x965 (5)
0x960|43                                             |C               |                    opcode: "f32.const" (0x43) 0x960-0x961 (1)
0x960|   00 00 f0 49                                 | ...I           |                    z: 1.96608e+06 0x961-0x965 (4)
     |                                               |                |                  [1]{}: in 0x965-0x966 (1)
0x960|               0b                              |     .          |                    opcode: "end" (0xb) 0x965-0x966 (1)
     |                                               |                |            [71]{}: code 0x966-0x96e (8)
0x960|                  07                           |      .         |              size: 7 (valid) 0x966-0x967 (1)
     |                                               |                |              code{}: 0x967-0x96e (7)
     |                                               |                |                t{}: 0x967-0x968 (1)
0x960|                     00                        |       .        |                  n: 0 (valid) 0x967-0x968 (1)
     |                                               |                |                  x[0:0]: 0x968-0x968 (0)
     |                                               |                |                e[0:2]: 0x968-0x96e (6)
     |                                               |                |                  [0]{}: in 0x968-0x96d (5)
0x960|                        43                     |        C       |                    opcode: "f32.const" (0x43) 0x968-0x969 (1)
0x960|                           28 c0 ab 55         |         (..U   |                    z: 2.3605224144896e+13 0x969-0x96d (4)
     |                                               |                |                  [1]{}: in 0x96d-0x96e (1)
0x960|                                       0b      |             .  |                    opcode: "end" (0xb) 0x96d-0x96e (1)
     |                                               |                |            [72]{}: code 0x96e-0x97a (12)
0x960|                                          0b   |              . |              size: 11 (valid) 0x96e-0x96f (1)
     |                                               |                |              code{}: 0x96f-0x97a (11)
     |                                               |                |                t{}: 0x96f-0x970 (1)
0x960|                                             00|               .|                  n: 0 (valid) 0x96f-0x970 (1)
     |                                               |                |                  x[0:0]: 0x970-0x970 (0)
     |                                               |                |                e[0:2]: 0x970-0x97a (10)
     |                                               |                |                  [0]{}: in 0x970-0x979 (9)
0x970|44                                             |D               |                    opcode: "f64.const" (0x44) 0x970-0x971 (1)
0x970|   00 00 00 00 80 84 2e 41                     | .......A       |                    z: 1e+06 0x971-0x979 (8)
     |                                               |                |                  [1]{}: in 0x979-0x97a (1)
0x970|                           0b                  |         .      |                    opcode: "end" (0xb) 0x979-0x97a (1)
     |                                               |                |            [73]{}: code 0x97a-0x986 (12)
0x970|                              0b               |          .     |              size: 11 (valid) 0x97a-0x97b (1)
     |                                               |                |              code{}: 0x97b-0x986 (11)
     |                                               |                |                t{}: 0x97b-0x97c (1)
0x970|                                 00            |           .    |                  n: 0 (valid) 0x97b-0x97c (1)
     |                                               |                |                  x[0:0]: 0x97c-0x97c (0)
     |                                               |                |                e[0:2]: 0x97c-0x986 (10)
     |                                               |                |                  [0]{}: in 0x97c-0x985 (9)
0x970|                                    44         |            D   |                    opcode: "f64.const" (0x44) 0x97c-0x97d (1)
0x970|                                       00 00 00|             ...|                    z: 1000 0x97d-0x985 (8)
0x980|00 00 40 8f 40                                 |..@.@           |
     |                                               |                |                  [1]{}: in 0x985-0x986 (1)
0x980|               0b                              |     .          |                    opcode: "end" (0xb) 0x985-0x986 (1)
     |                                               |                |            [74]{}: code 0x986-0x992 (12)
0x980|                  0b                           |      .         |              size: 11 (valid) 0x986-0x987 (1)
     |                                               |                |              code{}: 0x987-0x992 (11)
     |                                               |                |                t{}: 0x987-0x988 (1)
0x980|                     00                        |       .        |                  n: 0 (valid) 0x987-0x988 (1)
     |                                               |                |                  x[0:0]: 0x988-0x988 (0)
     |                                               |                |                e[0:2]: 0x988-0x992 (10)
     |                                               |                |                  [0]{}: in 0x988-0x991 (9)
0x980|                        44                     |        D       |                    opcode: "f64.const" (0x44) 0x988-0x989 (1)
0x980|                           00 8b fc fa 21 59 8f|         ....!Y.|                    z: 1003.141592 0x989-0x991 (8)
0x990|40                                             |@               |
     |                                               |                |                  [1]{}: in 0x991-0x992 (1)
0x990|   0b                                          | .              |                    opcode: "end" (0xb) 0x991-0x992 (1)
     |                                               |                |            [75]{}: code 0x992-0x99e (12)
0x990|      0b                                       |  .             |              size: 11 (valid) 0x992-0x993 (1)
     |                                               |                |              code{}: 0x993-0x99e (11)
     |                                               |                |                t{}: 0x993-0x994 (1)
0x990|         00                                    |   .            |                  n: 0 (valid) 0x993-0x994 (1)
     |                                               |                |                  x[0:0]: 0x994-0x994 (0)
     |                                               |                |                e[0:2]: 0x994-0x99e (10)
     |                                               |                |                  [0]{}: in 0x994-0x99d (9)
0x990|            44                                 |    D           |                    opcode: "f64.const" (0x44) 0x994-0x995 (1)
0x990|               45 cc b7 5b 73 5c d0 26         |     E..[s\.&   |                    z: 9.9e-122 0x995-0x99d (8)
     |                                               |                |                  [1]{}: in 0x99d-0x99e (1)
0x990|                                       0b      |             .  |                    opcode: "end" (0xb) 0x99d-0x99e (1)
     |                                               |                |            [76]{}: code 0x99e-0x9aa (12)
0x990|                                          0b   |              . |              size: 11 (valid) 0x99e-0x99f (1)
     |                                               |                |              code{}: 0x99f-0x9aa (11)
     |                                               |                |                t{}: 0x99f-0x9a0 (1)
0x990|                                             00|               .|                  n: 0 (valid) 0x99f-0x9a0 (1)
     |                                               |                |                  x[0:0]: 0x9a0-0x9a0 (0)
     |                                               |                |                e[0:2]: 0x9a0-0x9aa (10)
     |                                               |                |                  [0]{}: in 0x9a0-0x9a9 (9)
0x9a0|44                                             |D               |                    opcode: "f64.const" (0x44) 0x9a0-0x9a1 (1)
0x9a0|   9c de 5b 72 ce b5 c3 45                     | ..[r...E       |                    z: 1.2200011354e+28 0x9a1-0x9a9 (8)
     |                                               |                |                  [1]{}: in 0x9a9-0x9aa (1)
0x9a0|                           0b                  |         .      |                    opcode: "end" (0xb) 0x9a9-0x9aa (1)
     |                                               |                |            [77]{}: code 0x9aa-0x9b6 (12)
0x9a0|                              0b               |          .     |              size: 11 (valid) 0x9aa-0x9ab (1)
     |                                               |                |              code{}: 0x9ab-0x9b6 (11)
     |                                               |                |                t{}: 0x9ab-0x9ac (1)
0x9a0|                                 00            |           .    |                  n: 0 (valid) 0x9ab-0x9ac (1)
     |                                               |                |                  x[0:0]: 0x9ac-0x9ac (0)
     |                                               |                |                e[0:2]: 0x9ac-0x9b6 (10)
     |                                               |                |                  [0]{}: in 0x9ac-0x9b5 (9)
0x9a0|                                    44         |            D   |                    opcode: "f64.const" (0x44) 0x9ac-0x9ad (1)
0x9a0|                                       32 33 01|             23.|                    z: 3.078696982321561e+15 0x9ad-0x9b5 (8)
0x9b0|00 1e e0 25 43                                 |...%C           |
     |                                               |                |                  [1]{}: in 0x9b5-0x9b6 (1)
0x9b0|               0b                              |     .          |                    opcode: "end" (0xb) 0x9b5-0x9b6 (1)
     |                                               |                |            [78]{}: code 0x9b6-0x9c2 (12)
0x9b0|                  0b                           |      .         |              size: 11 (valid) 0x9b6-0x9b7 (1)
     |                                               |                |              code{}: 0x9b7-0x9c2 (11)
     |                                               |                |                t{}: 0x9b7-0x9b8 (1)
0x9b0|                     00                        |       .        |                  n: 0 (valid) 0x9b7-0x9b8 (1)
     |                                               |                |                  x[0:0]: 0x9b8-0x9b8 (0)
     |                                               |                |                e[0:2]: 0x9b8-0x9c2 (10)
     |                                               |                |                  [0]{}: in 0x9b8-0x9c1 (9)
0x9b0|                        44                     |        D       |                    opcode: "f64.const" (0x44) 0x9b8-0x9b9 (1)
0x9b0|                           00 00 00 00 f0 a0 fa|         .......|                    z: 109071 0x9b9-0x9c1 (8)
0x9c0|40                                             |@               |
     |                                               |                |                  [1]{}: in 0x9c1-0x9c2 (1)
0x9c0|   0b                                          | .              |                    opcode: "end" (0xb) 0x9c1-0x9c2 (1)
     |                                               |                |            [79]{}: code 0x9c2-0x9ce (12)
0x9c0|      0b                                       |  .             |              size: 11 (valid) 0x9c2-0x9c3 (1)
     |                                               |                |              code{}: 0x9c3-0x9ce (11)
     |                                               |                |                t{}: 0x9c3-0x9c4 (1)
0x9c0|         00                                    |   .            |                  n: 0 (valid) 0x9c3-0x9c4 (1)
     |                                               |                |                  x[0:0]: 0x9c4-0x9c4 (0)
     |                                               |                |                e[0:2]: 0x9c4-0x9ce (10)
     |                                               |                |                  [0]{}: in 0x9c4-0x9cd (9)
0x9c0|            44                                 |    D           |                    opcode: "f64.const" (0x44) 0x9c4-0x9c5 (1)
0x9c0|               40 b3 34 28 fe 1f e4 40         |     @.4(...@   |                    z: 41215.94240794191 0x9c5-0x9cd (8)
     |                                               |                |                  [1]{}: in 0x9cd-0x9ce (1)
0x9c0|                                       0b      |             .  |                    opcode: "end" (0xb) 0x9cd-0x9ce (1)
     |                                               |                |            [80]{}: code 0x9ce-0x9da (12)
0x9c0|                                          0b   |              . |              size: 11 (valid) 0x9ce-0x9cf (1)
     |                                               |                |              code{}: 0x9cf-0x9da (11)
     |                                               |                |                t{}: 0x9cf-0x9d0 (1)
0x9c0|                                             00|               .|                  n: 0 (valid) 0x9cf-0x9d0 (1)
     |                                               |                |                  x[0:0]: 0x9d0-0x9d0 (0)
     |                                               |                |                e[0:2]: 0x9d0-0x9da (10)
     |                                               |                |                  [0]{}: in 0x9d0-0x9d9 (9)
0x9d0|44                                             |D               |                    opcode: "f64.const" (0x44) 0x9d0-0x9d1 (1)
0x9d0|   00 00 00 00 00 00 3e 41                     | ......>A       |                    z: 1.96608e+06 0x9d1-0x9d9 (8)
     |                                               |                |                  [1]{}: in 0x9d9-0x9da (1)
0x9d0|                           0b                  |         .      |                    opcode: "end" (0xb) 0x9d9-0x9da (1)
     |                                               |                |            [81]{}: code 0x9da-0x9e6 (12)
0x9d0|                              0b               |          .     |              size: 11 (valid) 0x9da-0x9db (1)
     |                                               |                |              code{}: 0x9db-0x9e6 (11)
     |                                               |                |                t{}: 0x9db-0x9dc (1)
0x9d0|                                 00            |           .    |                  n: 0 (valid) 0x9db-0x9dc (1)
     |                                               |                |                  x[0:0]: 0x9dc-0x9dc (0)
     |                                               |                |                e[0:2]: 0x9dc-0x9e6 (10)
     |                                               |                |                  [0]{}: in 0x9dc-0x9e5 (9)
0x9d0|                                    44         |            D   |                    opcode: "f64.const" (0x44) 0x9dc-0x9dd (1)
0x9d0|                                       00 70 9f|             .p.|                    z: 2.3605225168752e+13 0x9dd-0x9e5 (8)
0x9e0|0f 05 78 b5 42                                 |..x.B           |
     |                                               |                |                  [1]{}: in 0x9e5-0x9e6 (1)
0x9e0|               0b|                             |     .|         |                    opcode: "end" (0xb) 0x9e5-0x9e6 (1)
