$ fq -d wasm dv float_exprs-48.wasm
    |00 01 02 03 04 05 06 07 08 09 0a 0b 0c 0d 0e 0f|0123456789abcdef|.{}: float_exprs-48.wasm (wasm) 0x0-0x6e (110)
0x00|00 61 73 6d                                    |.asm            |  magic: raw bits (valid) 0x0-0x4 (4)
0x00|            01 00 00 00                        |    ....        |  version: 1 0x4-0x8 (4)
    |                                               |                |  sections[0:4]: 0x8-0x6e (102)
    |                                               |                |    [0]{}: section 0x8-0xf (7)
0x00|                        01                     |        .       |      id: "type_section" (1) 0x8-0x9 (1)
0x00|                           05                  |         .      |      size: 5 (valid) 0x9-0xa (1)
    |                                               |                |      content{}: 0xa-0xf (5)
    |                                               |                |        ft{}: 0xa-0xf (5)
0x00|                              01               |          .     |          n: 1 (valid) 0xa-0xb (1)
    |                                               |                |          x[0:1]: 0xb-0xf (4)
    |                                               |                |            [0]{}: ft 0xb-0xf (4)
0x00|                                 60            |           `    |              tag: 0x60 (valid) 0xb-0xc (1)
    |                                               |                |              rt1{}: 0xc-0xd (1)
0x00|                                    00         |            .   |                n: 0 (valid) 0xc-0xd (1)
    |                                               |                |                x[0:0]: 0xd-0xd (0)
    |                                               |                |              rt2{}: 0xd-0xf (2)
0x00|                                       01      |             .  |                n: 1 (valid) 0xd-0xe (1)
    |                                               |                |                x[0:1]: 0xe-0xf (1)
0x00|                                          7d   |              } |                  [0]: "f32" (0x7d) t 0xe-0xf (1)
    |                                               |                |    [1]{}: section 0xf-0x13 (4)
0x00|                                             03|               .|      id: "function_section" (3) 0xf-0x10 (1)
0x10|02                                             |.               |      size: 2 (valid) 0x10-0x11 (1)
    |                                               |                |      content{}: 0x11-0x13 (2)
    |                                               |                |        x{}: 0x11-0x13 (2)
0x10|   01                                          | .              |          n: 1 (valid) 0x11-0x12 (1)
    |                                               |                |          x[0:1]: 0x12-0x13 (1)
0x10|      00                                       |  .             |            [0]: 0 x (valid) 0x12-0x13 (1)
    |                                               |                |    [2]{}: section 0x13-0x22 (15)
0x10|         07                                    |   .            |      id: "export_section" (7) 0x13-0x14 (1)
0x10|            0d                                 |    .           |      size: 13 (valid) 0x14-0x15 (1)
    |                                               |                |      content{}: 0x15-0x22 (13)
    |                                               |                |        ex{}: 0x15-0x22 (13)
0x10|               01                              |     .          |          n: 1 (valid) 0x15-0x16 (1)
    |                                               |                |          x[0:1]: 0x16-0x22 (12)
    |                                               |                |            [0]{}: ex 0x16-0x22 (12)
    |                                               |                |              nm{}: 0x16-0x20 (10)
0x10|                  09                           |      .         |                n: 9 (valid) 0x16-0x17 (1)
0x10|                     63 61 6c 63 75 6c 61 74 65|       calculate|                b: "calculate" 0x17-0x20 (9)
    |                                               |                |              d{}: 0x20-0x22 (2)
0x20|00                                             |.               |                tag: "funcidx" (0x0) 0x20-0x21 (1)
0x20|   00                                          | .              |                x: 0 (valid) 0x21-0x22 (1)
    |                                               |                |    [3]{}: section 0x22-0x6e (76)
0x20|      0a                                       |  .             |      id: "code_section" (10) 0x22-0x23 (1)
0x20|         4a                                    |   J            |      size: 74 (valid) 0x23-0x24 (1)
    |                                               |                |      content{}: 0x24-0x6e (74)
    |                                               |                |        code{}: 0x24-0x6e (74)
0x20|            01                                 |    .           |          n: 1 (valid) 0x24-0x25 (1)
    |                                               |                |          x[0:1]: 0x25-0x6e (73)
    |                                               |                |            [0]{}: code 0x25-0x6e (73)
0x20|               48                              |     H          |              size: 72 (valid) 0x25-0x26 (1)
    |                                               |                |              code{}: 0x26-0x6e (72)
    |                                               |                |                t{}: 0x26-0x29 (3)
0x20|                  01                           |      .         |                  n: 1 (valid) 0x26-0x27 (1)
    |                                               |                |                  x[0:1]: 0x27-0x29 (2)
    |                                               |                |                    [0]{}: t 0x27-0x29 (2)
0x20|                     05                        |       .        |                      n: 5 (valid) 0x27-0x28 (1)
0x20|                        7d                     |        }       |                      t: "f32" (0x7d) 0x28-0x29 (1)
    |                                               |                |                e[0:31]: 0x29-0x6e (69)
    |                                               |                |                  [0]{}: in 0x29-0x2e (5)
0x20|                           43                  |         C      |                    opcode: "f32.const" (0x43) 0x29-0x2a (1)
0x20|                              00 40 1c 43      |          .@.C  |                    z: 156.25 0x2a-0x2e (4)
    |                                               |                |                  [1]{}: in 0x2e-0x30 (2)
0x20|                                          21   |              ! |                    opcode: "local.set" (0x21) 0x2e-0x2f (1)
0x20|                                             00|               .|                    x: 0 (valid) 0x2f-0x30 (1)
    |                                               |                |                  [2]{}: in 0x30-0x35 (5)
0x30|43                                             |C               |                    opcode: "f32.const" (0x43) 0x30-0x31 (1)
0x30|   55 55 50 43                                 | UUPC           |                    z: 208.3333282470703 0x31-0x35 (4)
    |                                               |                |                  [3]{}: in 0x35-0x37 (2)
0x30|               21                              |     !          |                    opcode: "local.set" (0x21) 0x35-0x36 (1)
0x30|                  01                           |      .         |                    x: 1 (valid) 0x36-0x37 (1)
    |                                               |                |                  [4]{}: in 0x37-0x3c (5)
0x30|                     43                        |       C        |                    opcode: "f32.const" (0x43) 0x37-0x38 (1)
0x30|                        15 c7 e3 3f            |        ...?    |                    z: 1.7795130014419556 0x38-0x3c (4)
    |                                               |                |                  [5]{}: in 0x3c-0x3e (2)
0x30|                                    21         |            !   |                    opcode: "local.set" (0x21) 0x3c-0x3d (1)
0x30|                                       02      |             .  |                    x: 2 (valid) 0x3d-0x3e (1)
    |                                               |                |                  [6]{}: in 0x3e-0x40 (2)
0x30|                                          20   |                |                    opcode: "local.get" (0x20) 0x3e-0x3f (1)
0x30|                                             01|               .|                    x: 1 (valid) 0x3f-0x40 (1)
    |                                               |                |                  [7]{}: in 0x40-0x41 (1)
0x40|8c                                             |.               |                    opcode: "f32.neg" (0x8c) 0x40-0x41 (1)
    |                                               |                |                  [8]{}: in 0x41-0x43 (2)
0x40|   20                                          |                |                    opcode: "local.get" (0x20) 0x41-0x42 (1)
0x40|      00                                       |  .             |                    x: 0 (valid) 0x42-0x43 (1)
    |                                               |                |                  [9]{}: in 0x43-0x44 (1)
0x40|         94                                    |   .            |                    opcode: "f32.mul" (0x94) 0x43-0x44 (1)
    |                                               |                |                  [10]{}: in 0x44-0x46 (2)
0x40|            20                                 |                |                    opcode: "local.get" (0x20) 0x44-0x45 (1)
0x40|               00                              |     .          |                    x: 0 (valid) 0x45-0x46 (1)
    |                                               |                |                  [11]{}: in 0x46-0x48 (2)
0x40|                  20                           |                |                    opcode: "local.get" (0x20) 0x46-0x47 (1)
0x40|                     02                        |       .        |                    x: 2 (valid) 0x47-0x48 (1)
    |                                               |                |                  [12]{}: in 0x48-0x49 (1)
0x40|                        94                     |        .       |                    opcode: "f32.mul" (0x94) 0x48-0x49 (1)
    |                                               |                |                  [13]{}: in 0x49-0x4b (2)
0x40|                           20                  |                |                    opcode: "local.get" (0x20) 0x49-0x4a (1)
0x40|                              01               |          .     |                    x: 1 (valid) 0x4a-0x4b (1)
    |                                               |                |                  [14]{}: in 0x4b-0x4c (1)
0x40|                                 93            |           .    |                    opcode: "f32.sub" (0x93) 0x4b-0x4c (1)
    |                                               |                |                  [15]{}: in 0x4c-0x4d (1)
0x40|                                    95         |            .   |                    opcode: "f32.div" (0x95) 0x4c-0x4d (1)
    |                                               |                |                  [16]{}: in 0x4d-0x4f (2)
0x40|                                       21      |             !  |                    opcode: "local.set" (0x21) 0x4d-0x4e (1)
0x40|                                          03   |              . |                    x: 3 (valid) 0x4e-0x4f (1)
    |                                               |                |                  [17]{}: in 0x4f-0x51 (2)
0x40|                                             20|                |                    opcode: "local.get" (0x20) 0x4f-0x50 (1)
0x50|01                                             |.               |                    x: 1 (valid) 0x50-0x51 (1)
    |                                               |                |                  [18]{}: in 0x51-0x52 (1)
0x50|   8c                                          | .              |                    opcode: "f32.neg" (0x8c) 0x51-0x52 (1)
    |                                               |                |                  [19]{}: in 0x52-0x54 (2)
0x50|      20                                       |                |                    opcode: "local.get" (0x20) 0x52-0x53 (1)
0x50|         00                                    |   .            |                    x: 0 (valid) 0x53-0x54 (1)
    |                                               |                |                  [20]{}: in 0x54-0x55 (1)
0x50|            94                                 |    .           |                    opcode: "f32.mul" (0x94) 0x54-0x55 (1)
    |                                               |                |                  [21]{}: in 0x55-0x57 (2)
0x50|               20                              |                |                    opcode: "local.get" (0x20) 0x55-0x56 (1)
0x50|                  00                           |      .         |                    x: 0 (valid) 0x56-0x57 (1)
    |                                               |                |                  [22]{}: in 0x57-0x59 (2)
0x50|                     20                        |                |                    opcode: "local.get" (0x20) 0x57-0x58 (1)
0x50|                        02                     |        .       |                    x: 2 (valid) 0x58-0x59 (1)
    |                                               |                |                  [23]{}: in 0x59-0x5a (1)
0x50|                           94                  |         .      |                    opcode: "f32.mul" (0x94) 0x59-0x5a (1)
    |                                               |                |                  [24]{}: in 0x5a-0x5c (2)
0x50|                              20               |                |                    opcode: "local.get" (0x20) 0x5a-0x5b (1)
0x50|                                 01            |           .    |                    x: 1 (valid) 0x5b-0x5c (1)
    |                                               |                |                  [25]{}: in 0x5c-0x5d (1)
0x50|                                    93         |            .   |                    opcode: "f32.sub" (0x93) 0x5c-0x5d (1)
    |                                               |                |                  [26]{}: in 0x5d-0x5e (1)
0x50|                                       95      |             .  |                    opcode: "f32.div" (0x95) 0x5d-0x5e (1)
    |                                               |                |                  [27]{}: in 0x5e-0x60 (2)
0x50|                                          21   |              ! |                    opcode: "local.set" (0x21) 0x5e-0x5f (1)
0x50|                                             04|               .|                    x: 4 (valid) 0x5f-0x60 (1)
    |                                               |                |                  [28]{}: in 0x60-0x6b (11)
0x60|02                                             |.               |                    opcode: "block" (0x2) 0x60-0x61 (1)
0x60|   40                                          | @              |                    bt: "ε" (64) 0x61-0x62 (1)
    |                                               |                |                    instructions[0:5]: 0x62-0x6a (8)
    |                                               |                |                      [0]{}: instr 0x62-0x64 (2)
0x60|      20                                       |                |                        opcode: "local.get" (0x20) 0x62-0x63 (1)
0x60|         03                                    |   .            |                        x: 3 (valid) 0x63-0x64 (1)
    |                                               |                |                      [1]{}: instr 0x64-0x66 (2)
0x60|            20                                 |                |                        opcode: "local.get" (0x20) 0x64-0x65 (1)
0x60|               04                              |     .          |                        x: 4 (valid) 0x65-0x66 (1)
    |                                               |                |                      [2]{}: instr 0x66-0x67 (1)
0x60|                  5b                           |      [         |                        opcode: "f32.eq" (0x5b) 0x66-0x67 (1)
    |                                               |                |                      [3]{}: instr 0x67-0x69 (2)
0x60|                     0d                        |       .        |                        opcode: "br_if" (0xd) 0x67-0x68 (1)
0x60|                        00                     |        .       |                        l: 0 (valid) 0x68-0x69 (1)
    |                                               |                |                      [4]{}: instr 0x69-0x6a (1)
0x60|                           00                  |         .      |                        opcode: "unreachable" (0x0) 0x69-0x6a (1)
0x60|                              0b               |          .     |                    end: 0xb (valid) 0x6a-0x6b (1)
    |                                               |                |                  [29]{}: in 0x6b-0x6d (2)
0x60|                                 20            |                |                    opcode: "local.get" (0x20) 0x6b-0x6c (1)
0x60|                                    04         |            .   |                    x: 4 (valid) 0x6c-0x6d (1)
    |                                               |                |                  [30]{}: in 0x6d-0x6e (1)
0x60|                                       0b|     |             .| |                    opcode: "end" (0xb) 0x6d-0x6e (1)
