$ fq -d wasm dv float_exprs-47.wasm
    |00 01 02 03 04 05 06 07 08 09 0a 0b 0c 0d 0e 0f|0123456789abcdef|.{}: float_exprs-47.wasm (wasm) 0x0-0x97.7 (152)
0x00|00 61 73 6d                                    |.asm            |  magic: raw bits (valid) 0x0-0x3.7 (4)
0x00|            01 00 00 00                        |    ....        |  version: 1 0x4-0x7.7 (4)
    |                                               |                |  sections[0:4]: 0x8-0x97.7 (144)
    |                                               |                |    [0]{}: section 0x8-0x12.7 (11)
0x00|                        01                     |        .       |      id: "type section" (1) 0x8-0x8.7 (1)
0x00|                           09                  |         .      |      size: 9 0x9-0x9.7 (1)
    |                                               |                |      content{}: 0xa-0x12.7 (9)
    |                                               |                |        ft{}: 0xa-0x12.7 (9)
0x00|                              02               |          .     |          n: 2 0xa-0xa.7 (1)
    |                                               |                |          x[0:2]: 0xb-0x12.7 (8)
    |                                               |                |            [0]{}: ft 0xb-0xe.7 (4)
0x00|                                 60            |           `    |              tag: 0x60 (valid) 0xb-0xb.7 (1)
    |                                               |                |              rt1{}: 0xc-0xc.7 (1)
0x00|                                    00         |            .   |                n: 0 0xc-0xc.7 (1)
    |                                               |                |                x[0:0]: 0xd-NA (0)
    |                                               |                |              rt2{}: 0xd-0xe.7 (2)
0x00|                                       01      |             .  |                n: 1 0xd-0xd.7 (1)
    |                                               |                |                x[0:1]: 0xe-0xe.7 (1)
0x00|                                          7d   |              } |                  [0]: "f32" (0x7d) t 0xe-0xe.7 (1)
    |                                               |                |            [1]{}: ft 0xf-0x12.7 (4)
0x00|                                             60|               `|              tag: 0x60 (valid) 0xf-0xf.7 (1)
    |                                               |                |              rt1{}: 0x10-0x10.7 (1)
0x10|00                                             |.               |                n: 0 0x10-0x10.7 (1)
    |                                               |                |                x[0:0]: 0x11-NA (0)
    |                                               |                |              rt2{}: 0x11-0x12.7 (2)
0x10|   01                                          | .              |                n: 1 0x11-0x11.7 (1)
    |                                               |                |                x[0:1]: 0x12-0x12.7 (1)
0x10|      7c                                       |  |             |                  [0]: "f64" (0x7c) t 0x12-0x12.7 (1)
    |                                               |                |    [1]{}: section 0x13-0x17.7 (5)
0x10|         03                                    |   .            |      id: "function section" (3) 0x13-0x13.7 (1)
0x10|            03                                 |    .           |      size: 3 0x14-0x14.7 (1)
    |                                               |                |      content{}: 0x15-0x17.7 (3)
    |                                               |                |        x{}: 0x15-0x17.7 (3)
0x10|               02                              |     .          |          n: 2 0x15-0x15.7 (1)
    |                                               |                |          x[0:2]: 0x16-0x17.7 (2)
0x10|                  00                           |      .         |            [0]: 0 x 0x16-0x16.7 (1)
0x10|                     01                        |       .        |            [1]: 1 x 0x17-0x17.7 (1)
    |                                               |                |    [2]{}: section 0x18-0x50.7 (57)
0x10|                        07                     |        .       |      id: "export section" (7) 0x18-0x18.7 (1)
0x10|                           37                  |         7      |      size: 55 0x19-0x19.7 (1)
    |                                               |                |      content{}: 0x1a-0x50.7 (55)
    |                                               |                |        ex{}: 0x1a-0x50.7 (55)
0x10|                              02               |          .     |          n: 2 0x1a-0x1a.7 (1)
    |                                               |                |          x[0:2]: 0x1b-0x50.7 (54)
    |                                               |                |            [0]{}: ex 0x1b-0x35.7 (27)
    |                                               |                |              nm{}: 0x1b-0x33.7 (25)
0x10|                                 18            |           .    |                n: 24 0x1b-0x1b.7 (1)
0x10|                                    66 33 32 2e|            f32.|                b: "f32.incorrect_correction" 0x1c-0x33.7 (24)
0x20|69 6e 63 6f 72 72 65 63 74 5f 63 6f 72 72 65 63|incorrect_correc|
0x30|74 69 6f 6e                                    |tion            |
    |                                               |                |              d{}: 0x34-0x35.7 (2)
0x30|            00                                 |    .           |                tag: "funcidx" (0x0) 0x34-0x34.7 (1)
0x30|               00                              |     .          |                x: 0 0x35-0x35.7 (1)
    |                                               |                |            [1]{}: ex 0x36-0x50.7 (27)
    |                                               |                |              nm{}: 0x36-0x4e.7 (25)
0x30|                  18                           |      .         |                n: 24 0x36-0x36.7 (1)
0x30|                     66 36 34 2e 69 6e 63 6f 72|       f64.incor|                b: "f64.incorrect_correction" 0x37-0x4e.7 (24)
0x40|72 65 63 74 5f 63 6f 72 72 65 63 74 69 6f 6e   |rect_correction |
    |                                               |                |              d{}: 0x4f-0x50.7 (2)
0x40|                                             00|               .|                tag: "funcidx" (0x0) 0x4f-0x4f.7 (1)
0x50|01                                             |.               |                x: 1 0x50-0x50.7 (1)
    |                                               |                |    [3]{}: section 0x51-0x97.7 (71)
0x50|   0a                                          | .              |      id: "code section" (10) 0x51-0x51.7 (1)
0x50|      45                                       |  E             |      size: 69 0x52-0x52.7 (1)
    |                                               |                |      content{}: 0x53-0x97.7 (69)
    |                                               |                |        code{}: 0x53-0x97.7 (69)
0x50|         02                                    |   .            |          n: 2 0x53-0x53.7 (1)
    |                                               |                |          x[0:2]: 0x54-0x97.7 (68)
    |                                               |                |            [0]{}: code 0x54-0x6d.7 (26)
0x50|            19                                 |    .           |              size: 25 0x54-0x54.7 (1)
    |                                               |                |              code{}: 0x55-0x6d.7 (25)
    |                                               |                |                t{}: 0x55-0x55.7 (1)
0x50|               00                              |     .          |                  n: 0 0x55-0x55.7 (1)
    |                                               |                |                  x[0:0]: 0x56-NA (0)
    |                                               |                |                e[0:8]: 0x56-0x6d.7 (24)
    |                                               |                |                  [0]{}: in 0x56-0x5a.7 (5)
0x50|                  43                           |      C         |                    f32.const: 0x43 (valid) 0x56-0x56.7 (1)
0x50|                     be 9f aa 3f               |       ...?     |                    z: 1.3329999446868896 0x57-0x5a.7 (4)
    |                                               |                |                  [1]{}: in 0x5b-0x5f.7 (5)
0x50|                                 43            |           C    |                    f32.const: 0x43 (valid) 0x5b-0x5b.7 (1)
0x50|                                    cd cc 9c 3f|            ...?|                    z: 1.225000023841858 0x5c-0x5f.7 (4)
    |                                               |                |                  [2]{}: in 0x60-0x60.7 (1)
0x60|92                                             |.               |                    f32.add: 0x92 (valid) 0x60-0x60.7 (1)
    |                                               |                |                  [3]{}: in 0x61-0x65.7 (5)
0x60|   43                                          | C              |                    f32.const: 0x43 (valid) 0x61-0x61.7 (1)
0x60|      be 9f aa 3f                              |  ...?          |                    z: 1.3329999446868896 0x62-0x65.7 (4)
    |                                               |                |                  [4]{}: in 0x66-0x66.7 (1)
0x60|                  93                           |      .         |                    f32.sub: 0x93 (valid) 0x66-0x66.7 (1)
    |                                               |                |                  [5]{}: in 0x67-0x6b.7 (5)
0x60|                     43                        |       C        |                    f32.const: 0x43 (valid) 0x67-0x67.7 (1)
0x60|                        cd cc 9c 3f            |        ...?    |                    z: 1.225000023841858 0x68-0x6b.7 (4)
    |                                               |                |                  [6]{}: in 0x6c-0x6c.7 (1)
0x60|                                    93         |            .   |                    f32.sub: 0x93 (valid) 0x6c-0x6c.7 (1)
    |                                               |                |                  [7]{}: in 0x6d-0x6d.7 (1)
0x60|                                       0b      |             .  |                    end: 0xb (valid) 0x6d-0x6d.7 (1)
    |                                               |                |            [1]{}: code 0x6e-0x97.7 (42)
0x60|                                          29   |              ) |              size: 41 0x6e-0x6e.7 (1)
    |                                               |                |              code{}: 0x6f-0x97.7 (41)
    |                                               |                |                t{}: 0x6f-0x6f.7 (1)
0x60|                                             00|               .|                  n: 0 0x6f-0x6f.7 (1)
    |                                               |                |                  x[0:0]: 0x70-NA (0)
    |                                               |                |                e[0:8]: 0x70-0x97.7 (40)
    |                                               |                |                  [0]{}: in 0x70-0x78.7 (9)
0x70|44                                             |D               |                    f64.const: 0x44 (valid) 0x70-0x70.7 (1)
0x70|   87 16 d9 ce f7 53 f5 3f                     | .....S.?       |                    z: 1.333 0x71-0x78.7 (8)
    |                                               |                |                  [1]{}: in 0x79-0x81.7 (9)
0x70|                           44                  |         D      |                    f64.const: 0x44 (valid) 0x79-0x79.7 (1)
0x70|                              9a 99 99 99 99 99|          ......|                    z: 1.225 0x7a-0x81.7 (8)
0x80|f3 3f                                          |.?              |
    |                                               |                |                  [2]{}: in 0x82-0x82.7 (1)
0x80|      a0                                       |  .             |                    f64.add: 0xa0 (valid) 0x82-0x82.7 (1)
    |                                               |                |                  [3]{}: in 0x83-0x8b.7 (9)
0x80|         44                                    |   D            |                    f64.const: 0x44 (valid) 0x83-0x83.7 (1)
0x80|            87 16 d9 ce f7 53 f5 3f            |    .....S.?    |                    z: 1.333 0x84-0x8b.7 (8)
    |                                               |                |                  [4]{}: in 0x8c-0x8c.7 (1)
0x80|                                    a1         |            .   |                    f64.sub: 0xa1 (valid) 0x8c-0x8c.7 (1)
    |                                               |                |                  [5]{}: in 0x8d-0x95.7 (9)
0x80|                                       44      |             D  |                    f64.const: 0x44 (valid) 0x8d-0x8d.7 (1)
0x80|                                          9a 99|              ..|                    z: 1.225 0x8e-0x95.7 (8)
0x90|99 99 99 99 f3 3f                              |.....?          |
    |                                               |                |                  [6]{}: in 0x96-0x96.7 (1)
0x90|                  a1                           |      .         |                    f64.sub: 0xa1 (valid) 0x96-0x96.7 (1)
    |                                               |                |                  [7]{}: in 0x97-0x97.7 (1)
0x90|                     0b|                       |       .|       |                    end: 0xb (valid) 0x97-0x97.7 (1)
