$ fq -d wasm dv float_exprs-39.wasm
     |00 01 02 03 04 05 06 07 08 09 0a 0b 0c 0d 0e 0f|0123456789abcdef|.{}: float_exprs-39.wasm (wasm) 0x0-0x2df (735)
0x000|00 61 73 6d                                    |.asm            |  magic: raw bits (valid) 0x0-0x4 (4)
0x000|            01 00 00 00                        |    ....        |  version: 1 0x4-0x8 (4)
     |                                               |                |  sections[0:4]: 0x8-0x2df (727)
     |                                               |                |    [0]{}: section 0x8-0x15 (13)
0x000|                        01                     |        .       |      id: "type_section" (1) 0x8-0x9 (1)
0x000|                           0b                  |         .      |      size: 11 (valid) 0x9-0xa (1)
     |                                               |                |      content{}: 0xa-0x15 (11)
     |                                               |                |        ft{}: 0xa-0x15 (11)
0x000|                              02               |          .     |          n: 2 (valid) 0xa-0xb (1)
     |                                               |                |          x[0:2]: 0xb-0x15 (10)
     |                                               |                |            [0]{}: ft 0xb-0x10 (5)
0x000|                                 60            |           `    |              tag: 0x60 (valid) 0xb-0xc (1)
     |                                               |                |              rt1{}: 0xc-0xe (2)
0x000|                                    01         |            .   |                n: 1 (valid) 0xc-0xd (1)
     |                                               |                |                x[0:1]: 0xd-0xe (1)
0x000|                                       7d      |             }  |                  [0]: "f32" (0x7d) t 0xd-0xe (1)
     |                                               |                |              rt2{}: 0xe-0x10 (2)
0x000|                                          01   |              . |                n: 1 (valid) 0xe-0xf (1)
     |                                               |                |                x[0:1]: 0xf-0x10 (1)
0x000|                                             7d|               }|                  [0]: "f32" (0x7d) t 0xf-0x10 (1)
     |                                               |                |            [1]{}: ft 0x10-0x15 (5)
0x010|60                                             |`               |              tag: 0x60 (valid) 0x10-0x11 (1)
     |                                               |                |              rt1{}: 0x11-0x13 (2)
0x010|   01                                          | .              |                n: 1 (valid) 0x11-0x12 (1)
     |                                               |                |                x[0:1]: 0x12-0x13 (1)
0x010|      7c                                       |  |             |                  [0]: "f64" (0x7c) t 0x12-0x13 (1)
     |                                               |                |              rt2{}: 0x13-0x15 (2)
0x010|         01                                    |   .            |                n: 1 (valid) 0x13-0x14 (1)
     |                                               |                |                x[0:1]: 0x14-0x15 (1)
0x010|            7c                                 |    |           |                  [0]: "f64" (0x7c) t 0x14-0x15 (1)
     |                                               |                |    [1]{}: section 0x15-0x28 (19)
0x010|               03                              |     .          |      id: "function_section" (3) 0x15-0x16 (1)
0x010|                  11                           |      .         |      size: 17 (valid) 0x16-0x17 (1)
     |                                               |                |      content{}: 0x17-0x28 (17)
     |                                               |                |        x{}: 0x17-0x28 (17)
0x010|                     10                        |       .        |          n: 16 (valid) 0x17-0x18 (1)
     |                                               |                |          x[0:16]: 0x18-0x28 (16)
0x010|                        00                     |        .       |            [0]: 0 x (valid) 0x18-0x19 (1)
0x010|                           00                  |         .      |            [1]: 0 x (valid) 0x19-0x1a (1)
0x010|                              00               |          .     |            [2]: 0 x (valid) 0x1a-0x1b (1)
0x010|                                 00            |           .    |            [3]: 0 x (valid) 0x1b-0x1c (1)
0x010|                                    01         |            .   |            [4]: 1 x (valid) 0x1c-0x1d (1)
0x010|                                       01      |             .  |            [5]: 1 x (valid) 0x1d-0x1e (1)
0x010|                                          01   |              . |            [6]: 1 x (valid) 0x1e-0x1f (1)
0x010|                                             01|               .|            [7]: 1 x (valid) 0x1f-0x20 (1)
0x020|00                                             |.               |            [8]: 0 x (valid) 0x20-0x21 (1)
0x020|   00                                          | .              |            [9]: 0 x (valid) 0x21-0x22 (1)
0x020|      00                                       |  .             |            [10]: 0 x (valid) 0x22-0x23 (1)
0x020|         00                                    |   .            |            [11]: 0 x (valid) 0x23-0x24 (1)
0x020|            01                                 |    .           |            [12]: 1 x (valid) 0x24-0x25 (1)
0x020|               01                              |     .          |            [13]: 1 x (valid) 0x25-0x26 (1)
0x020|                  01                           |      .         |            [14]: 1 x (valid) 0x26-0x27 (1)
0x020|                     01                        |       .        |            [15]: 1 x (valid) 0x27-0x28 (1)
     |                                               |                |    [2]{}: section 0x28-0x26c (580)
0x020|                        07                     |        .       |      id: "export_section" (7) 0x28-0x29 (1)
0x020|                           c1 04               |         ..     |      size: 577 (valid) 0x29-0x2b (2)
     |                                               |                |      content{}: 0x2b-0x26c (577)
     |                                               |                |        ex{}: 0x2b-0x26c (577)
0x020|                                 10            |           .    |          n: 16 (valid) 0x2b-0x2c (1)
     |                                               |                |          x[0:16]: 0x2c-0x26c (576)
     |                                               |                |            [0]{}: ex 0x2c-0x50 (36)
     |                                               |                |              nm{}: 0x2c-0x4e (34)
0x020|                                    21         |            !   |                n: 33 (valid) 0x2c-0x2d (1)
0x020|                                       66 33 32|             f32|                b: "f32.i32.no_fold_trunc_s_convert_s" 0x2d-0x4e (33)
0x030|2e 69 33 32 2e 6e 6f 5f 66 6f 6c 64 5f 74 72 75|.i32.no_fold_tru|
0x040|6e 63 5f 73 5f 63 6f 6e 76 65 72 74 5f 73      |nc_s_convert_s  |
     |                                               |                |              d{}: 0x4e-0x50 (2)
0x040|                                          00   |              . |                tag: "funcidx" (0x0) 0x4e-0x4f (1)
0x040|                                             00|               .|                x: 0 (valid) 0x4f-0x50 (1)
     |                                               |                |            [1]{}: ex 0x50-0x74 (36)
     |                                               |                |              nm{}: 0x50-0x72 (34)
0x050|21                                             |!               |                n: 33 (valid) 0x50-0x51 (1)
0x050|   66 33 32 2e 69 33 32 2e 6e 6f 5f 66 6f 6c 64| f32.i32.no_fold|                b: "f32.i32.no_fold_trunc_u_convert_s" 0x51-0x72 (33)
0x060|5f 74 72 75 6e 63 5f 75 5f 63 6f 6e 76 65 72 74|_trunc_u_convert|
0x070|5f 73                                          |_s              |
     |                                               |                |              d{}: 0x72-0x74 (2)
0x070|      00                                       |  .             |                tag: "funcidx" (0x0) 0x72-0x73 (1)
0x070|         01                                    |   .            |                x: 1 (valid) 0x73-0x74 (1)
     |                                               |                |            [2]{}: ex 0x74-0x98 (36)
     |                                               |                |              nm{}: 0x74-0x96 (34)
0x070|            21                                 |    !           |                n: 33 (valid) 0x74-0x75 (1)
0x070|               66 33 32 2e 69 33 32 2e 6e 6f 5f|     f32.i32.no_|                b: "f32.i32.no_fold_trunc_s_convert_u" 0x75-0x96 (33)
0x080|66 6f 6c 64 5f 74 72 75 6e 63 5f 73 5f 63 6f 6e|fold_trunc_s_con|
0x090|76 65 72 74 5f 75                              |vert_u          |
     |                                               |                |              d{}: 0x96-0x98 (2)
0x090|                  00                           |      .         |                tag: "funcidx" (0x0) 0x96-0x97 (1)
0x090|                     02                        |       .        |                x: 2 (valid) 0x97-0x98 (1)
     |                                               |                |            [3]{}: ex 0x98-0xbc (36)
     |                                               |                |              nm{}: 0x98-0xba (34)
0x090|                        21                     |        !       |                n: 33 (valid) 0x98-0x99 (1)
0x090|                           66 33 32 2e 69 33 32|         f32.i32|                b: "f32.i32.no_fold_trunc_u_convert_u" 0x99-0xba (33)
0x0a0|2e 6e 6f 5f 66 6f 6c 64 5f 74 72 75 6e 63 5f 75|.no_fold_trunc_u|
0x0b0|5f 63 6f 6e 76 65 72 74 5f 75                  |_convert_u      |
     |                                               |                |              d{}: 0xba-0xbc (2)
0x0b0|                              00               |          .     |                tag: "funcidx" (0x0) 0xba-0xbb (1)
0x0b0|                                 03            |           .    |                x: 3 (valid) 0xbb-0xbc (1)
     |                                               |                |            [4]{}: ex 0xbc-0xe0 (36)
     |                                               |                |              nm{}: 0xbc-0xde (34)
0x0b0|                                    21         |            !   |                n: 33 (valid) 0xbc-0xbd (1)
0x0b0|                                       66 36 34|             f64|                b: "f64.i32.no_fold_trunc_s_convert_s" 0xbd-0xde (33)
0x0c0|2e 69 33 32 2e 6e 6f 5f 66 6f 6c 64 5f 74 72 75|.i32.no_fold_tru|
0x0d0|6e 63 5f 73 5f 63 6f 6e 76 65 72 74 5f 73      |nc_s_convert_s  |
     |                                               |                |              d{}: 0xde-0xe0 (2)
0x0d0|                                          00   |              . |                tag: "funcidx" (0x0) 0xde-0xdf (1)
0x0d0|                                             04|               .|                x: 4 (valid) 0xdf-0xe0 (1)
     |                                               |                |            [5]{}: ex 0xe0-0x104 (36)
     |                                               |                |              nm{}: 0xe0-0x102 (34)
0x0e0|21                                             |!               |                n: 33 (valid) 0xe0-0xe1 (1)
0x0e0|   66 36 34 2e 69 33 32 2e 6e 6f 5f 66 6f 6c 64| f64.i32.no_fold|                b: "f64.i32.no_fold_trunc_u_convert_s" 0xe1-0x102 (33)
0x0f0|5f 74 72 75 6e 63 5f 75 5f 63 6f 6e 76 65 72 74|_trunc_u_convert|
0x100|5f 73                                          |_s              |
     |                                               |                |              d{}: 0x102-0x104 (2)
0x100|      00                                       |  .             |                tag: "funcidx" (0x0) 0x102-0x103 (1)
0x100|         05                                    |   .            |                x: 5 (valid) 0x103-0x104 (1)
     |                                               |                |            [6]{}: ex 0x104-0x128 (36)
     |                                               |                |              nm{}: 0x104-0x126 (34)
0x100|            21                                 |    !           |                n: 33 (valid) 0x104-0x105 (1)
0x100|               66 36 34 2e 69 33 32 2e 6e 6f 5f|     f64.i32.no_|                b: "f64.i32.no_fold_trunc_s_convert_u" 0x105-0x126 (33)
0x110|66 6f 6c 64 5f 74 72 75 6e 63 5f 73 5f 63 6f 6e|fold_trunc_s_con|
0x120|76 65 72 74 5f 75                              |vert_u          |
     |                                               |                |              d{}: 0x126-0x128 (2)
0x120|                  00                           |      .         |                tag: "funcidx" (0x0) 0x126-0x127 (1)
0x120|                     06                        |       .        |                x: 6 (valid) 0x127-0x128 (1)
     |                                               |                |            [7]{}: ex 0x128-0x14c (36)
     |                                               |                |              nm{}: 0x128-0x14a (34)
0x120|                        21                     |        !       |                n: 33 (valid) 0x128-0x129 (1)
0x120|                           66 36 34 2e 69 33 32|         f64.i32|                b: "f64.i32.no_fold_trunc_u_convert_u" 0x129-0x14a (33)
0x130|2e 6e 6f 5f 66 6f 6c 64 5f 74 72 75 6e 63 5f 75|.no_fold_trunc_u|
0x140|5f 63 6f 6e 76 65 72 74 5f 75                  |_convert_u      |
     |                                               |                |              d{}: 0x14a-0x14c (2)
0x140|                              00               |          .     |                tag: "funcidx" (0x0) 0x14a-0x14b (1)
0x140|                                 07            |           .    |                x: 7 (valid) 0x14b-0x14c (1)
     |                                               |                |            [8]{}: ex 0x14c-0x170 (36)
     |                                               |                |              nm{}: 0x14c-0x16e (34)
0x140|                                    21         |            !   |                n: 33 (valid) 0x14c-0x14d (1)
0x140|                                       66 33 32|             f32|                b: "f32.i64.no_fold_trunc_s_convert_s" 0x14d-0x16e (33)
0x150|2e 69 36 34 2e 6e 6f 5f 66 6f 6c 64 5f 74 72 75|.i64.no_fold_tru|
0x160|6e 63 5f 73 5f 63 6f 6e 76 65 72 74 5f 73      |nc_s_convert_s  |
     |                                               |                |              d{}: 0x16e-0x170 (2)
0x160|                                          00   |              . |                tag: "funcidx" (0x0) 0x16e-0x16f (1)
0x160|                                             08|               .|                x: 8 (valid) 0x16f-0x170 (1)
     |                                               |                |            [9]{}: ex 0x170-0x194 (36)
     |                                               |                |              nm{}: 0x170-0x192 (34)
0x170|21                                             |!               |                n: 33 (valid) 0x170-0x171 (1)
0x170|   66 33 32 2e 69 36 34 2e 6e 6f 5f 66 6f 6c 64| f32.i64.no_fold|                b: "f32.i64.no_fold_trunc_u_convert_s" 0x171-0x192 (33)
0x180|5f 74 72 75 6e 63 5f 75 5f 63 6f 6e 76 65 72 74|_trunc_u_convert|
0x190|5f 73                                          |_s              |
     |                                               |                |              d{}: 0x192-0x194 (2)
0x190|      00                                       |  .             |                tag: "funcidx" (0x0) 0x192-0x193 (1)
0x190|         09                                    |   .            |                x: 9 (valid) 0x193-0x194 (1)
     |                                               |                |            [10]{}: ex 0x194-0x1b8 (36)
     |                                               |                |              nm{}: 0x194-0x1b6 (34)
0x190|            21                                 |    !           |                n: 33 (valid) 0x194-0x195 (1)
0x190|               66 33 32 2e 69 36 34 2e 6e 6f 5f|     f32.i64.no_|                b: "f32.i64.no_fold_trunc_s_convert_u" 0x195-0x1b6 (33)
0x1a0|66 6f 6c 64 5f 74 72 75 6e 63 5f 73 5f 63 6f 6e|fold_trunc_s_con|
0x1b0|76 65 72 74 5f 75                              |vert_u          |
     |                                               |                |              d{}: 0x1b6-0x1b8 (2)
0x1b0|                  00                           |      .         |                tag: "funcidx" (0x0) 0x1b6-0x1b7 (1)
0x1b0|                     0a                        |       .        |                x: 10 (valid) 0x1b7-0x1b8 (1)
     |                                               |                |            [11]{}: ex 0x1b8-0x1dc (36)
     |                                               |                |              nm{}: 0x1b8-0x1da (34)
0x1b0|                        21                     |        !       |                n: 33 (valid) 0x1b8-0x1b9 (1)
0x1b0|                           66 33 32 2e 69 36 34|         f32.i64|                b: "f32.i64.no_fold_trunc_u_convert_u" 0x1b9-0x1da (33)
0x1c0|2e 6e 6f 5f 66 6f 6c 64 5f 74 72 75 6e 63 5f 75|.no_fold_trunc_u|
0x1d0|5f 63 6f 6e 76 65 72 74 5f 75                  |_convert_u      |
     |                                               |                |              d{}: 0x1da-0x1dc (2)
0x1d0|                              00               |          .     |                tag: "funcidx" (0x0) 0x1da-0x1db (1)
0x1d0|                                 0b            |           .    |                x: 11 (valid) 0x1db-0x1dc (1)
     |                                               |                |            [12]{}: ex 0x1dc-0x200 (36)
     |                                               |                |              nm{}: 0x1dc-0x1fe (34)
0x1d0|                                    21         |            !   |                n: 33 (valid) 0x1dc-0x1dd (1)
0x1d0|                                       66 36 34|             f64|                b: "f64.i64.no_fold_trunc_s_convert_s" 0x1dd-0x1fe (33)
0x1e0|2e 69 36 34 2e 6e 6f 5f 66 6f 6c 64 5f 74 72 75|.i64.no_fold_tru|
0x1f0|6e 63 5f 73 5f 63 6f 6e 76 65 72 74 5f 73      |nc_s_convert_s  |
     |                                               |                |              d{}: 0x1fe-0x200 (2)
0x1f0|                                          00   |              . |                tag: "funcidx" (0x0) 0x1fe-0x1ff (1)
0x1f0|                                             0c|               .|                x: 12 (valid) 0x1ff-0x200 (1)
     |                                               |                |            [13]{}: ex 0x200-0x224 (36)
     |                                               |                |              nm{}: 0x200-0x222 (34)
0x200|21                                             |!               |                n: 33 (valid) 0x200-0x201 (1)
0x200|   66 36 34 2e 69 36 34 2e 6e 6f 5f 66 6f 6c 64| f64.i64.no_fold|                b: "f64.i64.no_fold_trunc_u_convert_s" 0x201-0x222 (33)
0x210|5f 74 72 75 6e 63 5f 75 5f 63 6f 6e 76 65 72 74|_trunc_u_convert|
0x220|5f 73                                          |_s              |
     |                                               |                |              d{}: 0x222-0x224 (2)
0x220|      00                                       |  .             |                tag: "funcidx" (0x0) 0x222-0x223 (1)
0x220|         0d                                    |   .            |                x: 13 (valid) 0x223-0x224 (1)
     |                                               |                |            [14]{}: ex 0x224-0x248 (36)
     |                                               |                |              nm{}: 0x224-0x246 (34)
0x220|            21                                 |    !           |                n: 33 (valid) 0x224-0x225 (1)
0x220|               66 36 34 2e 69 36 34 2e 6e 6f 5f|     f64.i64.no_|                b: "f64.i64.no_fold_trunc_s_convert_u" 0x225-0x246 (33)
0x230|66 6f 6c 64 5f 74 72 75 6e 63 5f 73 5f 63 6f 6e|fold_trunc_s_con|
0x240|76 65 72 74 5f 75                              |vert_u          |
     |                                               |                |              d{}: 0x246-0x248 (2)
0x240|                  00                           |      .         |                tag: "funcidx" (0x0) 0x246-0x247 (1)
0x240|                     0e                        |       .        |                x: 14 (valid) 0x247-0x248 (1)
     |                                               |                |            [15]{}: ex 0x248-0x26c (36)
     |                                               |                |              nm{}: 0x248-0x26a (34)
0x240|                        21                     |        !       |                n: 33 (valid) 0x248-0x249 (1)
0x240|                           66 36 34 2e 69 36 34|         f64.i64|                b: "f64.i64.no_fold_trunc_u_convert_u" 0x249-0x26a (33)
0x250|2e 6e 6f 5f 66 6f 6c 64 5f 74 72 75 6e 63 5f 75|.no_fold_trunc_u|
0x260|5f 63 6f 6e 76 65 72 74 5f 75                  |_convert_u      |
     |                                               |                |              d{}: 0x26a-0x26c (2)
0x260|                              00               |          .     |                tag: "funcidx" (0x0) 0x26a-0x26b (1)
0x260|                                 0f            |           .    |                x: 15 (valid) 0x26b-0x26c (1)
     |                                               |                |    [3]{}: section 0x26c-0x2df (115)
0x260|                                    0a         |            .   |      id: "code_section" (10) 0x26c-0x26d (1)
0x260|                                       71      |             q  |      size: 113 (valid) 0x26d-0x26e (1)
     |                                               |                |      content{}: 0x26e-0x2df (113)
     |                                               |                |        code{}: 0x26e-0x2df (113)
0x260|                                          10   |              . |          n: 16 (valid) 0x26e-0x26f (1)
     |                                               |                |          x[0:16]: 0x26f-0x2df (112)
     |                                               |                |            [0]{}: code 0x26f-0x276 (7)
0x260|                                             06|               .|              size: 6 (valid) 0x26f-0x270 (1)
     |                                               |                |              code{}: 0x270-0x276 (6)
     |                                               |                |                t{}: 0x270-0x271 (1)
0x270|00                                             |.               |                  n: 0 (valid) 0x270-0x271 (1)
     |                                               |                |                  x[0:0]: 0x271-0x271 (0)
     |                                               |                |                e[0:4]: 0x271-0x276 (5)
     |                                               |                |                  [0]{}: in 0x271-0x273 (2)
0x270|   20                                          |                |                    opcode: "local.get" (0x20) 0x271-0x272 (1)
0x270|      00                                       |  .             |                    x: 0 (valid) 0x272-0x273 (1)
     |                                               |                |                  [1]{}: in 0x273-0x274 (1)
0x270|         a8                                    |   .            |                    opcode: "i32.trunc_f32_s" (0xa8) 0x273-0x274 (1)
     |                                               |                |                  [2]{}: in 0x274-0x275 (1)
0x270|            b2                                 |    .           |                    opcode: "f32.convert_i32_s" (0xb2) 0x274-0x275 (1)
     |                                               |                |                  [3]{}: in 0x275-0x276 (1)
0x270|               0b                              |     .          |                    opcode: "end" (0xb) 0x275-0x276 (1)
     |                                               |                |            [1]{}: code 0x276-0x27d (7)
0x270|                  06                           |      .         |              size: 6 (valid) 0x276-0x277 (1)
     |                                               |                |              code{}: 0x277-0x27d (6)
     |                                               |                |                t{}: 0x277-0x278 (1)
0x270|                     00                        |       .        |                  n: 0 (valid) 0x277-0x278 (1)
     |                                               |                |                  x[0:0]: 0x278-0x278 (0)
     |                                               |                |                e[0:4]: 0x278-0x27d (5)
     |                                               |                |                  [0]{}: in 0x278-0x27a (2)
0x270|                        20                     |                |                    opcode: "local.get" (0x20) 0x278-0x279 (1)
0x270|                           00                  |         .      |                    x: 0 (valid) 0x279-0x27a (1)
     |                                               |                |                  [1]{}: in 0x27a-0x27b (1)
0x270|                              a9               |          .     |                    opcode: "i32.trunc_f32_u" (0xa9) 0x27a-0x27b (1)
     |                                               |                |                  [2]{}: in 0x27b-0x27c (1)
0x270|                                 b2            |           .    |                    opcode: "f32.convert_i32_s" (0xb2) 0x27b-0x27c (1)
     |                                               |                |                  [3]{}: in 0x27c-0x27d (1)
0x270|                                    0b         |            .   |                    opcode: "end" (0xb) 0x27c-0x27d (1)
     |                                               |                |            [2]{}: code 0x27d-0x284 (7)
0x270|                                       06      |             .  |              size: 6 (valid) 0x27d-0x27e (1)
     |                                               |                |              code{}: 0x27e-0x284 (6)
     |                                               |                |                t{}: 0x27e-0x27f (1)
0x270|                                          00   |              . |                  n: 0 (valid) 0x27e-0x27f (1)
     |                                               |                |                  x[0:0]: 0x27f-0x27f (0)
     |                                               |                |                e[0:4]: 0x27f-0x284 (5)
     |                                               |                |                  [0]{}: in 0x27f-0x281 (2)
0x270|                                             20|                |                    opcode: "local.get" (0x20) 0x27f-0x280 (1)
0x280|00                                             |.               |                    x: 0 (valid) 0x280-0x281 (1)
     |                                               |                |                  [1]{}: in 0x281-0x282 (1)
0x280|   a8                                          | .              |                    opcode: "i32.trunc_f32_s" (0xa8) 0x281-0x282 (1)
     |                                               |                |                  [2]{}: in 0x282-0x283 (1)
0x280|      b3                                       |  .             |                    opcode: "f32.convert_i32_u" (0xb3) 0x282-0x283 (1)
     |                                               |                |                  [3]{}: in 0x283-0x284 (1)
0x280|         0b                                    |   .            |                    opcode: "end" (0xb) 0x283-0x284 (1)
     |                                               |                |            [3]{}: code 0x284-0x28b (7)
0x280|            06                                 |    .           |              size: 6 (valid) 0x284-0x285 (1)
     |                                               |                |              code{}: 0x285-0x28b (6)
     |                                               |                |                t{}: 0x285-0x286 (1)
0x280|               00                              |     .          |                  n: 0 (valid) 0x285-0x286 (1)
     |                                               |                |                  x[0:0]: 0x286-0x286 (0)
     |                                               |                |                e[0:4]: 0x286-0x28b (5)
     |                                               |                |                  [0]{}: in 0x286-0x288 (2)
0x280|                  20                           |                |                    opcode: "local.get" (0x20) 0x286-0x287 (1)
0x280|                     00                        |       .        |                    x: 0 (valid) 0x287-0x288 (1)
     |                                               |                |                  [1]{}: in 0x288-0x289 (1)
0x280|                        a9                     |        .       |                    opcode: "i32.trunc_f32_u" (0xa9) 0x288-0x289 (1)
     |                                               |                |                  [2]{}: in 0x289-0x28a (1)
0x280|                           b3                  |         .      |                    opcode: "f32.convert_i32_u" (0xb3) 0x289-0x28a (1)
     |                                               |                |                  [3]{}: in 0x28a-0x28b (1)
0x280|                              0b               |          .     |                    opcode: "end" (0xb) 0x28a-0x28b (1)
     |                                               |                |            [4]{}: code 0x28b-0x292 (7)
0x280|                                 06            |           .    |              size: 6 (valid) 0x28b-0x28c (1)
     |                                               |                |              code{}: 0x28c-0x292 (6)
     |                                               |                |                t{}: 0x28c-0x28d (1)
0x280|                                    00         |            .   |                  n: 0 (valid) 0x28c-0x28d (1)
     |                                               |                |                  x[0:0]: 0x28d-0x28d (0)
     |                                               |                |                e[0:4]: 0x28d-0x292 (5)
     |                                               |                |                  [0]{}: in 0x28d-0x28f (2)
0x280|                                       20      |                |                    opcode: "local.get" (0x20) 0x28d-0x28e (1)
0x280|                                          00   |              . |                    x: 0 (valid) 0x28e-0x28f (1)
     |                                               |                |                  [1]{}: in 0x28f-0x290 (1)
0x280|                                             aa|               .|                    opcode: "i32.trunc_f64_s" (0xaa) 0x28f-0x290 (1)
     |                                               |                |                  [2]{}: in 0x290-0x291 (1)
0x290|b7                                             |.               |                    opcode: "f64.convert_i32_s" (0xb7) 0x290-0x291 (1)
     |                                               |                |                  [3]{}: in 0x291-0x292 (1)
0x290|   0b                                          | .              |                    opcode: "end" (0xb) 0x291-0x292 (1)
     |                                               |                |            [5]{}: code 0x292-0x299 (7)
0x290|      06                                       |  .             |              size: 6 (valid) 0x292-0x293 (1)
     |                                               |                |              code{}: 0x293-0x299 (6)
     |                                               |                |                t{}: 0x293-0x294 (1)
0x290|         00                                    |   .            |                  n: 0 (valid) 0x293-0x294 (1)
     |                                               |                |                  x[0:0]: 0x294-0x294 (0)
     |                                               |                |                e[0:4]: 0x294-0x299 (5)
     |                                               |                |                  [0]{}: in 0x294-0x296 (2)
0x290|            20                                 |                |                    opcode: "local.get" (0x20) 0x294-0x295 (1)
0x290|               00                              |     .          |                    x: 0 (valid) 0x295-0x296 (1)
     |                                               |                |                  [1]{}: in 0x296-0x297 (1)
0x290|                  ab                           |      .         |                    opcode: "i32.trunc_f64_u" (0xab) 0x296-0x297 (1)
     |                                               |                |                  [2]{}: in 0x297-0x298 (1)
0x290|                     b7                        |       .        |                    opcode: "f64.convert_i32_s" (0xb7) 0x297-0x298 (1)
     |                                               |                |                  [3]{}: in 0x298-0x299 (1)
0x290|                        0b                     |        .       |                    opcode: "end" (0xb) 0x298-0x299 (1)
     |                                               |                |            [6]{}: code 0x299-0x2a0 (7)
0x290|                           06                  |         .      |              size: 6 (valid) 0x299-0x29a (1)
     |                                               |                |              code{}: 0x29a-0x2a0 (6)
     |                                               |                |                t{}: 0x29a-0x29b (1)
0x290|                              00               |          .     |                  n: 0 (valid) 0x29a-0x29b (1)
     |                                               |                |                  x[0:0]: 0x29b-0x29b (0)
     |                                               |                |                e[0:4]: 0x29b-0x2a0 (5)
     |                                               |                |                  [0]{}: in 0x29b-0x29d (2)
0x290|                                 20            |                |                    opcode: "local.get" (0x20) 0x29b-0x29c (1)
0x290|                                    00         |            .   |                    x: 0 (valid) 0x29c-0x29d (1)
     |                                               |                |                  [1]{}: in 0x29d-0x29e (1)
0x290|                                       aa      |             .  |                    opcode: "i32.trunc_f64_s" (0xaa) 0x29d-0x29e (1)
     |                                               |                |                  [2]{}: in 0x29e-0x29f (1)
0x290|                                          b8   |              . |                    opcode: "f64.convert_i32_u" (0xb8) 0x29e-0x29f (1)
     |                                               |                |                  [3]{}: in 0x29f-0x2a0 (1)
0x290|                                             0b|               .|                    opcode: "end" (0xb) 0x29f-0x2a0 (1)
     |                                               |                |            [7]{}: code 0x2a0-0x2a7 (7)
0x2a0|06                                             |.               |              size: 6 (valid) 0x2a0-0x2a1 (1)
     |                                               |                |              code{}: 0x2a1-0x2a7 (6)
     |                                               |                |                t{}: 0x2a1-0x2a2 (1)
0x2a0|   00                                          | .              |                  n: 0 (valid) 0x2a1-0x2a2 (1)
     |                                               |                |                  x[0:0]: 0x2a2-0x2a2 (0)
     |                                               |                |                e[0:4]: 0x2a2-0x2a7 (5)
     |                                               |                |                  [0]{}: in 0x2a2-0x2a4 (2)
0x2a0|      20                                       |                |                    opcode: "local.get" (0x20) 0x2a2-0x2a3 (1)
0x2a0|         00                                    |   .            |                    x: 0 (valid) 0x2a3-0x2a4 (1)
     |                                               |                |                  [1]{}: in 0x2a4-0x2a5 (1)
0x2a0|            ab                                 |    .           |                    opcode: "i32.trunc_f64_u" (0xab) 0x2a4-0x2a5 (1)
     |                                               |                |                  [2]{}: in 0x2a5-0x2a6 (1)
0x2a0|               b8                              |     .          |                    opcode: "f64.convert_i32_u" (0xb8) 0x2a5-0x2a6 (1)
     |                                               |                |                  [3]{}: in 0x2a6-0x2a7 (1)
0x2a0|                  0b                           |      .         |                    opcode: "end" (0xb) 0x2a6-0x2a7 (1)
     |                                               |                |            [8]{}: code 0x2a7-0x2ae (7)
0x2a0|                     06                        |       .        |              size: 6 (valid) 0x2a7-0x2a8 (1)
     |                                               |                |              code{}: 0x2a8-0x2ae (6)
     |                                               |                |                t{}: 0x2a8-0x2a9 (1)
0x2a0|                        00                     |        .       |                  n: 0 (valid) 0x2a8-0x2a9 (1)
     |                                               |                |                  x[0:0]: 0x2a9-0x2a9 (0)
     |                                               |                |                e[0:4]: 0x2a9-0x2ae (5)
     |                                               |                |                  [0]{}: in 0x2a9-0x2ab (2)
0x2a0|                           20                  |                |                    opcode: "local.get" (0x20) 0x2a9-0x2aa (1)
0x2a0|                              00               |          .     |                    x: 0 (valid) 0x2aa-0x2ab (1)
     |                                               |                |                  [1]{}: in 0x2ab-0x2ac (1)
0x2a0|                                 ae            |           .    |                    opcode: "i64.trunc_f32_s" (0xae) 0x2ab-0x2ac (1)
     |                                               |                |                  [2]{}: in 0x2ac-0x2ad (1)
0x2a0|                                    b4         |            .   |                    opcode: "f32.convert_i64_s" (0xb4) 0x2ac-0x2ad (1)
     |                                               |                |                  [3]{}: in 0x2ad-0x2ae (1)
0x2a0|                                       0b      |             .  |                    opcode: "end" (0xb) 0x2ad-0x2ae (1)
     |                                               |                |            [9]{}: code 0x2ae-0x2b5 (7)
0x2a0|                                          06   |              . |              size: 6 (valid) 0x2ae-0x2af (1)
     |                                               |                |              code{}: 0x2af-0x2b5 (6)
     |                                               |                |                t{}: 0x2af-0x2b0 (1)
0x2a0|                                             00|               .|                  n: 0 (valid) 0x2af-0x2b0 (1)
     |                                               |                |                  x[0:0]: 0x2b0-0x2b0 (0)
     |                                               |                |                e[0:4]: 0x2b0-0x2b5 (5)
     |                                               |                |                  [0]{}: in 0x2b0-0x2b2 (2)
0x2b0|20                                             |                |                    opcode: "local.get" (0x20) 0x2b0-0x2b1 (1)
0x2b0|   00                                          | .              |                    x: 0 (valid) 0x2b1-0x2b2 (1)
     |                                               |                |                  [1]{}: in 0x2b2-0x2b3 (1)
0x2b0|      af                                       |  .             |                    opcode: "i64.trunc_f32_u" (0xaf) 0x2b2-0x2b3 (1)
     |                                               |                |                  [2]{}: in 0x2b3-0x2b4 (1)
0x2b0|         b4                                    |   .            |                    opcode: "f32.convert_i64_s" (0xb4) 0x2b3-0x2b4 (1)
     |                                               |                |                  [3]{}: in 0x2b4-0x2b5 (1)
0x2b0|            0b                                 |    .           |                    opcode: "end" (0xb) 0x2b4-0x2b5 (1)
     |                                               |                |            [10]{}: code 0x2b5-0x2bc (7)
0x2b0|               06                              |     .          |              size: 6 (valid) 0x2b5-0x2b6 (1)
     |                                               |                |              code{}: 0x2b6-0x2bc (6)
     |                                               |                |                t{}: 0x2b6-0x2b7 (1)
0x2b0|                  00                           |      .         |                  n: 0 (valid) 0x2b6-0x2b7 (1)
     |                                               |                |                  x[0:0]: 0x2b7-0x2b7 (0)
     |                                               |                |                e[0:4]: 0x2b7-0x2bc (5)
     |                                               |                |                  [0]{}: in 0x2b7-0x2b9 (2)
0x2b0|                     20                        |                |                    opcode: "local.get" (0x20) 0x2b7-0x2b8 (1)
0x2b0|                        00                     |        .       |                    x: 0 (valid) 0x2b8-0x2b9 (1)
     |                                               |                |                  [1]{}: in 0x2b9-0x2ba (1)
0x2b0|                           ae                  |         .      |                    opcode: "i64.trunc_f32_s" (0xae) 0x2b9-0x2ba (1)
     |                                               |                |                  [2]{}: in 0x2ba-0x2bb (1)
0x2b0|                              b5               |          .     |                    opcode: "f32.convert_i64_u" (0xb5) 0x2ba-0x2bb (1)
     |                                               |                |                  [3]{}: in 0x2bb-0x2bc (1)
0x2b0|                                 0b            |           .    |                    opcode: "end" (0xb) 0x2bb-0x2bc (1)
     |                                               |                |            [11]{}: code 0x2bc-0x2c3 (7)
0x2b0|                                    06         |            .   |              size: 6 (valid) 0x2bc-0x2bd (1)
     |                                               |                |              code{}: 0x2bd-0x2c3 (6)
     |                                               |                |                t{}: 0x2bd-0x2be (1)
0x2b0|                                       00      |             .  |                  n: 0 (valid) 0x2bd-0x2be (1)
     |                                               |                |                  x[0:0]: 0x2be-0x2be (0)
     |                                               |                |                e[0:4]: 0x2be-0x2c3 (5)
     |                                               |                |                  [0]{}: in 0x2be-0x2c0 (2)
0x2b0|                                          20   |                |                    opcode: "local.get" (0x20) 0x2be-0x2bf (1)
0x2b0|                                             00|               .|                    x: 0 (valid) 0x2bf-0x2c0 (1)
     |                                               |                |                  [1]{}: in 0x2c0-0x2c1 (1)
0x2c0|af                                             |.               |                    opcode: "i64.trunc_f32_u" (0xaf) 0x2c0-0x2c1 (1)
     |                                               |                |                  [2]{}: in 0x2c1-0x2c2 (1)
0x2c0|   b5                                          | .              |                    opcode: "f32.convert_i64_u" (0xb5) 0x2c1-0x2c2 (1)
     |                                               |                |                  [3]{}: in 0x2c2-0x2c3 (1)
0x2c0|      0b                                       |  .             |                    opcode: "end" (0xb) 0x2c2-0x2c3 (1)
     |                                               |                |            [12]{}: code 0x2c3-0x2ca (7)
0x2c0|         06                                    |   .            |              size: 6 (valid) 0x2c3-0x2c4 (1)
     |                                               |                |              code{}: 0x2c4-0x2ca (6)
     |                                               |                |                t{}: 0x2c4-0x2c5 (1)
0x2c0|            00                                 |    .           |                  n: 0 (valid) 0x2c4-0x2c5 (1)
     |                                               |                |                  x[0:0]: 0x2c5-0x2c5 (0)
     |                                               |                |                e[0:4]: 0x2c5-0x2ca (5)
     |                                               |                |                  [0]{}: in 0x2c5-0x2c7 (2)
0x2c0|               20                              |                |                    opcode: "local.get" (0x20) 0x2c5-0x2c6 (1)
0x2c0|                  00                           |      .         |                    x: 0 (valid) 0x2c6-0x2c7 (1)
     |                                               |                |                  [1]{}: in 0x2c7-0x2c8 (1)
0x2c0|                     b0                        |       .        |                    opcode: "i64.trunc_f64_s" (0xb0) 0x2c7-0x2c8 (1)
     |                                               |                |                  [2]{}: in 0x2c8-0x2c9 (1)
0x2c0|                        b9                     |        .       |                    opcode: "f64.convert_i64_s" (0xb9) 0x2c8-0x2c9 (1)
     |                                               |                |                  [3]{}: in 0x2c9-0x2ca (1)
0x2c0|                           0b                  |         .      |                    opcode: "end" (0xb) 0x2c9-0x2ca (1)
     |                                               |                |            [13]{}: code 0x2ca-0x2d1 (7)
0x2c0|                              06               |          .     |              size: 6 (valid) 0x2ca-0x2cb (1)
     |                                               |                |              code{}: 0x2cb-0x2d1 (6)
     |                                               |                |                t{}: 0x2cb-0x2cc (1)
0x2c0|                                 00            |           .    |                  n: 0 (valid) 0x2cb-0x2cc (1)
     |                                               |                |                  x[0:0]: 0x2cc-0x2cc (0)
     |                                               |                |                e[0:4]: 0x2cc-0x2d1 (5)
     |                                               |                |                  [0]{}: in 0x2cc-0x2ce (2)
0x2c0|                                    20         |                |                    opcode: "local.get" (0x20) 0x2cc-0x2cd (1)
0x2c0|                                       00      |             .  |                    x: 0 (valid) 0x2cd-0x2ce (1)
     |                                               |                |                  [1]{}: in 0x2ce-0x2cf (1)
0x2c0|                                          b1   |              . |                    opcode: "i64.trunc_f64_u" (0xb1) 0x2ce-0x2cf (1)
     |                                               |                |                  [2]{}: in 0x2cf-0x2d0 (1)
0x2c0|                                             b9|               .|                    opcode: "f64.convert_i64_s" (0xb9) 0x2cf-0x2d0 (1)
     |                                               |                |                  [3]{}: in 0x2d0-0x2d1 (1)
0x2d0|0b                                             |.               |                    opcode: "end" (0xb) 0x2d0-0x2d1 (1)
     |                                               |                |            [14]{}: code 0x2d1-0x2d8 (7)
0x2d0|   06                                          | .              |              size: 6 (valid) 0x2d1-0x2d2 (1)
     |                                               |                |              code{}: 0x2d2-0x2d8 (6)
     |                                               |                |                t{}: 0x2d2-0x2d3 (1)
0x2d0|      00                                       |  .             |                  n: 0 (valid) 0x2d2-0x2d3 (1)
     |                                               |                |                  x[0:0]: 0x2d3-0x2d3 (0)
     |                                               |                |                e[0:4]: 0x2d3-0x2d8 (5)
     |                                               |                |                  [0]{}: in 0x2d3-0x2d5 (2)
0x2d0|         20                                    |                |                    opcode: "local.get" (0x20) 0x2d3-0x2d4 (1)
0x2d0|            00                                 |    .           |                    x: 0 (valid) 0x2d4-0x2d5 (1)
     |                                               |                |                  [1]{}: in 0x2d5-0x2d6 (1)
0x2d0|               b0                              |     .          |                    opcode: "i64.trunc_f64_s" (0xb0) 0x2d5-0x2d6 (1)
     |                                               |                |                  [2]{}: in 0x2d6-0x2d7 (1)
0x2d0|                  ba                           |      .         |                    opcode: "f64.convert_i64_u" (0xba) 0x2d6-0x2d7 (1)
     |                                               |                |                  [3]{}: in 0x2d7-0x2d8 (1)
0x2d0|                     0b                        |       .        |                    opcode: "end" (0xb) 0x2d7-0x2d8 (1)
     |                                               |                |            [15]{}: code 0x2d8-0x2df (7)
0x2d0|                        06                     |        .       |              size: 6 (valid) 0x2d8-0x2d9 (1)
     |                                               |                |              code{}: 0x2d9-0x2df (6)
     |                                               |                |                t{}: 0x2d9-0x2da (1)
0x2d0|                           00                  |         .      |                  n: 0 (valid) 0x2d9-0x2da (1)
     |                                               |                |                  x[0:0]: 0x2da-0x2da (0)
     |                                               |                |                e[0:4]: 0x2da-0x2df (5)
     |                                               |                |                  [0]{}: in 0x2da-0x2dc (2)
0x2d0|                              20               |                |                    opcode: "local.get" (0x20) 0x2da-0x2db (1)
0x2d0|                                 00            |           .    |                    x: 0 (valid) 0x2db-0x2dc (1)
     |                                               |                |                  [1]{}: in 0x2dc-0x2dd (1)
0x2d0|                                    b1         |            .   |                    opcode: "i64.trunc_f64_u" (0xb1) 0x2dc-0x2dd (1)
     |                                               |                |                  [2]{}: in 0x2dd-0x2de (1)
0x2d0|                                       ba      |             .  |                    opcode: "f64.convert_i64_u" (0xba) 0x2dd-0x2de (1)
     |                                               |                |                  [3]{}: in 0x2de-0x2df (1)
0x2d0|                                          0b|  |              .||                    opcode: "end" (0xb) 0x2de-0x2df (1)
