$ fq -d wasm dv float_exprs-92.wasm
    |00 01 02 03 04 05 06 07 08 09 0a 0b 0c 0d 0e 0f|0123456789abcdef|.{}: float_exprs-92.wasm (wasm) 0x0-0x7d.7 (126)
0x00|00 61 73 6d                                    |.asm            |  magic: raw bits (valid) 0x0-0x3.7 (4)
0x00|            01 00 00 00                        |    ....        |  version: 1 0x4-0x7.7 (4)
    |                                               |                |  sections[0:4]: 0x8-0x7d.7 (118)
    |                                               |                |    [0]{}: section 0x8-0x14.7 (13)
0x00|                        01                     |        .       |      id: "type section" (1) 0x8-0x8.7 (1)
0x00|                           0b                  |         .      |      size: 11 0x9-0x9.7 (1)
    |                                               |                |      content{}: 0xa-0x14.7 (11)
    |                                               |                |        ft{}: 0xa-0x14.7 (11)
0x00|                              02               |          .     |          n: 2 0xa-0xa.7 (1)
    |                                               |                |          x[0:2]: 0xb-0x14.7 (10)
    |                                               |                |            [0]{}: ft 0xb-0xf.7 (5)
0x00|                                 60            |           `    |              tag: 0x60 (valid) 0xb-0xb.7 (1)
    |                                               |                |              rt1{}: 0xc-0xd.7 (2)
0x00|                                    01         |            .   |                n: 1 0xc-0xc.7 (1)
    |                                               |                |                x[0:1]: 0xd-0xd.7 (1)
0x00|                                       7d      |             }  |                  [0]: "f32" (0x7d) t 0xd-0xd.7 (1)
    |                                               |                |              rt2{}: 0xe-0xf.7 (2)
0x00|                                          01   |              . |                n: 1 0xe-0xe.7 (1)
    |                                               |                |                x[0:1]: 0xf-0xf.7 (1)
0x00|                                             7d|               }|                  [0]: "f32" (0x7d) t 0xf-0xf.7 (1)
    |                                               |                |            [1]{}: ft 0x10-0x14.7 (5)
0x10|60                                             |`               |              tag: 0x60 (valid) 0x10-0x10.7 (1)
    |                                               |                |              rt1{}: 0x11-0x12.7 (2)
0x10|   01                                          | .              |                n: 1 0x11-0x11.7 (1)
    |                                               |                |                x[0:1]: 0x12-0x12.7 (1)
0x10|      7c                                       |  |             |                  [0]: "f64" (0x7c) t 0x12-0x12.7 (1)
    |                                               |                |              rt2{}: 0x13-0x14.7 (2)
0x10|         01                                    |   .            |                n: 1 0x13-0x13.7 (1)
    |                                               |                |                x[0:1]: 0x14-0x14.7 (1)
0x10|            7c                                 |    |           |                  [0]: "f64" (0x7c) t 0x14-0x14.7 (1)
    |                                               |                |    [1]{}: section 0x15-0x19.7 (5)
0x10|               03                              |     .          |      id: "function section" (3) 0x15-0x15.7 (1)
0x10|                  03                           |      .         |      size: 3 0x16-0x16.7 (1)
    |                                               |                |      content{}: 0x17-0x19.7 (3)
    |                                               |                |        x{}: 0x17-0x19.7 (3)
0x10|                     02                        |       .        |          n: 2 0x17-0x17.7 (1)
    |                                               |                |          x[0:2]: 0x18-0x19.7 (2)
0x10|                        00                     |        .       |            [0]: 0 x 0x18-0x18.7 (1)
0x10|                           01                  |         .      |            [1]: 1 x 0x19-0x19.7 (1)
    |                                               |                |    [2]{}: section 0x1a-0x42.7 (41)
0x10|                              07               |          .     |      id: "export section" (7) 0x1a-0x1a.7 (1)
0x10|                                 27            |           '    |      size: 39 0x1b-0x1b.7 (1)
    |                                               |                |      content{}: 0x1c-0x42.7 (39)
    |                                               |                |        ex{}: 0x1c-0x42.7 (39)
0x10|                                    02         |            .   |          n: 2 0x1c-0x1c.7 (1)
    |                                               |                |          x[0:2]: 0x1d-0x42.7 (38)
    |                                               |                |            [0]{}: ex 0x1d-0x2f.7 (19)
    |                                               |                |              nm{}: 0x1d-0x2d.7 (17)
0x10|                                       10      |             .  |                n: 16 0x1d-0x1d.7 (1)
0x10|                                          66 33|              f3|                b: "f32.silver_means" 0x1e-0x2d.7 (16)
0x20|32 2e 73 69 6c 76 65 72 5f 6d 65 61 6e 73      |2.silver_means  |
    |                                               |                |              d{}: 0x2e-0x2f.7 (2)
0x20|                                          00   |              . |                tag: "funcidx" (0x0) 0x2e-0x2e.7 (1)
0x20|                                             00|               .|                x: 0 0x2f-0x2f.7 (1)
    |                                               |                |            [1]{}: ex 0x30-0x42.7 (19)
    |                                               |                |              nm{}: 0x30-0x40.7 (17)
0x30|10                                             |.               |                n: 16 0x30-0x30.7 (1)
0x30|   66 36 34 2e 73 69 6c 76 65 72 5f 6d 65 61 6e| f64.silver_mean|                b: "f64.silver_means" 0x31-0x40.7 (16)
0x40|73                                             |s               |
    |                                               |                |              d{}: 0x41-0x42.7 (2)
0x40|   00                                          | .              |                tag: "funcidx" (0x0) 0x41-0x41.7 (1)
0x40|      01                                       |  .             |                x: 1 0x42-0x42.7 (1)
    |                                               |                |    [3]{}: section 0x43-0x7d.7 (59)
0x40|         0a                                    |   .            |      id: "code section" (10) 0x43-0x43.7 (1)
0x40|            39                                 |    9           |      size: 57 0x44-0x44.7 (1)
    |                                               |                |      content{}: 0x45-0x7d.7 (57)
    |                                               |                |        code{}: 0x45-0x7d.7 (57)
0x40|               02                              |     .          |          n: 2 0x45-0x45.7 (1)
    |                                               |                |          x[0:2]: 0x46-0x7d.7 (56)
    |                                               |                |            [0]{}: code 0x46-0x5d.7 (24)
0x40|                  17                           |      .         |              size: 23 0x46-0x46.7 (1)
    |                                               |                |              code{}: 0x47-0x5d.7 (23)
    |                                               |                |                t{}: 0x47-0x47.7 (1)
0x40|                     00                        |       .        |                  n: 0 0x47-0x47.7 (1)
    |                                               |                |                  x[0:0]: 0x48-NA (0)
    |                                               |                |                e[0:11]: 0x48-0x5d.7 (22)
    |                                               |                |                  [0]{}: in 0x48-0x4c.7 (5)
0x40|                        43                     |        C       |                    f32.const: 0x43 (valid) 0x48-0x48.7 (1)
0x40|                           00 00 00 3f         |         ...?   |                    z: 0.5 0x49-0x4c.7 (4)
    |                                               |                |                  [1]{}: in 0x4d-0x4e.7 (2)
0x40|                                       20      |                |                    local.get: 0x20 (valid) 0x4d-0x4d.7 (1)
0x40|                                          00   |              . |                    x: 0 0x4e-0x4e.7 (1)
    |                                               |                |                  [2]{}: in 0x4f-0x50.7 (2)
0x40|                                             20|                |                    local.get: 0x20 (valid) 0x4f-0x4f.7 (1)
0x50|00                                             |.               |                    x: 0 0x50-0x50.7 (1)
    |                                               |                |                  [3]{}: in 0x51-0x52.7 (2)
0x50|   20                                          |                |                    local.get: 0x20 (valid) 0x51-0x51.7 (1)
0x50|      00                                       |  .             |                    x: 0 0x52-0x52.7 (1)
    |                                               |                |                  [4]{}: in 0x53-0x53.7 (1)
0x50|         94                                    |   .            |                    f32.mul: 0x94 (valid) 0x53-0x53.7 (1)
    |                                               |                |                  [5]{}: in 0x54-0x58.7 (5)
0x50|            43                                 |    C           |                    f32.const: 0x43 (valid) 0x54-0x54.7 (1)
0x50|               00 00 80 40                     |     ...@       |                    z: 4 0x55-0x58.7 (4)
    |                                               |                |                  [6]{}: in 0x59-0x59.7 (1)
0x50|                           92                  |         .      |                    f32.add: 0x92 (valid) 0x59-0x59.7 (1)
    |                                               |                |                  [7]{}: in 0x5a-0x5a.7 (1)
0x50|                              91               |          .     |                    f32.sqrt: 0x91 (valid) 0x5a-0x5a.7 (1)
    |                                               |                |                  [8]{}: in 0x5b-0x5b.7 (1)
0x50|                                 92            |           .    |                    f32.add: 0x92 (valid) 0x5b-0x5b.7 (1)
    |                                               |                |                  [9]{}: in 0x5c-0x5c.7 (1)
0x50|                                    94         |            .   |                    f32.mul: 0x94 (valid) 0x5c-0x5c.7 (1)
    |                                               |                |                  [10]{}: in 0x5d-0x5d.7 (1)
0x50|                                       0b      |             .  |                    end: 0xb (valid) 0x5d-0x5d.7 (1)
    |                                               |                |            [1]{}: code 0x5e-0x7d.7 (32)
0x50|                                          1f   |              . |              size: 31 0x5e-0x5e.7 (1)
    |                                               |                |              code{}: 0x5f-0x7d.7 (31)
    |                                               |                |                t{}: 0x5f-0x5f.7 (1)
0x50|                                             00|               .|                  n: 0 0x5f-0x5f.7 (1)
    |                                               |                |                  x[0:0]: 0x60-NA (0)
    |                                               |                |                e[0:11]: 0x60-0x7d.7 (30)
    |                                               |                |                  [0]{}: in 0x60-0x68.7 (9)
0x60|44                                             |D               |                    f64.const: 0x44 (valid) 0x60-0x60.7 (1)
0x60|   00 00 00 00 00 00 e0 3f                     | .......?       |                    z: 0.5 0x61-0x68.7 (8)
    |                                               |                |                  [1]{}: in 0x69-0x6a.7 (2)
0x60|                           20                  |                |                    local.get: 0x20 (valid) 0x69-0x69.7 (1)
0x60|                              00               |          .     |                    x: 0 0x6a-0x6a.7 (1)
    |                                               |                |                  [2]{}: in 0x6b-0x6c.7 (2)
0x60|                                 20            |                |                    local.get: 0x20 (valid) 0x6b-0x6b.7 (1)
0x60|                                    00         |            .   |                    x: 0 0x6c-0x6c.7 (1)
    |                                               |                |                  [3]{}: in 0x6d-0x6e.7 (2)
0x60|                                       20      |                |                    local.get: 0x20 (valid) 0x6d-0x6d.7 (1)
0x60|                                          00   |              . |                    x: 0 0x6e-0x6e.7 (1)
    |                                               |                |                  [4]{}: in 0x6f-0x6f.7 (1)
0x60|                                             a2|               .|                    f64.mul: 0xa2 (valid) 0x6f-0x6f.7 (1)
    |                                               |                |                  [5]{}: in 0x70-0x78.7 (9)
0x70|44                                             |D               |                    f64.const: 0x44 (valid) 0x70-0x70.7 (1)
0x70|   00 00 00 00 00 00 10 40                     | .......@       |                    z: 4 0x71-0x78.7 (8)
    |                                               |                |                  [6]{}: in 0x79-0x79.7 (1)
0x70|                           a0                  |         .      |                    f64.add: 0xa0 (valid) 0x79-0x79.7 (1)
    |                                               |                |                  [7]{}: in 0x7a-0x7a.7 (1)
0x70|                              9f               |          .     |                    f64.sqrt: 0x9f (valid) 0x7a-0x7a.7 (1)
    |                                               |                |                  [8]{}: in 0x7b-0x7b.7 (1)
0x70|                                 a0            |           .    |                    f64.add: 0xa0 (valid) 0x7b-0x7b.7 (1)
    |                                               |                |                  [9]{}: in 0x7c-0x7c.7 (1)
0x70|                                    a2         |            .   |                    f64.mul: 0xa2 (valid) 0x7c-0x7c.7 (1)
    |                                               |                |                  [10]{}: in 0x7d-0x7d.7 (1)
0x70|                                       0b|     |             .| |                    end: 0xb (valid) 0x7d-0x7d.7 (1)
