$ fq -d wasm dv float_exprs-75.wasm
    |00 01 02 03 04 05 06 07 08 09 0a 0b 0c 0d 0e 0f|0123456789abcdef|.{}: float_exprs-75.wasm (wasm) 0x0-0x85.7 (134)
0x00|00 61 73 6d                                    |.asm            |  magic: raw bits (valid) 0x0-0x3.7 (4)
0x00|            01 00 00 00                        |    ....        |  version: 1 0x4-0x7.7 (4)
    |                                               |                |  sections[0:4]: 0x8-0x85.7 (126)
    |                                               |                |    [0]{}: section 0x8-0x18.7 (17)
0x00|                        01                     |        .       |      id: "type section" (1) 0x8-0x8.7 (1)
0x00|                           0f                  |         .      |      size: 15 0x9-0x9.7 (1)
    |                                               |                |      content{}: 0xa-0x18.7 (15)
    |                                               |                |        ft{}: 0xa-0x18.7 (15)
0x00|                              02               |          .     |          n: 2 0xa-0xa.7 (1)
    |                                               |                |          x[0:2]: 0xb-0x18.7 (14)
    |                                               |                |            [0]{}: ft 0xb-0x11.7 (7)
0x00|                                 60            |           `    |              tag: 0x60 (valid) 0xb-0xb.7 (1)
    |                                               |                |              rt1{}: 0xc-0xf.7 (4)
0x00|                                    03         |            .   |                n: 3 0xc-0xc.7 (1)
    |                                               |                |                x[0:3]: 0xd-0xf.7 (3)
0x00|                                       7d      |             }  |                  [0]: "f32" (0x7d) t 0xd-0xd.7 (1)
0x00|                                          7d   |              } |                  [1]: "f32" (0x7d) t 0xe-0xe.7 (1)
0x00|                                             7d|               }|                  [2]: "f32" (0x7d) t 0xf-0xf.7 (1)
    |                                               |                |              rt2{}: 0x10-0x11.7 (2)
0x10|01                                             |.               |                n: 1 0x10-0x10.7 (1)
    |                                               |                |                x[0:1]: 0x11-0x11.7 (1)
0x10|   7d                                          | }              |                  [0]: "f32" (0x7d) t 0x11-0x11.7 (1)
    |                                               |                |            [1]{}: ft 0x12-0x18.7 (7)
0x10|      60                                       |  `             |              tag: 0x60 (valid) 0x12-0x12.7 (1)
    |                                               |                |              rt1{}: 0x13-0x16.7 (4)
0x10|         03                                    |   .            |                n: 3 0x13-0x13.7 (1)
    |                                               |                |                x[0:3]: 0x14-0x16.7 (3)
0x10|            7c                                 |    |           |                  [0]: "f64" (0x7c) t 0x14-0x14.7 (1)
0x10|               7c                              |     |          |                  [1]: "f64" (0x7c) t 0x15-0x15.7 (1)
0x10|                  7c                           |      |         |                  [2]: "f64" (0x7c) t 0x16-0x16.7 (1)
    |                                               |                |              rt2{}: 0x17-0x18.7 (2)
0x10|                     01                        |       .        |                n: 1 0x17-0x17.7 (1)
    |                                               |                |                x[0:1]: 0x18-0x18.7 (1)
0x10|                        7c                     |        |       |                  [0]: "f64" (0x7c) t 0x18-0x18.7 (1)
    |                                               |                |    [1]{}: section 0x19-0x1d.7 (5)
0x10|                           03                  |         .      |      id: "function section" (3) 0x19-0x19.7 (1)
0x10|                              03               |          .     |      size: 3 0x1a-0x1a.7 (1)
    |                                               |                |      content{}: 0x1b-0x1d.7 (3)
    |                                               |                |        x{}: 0x1b-0x1d.7 (3)
0x10|                                 02            |           .    |          n: 2 0x1b-0x1b.7 (1)
    |                                               |                |          x[0:2]: 0x1c-0x1d.7 (2)
0x10|                                    00         |            .   |            [0]: 0 x 0x1c-0x1c.7 (1)
0x10|                                       01      |             .  |            [1]: 1 x 0x1d-0x1d.7 (1)
    |                                               |                |    [2]{}: section 0x1e-0x6c.7 (79)
0x10|                                          07   |              . |      id: "export section" (7) 0x1e-0x1e.7 (1)
0x10|                                             4d|               M|      size: 77 0x1f-0x1f.7 (1)
    |                                               |                |      content{}: 0x20-0x6c.7 (77)
    |                                               |                |        ex{}: 0x20-0x6c.7 (77)
0x20|02                                             |.               |          n: 2 0x20-0x20.7 (1)
    |                                               |                |          x[0:2]: 0x21-0x6c.7 (76)
    |                                               |                |            [0]{}: ex 0x21-0x46.7 (38)
    |                                               |                |              nm{}: 0x21-0x44.7 (36)
0x20|   23                                          | #              |                n: 35 0x21-0x21.7 (1)
0x20|      66 33 32 2e 6e 6f 5f 66 6c 75 73 68 5f 69|  f32.no_flush_i|                b: "f32.no_flush_intermediate_subnormal" 0x22-0x44.7 (35)
0x30|6e 74 65 72 6d 65 64 69 61 74 65 5f 73 75 62 6e|ntermediate_subn|
0x40|6f 72 6d 61 6c                                 |ormal           |
    |                                               |                |              d{}: 0x45-0x46.7 (2)
0x40|               00                              |     .          |                tag: "funcidx" (0x0) 0x45-0x45.7 (1)
0x40|                  00                           |      .         |                x: 0 0x46-0x46.7 (1)
    |                                               |                |            [1]{}: ex 0x47-0x6c.7 (38)
    |                                               |                |              nm{}: 0x47-0x6a.7 (36)
0x40|                     23                        |       #        |                n: 35 0x47-0x47.7 (1)
0x40|                        66 36 34 2e 6e 6f 5f 66|        f64.no_f|                b: "f64.no_flush_intermediate_subnormal" 0x48-0x6a.7 (35)
0x50|6c 75 73 68 5f 69 6e 74 65 72 6d 65 64 69 61 74|lush_intermediat|
0x60|65 5f 73 75 62 6e 6f 72 6d 61 6c               |e_subnormal     |
    |                                               |                |              d{}: 0x6b-0x6c.7 (2)
0x60|                                 00            |           .    |                tag: "funcidx" (0x0) 0x6b-0x6b.7 (1)
0x60|                                    01         |            .   |                x: 1 0x6c-0x6c.7 (1)
    |                                               |                |    [3]{}: section 0x6d-0x85.7 (25)
0x60|                                       0a      |             .  |      id: "code section" (10) 0x6d-0x6d.7 (1)
0x60|                                          17   |              . |      size: 23 0x6e-0x6e.7 (1)
    |                                               |                |      content{}: 0x6f-0x85.7 (23)
    |                                               |                |        code{}: 0x6f-0x85.7 (23)
0x60|                                             02|               .|          n: 2 0x6f-0x6f.7 (1)
    |                                               |                |          x[0:2]: 0x70-0x85.7 (22)
    |                                               |                |            [0]{}: code 0x70-0x7a.7 (11)
0x70|0a                                             |.               |              size: 10 0x70-0x70.7 (1)
    |                                               |                |              code{}: 0x71-0x7a.7 (10)
    |                                               |                |                t{}: 0x71-0x71.7 (1)
0x70|   00                                          | .              |                  n: 0 0x71-0x71.7 (1)
    |                                               |                |                  x[0:0]: 0x72-NA (0)
    |                                               |                |                e[0:6]: 0x72-0x7a.7 (9)
    |                                               |                |                  [0]{}: in 0x72-0x73.7 (2)
0x70|      20                                       |                |                    local.get: 0x20 (valid) 0x72-0x72.7 (1)
0x70|         00                                    |   .            |                    x: 0 0x73-0x73.7 (1)
    |                                               |                |                  [1]{}: in 0x74-0x75.7 (2)
0x70|            20                                 |                |                    local.get: 0x20 (valid) 0x74-0x74.7 (1)
0x70|               01                              |     .          |                    x: 1 0x75-0x75.7 (1)
    |                                               |                |                  [2]{}: in 0x76-0x76.7 (1)
0x70|                  94                           |      .         |                    f32.mul: 0x94 (valid) 0x76-0x76.7 (1)
    |                                               |                |                  [3]{}: in 0x77-0x78.7 (2)
0x70|                     20                        |                |                    local.get: 0x20 (valid) 0x77-0x77.7 (1)
0x70|                        02                     |        .       |                    x: 2 0x78-0x78.7 (1)
    |                                               |                |                  [4]{}: in 0x79-0x79.7 (1)
0x70|                           94                  |         .      |                    f32.mul: 0x94 (valid) 0x79-0x79.7 (1)
    |                                               |                |                  [5]{}: in 0x7a-0x7a.7 (1)
0x70|                              0b               |          .     |                    end: 0xb (valid) 0x7a-0x7a.7 (1)
    |                                               |                |            [1]{}: code 0x7b-0x85.7 (11)
0x70|                                 0a            |           .    |              size: 10 0x7b-0x7b.7 (1)
    |                                               |                |              code{}: 0x7c-0x85.7 (10)
    |                                               |                |                t{}: 0x7c-0x7c.7 (1)
0x70|                                    00         |            .   |                  n: 0 0x7c-0x7c.7 (1)
    |                                               |                |                  x[0:0]: 0x7d-NA (0)
    |                                               |                |                e[0:6]: 0x7d-0x85.7 (9)
    |                                               |                |                  [0]{}: in 0x7d-0x7e.7 (2)
0x70|                                       20      |                |                    local.get: 0x20 (valid) 0x7d-0x7d.7 (1)
0x70|                                          00   |              . |                    x: 0 0x7e-0x7e.7 (1)
    |                                               |                |                  [1]{}: in 0x7f-0x80.7 (2)
0x70|                                             20|                |                    local.get: 0x20 (valid) 0x7f-0x7f.7 (1)
0x80|01                                             |.               |                    x: 1 0x80-0x80.7 (1)
    |                                               |                |                  [2]{}: in 0x81-0x81.7 (1)
0x80|   a2                                          | .              |                    f64.mul: 0xa2 (valid) 0x81-0x81.7 (1)
    |                                               |                |                  [3]{}: in 0x82-0x83.7 (2)
0x80|      20                                       |                |                    local.get: 0x20 (valid) 0x82-0x82.7 (1)
0x80|         02                                    |   .            |                    x: 2 0x83-0x83.7 (1)
    |                                               |                |                  [4]{}: in 0x84-0x84.7 (1)
0x80|            a2                                 |    .           |                    f64.mul: 0xa2 (valid) 0x84-0x84.7 (1)
    |                                               |                |                  [5]{}: in 0x85-0x85.7 (1)
0x80|               0b|                             |     .|         |                    end: 0xb (valid) 0x85-0x85.7 (1)
