$ fq -d wasm dv float_exprs-18.wasm
    |00 01 02 03 04 05 06 07 08 09 0a 0b 0c 0d 0e 0f|0123456789abcdef|.{}: float_exprs-18.wasm (wasm) 0x0-0x62 (98)
0x00|00 61 73 6d                                    |.asm            |  magic: raw bits (valid) 0x0-0x4 (4)
0x00|            01 00 00 00                        |    ....        |  version: 1 0x4-0x8 (4)
    |                                               |                |  sections[0:4]: 0x8-0x62 (90)
    |                                               |                |    [0]{}: section 0x8-0x19 (17)
0x00|                        01                     |        .       |      id: "type_section" (1) 0x8-0x9 (1)
0x00|                           0f                  |         .      |      size: 15 (valid) 0x9-0xa (1)
    |                                               |                |      content{}: 0xa-0x19 (15)
    |                                               |                |        ft{}: 0xa-0x19 (15)
0x00|                              02               |          .     |          n: 2 (valid) 0xa-0xb (1)
    |                                               |                |          x[0:2]: 0xb-0x19 (14)
    |                                               |                |            [0]{}: ft 0xb-0x12 (7)
0x00|                                 60            |           `    |              tag: 0x60 (valid) 0xb-0xc (1)
    |                                               |                |              rt1{}: 0xc-0x10 (4)
0x00|                                    03         |            .   |                n: 3 (valid) 0xc-0xd (1)
    |                                               |                |                x[0:3]: 0xd-0x10 (3)
0x00|                                       7d      |             }  |                  [0]: "f32" (0x7d) t 0xd-0xe (1)
0x00|                                          7d   |              } |                  [1]: "f32" (0x7d) t 0xe-0xf (1)
0x00|                                             7d|               }|                  [2]: "f32" (0x7d) t 0xf-0x10 (1)
    |                                               |                |              rt2{}: 0x10-0x12 (2)
0x10|01                                             |.               |                n: 1 (valid) 0x10-0x11 (1)
    |                                               |                |                x[0:1]: 0x11-0x12 (1)
0x10|   7d                                          | }              |                  [0]: "f32" (0x7d) t 0x11-0x12 (1)
    |                                               |                |            [1]{}: ft 0x12-0x19 (7)
0x10|      60                                       |  `             |              tag: 0x60 (valid) 0x12-0x13 (1)
    |                                               |                |              rt1{}: 0x13-0x17 (4)
0x10|         03                                    |   .            |                n: 3 (valid) 0x13-0x14 (1)
    |                                               |                |                x[0:3]: 0x14-0x17 (3)
0x10|            7c                                 |    |           |                  [0]: "f64" (0x7c) t 0x14-0x15 (1)
0x10|               7c                              |     |          |                  [1]: "f64" (0x7c) t 0x15-0x16 (1)
0x10|                  7c                           |      |         |                  [2]: "f64" (0x7c) t 0x16-0x17 (1)
    |                                               |                |              rt2{}: 0x17-0x19 (2)
0x10|                     01                        |       .        |                n: 1 (valid) 0x17-0x18 (1)
    |                                               |                |                x[0:1]: 0x18-0x19 (1)
0x10|                        7c                     |        |       |                  [0]: "f64" (0x7c) t 0x18-0x19 (1)
    |                                               |                |    [1]{}: section 0x19-0x1e (5)
0x10|                           03                  |         .      |      id: "function_section" (3) 0x19-0x1a (1)
0x10|                              03               |          .     |      size: 3 (valid) 0x1a-0x1b (1)
    |                                               |                |      content{}: 0x1b-0x1e (3)
    |                                               |                |        x{}: 0x1b-0x1e (3)
0x10|                                 02            |           .    |          n: 2 (valid) 0x1b-0x1c (1)
    |                                               |                |          x[0:2]: 0x1c-0x1e (2)
0x10|                                    00         |            .   |            [0]: 0 x (valid) 0x1c-0x1d (1)
0x10|                                       01      |             .  |            [1]: 1 x (valid) 0x1d-0x1e (1)
    |                                               |                |    [2]{}: section 0x1e-0x49 (43)
0x10|                                          07   |              . |      id: "export_section" (7) 0x1e-0x1f (1)
0x10|                                             29|               )|      size: 41 (valid) 0x1f-0x20 (1)
    |                                               |                |      content{}: 0x20-0x49 (41)
    |                                               |                |        ex{}: 0x20-0x49 (41)
0x20|02                                             |.               |          n: 2 (valid) 0x20-0x21 (1)
    |                                               |                |          x[0:2]: 0x21-0x49 (40)
    |                                               |                |            [0]{}: ex 0x21-0x35 (20)
    |                                               |                |              nm{}: 0x21-0x33 (18)
0x20|   11                                          | .              |                n: 17 (valid) 0x21-0x22 (1)
0x20|      66 33 32 2e 6e 6f 5f 64 69 73 74 72 69 62|  f32.no_distrib|                b: "f32.no_distribute" 0x22-0x33 (17)
0x30|75 74 65                                       |ute             |
    |                                               |                |              d{}: 0x33-0x35 (2)
0x30|         00                                    |   .            |                tag: "funcidx" (0x0) 0x33-0x34 (1)
0x30|            00                                 |    .           |                x: 0 (valid) 0x34-0x35 (1)
    |                                               |                |            [1]{}: ex 0x35-0x49 (20)
    |                                               |                |              nm{}: 0x35-0x47 (18)
0x30|               11                              |     .          |                n: 17 (valid) 0x35-0x36 (1)
0x30|                  66 36 34 2e 6e 6f 5f 64 69 73|      f64.no_dis|                b: "f64.no_distribute" 0x36-0x47 (17)
0x40|74 72 69 62 75 74 65                           |tribute         |
    |                                               |                |              d{}: 0x47-0x49 (2)
0x40|                     00                        |       .        |                tag: "funcidx" (0x0) 0x47-0x48 (1)
0x40|                        01                     |        .       |                x: 1 (valid) 0x48-0x49 (1)
    |                                               |                |    [3]{}: section 0x49-0x62 (25)
0x40|                           0a                  |         .      |      id: "code_section" (10) 0x49-0x4a (1)
0x40|                              17               |          .     |      size: 23 (valid) 0x4a-0x4b (1)
    |                                               |                |      content{}: 0x4b-0x62 (23)
    |                                               |                |        code{}: 0x4b-0x62 (23)
0x40|                                 02            |           .    |          n: 2 (valid) 0x4b-0x4c (1)
    |                                               |                |          x[0:2]: 0x4c-0x62 (22)
    |                                               |                |            [0]{}: code 0x4c-0x57 (11)
0x40|                                    0a         |            .   |              size: 10 (valid) 0x4c-0x4d (1)
    |                                               |                |              code{}: 0x4d-0x57 (10)
    |                                               |                |                t{}: 0x4d-0x4e (1)
0x40|                                       00      |             .  |                  n: 0 (valid) 0x4d-0x4e (1)
    |                                               |                |                  x[0:0]: 0x4e-0x4e (0)
    |                                               |                |                e[0:6]: 0x4e-0x57 (9)
    |                                               |                |                  [0]{}: in 0x4e-0x50 (2)
0x40|                                          20   |                |                    opcode: "local.get" (0x20) 0x4e-0x4f (1)
0x40|                                             00|               .|                    x: 0 (valid) 0x4f-0x50 (1)
    |                                               |                |                  [1]{}: in 0x50-0x52 (2)
0x50|20                                             |                |                    opcode: "local.get" (0x20) 0x50-0x51 (1)
0x50|   01                                          | .              |                    x: 1 (valid) 0x51-0x52 (1)
    |                                               |                |                  [2]{}: in 0x52-0x53 (1)
0x50|      92                                       |  .             |                    opcode: "f32.add" (0x92) 0x52-0x53 (1)
    |                                               |                |                  [3]{}: in 0x53-0x55 (2)
0x50|         20                                    |                |                    opcode: "local.get" (0x20) 0x53-0x54 (1)
0x50|            02                                 |    .           |                    x: 2 (valid) 0x54-0x55 (1)
    |                                               |                |                  [4]{}: in 0x55-0x56 (1)
0x50|               94                              |     .          |                    opcode: "f32.mul" (0x94) 0x55-0x56 (1)
    |                                               |                |                  [5]{}: in 0x56-0x57 (1)
0x50|                  0b                           |      .         |                    opcode: "end" (0xb) 0x56-0x57 (1)
    |                                               |                |            [1]{}: code 0x57-0x62 (11)
0x50|                     0a                        |       .        |              size: 10 (valid) 0x57-0x58 (1)
    |                                               |                |              code{}: 0x58-0x62 (10)
    |                                               |                |                t{}: 0x58-0x59 (1)
0x50|                        00                     |        .       |                  n: 0 (valid) 0x58-0x59 (1)
    |                                               |                |                  x[0:0]: 0x59-0x59 (0)
    |                                               |                |                e[0:6]: 0x59-0x62 (9)
    |                                               |                |                  [0]{}: in 0x59-0x5b (2)
0x50|                           20                  |                |                    opcode: "local.get" (0x20) 0x59-0x5a (1)
0x50|                              00               |          .     |                    x: 0 (valid) 0x5a-0x5b (1)
    |                                               |                |                  [1]{}: in 0x5b-0x5d (2)
0x50|                                 20            |                |                    opcode: "local.get" (0x20) 0x5b-0x5c (1)
0x50|                                    01         |            .   |                    x: 1 (valid) 0x5c-0x5d (1)
    |                                               |                |                  [2]{}: in 0x5d-0x5e (1)
0x50|                                       a0      |             .  |                    opcode: "f64.add" (0xa0) 0x5d-0x5e (1)
    |                                               |                |                  [3]{}: in 0x5e-0x60 (2)
0x50|                                          20   |                |                    opcode: "local.get" (0x20) 0x5e-0x5f (1)
0x50|                                             02|               .|                    x: 2 (valid) 0x5f-0x60 (1)
    |                                               |                |                  [4]{}: in 0x60-0x61 (1)
0x60|a2                                             |.               |                    opcode: "f64.mul" (0xa2) 0x60-0x61 (1)
    |                                               |                |                  [5]{}: in 0x61-0x62 (1)
0x60|   0b|                                         | .|             |                    opcode: "end" (0xb) 0x61-0x62 (1)
