$ fq -d wasm dv float_exprs-80.wasm
    |00 01 02 03 04 05 06 07 08 09 0a 0b 0c 0d 0e 0f|0123456789abcdef|.{}: float_exprs-80.wasm (wasm) 0x0-0xe6.7 (231)
0x00|00 61 73 6d                                    |.asm            |  magic: raw bits (valid) 0x0-0x3.7 (4)
0x00|            01 00 00 00                        |    ....        |  version: 1 0x4-0x7.7 (4)
    |                                               |                |  sections[0:4]: 0x8-0xe6.7 (223)
    |                                               |                |    [0]{}: section 0x8-0x16.7 (15)
0x00|                        01                     |        .       |      id: "type section" (1) 0x8-0x8.7 (1)
0x00|                           0d                  |         .      |      size: 13 0x9-0x9.7 (1)
    |                                               |                |      content{}: 0xa-0x16.7 (13)
    |                                               |                |        ft{}: 0xa-0x16.7 (13)
0x00|                              02               |          .     |          n: 2 0xa-0xa.7 (1)
    |                                               |                |          x[0:2]: 0xb-0x16.7 (12)
    |                                               |                |            [0]{}: ft 0xb-0x10.7 (6)
0x00|                                 60            |           `    |              tag: 0x60 (valid) 0xb-0xb.7 (1)
    |                                               |                |              rt1{}: 0xc-0xe.7 (3)
0x00|                                    02         |            .   |                n: 2 0xc-0xc.7 (1)
    |                                               |                |                x[0:2]: 0xd-0xe.7 (2)
0x00|                                       7d      |             }  |                  [0]: "f32" (0x7d) t 0xd-0xd.7 (1)
0x00|                                          7d   |              } |                  [1]: "f32" (0x7d) t 0xe-0xe.7 (1)
    |                                               |                |              rt2{}: 0xf-0x10.7 (2)
0x00|                                             01|               .|                n: 1 0xf-0xf.7 (1)
    |                                               |                |                x[0:1]: 0x10-0x10.7 (1)
0x10|7d                                             |}               |                  [0]: "f32" (0x7d) t 0x10-0x10.7 (1)
    |                                               |                |            [1]{}: ft 0x11-0x16.7 (6)
0x10|   60                                          | `              |              tag: 0x60 (valid) 0x11-0x11.7 (1)
    |                                               |                |              rt1{}: 0x12-0x14.7 (3)
0x10|      02                                       |  .             |                n: 2 0x12-0x12.7 (1)
    |                                               |                |                x[0:2]: 0x13-0x14.7 (2)
0x10|         7c                                    |   |            |                  [0]: "f64" (0x7c) t 0x13-0x13.7 (1)
0x10|            7c                                 |    |           |                  [1]: "f64" (0x7c) t 0x14-0x14.7 (1)
    |                                               |                |              rt2{}: 0x15-0x16.7 (2)
0x10|               01                              |     .          |                n: 1 0x15-0x15.7 (1)
    |                                               |                |                x[0:1]: 0x16-0x16.7 (1)
0x10|                  7c                           |      |         |                  [0]: "f64" (0x7c) t 0x16-0x16.7 (1)
    |                                               |                |    [1]{}: section 0x17-0x1b.7 (5)
0x10|                     03                        |       .        |      id: "function section" (3) 0x17-0x17.7 (1)
0x10|                        03                     |        .       |      size: 3 0x18-0x18.7 (1)
    |                                               |                |      content{}: 0x19-0x1b.7 (3)
    |                                               |                |        x{}: 0x19-0x1b.7 (3)
0x10|                           02                  |         .      |          n: 2 0x19-0x19.7 (1)
    |                                               |                |          x[0:2]: 0x1a-0x1b.7 (2)
0x10|                              00               |          .     |            [0]: 0 x 0x1a-0x1a.7 (1)
0x10|                                 01            |           .    |            [1]: 1 x 0x1b-0x1b.7 (1)
    |                                               |                |    [2]{}: section 0x1c-0x46.7 (43)
0x10|                                    07         |            .   |      id: "export section" (7) 0x1c-0x1c.7 (1)
0x10|                                       29      |             )  |      size: 41 0x1d-0x1d.7 (1)
    |                                               |                |      content{}: 0x1e-0x46.7 (41)
    |                                               |                |        ex{}: 0x1e-0x46.7 (41)
0x10|                                          02   |              . |          n: 2 0x1e-0x1e.7 (1)
    |                                               |                |          x[0:2]: 0x1f-0x46.7 (40)
    |                                               |                |            [0]{}: ex 0x1f-0x32.7 (20)
    |                                               |                |              nm{}: 0x1f-0x30.7 (18)
0x10|                                             11|               .|                n: 17 0x1f-0x1f.7 (1)
0x20|66 33 32 2e 63 6f 6d 70 75 74 65 5f 72 61 64 69|f32.compute_radi|                b: "f32.compute_radix" 0x20-0x30.7 (17)
0x30|78                                             |x               |
    |                                               |                |              d{}: 0x31-0x32.7 (2)
0x30|   00                                          | .              |                tag: "funcidx" (0x0) 0x31-0x31.7 (1)
0x30|      00                                       |  .             |                x: 0 0x32-0x32.7 (1)
    |                                               |                |            [1]{}: ex 0x33-0x46.7 (20)
    |                                               |                |              nm{}: 0x33-0x44.7 (18)
0x30|         11                                    |   .            |                n: 17 0x33-0x33.7 (1)
0x30|            66 36 34 2e 63 6f 6d 70 75 74 65 5f|    f64.compute_|                b: "f64.compute_radix" 0x34-0x44.7 (17)
0x40|72 61 64 69 78                                 |radix           |
    |                                               |                |              d{}: 0x45-0x46.7 (2)
0x40|               00                              |     .          |                tag: "funcidx" (0x0) 0x45-0x45.7 (1)
0x40|                  01                           |      .         |                x: 1 0x46-0x46.7 (1)
    |                                               |                |    [3]{}: section 0x47-0xe6.7 (160)
0x40|                     0a                        |       .        |      id: "code section" (10) 0x47-0x47.7 (1)
0x40|                        9d 01                  |        ..      |      size: 157 0x48-0x49.7 (2)
    |                                               |                |      content{}: 0x4a-0xe6.7 (157)
    |                                               |                |        code{}: 0x4a-0xe6.7 (157)
0x40|                              02               |          .     |          n: 2 0x4a-0x4a.7 (1)
    |                                               |                |          x[0:2]: 0x4b-0xe6.7 (156)
    |                                               |                |            [0]{}: code 0x4b-0x8e.7 (68)
0x40|                                 43            |           C    |              size: 67 0x4b-0x4b.7 (1)
    |                                               |                |              code{}: 0x4c-0x8e.7 (67)
    |                                               |                |                t{}: 0x4c-0x4c.7 (1)
0x40|                                    00         |            .   |                  n: 0 0x4c-0x4c.7 (1)
    |                                               |                |                  x[0:0]: 0x4d-NA (0)
    |                                               |                |                e[0:4]: 0x4d-0x8e.7 (66)
    |                                               |                |                  [0]{}: in 0x4d-0x6d.7 (33)
0x40|                                       03      |             .  |                    loop: 0x3 (valid) 0x4d-0x4d.7 (1)
0x40|                                          40   |              @ |                    bt: "ε" (64) 0x4e-0x4e.7 (1)
    |                                               |                |                    instructions[0:13]: 0x4f-0x6c.7 (30)
    |                                               |                |                      [0]{}: instr 0x4f-0x50.7 (2)
0x40|                                             20|                |                        local.get: 0x20 (valid) 0x4f-0x4f.7 (1)
0x50|00                                             |.               |                        x: 0 0x50-0x50.7 (1)
    |                                               |                |                      [1]{}: instr 0x51-0x52.7 (2)
0x50|   20                                          |                |                        local.get: 0x20 (valid) 0x51-0x51.7 (1)
0x50|      00                                       |  .             |                        x: 0 0x52-0x52.7 (1)
    |                                               |                |                      [2]{}: instr 0x53-0x53.7 (1)
0x50|         92                                    |   .            |                        f32.add: 0x92 (valid) 0x53-0x53.7 (1)
    |                                               |                |                      [3]{}: instr 0x54-0x55.7 (2)
0x50|            22                                 |    "           |                        local.tee: 0x22 (valid) 0x54-0x54.7 (1)
0x50|               00                              |     .          |                        x: 0 0x55-0x55.7 (1)
    |                                               |                |                      [4]{}: instr 0x56-0x5a.7 (5)
0x50|                  43                           |      C         |                        f32.const: 0x43 (valid) 0x56-0x56.7 (1)
0x50|                     00 00 80 3f               |       ...?     |                        z: 1 0x57-0x5a.7 (4)
    |                                               |                |                      [5]{}: instr 0x5b-0x5b.7 (1)
0x50|                                 92            |           .    |                        f32.add: 0x92 (valid) 0x5b-0x5b.7 (1)
    |                                               |                |                      [6]{}: instr 0x5c-0x5d.7 (2)
0x50|                                    20         |                |                        local.get: 0x20 (valid) 0x5c-0x5c.7 (1)
0x50|                                       00      |             .  |                        x: 0 0x5d-0x5d.7 (1)
    |                                               |                |                      [7]{}: instr 0x5e-0x5e.7 (1)
0x50|                                          93   |              . |                        f32.sub: 0x93 (valid) 0x5e-0x5e.7 (1)
    |                                               |                |                      [8]{}: instr 0x5f-0x63.7 (5)
0x50|                                             43|               C|                        f32.const: 0x43 (valid) 0x5f-0x5f.7 (1)
0x60|00 00 80 bf                                    |....            |                        z: -1 0x60-0x63.7 (4)
    |                                               |                |                      [9]{}: instr 0x64-0x64.7 (1)
0x60|            92                                 |    .           |                        f32.add: 0x92 (valid) 0x64-0x64.7 (1)
    |                                               |                |                      [10]{}: instr 0x65-0x69.7 (5)
0x60|               43                              |     C          |                        f32.const: 0x43 (valid) 0x65-0x65.7 (1)
0x60|                  00 00 00 00                  |      ....      |                        z: 0 0x66-0x69.7 (4)
    |                                               |                |                      [11]{}: instr 0x6a-0x6a.7 (1)
0x60|                              5b               |          [     |                        f32.eq: 0x5b (valid) 0x6a-0x6a.7 (1)
    |                                               |                |                      [12]{}: instr 0x6b-0x6c.7 (2)
0x60|                                 0d            |           .    |                        br_if: 0xd (valid) 0x6b-0x6b.7 (1)
0x60|                                    00         |            .   |                        l: 0 0x6c-0x6c.7 (1)
0x60|                                       0b      |             .  |                    end: 11 (valid) 0x6d-0x6d.7 (1)
    |                                               |                |                  [1]{}: in 0x6e-0x8b.7 (30)
0x60|                                          03   |              . |                    loop: 0x3 (valid) 0x6e-0x6e.7 (1)
0x60|                                             40|               @|                    bt: "ε" (64) 0x6f-0x6f.7 (1)
    |                                               |                |                    instructions[0:13]: 0x70-0x8a.7 (27)
    |                                               |                |                      [0]{}: instr 0x70-0x71.7 (2)
0x70|20                                             |                |                        local.get: 0x20 (valid) 0x70-0x70.7 (1)
0x70|   00                                          | .              |                        x: 0 0x71-0x71.7 (1)
    |                                               |                |                      [1]{}: instr 0x72-0x73.7 (2)
0x70|      20                                       |                |                        local.get: 0x20 (valid) 0x72-0x72.7 (1)
0x70|         01                                    |   .            |                        x: 1 0x73-0x73.7 (1)
    |                                               |                |                      [2]{}: instr 0x74-0x78.7 (5)
0x70|            43                                 |    C           |                        f32.const: 0x43 (valid) 0x74-0x74.7 (1)
0x70|               00 00 80 3f                     |     ...?       |                        z: 1 0x75-0x78.7 (4)
    |                                               |                |                      [3]{}: instr 0x79-0x79.7 (1)
0x70|                           92                  |         .      |                        f32.add: 0x92 (valid) 0x79-0x79.7 (1)
    |                                               |                |                      [4]{}: instr 0x7a-0x7b.7 (2)
0x70|                              22               |          "     |                        local.tee: 0x22 (valid) 0x7a-0x7a.7 (1)
0x70|                                 01            |           .    |                        x: 1 0x7b-0x7b.7 (1)
    |                                               |                |                      [5]{}: instr 0x7c-0x7c.7 (1)
0x70|                                    92         |            .   |                        f32.add: 0x92 (valid) 0x7c-0x7c.7 (1)
    |                                               |                |                      [6]{}: instr 0x7d-0x7e.7 (2)
0x70|                                       20      |                |                        local.get: 0x20 (valid) 0x7d-0x7d.7 (1)
0x70|                                          00   |              . |                        x: 0 0x7e-0x7e.7 (1)
    |                                               |                |                      [7]{}: instr 0x7f-0x7f.7 (1)
0x70|                                             93|               .|                        f32.sub: 0x93 (valid) 0x7f-0x7f.7 (1)
    |                                               |                |                      [8]{}: instr 0x80-0x81.7 (2)
0x80|20                                             |                |                        local.get: 0x20 (valid) 0x80-0x80.7 (1)
0x80|   01                                          | .              |                        x: 1 0x81-0x81.7 (1)
    |                                               |                |                      [9]{}: instr 0x82-0x82.7 (1)
0x80|      93                                       |  .             |                        f32.sub: 0x93 (valid) 0x82-0x82.7 (1)
    |                                               |                |                      [10]{}: instr 0x83-0x87.7 (5)
0x80|         43                                    |   C            |                        f32.const: 0x43 (valid) 0x83-0x83.7 (1)
0x80|            00 00 00 00                        |    ....        |                        z: 0 0x84-0x87.7 (4)
    |                                               |                |                      [11]{}: instr 0x88-0x88.7 (1)
0x80|                        5c                     |        \       |                        f32.ne: 0x5c (valid) 0x88-0x88.7 (1)
    |                                               |                |                      [12]{}: instr 0x89-0x8a.7 (2)
0x80|                           0d                  |         .      |                        br_if: 0xd (valid) 0x89-0x89.7 (1)
0x80|                              00               |          .     |                        l: 0 0x8a-0x8a.7 (1)
0x80|                                 0b            |           .    |                    end: 11 (valid) 0x8b-0x8b.7 (1)
    |                                               |                |                  [2]{}: in 0x8c-0x8d.7 (2)
0x80|                                    20         |                |                    local.get: 0x20 (valid) 0x8c-0x8c.7 (1)
0x80|                                       01      |             .  |                    x: 1 0x8d-0x8d.7 (1)
    |                                               |                |                  [3]{}: in 0x8e-0x8e.7 (1)
0x80|                                          0b   |              . |                    end: 0xb (valid) 0x8e-0x8e.7 (1)
    |                                               |                |            [1]{}: code 0x8f-0xe6.7 (88)
0x80|                                             57|               W|              size: 87 0x8f-0x8f.7 (1)
    |                                               |                |              code{}: 0x90-0xe6.7 (87)
    |                                               |                |                t{}: 0x90-0x90.7 (1)
0x90|00                                             |.               |                  n: 0 0x90-0x90.7 (1)
    |                                               |                |                  x[0:0]: 0x91-NA (0)
    |                                               |                |                e[0:4]: 0x91-0xe6.7 (86)
    |                                               |                |                  [0]{}: in 0x91-0xbd.7 (45)
0x90|   03                                          | .              |                    loop: 0x3 (valid) 0x91-0x91.7 (1)
0x90|      40                                       |  @             |                    bt: "ε" (64) 0x92-0x92.7 (1)
    |                                               |                |                    instructions[0:13]: 0x93-0xbc.7 (42)
    |                                               |                |                      [0]{}: instr 0x93-0x94.7 (2)
0x90|         20                                    |                |                        local.get: 0x20 (valid) 0x93-0x93.7 (1)
0x90|            00                                 |    .           |                        x: 0 0x94-0x94.7 (1)
    |                                               |                |                      [1]{}: instr 0x95-0x96.7 (2)
0x90|               20                              |                |                        local.get: 0x20 (valid) 0x95-0x95.7 (1)
0x90|                  00                           |      .         |                        x: 0 0x96-0x96.7 (1)
    |                                               |                |                      [2]{}: instr 0x97-0x97.7 (1)
0x90|                     a0                        |       .        |                        f64.add: 0xa0 (valid) 0x97-0x97.7 (1)
    |                                               |                |                      [3]{}: instr 0x98-0x99.7 (2)
0x90|                        22                     |        "       |                        local.tee: 0x22 (valid) 0x98-0x98.7 (1)
0x90|                           00                  |         .      |                        x: 0 0x99-0x99.7 (1)
    |                                               |                |                      [4]{}: instr 0x9a-0xa2.7 (9)
0x90|                              44               |          D     |                        f64.const: 0x44 (valid) 0x9a-0x9a.7 (1)
0x90|                                 00 00 00 00 00|           .....|                        z: 1 0x9b-0xa2.7 (8)
0xa0|00 f0 3f                                       |..?             |
    |                                               |                |                      [5]{}: instr 0xa3-0xa3.7 (1)
0xa0|         a0                                    |   .            |                        f64.add: 0xa0 (valid) 0xa3-0xa3.7 (1)
    |                                               |                |                      [6]{}: instr 0xa4-0xa5.7 (2)
0xa0|            20                                 |                |                        local.get: 0x20 (valid) 0xa4-0xa4.7 (1)
0xa0|               00                              |     .          |                        x: 0 0xa5-0xa5.7 (1)
    |                                               |                |                      [7]{}: instr 0xa6-0xa6.7 (1)
0xa0|                  a1                           |      .         |                        f64.sub: 0xa1 (valid) 0xa6-0xa6.7 (1)
    |                                               |                |                      [8]{}: instr 0xa7-0xaf.7 (9)
0xa0|                     44                        |       D        |                        f64.const: 0x44 (valid) 0xa7-0xa7.7 (1)
0xa0|                        00 00 00 00 00 00 f0 bf|        ........|                        z: -1 0xa8-0xaf.7 (8)
    |                                               |                |                      [9]{}: instr 0xb0-0xb0.7 (1)
0xb0|a0                                             |.               |                        f64.add: 0xa0 (valid) 0xb0-0xb0.7 (1)
    |                                               |                |                      [10]{}: instr 0xb1-0xb9.7 (9)
0xb0|   44                                          | D              |                        f64.const: 0x44 (valid) 0xb1-0xb1.7 (1)
0xb0|      00 00 00 00 00 00 00 00                  |  ........      |                        z: 0 0xb2-0xb9.7 (8)
    |                                               |                |                      [11]{}: instr 0xba-0xba.7 (1)
0xb0|                              61               |          a     |                        f64.eq: 0x61 (valid) 0xba-0xba.7 (1)
    |                                               |                |                      [12]{}: instr 0xbb-0xbc.7 (2)
0xb0|                                 0d            |           .    |                        br_if: 0xd (valid) 0xbb-0xbb.7 (1)
0xb0|                                    00         |            .   |                        l: 0 0xbc-0xbc.7 (1)
0xb0|                                       0b      |             .  |                    end: 11 (valid) 0xbd-0xbd.7 (1)
    |                                               |                |                  [1]{}: in 0xbe-0xe3.7 (38)
0xb0|                                          03   |              . |                    loop: 0x3 (valid) 0xbe-0xbe.7 (1)
0xb0|                                             40|               @|                    bt: "ε" (64) 0xbf-0xbf.7 (1)
    |                                               |                |                    instructions[0:13]: 0xc0-0xe2.7 (35)
    |                                               |                |                      [0]{}: instr 0xc0-0xc1.7 (2)
0xc0|20                                             |                |                        local.get: 0x20 (valid) 0xc0-0xc0.7 (1)
0xc0|   00                                          | .              |                        x: 0 0xc1-0xc1.7 (1)
    |                                               |                |                      [1]{}: instr 0xc2-0xc3.7 (2)
0xc0|      20                                       |                |                        local.get: 0x20 (valid) 0xc2-0xc2.7 (1)
0xc0|         01                                    |   .            |                        x: 1 0xc3-0xc3.7 (1)
    |                                               |                |                      [2]{}: instr 0xc4-0xcc.7 (9)
0xc0|            44                                 |    D           |                        f64.const: 0x44 (valid) 0xc4-0xc4.7 (1)
0xc0|               00 00 00 00 00 00 f0 3f         |     .......?   |                        z: 1 0xc5-0xcc.7 (8)
    |                                               |                |                      [3]{}: instr 0xcd-0xcd.7 (1)
0xc0|                                       a0      |             .  |                        f64.add: 0xa0 (valid) 0xcd-0xcd.7 (1)
    |                                               |                |                      [4]{}: instr 0xce-0xcf.7 (2)
0xc0|                                          22   |              " |                        local.tee: 0x22 (valid) 0xce-0xce.7 (1)
0xc0|                                             01|               .|                        x: 1 0xcf-0xcf.7 (1)
    |                                               |                |                      [5]{}: instr 0xd0-0xd0.7 (1)
0xd0|a0                                             |.               |                        f64.add: 0xa0 (valid) 0xd0-0xd0.7 (1)
    |                                               |                |                      [6]{}: instr 0xd1-0xd2.7 (2)
0xd0|   20                                          |                |                        local.get: 0x20 (valid) 0xd1-0xd1.7 (1)
0xd0|      00                                       |  .             |                        x: 0 0xd2-0xd2.7 (1)
    |                                               |                |                      [7]{}: instr 0xd3-0xd3.7 (1)
0xd0|         a1                                    |   .            |                        f64.sub: 0xa1 (valid) 0xd3-0xd3.7 (1)
    |                                               |                |                      [8]{}: instr 0xd4-0xd5.7 (2)
0xd0|            20                                 |                |                        local.get: 0x20 (valid) 0xd4-0xd4.7 (1)
0xd0|               01                              |     .          |                        x: 1 0xd5-0xd5.7 (1)
    |                                               |                |                      [9]{}: instr 0xd6-0xd6.7 (1)
0xd0|                  a1                           |      .         |                        f64.sub: 0xa1 (valid) 0xd6-0xd6.7 (1)
    |                                               |                |                      [10]{}: instr 0xd7-0xdf.7 (9)
0xd0|                     44                        |       D        |                        f64.const: 0x44 (valid) 0xd7-0xd7.7 (1)
0xd0|                        00 00 00 00 00 00 00 00|        ........|                        z: 0 0xd8-0xdf.7 (8)
    |                                               |                |                      [11]{}: instr 0xe0-0xe0.7 (1)
0xe0|62                                             |b               |                        f64.ne: 0x62 (valid) 0xe0-0xe0.7 (1)
    |                                               |                |                      [12]{}: instr 0xe1-0xe2.7 (2)
0xe0|   0d                                          | .              |                        br_if: 0xd (valid) 0xe1-0xe1.7 (1)
0xe0|      00                                       |  .             |                        l: 0 0xe2-0xe2.7 (1)
0xe0|         0b                                    |   .            |                    end: 11 (valid) 0xe3-0xe3.7 (1)
    |                                               |                |                  [2]{}: in 0xe4-0xe5.7 (2)
0xe0|            20                                 |                |                    local.get: 0x20 (valid) 0xe4-0xe4.7 (1)
0xe0|               01                              |     .          |                    x: 1 0xe5-0xe5.7 (1)
    |                                               |                |                  [3]{}: in 0xe6-0xe6.7 (1)
0xe0|                  0b|                          |      .|        |                    end: 0xb (valid) 0xe6-0xe6.7 (1)
