$ fq -d wasm dv float_exprs-94.wasm
    |00 01 02 03 04 05 06 07 08 09 0a 0b 0c 0d 0e 0f|0123456789abcdef|.{}: float_exprs-94.wasm (wasm) 0x0-0xeb (235)
0x00|00 61 73 6d                                    |.asm            |  magic: raw bits (valid) 0x0-0x4 (4)
0x00|            01 00 00 00                        |    ....        |  version: 1 0x4-0x8 (4)
    |                                               |                |  sections[0:4]: 0x8-0xeb (227)
    |                                               |                |    [0]{}: section 0x8-0x10 (8)
0x00|                        01                     |        .       |      id: "type_section" (1) 0x8-0x9 (1)
0x00|                           06                  |         .      |      size: 6 (valid) 0x9-0xa (1)
    |                                               |                |      content{}: 0xa-0x10 (6)
    |                                               |                |        ft{}: 0xa-0x10 (6)
0x00|                              01               |          .     |          n: 1 (valid) 0xa-0xb (1)
    |                                               |                |          x[0:1]: 0xb-0x10 (5)
    |                                               |                |            [0]{}: ft 0xb-0x10 (5)
0x00|                                 60            |           `    |              tag: 0x60 (valid) 0xb-0xc (1)
    |                                               |                |              rt1{}: 0xc-0xe (2)
0x00|                                    01         |            .   |                n: 1 (valid) 0xc-0xd (1)
    |                                               |                |                x[0:1]: 0xd-0xe (1)
0x00|                                       7f      |             .  |                  [0]: "i32" (0x7f) t 0xd-0xe (1)
    |                                               |                |              rt2{}: 0xe-0x10 (2)
0x00|                                          01   |              . |                n: 1 (valid) 0xe-0xf (1)
    |                                               |                |                x[0:1]: 0xf-0x10 (1)
0x00|                                             7c|               ||                  [0]: "f64" (0x7c) t 0xf-0x10 (1)
    |                                               |                |    [1]{}: section 0x10-0x14 (4)
0x10|03                                             |.               |      id: "function_section" (3) 0x10-0x11 (1)
0x10|   02                                          | .              |      size: 2 (valid) 0x11-0x12 (1)
    |                                               |                |      content{}: 0x12-0x14 (2)
    |                                               |                |        x{}: 0x12-0x14 (2)
0x10|      01                                       |  .             |          n: 1 (valid) 0x12-0x13 (1)
    |                                               |                |          x[0:1]: 0x13-0x14 (1)
0x10|         00                                    |   .            |            [0]: 0 x (valid) 0x13-0x14 (1)
    |                                               |                |    [2]{}: section 0x14-0x1d (9)
0x10|            07                                 |    .           |      id: "export_section" (7) 0x14-0x15 (1)
0x10|               07                              |     .          |      size: 7 (valid) 0x15-0x16 (1)
    |                                               |                |      content{}: 0x16-0x1d (7)
    |                                               |                |        ex{}: 0x16-0x1d (7)
0x10|                  01                           |      .         |          n: 1 (valid) 0x16-0x17 (1)
    |                                               |                |          x[0:1]: 0x17-0x1d (6)
    |                                               |                |            [0]{}: ex 0x17-0x1d (6)
    |                                               |                |              nm{}: 0x17-0x1b (4)
0x10|                     03                        |       .        |                n: 3 (valid) 0x17-0x18 (1)
0x10|                        74 61 75               |        tau     |                b: "tau" 0x18-0x1b (3)
    |                                               |                |              d{}: 0x1b-0x1d (2)
0x10|                                 00            |           .    |                tag: "funcidx" (0x0) 0x1b-0x1c (1)
0x10|                                    00         |            .   |                x: 0 (valid) 0x1c-0x1d (1)
    |                                               |                |    [3]{}: section 0x1d-0xeb (206)
0x10|                                       0a      |             .  |      id: "code_section" (10) 0x1d-0x1e (1)
0x10|                                          cb 01|              ..|      size: 203 (valid) 0x1e-0x20 (2)
    |                                               |                |      content{}: 0x20-0xeb (203)
    |                                               |                |        code{}: 0x20-0xeb (203)
0x20|01                                             |.               |          n: 1 (valid) 0x20-0x21 (1)
    |                                               |                |          x[0:1]: 0x21-0xeb (202)
    |                                               |                |            [0]{}: code 0x21-0xeb (202)
0x20|   c8 01                                       | ..             |              size: 200 (valid) 0x21-0x23 (2)
    |                                               |                |              code{}: 0x23-0xeb (200)
    |                                               |                |                t{}: 0x23-0x26 (3)
0x20|         01                                    |   .            |                  n: 1 (valid) 0x23-0x24 (1)
    |                                               |                |                  x[0:1]: 0x24-0x26 (2)
    |                                               |                |                    [0]{}: t 0x24-0x26 (2)
0x20|            04                                 |    .           |                      n: 4 (valid) 0x24-0x25 (1)
0x20|               7c                              |     |          |                      t: "f64" (0x7c) 0x25-0x26 (1)
    |                                               |                |                e[0:5]: 0x26-0xeb (197)
    |                                               |                |                  [0]{}: in 0x26-0x2f (9)
0x20|                  44                           |      D         |                    opcode: "f64.const" (0x44) 0x26-0x27 (1)
0x20|                     00 00 00 00 00 00 00 00   |       ........ |                    z: 0 0x27-0x2f (8)
    |                                               |                |                  [1]{}: in 0x2f-0x31 (2)
0x20|                                             21|               !|                    opcode: "local.set" (0x21) 0x2f-0x30 (1)
0x30|01                                             |.               |                    x: 1 (valid) 0x30-0x31 (1)
    |                                               |                |                  [2]{}: in 0x31-0xe8 (183)
0x30|   02                                          | .              |                    opcode: "block" (0x2) 0x31-0x32 (1)
0x30|      40                                       |  @             |                    bt: "ε" (64) 0x32-0x33 (1)
    |                                               |                |                    instructions[0:9]: 0x33-0xe7 (180)
    |                                               |                |                      [0]{}: instr 0x33-0x35 (2)
0x30|         20                                    |                |                        opcode: "local.get" (0x20) 0x33-0x34 (1)
0x30|            00                                 |    .           |                        x: 0 (valid) 0x34-0x35 (1)
    |                                               |                |                      [1]{}: instr 0x35-0x37 (2)
0x30|               41                              |     A          |                        opcode: "i32.const" (0x41) 0x35-0x36 (1)
0x30|                  01                           |      .         |                        n: 1 (valid) 0x36-0x37 (1)
    |                                               |                |                      [2]{}: instr 0x37-0x38 (1)
0x30|                     48                        |       H        |                        opcode: "i32.lt_s" (0x48) 0x37-0x38 (1)
    |                                               |                |                      [3]{}: instr 0x38-0x3a (2)
0x30|                        0d                     |        .       |                        opcode: "br_if" (0xd) 0x38-0x39 (1)
0x30|                           00                  |         .      |                        l: 0 (valid) 0x39-0x3a (1)
    |                                               |                |                      [4]{}: instr 0x3a-0x43 (9)
0x30|                              44               |          D     |                        opcode: "f64.const" (0x44) 0x3a-0x3b (1)
0x30|                                 00 00 00 00 00|           .....|                        z: 1 0x3b-0x43 (8)
0x40|00 f0 3f                                       |..?             |
    |                                               |                |                      [5]{}: instr 0x43-0x45 (2)
0x40|         21                                    |   !            |                        opcode: "local.set" (0x21) 0x43-0x44 (1)
0x40|            02                                 |    .           |                        x: 2 (valid) 0x44-0x45 (1)
    |                                               |                |                      [6]{}: instr 0x45-0x4e (9)
0x40|               44                              |     D          |                        opcode: "f64.const" (0x44) 0x45-0x46 (1)
0x40|                  00 00 00 00 00 00 00 00      |      ........  |                        z: 0 0x46-0x4e (8)
    |                                               |                |                      [7]{}: instr 0x4e-0x50 (2)
0x40|                                          21   |              ! |                        opcode: "local.set" (0x21) 0x4e-0x4f (1)
0x40|                                             03|               .|                        x: 3 (valid) 0x4f-0x50 (1)
    |                                               |                |                      [8]{}: instr 0x50-0xe7 (151)
0x50|03                                             |.               |                        opcode: "loop" (0x3) 0x50-0x51 (1)
0x50|   40                                          | @              |                        bt: "ε" (64) 0x51-0x52 (1)
    |                                               |                |                        instructions[0:44]: 0x52-0xe6 (148)
    |                                               |                |                          [0]{}: instr 0x52-0x54 (2)
0x50|      20                                       |                |                            opcode: "local.get" (0x20) 0x52-0x53 (1)
0x50|         01                                    |   .            |                            x: 1 (valid) 0x53-0x54 (1)
    |                                               |                |                          [1]{}: instr 0x54-0x56 (2)
0x50|            20                                 |                |                            opcode: "local.get" (0x20) 0x54-0x55 (1)
0x50|               02                              |     .          |                            x: 2 (valid) 0x55-0x56 (1)
    |                                               |                |                          [2]{}: instr 0x56-0x5f (9)
0x50|                  44                           |      D         |                            opcode: "f64.const" (0x44) 0x56-0x57 (1)
0x50|                     00 00 00 00 00 00 20 40   |       ...... @ |                            z: 8 0x57-0x5f (8)
    |                                               |                |                          [3]{}: instr 0x5f-0x61 (2)
0x50|                                             20|                |                            opcode: "local.get" (0x20) 0x5f-0x60 (1)
0x60|03                                             |.               |                            x: 3 (valid) 0x60-0x61 (1)
    |                                               |                |                          [4]{}: instr 0x61-0x6a (9)
0x60|   44                                          | D              |                            opcode: "f64.const" (0x44) 0x61-0x62 (1)
0x60|      00 00 00 00 00 00 20 40                  |  ...... @      |                            z: 8 0x62-0x6a (8)
    |                                               |                |                          [5]{}: instr 0x6a-0x6b (1)
0x60|                              a2               |          .     |                            opcode: "f64.mul" (0xa2) 0x6a-0x6b (1)
    |                                               |                |                          [6]{}: instr 0x6b-0x6d (2)
0x60|                                 22            |           "    |                            opcode: "local.tee" (0x22) 0x6b-0x6c (1)
0x60|                                    04         |            .   |                            x: 4 (valid) 0x6c-0x6d (1)
    |                                               |                |                          [7]{}: instr 0x6d-0x76 (9)
0x60|                                       44      |             D  |                            opcode: "f64.const" (0x44) 0x6d-0x6e (1)
0x60|                                          00 00|              ..|                            z: 1 0x6e-0x76 (8)
0x70|00 00 00 00 f0 3f                              |.....?          |
    |                                               |                |                          [8]{}: instr 0x76-0x77 (1)
0x70|                  a0                           |      .         |                            opcode: "f64.add" (0xa0) 0x76-0x77 (1)
    |                                               |                |                          [9]{}: instr 0x77-0x78 (1)
0x70|                     a3                        |       .        |                            opcode: "f64.div" (0xa3) 0x77-0x78 (1)
    |                                               |                |                          [10]{}: instr 0x78-0x81 (9)
0x70|                        44                     |        D       |                            opcode: "f64.const" (0x44) 0x78-0x79 (1)
0x70|                           00 00 00 00 00 00 10|         .......|                            z: 4 0x79-0x81 (8)
0x80|40                                             |@               |
    |                                               |                |                          [11]{}: instr 0x81-0x83 (2)
0x80|   20                                          |                |                            opcode: "local.get" (0x20) 0x81-0x82 (1)
0x80|      04                                       |  .             |                            x: 4 (valid) 0x82-0x83 (1)
    |                                               |                |                          [12]{}: instr 0x83-0x8c (9)
0x80|         44                                    |   D            |                            opcode: "f64.const" (0x44) 0x83-0x84 (1)
0x80|            00 00 00 00 00 00 10 40            |    .......@    |                            z: 4 0x84-0x8c (8)
    |                                               |                |                          [13]{}: instr 0x8c-0x8d (1)
0x80|                                    a0         |            .   |                            opcode: "f64.add" (0xa0) 0x8c-0x8d (1)
    |                                               |                |                          [14]{}: instr 0x8d-0x8e (1)
0x80|                                       a3      |             .  |                            opcode: "f64.div" (0xa3) 0x8d-0x8e (1)
    |                                               |                |                          [15]{}: instr 0x8e-0x8f (1)
0x80|                                          a1   |              . |                            opcode: "f64.sub" (0xa1) 0x8e-0x8f (1)
    |                                               |                |                          [16]{}: instr 0x8f-0x98 (9)
0x80|                                             44|               D|                            opcode: "f64.const" (0x44) 0x8f-0x90 (1)
0x90|00 00 00 00 00 00 00 40                        |.......@        |                            z: 2 0x90-0x98 (8)
    |                                               |                |                          [17]{}: instr 0x98-0x9a (2)
0x90|                        20                     |                |                            opcode: "local.get" (0x20) 0x98-0x99 (1)
0x90|                           04                  |         .      |                            x: 4 (valid) 0x99-0x9a (1)
    |                                               |                |                          [18]{}: instr 0x9a-0xa3 (9)
0x90|                              44               |          D     |                            opcode: "f64.const" (0x44) 0x9a-0x9b (1)
0x90|                                 00 00 00 00 00|           .....|                            z: 5 0x9b-0xa3 (8)
0xa0|00 14 40                                       |..@             |
    |                                               |                |                          [19]{}: instr 0xa3-0xa4 (1)
0xa0|         a0                                    |   .            |                            opcode: "f64.add" (0xa0) 0xa3-0xa4 (1)
    |                                               |                |                          [20]{}: instr 0xa4-0xa5 (1)
0xa0|            a3                                 |    .           |                            opcode: "f64.div" (0xa3) 0xa4-0xa5 (1)
    |                                               |                |                          [21]{}: instr 0xa5-0xa6 (1)
0xa0|               a1                              |     .          |                            opcode: "f64.sub" (0xa1) 0xa5-0xa6 (1)
    |                                               |                |                          [22]{}: instr 0xa6-0xaf (9)
0xa0|                  44                           |      D         |                            opcode: "f64.const" (0x44) 0xa6-0xa7 (1)
0xa0|                     00 00 00 00 00 00 00 40   |       .......@ |                            z: 2 0xa7-0xaf (8)
    |                                               |                |                          [23]{}: instr 0xaf-0xb1 (2)
0xa0|                                             20|                |                            opcode: "local.get" (0x20) 0xaf-0xb0 (1)
0xb0|04                                             |.               |                            x: 4 (valid) 0xb0-0xb1 (1)
    |                                               |                |                          [24]{}: instr 0xb1-0xba (9)
0xb0|   44                                          | D              |                            opcode: "f64.const" (0x44) 0xb1-0xb2 (1)
0xb0|      00 00 00 00 00 00 18 40                  |  .......@      |                            z: 6 0xb2-0xba (8)
    |                                               |                |                          [25]{}: instr 0xba-0xbb (1)
0xb0|                              a0               |          .     |                            opcode: "f64.add" (0xa0) 0xba-0xbb (1)
    |                                               |                |                          [26]{}: instr 0xbb-0xbc (1)
0xb0|                                 a3            |           .    |                            opcode: "f64.div" (0xa3) 0xbb-0xbc (1)
    |                                               |                |                          [27]{}: instr 0xbc-0xbd (1)
0xb0|                                    a1         |            .   |                            opcode: "f64.sub" (0xa1) 0xbc-0xbd (1)
    |                                               |                |                          [28]{}: instr 0xbd-0xbe (1)
0xb0|                                       a2      |             .  |                            opcode: "f64.mul" (0xa2) 0xbd-0xbe (1)
    |                                               |                |                          [29]{}: instr 0xbe-0xbf (1)
0xb0|                                          a0   |              . |                            opcode: "f64.add" (0xa0) 0xbe-0xbf (1)
    |                                               |                |                          [30]{}: instr 0xbf-0xc1 (2)
0xb0|                                             21|               !|                            opcode: "local.set" (0x21) 0xbf-0xc0 (1)
0xc0|01                                             |.               |                            x: 1 (valid) 0xc0-0xc1 (1)
    |                                               |                |                          [31]{}: instr 0xc1-0xc3 (2)
0xc0|   20                                          |                |                            opcode: "local.get" (0x20) 0xc1-0xc2 (1)
0xc0|      03                                       |  .             |                            x: 3 (valid) 0xc2-0xc3 (1)
    |                                               |                |                          [32]{}: instr 0xc3-0xcc (9)
0xc0|         44                                    |   D            |                            opcode: "f64.const" (0x44) 0xc3-0xc4 (1)
0xc0|            00 00 00 00 00 00 f0 3f            |    .......?    |                            z: 1 0xc4-0xcc (8)
    |                                               |                |                          [33]{}: instr 0xcc-0xcd (1)
0xc0|                                    a0         |            .   |                            opcode: "f64.add" (0xa0) 0xcc-0xcd (1)
    |                                               |                |                          [34]{}: instr 0xcd-0xcf (2)
0xc0|                                       21      |             !  |                            opcode: "local.set" (0x21) 0xcd-0xce (1)
0xc0|                                          03   |              . |                            x: 3 (valid) 0xce-0xcf (1)
    |                                               |                |                          [35]{}: instr 0xcf-0xd1 (2)
0xc0|                                             20|                |                            opcode: "local.get" (0x20) 0xcf-0xd0 (1)
0xd0|02                                             |.               |                            x: 2 (valid) 0xd0-0xd1 (1)
    |                                               |                |                          [36]{}: instr 0xd1-0xda (9)
0xd0|   44                                          | D              |                            opcode: "f64.const" (0x44) 0xd1-0xd2 (1)
0xd0|      00 00 00 00 00 00 b0 3f                  |  .......?      |                            z: 0.0625 0xd2-0xda (8)
    |                                               |                |                          [37]{}: instr 0xda-0xdb (1)
0xd0|                              a2               |          .     |                            opcode: "f64.mul" (0xa2) 0xda-0xdb (1)
    |                                               |                |                          [38]{}: instr 0xdb-0xdd (2)
0xd0|                                 21            |           !    |                            opcode: "local.set" (0x21) 0xdb-0xdc (1)
0xd0|                                    02         |            .   |                            x: 2 (valid) 0xdc-0xdd (1)
    |                                               |                |                          [39]{}: instr 0xdd-0xdf (2)
0xd0|                                       20      |                |                            opcode: "local.get" (0x20) 0xdd-0xde (1)
0xd0|                                          00   |              . |                            x: 0 (valid) 0xde-0xdf (1)
    |                                               |                |                          [40]{}: instr 0xdf-0xe1 (2)
0xd0|                                             41|               A|                            opcode: "i32.const" (0x41) 0xdf-0xe0 (1)
0xe0|7f                                             |.               |                            n: -1 (valid) 0xe0-0xe1 (1)
    |                                               |                |                          [41]{}: instr 0xe1-0xe2 (1)
0xe0|   6a                                          | j              |                            opcode: "i32.add" (0x6a) 0xe1-0xe2 (1)
    |                                               |                |                          [42]{}: instr 0xe2-0xe4 (2)
0xe0|      22                                       |  "             |                            opcode: "local.tee" (0x22) 0xe2-0xe3 (1)
0xe0|         00                                    |   .            |                            x: 0 (valid) 0xe3-0xe4 (1)
    |                                               |                |                          [43]{}: instr 0xe4-0xe6 (2)
0xe0|            0d                                 |    .           |                            opcode: "br_if" (0xd) 0xe4-0xe5 (1)
0xe0|               00                              |     .          |                            l: 0 (valid) 0xe5-0xe6 (1)
0xe0|                  0b                           |      .         |                        end: 0xb (valid) 0xe6-0xe7 (1)
0xe0|                     0b                        |       .        |                    end: 0xb (valid) 0xe7-0xe8 (1)
    |                                               |                |                  [3]{}: in 0xe8-0xea (2)
0xe0|                        20                     |                |                    opcode: "local.get" (0x20) 0xe8-0xe9 (1)
0xe0|                           01                  |         .      |                    x: 1 (valid) 0xe9-0xea (1)
    |                                               |                |                  [4]{}: in 0xea-0xeb (1)
0xe0|                              0b|              |          .|    |                    opcode: "end" (0xb) 0xea-0xeb (1)
