$ fq -d wasm dv float_exprs-38.wasm
    |00 01 02 03 04 05 06 07 08 09 0a 0b 0c 0d 0e 0f|0123456789abcdef|.{}: float_exprs-38.wasm (wasm) 0x0-0x3b (59)
0x00|00 61 73 6d                                    |.asm            |  magic: raw bits (valid) 0x0-0x4 (4)
0x00|            01 00 00 00                        |    ....        |  version: 1 0x4-0x8 (4)
    |                                               |                |  sections[0:4]: 0x8-0x3b (51)
    |                                               |                |    [0]{}: section 0x8-0x11 (9)
0x00|                        01                     |        .       |      id: "type_section" (1) 0x8-0x9 (1)
0x00|                           07                  |         .      |      size: 7 (valid) 0x9-0xa (1)
    |                                               |                |      content{}: 0xa-0x11 (7)
    |                                               |                |        ft{}: 0xa-0x11 (7)
0x00|                              01               |          .     |          n: 1 (valid) 0xa-0xb (1)
    |                                               |                |          x[0:1]: 0xb-0x11 (6)
    |                                               |                |            [0]{}: ft 0xb-0x11 (6)
0x00|                                 60            |           `    |              tag: 0x60 (valid) 0xb-0xc (1)
    |                                               |                |              rt1{}: 0xc-0xf (3)
0x00|                                    02         |            .   |                n: 2 (valid) 0xc-0xd (1)
    |                                               |                |                x[0:2]: 0xd-0xf (2)
0x00|                                       7c      |             |  |                  [0]: "f64" (0x7c) t 0xd-0xe (1)
0x00|                                          7d   |              } |                  [1]: "f32" (0x7d) t 0xe-0xf (1)
    |                                               |                |              rt2{}: 0xf-0x11 (2)
0x00|                                             01|               .|                n: 1 (valid) 0xf-0x10 (1)
    |                                               |                |                x[0:1]: 0x10-0x11 (1)
0x10|7d                                             |}               |                  [0]: "f32" (0x7d) t 0x10-0x11 (1)
    |                                               |                |    [1]{}: section 0x11-0x15 (4)
0x10|   03                                          | .              |      id: "function_section" (3) 0x11-0x12 (1)
0x10|      02                                       |  .             |      size: 2 (valid) 0x12-0x13 (1)
    |                                               |                |      content{}: 0x13-0x15 (2)
    |                                               |                |        x{}: 0x13-0x15 (2)
0x10|         01                                    |   .            |          n: 1 (valid) 0x13-0x14 (1)
    |                                               |                |          x[0:1]: 0x14-0x15 (1)
0x10|            00                                 |    .           |            [0]: 0 x (valid) 0x14-0x15 (1)
    |                                               |                |    [2]{}: section 0x15-0x2e (25)
0x10|               07                              |     .          |      id: "export_section" (7) 0x15-0x16 (1)
0x10|                  17                           |      .         |      size: 23 (valid) 0x16-0x17 (1)
    |                                               |                |      content{}: 0x17-0x2e (23)
    |                                               |                |        ex{}: 0x17-0x2e (23)
0x10|                     01                        |       .        |          n: 1 (valid) 0x17-0x18 (1)
    |                                               |                |          x[0:1]: 0x18-0x2e (22)
    |                                               |                |            [0]{}: ex 0x18-0x2e (22)
    |                                               |                |              nm{}: 0x18-0x2c (20)
0x10|                        13                     |        .       |                n: 19 (valid) 0x18-0x19 (1)
0x10|                           6e 6f 5f 64 65 6d 6f|         no_demo|                b: "no_demote_mixed_sub" 0x19-0x2c (19)
0x20|74 65 5f 6d 69 78 65 64 5f 73 75 62            |te_mixed_sub    |
    |                                               |                |              d{}: 0x2c-0x2e (2)
0x20|                                    00         |            .   |                tag: "funcidx" (0x0) 0x2c-0x2d (1)
0x20|                                       00      |             .  |                x: 0 (valid) 0x2d-0x2e (1)
    |                                               |                |    [3]{}: section 0x2e-0x3b (13)
0x20|                                          0a   |              . |      id: "code_section" (10) 0x2e-0x2f (1)
0x20|                                             0b|               .|      size: 11 (valid) 0x2f-0x30 (1)
    |                                               |                |      content{}: 0x30-0x3b (11)
    |                                               |                |        code{}: 0x30-0x3b (11)
0x30|01                                             |.               |          n: 1 (valid) 0x30-0x31 (1)
    |                                               |                |          x[0:1]: 0x31-0x3b (10)
    |                                               |                |            [0]{}: code 0x31-0x3b (10)
0x30|   09                                          | .              |              size: 9 (valid) 0x31-0x32 (1)
    |                                               |                |              code{}: 0x32-0x3b (9)
    |                                               |                |                t{}: 0x32-0x33 (1)
0x30|      00                                       |  .             |                  n: 0 (valid) 0x32-0x33 (1)
    |                                               |                |                  x[0:0]: 0x33-0x33 (0)
    |                                               |                |                e[0:6]: 0x33-0x3b (8)
    |                                               |                |                  [0]{}: in 0x33-0x35 (2)
0x30|         20                                    |                |                    opcode: "local.get" (0x20) 0x33-0x34 (1)
0x30|            00                                 |    .           |                    x: 0 (valid) 0x34-0x35 (1)
    |                                               |                |                  [1]{}: in 0x35-0x37 (2)
0x30|               20                              |                |                    opcode: "local.get" (0x20) 0x35-0x36 (1)
0x30|                  01                           |      .         |                    x: 1 (valid) 0x36-0x37 (1)
    |                                               |                |                  [2]{}: in 0x37-0x38 (1)
0x30|                     bb                        |       .        |                    opcode: "f64.promote_f32" (0xbb) 0x37-0x38 (1)
    |                                               |                |                  [3]{}: in 0x38-0x39 (1)
0x30|                        a1                     |        .       |                    opcode: "f64.sub" (0xa1) 0x38-0x39 (1)
    |                                               |                |                  [4]{}: in 0x39-0x3a (1)
0x30|                           b6                  |         .      |                    opcode: "f32.demote_f64" (0xb6) 0x39-0x3a (1)
    |                                               |                |                  [5]{}: in 0x3a-0x3b (1)
0x30|                              0b|              |          .|    |                    opcode: "end" (0xb) 0x3a-0x3b (1)
