$ fq -d wasm dv float_exprs-27.wasm
    |00 01 02 03 04 05 06 07 08 09 0a 0b 0c 0d 0e 0f|0123456789abcdef|.{}: float_exprs-27.wasm (wasm) 0x0-0x7f (127)
0x00|00 61 73 6d                                    |.asm            |  magic: raw bits (valid) 0x0-0x4 (4)
0x00|            01 00 00 00                        |    ....        |  version: 1 0x4-0x8 (4)
    |                                               |                |  sections[0:4]: 0x8-0x7f (119)
    |                                               |                |    [0]{}: section 0x8-0x15 (13)
0x00|                        01                     |        .       |      id: "type_section" (1) 0x8-0x9 (1)
0x00|                           0b                  |         .      |      size: 11 (valid) 0x9-0xa (1)
    |                                               |                |      content{}: 0xa-0x15 (11)
    |                                               |                |        ft{}: 0xa-0x15 (11)
0x00|                              02               |          .     |          n: 2 (valid) 0xa-0xb (1)
    |                                               |                |          x[0:2]: 0xb-0x15 (10)
    |                                               |                |            [0]{}: ft 0xb-0x10 (5)
0x00|                                 60            |           `    |              tag: 0x60 (valid) 0xb-0xc (1)
    |                                               |                |              rt1{}: 0xc-0xe (2)
0x00|                                    01         |            .   |                n: 1 (valid) 0xc-0xd (1)
    |                                               |                |                x[0:1]: 0xd-0xe (1)
0x00|                                       7d      |             }  |                  [0]: "f32" (0x7d) t 0xd-0xe (1)
    |                                               |                |              rt2{}: 0xe-0x10 (2)
0x00|                                          01   |              . |                n: 1 (valid) 0xe-0xf (1)
    |                                               |                |                x[0:1]: 0xf-0x10 (1)
0x00|                                             7d|               }|                  [0]: "f32" (0x7d) t 0xf-0x10 (1)
    |                                               |                |            [1]{}: ft 0x10-0x15 (5)
0x10|60                                             |`               |              tag: 0x60 (valid) 0x10-0x11 (1)
    |                                               |                |              rt1{}: 0x11-0x13 (2)
0x10|   01                                          | .              |                n: 1 (valid) 0x11-0x12 (1)
    |                                               |                |                x[0:1]: 0x12-0x13 (1)
0x10|      7c                                       |  |             |                  [0]: "f64" (0x7c) t 0x12-0x13 (1)
    |                                               |                |              rt2{}: 0x13-0x15 (2)
0x10|         01                                    |   .            |                n: 1 (valid) 0x13-0x14 (1)
    |                                               |                |                x[0:1]: 0x14-0x15 (1)
0x10|            7c                                 |    |           |                  [0]: "f64" (0x7c) t 0x14-0x15 (1)
    |                                               |                |    [1]{}: section 0x15-0x1a (5)
0x10|               03                              |     .          |      id: "function_section" (3) 0x15-0x16 (1)
0x10|                  03                           |      .         |      size: 3 (valid) 0x16-0x17 (1)
    |                                               |                |      content{}: 0x17-0x1a (3)
    |                                               |                |        x{}: 0x17-0x1a (3)
0x10|                     02                        |       .        |          n: 2 (valid) 0x17-0x18 (1)
    |                                               |                |          x[0:2]: 0x18-0x1a (2)
0x10|                        00                     |        .       |            [0]: 0 x (valid) 0x18-0x19 (1)
0x10|                           01                  |         .      |            [1]: 1 x (valid) 0x19-0x1a (1)
    |                                               |                |    [2]{}: section 0x1a-0x60 (70)
0x10|                              07               |          .     |      id: "export_section" (7) 0x1a-0x1b (1)
0x10|                                 44            |           D    |      size: 68 (valid) 0x1b-0x1c (1)
    |                                               |                |      content{}: 0x1c-0x60 (68)
    |                                               |                |        ex{}: 0x1c-0x60 (68)
0x10|                                    02         |            .   |          n: 2 (valid) 0x1c-0x1d (1)
    |                                               |                |          x[0:2]: 0x1d-0x60 (67)
    |                                               |                |            [0]{}: ex 0x1d-0x42 (37)
    |                                               |                |              nm{}: 0x1d-0x40 (35)
0x10|                                       22      |             "  |                n: 34 (valid) 0x1d-0x1e (1)
0x10|                                          66 33|              f3|                b: "f32.no_approximate_reciprocal_sqrt" 0x1e-0x40 (34)
0x20|32 2e 6e 6f 5f 61 70 70 72 6f 78 69 6d 61 74 65|2.no_approximate|
0x30|5f 72 65 63 69 70 72 6f 63 61 6c 5f 73 71 72 74|_reciprocal_sqrt|
    |                                               |                |              d{}: 0x40-0x42 (2)
0x40|00                                             |.               |                tag: "funcidx" (0x0) 0x40-0x41 (1)
0x40|   00                                          | .              |                x: 0 (valid) 0x41-0x42 (1)
    |                                               |                |            [1]{}: ex 0x42-0x60 (30)
    |                                               |                |              nm{}: 0x42-0x5e (28)
0x40|      1b                                       |  .             |                n: 27 (valid) 0x42-0x43 (1)
0x40|         66 36 34 2e 6e 6f 5f 66 75 73 65 5f 72|   f64.no_fuse_r|                b: "f64.no_fuse_reciprocal_sqrt" 0x43-0x5e (27)
0x50|65 63 69 70 72 6f 63 61 6c 5f 73 71 72 74      |eciprocal_sqrt  |
    |                                               |                |              d{}: 0x5e-0x60 (2)
0x50|                                          00   |              . |                tag: "funcidx" (0x0) 0x5e-0x5f (1)
0x50|                                             01|               .|                x: 1 (valid) 0x5f-0x60 (1)
    |                                               |                |    [3]{}: section 0x60-0x7f (31)
0x60|0a                                             |.               |      id: "code_section" (10) 0x60-0x61 (1)
0x60|   1d                                          | .              |      size: 29 (valid) 0x61-0x62 (1)
    |                                               |                |      content{}: 0x62-0x7f (29)
    |                                               |                |        code{}: 0x62-0x7f (29)
0x60|      02                                       |  .             |          n: 2 (valid) 0x62-0x63 (1)
    |                                               |                |          x[0:2]: 0x63-0x7f (28)
    |                                               |                |            [0]{}: code 0x63-0x6f (12)
0x60|         0b                                    |   .            |              size: 11 (valid) 0x63-0x64 (1)
    |                                               |                |              code{}: 0x64-0x6f (11)
    |                                               |                |                t{}: 0x64-0x65 (1)
0x60|            00                                 |    .           |                  n: 0 (valid) 0x64-0x65 (1)
    |                                               |                |                  x[0:0]: 0x65-0x65 (0)
    |                                               |                |                e[0:5]: 0x65-0x6f (10)
    |                                               |                |                  [0]{}: in 0x65-0x6a (5)
0x60|               43                              |     C          |                    opcode: "f32.const" (0x43) 0x65-0x66 (1)
0x60|                  00 00 80 3f                  |      ...?      |                    z: 1 0x66-0x6a (4)
    |                                               |                |                  [1]{}: in 0x6a-0x6c (2)
0x60|                              20               |                |                    opcode: "local.get" (0x20) 0x6a-0x6b (1)
0x60|                                 00            |           .    |                    x: 0 (valid) 0x6b-0x6c (1)
    |                                               |                |                  [2]{}: in 0x6c-0x6d (1)
0x60|                                    91         |            .   |                    opcode: "f32.sqrt" (0x91) 0x6c-0x6d (1)
    |                                               |                |                  [3]{}: in 0x6d-0x6e (1)
0x60|                                       95      |             .  |                    opcode: "f32.div" (0x95) 0x6d-0x6e (1)
    |                                               |                |                  [4]{}: in 0x6e-0x6f (1)
0x60|                                          0b   |              . |                    opcode: "end" (0xb) 0x6e-0x6f (1)
    |                                               |                |            [1]{}: code 0x6f-0x7f (16)
0x60|                                             0f|               .|              size: 15 (valid) 0x6f-0x70 (1)
    |                                               |                |              code{}: 0x70-0x7f (15)
    |                                               |                |                t{}: 0x70-0x71 (1)
0x70|00                                             |.               |                  n: 0 (valid) 0x70-0x71 (1)
    |                                               |                |                  x[0:0]: 0x71-0x71 (0)
    |                                               |                |                e[0:5]: 0x71-0x7f (14)
    |                                               |                |                  [0]{}: in 0x71-0x7a (9)
0x70|   44                                          | D              |                    opcode: "f64.const" (0x44) 0x71-0x72 (1)
0x70|      00 00 00 00 00 00 f0 3f                  |  .......?      |                    z: 1 0x72-0x7a (8)
    |                                               |                |                  [1]{}: in 0x7a-0x7c (2)
0x70|                              20               |                |                    opcode: "local.get" (0x20) 0x7a-0x7b (1)
0x70|                                 00            |           .    |                    x: 0 (valid) 0x7b-0x7c (1)
    |                                               |                |                  [2]{}: in 0x7c-0x7d (1)
0x70|                                    9f         |            .   |                    opcode: "f64.sqrt" (0x9f) 0x7c-0x7d (1)
    |                                               |                |                  [3]{}: in 0x7d-0x7e (1)
0x70|                                       a3      |             .  |                    opcode: "f64.div" (0xa3) 0x7d-0x7e (1)
    |                                               |                |                  [4]{}: in 0x7e-0x7f (1)
0x70|                                          0b|  |              .||                    opcode: "end" (0xb) 0x7e-0x7f (1)
