$ fq -d wasm dv float_exprs-95.wasm
    |00 01 02 03 04 05 06 07 08 09 0a 0b 0c 0d 0e 0f|0123456789abcdef|.{}: float_exprs-95.wasm (wasm) 0x0-0x91.7 (146)
0x00|00 61 73 6d                                    |.asm            |  magic: raw bits (valid) 0x0-0x3.7 (4)
0x00|            01 00 00 00                        |    ....        |  version: 1 0x4-0x7.7 (4)
    |                                               |                |  sections[0:4]: 0x8-0x91.7 (138)
    |                                               |                |    [0]{}: section 0x8-0x16.7 (15)
0x00|                        01                     |        .       |      id: "type section" (1) 0x8-0x8.7 (1)
0x00|                           0d                  |         .      |      size: 13 0x9-0x9.7 (1)
    |                                               |                |      content{}: 0xa-0x16.7 (13)
    |                                               |                |        ft{}: 0xa-0x16.7 (13)
0x00|                              02               |          .     |          n: 2 0xa-0xa.7 (1)
    |                                               |                |          x[0:2]: 0xb-0x16.7 (12)
    |                                               |                |            [0]{}: ft 0xb-0x10.7 (6)
0x00|                                 60            |           `    |              tag: 0x60 (valid) 0xb-0xb.7 (1)
    |                                               |                |              rt1{}: 0xc-0xe.7 (3)
0x00|                                    02         |            .   |                n: 2 0xc-0xc.7 (1)
    |                                               |                |                x[0:2]: 0xd-0xe.7 (2)
0x00|                                       7d      |             }  |                  [0]: "f32" (0x7d) t 0xd-0xd.7 (1)
0x00|                                          7d   |              } |                  [1]: "f32" (0x7d) t 0xe-0xe.7 (1)
    |                                               |                |              rt2{}: 0xf-0x10.7 (2)
0x00|                                             01|               .|                n: 1 0xf-0xf.7 (1)
    |                                               |                |                x[0:1]: 0x10-0x10.7 (1)
0x10|7d                                             |}               |                  [0]: "f32" (0x7d) t 0x10-0x10.7 (1)
    |                                               |                |            [1]{}: ft 0x11-0x16.7 (6)
0x10|   60                                          | `              |              tag: 0x60 (valid) 0x11-0x11.7 (1)
    |                                               |                |              rt1{}: 0x12-0x14.7 (3)
0x10|      02                                       |  .             |                n: 2 0x12-0x12.7 (1)
    |                                               |                |                x[0:2]: 0x13-0x14.7 (2)
0x10|         7c                                    |   |            |                  [0]: "f64" (0x7c) t 0x13-0x13.7 (1)
0x10|            7c                                 |    |           |                  [1]: "f64" (0x7c) t 0x14-0x14.7 (1)
    |                                               |                |              rt2{}: 0x15-0x16.7 (2)
0x10|               01                              |     .          |                n: 1 0x15-0x15.7 (1)
    |                                               |                |                x[0:1]: 0x16-0x16.7 (1)
0x10|                  7c                           |      |         |                  [0]: "f64" (0x7c) t 0x16-0x16.7 (1)
    |                                               |                |    [1]{}: section 0x17-0x1b.7 (5)
0x10|                     03                        |       .        |      id: "function section" (3) 0x17-0x17.7 (1)
0x10|                        03                     |        .       |      size: 3 0x18-0x18.7 (1)
    |                                               |                |      content{}: 0x19-0x1b.7 (3)
    |                                               |                |        x{}: 0x19-0x1b.7 (3)
0x10|                           02                  |         .      |          n: 2 0x19-0x19.7 (1)
    |                                               |                |          x[0:2]: 0x1a-0x1b.7 (2)
0x10|                              00               |          .     |            [0]: 0 x 0x1a-0x1a.7 (1)
0x10|                                 01            |           .    |            [1]: 1 x 0x1b-0x1b.7 (1)
    |                                               |                |    [2]{}: section 0x1c-0x5a.7 (63)
0x10|                                    07         |            .   |      id: "export section" (7) 0x1c-0x1c.7 (1)
0x10|                                       3d      |             =  |      size: 61 0x1d-0x1d.7 (1)
    |                                               |                |      content{}: 0x1e-0x5a.7 (61)
    |                                               |                |        ex{}: 0x1e-0x5a.7 (61)
0x10|                                          02   |              . |          n: 2 0x1e-0x1e.7 (1)
    |                                               |                |          x[0:2]: 0x1f-0x5a.7 (60)
    |                                               |                |            [0]{}: ex 0x1f-0x3c.7 (30)
    |                                               |                |              nm{}: 0x1f-0x3a.7 (28)
0x10|                                             1b|               .|                n: 27 0x1f-0x1f.7 (1)
0x20|66 33 32 2e 6e 6f 5f 66 6f 6c 64 5f 63 6f 6e 64|f32.no_fold_cond|                b: "f32.no_fold_conditional_inc" 0x20-0x3a.7 (27)
0x30|69 74 69 6f 6e 61 6c 5f 69 6e 63               |itional_inc     |
    |                                               |                |              d{}: 0x3b-0x3c.7 (2)
0x30|                                 00            |           .    |                tag: "funcidx" (0x0) 0x3b-0x3b.7 (1)
0x30|                                    00         |            .   |                x: 0 0x3c-0x3c.7 (1)
    |                                               |                |            [1]{}: ex 0x3d-0x5a.7 (30)
    |                                               |                |              nm{}: 0x3d-0x58.7 (28)
0x30|                                       1b      |             .  |                n: 27 0x3d-0x3d.7 (1)
0x30|                                          66 36|              f6|                b: "f64.no_fold_conditional_inc" 0x3e-0x58.7 (27)
0x40|34 2e 6e 6f 5f 66 6f 6c 64 5f 63 6f 6e 64 69 74|4.no_fold_condit|
0x50|69 6f 6e 61 6c 5f 69 6e 63                     |ional_inc       |
    |                                               |                |              d{}: 0x59-0x5a.7 (2)
0x50|                           00                  |         .      |                tag: "funcidx" (0x0) 0x59-0x59.7 (1)
0x50|                              01               |          .     |                x: 1 0x5a-0x5a.7 (1)
    |                                               |                |    [3]{}: section 0x5b-0x91.7 (55)
0x50|                                 0a            |           .    |      id: "code section" (10) 0x5b-0x5b.7 (1)
0x50|                                    35         |            5   |      size: 53 0x5c-0x5c.7 (1)
    |                                               |                |      content{}: 0x5d-0x91.7 (53)
    |                                               |                |        code{}: 0x5d-0x91.7 (53)
0x50|                                       02      |             .  |          n: 2 0x5d-0x5d.7 (1)
    |                                               |                |          x[0:2]: 0x5e-0x91.7 (52)
    |                                               |                |            [0]{}: code 0x5e-0x73.7 (22)
0x50|                                          15   |              . |              size: 21 0x5e-0x5e.7 (1)
    |                                               |                |              code{}: 0x5f-0x73.7 (21)
    |                                               |                |                t{}: 0x5f-0x5f.7 (1)
0x50|                                             00|               .|                  n: 0 0x5f-0x5f.7 (1)
    |                                               |                |                  x[0:0]: 0x60-NA (0)
    |                                               |                |                e[0:9]: 0x60-0x73.7 (20)
    |                                               |                |                  [0]{}: in 0x60-0x61.7 (2)
0x60|20                                             |                |                    local.get: 0x20 (valid) 0x60-0x60.7 (1)
0x60|   00                                          | .              |                    x: 0 0x61-0x61.7 (1)
    |                                               |                |                  [1]{}: in 0x62-0x63.7 (2)
0x60|      20                                       |                |                    local.get: 0x20 (valid) 0x62-0x62.7 (1)
0x60|         00                                    |   .            |                    x: 0 0x63-0x63.7 (1)
    |                                               |                |                  [2]{}: in 0x64-0x68.7 (5)
0x60|            43                                 |    C           |                    f32.const: 0x43 (valid) 0x64-0x64.7 (1)
0x60|               00 00 80 3f                     |     ...?       |                    z: 1 0x65-0x68.7 (4)
    |                                               |                |                  [3]{}: in 0x69-0x69.7 (1)
0x60|                           92                  |         .      |                    f32.add: 0x92 (valid) 0x69-0x69.7 (1)
    |                                               |                |                  [4]{}: in 0x6a-0x6b.7 (2)
0x60|                              20               |                |                    local.get: 0x20 (valid) 0x6a-0x6a.7 (1)
0x60|                                 01            |           .    |                    x: 1 0x6b-0x6b.7 (1)
    |                                               |                |                  [5]{}: in 0x6c-0x70.7 (5)
0x60|                                    43         |            C   |                    f32.const: 0x43 (valid) 0x6c-0x6c.7 (1)
0x60|                                       00 00 00|             ...|                    z: 0 0x6d-0x70.7 (4)
0x70|00                                             |.               |
    |                                               |                |                  [6]{}: in 0x71-0x71.7 (1)
0x70|   5d                                          | ]              |                    f32.lt: 0x5d (valid) 0x71-0x71.7 (1)
    |                                               |                |                  [7]{}: in 0x72-0x72.7 (1)
0x70|      1b                                       |  .             |                    select: 0x1b (valid) 0x72-0x72.7 (1)
    |                                               |                |                  [8]{}: in 0x73-0x73.7 (1)
0x70|         0b                                    |   .            |                    end: 0xb (valid) 0x73-0x73.7 (1)
    |                                               |                |            [1]{}: code 0x74-0x91.7 (30)
0x70|            1d                                 |    .           |              size: 29 0x74-0x74.7 (1)
    |                                               |                |              code{}: 0x75-0x91.7 (29)
    |                                               |                |                t{}: 0x75-0x75.7 (1)
0x70|               00                              |     .          |                  n: 0 0x75-0x75.7 (1)
    |                                               |                |                  x[0:0]: 0x76-NA (0)
    |                                               |                |                e[0:9]: 0x76-0x91.7 (28)
    |                                               |                |                  [0]{}: in 0x76-0x77.7 (2)
0x70|                  20                           |                |                    local.get: 0x20 (valid) 0x76-0x76.7 (1)
0x70|                     00                        |       .        |                    x: 0 0x77-0x77.7 (1)
    |                                               |                |                  [1]{}: in 0x78-0x79.7 (2)
0x70|                        20                     |                |                    local.get: 0x20 (valid) 0x78-0x78.7 (1)
0x70|                           00                  |         .      |                    x: 0 0x79-0x79.7 (1)
    |                                               |                |                  [2]{}: in 0x7a-0x82.7 (9)
0x70|                              44               |          D     |                    f64.const: 0x44 (valid) 0x7a-0x7a.7 (1)
0x70|                                 00 00 00 00 00|           .....|                    z: 1 0x7b-0x82.7 (8)
0x80|00 f0 3f                                       |..?             |
    |                                               |                |                  [3]{}: in 0x83-0x83.7 (1)
0x80|         a0                                    |   .            |                    f64.add: 0xa0 (valid) 0x83-0x83.7 (1)
    |                                               |                |                  [4]{}: in 0x84-0x85.7 (2)
0x80|            20                                 |                |                    local.get: 0x20 (valid) 0x84-0x84.7 (1)
0x80|               01                              |     .          |                    x: 1 0x85-0x85.7 (1)
    |                                               |                |                  [5]{}: in 0x86-0x8e.7 (9)
0x80|                  44                           |      D         |                    f64.const: 0x44 (valid) 0x86-0x86.7 (1)
0x80|                     00 00 00 00 00 00 00 00   |       ........ |                    z: 0 0x87-0x8e.7 (8)
    |                                               |                |                  [6]{}: in 0x8f-0x8f.7 (1)
0x80|                                             63|               c|                    f64.lt: 0x63 (valid) 0x8f-0x8f.7 (1)
    |                                               |                |                  [7]{}: in 0x90-0x90.7 (1)
0x90|1b                                             |.               |                    select: 0x1b (valid) 0x90-0x90.7 (1)
    |                                               |                |                  [8]{}: in 0x91-0x91.7 (1)
0x90|   0b|                                         | .|             |                    end: 0xb (valid) 0x91-0x91.7 (1)
