$ fq -d wasm dv float_exprs-81.wasm
    |00 01 02 03 04 05 06 07 08 09 0a 0b 0c 0d 0e 0f|0123456789abcdef|.{}: float_exprs-81.wasm (wasm) 0x0-0x7e (126)
0x00|00 61 73 6d                                    |.asm            |  magic: raw bits (valid) 0x0-0x4 (4)
0x00|            01 00 00 00                        |    ....        |  version: 1 0x4-0x8 (4)
    |                                               |                |  sections[0:4]: 0x8-0x7e (118)
    |                                               |                |    [0]{}: section 0x8-0x17 (15)
0x00|                        01                     |        .       |      id: "type_section" (1) 0x8-0x9 (1)
0x00|                           0d                  |         .      |      size: 13 (valid) 0x9-0xa (1)
    |                                               |                |      content{}: 0xa-0x17 (13)
    |                                               |                |        ft{}: 0xa-0x17 (13)
0x00|                              02               |          .     |          n: 2 (valid) 0xa-0xb (1)
    |                                               |                |          x[0:2]: 0xb-0x17 (12)
    |                                               |                |            [0]{}: ft 0xb-0x11 (6)
0x00|                                 60            |           `    |              tag: 0x60 (valid) 0xb-0xc (1)
    |                                               |                |              rt1{}: 0xc-0xf (3)
0x00|                                    02         |            .   |                n: 2 (valid) 0xc-0xd (1)
    |                                               |                |                x[0:2]: 0xd-0xf (2)
0x00|                                       7d      |             }  |                  [0]: "f32" (0x7d) t 0xd-0xe (1)
0x00|                                          7d   |              } |                  [1]: "f32" (0x7d) t 0xe-0xf (1)
    |                                               |                |              rt2{}: 0xf-0x11 (2)
0x00|                                             01|               .|                n: 1 (valid) 0xf-0x10 (1)
    |                                               |                |                x[0:1]: 0x10-0x11 (1)
0x10|7d                                             |}               |                  [0]: "f32" (0x7d) t 0x10-0x11 (1)
    |                                               |                |            [1]{}: ft 0x11-0x17 (6)
0x10|   60                                          | `              |              tag: 0x60 (valid) 0x11-0x12 (1)
    |                                               |                |              rt1{}: 0x12-0x15 (3)
0x10|      02                                       |  .             |                n: 2 (valid) 0x12-0x13 (1)
    |                                               |                |                x[0:2]: 0x13-0x15 (2)
0x10|         7c                                    |   |            |                  [0]: "f64" (0x7c) t 0x13-0x14 (1)
0x10|            7c                                 |    |           |                  [1]: "f64" (0x7c) t 0x14-0x15 (1)
    |                                               |                |              rt2{}: 0x15-0x17 (2)
0x10|               01                              |     .          |                n: 1 (valid) 0x15-0x16 (1)
    |                                               |                |                x[0:1]: 0x16-0x17 (1)
0x10|                  7c                           |      |         |                  [0]: "f64" (0x7c) t 0x16-0x17 (1)
    |                                               |                |    [1]{}: section 0x17-0x1c (5)
0x10|                     03                        |       .        |      id: "function_section" (3) 0x17-0x18 (1)
0x10|                        03                     |        .       |      size: 3 (valid) 0x18-0x19 (1)
    |                                               |                |      content{}: 0x19-0x1c (3)
    |                                               |                |        x{}: 0x19-0x1c (3)
0x10|                           02                  |         .      |          n: 2 (valid) 0x19-0x1a (1)
    |                                               |                |          x[0:2]: 0x1a-0x1c (2)
0x10|                              00               |          .     |            [0]: 0 x (valid) 0x1a-0x1b (1)
0x10|                                 01            |           .    |            [1]: 1 x (valid) 0x1b-0x1c (1)
    |                                               |                |    [2]{}: section 0x1c-0x55 (57)
0x10|                                    07         |            .   |      id: "export_section" (7) 0x1c-0x1d (1)
0x10|                                       37      |             7  |      size: 55 (valid) 0x1d-0x1e (1)
    |                                               |                |      content{}: 0x1e-0x55 (55)
    |                                               |                |        ex{}: 0x1e-0x55 (55)
0x10|                                          02   |              . |          n: 2 (valid) 0x1e-0x1f (1)
    |                                               |                |          x[0:2]: 0x1f-0x55 (54)
    |                                               |                |            [0]{}: ex 0x1f-0x3a (27)
    |                                               |                |              nm{}: 0x1f-0x38 (25)
0x10|                                             18|               .|                n: 24 (valid) 0x1f-0x20 (1)
0x20|66 33 32 2e 6e 6f 5f 66 6f 6c 64 5f 73 75 62 31|f32.no_fold_sub1|                b: "f32.no_fold_sub1_mul_add" 0x20-0x38 (24)
0x30|5f 6d 75 6c 5f 61 64 64                        |_mul_add        |
    |                                               |                |              d{}: 0x38-0x3a (2)
0x30|                        00                     |        .       |                tag: "funcidx" (0x0) 0x38-0x39 (1)
0x30|                           00                  |         .      |                x: 0 (valid) 0x39-0x3a (1)
    |                                               |                |            [1]{}: ex 0x3a-0x55 (27)
    |                                               |                |              nm{}: 0x3a-0x53 (25)
0x30|                              18               |          .     |                n: 24 (valid) 0x3a-0x3b (1)
0x30|                                 66 36 34 2e 6e|           f64.n|                b: "f64.no_fold_sub1_mul_add" 0x3b-0x53 (24)
0x40|6f 5f 66 6f 6c 64 5f 73 75 62 31 5f 6d 75 6c 5f|o_fold_sub1_mul_|
0x50|61 64 64                                       |add             |
    |                                               |                |              d{}: 0x53-0x55 (2)
0x50|         00                                    |   .            |                tag: "funcidx" (0x0) 0x53-0x54 (1)
0x50|            01                                 |    .           |                x: 1 (valid) 0x54-0x55 (1)
    |                                               |                |    [3]{}: section 0x55-0x7e (41)
0x50|               0a                              |     .          |      id: "code_section" (10) 0x55-0x56 (1)
0x50|                  27                           |      '         |      size: 39 (valid) 0x56-0x57 (1)
    |                                               |                |      content{}: 0x57-0x7e (39)
    |                                               |                |        code{}: 0x57-0x7e (39)
0x50|                     02                        |       .        |          n: 2 (valid) 0x57-0x58 (1)
    |                                               |                |          x[0:2]: 0x58-0x7e (38)
    |                                               |                |            [0]{}: code 0x58-0x69 (17)
0x50|                        10                     |        .       |              size: 16 (valid) 0x58-0x59 (1)
    |                                               |                |              code{}: 0x59-0x69 (16)
    |                                               |                |                t{}: 0x59-0x5a (1)
0x50|                           00                  |         .      |                  n: 0 (valid) 0x59-0x5a (1)
    |                                               |                |                  x[0:0]: 0x5a-0x5a (0)
    |                                               |                |                e[0:8]: 0x5a-0x69 (15)
    |                                               |                |                  [0]{}: in 0x5a-0x5c (2)
0x50|                              20               |                |                    opcode: "local.get" (0x20) 0x5a-0x5b (1)
0x50|                                 00            |           .    |                    x: 0 (valid) 0x5b-0x5c (1)
    |                                               |                |                  [1]{}: in 0x5c-0x61 (5)
0x50|                                    43         |            C   |                    opcode: "f32.const" (0x43) 0x5c-0x5d (1)
0x50|                                       00 00 80|             ...|                    z: 1 0x5d-0x61 (4)
0x60|3f                                             |?               |
    |                                               |                |                  [2]{}: in 0x61-0x62 (1)
0x60|   93                                          | .              |                    opcode: "f32.sub" (0x93) 0x61-0x62 (1)
    |                                               |                |                  [3]{}: in 0x62-0x64 (2)
0x60|      20                                       |                |                    opcode: "local.get" (0x20) 0x62-0x63 (1)
0x60|         01                                    |   .            |                    x: 1 (valid) 0x63-0x64 (1)
    |                                               |                |                  [4]{}: in 0x64-0x65 (1)
0x60|            94                                 |    .           |                    opcode: "f32.mul" (0x94) 0x64-0x65 (1)
    |                                               |                |                  [5]{}: in 0x65-0x67 (2)
0x60|               20                              |                |                    opcode: "local.get" (0x20) 0x65-0x66 (1)
0x60|                  01                           |      .         |                    x: 1 (valid) 0x66-0x67 (1)
    |                                               |                |                  [6]{}: in 0x67-0x68 (1)
0x60|                     92                        |       .        |                    opcode: "f32.add" (0x92) 0x67-0x68 (1)
    |                                               |                |                  [7]{}: in 0x68-0x69 (1)
0x60|                        0b                     |        .       |                    opcode: "end" (0xb) 0x68-0x69 (1)
    |                                               |                |            [1]{}: code 0x69-0x7e (21)
0x60|                           14                  |         .      |              size: 20 (valid) 0x69-0x6a (1)
    |                                               |                |              code{}: 0x6a-0x7e (20)
    |                                               |                |                t{}: 0x6a-0x6b (1)
0x60|                              00               |          .     |                  n: 0 (valid) 0x6a-0x6b (1)
    |                                               |                |                  x[0:0]: 0x6b-0x6b (0)
    |                                               |                |                e[0:8]: 0x6b-0x7e (19)
    |                                               |                |                  [0]{}: in 0x6b-0x6d (2)
0x60|                                 20            |                |                    opcode: "local.get" (0x20) 0x6b-0x6c (1)
0x60|                                    00         |            .   |                    x: 0 (valid) 0x6c-0x6d (1)
    |                                               |                |                  [1]{}: in 0x6d-0x76 (9)
0x60|                                       44      |             D  |                    opcode: "f64.const" (0x44) 0x6d-0x6e (1)
0x60|                                          00 00|              ..|                    z: 1 0x6e-0x76 (8)
0x70|00 00 00 00 f0 3f                              |.....?          |
    |                                               |                |                  [2]{}: in 0x76-0x77 (1)
0x70|                  a1                           |      .         |                    opcode: "f64.sub" (0xa1) 0x76-0x77 (1)
    |                                               |                |                  [3]{}: in 0x77-0x79 (2)
0x70|                     20                        |                |                    opcode: "local.get" (0x20) 0x77-0x78 (1)
0x70|                        01                     |        .       |                    x: 1 (valid) 0x78-0x79 (1)
    |                                               |                |                  [4]{}: in 0x79-0x7a (1)
0x70|                           a2                  |         .      |                    opcode: "f64.mul" (0xa2) 0x79-0x7a (1)
    |                                               |                |                  [5]{}: in 0x7a-0x7c (2)
0x70|                              20               |                |                    opcode: "local.get" (0x20) 0x7a-0x7b (1)
0x70|                                 01            |           .    |                    x: 1 (valid) 0x7b-0x7c (1)
    |                                               |                |                  [6]{}: in 0x7c-0x7d (1)
0x70|                                    a0         |            .   |                    opcode: "f64.add" (0xa0) 0x7c-0x7d (1)
    |                                               |                |                  [7]{}: in 0x7d-0x7e (1)
0x70|                                       0b|     |             .| |                    opcode: "end" (0xb) 0x7d-0x7e (1)
