$ fq -d wasm dv float_exprs-36.wasm
    |00 01 02 03 04 05 06 07 08 09 0a 0b 0c 0d 0e 0f|0123456789abcdef|.{}: float_exprs-36.wasm (wasm) 0x0-0x3a (58)
0x00|00 61 73 6d                                    |.asm            |  magic: raw bits (valid) 0x0-0x4 (4)
0x00|            01 00 00 00                        |    ....        |  version: 1 0x4-0x8 (4)
    |                                               |                |  sections[0:4]: 0x8-0x3a (50)
    |                                               |                |    [0]{}: section 0x8-0x10 (8)
0x00|                        01                     |        .       |      id: "type_section" (1) 0x8-0x9 (1)
0x00|                           06                  |         .      |      size: 6 (valid) 0x9-0xa (1)
    |                                               |                |      content{}: 0xa-0x10 (6)
    |                                               |                |        ft{}: 0xa-0x10 (6)
0x00|                              01               |          .     |          n: 1 (valid) 0xa-0xb (1)
    |                                               |                |          x[0:1]: 0xb-0x10 (5)
    |                                               |                |            [0]{}: ft 0xb-0x10 (5)
0x00|                                 60            |           `    |              tag: 0x60 (valid) 0xb-0xc (1)
    |                                               |                |              rt1{}: 0xc-0xe (2)
0x00|                                    01         |            .   |                n: 1 (valid) 0xc-0xd (1)
    |                                               |                |                x[0:1]: 0xd-0xe (1)
0x00|                                       7d      |             }  |                  [0]: "f32" (0x7d) t 0xd-0xe (1)
    |                                               |                |              rt2{}: 0xe-0x10 (2)
0x00|                                          01   |              . |                n: 1 (valid) 0xe-0xf (1)
    |                                               |                |                x[0:1]: 0xf-0x10 (1)
0x00|                                             7d|               }|                  [0]: "f32" (0x7d) t 0xf-0x10 (1)
    |                                               |                |    [1]{}: section 0x10-0x14 (4)
0x10|03                                             |.               |      id: "function_section" (3) 0x10-0x11 (1)
0x10|   02                                          | .              |      size: 2 (valid) 0x11-0x12 (1)
    |                                               |                |      content{}: 0x12-0x14 (2)
    |                                               |                |        x{}: 0x12-0x14 (2)
0x10|      01                                       |  .             |          n: 1 (valid) 0x12-0x13 (1)
    |                                               |                |          x[0:1]: 0x13-0x14 (1)
0x10|         00                                    |   .            |            [0]: 0 x (valid) 0x13-0x14 (1)
    |                                               |                |    [2]{}: section 0x14-0x30 (28)
0x10|            07                                 |    .           |      id: "export_section" (7) 0x14-0x15 (1)
0x10|               1a                              |     .          |      size: 26 (valid) 0x15-0x16 (1)
    |                                               |                |      content{}: 0x16-0x30 (26)
    |                                               |                |        ex{}: 0x16-0x30 (26)
0x10|                  01                           |      .         |          n: 1 (valid) 0x16-0x17 (1)
    |                                               |                |          x[0:1]: 0x17-0x30 (25)
    |                                               |                |            [0]{}: ex 0x17-0x30 (25)
    |                                               |                |              nm{}: 0x17-0x2e (23)
0x10|                     16                        |       .        |                n: 22 (valid) 0x17-0x18 (1)
0x10|                        6e 6f 5f 66 6f 6c 64 5f|        no_fold_|                b: "no_fold_promote_demote" 0x18-0x2e (22)
0x20|70 72 6f 6d 6f 74 65 5f 64 65 6d 6f 74 65      |promote_demote  |
    |                                               |                |              d{}: 0x2e-0x30 (2)
0x20|                                          00   |              . |                tag: "funcidx" (0x0) 0x2e-0x2f (1)
0x20|                                             00|               .|                x: 0 (valid) 0x2f-0x30 (1)
    |                                               |                |    [3]{}: section 0x30-0x3a (10)
0x30|0a                                             |.               |      id: "code_section" (10) 0x30-0x31 (1)
0x30|   08                                          | .              |      size: 8 (valid) 0x31-0x32 (1)
    |                                               |                |      content{}: 0x32-0x3a (8)
    |                                               |                |        code{}: 0x32-0x3a (8)
0x30|      01                                       |  .             |          n: 1 (valid) 0x32-0x33 (1)
    |                                               |                |          x[0:1]: 0x33-0x3a (7)
    |                                               |                |            [0]{}: code 0x33-0x3a (7)
0x30|         06                                    |   .            |              size: 6 (valid) 0x33-0x34 (1)
    |                                               |                |              code{}: 0x34-0x3a (6)
    |                                               |                |                t{}: 0x34-0x35 (1)
0x30|            00                                 |    .           |                  n: 0 (valid) 0x34-0x35 (1)
    |                                               |                |                  x[0:0]: 0x35-0x35 (0)
    |                                               |                |                e[0:4]: 0x35-0x3a (5)
    |                                               |                |                  [0]{}: in 0x35-0x37 (2)
0x30|               20                              |                |                    opcode: "local.get" (0x20) 0x35-0x36 (1)
0x30|                  00                           |      .         |                    x: 0 (valid) 0x36-0x37 (1)
    |                                               |                |                  [1]{}: in 0x37-0x38 (1)
0x30|                     bb                        |       .        |                    opcode: "f64.promote_f32" (0xbb) 0x37-0x38 (1)
    |                                               |                |                  [2]{}: in 0x38-0x39 (1)
0x30|                        b6                     |        .       |                    opcode: "f32.demote_f64" (0xb6) 0x38-0x39 (1)
    |                                               |                |                  [3]{}: in 0x39-0x3a (1)
0x30|                           0b|                 |         .|     |                    opcode: "end" (0xb) 0x39-0x3a (1)
