$ fq -d wasm dv float_exprs-53.wasm
    |00 01 02 03 04 05 06 07 08 09 0a 0b 0c 0d 0e 0f|0123456789abcdef|.{}: float_exprs-53.wasm (wasm) 0x0-0x71.7 (114)
0x00|00 61 73 6d                                    |.asm            |  magic: raw bits (valid) 0x0-0x3.7 (4)
0x00|            01 00 00 00                        |    ....        |  version: 1 0x4-0x7.7 (4)
    |                                               |                |  sections[0:4]: 0x8-0x71.7 (106)
    |                                               |                |    [0]{}: section 0x8-0x20.7 (25)
0x00|                        01                     |        .       |      id: "type_section" (1) 0x8-0x8.7 (1)
0x00|                           17                  |         .      |      size: 23 (valid) 0x9-0x9.7 (1)
    |                                               |                |      content{}: 0xa-0x20.7 (23)
    |                                               |                |        ft{}: 0xa-0x20.7 (23)
0x00|                              03               |          .     |          n: 3 (valid) 0xa-0xa.7 (1)
    |                                               |                |          x[0:3]: 0xb-0x20.7 (22)
    |                                               |                |            [0]{}: ft 0xb-0x12.7 (8)
0x00|                                 60            |           `    |              tag: 0x60 (valid) 0xb-0xb.7 (1)
    |                                               |                |              rt1{}: 0xc-0x10.7 (5)
0x00|                                    04         |            .   |                n: 4 (valid) 0xc-0xc.7 (1)
    |                                               |                |                x[0:4]: 0xd-0x10.7 (4)
0x00|                                       7c      |             |  |                  [0]: "f64" (0x7c) t 0xd-0xd.7 (1)
0x00|                                          7c   |              | |                  [1]: "f64" (0x7c) t 0xe-0xe.7 (1)
0x00|                                             7c|               ||                  [2]: "f64" (0x7c) t 0xf-0xf.7 (1)
0x10|7c                                             ||               |                  [3]: "f64" (0x7c) t 0x10-0x10.7 (1)
    |                                               |                |              rt2{}: 0x11-0x12.7 (2)
0x10|   01                                          | .              |                n: 1 (valid) 0x11-0x11.7 (1)
    |                                               |                |                x[0:1]: 0x12-0x12.7 (1)
0x10|      7c                                       |  |             |                  [0]: "f64" (0x7c) t 0x12-0x12.7 (1)
    |                                               |                |            [1]{}: ft 0x13-0x19.7 (7)
0x10|         60                                    |   `            |              tag: 0x60 (valid) 0x13-0x13.7 (1)
    |                                               |                |              rt1{}: 0x14-0x17.7 (4)
0x10|            03                                 |    .           |                n: 3 (valid) 0x14-0x14.7 (1)
    |                                               |                |                x[0:3]: 0x15-0x17.7 (3)
0x10|               7c                              |     |          |                  [0]: "f64" (0x7c) t 0x15-0x15.7 (1)
0x10|                  7c                           |      |         |                  [1]: "f64" (0x7c) t 0x16-0x16.7 (1)
0x10|                     7c                        |       |        |                  [2]: "f64" (0x7c) t 0x17-0x17.7 (1)
    |                                               |                |              rt2{}: 0x18-0x19.7 (2)
0x10|                        01                     |        .       |                n: 1 (valid) 0x18-0x18.7 (1)
    |                                               |                |                x[0:1]: 0x19-0x19.7 (1)
0x10|                           7c                  |         |      |                  [0]: "f64" (0x7c) t 0x19-0x19.7 (1)
    |                                               |                |            [2]{}: ft 0x1a-0x20.7 (7)
0x10|                              60               |          `     |              tag: 0x60 (valid) 0x1a-0x1a.7 (1)
    |                                               |                |              rt1{}: 0x1b-0x1e.7 (4)
0x10|                                 03            |           .    |                n: 3 (valid) 0x1b-0x1b.7 (1)
    |                                               |                |                x[0:3]: 0x1c-0x1e.7 (3)
0x10|                                    7d         |            }   |                  [0]: "f32" (0x7d) t 0x1c-0x1c.7 (1)
0x10|                                       7d      |             }  |                  [1]: "f32" (0x7d) t 0x1d-0x1d.7 (1)
0x10|                                          7d   |              } |                  [2]: "f32" (0x7d) t 0x1e-0x1e.7 (1)
    |                                               |                |              rt2{}: 0x1f-0x20.7 (2)
0x10|                                             01|               .|                n: 1 (valid) 0x1f-0x1f.7 (1)
    |                                               |                |                x[0:1]: 0x20-0x20.7 (1)
0x20|7d                                             |}               |                  [0]: "f32" (0x7d) t 0x20-0x20.7 (1)
    |                                               |                |    [1]{}: section 0x21-0x26.7 (6)
0x20|   03                                          | .              |      id: "function_section" (3) 0x21-0x21.7 (1)
0x20|      04                                       |  .             |      size: 4 (valid) 0x22-0x22.7 (1)
    |                                               |                |      content{}: 0x23-0x26.7 (4)
    |                                               |                |        x{}: 0x23-0x26.7 (4)
0x20|         03                                    |   .            |          n: 3 (valid) 0x23-0x23.7 (1)
    |                                               |                |          x[0:3]: 0x24-0x26.7 (3)
0x20|            00                                 |    .           |            [0]: 0 x (valid) 0x24-0x24.7 (1)
0x20|               01                              |     .          |            [1]: 1 x (valid) 0x25-0x25.7 (1)
0x20|                  02                           |      .         |            [2]: 2 x (valid) 0x26-0x26.7 (1)
    |                                               |                |    [2]{}: section 0x27-0x4a.7 (36)
0x20|                     07                        |       .        |      id: "export_section" (7) 0x27-0x27.7 (1)
0x20|                        22                     |        "       |      size: 34 (valid) 0x28-0x28.7 (1)
    |                                               |                |      content{}: 0x29-0x4a.7 (34)
    |                                               |                |        ex{}: 0x29-0x4a.7 (34)
0x20|                           03                  |         .      |          n: 3 (valid) 0x29-0x29.7 (1)
    |                                               |                |          x[0:3]: 0x2a-0x4a.7 (33)
    |                                               |                |            [0]{}: ex 0x2a-0x34.7 (11)
    |                                               |                |              nm{}: 0x2a-0x32.7 (9)
0x20|                              08               |          .     |                n: 8 (valid) 0x2a-0x2a.7 (1)
0x20|                                 74 68 65 70 61|           thepa|                b: "thepast0" 0x2b-0x32.7 (8)
0x30|73 74 30                                       |st0             |
    |                                               |                |              d{}: 0x33-0x34.7 (2)
0x30|         00                                    |   .            |                tag: "funcidx" (0x0) 0x33-0x33.7 (1)
0x30|            00                                 |    .           |                x: 0 (valid) 0x34-0x34.7 (1)
    |                                               |                |            [1]{}: ex 0x35-0x3f.7 (11)
    |                                               |                |              nm{}: 0x35-0x3d.7 (9)
0x30|               08                              |     .          |                n: 8 (valid) 0x35-0x35.7 (1)
0x30|                  74 68 65 70 61 73 74 31      |      thepast1  |                b: "thepast1" 0x36-0x3d.7 (8)
    |                                               |                |              d{}: 0x3e-0x3f.7 (2)
0x30|                                          00   |              . |                tag: "funcidx" (0x0) 0x3e-0x3e.7 (1)
0x30|                                             01|               .|                x: 1 (valid) 0x3f-0x3f.7 (1)
    |                                               |                |            [2]{}: ex 0x40-0x4a.7 (11)
    |                                               |                |              nm{}: 0x40-0x48.7 (9)
0x40|08                                             |.               |                n: 8 (valid) 0x40-0x40.7 (1)
0x40|   74 68 65 70 61 73 74 32                     | thepast2       |                b: "thepast2" 0x41-0x48.7 (8)
    |                                               |                |              d{}: 0x49-0x4a.7 (2)
0x40|                           00                  |         .      |                tag: "funcidx" (0x0) 0x49-0x49.7 (1)
0x40|                              02               |          .     |                x: 2 (valid) 0x4a-0x4a.7 (1)
    |                                               |                |    [3]{}: section 0x4b-0x71.7 (39)
0x40|                                 0a            |           .    |      id: "code_section" (10) 0x4b-0x4b.7 (1)
0x40|                                    25         |            %   |      size: 37 (valid) 0x4c-0x4c.7 (1)
    |                                               |                |      content{}: 0x4d-0x71.7 (37)
    |                                               |                |        code{}: 0x4d-0x71.7 (37)
0x40|                                       03      |             .  |          n: 3 (valid) 0x4d-0x4d.7 (1)
    |                                               |                |          x[0:3]: 0x4e-0x71.7 (36)
    |                                               |                |            [0]{}: code 0x4e-0x5b.7 (14)
0x40|                                          0d   |              . |              size: 13 (valid) 0x4e-0x4e.7 (1)
    |                                               |                |              code{}: 0x4f-0x5b.7 (13)
    |                                               |                |                t{}: 0x4f-0x4f.7 (1)
0x40|                                             00|               .|                  n: 0 (valid) 0x4f-0x4f.7 (1)
    |                                               |                |                  x[0:0]: 0x50-NA (0)
    |                                               |                |                e[0:8]: 0x50-0x5b.7 (12)
    |                                               |                |                  [0]{}: in 0x50-0x51.7 (2)
0x50|20                                             |                |                    opcode: "local.get" (0x20) 0x50-0x50.7 (1)
0x50|   00                                          | .              |                    x: 0 (valid) 0x51-0x51.7 (1)
    |                                               |                |                  [1]{}: in 0x52-0x53.7 (2)
0x50|      20                                       |                |                    opcode: "local.get" (0x20) 0x52-0x52.7 (1)
0x50|         01                                    |   .            |                    x: 1 (valid) 0x53-0x53.7 (1)
    |                                               |                |                  [2]{}: in 0x54-0x54.7 (1)
0x50|            a2                                 |    .           |                    opcode: "f64.mul" (0xa2) 0x54-0x54.7 (1)
    |                                               |                |                  [3]{}: in 0x55-0x56.7 (2)
0x50|               20                              |                |                    opcode: "local.get" (0x20) 0x55-0x55.7 (1)
0x50|                  02                           |      .         |                    x: 2 (valid) 0x56-0x56.7 (1)
    |                                               |                |                  [4]{}: in 0x57-0x58.7 (2)
0x50|                     20                        |                |                    opcode: "local.get" (0x20) 0x57-0x57.7 (1)
0x50|                        03                     |        .       |                    x: 3 (valid) 0x58-0x58.7 (1)
    |                                               |                |                  [5]{}: in 0x59-0x59.7 (1)
0x50|                           a2                  |         .      |                    opcode: "f64.mul" (0xa2) 0x59-0x59.7 (1)
    |                                               |                |                  [6]{}: in 0x5a-0x5a.7 (1)
0x50|                              a3               |          .     |                    opcode: "f64.div" (0xa3) 0x5a-0x5a.7 (1)
    |                                               |                |                  [7]{}: in 0x5b-0x5b.7 (1)
0x50|                                 0b            |           .    |                    opcode: "end" (0xb) 0x5b-0x5b.7 (1)
    |                                               |                |            [1]{}: code 0x5c-0x66.7 (11)
0x50|                                    0a         |            .   |              size: 10 (valid) 0x5c-0x5c.7 (1)
    |                                               |                |              code{}: 0x5d-0x66.7 (10)
    |                                               |                |                t{}: 0x5d-0x5d.7 (1)
0x50|                                       00      |             .  |                  n: 0 (valid) 0x5d-0x5d.7 (1)
    |                                               |                |                  x[0:0]: 0x5e-NA (0)
    |                                               |                |                e[0:6]: 0x5e-0x66.7 (9)
    |                                               |                |                  [0]{}: in 0x5e-0x5f.7 (2)
0x50|                                          20   |                |                    opcode: "local.get" (0x20) 0x5e-0x5e.7 (1)
0x50|                                             00|               .|                    x: 0 (valid) 0x5f-0x5f.7 (1)
    |                                               |                |                  [1]{}: in 0x60-0x61.7 (2)
0x60|20                                             |                |                    opcode: "local.get" (0x20) 0x60-0x60.7 (1)
0x60|   01                                          | .              |                    x: 1 (valid) 0x61-0x61.7 (1)
    |                                               |                |                  [2]{}: in 0x62-0x62.7 (1)
0x60|      a2                                       |  .             |                    opcode: "f64.mul" (0xa2) 0x62-0x62.7 (1)
    |                                               |                |                  [3]{}: in 0x63-0x64.7 (2)
0x60|         20                                    |                |                    opcode: "local.get" (0x20) 0x63-0x63.7 (1)
0x60|            02                                 |    .           |                    x: 2 (valid) 0x64-0x64.7 (1)
    |                                               |                |                  [4]{}: in 0x65-0x65.7 (1)
0x60|               a1                              |     .          |                    opcode: "f64.sub" (0xa1) 0x65-0x65.7 (1)
    |                                               |                |                  [5]{}: in 0x66-0x66.7 (1)
0x60|                  0b                           |      .         |                    opcode: "end" (0xb) 0x66-0x66.7 (1)
    |                                               |                |            [2]{}: code 0x67-0x71.7 (11)
0x60|                     0a                        |       .        |              size: 10 (valid) 0x67-0x67.7 (1)
    |                                               |                |              code{}: 0x68-0x71.7 (10)
    |                                               |                |                t{}: 0x68-0x68.7 (1)
0x60|                        00                     |        .       |                  n: 0 (valid) 0x68-0x68.7 (1)
    |                                               |                |                  x[0:0]: 0x69-NA (0)
    |                                               |                |                e[0:6]: 0x69-0x71.7 (9)
    |                                               |                |                  [0]{}: in 0x69-0x6a.7 (2)
0x60|                           20                  |                |                    opcode: "local.get" (0x20) 0x69-0x69.7 (1)
0x60|                              00               |          .     |                    x: 0 (valid) 0x6a-0x6a.7 (1)
    |                                               |                |                  [1]{}: in 0x6b-0x6c.7 (2)
0x60|                                 20            |                |                    opcode: "local.get" (0x20) 0x6b-0x6b.7 (1)
0x60|                                    01         |            .   |                    x: 1 (valid) 0x6c-0x6c.7 (1)
    |                                               |                |                  [2]{}: in 0x6d-0x6d.7 (1)
0x60|                                       94      |             .  |                    opcode: "f32.mul" (0x94) 0x6d-0x6d.7 (1)
    |                                               |                |                  [3]{}: in 0x6e-0x6f.7 (2)
0x60|                                          20   |                |                    opcode: "local.get" (0x20) 0x6e-0x6e.7 (1)
0x60|                                             02|               .|                    x: 2 (valid) 0x6f-0x6f.7 (1)
    |                                               |                |                  [4]{}: in 0x70-0x70.7 (1)
0x70|94                                             |.               |                    opcode: "f32.mul" (0x94) 0x70-0x70.7 (1)
    |                                               |                |                  [5]{}: in 0x71-0x71.7 (1)
0x70|   0b|                                         | .|             |                    opcode: "end" (0xb) 0x71-0x71.7 (1)
