$ fq -d wasm dv float_exprs-88.wasm
    |00 01 02 03 04 05 06 07 08 09 0a 0b 0c 0d 0e 0f|0123456789abcdef|.{}: float_exprs-88.wasm (wasm) 0x0-0x87 (135)
0x00|00 61 73 6d                                    |.asm            |  magic: raw bits (valid) 0x0-0x4 (4)
0x00|            01 00 00 00                        |    ....        |  version: 1 0x4-0x8 (4)
    |                                               |                |  sections[0:4]: 0x8-0x87 (127)
    |                                               |                |    [0]{}: section 0x8-0x17 (15)
0x00|                        01                     |        .       |      id: "type_section" (1) 0x8-0x9 (1)
0x00|                           0d                  |         .      |      size: 13 (valid) 0x9-0xa (1)
    |                                               |                |      content{}: 0xa-0x17 (13)
    |                                               |                |        ft{}: 0xa-0x17 (13)
0x00|                              01               |          .     |          n: 1 (valid) 0xa-0xb (1)
    |                                               |                |          x[0:1]: 0xb-0x17 (12)
    |                                               |                |            [0]{}: ft 0xb-0x17 (12)
0x00|                                 60            |           `    |              tag: 0x60 (valid) 0xb-0xc (1)
    |                                               |                |              rt1{}: 0xc-0x15 (9)
0x00|                                    08         |            .   |                n: 8 (valid) 0xc-0xd (1)
    |                                               |                |                x[0:8]: 0xd-0x15 (8)
0x00|                                       7c      |             |  |                  [0]: "f64" (0x7c) t 0xd-0xe (1)
0x00|                                          7c   |              | |                  [1]: "f64" (0x7c) t 0xe-0xf (1)
0x00|                                             7c|               ||                  [2]: "f64" (0x7c) t 0xf-0x10 (1)
0x10|7c                                             ||               |                  [3]: "f64" (0x7c) t 0x10-0x11 (1)
0x10|   7c                                          | |              |                  [4]: "f64" (0x7c) t 0x11-0x12 (1)
0x10|      7c                                       |  |             |                  [5]: "f64" (0x7c) t 0x12-0x13 (1)
0x10|         7c                                    |   |            |                  [6]: "f64" (0x7c) t 0x13-0x14 (1)
0x10|            7c                                 |    |           |                  [7]: "f64" (0x7c) t 0x14-0x15 (1)
    |                                               |                |              rt2{}: 0x15-0x17 (2)
0x10|               01                              |     .          |                n: 1 (valid) 0x15-0x16 (1)
    |                                               |                |                x[0:1]: 0x16-0x17 (1)
0x10|                  7c                           |      |         |                  [0]: "f64" (0x7c) t 0x16-0x17 (1)
    |                                               |                |    [1]{}: section 0x17-0x1c (5)
0x10|                     03                        |       .        |      id: "function_section" (3) 0x17-0x18 (1)
0x10|                        03                     |        .       |      size: 3 (valid) 0x18-0x19 (1)
    |                                               |                |      content{}: 0x19-0x1c (3)
    |                                               |                |        x{}: 0x19-0x1c (3)
0x10|                           02                  |         .      |          n: 2 (valid) 0x19-0x1a (1)
    |                                               |                |          x[0:2]: 0x1a-0x1c (2)
0x10|                              00               |          .     |            [0]: 0 x (valid) 0x1a-0x1b (1)
0x10|                                 00            |           .    |            [1]: 0 x (valid) 0x1b-0x1c (1)
    |                                               |                |    [2]{}: section 0x1c-0x50 (52)
0x10|                                    07         |            .   |      id: "export_section" (7) 0x1c-0x1d (1)
0x10|                                       32      |             2  |      size: 50 (valid) 0x1d-0x1e (1)
    |                                               |                |      content{}: 0x1e-0x50 (50)
    |                                               |                |        ex{}: 0x1e-0x50 (50)
0x10|                                          02   |              . |          n: 2 (valid) 0x1e-0x1f (1)
    |                                               |                |          x[0:2]: 0x1f-0x50 (49)
    |                                               |                |            [0]{}: ex 0x1f-0x35 (22)
    |                                               |                |              nm{}: 0x1f-0x33 (20)
0x10|                                             13|               .|                n: 19 (valid) 0x1f-0x20 (1)
0x20|64 6f 74 5f 70 72 6f 64 75 63 74 5f 65 78 61 6d|dot_product_exam|                b: "dot_product_example" 0x20-0x33 (19)
0x30|70 6c 65                                       |ple             |
    |                                               |                |              d{}: 0x33-0x35 (2)
0x30|         00                                    |   .            |                tag: "funcidx" (0x0) 0x33-0x34 (1)
0x30|            00                                 |    .           |                x: 0 (valid) 0x34-0x35 (1)
    |                                               |                |            [1]{}: ex 0x35-0x50 (27)
    |                                               |                |              nm{}: 0x35-0x4e (25)
0x30|               18                              |     .          |                n: 24 (valid) 0x35-0x36 (1)
0x30|                  77 69 74 68 5f 62 69 6e 61 72|      with_binar|                b: "with_binary_sum_collapse" 0x36-0x4e (24)
0x40|79 5f 73 75 6d 5f 63 6f 6c 6c 61 70 73 65      |y_sum_collapse  |
    |                                               |                |              d{}: 0x4e-0x50 (2)
0x40|                                          00   |              . |                tag: "funcidx" (0x0) 0x4e-0x4f (1)
0x40|                                             01|               .|                x: 1 (valid) 0x4f-0x50 (1)
    |                                               |                |    [3]{}: section 0x50-0x87 (55)
0x50|0a                                             |.               |      id: "code_section" (10) 0x50-0x51 (1)
0x50|   35                                          | 5              |      size: 53 (valid) 0x51-0x52 (1)
    |                                               |                |      content{}: 0x52-0x87 (53)
    |                                               |                |        code{}: 0x52-0x87 (53)
0x50|      02                                       |  .             |          n: 2 (valid) 0x52-0x53 (1)
    |                                               |                |          x[0:2]: 0x53-0x87 (52)
    |                                               |                |            [0]{}: code 0x53-0x6d (26)
0x50|         19                                    |   .            |              size: 25 (valid) 0x53-0x54 (1)
    |                                               |                |              code{}: 0x54-0x6d (25)
    |                                               |                |                t{}: 0x54-0x55 (1)
0x50|            00                                 |    .           |                  n: 0 (valid) 0x54-0x55 (1)
    |                                               |                |                  x[0:0]: 0x55-0x55 (0)
    |                                               |                |                e[0:16]: 0x55-0x6d (24)
    |                                               |                |                  [0]{}: in 0x55-0x57 (2)
0x50|               20                              |                |                    opcode: "local.get" (0x20) 0x55-0x56 (1)
0x50|                  00                           |      .         |                    x: 0 (valid) 0x56-0x57 (1)
    |                                               |                |                  [1]{}: in 0x57-0x59 (2)
0x50|                     20                        |                |                    opcode: "local.get" (0x20) 0x57-0x58 (1)
0x50|                        04                     |        .       |                    x: 4 (valid) 0x58-0x59 (1)
    |                                               |                |                  [2]{}: in 0x59-0x5a (1)
0x50|                           a2                  |         .      |                    opcode: "f64.mul" (0xa2) 0x59-0x5a (1)
    |                                               |                |                  [3]{}: in 0x5a-0x5c (2)
0x50|                              20               |                |                    opcode: "local.get" (0x20) 0x5a-0x5b (1)
0x50|                                 01            |           .    |                    x: 1 (valid) 0x5b-0x5c (1)
    |                                               |                |                  [4]{}: in 0x5c-0x5e (2)
0x50|                                    20         |                |                    opcode: "local.get" (0x20) 0x5c-0x5d (1)
0x50|                                       05      |             .  |                    x: 5 (valid) 0x5d-0x5e (1)
    |                                               |                |                  [5]{}: in 0x5e-0x5f (1)
0x50|                                          a2   |              . |                    opcode: "f64.mul" (0xa2) 0x5e-0x5f (1)
    |                                               |                |                  [6]{}: in 0x5f-0x60 (1)
0x50|                                             a0|               .|                    opcode: "f64.add" (0xa0) 0x5f-0x60 (1)
    |                                               |                |                  [7]{}: in 0x60-0x62 (2)
0x60|20                                             |                |                    opcode: "local.get" (0x20) 0x60-0x61 (1)
0x60|   02                                          | .              |                    x: 2 (valid) 0x61-0x62 (1)
    |                                               |                |                  [8]{}: in 0x62-0x64 (2)
0x60|      20                                       |                |                    opcode: "local.get" (0x20) 0x62-0x63 (1)
0x60|         06                                    |   .            |                    x: 6 (valid) 0x63-0x64 (1)
    |                                               |                |                  [9]{}: in 0x64-0x65 (1)
0x60|            a2                                 |    .           |                    opcode: "f64.mul" (0xa2) 0x64-0x65 (1)
    |                                               |                |                  [10]{}: in 0x65-0x66 (1)
0x60|               a0                              |     .          |                    opcode: "f64.add" (0xa0) 0x65-0x66 (1)
    |                                               |                |                  [11]{}: in 0x66-0x68 (2)
0x60|                  20                           |                |                    opcode: "local.get" (0x20) 0x66-0x67 (1)
0x60|                     03                        |       .        |                    x: 3 (valid) 0x67-0x68 (1)
    |                                               |                |                  [12]{}: in 0x68-0x6a (2)
0x60|                        20                     |                |                    opcode: "local.get" (0x20) 0x68-0x69 (1)
0x60|                           07                  |         .      |                    x: 7 (valid) 0x69-0x6a (1)
    |                                               |                |                  [13]{}: in 0x6a-0x6b (1)
0x60|                              a2               |          .     |                    opcode: "f64.mul" (0xa2) 0x6a-0x6b (1)
    |                                               |                |                  [14]{}: in 0x6b-0x6c (1)
0x60|                                 a0            |           .    |                    opcode: "f64.add" (0xa0) 0x6b-0x6c (1)
    |                                               |                |                  [15]{}: in 0x6c-0x6d (1)
0x60|                                    0b         |            .   |                    opcode: "end" (0xb) 0x6c-0x6d (1)
    |                                               |                |            [1]{}: code 0x6d-0x87 (26)
0x60|                                       19      |             .  |              size: 25 (valid) 0x6d-0x6e (1)
    |                                               |                |              code{}: 0x6e-0x87 (25)
    |                                               |                |                t{}: 0x6e-0x6f (1)
0x60|                                          00   |              . |                  n: 0 (valid) 0x6e-0x6f (1)
    |                                               |                |                  x[0:0]: 0x6f-0x6f (0)
    |                                               |                |                e[0:16]: 0x6f-0x87 (24)
    |                                               |                |                  [0]{}: in 0x6f-0x71 (2)
0x60|                                             20|                |                    opcode: "local.get" (0x20) 0x6f-0x70 (1)
0x70|00                                             |.               |                    x: 0 (valid) 0x70-0x71 (1)
    |                                               |                |                  [1]{}: in 0x71-0x73 (2)
0x70|   20                                          |                |                    opcode: "local.get" (0x20) 0x71-0x72 (1)
0x70|      04                                       |  .             |                    x: 4 (valid) 0x72-0x73 (1)
    |                                               |                |                  [2]{}: in 0x73-0x74 (1)
0x70|         a2                                    |   .            |                    opcode: "f64.mul" (0xa2) 0x73-0x74 (1)
    |                                               |                |                  [3]{}: in 0x74-0x76 (2)
0x70|            20                                 |                |                    opcode: "local.get" (0x20) 0x74-0x75 (1)
0x70|               01                              |     .          |                    x: 1 (valid) 0x75-0x76 (1)
    |                                               |                |                  [4]{}: in 0x76-0x78 (2)
0x70|                  20                           |                |                    opcode: "local.get" (0x20) 0x76-0x77 (1)
0x70|                     05                        |       .        |                    x: 5 (valid) 0x77-0x78 (1)
    |                                               |                |                  [5]{}: in 0x78-0x79 (1)
0x70|                        a2                     |        .       |                    opcode: "f64.mul" (0xa2) 0x78-0x79 (1)
    |                                               |                |                  [6]{}: in 0x79-0x7a (1)
0x70|                           a0                  |         .      |                    opcode: "f64.add" (0xa0) 0x79-0x7a (1)
    |                                               |                |                  [7]{}: in 0x7a-0x7c (2)
0x70|                              20               |                |                    opcode: "local.get" (0x20) 0x7a-0x7b (1)
0x70|                                 02            |           .    |                    x: 2 (valid) 0x7b-0x7c (1)
    |                                               |                |                  [8]{}: in 0x7c-0x7e (2)
0x70|                                    20         |                |                    opcode: "local.get" (0x20) 0x7c-0x7d (1)
0x70|                                       06      |             .  |                    x: 6 (valid) 0x7d-0x7e (1)
    |                                               |                |                  [9]{}: in 0x7e-0x7f (1)
0x70|                                          a2   |              . |                    opcode: "f64.mul" (0xa2) 0x7e-0x7f (1)
    |                                               |                |                  [10]{}: in 0x7f-0x81 (2)
0x70|                                             20|                |                    opcode: "local.get" (0x20) 0x7f-0x80 (1)
0x80|03                                             |.               |                    x: 3 (valid) 0x80-0x81 (1)
    |                                               |                |                  [11]{}: in 0x81-0x83 (2)
0x80|   20                                          |                |                    opcode: "local.get" (0x20) 0x81-0x82 (1)
0x80|      07                                       |  .             |                    x: 7 (valid) 0x82-0x83 (1)
    |                                               |                |                  [12]{}: in 0x83-0x84 (1)
0x80|         a2                                    |   .            |                    opcode: "f64.mul" (0xa2) 0x83-0x84 (1)
    |                                               |                |                  [13]{}: in 0x84-0x85 (1)
0x80|            a0                                 |    .           |                    opcode: "f64.add" (0xa0) 0x84-0x85 (1)
    |                                               |                |                  [14]{}: in 0x85-0x86 (1)
0x80|               a0                              |     .          |                    opcode: "f64.add" (0xa0) 0x85-0x86 (1)
    |                                               |                |                  [15]{}: in 0x86-0x87 (1)
0x80|                  0b|                          |      .|        |                    opcode: "end" (0xb) 0x86-0x87 (1)
