$ fq -d wasm dv float_exprs-52.wasm
    |00 01 02 03 04 05 06 07 08 09 0a 0b 0c 0d 0e 0f|0123456789abcdef|.{}: float_exprs-52.wasm (wasm) 0x0-0x40 (64)
0x00|00 61 73 6d                                    |.asm            |  magic: raw bits (valid) 0x0-0x4 (4)
0x00|            01 00 00 00                        |    ....        |  version: 1 0x4-0x8 (4)
    |                                               |                |  sections[0:4]: 0x8-0x40 (56)
    |                                               |                |    [0]{}: section 0x8-0x11 (9)
0x00|                        01                     |        .       |      id: "type_section" (1) 0x8-0x9 (1)
0x00|                           07                  |         .      |      size: 7 (valid) 0x9-0xa (1)
    |                                               |                |      content{}: 0xa-0x11 (7)
    |                                               |                |        ft{}: 0xa-0x11 (7)
0x00|                              01               |          .     |          n: 1 (valid) 0xa-0xb (1)
    |                                               |                |          x[0:1]: 0xb-0x11 (6)
    |                                               |                |            [0]{}: ft 0xb-0x11 (6)
0x00|                                 60            |           `    |              tag: 0x60 (valid) 0xb-0xc (1)
    |                                               |                |              rt1{}: 0xc-0xf (3)
0x00|                                    02         |            .   |                n: 2 (valid) 0xc-0xd (1)
    |                                               |                |                x[0:2]: 0xd-0xf (2)
0x00|                                       7f      |             .  |                  [0]: "i32" (0x7f) t 0xd-0xe (1)
0x00|                                          7f   |              . |                  [1]: "i32" (0x7f) t 0xe-0xf (1)
    |                                               |                |              rt2{}: 0xf-0x11 (2)
0x00|                                             01|               .|                n: 1 (valid) 0xf-0x10 (1)
    |                                               |                |                x[0:1]: 0x10-0x11 (1)
0x10|7d                                             |}               |                  [0]: "f32" (0x7d) t 0x10-0x11 (1)
    |                                               |                |    [1]{}: section 0x11-0x15 (4)
0x10|   03                                          | .              |      id: "function_section" (3) 0x11-0x12 (1)
0x10|      02                                       |  .             |      size: 2 (valid) 0x12-0x13 (1)
    |                                               |                |      content{}: 0x13-0x15 (2)
    |                                               |                |        x{}: 0x13-0x15 (2)
0x10|         01                                    |   .            |          n: 1 (valid) 0x13-0x14 (1)
    |                                               |                |          x[0:1]: 0x14-0x15 (1)
0x10|            00                                 |    .           |            [0]: 0 x (valid) 0x14-0x15 (1)
    |                                               |                |    [2]{}: section 0x15-0x27 (18)
0x10|               07                              |     .          |      id: "export_section" (7) 0x15-0x16 (1)
0x10|                  10                           |      .         |      size: 16 (valid) 0x16-0x17 (1)
    |                                               |                |      content{}: 0x17-0x27 (16)
    |                                               |                |        ex{}: 0x17-0x27 (16)
0x10|                     01                        |       .        |          n: 1 (valid) 0x17-0x18 (1)
    |                                               |                |          x[0:1]: 0x18-0x27 (15)
    |                                               |                |            [0]{}: ex 0x18-0x27 (15)
    |                                               |                |              nm{}: 0x18-0x25 (13)
0x10|                        0c                     |        .       |                n: 12 (valid) 0x18-0x19 (1)
0x10|                           6c 6c 76 6d 5f 70 72|         llvm_pr|                b: "llvm_pr27036" 0x19-0x25 (12)
0x20|32 37 30 33 36                                 |27036           |
    |                                               |                |              d{}: 0x25-0x27 (2)
0x20|               00                              |     .          |                tag: "funcidx" (0x0) 0x25-0x26 (1)
0x20|                  00                           |      .         |                x: 0 (valid) 0x26-0x27 (1)
    |                                               |                |    [3]{}: section 0x27-0x40 (25)
0x20|                     0a                        |       .        |      id: "code_section" (10) 0x27-0x28 (1)
0x20|                        17                     |        .       |      size: 23 (valid) 0x28-0x29 (1)
    |                                               |                |      content{}: 0x29-0x40 (23)
    |                                               |                |        code{}: 0x29-0x40 (23)
0x20|                           01                  |         .      |          n: 1 (valid) 0x29-0x2a (1)
    |                                               |                |          x[0:1]: 0x2a-0x40 (22)
    |                                               |                |            [0]{}: code 0x2a-0x40 (22)
0x20|                              15               |          .     |              size: 21 (valid) 0x2a-0x2b (1)
    |                                               |                |              code{}: 0x2b-0x40 (21)
    |                                               |                |                t{}: 0x2b-0x2c (1)
0x20|                                 00            |           .    |                  n: 0 (valid) 0x2b-0x2c (1)
    |                                               |                |                  x[0:0]: 0x2c-0x2c (0)
    |                                               |                |                e[0:10]: 0x2c-0x40 (20)
    |                                               |                |                  [0]{}: in 0x2c-0x2e (2)
0x20|                                    20         |                |                    opcode: "local.get" (0x20) 0x2c-0x2d (1)
0x20|                                       00      |             .  |                    x: 0 (valid) 0x2d-0x2e (1)
    |                                               |                |                  [1]{}: in 0x2e-0x33 (5)
0x20|                                          41   |              A |                    opcode: "i32.const" (0x41) 0x2e-0x2f (1)
0x20|                                             cb|               .|                    n: -25034805 (valid) 0x2f-0x33 (4)
0x30|ff 87 74                                       |..t             |
    |                                               |                |                  [2]{}: in 0x33-0x34 (1)
0x30|         72                                    |   r            |                    opcode: "i32.or" (0x72) 0x33-0x34 (1)
    |                                               |                |                  [3]{}: in 0x34-0x35 (1)
0x30|            b2                                 |    .           |                    opcode: "f32.convert_i32_s" (0xb2) 0x34-0x35 (1)
    |                                               |                |                  [4]{}: in 0x35-0x37 (2)
0x30|               20                              |                |                    opcode: "local.get" (0x20) 0x35-0x36 (1)
0x30|                  01                           |      .         |                    x: 1 (valid) 0x36-0x37 (1)
    |                                               |                |                  [5]{}: in 0x37-0x3c (5)
0x30|                     41                        |       A        |                    opcode: "i32.const" (0x41) 0x37-0x38 (1)
0x30|                        80 80 90 07            |        ....    |                    n: 14942208 (valid) 0x38-0x3c (4)
    |                                               |                |                  [6]{}: in 0x3c-0x3d (1)
0x30|                                    71         |            q   |                    opcode: "i32.and" (0x71) 0x3c-0x3d (1)
    |                                               |                |                  [7]{}: in 0x3d-0x3e (1)
0x30|                                       b2      |             .  |                    opcode: "f32.convert_i32_s" (0xb2) 0x3d-0x3e (1)
    |                                               |                |                  [8]{}: in 0x3e-0x3f (1)
0x30|                                          92   |              . |                    opcode: "f32.add" (0x92) 0x3e-0x3f (1)
    |                                               |                |                  [9]{}: in 0x3f-0x40 (1)
0x30|                                             0b|               .|                    opcode: "end" (0xb) 0x3f-0x40 (1)
