$ fq -d wasm dv float_exprs-26.wasm
    |00 01 02 03 04 05 06 07 08 09 0a 0b 0c 0d 0e 0f|0123456789abcdef|.{}: float_exprs-26.wasm (wasm) 0x0-0x45 (69)
0x00|00 61 73 6d                                    |.asm            |  magic: raw bits (valid) 0x0-0x4 (4)
0x00|            01 00 00 00                        |    ....        |  version: 1 0x4-0x8 (4)
    |                                               |                |  sections[0:4]: 0x8-0x45 (61)
    |                                               |                |    [0]{}: section 0x8-0x10 (8)
0x00|                        01                     |        .       |      id: "type_section" (1) 0x8-0x9 (1)
0x00|                           06                  |         .      |      size: 6 (valid) 0x9-0xa (1)
    |                                               |                |      content{}: 0xa-0x10 (6)
    |                                               |                |        ft{}: 0xa-0x10 (6)
0x00|                              01               |          .     |          n: 1 (valid) 0xa-0xb (1)
    |                                               |                |          x[0:1]: 0xb-0x10 (5)
    |                                               |                |            [0]{}: ft 0xb-0x10 (5)
0x00|                                 60            |           `    |              tag: 0x60 (valid) 0xb-0xc (1)
    |                                               |                |              rt1{}: 0xc-0xe (2)
0x00|                                    01         |            .   |                n: 1 (valid) 0xc-0xd (1)
    |                                               |                |                x[0:1]: 0xd-0xe (1)
0x00|                                       7d      |             }  |                  [0]: "f32" (0x7d) t 0xd-0xe (1)
    |                                               |                |              rt2{}: 0xe-0x10 (2)
0x00|                                          01   |              . |                n: 1 (valid) 0xe-0xf (1)
    |                                               |                |                x[0:1]: 0xf-0x10 (1)
0x00|                                             7d|               }|                  [0]: "f32" (0x7d) t 0xf-0x10 (1)
    |                                               |                |    [1]{}: section 0x10-0x14 (4)
0x10|03                                             |.               |      id: "function_section" (3) 0x10-0x11 (1)
0x10|   02                                          | .              |      size: 2 (valid) 0x11-0x12 (1)
    |                                               |                |      content{}: 0x12-0x14 (2)
    |                                               |                |        x{}: 0x12-0x14 (2)
0x10|      01                                       |  .             |          n: 1 (valid) 0x12-0x13 (1)
    |                                               |                |          x[0:1]: 0x13-0x14 (1)
0x10|         00                                    |   .            |            [0]: 0 x (valid) 0x13-0x14 (1)
    |                                               |                |    [2]{}: section 0x14-0x37 (35)
0x10|            07                                 |    .           |      id: "export_section" (7) 0x14-0x15 (1)
0x10|               21                              |     !          |      size: 33 (valid) 0x15-0x16 (1)
    |                                               |                |      content{}: 0x16-0x37 (33)
    |                                               |                |        ex{}: 0x16-0x37 (33)
0x10|                  01                           |      .         |          n: 1 (valid) 0x16-0x17 (1)
    |                                               |                |          x[0:1]: 0x17-0x37 (32)
    |                                               |                |            [0]{}: ex 0x17-0x37 (32)
    |                                               |                |              nm{}: 0x17-0x35 (30)
0x10|                     1d                        |       .        |                n: 29 (valid) 0x17-0x18 (1)
0x10|                        66 33 32 2e 6e 6f 5f 61|        f32.no_a|                b: "f32.no_approximate_reciprocal" 0x18-0x35 (29)
0x20|70 70 72 6f 78 69 6d 61 74 65 5f 72 65 63 69 70|pproximate_recip|
0x30|72 6f 63 61 6c                                 |rocal           |
    |                                               |                |              d{}: 0x35-0x37 (2)
0x30|               00                              |     .          |                tag: "funcidx" (0x0) 0x35-0x36 (1)
0x30|                  00                           |      .         |                x: 0 (valid) 0x36-0x37 (1)
    |                                               |                |    [3]{}: section 0x37-0x45 (14)
0x30|                     0a                        |       .        |      id: "code_section" (10) 0x37-0x38 (1)
0x30|                        0c                     |        .       |      size: 12 (valid) 0x38-0x39 (1)
    |                                               |                |      content{}: 0x39-0x45 (12)
    |                                               |                |        code{}: 0x39-0x45 (12)
0x30|                           01                  |         .      |          n: 1 (valid) 0x39-0x3a (1)
    |                                               |                |          x[0:1]: 0x3a-0x45 (11)
    |                                               |                |            [0]{}: code 0x3a-0x45 (11)
0x30|                              0a               |          .     |              size: 10 (valid) 0x3a-0x3b (1)
    |                                               |                |              code{}: 0x3b-0x45 (10)
    |                                               |                |                t{}: 0x3b-0x3c (1)
0x30|                                 00            |           .    |                  n: 0 (valid) 0x3b-0x3c (1)
    |                                               |                |                  x[0:0]: 0x3c-0x3c (0)
    |                                               |                |                e[0:4]: 0x3c-0x45 (9)
    |                                               |                |                  [0]{}: in 0x3c-0x41 (5)
0x30|                                    43         |            C   |                    opcode: "f32.const" (0x43) 0x3c-0x3d (1)
0x30|                                       00 00 80|             ...|                    z: 1 0x3d-0x41 (4)
0x40|3f                                             |?               |
    |                                               |                |                  [1]{}: in 0x41-0x43 (2)
0x40|   20                                          |                |                    opcode: "local.get" (0x20) 0x41-0x42 (1)
0x40|      00                                       |  .             |                    x: 0 (valid) 0x42-0x43 (1)
    |                                               |                |                  [2]{}: in 0x43-0x44 (1)
0x40|         95                                    |   .            |                    opcode: "f32.div" (0x95) 0x43-0x44 (1)
    |                                               |                |                  [3]{}: in 0x44-0x45 (1)
0x40|            0b|                                |    .|          |                    opcode: "end" (0xb) 0x44-0x45 (1)
