$ fq -d wasm dv float_exprs-48.wasm
    |00 01 02 03 04 05 06 07 08 09 0a 0b 0c 0d 0e 0f|0123456789abcdef|.{}: float_exprs-48.wasm (wasm) 0x0-0x6d.7 (110)
0x00|00 61 73 6d                                    |.asm            |  magic: raw bits (valid) 0x0-0x3.7 (4)
0x00|            01 00 00 00                        |    ....        |  version: 1 0x4-0x7.7 (4)
    |                                               |                |  sections[0:4]: 0x8-0x6d.7 (102)
    |                                               |                |    [0]{}: section 0x8-0xe.7 (7)
0x00|                        01                     |        .       |      id: "type section" (1) 0x8-0x8.7 (1)
0x00|                           05                  |         .      |      size: 5 0x9-0x9.7 (1)
    |                                               |                |      content{}: 0xa-0xe.7 (5)
    |                                               |                |        ft{}: 0xa-0xe.7 (5)
0x00|                              01               |          .     |          n: 1 0xa-0xa.7 (1)
    |                                               |                |          x[0:1]: 0xb-0xe.7 (4)
    |                                               |                |            [0]{}: ft 0xb-0xe.7 (4)
0x00|                                 60            |           `    |              tag: 0x60 (valid) 0xb-0xb.7 (1)
    |                                               |                |              rt1{}: 0xc-0xc.7 (1)
0x00|                                    00         |            .   |                n: 0 0xc-0xc.7 (1)
    |                                               |                |                x[0:0]: 0xd-NA (0)
    |                                               |                |              rt2{}: 0xd-0xe.7 (2)
0x00|                                       01      |             .  |                n: 1 0xd-0xd.7 (1)
    |                                               |                |                x[0:1]: 0xe-0xe.7 (1)
0x00|                                          7d   |              } |                  [0]: "f32" (0x7d) t 0xe-0xe.7 (1)
    |                                               |                |    [1]{}: section 0xf-0x12.7 (4)
0x00|                                             03|               .|      id: "function section" (3) 0xf-0xf.7 (1)
0x10|02                                             |.               |      size: 2 0x10-0x10.7 (1)
    |                                               |                |      content{}: 0x11-0x12.7 (2)
    |                                               |                |        x{}: 0x11-0x12.7 (2)
0x10|   01                                          | .              |          n: 1 0x11-0x11.7 (1)
    |                                               |                |          x[0:1]: 0x12-0x12.7 (1)
0x10|      00                                       |  .             |            [0]: 0 x 0x12-0x12.7 (1)
    |                                               |                |    [2]{}: section 0x13-0x21.7 (15)
0x10|         07                                    |   .            |      id: "export section" (7) 0x13-0x13.7 (1)
0x10|            0d                                 |    .           |      size: 13 0x14-0x14.7 (1)
    |                                               |                |      content{}: 0x15-0x21.7 (13)
    |                                               |                |        ex{}: 0x15-0x21.7 (13)
0x10|               01                              |     .          |          n: 1 0x15-0x15.7 (1)
    |                                               |                |          x[0:1]: 0x16-0x21.7 (12)
    |                                               |                |            [0]{}: ex 0x16-0x21.7 (12)
    |                                               |                |              nm{}: 0x16-0x1f.7 (10)
0x10|                  09                           |      .         |                n: 9 0x16-0x16.7 (1)
0x10|                     63 61 6c 63 75 6c 61 74 65|       calculate|                b: "calculate" 0x17-0x1f.7 (9)
    |                                               |                |              d{}: 0x20-0x21.7 (2)
0x20|00                                             |.               |                tag: "funcidx" (0x0) 0x20-0x20.7 (1)
0x20|   00                                          | .              |                x: 0 0x21-0x21.7 (1)
    |                                               |                |    [3]{}: section 0x22-0x6d.7 (76)
0x20|      0a                                       |  .             |      id: "code section" (10) 0x22-0x22.7 (1)
0x20|         4a                                    |   J            |      size: 74 0x23-0x23.7 (1)
    |                                               |                |      content{}: 0x24-0x6d.7 (74)
    |                                               |                |        code{}: 0x24-0x6d.7 (74)
0x20|            01                                 |    .           |          n: 1 0x24-0x24.7 (1)
    |                                               |                |          x[0:1]: 0x25-0x6d.7 (73)
    |                                               |                |            [0]{}: code 0x25-0x6d.7 (73)
0x20|               48                              |     H          |              size: 72 0x25-0x25.7 (1)
    |                                               |                |              code{}: 0x26-0x6d.7 (72)
    |                                               |                |                t{}: 0x26-0x28.7 (3)
0x20|                  01                           |      .         |                  n: 1 0x26-0x26.7 (1)
    |                                               |                |                  x[0:1]: 0x27-0x28.7 (2)
    |                                               |                |                    [0]{}: t 0x27-0x28.7 (2)
0x20|                     05                        |       .        |                      n: 5 0x27-0x27.7 (1)
0x20|                        7d                     |        }       |                      t: "f32" (0x7d) 0x28-0x28.7 (1)
    |                                               |                |                e[0:31]: 0x29-0x6d.7 (69)
    |                                               |                |                  [0]{}: in 0x29-0x2d.7 (5)
0x20|                           43                  |         C      |                    f32.const: 0x43 (valid) 0x29-0x29.7 (1)
0x20|                              00 40 1c 43      |          .@.C  |                    z: 156.25 0x2a-0x2d.7 (4)
    |                                               |                |                  [1]{}: in 0x2e-0x2f.7 (2)
0x20|                                          21   |              ! |                    local.set: 0x21 (valid) 0x2e-0x2e.7 (1)
0x20|                                             00|               .|                    x: 0 0x2f-0x2f.7 (1)
    |                                               |                |                  [2]{}: in 0x30-0x34.7 (5)
0x30|43                                             |C               |                    f32.const: 0x43 (valid) 0x30-0x30.7 (1)
0x30|   55 55 50 43                                 | UUPC           |                    z: 208.3333282470703 0x31-0x34.7 (4)
    |                                               |                |                  [3]{}: in 0x35-0x36.7 (2)
0x30|               21                              |     !          |                    local.set: 0x21 (valid) 0x35-0x35.7 (1)
0x30|                  01                           |      .         |                    x: 1 0x36-0x36.7 (1)
    |                                               |                |                  [4]{}: in 0x37-0x3b.7 (5)
0x30|                     43                        |       C        |                    f32.const: 0x43 (valid) 0x37-0x37.7 (1)
0x30|                        15 c7 e3 3f            |        ...?    |                    z: 1.7795130014419556 0x38-0x3b.7 (4)
    |                                               |                |                  [5]{}: in 0x3c-0x3d.7 (2)
0x30|                                    21         |            !   |                    local.set: 0x21 (valid) 0x3c-0x3c.7 (1)
0x30|                                       02      |             .  |                    x: 2 0x3d-0x3d.7 (1)
    |                                               |                |                  [6]{}: in 0x3e-0x3f.7 (2)
0x30|                                          20   |                |                    local.get: 0x20 (valid) 0x3e-0x3e.7 (1)
0x30|                                             01|               .|                    x: 1 0x3f-0x3f.7 (1)
    |                                               |                |                  [7]{}: in 0x40-0x40.7 (1)
0x40|8c                                             |.               |                    f32.neg: 0x8c (valid) 0x40-0x40.7 (1)
    |                                               |                |                  [8]{}: in 0x41-0x42.7 (2)
0x40|   20                                          |                |                    local.get: 0x20 (valid) 0x41-0x41.7 (1)
0x40|      00                                       |  .             |                    x: 0 0x42-0x42.7 (1)
    |                                               |                |                  [9]{}: in 0x43-0x43.7 (1)
0x40|         94                                    |   .            |                    f32.mul: 0x94 (valid) 0x43-0x43.7 (1)
    |                                               |                |                  [10]{}: in 0x44-0x45.7 (2)
0x40|            20                                 |                |                    local.get: 0x20 (valid) 0x44-0x44.7 (1)
0x40|               00                              |     .          |                    x: 0 0x45-0x45.7 (1)
    |                                               |                |                  [11]{}: in 0x46-0x47.7 (2)
0x40|                  20                           |                |                    local.get: 0x20 (valid) 0x46-0x46.7 (1)
0x40|                     02                        |       .        |                    x: 2 0x47-0x47.7 (1)
    |                                               |                |                  [12]{}: in 0x48-0x48.7 (1)
0x40|                        94                     |        .       |                    f32.mul: 0x94 (valid) 0x48-0x48.7 (1)
    |                                               |                |                  [13]{}: in 0x49-0x4a.7 (2)
0x40|                           20                  |                |                    local.get: 0x20 (valid) 0x49-0x49.7 (1)
0x40|                              01               |          .     |                    x: 1 0x4a-0x4a.7 (1)
    |                                               |                |                  [14]{}: in 0x4b-0x4b.7 (1)
0x40|                                 93            |           .    |                    f32.sub: 0x93 (valid) 0x4b-0x4b.7 (1)
    |                                               |                |                  [15]{}: in 0x4c-0x4c.7 (1)
0x40|                                    95         |            .   |                    f32.div: 0x95 (valid) 0x4c-0x4c.7 (1)
    |                                               |                |                  [16]{}: in 0x4d-0x4e.7 (2)
0x40|                                       21      |             !  |                    local.set: 0x21 (valid) 0x4d-0x4d.7 (1)
0x40|                                          03   |              . |                    x: 3 0x4e-0x4e.7 (1)
    |                                               |                |                  [17]{}: in 0x4f-0x50.7 (2)
0x40|                                             20|                |                    local.get: 0x20 (valid) 0x4f-0x4f.7 (1)
0x50|01                                             |.               |                    x: 1 0x50-0x50.7 (1)
    |                                               |                |                  [18]{}: in 0x51-0x51.7 (1)
0x50|   8c                                          | .              |                    f32.neg: 0x8c (valid) 0x51-0x51.7 (1)
    |                                               |                |                  [19]{}: in 0x52-0x53.7 (2)
0x50|      20                                       |                |                    local.get: 0x20 (valid) 0x52-0x52.7 (1)
0x50|         00                                    |   .            |                    x: 0 0x53-0x53.7 (1)
    |                                               |                |                  [20]{}: in 0x54-0x54.7 (1)
0x50|            94                                 |    .           |                    f32.mul: 0x94 (valid) 0x54-0x54.7 (1)
    |                                               |                |                  [21]{}: in 0x55-0x56.7 (2)
0x50|               20                              |                |                    local.get: 0x20 (valid) 0x55-0x55.7 (1)
0x50|                  00                           |      .         |                    x: 0 0x56-0x56.7 (1)
    |                                               |                |                  [22]{}: in 0x57-0x58.7 (2)
0x50|                     20                        |                |                    local.get: 0x20 (valid) 0x57-0x57.7 (1)
0x50|                        02                     |        .       |                    x: 2 0x58-0x58.7 (1)
    |                                               |                |                  [23]{}: in 0x59-0x59.7 (1)
0x50|                           94                  |         .      |                    f32.mul: 0x94 (valid) 0x59-0x59.7 (1)
    |                                               |                |                  [24]{}: in 0x5a-0x5b.7 (2)
0x50|                              20               |                |                    local.get: 0x20 (valid) 0x5a-0x5a.7 (1)
0x50|                                 01            |           .    |                    x: 1 0x5b-0x5b.7 (1)
    |                                               |                |                  [25]{}: in 0x5c-0x5c.7 (1)
0x50|                                    93         |            .   |                    f32.sub: 0x93 (valid) 0x5c-0x5c.7 (1)
    |                                               |                |                  [26]{}: in 0x5d-0x5d.7 (1)
0x50|                                       95      |             .  |                    f32.div: 0x95 (valid) 0x5d-0x5d.7 (1)
    |                                               |                |                  [27]{}: in 0x5e-0x5f.7 (2)
0x50|                                          21   |              ! |                    local.set: 0x21 (valid) 0x5e-0x5e.7 (1)
0x50|                                             04|               .|                    x: 4 0x5f-0x5f.7 (1)
    |                                               |                |                  [28]{}: in 0x60-0x6a.7 (11)
0x60|02                                             |.               |                    block: 0x2 (valid) 0x60-0x60.7 (1)
0x60|   40                                          | @              |                    bt: "ε" (64) 0x61-0x61.7 (1)
    |                                               |                |                    instructions[0:5]: 0x62-0x69.7 (8)
    |                                               |                |                      [0]{}: instr 0x62-0x63.7 (2)
0x60|      20                                       |                |                        local.get: 0x20 (valid) 0x62-0x62.7 (1)
0x60|         03                                    |   .            |                        x: 3 0x63-0x63.7 (1)
    |                                               |                |                      [1]{}: instr 0x64-0x65.7 (2)
0x60|            20                                 |                |                        local.get: 0x20 (valid) 0x64-0x64.7 (1)
0x60|               04                              |     .          |                        x: 4 0x65-0x65.7 (1)
    |                                               |                |                      [2]{}: instr 0x66-0x66.7 (1)
0x60|                  5b                           |      [         |                        f32.eq: 0x5b (valid) 0x66-0x66.7 (1)
    |                                               |                |                      [3]{}: instr 0x67-0x68.7 (2)
0x60|                     0d                        |       .        |                        br_if: 0xd (valid) 0x67-0x67.7 (1)
0x60|                        00                     |        .       |                        l: 0 0x68-0x68.7 (1)
    |                                               |                |                      [4]{}: instr 0x69-0x69.7 (1)
0x60|                           00                  |         .      |                        unreachable: 0x0 (valid) 0x69-0x69.7 (1)
0x60|                              0b               |          .     |                    end: 11 (valid) 0x6a-0x6a.7 (1)
    |                                               |                |                  [29]{}: in 0x6b-0x6c.7 (2)
0x60|                                 20            |                |                    local.get: 0x20 (valid) 0x6b-0x6b.7 (1)
0x60|                                    04         |            .   |                    x: 4 0x6c-0x6c.7 (1)
    |                                               |                |                  [30]{}: in 0x6d-0x6d.7 (1)
0x60|                                       0b|     |             .| |                    end: 0xb (valid) 0x6d-0x6d.7 (1)
