$ fq -d wasm dv float_exprs-1.wasm
    |00 01 02 03 04 05 06 07 08 09 0a 0b 0c 0d 0e 0f|0123456789abcdef|.{}: float_exprs-1.wasm (wasm) 0x0-0x54 (84)
0x00|00 61 73 6d                                    |.asm            |  magic: raw bits (valid) 0x0-0x4 (4)
0x00|            01 00 00 00                        |    ....        |  version: 1 0x4-0x8 (4)
    |                                               |                |  sections[0:4]: 0x8-0x54 (76)
    |                                               |                |    [0]{}: section 0x8-0x19 (17)
0x00|                        01                     |        .       |      id: "type_section" (1) 0x8-0x9 (1)
0x00|                           0f                  |         .      |      size: 15 (valid) 0x9-0xa (1)
    |                                               |                |      content{}: 0xa-0x19 (15)
    |                                               |                |        ft{}: 0xa-0x19 (15)
0x00|                              02               |          .     |          n: 2 (valid) 0xa-0xb (1)
    |                                               |                |          x[0:2]: 0xb-0x19 (14)
    |                                               |                |            [0]{}: ft 0xb-0x12 (7)
0x00|                                 60            |           `    |              tag: 0x60 (valid) 0xb-0xc (1)
    |                                               |                |              rt1{}: 0xc-0x10 (4)
0x00|                                    03         |            .   |                n: 3 (valid) 0xc-0xd (1)
    |                                               |                |                x[0:3]: 0xd-0x10 (3)
0x00|                                       7d      |             }  |                  [0]: "f32" (0x7d) t 0xd-0xe (1)
0x00|                                          7d   |              } |                  [1]: "f32" (0x7d) t 0xe-0xf (1)
0x00|                                             7d|               }|                  [2]: "f32" (0x7d) t 0xf-0x10 (1)
    |                                               |                |              rt2{}: 0x10-0x12 (2)
0x10|01                                             |.               |                n: 1 (valid) 0x10-0x11 (1)
    |                                               |                |                x[0:1]: 0x11-0x12 (1)
0x10|   7d                                          | }              |                  [0]: "f32" (0x7d) t 0x11-0x12 (1)
    |                                               |                |            [1]{}: ft 0x12-0x19 (7)
0x10|      60                                       |  `             |              tag: 0x60 (valid) 0x12-0x13 (1)
    |                                               |                |              rt1{}: 0x13-0x17 (4)
0x10|         03                                    |   .            |                n: 3 (valid) 0x13-0x14 (1)
    |                                               |                |                x[0:3]: 0x14-0x17 (3)
0x10|            7c                                 |    |           |                  [0]: "f64" (0x7c) t 0x14-0x15 (1)
0x10|               7c                              |     |          |                  [1]: "f64" (0x7c) t 0x15-0x16 (1)
0x10|                  7c                           |      |         |                  [2]: "f64" (0x7c) t 0x16-0x17 (1)
    |                                               |                |              rt2{}: 0x17-0x19 (2)
0x10|                     01                        |       .        |                n: 1 (valid) 0x17-0x18 (1)
    |                                               |                |                x[0:1]: 0x18-0x19 (1)
0x10|                        7c                     |        |       |                  [0]: "f64" (0x7c) t 0x18-0x19 (1)
    |                                               |                |    [1]{}: section 0x19-0x1e (5)
0x10|                           03                  |         .      |      id: "function_section" (3) 0x19-0x1a (1)
0x10|                              03               |          .     |      size: 3 (valid) 0x1a-0x1b (1)
    |                                               |                |      content{}: 0x1b-0x1e (3)
    |                                               |                |        x{}: 0x1b-0x1e (3)
0x10|                                 02            |           .    |          n: 2 (valid) 0x1b-0x1c (1)
    |                                               |                |          x[0:2]: 0x1c-0x1e (2)
0x10|                                    00         |            .   |            [0]: 0 x (valid) 0x1c-0x1d (1)
0x10|                                       01      |             .  |            [1]: 1 x (valid) 0x1d-0x1e (1)
    |                                               |                |    [2]{}: section 0x1e-0x3b (29)
0x10|                                          07   |              . |      id: "export_section" (7) 0x1e-0x1f (1)
0x10|                                             1b|               .|      size: 27 (valid) 0x1f-0x20 (1)
    |                                               |                |      content{}: 0x20-0x3b (27)
    |                                               |                |        ex{}: 0x20-0x3b (27)
0x20|02                                             |.               |          n: 2 (valid) 0x20-0x21 (1)
    |                                               |                |          x[0:2]: 0x21-0x3b (26)
    |                                               |                |            [0]{}: ex 0x21-0x2e (13)
    |                                               |                |              nm{}: 0x21-0x2c (11)
0x20|   0a                                          | .              |                n: 10 (valid) 0x21-0x22 (1)
0x20|      66 33 32 2e 6e 6f 5f 66 6d 61            |  f32.no_fma    |                b: "f32.no_fma" 0x22-0x2c (10)
    |                                               |                |              d{}: 0x2c-0x2e (2)
0x20|                                    00         |            .   |                tag: "funcidx" (0x0) 0x2c-0x2d (1)
0x20|                                       00      |             .  |                x: 0 (valid) 0x2d-0x2e (1)
    |                                               |                |            [1]{}: ex 0x2e-0x3b (13)
    |                                               |                |              nm{}: 0x2e-0x39 (11)
0x20|                                          0a   |              . |                n: 10 (valid) 0x2e-0x2f (1)
0x20|                                             66|               f|                b: "f64.no_fma" 0x2f-0x39 (10)
0x30|36 34 2e 6e 6f 5f 66 6d 61                     |64.no_fma       |
    |                                               |                |              d{}: 0x39-0x3b (2)
0x30|                           00                  |         .      |                tag: "funcidx" (0x0) 0x39-0x3a (1)
0x30|                              01               |          .     |                x: 1 (valid) 0x3a-0x3b (1)
    |                                               |                |    [3]{}: section 0x3b-0x54 (25)
0x30|                                 0a            |           .    |      id: "code_section" (10) 0x3b-0x3c (1)
0x30|                                    17         |            .   |      size: 23 (valid) 0x3c-0x3d (1)
    |                                               |                |      content{}: 0x3d-0x54 (23)
    |                                               |                |        code{}: 0x3d-0x54 (23)
0x30|                                       02      |             .  |          n: 2 (valid) 0x3d-0x3e (1)
    |                                               |                |          x[0:2]: 0x3e-0x54 (22)
    |                                               |                |            [0]{}: code 0x3e-0x49 (11)
0x30|                                          0a   |              . |              size: 10 (valid) 0x3e-0x3f (1)
    |                                               |                |              code{}: 0x3f-0x49 (10)
    |                                               |                |                t{}: 0x3f-0x40 (1)
0x30|                                             00|               .|                  n: 0 (valid) 0x3f-0x40 (1)
    |                                               |                |                  x[0:0]: 0x40-0x40 (0)
    |                                               |                |                e[0:6]: 0x40-0x49 (9)
    |                                               |                |                  [0]{}: in 0x40-0x42 (2)
0x40|20                                             |                |                    opcode: "local.get" (0x20) 0x40-0x41 (1)
0x40|   00                                          | .              |                    x: 0 (valid) 0x41-0x42 (1)
    |                                               |                |                  [1]{}: in 0x42-0x44 (2)
0x40|      20                                       |                |                    opcode: "local.get" (0x20) 0x42-0x43 (1)
0x40|         01                                    |   .            |                    x: 1 (valid) 0x43-0x44 (1)
    |                                               |                |                  [2]{}: in 0x44-0x45 (1)
0x40|            94                                 |    .           |                    opcode: "f32.mul" (0x94) 0x44-0x45 (1)
    |                                               |                |                  [3]{}: in 0x45-0x47 (2)
0x40|               20                              |                |                    opcode: "local.get" (0x20) 0x45-0x46 (1)
0x40|                  02                           |      .         |                    x: 2 (valid) 0x46-0x47 (1)
    |                                               |                |                  [4]{}: in 0x47-0x48 (1)
0x40|                     92                        |       .        |                    opcode: "f32.add" (0x92) 0x47-0x48 (1)
    |                                               |                |                  [5]{}: in 0x48-0x49 (1)
0x40|                        0b                     |        .       |                    opcode: "end" (0xb) 0x48-0x49 (1)
    |                                               |                |            [1]{}: code 0x49-0x54 (11)
0x40|                           0a                  |         .      |              size: 10 (valid) 0x49-0x4a (1)
    |                                               |                |              code{}: 0x4a-0x54 (10)
    |                                               |                |                t{}: 0x4a-0x4b (1)
0x40|                              00               |          .     |                  n: 0 (valid) 0x4a-0x4b (1)
    |                                               |                |                  x[0:0]: 0x4b-0x4b (0)
    |                                               |                |                e[0:6]: 0x4b-0x54 (9)
    |                                               |                |                  [0]{}: in 0x4b-0x4d (2)
0x40|                                 20            |                |                    opcode: "local.get" (0x20) 0x4b-0x4c (1)
0x40|                                    00         |            .   |                    x: 0 (valid) 0x4c-0x4d (1)
    |                                               |                |                  [1]{}: in 0x4d-0x4f (2)
0x40|                                       20      |                |                    opcode: "local.get" (0x20) 0x4d-0x4e (1)
0x40|                                          01   |              . |                    x: 1 (valid) 0x4e-0x4f (1)
    |                                               |                |                  [2]{}: in 0x4f-0x50 (1)
0x40|                                             a2|               .|                    opcode: "f64.mul" (0xa2) 0x4f-0x50 (1)
    |                                               |                |                  [3]{}: in 0x50-0x52 (2)
0x50|20                                             |                |                    opcode: "local.get" (0x20) 0x50-0x51 (1)
0x50|   02                                          | .              |                    x: 2 (valid) 0x51-0x52 (1)
    |                                               |                |                  [4]{}: in 0x52-0x53 (1)
0x50|      a0                                       |  .             |                    opcode: "f64.add" (0xa0) 0x52-0x53 (1)
    |                                               |                |                  [5]{}: in 0x53-0x54 (1)
0x50|         0b|                                   |   .|           |                    opcode: "end" (0xb) 0x53-0x54 (1)
