$ fq -d wasm dv float_exprs-45.wasm
     |00 01 02 03 04 05 06 07 08 09 0a 0b 0c 0d 0e 0f|0123456789abcdef|.{}: float_exprs-45.wasm (wasm) 0x0-0x1b8 (440)
0x000|00 61 73 6d                                    |.asm            |  magic: raw bits (valid) 0x0-0x4 (4)
0x000|            01 00 00 00                        |    ....        |  version: 1 0x4-0x8 (4)
     |                                               |                |  sections[0:4]: 0x8-0x1b8 (432)
     |                                               |                |    [0]{}: section 0x8-0x15 (13)
0x000|                        01                     |        .       |      id: "type_section" (1) 0x8-0x9 (1)
0x000|                           0b                  |         .      |      size: 11 (valid) 0x9-0xa (1)
     |                                               |                |      content{}: 0xa-0x15 (11)
     |                                               |                |        ft{}: 0xa-0x15 (11)
0x000|                              02               |          .     |          n: 2 (valid) 0xa-0xb (1)
     |                                               |                |          x[0:2]: 0xb-0x15 (10)
     |                                               |                |            [0]{}: ft 0xb-0x10 (5)
0x000|                                 60            |           `    |              tag: 0x60 (valid) 0xb-0xc (1)
     |                                               |                |              rt1{}: 0xc-0xe (2)
0x000|                                    01         |            .   |                n: 1 (valid) 0xc-0xd (1)
     |                                               |                |                x[0:1]: 0xd-0xe (1)
0x000|                                       7d      |             }  |                  [0]: "f32" (0x7d) t 0xd-0xe (1)
     |                                               |                |              rt2{}: 0xe-0x10 (2)
0x000|                                          01   |              . |                n: 1 (valid) 0xe-0xf (1)
     |                                               |                |                x[0:1]: 0xf-0x10 (1)
0x000|                                             7d|               }|                  [0]: "f32" (0x7d) t 0xf-0x10 (1)
     |                                               |                |            [1]{}: ft 0x10-0x15 (5)
0x010|60                                             |`               |              tag: 0x60 (valid) 0x10-0x11 (1)
     |                                               |                |              rt1{}: 0x11-0x13 (2)
0x010|   01                                          | .              |                n: 1 (valid) 0x11-0x12 (1)
     |                                               |                |                x[0:1]: 0x12-0x13 (1)
0x010|      7c                                       |  |             |                  [0]: "f64" (0x7c) t 0x12-0x13 (1)
     |                                               |                |              rt2{}: 0x13-0x15 (2)
0x010|         01                                    |   .            |                n: 1 (valid) 0x13-0x14 (1)
     |                                               |                |                x[0:1]: 0x14-0x15 (1)
0x010|            7c                                 |    |           |                  [0]: "f64" (0x7c) t 0x14-0x15 (1)
     |                                               |                |    [1]{}: section 0x15-0x20 (11)
0x010|               03                              |     .          |      id: "function_section" (3) 0x15-0x16 (1)
0x010|                  09                           |      .         |      size: 9 (valid) 0x16-0x17 (1)
     |                                               |                |      content{}: 0x17-0x20 (9)
     |                                               |                |        x{}: 0x17-0x20 (9)
0x010|                     08                        |       .        |          n: 8 (valid) 0x17-0x18 (1)
     |                                               |                |          x[0:8]: 0x18-0x20 (8)
0x010|                        00                     |        .       |            [0]: 0 x (valid) 0x18-0x19 (1)
0x010|                           00                  |         .      |            [1]: 0 x (valid) 0x19-0x1a (1)
0x010|                              00               |          .     |            [2]: 0 x (valid) 0x1a-0x1b (1)
0x010|                                 00            |           .    |            [3]: 0 x (valid) 0x1b-0x1c (1)
0x010|                                    01         |            .   |            [4]: 1 x (valid) 0x1c-0x1d (1)
0x010|                                       01      |             .  |            [5]: 1 x (valid) 0x1d-0x1e (1)
0x010|                                          01   |              . |            [6]: 1 x (valid) 0x1e-0x1f (1)
0x010|                                             01|               .|            [7]: 1 x (valid) 0x1f-0x20 (1)
     |                                               |                |    [2]{}: section 0x20-0x11c (252)
0x020|07                                             |.               |      id: "export_section" (7) 0x20-0x21 (1)
0x020|   f9 01                                       | ..             |      size: 249 (valid) 0x21-0x23 (2)
     |                                               |                |      content{}: 0x23-0x11c (249)
     |                                               |                |        ex{}: 0x23-0x11c (249)
0x020|         08                                    |   .            |          n: 8 (valid) 0x23-0x24 (1)
     |                                               |                |          x[0:8]: 0x24-0x11c (248)
     |                                               |                |            [0]{}: ex 0x24-0x43 (31)
     |                                               |                |              nm{}: 0x24-0x41 (29)
0x020|            1c                                 |    .           |                n: 28 (valid) 0x24-0x25 (1)
0x020|               66 33 32 2e 6e 6f 5f 66 6f 6c 64|     f32.no_fold|                b: "f32.no_fold_lt_select_to_abs" 0x25-0x41 (28)
0x030|5f 6c 74 5f 73 65 6c 65 63 74 5f 74 6f 5f 61 62|_lt_select_to_ab|
0x040|73                                             |s               |
     |                                               |                |              d{}: 0x41-0x43 (2)
0x040|   00                                          | .              |                tag: "funcidx" (0x0) 0x41-0x42 (1)
0x040|      00                                       |  .             |                x: 0 (valid) 0x42-0x43 (1)
     |                                               |                |            [1]{}: ex 0x43-0x62 (31)
     |                                               |                |              nm{}: 0x43-0x60 (29)
0x040|         1c                                    |   .            |                n: 28 (valid) 0x43-0x44 (1)
0x040|            66 33 32 2e 6e 6f 5f 66 6f 6c 64 5f|    f32.no_fold_|                b: "f32.no_fold_le_select_to_abs" 0x44-0x60 (28)
0x050|6c 65 5f 73 65 6c 65 63 74 5f 74 6f 5f 61 62 73|le_select_to_abs|
     |                                               |                |              d{}: 0x60-0x62 (2)
0x060|00                                             |.               |                tag: "funcidx" (0x0) 0x60-0x61 (1)
0x060|   01                                          | .              |                x: 1 (valid) 0x61-0x62 (1)
     |                                               |                |            [2]{}: ex 0x62-0x81 (31)
     |                                               |                |              nm{}: 0x62-0x7f (29)
0x060|      1c                                       |  .             |                n: 28 (valid) 0x62-0x63 (1)
0x060|         66 33 32 2e 6e 6f 5f 66 6f 6c 64 5f 67|   f32.no_fold_g|                b: "f32.no_fold_gt_select_to_abs" 0x63-0x7f (28)
0x070|74 5f 73 65 6c 65 63 74 5f 74 6f 5f 61 62 73   |t_select_to_abs |
     |                                               |                |              d{}: 0x7f-0x81 (2)
0x070|                                             00|               .|                tag: "funcidx" (0x0) 0x7f-0x80 (1)
0x080|02                                             |.               |                x: 2 (valid) 0x80-0x81 (1)
     |                                               |                |            [3]{}: ex 0x81-0xa0 (31)
     |                                               |                |              nm{}: 0x81-0x9e (29)
0x080|   1c                                          | .              |                n: 28 (valid) 0x81-0x82 (1)
0x080|      66 33 32 2e 6e 6f 5f 66 6f 6c 64 5f 67 65|  f32.no_fold_ge|                b: "f32.no_fold_ge_select_to_abs" 0x82-0x9e (28)
0x090|5f 73 65 6c 65 63 74 5f 74 6f 5f 61 62 73      |_select_to_abs  |
     |                                               |                |              d{}: 0x9e-0xa0 (2)
0x090|                                          00   |              . |                tag: "funcidx" (0x0) 0x9e-0x9f (1)
0x090|                                             03|               .|                x: 3 (valid) 0x9f-0xa0 (1)
     |                                               |                |            [4]{}: ex 0xa0-0xbf (31)
     |                                               |                |              nm{}: 0xa0-0xbd (29)
0x0a0|1c                                             |.               |                n: 28 (valid) 0xa0-0xa1 (1)
0x0a0|   66 36 34 2e 6e 6f 5f 66 6f 6c 64 5f 6c 74 5f| f64.no_fold_lt_|                b: "f64.no_fold_lt_select_to_abs" 0xa1-0xbd (28)
0x0b0|73 65 6c 65 63 74 5f 74 6f 5f 61 62 73         |select_to_abs   |
     |                                               |                |              d{}: 0xbd-0xbf (2)
0x0b0|                                       00      |             .  |                tag: "funcidx" (0x0) 0xbd-0xbe (1)
0x0b0|                                          04   |              . |                x: 4 (valid) 0xbe-0xbf (1)
     |                                               |                |            [5]{}: ex 0xbf-0xde (31)
     |                                               |                |              nm{}: 0xbf-0xdc (29)
0x0b0|                                             1c|               .|                n: 28 (valid) 0xbf-0xc0 (1)
0x0c0|66 36 34 2e 6e 6f 5f 66 6f 6c 64 5f 6c 65 5f 73|f64.no_fold_le_s|                b: "f64.no_fold_le_select_to_abs" 0xc0-0xdc (28)
0x0d0|65 6c 65 63 74 5f 74 6f 5f 61 62 73            |elect_to_abs    |
     |                                               |                |              d{}: 0xdc-0xde (2)
0x0d0|                                    00         |            .   |                tag: "funcidx" (0x0) 0xdc-0xdd (1)
0x0d0|                                       05      |             .  |                x: 5 (valid) 0xdd-0xde (1)
     |                                               |                |            [6]{}: ex 0xde-0xfd (31)
     |                                               |                |              nm{}: 0xde-0xfb (29)
0x0d0|                                          1c   |              . |                n: 28 (valid) 0xde-0xdf (1)
0x0d0|                                             66|               f|                b: "f64.no_fold_gt_select_to_abs" 0xdf-0xfb (28)
0x0e0|36 34 2e 6e 6f 5f 66 6f 6c 64 5f 67 74 5f 73 65|64.no_fold_gt_se|
0x0f0|6c 65 63 74 5f 74 6f 5f 61 62 73               |lect_to_abs     |
     |                                               |                |              d{}: 0xfb-0xfd (2)
0x0f0|                                 00            |           .    |                tag: "funcidx" (0x0) 0xfb-0xfc (1)
0x0f0|                                    06         |            .   |                x: 6 (valid) 0xfc-0xfd (1)
     |                                               |                |            [7]{}: ex 0xfd-0x11c (31)
     |                                               |                |              nm{}: 0xfd-0x11a (29)
0x0f0|                                       1c      |             .  |                n: 28 (valid) 0xfd-0xfe (1)
0x0f0|                                          66 36|              f6|                b: "f64.no_fold_ge_select_to_abs" 0xfe-0x11a (28)
0x100|34 2e 6e 6f 5f 66 6f 6c 64 5f 67 65 5f 73 65 6c|4.no_fold_ge_sel|
0x110|65 63 74 5f 74 6f 5f 61 62 73                  |ect_to_abs      |
     |                                               |                |              d{}: 0x11a-0x11c (2)
0x110|                              00               |          .     |                tag: "funcidx" (0x0) 0x11a-0x11b (1)
0x110|                                 07            |           .    |                x: 7 (valid) 0x11b-0x11c (1)
     |                                               |                |    [3]{}: section 0x11c-0x1b8 (156)
0x110|                                    0a         |            .   |      id: "code_section" (10) 0x11c-0x11d (1)
0x110|                                       99 01   |             .. |      size: 153 (valid) 0x11d-0x11f (2)
     |                                               |                |      content{}: 0x11f-0x1b8 (153)
     |                                               |                |        code{}: 0x11f-0x1b8 (153)
0x110|                                             08|               .|          n: 8 (valid) 0x11f-0x120 (1)
     |                                               |                |          x[0:8]: 0x120-0x1b8 (152)
     |                                               |                |            [0]{}: code 0x120-0x131 (17)
0x120|10                                             |.               |              size: 16 (valid) 0x120-0x121 (1)
     |                                               |                |              code{}: 0x121-0x131 (16)
     |                                               |                |                t{}: 0x121-0x122 (1)
0x120|   00                                          | .              |                  n: 0 (valid) 0x121-0x122 (1)
     |                                               |                |                  x[0:0]: 0x122-0x122 (0)
     |                                               |                |                e[0:8]: 0x122-0x131 (15)
     |                                               |                |                  [0]{}: in 0x122-0x124 (2)
0x120|      20                                       |                |                    opcode: "local.get" (0x20) 0x122-0x123 (1)
0x120|         00                                    |   .            |                    x: 0 (valid) 0x123-0x124 (1)
     |                                               |                |                  [1]{}: in 0x124-0x125 (1)
0x120|            8c                                 |    .           |                    opcode: "f32.neg" (0x8c) 0x124-0x125 (1)
     |                                               |                |                  [2]{}: in 0x125-0x127 (2)
0x120|               20                              |                |                    opcode: "local.get" (0x20) 0x125-0x126 (1)
0x120|                  00                           |      .         |                    x: 0 (valid) 0x126-0x127 (1)
     |                                               |                |                  [3]{}: in 0x127-0x129 (2)
0x120|                     20                        |                |                    opcode: "local.get" (0x20) 0x127-0x128 (1)
0x120|                        00                     |        .       |                    x: 0 (valid) 0x128-0x129 (1)
     |                                               |                |                  [4]{}: in 0x129-0x12e (5)
0x120|                           43                  |         C      |                    opcode: "f32.const" (0x43) 0x129-0x12a (1)
0x120|                              00 00 00 00      |          ....  |                    z: 0 0x12a-0x12e (4)
     |                                               |                |                  [5]{}: in 0x12e-0x12f (1)
0x120|                                          5d   |              ] |                    opcode: "f32.lt" (0x5d) 0x12e-0x12f (1)
     |                                               |                |                  [6]{}: in 0x12f-0x130 (1)
0x120|                                             1b|               .|                    opcode: "select" (0x1b) 0x12f-0x130 (1)
     |                                               |                |                  [7]{}: in 0x130-0x131 (1)
0x130|0b                                             |.               |                    opcode: "end" (0xb) 0x130-0x131 (1)
     |                                               |                |            [1]{}: code 0x131-0x142 (17)
0x130|   10                                          | .              |              size: 16 (valid) 0x131-0x132 (1)
     |                                               |                |              code{}: 0x132-0x142 (16)
     |                                               |                |                t{}: 0x132-0x133 (1)
0x130|      00                                       |  .             |                  n: 0 (valid) 0x132-0x133 (1)
     |                                               |                |                  x[0:0]: 0x133-0x133 (0)
     |                                               |                |                e[0:8]: 0x133-0x142 (15)
     |                                               |                |                  [0]{}: in 0x133-0x135 (2)
0x130|         20                                    |                |                    opcode: "local.get" (0x20) 0x133-0x134 (1)
0x130|            00                                 |    .           |                    x: 0 (valid) 0x134-0x135 (1)
     |                                               |                |                  [1]{}: in 0x135-0x136 (1)
0x130|               8c                              |     .          |                    opcode: "f32.neg" (0x8c) 0x135-0x136 (1)
     |                                               |                |                  [2]{}: in 0x136-0x138 (2)
0x130|                  20                           |                |                    opcode: "local.get" (0x20) 0x136-0x137 (1)
0x130|                     00                        |       .        |                    x: 0 (valid) 0x137-0x138 (1)
     |                                               |                |                  [3]{}: in 0x138-0x13a (2)
0x130|                        20                     |                |                    opcode: "local.get" (0x20) 0x138-0x139 (1)
0x130|                           00                  |         .      |                    x: 0 (valid) 0x139-0x13a (1)
     |                                               |                |                  [4]{}: in 0x13a-0x13f (5)
0x130|                              43               |          C     |                    opcode: "f32.const" (0x43) 0x13a-0x13b (1)
0x130|                                 00 00 00 80   |           .... |                    z: -0 0x13b-0x13f (4)
     |                                               |                |                  [5]{}: in 0x13f-0x140 (1)
0x130|                                             5f|               _|                    opcode: "f32.le" (0x5f) 0x13f-0x140 (1)
     |                                               |                |                  [6]{}: in 0x140-0x141 (1)
0x140|1b                                             |.               |                    opcode: "select" (0x1b) 0x140-0x141 (1)
     |                                               |                |                  [7]{}: in 0x141-0x142 (1)
0x140|   0b                                          | .              |                    opcode: "end" (0xb) 0x141-0x142 (1)
     |                                               |                |            [2]{}: code 0x142-0x153 (17)
0x140|      10                                       |  .             |              size: 16 (valid) 0x142-0x143 (1)
     |                                               |                |              code{}: 0x143-0x153 (16)
     |                                               |                |                t{}: 0x143-0x144 (1)
0x140|         00                                    |   .            |                  n: 0 (valid) 0x143-0x144 (1)
     |                                               |                |                  x[0:0]: 0x144-0x144 (0)
     |                                               |                |                e[0:8]: 0x144-0x153 (15)
     |                                               |                |                  [0]{}: in 0x144-0x146 (2)
0x140|            20                                 |                |                    opcode: "local.get" (0x20) 0x144-0x145 (1)
0x140|               00                              |     .          |                    x: 0 (valid) 0x145-0x146 (1)
     |                                               |                |                  [1]{}: in 0x146-0x148 (2)
0x140|                  20                           |                |                    opcode: "local.get" (0x20) 0x146-0x147 (1)
0x140|                     00                        |       .        |                    x: 0 (valid) 0x147-0x148 (1)
     |                                               |                |                  [2]{}: in 0x148-0x149 (1)
0x140|                        8c                     |        .       |                    opcode: "f32.neg" (0x8c) 0x148-0x149 (1)
     |                                               |                |                  [3]{}: in 0x149-0x14b (2)
0x140|                           20                  |                |                    opcode: "local.get" (0x20) 0x149-0x14a (1)
0x140|                              00               |          .     |                    x: 0 (valid) 0x14a-0x14b (1)
     |                                               |                |                  [4]{}: in 0x14b-0x150 (5)
0x140|                                 43            |           C    |                    opcode: "f32.const" (0x43) 0x14b-0x14c (1)
0x140|                                    00 00 00 80|            ....|                    z: -0 0x14c-0x150 (4)
     |                                               |                |                  [5]{}: in 0x150-0x151 (1)
0x150|5e                                             |^               |                    opcode: "f32.gt" (0x5e) 0x150-0x151 (1)
     |                                               |                |                  [6]{}: in 0x151-0x152 (1)
0x150|   1b                                          | .              |                    opcode: "select" (0x1b) 0x151-0x152 (1)
     |                                               |                |                  [7]{}: in 0x152-0x153 (1)
0x150|      0b                                       |  .             |                    opcode: "end" (0xb) 0x152-0x153 (1)
     |                                               |                |            [3]{}: code 0x153-0x164 (17)
0x150|         10                                    |   .            |              size: 16 (valid) 0x153-0x154 (1)
     |                                               |                |              code{}: 0x154-0x164 (16)
     |                                               |                |                t{}: 0x154-0x155 (1)
0x150|            00                                 |    .           |                  n: 0 (valid) 0x154-0x155 (1)
     |                                               |                |                  x[0:0]: 0x155-0x155 (0)
     |                                               |                |                e[0:8]: 0x155-0x164 (15)
     |                                               |                |                  [0]{}: in 0x155-0x157 (2)
0x150|               20                              |                |                    opcode: "local.get" (0x20) 0x155-0x156 (1)
0x150|                  00                           |      .         |                    x: 0 (valid) 0x156-0x157 (1)
     |                                               |                |                  [1]{}: in 0x157-0x159 (2)
0x150|                     20                        |                |                    opcode: "local.get" (0x20) 0x157-0x158 (1)
0x150|                        00                     |        .       |                    x: 0 (valid) 0x158-0x159 (1)
     |                                               |                |                  [2]{}: in 0x159-0x15a (1)
0x150|                           8c                  |         .      |                    opcode: "f32.neg" (0x8c) 0x159-0x15a (1)
     |                                               |                |                  [3]{}: in 0x15a-0x15c (2)
0x150|                              20               |                |                    opcode: "local.get" (0x20) 0x15a-0x15b (1)
0x150|                                 00            |           .    |                    x: 0 (valid) 0x15b-0x15c (1)
     |                                               |                |                  [4]{}: in 0x15c-0x161 (5)
0x150|                                    43         |            C   |                    opcode: "f32.const" (0x43) 0x15c-0x15d (1)
0x150|                                       00 00 00|             ...|                    z: 0 0x15d-0x161 (4)
0x160|00                                             |.               |
     |                                               |                |                  [5]{}: in 0x161-0x162 (1)
0x160|   60                                          | `              |                    opcode: "f32.ge" (0x60) 0x161-0x162 (1)
     |                                               |                |                  [6]{}: in 0x162-0x163 (1)
0x160|      1b                                       |  .             |                    opcode: "select" (0x1b) 0x162-0x163 (1)
     |                                               |                |                  [7]{}: in 0x163-0x164 (1)
0x160|         0b                                    |   .            |                    opcode: "end" (0xb) 0x163-0x164 (1)
     |                                               |                |            [4]{}: code 0x164-0x179 (21)
0x160|            14                                 |    .           |              size: 20 (valid) 0x164-0x165 (1)
     |                                               |                |              code{}: 0x165-0x179 (20)
     |                                               |                |                t{}: 0x165-0x166 (1)
0x160|               00                              |     .          |                  n: 0 (valid) 0x165-0x166 (1)
     |                                               |                |                  x[0:0]: 0x166-0x166 (0)
     |                                               |                |                e[0:8]: 0x166-0x179 (19)
     |                                               |                |                  [0]{}: in 0x166-0x168 (2)
0x160|                  20                           |                |                    opcode: "local.get" (0x20) 0x166-0x167 (1)
0x160|                     00                        |       .        |                    x: 0 (valid) 0x167-0x168 (1)
     |                                               |                |                  [1]{}: in 0x168-0x169 (1)
0x160|                        9a                     |        .       |                    opcode: "f64.neg" (0x9a) 0x168-0x169 (1)
     |                                               |                |                  [2]{}: in 0x169-0x16b (2)
0x160|                           20                  |                |                    opcode: "local.get" (0x20) 0x169-0x16a (1)
0x160|                              00               |          .     |                    x: 0 (valid) 0x16a-0x16b (1)
     |                                               |                |                  [3]{}: in 0x16b-0x16d (2)
0x160|                                 20            |                |                    opcode: "local.get" (0x20) 0x16b-0x16c (1)
0x160|                                    00         |            .   |                    x: 0 (valid) 0x16c-0x16d (1)
     |                                               |                |                  [4]{}: in 0x16d-0x176 (9)
0x160|                                       44      |             D  |                    opcode: "f64.const" (0x44) 0x16d-0x16e (1)
0x160|                                          00 00|              ..|                    z: 0 0x16e-0x176 (8)
0x170|00 00 00 00 00 00                              |......          |
     |                                               |                |                  [5]{}: in 0x176-0x177 (1)
0x170|                  63                           |      c         |                    opcode: "f64.lt" (0x63) 0x176-0x177 (1)
     |                                               |                |                  [6]{}: in 0x177-0x178 (1)
0x170|                     1b                        |       .        |                    opcode: "select" (0x1b) 0x177-0x178 (1)
     |                                               |                |                  [7]{}: in 0x178-0x179 (1)
0x170|                        0b                     |        .       |                    opcode: "end" (0xb) 0x178-0x179 (1)
     |                                               |                |            [5]{}: code 0x179-0x18e (21)
0x170|                           14                  |         .      |              size: 20 (valid) 0x179-0x17a (1)
     |                                               |                |              code{}: 0x17a-0x18e (20)
     |                                               |                |                t{}: 0x17a-0x17b (1)
0x170|                              00               |          .     |                  n: 0 (valid) 0x17a-0x17b (1)
     |                                               |                |                  x[0:0]: 0x17b-0x17b (0)
     |                                               |                |                e[0:8]: 0x17b-0x18e (19)
     |                                               |                |                  [0]{}: in 0x17b-0x17d (2)
0x170|                                 20            |                |                    opcode: "local.get" (0x20) 0x17b-0x17c (1)
0x170|                                    00         |            .   |                    x: 0 (valid) 0x17c-0x17d (1)
     |                                               |                |                  [1]{}: in 0x17d-0x17e (1)
0x170|                                       9a      |             .  |                    opcode: "f64.neg" (0x9a) 0x17d-0x17e (1)
     |                                               |                |                  [2]{}: in 0x17e-0x180 (2)
0x170|                                          20   |                |                    opcode: "local.get" (0x20) 0x17e-0x17f (1)
0x170|                                             00|               .|                    x: 0 (valid) 0x17f-0x180 (1)
     |                                               |                |                  [3]{}: in 0x180-0x182 (2)
0x180|20                                             |                |                    opcode: "local.get" (0x20) 0x180-0x181 (1)
0x180|   00                                          | .              |                    x: 0 (valid) 0x181-0x182 (1)
     |                                               |                |                  [4]{}: in 0x182-0x18b (9)
0x180|      44                                       |  D             |                    opcode: "f64.const" (0x44) 0x182-0x183 (1)
0x180|         00 00 00 00 00 00 00 80               |   ........     |                    z: -0 0x183-0x18b (8)
     |                                               |                |                  [5]{}: in 0x18b-0x18c (1)
0x180|                                 65            |           e    |                    opcode: "f64.le" (0x65) 0x18b-0x18c (1)
     |                                               |                |                  [6]{}: in 0x18c-0x18d (1)
0x180|                                    1b         |            .   |                    opcode: "select" (0x1b) 0x18c-0x18d (1)
     |                                               |                |                  [7]{}: in 0x18d-0x18e (1)
0x180|                                       0b      |             .  |                    opcode: "end" (0xb) 0x18d-0x18e (1)
     |                                               |                |            [6]{}: code 0x18e-0x1a3 (21)
0x180|                                          14   |              . |              size: 20 (valid) 0x18e-0x18f (1)
     |                                               |                |              code{}: 0x18f-0x1a3 (20)
     |                                               |                |                t{}: 0x18f-0x190 (1)
0x180|                                             00|               .|                  n: 0 (valid) 0x18f-0x190 (1)
     |                                               |                |                  x[0:0]: 0x190-0x190 (0)
     |                                               |                |                e[0:8]: 0x190-0x1a3 (19)
     |                                               |                |                  [0]{}: in 0x190-0x192 (2)
0x190|20                                             |                |                    opcode: "local.get" (0x20) 0x190-0x191 (1)
0x190|   00                                          | .              |                    x: 0 (valid) 0x191-0x192 (1)
     |                                               |                |                  [1]{}: in 0x192-0x194 (2)
0x190|      20                                       |                |                    opcode: "local.get" (0x20) 0x192-0x193 (1)
0x190|         00                                    |   .            |                    x: 0 (valid) 0x193-0x194 (1)
     |                                               |                |                  [2]{}: in 0x194-0x195 (1)
0x190|            9a                                 |    .           |                    opcode: "f64.neg" (0x9a) 0x194-0x195 (1)
     |                                               |                |                  [3]{}: in 0x195-0x197 (2)
0x190|               20                              |                |                    opcode: "local.get" (0x20) 0x195-0x196 (1)
0x190|                  00                           |      .         |                    x: 0 (valid) 0x196-0x197 (1)
     |                                               |                |                  [4]{}: in 0x197-0x1a0 (9)
0x190|                     44                        |       D        |                    opcode: "f64.const" (0x44) 0x197-0x198 (1)
0x190|                        00 00 00 00 00 00 00 80|        ........|                    z: -0 0x198-0x1a0 (8)
     |                                               |                |                  [5]{}: in 0x1a0-0x1a1 (1)
0x1a0|64                                             |d               |                    opcode: "f64.gt" (0x64) 0x1a0-0x1a1 (1)
     |                                               |                |                  [6]{}: in 0x1a1-0x1a2 (1)
0x1a0|   1b                                          | .              |                    opcode: "select" (0x1b) 0x1a1-0x1a2 (1)
     |                                               |                |                  [7]{}: in 0x1a2-0x1a3 (1)
0x1a0|      0b                                       |  .             |                    opcode: "end" (0xb) 0x1a2-0x1a3 (1)
     |                                               |                |            [7]{}: code 0x1a3-0x1b8 (21)
0x1a0|         14                                    |   .            |              size: 20 (valid) 0x1a3-0x1a4 (1)
     |                                               |                |              code{}: 0x1a4-0x1b8 (20)
     |                                               |                |                t{}: 0x1a4-0x1a5 (1)
0x1a0|            00                                 |    .           |                  n: 0 (valid) 0x1a4-0x1a5 (1)
     |                                               |                |                  x[0:0]: 0x1a5-0x1a5 (0)
     |                                               |                |                e[0:8]: 0x1a5-0x1b8 (19)
     |                                               |                |                  [0]{}: in 0x1a5-0x1a7 (2)
0x1a0|               20                              |                |                    opcode: "local.get" (0x20) 0x1a5-0x1a6 (1)
0x1a0|                  00                           |      .         |                    x: 0 (valid) 0x1a6-0x1a7 (1)
     |                                               |                |                  [1]{}: in 0x1a7-0x1a9 (2)
0x1a0|                     20                        |                |                    opcode: "local.get" (0x20) 0x1a7-0x1a8 (1)
0x1a0|                        00                     |        .       |                    x: 0 (valid) 0x1a8-0x1a9 (1)
     |                                               |                |                  [2]{}: in 0x1a9-0x1aa (1)
0x1a0|                           9a                  |         .      |                    opcode: "f64.neg" (0x9a) 0x1a9-0x1aa (1)
     |                                               |                |                  [3]{}: in 0x1aa-0x1ac (2)
0x1a0|                              20               |                |                    opcode: "local.get" (0x20) 0x1aa-0x1ab (1)
0x1a0|                                 00            |           .    |                    x: 0 (valid) 0x1ab-0x1ac (1)
     |                                               |                |                  [4]{}: in 0x1ac-0x1b5 (9)
0x1a0|                                    44         |            D   |                    opcode: "f64.const" (0x44) 0x1ac-0x1ad (1)
0x1a0|                                       00 00 00|             ...|                    z: 0 0x1ad-0x1b5 (8)
0x1b0|00 00 00 00 00                                 |.....           |
     |                                               |                |                  [5]{}: in 0x1b5-0x1b6 (1)
0x1b0|               66                              |     f          |                    opcode: "f64.ge" (0x66) 0x1b5-0x1b6 (1)
     |                                               |                |                  [6]{}: in 0x1b6-0x1b7 (1)
0x1b0|                  1b                           |      .         |                    opcode: "select" (0x1b) 0x1b6-0x1b7 (1)
     |                                               |                |                  [7]{}: in 0x1b7-0x1b8 (1)
0x1b0|                     0b|                       |       .|       |                    opcode: "end" (0xb) 0x1b7-0x1b8 (1)
