$ fq -d wasm dv float_exprs-67.wasm
    |00 01 02 03 04 05 06 07 08 09 0a 0b 0c 0d 0e 0f|0123456789abcdef|.{}: float_exprs-67.wasm (wasm) 0x0-0x79.7 (122)
0x00|00 61 73 6d                                    |.asm            |  magic: raw bits (valid) 0x0-0x3.7 (4)
0x00|            01 00 00 00                        |    ....        |  version: 1 0x4-0x7.7 (4)
    |                                               |                |  sections[0:4]: 0x8-0x79.7 (114)
    |                                               |                |    [0]{}: section 0x8-0x14.7 (13)
0x00|                        01                     |        .       |      id: "type_section" (1) 0x8-0x8.7 (1)
0x00|                           0b                  |         .      |      size: 11 (valid) 0x9-0x9.7 (1)
    |                                               |                |      content{}: 0xa-0x14.7 (11)
    |                                               |                |        ft{}: 0xa-0x14.7 (11)
0x00|                              02               |          .     |          n: 2 (valid) 0xa-0xa.7 (1)
    |                                               |                |          x[0:2]: 0xb-0x14.7 (10)
    |                                               |                |            [0]{}: ft 0xb-0xf.7 (5)
0x00|                                 60            |           `    |              tag: 0x60 (valid) 0xb-0xb.7 (1)
    |                                               |                |              rt1{}: 0xc-0xd.7 (2)
0x00|                                    01         |            .   |                n: 1 (valid) 0xc-0xc.7 (1)
    |                                               |                |                x[0:1]: 0xd-0xd.7 (1)
0x00|                                       7d      |             }  |                  [0]: "f32" (0x7d) t 0xd-0xd.7 (1)
    |                                               |                |              rt2{}: 0xe-0xf.7 (2)
0x00|                                          01   |              . |                n: 1 (valid) 0xe-0xe.7 (1)
    |                                               |                |                x[0:1]: 0xf-0xf.7 (1)
0x00|                                             7d|               }|                  [0]: "f32" (0x7d) t 0xf-0xf.7 (1)
    |                                               |                |            [1]{}: ft 0x10-0x14.7 (5)
0x10|60                                             |`               |              tag: 0x60 (valid) 0x10-0x10.7 (1)
    |                                               |                |              rt1{}: 0x11-0x12.7 (2)
0x10|   01                                          | .              |                n: 1 (valid) 0x11-0x11.7 (1)
    |                                               |                |                x[0:1]: 0x12-0x12.7 (1)
0x10|      7c                                       |  |             |                  [0]: "f64" (0x7c) t 0x12-0x12.7 (1)
    |                                               |                |              rt2{}: 0x13-0x14.7 (2)
0x10|         01                                    |   .            |                n: 1 (valid) 0x13-0x13.7 (1)
    |                                               |                |                x[0:1]: 0x14-0x14.7 (1)
0x10|            7c                                 |    |           |                  [0]: "f64" (0x7c) t 0x14-0x14.7 (1)
    |                                               |                |    [1]{}: section 0x15-0x19.7 (5)
0x10|               03                              |     .          |      id: "function_section" (3) 0x15-0x15.7 (1)
0x10|                  03                           |      .         |      size: 3 (valid) 0x16-0x16.7 (1)
    |                                               |                |      content{}: 0x17-0x19.7 (3)
    |                                               |                |        x{}: 0x17-0x19.7 (3)
0x10|                     02                        |       .        |          n: 2 (valid) 0x17-0x17.7 (1)
    |                                               |                |          x[0:2]: 0x18-0x19.7 (2)
0x10|                        00                     |        .       |            [0]: 0 x (valid) 0x18-0x18.7 (1)
0x10|                           01                  |         .      |            [1]: 1 x (valid) 0x19-0x19.7 (1)
    |                                               |                |    [2]{}: section 0x1a-0x4e.7 (53)
0x10|                              07               |          .     |      id: "export_section" (7) 0x1a-0x1a.7 (1)
0x10|                                 33            |           3    |      size: 51 (valid) 0x1b-0x1b.7 (1)
    |                                               |                |      content{}: 0x1c-0x4e.7 (51)
    |                                               |                |        ex{}: 0x1c-0x4e.7 (51)
0x10|                                    02         |            .   |          n: 2 (valid) 0x1c-0x1c.7 (1)
    |                                               |                |          x[0:2]: 0x1d-0x4e.7 (50)
    |                                               |                |            [0]{}: ex 0x1d-0x35.7 (25)
    |                                               |                |              nm{}: 0x1d-0x33.7 (23)
0x10|                                       16      |             .  |                n: 22 (valid) 0x1d-0x1d.7 (1)
0x10|                                          66 33|              f3|                b: "f32.no_fold_6x_via_add" 0x1e-0x33.7 (22)
0x20|32 2e 6e 6f 5f 66 6f 6c 64 5f 36 78 5f 76 69 61|2.no_fold_6x_via|
0x30|5f 61 64 64                                    |_add            |
    |                                               |                |              d{}: 0x34-0x35.7 (2)
0x30|            00                                 |    .           |                tag: "funcidx" (0x0) 0x34-0x34.7 (1)
0x30|               00                              |     .          |                x: 0 (valid) 0x35-0x35.7 (1)
    |                                               |                |            [1]{}: ex 0x36-0x4e.7 (25)
    |                                               |                |              nm{}: 0x36-0x4c.7 (23)
0x30|                  16                           |      .         |                n: 22 (valid) 0x36-0x36.7 (1)
0x30|                     66 36 34 2e 6e 6f 5f 66 6f|       f64.no_fo|                b: "f64.no_fold_6x_via_add" 0x37-0x4c.7 (22)
0x40|6c 64 5f 36 78 5f 76 69 61 5f 61 64 64         |ld_6x_via_add   |
    |                                               |                |              d{}: 0x4d-0x4e.7 (2)
0x40|                                       00      |             .  |                tag: "funcidx" (0x0) 0x4d-0x4d.7 (1)
0x40|                                          01   |              . |                x: 1 (valid) 0x4e-0x4e.7 (1)
    |                                               |                |    [3]{}: section 0x4f-0x79.7 (43)
0x40|                                             0a|               .|      id: "code_section" (10) 0x4f-0x4f.7 (1)
0x50|29                                             |)               |      size: 41 (valid) 0x50-0x50.7 (1)
    |                                               |                |      content{}: 0x51-0x79.7 (41)
    |                                               |                |        code{}: 0x51-0x79.7 (41)
0x50|   02                                          | .              |          n: 2 (valid) 0x51-0x51.7 (1)
    |                                               |                |          x[0:2]: 0x52-0x79.7 (40)
    |                                               |                |            [0]{}: code 0x52-0x65.7 (20)
0x50|      13                                       |  .             |              size: 19 (valid) 0x52-0x52.7 (1)
    |                                               |                |              code{}: 0x53-0x65.7 (19)
    |                                               |                |                t{}: 0x53-0x53.7 (1)
0x50|         00                                    |   .            |                  n: 0 (valid) 0x53-0x53.7 (1)
    |                                               |                |                  x[0:0]: 0x54-NA (0)
    |                                               |                |                e[0:12]: 0x54-0x65.7 (18)
    |                                               |                |                  [0]{}: in 0x54-0x55.7 (2)
0x50|            20                                 |                |                    opcode: "local.get" (0x20) 0x54-0x54.7 (1)
0x50|               00                              |     .          |                    x: 0 (valid) 0x55-0x55.7 (1)
    |                                               |                |                  [1]{}: in 0x56-0x57.7 (2)
0x50|                  20                           |                |                    opcode: "local.get" (0x20) 0x56-0x56.7 (1)
0x50|                     00                        |       .        |                    x: 0 (valid) 0x57-0x57.7 (1)
    |                                               |                |                  [2]{}: in 0x58-0x58.7 (1)
0x50|                        92                     |        .       |                    opcode: "f32.add" (0x92) 0x58-0x58.7 (1)
    |                                               |                |                  [3]{}: in 0x59-0x5a.7 (2)
0x50|                           20                  |                |                    opcode: "local.get" (0x20) 0x59-0x59.7 (1)
0x50|                              00               |          .     |                    x: 0 (valid) 0x5a-0x5a.7 (1)
    |                                               |                |                  [4]{}: in 0x5b-0x5b.7 (1)
0x50|                                 92            |           .    |                    opcode: "f32.add" (0x92) 0x5b-0x5b.7 (1)
    |                                               |                |                  [5]{}: in 0x5c-0x5d.7 (2)
0x50|                                    20         |                |                    opcode: "local.get" (0x20) 0x5c-0x5c.7 (1)
0x50|                                       00      |             .  |                    x: 0 (valid) 0x5d-0x5d.7 (1)
    |                                               |                |                  [6]{}: in 0x5e-0x5e.7 (1)
0x50|                                          92   |              . |                    opcode: "f32.add" (0x92) 0x5e-0x5e.7 (1)
    |                                               |                |                  [7]{}: in 0x5f-0x60.7 (2)
0x50|                                             20|                |                    opcode: "local.get" (0x20) 0x5f-0x5f.7 (1)
0x60|00                                             |.               |                    x: 0 (valid) 0x60-0x60.7 (1)
    |                                               |                |                  [8]{}: in 0x61-0x61.7 (1)
0x60|   92                                          | .              |                    opcode: "f32.add" (0x92) 0x61-0x61.7 (1)
    |                                               |                |                  [9]{}: in 0x62-0x63.7 (2)
0x60|      20                                       |                |                    opcode: "local.get" (0x20) 0x62-0x62.7 (1)
0x60|         00                                    |   .            |                    x: 0 (valid) 0x63-0x63.7 (1)
    |                                               |                |                  [10]{}: in 0x64-0x64.7 (1)
0x60|            92                                 |    .           |                    opcode: "f32.add" (0x92) 0x64-0x64.7 (1)
    |                                               |                |                  [11]{}: in 0x65-0x65.7 (1)
0x60|               0b                              |     .          |                    opcode: "end" (0xb) 0x65-0x65.7 (1)
    |                                               |                |            [1]{}: code 0x66-0x79.7 (20)
0x60|                  13                           |      .         |              size: 19 (valid) 0x66-0x66.7 (1)
    |                                               |                |              code{}: 0x67-0x79.7 (19)
    |                                               |                |                t{}: 0x67-0x67.7 (1)
0x60|                     00                        |       .        |                  n: 0 (valid) 0x67-0x67.7 (1)
    |                                               |                |                  x[0:0]: 0x68-NA (0)
    |                                               |                |                e[0:12]: 0x68-0x79.7 (18)
    |                                               |                |                  [0]{}: in 0x68-0x69.7 (2)
0x60|                        20                     |                |                    opcode: "local.get" (0x20) 0x68-0x68.7 (1)
0x60|                           00                  |         .      |                    x: 0 (valid) 0x69-0x69.7 (1)
    |                                               |                |                  [1]{}: in 0x6a-0x6b.7 (2)
0x60|                              20               |                |                    opcode: "local.get" (0x20) 0x6a-0x6a.7 (1)
0x60|                                 00            |           .    |                    x: 0 (valid) 0x6b-0x6b.7 (1)
    |                                               |                |                  [2]{}: in 0x6c-0x6c.7 (1)
0x60|                                    a0         |            .   |                    opcode: "f64.add" (0xa0) 0x6c-0x6c.7 (1)
    |                                               |                |                  [3]{}: in 0x6d-0x6e.7 (2)
0x60|                                       20      |                |                    opcode: "local.get" (0x20) 0x6d-0x6d.7 (1)
0x60|                                          00   |              . |                    x: 0 (valid) 0x6e-0x6e.7 (1)
    |                                               |                |                  [4]{}: in 0x6f-0x6f.7 (1)
0x60|                                             a0|               .|                    opcode: "f64.add" (0xa0) 0x6f-0x6f.7 (1)
    |                                               |                |                  [5]{}: in 0x70-0x71.7 (2)
0x70|20                                             |                |                    opcode: "local.get" (0x20) 0x70-0x70.7 (1)
0x70|   00                                          | .              |                    x: 0 (valid) 0x71-0x71.7 (1)
    |                                               |                |                  [6]{}: in 0x72-0x72.7 (1)
0x70|      a0                                       |  .             |                    opcode: "f64.add" (0xa0) 0x72-0x72.7 (1)
    |                                               |                |                  [7]{}: in 0x73-0x74.7 (2)
0x70|         20                                    |                |                    opcode: "local.get" (0x20) 0x73-0x73.7 (1)
0x70|            00                                 |    .           |                    x: 0 (valid) 0x74-0x74.7 (1)
    |                                               |                |                  [8]{}: in 0x75-0x75.7 (1)
0x70|               a0                              |     .          |                    opcode: "f64.add" (0xa0) 0x75-0x75.7 (1)
    |                                               |                |                  [9]{}: in 0x76-0x77.7 (2)
0x70|                  20                           |                |                    opcode: "local.get" (0x20) 0x76-0x76.7 (1)
0x70|                     00                        |       .        |                    x: 0 (valid) 0x77-0x77.7 (1)
    |                                               |                |                  [10]{}: in 0x78-0x78.7 (1)
0x70|                        a0                     |        .       |                    opcode: "f64.add" (0xa0) 0x78-0x78.7 (1)
    |                                               |                |                  [11]{}: in 0x79-0x79.7 (1)
0x70|                           0b|                 |         .|     |                    opcode: "end" (0xb) 0x79-0x79.7 (1)
