$ fq -d wasm dv float_exprs-78.wasm
    |00 01 02 03 04 05 06 07 08 09 0a 0b 0c 0d 0e 0f|0123456789abcdef|.{}: float_exprs-78.wasm (wasm) 0x0-0x83.7 (132)
0x00|00 61 73 6d                                    |.asm            |  magic: raw bits (valid) 0x0-0x3.7 (4)
0x00|            01 00 00 00                        |    ....        |  version: 1 0x4-0x7.7 (4)
    |                                               |                |  sections[0:4]: 0x8-0x83.7 (124)
    |                                               |                |    [0]{}: section 0x8-0x14.7 (13)
0x00|                        01                     |        .       |      id: "type section" (1) 0x8-0x8.7 (1)
0x00|                           0b                  |         .      |      size: 11 0x9-0x9.7 (1)
    |                                               |                |      content{}: 0xa-0x14.7 (11)
    |                                               |                |        ft{}: 0xa-0x14.7 (11)
0x00|                              02               |          .     |          n: 2 0xa-0xa.7 (1)
    |                                               |                |          x[0:2]: 0xb-0x14.7 (10)
    |                                               |                |            [0]{}: ft 0xb-0xf.7 (5)
0x00|                                 60            |           `    |              tag: 0x60 (valid) 0xb-0xb.7 (1)
    |                                               |                |              rt1{}: 0xc-0xd.7 (2)
0x00|                                    01         |            .   |                n: 1 0xc-0xc.7 (1)
    |                                               |                |                x[0:1]: 0xd-0xd.7 (1)
0x00|                                       7d      |             }  |                  [0]: "f32" (0x7d) t 0xd-0xd.7 (1)
    |                                               |                |              rt2{}: 0xe-0xf.7 (2)
0x00|                                          01   |              . |                n: 1 0xe-0xe.7 (1)
    |                                               |                |                x[0:1]: 0xf-0xf.7 (1)
0x00|                                             7d|               }|                  [0]: "f32" (0x7d) t 0xf-0xf.7 (1)
    |                                               |                |            [1]{}: ft 0x10-0x14.7 (5)
0x10|60                                             |`               |              tag: 0x60 (valid) 0x10-0x10.7 (1)
    |                                               |                |              rt1{}: 0x11-0x12.7 (2)
0x10|   01                                          | .              |                n: 1 0x11-0x11.7 (1)
    |                                               |                |                x[0:1]: 0x12-0x12.7 (1)
0x10|      7c                                       |  |             |                  [0]: "f64" (0x7c) t 0x12-0x12.7 (1)
    |                                               |                |              rt2{}: 0x13-0x14.7 (2)
0x10|         01                                    |   .            |                n: 1 0x13-0x13.7 (1)
    |                                               |                |                x[0:1]: 0x14-0x14.7 (1)
0x10|            7c                                 |    |           |                  [0]: "f64" (0x7c) t 0x14-0x14.7 (1)
    |                                               |                |    [1]{}: section 0x15-0x19.7 (5)
0x10|               03                              |     .          |      id: "function section" (3) 0x15-0x15.7 (1)
0x10|                  03                           |      .         |      size: 3 0x16-0x16.7 (1)
    |                                               |                |      content{}: 0x17-0x19.7 (3)
    |                                               |                |        x{}: 0x17-0x19.7 (3)
0x10|                     02                        |       .        |          n: 2 0x17-0x17.7 (1)
    |                                               |                |          x[0:2]: 0x18-0x19.7 (2)
0x10|                        00                     |        .       |            [0]: 0 x 0x18-0x18.7 (1)
0x10|                           01                  |         .      |            [1]: 1 x 0x19-0x19.7 (1)
    |                                               |                |    [2]{}: section 0x1a-0x50.7 (55)
0x10|                              07               |          .     |      id: "export section" (7) 0x1a-0x1a.7 (1)
0x10|                                 35            |           5    |      size: 53 0x1b-0x1b.7 (1)
    |                                               |                |      content{}: 0x1c-0x50.7 (53)
    |                                               |                |        ex{}: 0x1c-0x50.7 (53)
0x10|                                    02         |            .   |          n: 2 0x1c-0x1c.7 (1)
    |                                               |                |          x[0:2]: 0x1d-0x50.7 (52)
    |                                               |                |            [0]{}: ex 0x1d-0x36.7 (26)
    |                                               |                |              nm{}: 0x1d-0x34.7 (24)
0x10|                                       17      |             .  |                n: 23 0x1d-0x1d.7 (1)
0x10|                                          66 33|              f3|                b: "f32.no_distribute_exact" 0x1e-0x34.7 (23)
0x20|32 2e 6e 6f 5f 64 69 73 74 72 69 62 75 74 65 5f|2.no_distribute_|
0x30|65 78 61 63 74                                 |exact           |
    |                                               |                |              d{}: 0x35-0x36.7 (2)
0x30|               00                              |     .          |                tag: "funcidx" (0x0) 0x35-0x35.7 (1)
0x30|                  00                           |      .         |                x: 0 0x36-0x36.7 (1)
    |                                               |                |            [1]{}: ex 0x37-0x50.7 (26)
    |                                               |                |              nm{}: 0x37-0x4e.7 (24)
0x30|                     17                        |       .        |                n: 23 0x37-0x37.7 (1)
0x30|                        66 36 34 2e 6e 6f 5f 64|        f64.no_d|                b: "f64.no_distribute_exact" 0x38-0x4e.7 (23)
0x40|69 73 74 72 69 62 75 74 65 5f 65 78 61 63 74   |istribute_exact |
    |                                               |                |              d{}: 0x4f-0x50.7 (2)
0x40|                                             00|               .|                tag: "funcidx" (0x0) 0x4f-0x4f.7 (1)
0x50|01                                             |.               |                x: 1 0x50-0x50.7 (1)
    |                                               |                |    [3]{}: section 0x51-0x83.7 (51)
0x50|   0a                                          | .              |      id: "code section" (10) 0x51-0x51.7 (1)
0x50|      31                                       |  1             |      size: 49 0x52-0x52.7 (1)
    |                                               |                |      content{}: 0x53-0x83.7 (49)
    |                                               |                |        code{}: 0x53-0x83.7 (49)
0x50|         02                                    |   .            |          n: 2 0x53-0x53.7 (1)
    |                                               |                |          x[0:2]: 0x54-0x83.7 (48)
    |                                               |                |            [0]{}: code 0x54-0x67.7 (20)
0x50|            13                                 |    .           |              size: 19 0x54-0x54.7 (1)
    |                                               |                |              code{}: 0x55-0x67.7 (19)
    |                                               |                |                t{}: 0x55-0x55.7 (1)
0x50|               00                              |     .          |                  n: 0 0x55-0x55.7 (1)
    |                                               |                |                  x[0:0]: 0x56-NA (0)
    |                                               |                |                e[0:8]: 0x56-0x67.7 (18)
    |                                               |                |                  [0]{}: in 0x56-0x5a.7 (5)
0x50|                  43                           |      C         |                    f32.const: 0x43 (valid) 0x56-0x56.7 (1)
0x50|                     00 00 00 c1               |       ....     |                    z: -8 0x57-0x5a.7 (4)
    |                                               |                |                  [1]{}: in 0x5b-0x5c.7 (2)
0x50|                                 20            |                |                    local.get: 0x20 (valid) 0x5b-0x5b.7 (1)
0x50|                                    00         |            .   |                    x: 0 0x5c-0x5c.7 (1)
    |                                               |                |                  [2]{}: in 0x5d-0x5d.7 (1)
0x50|                                       94      |             .  |                    f32.mul: 0x94 (valid) 0x5d-0x5d.7 (1)
    |                                               |                |                  [3]{}: in 0x5e-0x62.7 (5)
0x50|                                          43   |              C |                    f32.const: 0x43 (valid) 0x5e-0x5e.7 (1)
0x50|                                             00|               .|                    z: 8 0x5f-0x62.7 (4)
0x60|00 00 41                                       |..A             |
    |                                               |                |                  [4]{}: in 0x63-0x64.7 (2)
0x60|         20                                    |                |                    local.get: 0x20 (valid) 0x63-0x63.7 (1)
0x60|            00                                 |    .           |                    x: 0 0x64-0x64.7 (1)
    |                                               |                |                  [5]{}: in 0x65-0x65.7 (1)
0x60|               94                              |     .          |                    f32.mul: 0x94 (valid) 0x65-0x65.7 (1)
    |                                               |                |                  [6]{}: in 0x66-0x66.7 (1)
0x60|                  92                           |      .         |                    f32.add: 0x92 (valid) 0x66-0x66.7 (1)
    |                                               |                |                  [7]{}: in 0x67-0x67.7 (1)
0x60|                     0b                        |       .        |                    end: 0xb (valid) 0x67-0x67.7 (1)
    |                                               |                |            [1]{}: code 0x68-0x83.7 (28)
0x60|                        1b                     |        .       |              size: 27 0x68-0x68.7 (1)
    |                                               |                |              code{}: 0x69-0x83.7 (27)
    |                                               |                |                t{}: 0x69-0x69.7 (1)
0x60|                           00                  |         .      |                  n: 0 0x69-0x69.7 (1)
    |                                               |                |                  x[0:0]: 0x6a-NA (0)
    |                                               |                |                e[0:8]: 0x6a-0x83.7 (26)
    |                                               |                |                  [0]{}: in 0x6a-0x72.7 (9)
0x60|                              44               |          D     |                    f64.const: 0x44 (valid) 0x6a-0x6a.7 (1)
0x60|                                 00 00 00 00 00|           .....|                    z: -8 0x6b-0x72.7 (8)
0x70|00 20 c0                                       |. .             |
    |                                               |                |                  [1]{}: in 0x73-0x74.7 (2)
0x70|         20                                    |                |                    local.get: 0x20 (valid) 0x73-0x73.7 (1)
0x70|            00                                 |    .           |                    x: 0 0x74-0x74.7 (1)
    |                                               |                |                  [2]{}: in 0x75-0x75.7 (1)
0x70|               a2                              |     .          |                    f64.mul: 0xa2 (valid) 0x75-0x75.7 (1)
    |                                               |                |                  [3]{}: in 0x76-0x7e.7 (9)
0x70|                  44                           |      D         |                    f64.const: 0x44 (valid) 0x76-0x76.7 (1)
0x70|                     00 00 00 00 00 00 20 40   |       ...... @ |                    z: 8 0x77-0x7e.7 (8)
    |                                               |                |                  [4]{}: in 0x7f-0x80.7 (2)
0x70|                                             20|                |                    local.get: 0x20 (valid) 0x7f-0x7f.7 (1)
0x80|00                                             |.               |                    x: 0 0x80-0x80.7 (1)
    |                                               |                |                  [5]{}: in 0x81-0x81.7 (1)
0x80|   a2                                          | .              |                    f64.mul: 0xa2 (valid) 0x81-0x81.7 (1)
    |                                               |                |                  [6]{}: in 0x82-0x82.7 (1)
0x80|      a0                                       |  .             |                    f64.add: 0xa0 (valid) 0x82-0x82.7 (1)
    |                                               |                |                  [7]{}: in 0x83-0x83.7 (1)
0x80|         0b|                                   |   .|           |                    end: 0xb (valid) 0x83-0x83.7 (1)
