$ fq -d wasm dv float_exprs-85.wasm
    |00 01 02 03 04 05 06 07 08 09 0a 0b 0c 0d 0e 0f|0123456789abcdef|.{}: float_exprs-85.wasm (wasm) 0x0-0x9f.7 (160)
0x00|00 61 73 6d                                    |.asm            |  magic: raw bits (valid) 0x0-0x3.7 (4)
0x00|            01 00 00 00                        |    ....        |  version: 1 0x4-0x7.7 (4)
    |                                               |                |  sections[0:4]: 0x8-0x9f.7 (152)
    |                                               |                |    [0]{}: section 0x8-0x12.7 (11)
0x00|                        01                     |        .       |      id: "type_section" (1) 0x8-0x8.7 (1)
0x00|                           09                  |         .      |      size: 9 0x9-0x9.7 (1)
    |                                               |                |      content{}: 0xa-0x12.7 (9)
    |                                               |                |        ft{}: 0xa-0x12.7 (9)
0x00|                              02               |          .     |          n: 2 0xa-0xa.7 (1)
    |                                               |                |          x[0:2]: 0xb-0x12.7 (8)
    |                                               |                |            [0]{}: ft 0xb-0xe.7 (4)
0x00|                                 60            |           `    |              tag: 0x60 (valid) 0xb-0xb.7 (1)
    |                                               |                |              rt1{}: 0xc-0xc.7 (1)
0x00|                                    00         |            .   |                n: 0 0xc-0xc.7 (1)
    |                                               |                |                x[0:0]: 0xd-NA (0)
    |                                               |                |              rt2{}: 0xd-0xe.7 (2)
0x00|                                       01      |             .  |                n: 1 0xd-0xd.7 (1)
    |                                               |                |                x[0:1]: 0xe-0xe.7 (1)
0x00|                                          7d   |              } |                  [0]: "f32" (0x7d) t 0xe-0xe.7 (1)
    |                                               |                |            [1]{}: ft 0xf-0x12.7 (4)
0x00|                                             60|               `|              tag: 0x60 (valid) 0xf-0xf.7 (1)
    |                                               |                |              rt1{}: 0x10-0x10.7 (1)
0x10|00                                             |.               |                n: 0 0x10-0x10.7 (1)
    |                                               |                |                x[0:0]: 0x11-NA (0)
    |                                               |                |              rt2{}: 0x11-0x12.7 (2)
0x10|   01                                          | .              |                n: 1 0x11-0x11.7 (1)
    |                                               |                |                x[0:1]: 0x12-0x12.7 (1)
0x10|      7c                                       |  |             |                  [0]: "f64" (0x7c) t 0x12-0x12.7 (1)
    |                                               |                |    [1]{}: section 0x13-0x17.7 (5)
0x10|         03                                    |   .            |      id: "function_section" (3) 0x13-0x13.7 (1)
0x10|            03                                 |    .           |      size: 3 0x14-0x14.7 (1)
    |                                               |                |      content{}: 0x15-0x17.7 (3)
    |                                               |                |        x{}: 0x15-0x17.7 (3)
0x10|               02                              |     .          |          n: 2 0x15-0x15.7 (1)
    |                                               |                |          x[0:2]: 0x16-0x17.7 (2)
0x10|                  00                           |      .         |            [0]: 0 x 0x16-0x16.7 (1)
0x10|                     01                        |       .        |            [1]: 1 x 0x17-0x17.7 (1)
    |                                               |                |    [2]{}: section 0x18-0x36.7 (31)
0x10|                        07                     |        .       |      id: "export_section" (7) 0x18-0x18.7 (1)
0x10|                           1d                  |         .      |      size: 29 0x19-0x19.7 (1)
    |                                               |                |      content{}: 0x1a-0x36.7 (29)
    |                                               |                |        ex{}: 0x1a-0x36.7 (29)
0x10|                              02               |          .     |          n: 2 0x1a-0x1a.7 (1)
    |                                               |                |          x[0:2]: 0x1b-0x36.7 (28)
    |                                               |                |            [0]{}: ex 0x1b-0x28.7 (14)
    |                                               |                |              nm{}: 0x1b-0x26.7 (12)
0x10|                                 0b            |           .    |                n: 11 0x1b-0x1b.7 (1)
0x10|                                    66 33 32 2e|            f32.|                b: "f32.epsilon" 0x1c-0x26.7 (11)
0x20|65 70 73 69 6c 6f 6e                           |epsilon         |
    |                                               |                |              d{}: 0x27-0x28.7 (2)
0x20|                     00                        |       .        |                tag: "funcidx" (0x0) 0x27-0x27.7 (1)
0x20|                        00                     |        .       |                x: 0 0x28-0x28.7 (1)
    |                                               |                |            [1]{}: ex 0x29-0x36.7 (14)
    |                                               |                |              nm{}: 0x29-0x34.7 (12)
0x20|                           0b                  |         .      |                n: 11 0x29-0x29.7 (1)
0x20|                              66 36 34 2e 65 70|          f64.ep|                b: "f64.epsilon" 0x2a-0x34.7 (11)
0x30|73 69 6c 6f 6e                                 |silon           |
    |                                               |                |              d{}: 0x35-0x36.7 (2)
0x30|               00                              |     .          |                tag: "funcidx" (0x0) 0x35-0x35.7 (1)
0x30|                  01                           |      .         |                x: 1 0x36-0x36.7 (1)
    |                                               |                |    [3]{}: section 0x37-0x9f.7 (105)
0x30|                     0a                        |       .        |      id: "code_section" (10) 0x37-0x37.7 (1)
0x30|                        67                     |        g       |      size: 103 0x38-0x38.7 (1)
    |                                               |                |      content{}: 0x39-0x9f.7 (103)
    |                                               |                |        code{}: 0x39-0x9f.7 (103)
0x30|                           02                  |         .      |          n: 2 0x39-0x39.7 (1)
    |                                               |                |          x[0:2]: 0x3a-0x9f.7 (102)
    |                                               |                |            [0]{}: code 0x3a-0x64.7 (43)
0x30|                              2a               |          *     |              size: 42 0x3a-0x3a.7 (1)
    |                                               |                |              code{}: 0x3b-0x64.7 (42)
    |                                               |                |                t{}: 0x3b-0x3d.7 (3)
0x30|                                 01            |           .    |                  n: 1 0x3b-0x3b.7 (1)
    |                                               |                |                  x[0:1]: 0x3c-0x3d.7 (2)
    |                                               |                |                    [0]{}: t 0x3c-0x3d.7 (2)
0x30|                                    02         |            .   |                      n: 2 0x3c-0x3c.7 (1)
0x30|                                       7d      |             }  |                      t: "f32" (0x7d) 0x3d-0x3d.7 (1)
    |                                               |                |                e[0:5]: 0x3e-0x64.7 (39)
    |                                               |                |                  [0]{}: in 0x3e-0x42.7 (5)
0x30|                                          43   |              C |                    opcode: "f32.const" (0x43) 0x3e-0x3e.7 (1)
0x30|                                             00|               .|                    z: 1 0x3f-0x42.7 (4)
0x40|00 80 3f                                       |..?             |
    |                                               |                |                  [1]{}: in 0x43-0x44.7 (2)
0x40|         21                                    |   !            |                    opcode: "local.set" (0x21) 0x43-0x43.7 (1)
0x40|            00                                 |    .           |                    x: 0 0x44-0x44.7 (1)
    |                                               |                |                  [2]{}: in 0x45-0x61.7 (29)
0x40|               03                              |     .          |                    opcode: "loop" (0x3) 0x45-0x45.7 (1)
0x40|                  40                           |      @         |                    bt: "ε" (64) 0x46-0x46.7 (1)
    |                                               |                |                    instructions[0:10]: 0x47-0x60.7 (26)
    |                                               |                |                      [0]{}: instr 0x47-0x48.7 (2)
0x40|                     20                        |                |                        opcode: "local.get" (0x20) 0x47-0x47.7 (1)
0x40|                        00                     |        .       |                        x: 0 0x48-0x48.7 (1)
    |                                               |                |                      [1]{}: instr 0x49-0x4a.7 (2)
0x40|                           22                  |         "      |                        opcode: "local.tee" (0x22) 0x49-0x49.7 (1)
0x40|                              01               |          .     |                        x: 1 0x4a-0x4a.7 (1)
    |                                               |                |                      [2]{}: instr 0x4b-0x4f.7 (5)
0x40|                                 43            |           C    |                        opcode: "f32.const" (0x43) 0x4b-0x4b.7 (1)
0x40|                                    00 00 00 3f|            ...?|                        z: 0.5 0x4c-0x4f.7 (4)
    |                                               |                |                      [3]{}: instr 0x50-0x50.7 (1)
0x50|94                                             |.               |                        opcode: "f32.mul" (0x94) 0x50-0x50.7 (1)
    |                                               |                |                      [4]{}: instr 0x51-0x52.7 (2)
0x50|   22                                          | "              |                        opcode: "local.tee" (0x22) 0x51-0x51.7 (1)
0x50|      00                                       |  .             |                        x: 0 0x52-0x52.7 (1)
    |                                               |                |                      [5]{}: instr 0x53-0x57.7 (5)
0x50|         43                                    |   C            |                        opcode: "f32.const" (0x43) 0x53-0x53.7 (1)
0x50|            00 00 80 3f                        |    ...?        |                        z: 1 0x54-0x57.7 (4)
    |                                               |                |                      [6]{}: instr 0x58-0x58.7 (1)
0x50|                        92                     |        .       |                        opcode: "f32.add" (0x92) 0x58-0x58.7 (1)
    |                                               |                |                      [7]{}: instr 0x59-0x5d.7 (5)
0x50|                           43                  |         C      |                        opcode: "f32.const" (0x43) 0x59-0x59.7 (1)
0x50|                              00 00 80 3f      |          ...?  |                        z: 1 0x5a-0x5d.7 (4)
    |                                               |                |                      [8]{}: instr 0x5e-0x5e.7 (1)
0x50|                                          5e   |              ^ |                        opcode: "f32.gt" (0x5e) 0x5e-0x5e.7 (1)
    |                                               |                |                      [9]{}: instr 0x5f-0x60.7 (2)
0x50|                                             0d|               .|                        opcode: "br_if" (0xd) 0x5f-0x5f.7 (1)
0x60|00                                             |.               |                        l: 0 0x60-0x60.7 (1)
0x60|   0b                                          | .              |                    end: 0xb (valid) 0x61-0x61.7 (1)
    |                                               |                |                  [3]{}: in 0x62-0x63.7 (2)
0x60|      20                                       |                |                    opcode: "local.get" (0x20) 0x62-0x62.7 (1)
0x60|         01                                    |   .            |                    x: 1 0x63-0x63.7 (1)
    |                                               |                |                  [4]{}: in 0x64-0x64.7 (1)
0x60|            0b                                 |    .           |                    opcode: "end" (0xb) 0x64-0x64.7 (1)
    |                                               |                |            [1]{}: code 0x65-0x9f.7 (59)
0x60|               3a                              |     :          |              size: 58 0x65-0x65.7 (1)
    |                                               |                |              code{}: 0x66-0x9f.7 (58)
    |                                               |                |                t{}: 0x66-0x68.7 (3)
0x60|                  01                           |      .         |                  n: 1 0x66-0x66.7 (1)
    |                                               |                |                  x[0:1]: 0x67-0x68.7 (2)
    |                                               |                |                    [0]{}: t 0x67-0x68.7 (2)
0x60|                     02                        |       .        |                      n: 2 0x67-0x67.7 (1)
0x60|                        7c                     |        |       |                      t: "f64" (0x7c) 0x68-0x68.7 (1)
    |                                               |                |                e[0:5]: 0x69-0x9f.7 (55)
    |                                               |                |                  [0]{}: in 0x69-0x71.7 (9)
0x60|                           44                  |         D      |                    opcode: "f64.const" (0x44) 0x69-0x69.7 (1)
0x60|                              00 00 00 00 00 00|          ......|                    z: 1 0x6a-0x71.7 (8)
0x70|f0 3f                                          |.?              |
    |                                               |                |                  [1]{}: in 0x72-0x73.7 (2)
0x70|      21                                       |  !             |                    opcode: "local.set" (0x21) 0x72-0x72.7 (1)
0x70|         00                                    |   .            |                    x: 0 0x73-0x73.7 (1)
    |                                               |                |                  [2]{}: in 0x74-0x9c.7 (41)
0x70|            03                                 |    .           |                    opcode: "loop" (0x3) 0x74-0x74.7 (1)
0x70|               40                              |     @          |                    bt: "ε" (64) 0x75-0x75.7 (1)
    |                                               |                |                    instructions[0:10]: 0x76-0x9b.7 (38)
    |                                               |                |                      [0]{}: instr 0x76-0x77.7 (2)
0x70|                  20                           |                |                        opcode: "local.get" (0x20) 0x76-0x76.7 (1)
0x70|                     00                        |       .        |                        x: 0 0x77-0x77.7 (1)
    |                                               |                |                      [1]{}: instr 0x78-0x79.7 (2)
0x70|                        22                     |        "       |                        opcode: "local.tee" (0x22) 0x78-0x78.7 (1)
0x70|                           01                  |         .      |                        x: 1 0x79-0x79.7 (1)
    |                                               |                |                      [2]{}: instr 0x7a-0x82.7 (9)
0x70|                              44               |          D     |                        opcode: "f64.const" (0x44) 0x7a-0x7a.7 (1)
0x70|                                 00 00 00 00 00|           .....|                        z: 0.5 0x7b-0x82.7 (8)
0x80|00 e0 3f                                       |..?             |
    |                                               |                |                      [3]{}: instr 0x83-0x83.7 (1)
0x80|         a2                                    |   .            |                        opcode: "f64.mul" (0xa2) 0x83-0x83.7 (1)
    |                                               |                |                      [4]{}: instr 0x84-0x85.7 (2)
0x80|            22                                 |    "           |                        opcode: "local.tee" (0x22) 0x84-0x84.7 (1)
0x80|               00                              |     .          |                        x: 0 0x85-0x85.7 (1)
    |                                               |                |                      [5]{}: instr 0x86-0x8e.7 (9)
0x80|                  44                           |      D         |                        opcode: "f64.const" (0x44) 0x86-0x86.7 (1)
0x80|                     00 00 00 00 00 00 f0 3f   |       .......? |                        z: 1 0x87-0x8e.7 (8)
    |                                               |                |                      [6]{}: instr 0x8f-0x8f.7 (1)
0x80|                                             a0|               .|                        opcode: "f64.add" (0xa0) 0x8f-0x8f.7 (1)
    |                                               |                |                      [7]{}: instr 0x90-0x98.7 (9)
0x90|44                                             |D               |                        opcode: "f64.const" (0x44) 0x90-0x90.7 (1)
0x90|   00 00 00 00 00 00 f0 3f                     | .......?       |                        z: 1 0x91-0x98.7 (8)
    |                                               |                |                      [8]{}: instr 0x99-0x99.7 (1)
0x90|                           64                  |         d      |                        opcode: "f64.gt" (0x64) 0x99-0x99.7 (1)
    |                                               |                |                      [9]{}: instr 0x9a-0x9b.7 (2)
0x90|                              0d               |          .     |                        opcode: "br_if" (0xd) 0x9a-0x9a.7 (1)
0x90|                                 00            |           .    |                        l: 0 0x9b-0x9b.7 (1)
0x90|                                    0b         |            .   |                    end: 0xb (valid) 0x9c-0x9c.7 (1)
    |                                               |                |                  [3]{}: in 0x9d-0x9e.7 (2)
0x90|                                       20      |                |                    opcode: "local.get" (0x20) 0x9d-0x9d.7 (1)
0x90|                                          01   |              . |                    x: 1 0x9e-0x9e.7 (1)
    |                                               |                |                  [4]{}: in 0x9f-0x9f.7 (1)
0x90|                                             0b|               .|                    opcode: "end" (0xb) 0x9f-0x9f.7 (1)
