$ fq -d wasm dv float_exprs-84.wasm
    |00 01 02 03 04 05 06 07 08 09 0a 0b 0c 0d 0e 0f|0123456789abcdef|.{}: float_exprs-84.wasm (wasm) 0x0-0x8e (142)
0x00|00 61 73 6d                                    |.asm            |  magic: raw bits (valid) 0x0-0x4 (4)
0x00|            01 00 00 00                        |    ....        |  version: 1 0x4-0x8 (4)
    |                                               |                |  sections[0:4]: 0x8-0x8e (134)
    |                                               |                |    [0]{}: section 0x8-0x13 (11)
0x00|                        01                     |        .       |      id: "type_section" (1) 0x8-0x9 (1)
0x00|                           09                  |         .      |      size: 9 (valid) 0x9-0xa (1)
    |                                               |                |      content{}: 0xa-0x13 (9)
    |                                               |                |        ft{}: 0xa-0x13 (9)
0x00|                              02               |          .     |          n: 2 (valid) 0xa-0xb (1)
    |                                               |                |          x[0:2]: 0xb-0x13 (8)
    |                                               |                |            [0]{}: ft 0xb-0xf (4)
0x00|                                 60            |           `    |              tag: 0x60 (valid) 0xb-0xc (1)
    |                                               |                |              rt1{}: 0xc-0xd (1)
0x00|                                    00         |            .   |                n: 0 (valid) 0xc-0xd (1)
    |                                               |                |                x[0:0]: 0xd-0xd (0)
    |                                               |                |              rt2{}: 0xd-0xf (2)
0x00|                                       01      |             .  |                n: 1 (valid) 0xd-0xe (1)
    |                                               |                |                x[0:1]: 0xe-0xf (1)
0x00|                                          7d   |              } |                  [0]: "f32" (0x7d) t 0xe-0xf (1)
    |                                               |                |            [1]{}: ft 0xf-0x13 (4)
0x00|                                             60|               `|              tag: 0x60 (valid) 0xf-0x10 (1)
    |                                               |                |              rt1{}: 0x10-0x11 (1)
0x10|00                                             |.               |                n: 0 (valid) 0x10-0x11 (1)
    |                                               |                |                x[0:0]: 0x11-0x11 (0)
    |                                               |                |              rt2{}: 0x11-0x13 (2)
0x10|   01                                          | .              |                n: 1 (valid) 0x11-0x12 (1)
    |                                               |                |                x[0:1]: 0x12-0x13 (1)
0x10|      7c                                       |  |             |                  [0]: "f64" (0x7c) t 0x12-0x13 (1)
    |                                               |                |    [1]{}: section 0x13-0x18 (5)
0x10|         03                                    |   .            |      id: "function_section" (3) 0x13-0x14 (1)
0x10|            03                                 |    .           |      size: 3 (valid) 0x14-0x15 (1)
    |                                               |                |      content{}: 0x15-0x18 (3)
    |                                               |                |        x{}: 0x15-0x18 (3)
0x10|               02                              |     .          |          n: 2 (valid) 0x15-0x16 (1)
    |                                               |                |          x[0:2]: 0x16-0x18 (2)
0x10|                  00                           |      .         |            [0]: 0 x (valid) 0x16-0x17 (1)
0x10|                     01                        |       .        |            [1]: 1 x (valid) 0x17-0x18 (1)
    |                                               |                |    [2]{}: section 0x18-0x37 (31)
0x10|                        07                     |        .       |      id: "export_section" (7) 0x18-0x19 (1)
0x10|                           1d                  |         .      |      size: 29 (valid) 0x19-0x1a (1)
    |                                               |                |      content{}: 0x1a-0x37 (29)
    |                                               |                |        ex{}: 0x1a-0x37 (29)
0x10|                              02               |          .     |          n: 2 (valid) 0x1a-0x1b (1)
    |                                               |                |          x[0:2]: 0x1b-0x37 (28)
    |                                               |                |            [0]{}: ex 0x1b-0x29 (14)
    |                                               |                |              nm{}: 0x1b-0x27 (12)
0x10|                                 0b            |           .    |                n: 11 (valid) 0x1b-0x1c (1)
0x10|                                    66 33 32 2e|            f32.|                b: "f32.epsilon" 0x1c-0x27 (11)
0x20|65 70 73 69 6c 6f 6e                           |epsilon         |
    |                                               |                |              d{}: 0x27-0x29 (2)
0x20|                     00                        |       .        |                tag: "funcidx" (0x0) 0x27-0x28 (1)
0x20|                        00                     |        .       |                x: 0 (valid) 0x28-0x29 (1)
    |                                               |                |            [1]{}: ex 0x29-0x37 (14)
    |                                               |                |              nm{}: 0x29-0x35 (12)
0x20|                           0b                  |         .      |                n: 11 (valid) 0x29-0x2a (1)
0x20|                              66 36 34 2e 65 70|          f64.ep|                b: "f64.epsilon" 0x2a-0x35 (11)
0x30|73 69 6c 6f 6e                                 |silon           |
    |                                               |                |              d{}: 0x35-0x37 (2)
0x30|               00                              |     .          |                tag: "funcidx" (0x0) 0x35-0x36 (1)
0x30|                  01                           |      .         |                x: 1 (valid) 0x36-0x37 (1)
    |                                               |                |    [3]{}: section 0x37-0x8e (87)
0x30|                     0a                        |       .        |      id: "code_section" (10) 0x37-0x38 (1)
0x30|                        55                     |        U       |      size: 85 (valid) 0x38-0x39 (1)
    |                                               |                |      content{}: 0x39-0x8e (85)
    |                                               |                |        code{}: 0x39-0x8e (85)
0x30|                           02                  |         .      |          n: 2 (valid) 0x39-0x3a (1)
    |                                               |                |          x[0:2]: 0x3a-0x8e (84)
    |                                               |                |            [0]{}: code 0x3a-0x5a (32)
0x30|                              1f               |          .     |              size: 31 (valid) 0x3a-0x3b (1)
    |                                               |                |              code{}: 0x3b-0x5a (31)
    |                                               |                |                t{}: 0x3b-0x3c (1)
0x30|                                 00            |           .    |                  n: 0 (valid) 0x3b-0x3c (1)
    |                                               |                |                  x[0:0]: 0x3c-0x3c (0)
    |                                               |                |                e[0:10]: 0x3c-0x5a (30)
    |                                               |                |                  [0]{}: in 0x3c-0x41 (5)
0x30|                                    43         |            C   |                    opcode: "f32.const" (0x43) 0x3c-0x3d (1)
0x30|                                       00 00 80|             ...|                    z: 1 0x3d-0x41 (4)
0x40|3f                                             |?               |
    |                                               |                |                  [1]{}: in 0x41-0x46 (5)
0x40|   43                                          | C              |                    opcode: "f32.const" (0x43) 0x41-0x42 (1)
0x40|      00 00 40 40                              |  ..@@          |                    z: 3 0x42-0x46 (4)
    |                                               |                |                  [2]{}: in 0x46-0x4b (5)
0x40|                  43                           |      C         |                    opcode: "f32.const" (0x43) 0x46-0x47 (1)
0x40|                     00 00 80 40               |       ...@     |                    z: 4 0x47-0x4b (4)
    |                                               |                |                  [3]{}: in 0x4b-0x50 (5)
0x40|                                 43            |           C    |                    opcode: "f32.const" (0x43) 0x4b-0x4c (1)
0x40|                                    00 00 40 40|            ..@@|                    z: 3 0x4c-0x50 (4)
    |                                               |                |                  [4]{}: in 0x50-0x51 (1)
0x50|95                                             |.               |                    opcode: "f32.div" (0x95) 0x50-0x51 (1)
    |                                               |                |                  [5]{}: in 0x51-0x56 (5)
0x50|   43                                          | C              |                    opcode: "f32.const" (0x43) 0x51-0x52 (1)
0x50|      00 00 80 3f                              |  ...?          |                    z: 1 0x52-0x56 (4)
    |                                               |                |                  [6]{}: in 0x56-0x57 (1)
0x50|                  93                           |      .         |                    opcode: "f32.sub" (0x93) 0x56-0x57 (1)
    |                                               |                |                  [7]{}: in 0x57-0x58 (1)
0x50|                     94                        |       .        |                    opcode: "f32.mul" (0x94) 0x57-0x58 (1)
    |                                               |                |                  [8]{}: in 0x58-0x59 (1)
0x50|                        93                     |        .       |                    opcode: "f32.sub" (0x93) 0x58-0x59 (1)
    |                                               |                |                  [9]{}: in 0x59-0x5a (1)
0x50|                           0b                  |         .      |                    opcode: "end" (0xb) 0x59-0x5a (1)
    |                                               |                |            [1]{}: code 0x5a-0x8e (52)
0x50|                              33               |          3     |              size: 51 (valid) 0x5a-0x5b (1)
    |                                               |                |              code{}: 0x5b-0x8e (51)
    |                                               |                |                t{}: 0x5b-0x5c (1)
0x50|                                 00            |           .    |                  n: 0 (valid) 0x5b-0x5c (1)
    |                                               |                |                  x[0:0]: 0x5c-0x5c (0)
    |                                               |                |                e[0:10]: 0x5c-0x8e (50)
    |                                               |                |                  [0]{}: in 0x5c-0x65 (9)
0x50|                                    44         |            D   |                    opcode: "f64.const" (0x44) 0x5c-0x5d (1)
0x50|                                       00 00 00|             ...|                    z: 1 0x5d-0x65 (8)
0x60|00 00 00 f0 3f                                 |....?           |
    |                                               |                |                  [1]{}: in 0x65-0x6e (9)
0x60|               44                              |     D          |                    opcode: "f64.const" (0x44) 0x65-0x66 (1)
0x60|                  00 00 00 00 00 00 08 40      |      .......@  |                    z: 3 0x66-0x6e (8)
    |                                               |                |                  [2]{}: in 0x6e-0x77 (9)
0x60|                                          44   |              D |                    opcode: "f64.const" (0x44) 0x6e-0x6f (1)
0x60|                                             00|               .|                    z: 4 0x6f-0x77 (8)
0x70|00 00 00 00 00 10 40                           |......@         |
    |                                               |                |                  [3]{}: in 0x77-0x80 (9)
0x70|                     44                        |       D        |                    opcode: "f64.const" (0x44) 0x77-0x78 (1)
0x70|                        00 00 00 00 00 00 08 40|        .......@|                    z: 3 0x78-0x80 (8)
    |                                               |                |                  [4]{}: in 0x80-0x81 (1)
0x80|a3                                             |.               |                    opcode: "f64.div" (0xa3) 0x80-0x81 (1)
    |                                               |                |                  [5]{}: in 0x81-0x8a (9)
0x80|   44                                          | D              |                    opcode: "f64.const" (0x44) 0x81-0x82 (1)
0x80|      00 00 00 00 00 00 f0 3f                  |  .......?      |                    z: 1 0x82-0x8a (8)
    |                                               |                |                  [6]{}: in 0x8a-0x8b (1)
0x80|                              a1               |          .     |                    opcode: "f64.sub" (0xa1) 0x8a-0x8b (1)
    |                                               |                |                  [7]{}: in 0x8b-0x8c (1)
0x80|                                 a2            |           .    |                    opcode: "f64.mul" (0xa2) 0x8b-0x8c (1)
    |                                               |                |                  [8]{}: in 0x8c-0x8d (1)
0x80|                                    a1         |            .   |                    opcode: "f64.sub" (0xa1) 0x8c-0x8d (1)
    |                                               |                |                  [9]{}: in 0x8d-0x8e (1)
0x80|                                       0b|     |             .| |                    opcode: "end" (0xb) 0x8d-0x8e (1)
