$ fq -d wasm dv float_exprs-77.wasm
    |00 01 02 03 04 05 06 07 08 09 0a 0b 0c 0d 0e 0f|0123456789abcdef|.{}: float_exprs-77.wasm (wasm) 0x0-0x7a (122)
0x00|00 61 73 6d                                    |.asm            |  magic: raw bits (valid) 0x0-0x4 (4)
0x00|            01 00 00 00                        |    ....        |  version: 1 0x4-0x8 (4)
    |                                               |                |  sections[0:4]: 0x8-0x7a (114)
    |                                               |                |    [0]{}: section 0x8-0x19 (17)
0x00|                        01                     |        .       |      id: "type_section" (1) 0x8-0x9 (1)
0x00|                           0f                  |         .      |      size: 15 (valid) 0x9-0xa (1)
    |                                               |                |      content{}: 0xa-0x19 (15)
    |                                               |                |        ft{}: 0xa-0x19 (15)
0x00|                              02               |          .     |          n: 2 (valid) 0xa-0xb (1)
    |                                               |                |          x[0:2]: 0xb-0x19 (14)
    |                                               |                |            [0]{}: ft 0xb-0x12 (7)
0x00|                                 60            |           `    |              tag: 0x60 (valid) 0xb-0xc (1)
    |                                               |                |              rt1{}: 0xc-0x10 (4)
0x00|                                    03         |            .   |                n: 3 (valid) 0xc-0xd (1)
    |                                               |                |                x[0:3]: 0xd-0x10 (3)
0x00|                                       7d      |             }  |                  [0]: "f32" (0x7d) t 0xd-0xe (1)
0x00|                                          7d   |              } |                  [1]: "f32" (0x7d) t 0xe-0xf (1)
0x00|                                             7d|               }|                  [2]: "f32" (0x7d) t 0xf-0x10 (1)
    |                                               |                |              rt2{}: 0x10-0x12 (2)
0x10|01                                             |.               |                n: 1 (valid) 0x10-0x11 (1)
    |                                               |                |                x[0:1]: 0x11-0x12 (1)
0x10|   7f                                          | .              |                  [0]: "i32" (0x7f) t 0x11-0x12 (1)
    |                                               |                |            [1]{}: ft 0x12-0x19 (7)
0x10|      60                                       |  `             |              tag: 0x60 (valid) 0x12-0x13 (1)
    |                                               |                |              rt1{}: 0x13-0x17 (4)
0x10|         03                                    |   .            |                n: 3 (valid) 0x13-0x14 (1)
    |                                               |                |                x[0:3]: 0x14-0x17 (3)
0x10|            7c                                 |    |           |                  [0]: "f64" (0x7c) t 0x14-0x15 (1)
0x10|               7c                              |     |          |                  [1]: "f64" (0x7c) t 0x15-0x16 (1)
0x10|                  7c                           |      |         |                  [2]: "f64" (0x7c) t 0x16-0x17 (1)
    |                                               |                |              rt2{}: 0x17-0x19 (2)
0x10|                     01                        |       .        |                n: 1 (valid) 0x17-0x18 (1)
    |                                               |                |                x[0:1]: 0x18-0x19 (1)
0x10|                        7f                     |        .       |                  [0]: "i32" (0x7f) t 0x18-0x19 (1)
    |                                               |                |    [1]{}: section 0x19-0x1e (5)
0x10|                           03                  |         .      |      id: "function_section" (3) 0x19-0x1a (1)
0x10|                              03               |          .     |      size: 3 (valid) 0x1a-0x1b (1)
    |                                               |                |      content{}: 0x1b-0x1e (3)
    |                                               |                |        x{}: 0x1b-0x1e (3)
0x10|                                 02            |           .    |          n: 2 (valid) 0x1b-0x1c (1)
    |                                               |                |          x[0:2]: 0x1c-0x1e (2)
0x10|                                    00         |            .   |            [0]: 0 x (valid) 0x1c-0x1d (1)
0x10|                                       01      |             .  |            [1]: 1 x (valid) 0x1d-0x1e (1)
    |                                               |                |    [2]{}: section 0x1e-0x61 (67)
0x10|                                          07   |              . |      id: "export_section" (7) 0x1e-0x1f (1)
0x10|                                             41|               A|      size: 65 (valid) 0x1f-0x20 (1)
    |                                               |                |      content{}: 0x20-0x61 (65)
    |                                               |                |        ex{}: 0x20-0x61 (65)
0x20|02                                             |.               |          n: 2 (valid) 0x20-0x21 (1)
    |                                               |                |          x[0:2]: 0x21-0x61 (64)
    |                                               |                |            [0]{}: ex 0x21-0x41 (32)
    |                                               |                |              nm{}: 0x21-0x3f (30)
0x20|   1d                                          | .              |                n: 29 (valid) 0x21-0x22 (1)
0x20|      66 33 32 2e 6e 6f 5f 65 78 74 65 6e 64 65|  f32.no_extende|                b: "f32.no_extended_precision_div" 0x22-0x3f (29)
0x30|64 5f 70 72 65 63 69 73 69 6f 6e 5f 64 69 76   |d_precision_div |
    |                                               |                |              d{}: 0x3f-0x41 (2)
0x30|                                             00|               .|                tag: "funcidx" (0x0) 0x3f-0x40 (1)
0x40|00                                             |.               |                x: 0 (valid) 0x40-0x41 (1)
    |                                               |                |            [1]{}: ex 0x41-0x61 (32)
    |                                               |                |              nm{}: 0x41-0x5f (30)
0x40|   1d                                          | .              |                n: 29 (valid) 0x41-0x42 (1)
0x40|      66 36 34 2e 6e 6f 5f 65 78 74 65 6e 64 65|  f64.no_extende|                b: "f64.no_extended_precision_div" 0x42-0x5f (29)
0x50|64 5f 70 72 65 63 69 73 69 6f 6e 5f 64 69 76   |d_precision_div |
    |                                               |                |              d{}: 0x5f-0x61 (2)
0x50|                                             00|               .|                tag: "funcidx" (0x0) 0x5f-0x60 (1)
0x60|01                                             |.               |                x: 1 (valid) 0x60-0x61 (1)
    |                                               |                |    [3]{}: section 0x61-0x7a (25)
0x60|   0a                                          | .              |      id: "code_section" (10) 0x61-0x62 (1)
0x60|      17                                       |  .             |      size: 23 (valid) 0x62-0x63 (1)
    |                                               |                |      content{}: 0x63-0x7a (23)
    |                                               |                |        code{}: 0x63-0x7a (23)
0x60|         02                                    |   .            |          n: 2 (valid) 0x63-0x64 (1)
    |                                               |                |          x[0:2]: 0x64-0x7a (22)
    |                                               |                |            [0]{}: code 0x64-0x6f (11)
0x60|            0a                                 |    .           |              size: 10 (valid) 0x64-0x65 (1)
    |                                               |                |              code{}: 0x65-0x6f (10)
    |                                               |                |                t{}: 0x65-0x66 (1)
0x60|               00                              |     .          |                  n: 0 (valid) 0x65-0x66 (1)
    |                                               |                |                  x[0:0]: 0x66-0x66 (0)
    |                                               |                |                e[0:6]: 0x66-0x6f (9)
    |                                               |                |                  [0]{}: in 0x66-0x68 (2)
0x60|                  20                           |                |                    opcode: "local.get" (0x20) 0x66-0x67 (1)
0x60|                     00                        |       .        |                    x: 0 (valid) 0x67-0x68 (1)
    |                                               |                |                  [1]{}: in 0x68-0x6a (2)
0x60|                        20                     |                |                    opcode: "local.get" (0x20) 0x68-0x69 (1)
0x60|                           01                  |         .      |                    x: 1 (valid) 0x69-0x6a (1)
    |                                               |                |                  [2]{}: in 0x6a-0x6b (1)
0x60|                              95               |          .     |                    opcode: "f32.div" (0x95) 0x6a-0x6b (1)
    |                                               |                |                  [3]{}: in 0x6b-0x6d (2)
0x60|                                 20            |                |                    opcode: "local.get" (0x20) 0x6b-0x6c (1)
0x60|                                    02         |            .   |                    x: 2 (valid) 0x6c-0x6d (1)
    |                                               |                |                  [4]{}: in 0x6d-0x6e (1)
0x60|                                       5b      |             [  |                    opcode: "f32.eq" (0x5b) 0x6d-0x6e (1)
    |                                               |                |                  [5]{}: in 0x6e-0x6f (1)
0x60|                                          0b   |              . |                    opcode: "end" (0xb) 0x6e-0x6f (1)
    |                                               |                |            [1]{}: code 0x6f-0x7a (11)
0x60|                                             0a|               .|              size: 10 (valid) 0x6f-0x70 (1)
    |                                               |                |              code{}: 0x70-0x7a (10)
    |                                               |                |                t{}: 0x70-0x71 (1)
0x70|00                                             |.               |                  n: 0 (valid) 0x70-0x71 (1)
    |                                               |                |                  x[0:0]: 0x71-0x71 (0)
    |                                               |                |                e[0:6]: 0x71-0x7a (9)
    |                                               |                |                  [0]{}: in 0x71-0x73 (2)
0x70|   20                                          |                |                    opcode: "local.get" (0x20) 0x71-0x72 (1)
0x70|      00                                       |  .             |                    x: 0 (valid) 0x72-0x73 (1)
    |                                               |                |                  [1]{}: in 0x73-0x75 (2)
0x70|         20                                    |                |                    opcode: "local.get" (0x20) 0x73-0x74 (1)
0x70|            01                                 |    .           |                    x: 1 (valid) 0x74-0x75 (1)
    |                                               |                |                  [2]{}: in 0x75-0x76 (1)
0x70|               a3                              |     .          |                    opcode: "f64.div" (0xa3) 0x75-0x76 (1)
    |                                               |                |                  [3]{}: in 0x76-0x78 (2)
0x70|                  20                           |                |                    opcode: "local.get" (0x20) 0x76-0x77 (1)
0x70|                     02                        |       .        |                    x: 2 (valid) 0x77-0x78 (1)
    |                                               |                |                  [4]{}: in 0x78-0x79 (1)
0x70|                        61                     |        a       |                    opcode: "f64.eq" (0x61) 0x78-0x79 (1)
    |                                               |                |                  [5]{}: in 0x79-0x7a (1)
0x70|                           0b|                 |         .|     |                    opcode: "end" (0xb) 0x79-0x7a (1)
