$ fq -d wasm dv float_exprs-55.wasm
    |00 01 02 03 04 05 06 07 08 09 0a 0b 0c 0d 0e 0f|0123456789abcdef|.{}: float_exprs-55.wasm (wasm) 0x0-0x61.7 (98)
0x00|00 61 73 6d                                    |.asm            |  magic: raw bits (valid) 0x0-0x3.7 (4)
0x00|            01 00 00 00                        |    ....        |  version: 1 0x4-0x7.7 (4)
    |                                               |                |  sections[0:4]: 0x8-0x61.7 (90)
    |                                               |                |    [0]{}: section 0x8-0x14.7 (13)
0x00|                        01                     |        .       |      id: "type_section" (1) 0x8-0x8.7 (1)
0x00|                           0b                  |         .      |      size: 11 (valid) 0x9-0x9.7 (1)
    |                                               |                |      content{}: 0xa-0x14.7 (11)
    |                                               |                |        ft{}: 0xa-0x14.7 (11)
0x00|                              02               |          .     |          n: 2 (valid) 0xa-0xa.7 (1)
    |                                               |                |          x[0:2]: 0xb-0x14.7 (10)
    |                                               |                |            [0]{}: ft 0xb-0xf.7 (5)
0x00|                                 60            |           `    |              tag: 0x60 (valid) 0xb-0xb.7 (1)
    |                                               |                |              rt1{}: 0xc-0xd.7 (2)
0x00|                                    01         |            .   |                n: 1 (valid) 0xc-0xc.7 (1)
    |                                               |                |                x[0:1]: 0xd-0xd.7 (1)
0x00|                                       7d      |             }  |                  [0]: "f32" (0x7d) t 0xd-0xd.7 (1)
    |                                               |                |              rt2{}: 0xe-0xf.7 (2)
0x00|                                          01   |              . |                n: 1 (valid) 0xe-0xe.7 (1)
    |                                               |                |                x[0:1]: 0xf-0xf.7 (1)
0x00|                                             7d|               }|                  [0]: "f32" (0x7d) t 0xf-0xf.7 (1)
    |                                               |                |            [1]{}: ft 0x10-0x14.7 (5)
0x10|60                                             |`               |              tag: 0x60 (valid) 0x10-0x10.7 (1)
    |                                               |                |              rt1{}: 0x11-0x12.7 (2)
0x10|   01                                          | .              |                n: 1 (valid) 0x11-0x11.7 (1)
    |                                               |                |                x[0:1]: 0x12-0x12.7 (1)
0x10|      7c                                       |  |             |                  [0]: "f64" (0x7c) t 0x12-0x12.7 (1)
    |                                               |                |              rt2{}: 0x13-0x14.7 (2)
0x10|         01                                    |   .            |                n: 1 (valid) 0x13-0x13.7 (1)
    |                                               |                |                x[0:1]: 0x14-0x14.7 (1)
0x10|            7c                                 |    |           |                  [0]: "f64" (0x7c) t 0x14-0x14.7 (1)
    |                                               |                |    [1]{}: section 0x15-0x19.7 (5)
0x10|               03                              |     .          |      id: "function_section" (3) 0x15-0x15.7 (1)
0x10|                  03                           |      .         |      size: 3 (valid) 0x16-0x16.7 (1)
    |                                               |                |      content{}: 0x17-0x19.7 (3)
    |                                               |                |        x{}: 0x17-0x19.7 (3)
0x10|                     02                        |       .        |          n: 2 (valid) 0x17-0x17.7 (1)
    |                                               |                |          x[0:2]: 0x18-0x19.7 (2)
0x10|                        00                     |        .       |            [0]: 0 x (valid) 0x18-0x18.7 (1)
0x10|                           01                  |         .      |            [1]: 1 x (valid) 0x19-0x19.7 (1)
    |                                               |                |    [2]{}: section 0x1a-0x42.7 (41)
0x10|                              07               |          .     |      id: "export_section" (7) 0x1a-0x1a.7 (1)
0x10|                                 27            |           '    |      size: 39 (valid) 0x1b-0x1b.7 (1)
    |                                               |                |      content{}: 0x1c-0x42.7 (39)
    |                                               |                |        ex{}: 0x1c-0x42.7 (39)
0x10|                                    02         |            .   |          n: 2 (valid) 0x1c-0x1c.7 (1)
    |                                               |                |          x[0:2]: 0x1d-0x42.7 (38)
    |                                               |                |            [0]{}: ex 0x1d-0x2f.7 (19)
    |                                               |                |              nm{}: 0x1d-0x2d.7 (17)
0x10|                                       10      |             .  |                n: 16 (valid) 0x1d-0x1d.7 (1)
0x10|                                          66 33|              f3|                b: "f32_sqrt_minus_2" 0x1e-0x2d.7 (16)
0x20|32 5f 73 71 72 74 5f 6d 69 6e 75 73 5f 32      |2_sqrt_minus_2  |
    |                                               |                |              d{}: 0x2e-0x2f.7 (2)
0x20|                                          00   |              . |                tag: "funcidx" (0x0) 0x2e-0x2e.7 (1)
0x20|                                             00|               .|                x: 0 (valid) 0x2f-0x2f.7 (1)
    |                                               |                |            [1]{}: ex 0x30-0x42.7 (19)
    |                                               |                |              nm{}: 0x30-0x40.7 (17)
0x30|10                                             |.               |                n: 16 (valid) 0x30-0x30.7 (1)
0x30|   66 36 34 5f 73 71 72 74 5f 6d 69 6e 75 73 5f| f64_sqrt_minus_|                b: "f64_sqrt_minus_2" 0x31-0x40.7 (16)
0x40|32                                             |2               |
    |                                               |                |              d{}: 0x41-0x42.7 (2)
0x40|   00                                          | .              |                tag: "funcidx" (0x0) 0x41-0x41.7 (1)
0x40|      01                                       |  .             |                x: 1 (valid) 0x42-0x42.7 (1)
    |                                               |                |    [3]{}: section 0x43-0x61.7 (31)
0x40|         0a                                    |   .            |      id: "code_section" (10) 0x43-0x43.7 (1)
0x40|            1d                                 |    .           |      size: 29 (valid) 0x44-0x44.7 (1)
    |                                               |                |      content{}: 0x45-0x61.7 (29)
    |                                               |                |        code{}: 0x45-0x61.7 (29)
0x40|               02                              |     .          |          n: 2 (valid) 0x45-0x45.7 (1)
    |                                               |                |          x[0:2]: 0x46-0x61.7 (28)
    |                                               |                |            [0]{}: code 0x46-0x51.7 (12)
0x40|                  0b                           |      .         |              size: 11 (valid) 0x46-0x46.7 (1)
    |                                               |                |              code{}: 0x47-0x51.7 (11)
    |                                               |                |                t{}: 0x47-0x47.7 (1)
0x40|                     00                        |       .        |                  n: 0 (valid) 0x47-0x47.7 (1)
    |                                               |                |                  x[0:0]: 0x48-NA (0)
    |                                               |                |                e[0:5]: 0x48-0x51.7 (10)
    |                                               |                |                  [0]{}: in 0x48-0x49.7 (2)
0x40|                        20                     |                |                    opcode: "local.get" (0x20) 0x48-0x48.7 (1)
0x40|                           00                  |         .      |                    x: 0 (valid) 0x49-0x49.7 (1)
    |                                               |                |                  [1]{}: in 0x4a-0x4a.7 (1)
0x40|                              91               |          .     |                    opcode: "f32.sqrt" (0x91) 0x4a-0x4a.7 (1)
    |                                               |                |                  [2]{}: in 0x4b-0x4f.7 (5)
0x40|                                 43            |           C    |                    opcode: "f32.const" (0x43) 0x4b-0x4b.7 (1)
0x40|                                    00 00 00 40|            ...@|                    z: 2 0x4c-0x4f.7 (4)
    |                                               |                |                  [3]{}: in 0x50-0x50.7 (1)
0x50|93                                             |.               |                    opcode: "f32.sub" (0x93) 0x50-0x50.7 (1)
    |                                               |                |                  [4]{}: in 0x51-0x51.7 (1)
0x50|   0b                                          | .              |                    opcode: "end" (0xb) 0x51-0x51.7 (1)
    |                                               |                |            [1]{}: code 0x52-0x61.7 (16)
0x50|      0f                                       |  .             |              size: 15 (valid) 0x52-0x52.7 (1)
    |                                               |                |              code{}: 0x53-0x61.7 (15)
    |                                               |                |                t{}: 0x53-0x53.7 (1)
0x50|         00                                    |   .            |                  n: 0 (valid) 0x53-0x53.7 (1)
    |                                               |                |                  x[0:0]: 0x54-NA (0)
    |                                               |                |                e[0:5]: 0x54-0x61.7 (14)
    |                                               |                |                  [0]{}: in 0x54-0x55.7 (2)
0x50|            20                                 |                |                    opcode: "local.get" (0x20) 0x54-0x54.7 (1)
0x50|               00                              |     .          |                    x: 0 (valid) 0x55-0x55.7 (1)
    |                                               |                |                  [1]{}: in 0x56-0x56.7 (1)
0x50|                  9f                           |      .         |                    opcode: "f64.sqrt" (0x9f) 0x56-0x56.7 (1)
    |                                               |                |                  [2]{}: in 0x57-0x5f.7 (9)
0x50|                     44                        |       D        |                    opcode: "f64.const" (0x44) 0x57-0x57.7 (1)
0x50|                        00 00 00 00 00 00 00 40|        .......@|                    z: 2 0x58-0x5f.7 (8)
    |                                               |                |                  [3]{}: in 0x60-0x60.7 (1)
0x60|a1                                             |.               |                    opcode: "f64.sub" (0xa1) 0x60-0x60.7 (1)
    |                                               |                |                  [4]{}: in 0x61-0x61.7 (1)
0x60|   0b|                                         | .|             |                    opcode: "end" (0xb) 0x61-0x61.7 (1)
