$ fq -d wasm dv float_literals-1.wasm
    |00 01 02 03 04 05 06 07 08 09 0a 0b 0c 0d 0e 0f|0123456789abcdef|.{}: float_literals-1.wasm (wasm) 0x0-0x32 (50)
0x00|00 61 73 6d                                    |.asm            |  magic: raw bits (valid) 0x0-0x4 (4)
0x00|            01 00 00 00                        |    ....        |  version: 1 0x4-0x8 (4)
    |                                               |                |  sections[0:4]: 0x8-0x32 (42)
    |                                               |                |    [0]{}: section 0x8-0xf (7)
0x00|                        01                     |        .       |      id: "type_section" (1) 0x8-0x9 (1)
0x00|                           05                  |         .      |      size: 5 (valid) 0x9-0xa (1)
    |                                               |                |      content{}: 0xa-0xf (5)
    |                                               |                |        ft{}: 0xa-0xf (5)
0x00|                              01               |          .     |          n: 1 (valid) 0xa-0xb (1)
    |                                               |                |          x[0:1]: 0xb-0xf (4)
    |                                               |                |            [0]{}: ft 0xb-0xf (4)
0x00|                                 60            |           `    |              tag: 0x60 (valid) 0xb-0xc (1)
    |                                               |                |              rt1{}: 0xc-0xd (1)
0x00|                                    00         |            .   |                n: 0 (valid) 0xc-0xd (1)
    |                                               |                |                x[0:0]: 0xd-0xd (0)
    |                                               |                |              rt2{}: 0xd-0xf (2)
0x00|                                       01      |             .  |                n: 1 (valid) 0xd-0xe (1)
    |                                               |                |                x[0:1]: 0xe-0xf (1)
0x00|                                          7c   |              | |                  [0]: "f64" (0x7c) t 0xe-0xf (1)
    |                                               |                |    [1]{}: section 0xf-0x13 (4)
0x00|                                             03|               .|      id: "function_section" (3) 0xf-0x10 (1)
0x10|02                                             |.               |      size: 2 (valid) 0x10-0x11 (1)
    |                                               |                |      content{}: 0x11-0x13 (2)
    |                                               |                |        x{}: 0x11-0x13 (2)
0x10|   01                                          | .              |          n: 1 (valid) 0x11-0x12 (1)
    |                                               |                |          x[0:1]: 0x12-0x13 (1)
0x10|      00                                       |  .             |            [0]: 0 x (valid) 0x12-0x13 (1)
    |                                               |                |    [2]{}: section 0x13-0x23 (16)
0x10|         07                                    |   .            |      id: "export_section" (7) 0x13-0x14 (1)
0x10|            0e                                 |    .           |      size: 14 (valid) 0x14-0x15 (1)
    |                                               |                |      content{}: 0x15-0x23 (14)
    |                                               |                |        ex{}: 0x15-0x23 (14)
0x10|               01                              |     .          |          n: 1 (valid) 0x15-0x16 (1)
    |                                               |                |          x[0:1]: 0x16-0x23 (13)
    |                                               |                |            [0]{}: ex 0x16-0x23 (13)
    |                                               |                |              nm{}: 0x16-0x21 (11)
0x10|                  0a                           |      .         |                n: 10 (valid) 0x16-0x17 (1)
0x10|                     34 32 39 34 39 36 37 32 34|       429496724|                b: "4294967249" 0x17-0x21 (10)
0x20|39                                             |9               |
    |                                               |                |              d{}: 0x21-0x23 (2)
0x20|   00                                          | .              |                tag: "funcidx" (0x0) 0x21-0x22 (1)
0x20|      00                                       |  .             |                x: 0 (valid) 0x22-0x23 (1)
    |                                               |                |    [3]{}: section 0x23-0x32 (15)
0x20|         0a                                    |   .            |      id: "code_section" (10) 0x23-0x24 (1)
0x20|            0d                                 |    .           |      size: 13 (valid) 0x24-0x25 (1)
    |                                               |                |      content{}: 0x25-0x32 (13)
    |                                               |                |        code{}: 0x25-0x32 (13)
0x20|               01                              |     .          |          n: 1 (valid) 0x25-0x26 (1)
    |                                               |                |          x[0:1]: 0x26-0x32 (12)
    |                                               |                |            [0]{}: code 0x26-0x32 (12)
0x20|                  0b                           |      .         |              size: 11 (valid) 0x26-0x27 (1)
    |                                               |                |              code{}: 0x27-0x32 (11)
    |                                               |                |                t{}: 0x27-0x28 (1)
0x20|                     00                        |       .        |                  n: 0 (valid) 0x27-0x28 (1)
    |                                               |                |                  x[0:0]: 0x28-0x28 (0)
    |                                               |                |                e[0:2]: 0x28-0x32 (10)
    |                                               |                |                  [0]{}: in 0x28-0x31 (9)
0x20|                        44                     |        D       |                    opcode: "f64.const" (0x44) 0x28-0x29 (1)
0x20|                           00 00 20 fa ff ff ef|         .. ....|                    z: 4.294967249e+09 0x29-0x31 (8)
0x30|41                                             |A               |
    |                                               |                |                  [1]{}: in 0x31-0x32 (1)
0x30|   0b|                                         | .|             |                    opcode: "end" (0xb) 0x31-0x32 (1)
