$ fq -d wasm dv float_exprs-21.wasm
    |00 01 02 03 04 05 06 07 08 09 0a 0b 0c 0d 0e 0f|0123456789abcdef|.{}: float_exprs-21.wasm (wasm) 0x0-0x73.7 (116)
0x00|00 61 73 6d                                    |.asm            |  magic: raw bits (valid) 0x0-0x3.7 (4)
0x00|            01 00 00 00                        |    ....        |  version: 1 0x4-0x7.7 (4)
    |                                               |                |  sections[0:4]: 0x8-0x73.7 (108)
    |                                               |                |    [0]{}: section 0x8-0x1a.7 (19)
0x00|                        01                     |        .       |      id: "type_section" (1) 0x8-0x8.7 (1)
0x00|                           11                  |         .      |      size: 17 0x9-0x9.7 (1)
    |                                               |                |      content{}: 0xa-0x1a.7 (17)
    |                                               |                |        ft{}: 0xa-0x1a.7 (17)
0x00|                              02               |          .     |          n: 2 0xa-0xa.7 (1)
    |                                               |                |          x[0:2]: 0xb-0x1a.7 (16)
    |                                               |                |            [0]{}: ft 0xb-0x12.7 (8)
0x00|                                 60            |           `    |              tag: 0x60 (valid) 0xb-0xb.7 (1)
    |                                               |                |              rt1{}: 0xc-0x10.7 (5)
0x00|                                    04         |            .   |                n: 4 0xc-0xc.7 (1)
    |                                               |                |                x[0:4]: 0xd-0x10.7 (4)
0x00|                                       7d      |             }  |                  [0]: "f32" (0x7d) t 0xd-0xd.7 (1)
0x00|                                          7d   |              } |                  [1]: "f32" (0x7d) t 0xe-0xe.7 (1)
0x00|                                             7d|               }|                  [2]: "f32" (0x7d) t 0xf-0xf.7 (1)
0x10|7d                                             |}               |                  [3]: "f32" (0x7d) t 0x10-0x10.7 (1)
    |                                               |                |              rt2{}: 0x11-0x12.7 (2)
0x10|   01                                          | .              |                n: 1 0x11-0x11.7 (1)
    |                                               |                |                x[0:1]: 0x12-0x12.7 (1)
0x10|      7d                                       |  }             |                  [0]: "f32" (0x7d) t 0x12-0x12.7 (1)
    |                                               |                |            [1]{}: ft 0x13-0x1a.7 (8)
0x10|         60                                    |   `            |              tag: 0x60 (valid) 0x13-0x13.7 (1)
    |                                               |                |              rt1{}: 0x14-0x18.7 (5)
0x10|            04                                 |    .           |                n: 4 0x14-0x14.7 (1)
    |                                               |                |                x[0:4]: 0x15-0x18.7 (4)
0x10|               7c                              |     |          |                  [0]: "f64" (0x7c) t 0x15-0x15.7 (1)
0x10|                  7c                           |      |         |                  [1]: "f64" (0x7c) t 0x16-0x16.7 (1)
0x10|                     7c                        |       |        |                  [2]: "f64" (0x7c) t 0x17-0x17.7 (1)
0x10|                        7c                     |        |       |                  [3]: "f64" (0x7c) t 0x18-0x18.7 (1)
    |                                               |                |              rt2{}: 0x19-0x1a.7 (2)
0x10|                           01                  |         .      |                n: 1 0x19-0x19.7 (1)
    |                                               |                |                x[0:1]: 0x1a-0x1a.7 (1)
0x10|                              7c               |          |     |                  [0]: "f64" (0x7c) t 0x1a-0x1a.7 (1)
    |                                               |                |    [1]{}: section 0x1b-0x1f.7 (5)
0x10|                                 03            |           .    |      id: "function_section" (3) 0x1b-0x1b.7 (1)
0x10|                                    03         |            .   |      size: 3 0x1c-0x1c.7 (1)
    |                                               |                |      content{}: 0x1d-0x1f.7 (3)
    |                                               |                |        x{}: 0x1d-0x1f.7 (3)
0x10|                                       02      |             .  |          n: 2 0x1d-0x1d.7 (1)
    |                                               |                |          x[0:2]: 0x1e-0x1f.7 (2)
0x10|                                          00   |              . |            [0]: 0 x 0x1e-0x1e.7 (1)
0x10|                                             01|               .|            [1]: 1 x 0x1f-0x1f.7 (1)
    |                                               |                |    [2]{}: section 0x20-0x54.7 (53)
0x20|07                                             |.               |      id: "export_section" (7) 0x20-0x20.7 (1)
0x20|   33                                          | 3              |      size: 51 0x21-0x21.7 (1)
    |                                               |                |      content{}: 0x22-0x54.7 (51)
    |                                               |                |        ex{}: 0x22-0x54.7 (51)
0x20|      02                                       |  .             |          n: 2 0x22-0x22.7 (1)
    |                                               |                |          x[0:2]: 0x23-0x54.7 (50)
    |                                               |                |            [0]{}: ex 0x23-0x3b.7 (25)
    |                                               |                |              nm{}: 0x23-0x39.7 (23)
0x20|         16                                    |   .            |                n: 22 0x23-0x23.7 (1)
0x20|            66 33 32 2e 6e 6f 5f 72 65 61 73 73|    f32.no_reass|                b: "f32.no_reassociate_add" 0x24-0x39.7 (22)
0x30|6f 63 69 61 74 65 5f 61 64 64                  |ociate_add      |
    |                                               |                |              d{}: 0x3a-0x3b.7 (2)
0x30|                              00               |          .     |                tag: "funcidx" (0x0) 0x3a-0x3a.7 (1)
0x30|                                 00            |           .    |                x: 0 0x3b-0x3b.7 (1)
    |                                               |                |            [1]{}: ex 0x3c-0x54.7 (25)
    |                                               |                |              nm{}: 0x3c-0x52.7 (23)
0x30|                                    16         |            .   |                n: 22 0x3c-0x3c.7 (1)
0x30|                                       66 36 34|             f64|                b: "f64.no_reassociate_add" 0x3d-0x52.7 (22)
0x40|2e 6e 6f 5f 72 65 61 73 73 6f 63 69 61 74 65 5f|.no_reassociate_|
0x50|61 64 64                                       |add             |
    |                                               |                |              d{}: 0x53-0x54.7 (2)
0x50|         00                                    |   .            |                tag: "funcidx" (0x0) 0x53-0x53.7 (1)
0x50|            01                                 |    .           |                x: 1 0x54-0x54.7 (1)
    |                                               |                |    [3]{}: section 0x55-0x73.7 (31)
0x50|               0a                              |     .          |      id: "code_section" (10) 0x55-0x55.7 (1)
0x50|                  1d                           |      .         |      size: 29 0x56-0x56.7 (1)
    |                                               |                |      content{}: 0x57-0x73.7 (29)
    |                                               |                |        code{}: 0x57-0x73.7 (29)
0x50|                     02                        |       .        |          n: 2 0x57-0x57.7 (1)
    |                                               |                |          x[0:2]: 0x58-0x73.7 (28)
    |                                               |                |            [0]{}: code 0x58-0x65.7 (14)
0x50|                        0d                     |        .       |              size: 13 0x58-0x58.7 (1)
    |                                               |                |              code{}: 0x59-0x65.7 (13)
    |                                               |                |                t{}: 0x59-0x59.7 (1)
0x50|                           00                  |         .      |                  n: 0 0x59-0x59.7 (1)
    |                                               |                |                  x[0:0]: 0x5a-NA (0)
    |                                               |                |                e[0:8]: 0x5a-0x65.7 (12)
    |                                               |                |                  [0]{}: in 0x5a-0x5b.7 (2)
0x50|                              20               |                |                    opcode: "local.get" (0x20) 0x5a-0x5a.7 (1)
0x50|                                 00            |           .    |                    x: 0 0x5b-0x5b.7 (1)
    |                                               |                |                  [1]{}: in 0x5c-0x5d.7 (2)
0x50|                                    20         |                |                    opcode: "local.get" (0x20) 0x5c-0x5c.7 (1)
0x50|                                       01      |             .  |                    x: 1 0x5d-0x5d.7 (1)
    |                                               |                |                  [2]{}: in 0x5e-0x5e.7 (1)
0x50|                                          92   |              . |                    opcode: "f32.add" (0x92) 0x5e-0x5e.7 (1)
    |                                               |                |                  [3]{}: in 0x5f-0x60.7 (2)
0x50|                                             20|                |                    opcode: "local.get" (0x20) 0x5f-0x5f.7 (1)
0x60|02                                             |.               |                    x: 2 0x60-0x60.7 (1)
    |                                               |                |                  [4]{}: in 0x61-0x61.7 (1)
0x60|   92                                          | .              |                    opcode: "f32.add" (0x92) 0x61-0x61.7 (1)
    |                                               |                |                  [5]{}: in 0x62-0x63.7 (2)
0x60|      20                                       |                |                    opcode: "local.get" (0x20) 0x62-0x62.7 (1)
0x60|         03                                    |   .            |                    x: 3 0x63-0x63.7 (1)
    |                                               |                |                  [6]{}: in 0x64-0x64.7 (1)
0x60|            92                                 |    .           |                    opcode: "f32.add" (0x92) 0x64-0x64.7 (1)
    |                                               |                |                  [7]{}: in 0x65-0x65.7 (1)
0x60|               0b                              |     .          |                    opcode: "end" (0xb) 0x65-0x65.7 (1)
    |                                               |                |            [1]{}: code 0x66-0x73.7 (14)
0x60|                  0d                           |      .         |              size: 13 0x66-0x66.7 (1)
    |                                               |                |              code{}: 0x67-0x73.7 (13)
    |                                               |                |                t{}: 0x67-0x67.7 (1)
0x60|                     00                        |       .        |                  n: 0 0x67-0x67.7 (1)
    |                                               |                |                  x[0:0]: 0x68-NA (0)
    |                                               |                |                e[0:8]: 0x68-0x73.7 (12)
    |                                               |                |                  [0]{}: in 0x68-0x69.7 (2)
0x60|                        20                     |                |                    opcode: "local.get" (0x20) 0x68-0x68.7 (1)
0x60|                           00                  |         .      |                    x: 0 0x69-0x69.7 (1)
    |                                               |                |                  [1]{}: in 0x6a-0x6b.7 (2)
0x60|                              20               |                |                    opcode: "local.get" (0x20) 0x6a-0x6a.7 (1)
0x60|                                 01            |           .    |                    x: 1 0x6b-0x6b.7 (1)
    |                                               |                |                  [2]{}: in 0x6c-0x6c.7 (1)
0x60|                                    a0         |            .   |                    opcode: "f64.add" (0xa0) 0x6c-0x6c.7 (1)
    |                                               |                |                  [3]{}: in 0x6d-0x6e.7 (2)
0x60|                                       20      |                |                    opcode: "local.get" (0x20) 0x6d-0x6d.7 (1)
0x60|                                          02   |              . |                    x: 2 0x6e-0x6e.7 (1)
    |                                               |                |                  [4]{}: in 0x6f-0x6f.7 (1)
0x60|                                             a0|               .|                    opcode: "f64.add" (0xa0) 0x6f-0x6f.7 (1)
    |                                               |                |                  [5]{}: in 0x70-0x71.7 (2)
0x70|20                                             |                |                    opcode: "local.get" (0x20) 0x70-0x70.7 (1)
0x70|   03                                          | .              |                    x: 3 0x71-0x71.7 (1)
    |                                               |                |                  [6]{}: in 0x72-0x72.7 (1)
0x70|      a0                                       |  .             |                    opcode: "f64.add" (0xa0) 0x72-0x72.7 (1)
    |                                               |                |                  [7]{}: in 0x73-0x73.7 (1)
0x70|         0b|                                   |   .|           |                    opcode: "end" (0xb) 0x73-0x73.7 (1)
