$ fq -d wasm dv float_exprs-28.wasm
    |00 01 02 03 04 05 06 07 08 09 0a 0b 0c 0d 0e 0f|0123456789abcdef|.{}: float_exprs-28.wasm (wasm) 0x0-0x4b (75)
0x00|00 61 73 6d                                    |.asm            |  magic: raw bits (valid) 0x0-0x4 (4)
0x00|            01 00 00 00                        |    ....        |  version: 1 0x4-0x8 (4)
    |                                               |                |  sections[0:4]: 0x8-0x4b (67)
    |                                               |                |    [0]{}: section 0x8-0x10 (8)
0x00|                        01                     |        .       |      id: "type_section" (1) 0x8-0x9 (1)
0x00|                           06                  |         .      |      size: 6 (valid) 0x9-0xa (1)
    |                                               |                |      content{}: 0xa-0x10 (6)
    |                                               |                |        ft{}: 0xa-0x10 (6)
0x00|                              01               |          .     |          n: 1 (valid) 0xa-0xb (1)
    |                                               |                |          x[0:1]: 0xb-0x10 (5)
    |                                               |                |            [0]{}: ft 0xb-0x10 (5)
0x00|                                 60            |           `    |              tag: 0x60 (valid) 0xb-0xc (1)
    |                                               |                |              rt1{}: 0xc-0xe (2)
0x00|                                    01         |            .   |                n: 1 (valid) 0xc-0xd (1)
    |                                               |                |                x[0:1]: 0xd-0xe (1)
0x00|                                       7d      |             }  |                  [0]: "f32" (0x7d) t 0xd-0xe (1)
    |                                               |                |              rt2{}: 0xe-0x10 (2)
0x00|                                          01   |              . |                n: 1 (valid) 0xe-0xf (1)
    |                                               |                |                x[0:1]: 0xf-0x10 (1)
0x00|                                             7d|               }|                  [0]: "f32" (0x7d) t 0xf-0x10 (1)
    |                                               |                |    [1]{}: section 0x10-0x14 (4)
0x10|03                                             |.               |      id: "function_section" (3) 0x10-0x11 (1)
0x10|   02                                          | .              |      size: 2 (valid) 0x11-0x12 (1)
    |                                               |                |      content{}: 0x12-0x14 (2)
    |                                               |                |        x{}: 0x12-0x14 (2)
0x10|      01                                       |  .             |          n: 1 (valid) 0x12-0x13 (1)
    |                                               |                |          x[0:1]: 0x13-0x14 (1)
0x10|         00                                    |   .            |            [0]: 0 x (valid) 0x13-0x14 (1)
    |                                               |                |    [2]{}: section 0x14-0x3c (40)
0x10|            07                                 |    .           |      id: "export_section" (7) 0x14-0x15 (1)
0x10|               26                              |     &          |      size: 38 (valid) 0x15-0x16 (1)
    |                                               |                |      content{}: 0x16-0x3c (38)
    |                                               |                |        ex{}: 0x16-0x3c (38)
0x10|                  01                           |      .         |          n: 1 (valid) 0x16-0x17 (1)
    |                                               |                |          x[0:1]: 0x17-0x3c (37)
    |                                               |                |            [0]{}: ex 0x17-0x3c (37)
    |                                               |                |              nm{}: 0x17-0x3a (35)
0x10|                     22                        |       "        |                n: 34 (valid) 0x17-0x18 (1)
0x10|                        66 33 32 2e 6e 6f 5f 61|        f32.no_a|                b: "f32.no_approximate_sqrt_reciprocal" 0x18-0x3a (34)
0x20|70 70 72 6f 78 69 6d 61 74 65 5f 73 71 72 74 5f|pproximate_sqrt_|
0x30|72 65 63 69 70 72 6f 63 61 6c                  |reciprocal      |
    |                                               |                |              d{}: 0x3a-0x3c (2)
0x30|                              00               |          .     |                tag: "funcidx" (0x0) 0x3a-0x3b (1)
0x30|                                 00            |           .    |                x: 0 (valid) 0x3b-0x3c (1)
    |                                               |                |    [3]{}: section 0x3c-0x4b (15)
0x30|                                    0a         |            .   |      id: "code_section" (10) 0x3c-0x3d (1)
0x30|                                       0d      |             .  |      size: 13 (valid) 0x3d-0x3e (1)
    |                                               |                |      content{}: 0x3e-0x4b (13)
    |                                               |                |        code{}: 0x3e-0x4b (13)
0x30|                                          01   |              . |          n: 1 (valid) 0x3e-0x3f (1)
    |                                               |                |          x[0:1]: 0x3f-0x4b (12)
    |                                               |                |            [0]{}: code 0x3f-0x4b (12)
0x30|                                             0b|               .|              size: 11 (valid) 0x3f-0x40 (1)
    |                                               |                |              code{}: 0x40-0x4b (11)
    |                                               |                |                t{}: 0x40-0x41 (1)
0x40|00                                             |.               |                  n: 0 (valid) 0x40-0x41 (1)
    |                                               |                |                  x[0:0]: 0x41-0x41 (0)
    |                                               |                |                e[0:5]: 0x41-0x4b (10)
    |                                               |                |                  [0]{}: in 0x41-0x46 (5)
0x40|   43                                          | C              |                    opcode: "f32.const" (0x43) 0x41-0x42 (1)
0x40|      00 00 80 3f                              |  ...?          |                    z: 1 0x42-0x46 (4)
    |                                               |                |                  [1]{}: in 0x46-0x48 (2)
0x40|                  20                           |                |                    opcode: "local.get" (0x20) 0x46-0x47 (1)
0x40|                     00                        |       .        |                    x: 0 (valid) 0x47-0x48 (1)
    |                                               |                |                  [2]{}: in 0x48-0x49 (1)
0x40|                        95                     |        .       |                    opcode: "f32.div" (0x95) 0x48-0x49 (1)
    |                                               |                |                  [3]{}: in 0x49-0x4a (1)
0x40|                           91                  |         .      |                    opcode: "f32.sqrt" (0x91) 0x49-0x4a (1)
    |                                               |                |                  [4]{}: in 0x4a-0x4b (1)
0x40|                              0b|              |          .|    |                    opcode: "end" (0xb) 0x4a-0x4b (1)
