$ fq -d wasm dv float_exprs-1.wasm
    |00 01 02 03 04 05 06 07 08 09 0a 0b 0c 0d 0e 0f|0123456789abcdef|.{}: float_exprs-1.wasm (wasm) 0x0-0x53.7 (84)
0x00|00 61 73 6d                                    |.asm            |  magic: raw bits (valid) 0x0-0x3.7 (4)
0x00|            01 00 00 00                        |    ....        |  version: 1 0x4-0x7.7 (4)
    |                                               |                |  sections[0:4]: 0x8-0x53.7 (76)
    |                                               |                |    [0]{}: section 0x8-0x18.7 (17)
0x00|                        01                     |        .       |      id: "type section" (1) 0x8-0x8.7 (1)
0x00|                           0f                  |         .      |      size: 15 0x9-0x9.7 (1)
    |                                               |                |      content{}: 0xa-0x18.7 (15)
    |                                               |                |        ft{}: 0xa-0x18.7 (15)
0x00|                              02               |          .     |          n: 2 0xa-0xa.7 (1)
    |                                               |                |          x[0:2]: 0xb-0x18.7 (14)
    |                                               |                |            [0]{}: ft 0xb-0x11.7 (7)
0x00|                                 60            |           `    |              tag: 0x60 (valid) 0xb-0xb.7 (1)
    |                                               |                |              rt1{}: 0xc-0xf.7 (4)
0x00|                                    03         |            .   |                n: 3 0xc-0xc.7 (1)
    |                                               |                |                x[0:3]: 0xd-0xf.7 (3)
0x00|                                       7d      |             }  |                  [0]: "f32" (0x7d) t 0xd-0xd.7 (1)
0x00|                                          7d   |              } |                  [1]: "f32" (0x7d) t 0xe-0xe.7 (1)
0x00|                                             7d|               }|                  [2]: "f32" (0x7d) t 0xf-0xf.7 (1)
    |                                               |                |              rt2{}: 0x10-0x11.7 (2)
0x10|01                                             |.               |                n: 1 0x10-0x10.7 (1)
    |                                               |                |                x[0:1]: 0x11-0x11.7 (1)
0x10|   7d                                          | }              |                  [0]: "f32" (0x7d) t 0x11-0x11.7 (1)
    |                                               |                |            [1]{}: ft 0x12-0x18.7 (7)
0x10|      60                                       |  `             |              tag: 0x60 (valid) 0x12-0x12.7 (1)
    |                                               |                |              rt1{}: 0x13-0x16.7 (4)
0x10|         03                                    |   .            |                n: 3 0x13-0x13.7 (1)
    |                                               |                |                x[0:3]: 0x14-0x16.7 (3)
0x10|            7c                                 |    |           |                  [0]: "f64" (0x7c) t 0x14-0x14.7 (1)
0x10|               7c                              |     |          |                  [1]: "f64" (0x7c) t 0x15-0x15.7 (1)
0x10|                  7c                           |      |         |                  [2]: "f64" (0x7c) t 0x16-0x16.7 (1)
    |                                               |                |              rt2{}: 0x17-0x18.7 (2)
0x10|                     01                        |       .        |                n: 1 0x17-0x17.7 (1)
    |                                               |                |                x[0:1]: 0x18-0x18.7 (1)
0x10|                        7c                     |        |       |                  [0]: "f64" (0x7c) t 0x18-0x18.7 (1)
    |                                               |                |    [1]{}: section 0x19-0x1d.7 (5)
0x10|                           03                  |         .      |      id: "function section" (3) 0x19-0x19.7 (1)
0x10|                              03               |          .     |      size: 3 0x1a-0x1a.7 (1)
    |                                               |                |      content{}: 0x1b-0x1d.7 (3)
    |                                               |                |        x{}: 0x1b-0x1d.7 (3)
0x10|                                 02            |           .    |          n: 2 0x1b-0x1b.7 (1)
    |                                               |                |          x[0:2]: 0x1c-0x1d.7 (2)
0x10|                                    00         |            .   |            [0]: 0 x 0x1c-0x1c.7 (1)
0x10|                                       01      |             .  |            [1]: 1 x 0x1d-0x1d.7 (1)
    |                                               |                |    [2]{}: section 0x1e-0x3a.7 (29)
0x10|                                          07   |              . |      id: "export section" (7) 0x1e-0x1e.7 (1)
0x10|                                             1b|               .|      size: 27 0x1f-0x1f.7 (1)
    |                                               |                |      content{}: 0x20-0x3a.7 (27)
    |                                               |                |        ex{}: 0x20-0x3a.7 (27)
0x20|02                                             |.               |          n: 2 0x20-0x20.7 (1)
    |                                               |                |          x[0:2]: 0x21-0x3a.7 (26)
    |                                               |                |            [0]{}: ex 0x21-0x2d.7 (13)
    |                                               |                |              nm{}: 0x21-0x2b.7 (11)
0x20|   0a                                          | .              |                n: 10 0x21-0x21.7 (1)
0x20|      66 33 32 2e 6e 6f 5f 66 6d 61            |  f32.no_fma    |                b: "f32.no_fma" 0x22-0x2b.7 (10)
    |                                               |                |              d{}: 0x2c-0x2d.7 (2)
0x20|                                    00         |            .   |                tag: "funcidx" (0x0) 0x2c-0x2c.7 (1)
0x20|                                       00      |             .  |                x: 0 0x2d-0x2d.7 (1)
    |                                               |                |            [1]{}: ex 0x2e-0x3a.7 (13)
    |                                               |                |              nm{}: 0x2e-0x38.7 (11)
0x20|                                          0a   |              . |                n: 10 0x2e-0x2e.7 (1)
0x20|                                             66|               f|                b: "f64.no_fma" 0x2f-0x38.7 (10)
0x30|36 34 2e 6e 6f 5f 66 6d 61                     |64.no_fma       |
    |                                               |                |              d{}: 0x39-0x3a.7 (2)
0x30|                           00                  |         .      |                tag: "funcidx" (0x0) 0x39-0x39.7 (1)
0x30|                              01               |          .     |                x: 1 0x3a-0x3a.7 (1)
    |                                               |                |    [3]{}: section 0x3b-0x53.7 (25)
0x30|                                 0a            |           .    |      id: "code section" (10) 0x3b-0x3b.7 (1)
0x30|                                    17         |            .   |      size: 23 0x3c-0x3c.7 (1)
    |                                               |                |      content{}: 0x3d-0x53.7 (23)
    |                                               |                |        code{}: 0x3d-0x53.7 (23)
0x30|                                       02      |             .  |          n: 2 0x3d-0x3d.7 (1)
    |                                               |                |          x[0:2]: 0x3e-0x53.7 (22)
    |                                               |                |            [0]{}: code 0x3e-0x48.7 (11)
0x30|                                          0a   |              . |              size: 10 0x3e-0x3e.7 (1)
    |                                               |                |              code{}: 0x3f-0x48.7 (10)
    |                                               |                |                t{}: 0x3f-0x3f.7 (1)
0x30|                                             00|               .|                  n: 0 0x3f-0x3f.7 (1)
    |                                               |                |                  x[0:0]: 0x40-NA (0)
    |                                               |                |                e[0:6]: 0x40-0x48.7 (9)
    |                                               |                |                  [0]{}: in 0x40-0x41.7 (2)
0x40|20                                             |                |                    local.get: 0x20 (valid) 0x40-0x40.7 (1)
0x40|   00                                          | .              |                    x: 0 0x41-0x41.7 (1)
    |                                               |                |                  [1]{}: in 0x42-0x43.7 (2)
0x40|      20                                       |                |                    local.get: 0x20 (valid) 0x42-0x42.7 (1)
0x40|         01                                    |   .            |                    x: 1 0x43-0x43.7 (1)
    |                                               |                |                  [2]{}: in 0x44-0x44.7 (1)
0x40|            94                                 |    .           |                    f32.mul: 0x94 (valid) 0x44-0x44.7 (1)
    |                                               |                |                  [3]{}: in 0x45-0x46.7 (2)
0x40|               20                              |                |                    local.get: 0x20 (valid) 0x45-0x45.7 (1)
0x40|                  02                           |      .         |                    x: 2 0x46-0x46.7 (1)
    |                                               |                |                  [4]{}: in 0x47-0x47.7 (1)
0x40|                     92                        |       .        |                    f32.add: 0x92 (valid) 0x47-0x47.7 (1)
    |                                               |                |                  [5]{}: in 0x48-0x48.7 (1)
0x40|                        0b                     |        .       |                    end: 0xb (valid) 0x48-0x48.7 (1)
    |                                               |                |            [1]{}: code 0x49-0x53.7 (11)
0x40|                           0a                  |         .      |              size: 10 0x49-0x49.7 (1)
    |                                               |                |              code{}: 0x4a-0x53.7 (10)
    |                                               |                |                t{}: 0x4a-0x4a.7 (1)
0x40|                              00               |          .     |                  n: 0 0x4a-0x4a.7 (1)
    |                                               |                |                  x[0:0]: 0x4b-NA (0)
    |                                               |                |                e[0:6]: 0x4b-0x53.7 (9)
    |                                               |                |                  [0]{}: in 0x4b-0x4c.7 (2)
0x40|                                 20            |                |                    local.get: 0x20 (valid) 0x4b-0x4b.7 (1)
0x40|                                    00         |            .   |                    x: 0 0x4c-0x4c.7 (1)
    |                                               |                |                  [1]{}: in 0x4d-0x4e.7 (2)
0x40|                                       20      |                |                    local.get: 0x20 (valid) 0x4d-0x4d.7 (1)
0x40|                                          01   |              . |                    x: 1 0x4e-0x4e.7 (1)
    |                                               |                |                  [2]{}: in 0x4f-0x4f.7 (1)
0x40|                                             a2|               .|                    f64.mul: 0xa2 (valid) 0x4f-0x4f.7 (1)
    |                                               |                |                  [3]{}: in 0x50-0x51.7 (2)
0x50|20                                             |                |                    local.get: 0x20 (valid) 0x50-0x50.7 (1)
0x50|   02                                          | .              |                    x: 2 0x51-0x51.7 (1)
    |                                               |                |                  [4]{}: in 0x52-0x52.7 (1)
0x50|      a0                                       |  .             |                    f64.add: 0xa0 (valid) 0x52-0x52.7 (1)
    |                                               |                |                  [5]{}: in 0x53-0x53.7 (1)
0x50|         0b|                                   |   .|           |                    end: 0xb (valid) 0x53-0x53.7 (1)
