$ fq -d wasm dv float_exprs-86.wasm
     |00 01 02 03 04 05 06 07 08 09 0a 0b 0c 0d 0e 0f|0123456789abcdef|.{}: float_exprs-86.wasm (wasm) 0x0-0x150.7 (337)
0x000|00 61 73 6d                                    |.asm            |  magic: raw bits (valid) 0x0-0x3.7 (4)
0x000|            01 00 00 00                        |    ....        |  version: 1 0x4-0x7.7 (4)
     |                                               |                |  sections[0:4]: 0x8-0x150.7 (329)
     |                                               |                |    [0]{}: section 0x8-0x16.7 (15)
0x000|                        01                     |        .       |      id: "type_section" (1) 0x8-0x8.7 (1)
0x000|                           0d                  |         .      |      size: 13 (valid) 0x9-0x9.7 (1)
     |                                               |                |      content{}: 0xa-0x16.7 (13)
     |                                               |                |        ft{}: 0xa-0x16.7 (13)
0x000|                              02               |          .     |          n: 2 (valid) 0xa-0xa.7 (1)
     |                                               |                |          x[0:2]: 0xb-0x16.7 (12)
     |                                               |                |            [0]{}: ft 0xb-0x10.7 (6)
0x000|                                 60            |           `    |              tag: 0x60 (valid) 0xb-0xb.7 (1)
     |                                               |                |              rt1{}: 0xc-0xe.7 (3)
0x000|                                    02         |            .   |                n: 2 (valid) 0xc-0xc.7 (1)
     |                                               |                |                x[0:2]: 0xd-0xe.7 (2)
0x000|                                       7d      |             }  |                  [0]: "f32" (0x7d) t 0xd-0xd.7 (1)
0x000|                                          7d   |              } |                  [1]: "f32" (0x7d) t 0xe-0xe.7 (1)
     |                                               |                |              rt2{}: 0xf-0x10.7 (2)
0x000|                                             01|               .|                n: 1 (valid) 0xf-0xf.7 (1)
     |                                               |                |                x[0:1]: 0x10-0x10.7 (1)
0x010|7f                                             |.               |                  [0]: "i32" (0x7f) t 0x10-0x10.7 (1)
     |                                               |                |            [1]{}: ft 0x11-0x16.7 (6)
0x010|   60                                          | `              |              tag: 0x60 (valid) 0x11-0x11.7 (1)
     |                                               |                |              rt1{}: 0x12-0x14.7 (3)
0x010|      02                                       |  .             |                n: 2 (valid) 0x12-0x12.7 (1)
     |                                               |                |                x[0:2]: 0x13-0x14.7 (2)
0x010|         7c                                    |   |            |                  [0]: "f64" (0x7c) t 0x13-0x13.7 (1)
0x010|            7c                                 |    |           |                  [1]: "f64" (0x7c) t 0x14-0x14.7 (1)
     |                                               |                |              rt2{}: 0x15-0x16.7 (2)
0x010|               01                              |     .          |                n: 1 (valid) 0x15-0x15.7 (1)
     |                                               |                |                x[0:1]: 0x16-0x16.7 (1)
0x010|                  7f                           |      .         |                  [0]: "i32" (0x7f) t 0x16-0x16.7 (1)
     |                                               |                |    [1]{}: section 0x17-0x21.7 (11)
0x010|                     03                        |       .        |      id: "function_section" (3) 0x17-0x17.7 (1)
0x010|                        09                     |        .       |      size: 9 (valid) 0x18-0x18.7 (1)
     |                                               |                |      content{}: 0x19-0x21.7 (9)
     |                                               |                |        x{}: 0x19-0x21.7 (9)
0x010|                           08                  |         .      |          n: 8 (valid) 0x19-0x19.7 (1)
     |                                               |                |          x[0:8]: 0x1a-0x21.7 (8)
0x010|                              00               |          .     |            [0]: 0 x (valid) 0x1a-0x1a.7 (1)
0x010|                                 00            |           .    |            [1]: 0 x (valid) 0x1b-0x1b.7 (1)
0x010|                                    00         |            .   |            [2]: 0 x (valid) 0x1c-0x1c.7 (1)
0x010|                                       00      |             .  |            [3]: 0 x (valid) 0x1d-0x1d.7 (1)
0x010|                                          01   |              . |            [4]: 1 x (valid) 0x1e-0x1e.7 (1)
0x010|                                             01|               .|            [5]: 1 x (valid) 0x1f-0x1f.7 (1)
0x020|01                                             |.               |            [6]: 1 x (valid) 0x20-0x20.7 (1)
0x020|   01                                          | .              |            [7]: 1 x (valid) 0x21-0x21.7 (1)
     |                                               |                |    [2]{}: section 0x22-0xdd.7 (188)
0x020|      07                                       |  .             |      id: "export_section" (7) 0x22-0x22.7 (1)
0x020|         b9 01                                 |   ..           |      size: 185 (valid) 0x23-0x24.7 (2)
     |                                               |                |      content{}: 0x25-0xdd.7 (185)
     |                                               |                |        ex{}: 0x25-0xdd.7 (185)
0x020|               08                              |     .          |          n: 8 (valid) 0x25-0x25.7 (1)
     |                                               |                |          x[0:8]: 0x26-0xdd.7 (184)
     |                                               |                |            [0]{}: ex 0x26-0x3c.7 (23)
     |                                               |                |              nm{}: 0x26-0x3a.7 (21)
0x020|                  14                           |      .         |                n: 20 (valid) 0x26-0x26.7 (1)
0x020|                     66 33 32 2e 6e 6f 5f 74 72|       f32.no_tr|                b: "f32.no_trichotomy_lt" 0x27-0x3a.7 (20)
0x030|69 63 68 6f 74 6f 6d 79 5f 6c 74               |ichotomy_lt     |
     |                                               |                |              d{}: 0x3b-0x3c.7 (2)
0x030|                                 00            |           .    |                tag: "funcidx" (0x0) 0x3b-0x3b.7 (1)
0x030|                                    00         |            .   |                x: 0 (valid) 0x3c-0x3c.7 (1)
     |                                               |                |            [1]{}: ex 0x3d-0x53.7 (23)
     |                                               |                |              nm{}: 0x3d-0x51.7 (21)
0x030|                                       14      |             .  |                n: 20 (valid) 0x3d-0x3d.7 (1)
0x030|                                          66 33|              f3|                b: "f32.no_trichotomy_le" 0x3e-0x51.7 (20)
0x040|32 2e 6e 6f 5f 74 72 69 63 68 6f 74 6f 6d 79 5f|2.no_trichotomy_|
0x050|6c 65                                          |le              |
     |                                               |                |              d{}: 0x52-0x53.7 (2)
0x050|      00                                       |  .             |                tag: "funcidx" (0x0) 0x52-0x52.7 (1)
0x050|         01                                    |   .            |                x: 1 (valid) 0x53-0x53.7 (1)
     |                                               |                |            [2]{}: ex 0x54-0x6a.7 (23)
     |                                               |                |              nm{}: 0x54-0x68.7 (21)
0x050|            14                                 |    .           |                n: 20 (valid) 0x54-0x54.7 (1)
0x050|               66 33 32 2e 6e 6f 5f 74 72 69 63|     f32.no_tric|                b: "f32.no_trichotomy_gt" 0x55-0x68.7 (20)
0x060|68 6f 74 6f 6d 79 5f 67 74                     |hotomy_gt       |
     |                                               |                |              d{}: 0x69-0x6a.7 (2)
0x060|                           00                  |         .      |                tag: "funcidx" (0x0) 0x69-0x69.7 (1)
0x060|                              02               |          .     |                x: 2 (valid) 0x6a-0x6a.7 (1)
     |                                               |                |            [3]{}: ex 0x6b-0x81.7 (23)
     |                                               |                |              nm{}: 0x6b-0x7f.7 (21)
0x060|                                 14            |           .    |                n: 20 (valid) 0x6b-0x6b.7 (1)
0x060|                                    66 33 32 2e|            f32.|                b: "f32.no_trichotomy_ge" 0x6c-0x7f.7 (20)
0x070|6e 6f 5f 74 72 69 63 68 6f 74 6f 6d 79 5f 67 65|no_trichotomy_ge|
     |                                               |                |              d{}: 0x80-0x81.7 (2)
0x080|00                                             |.               |                tag: "funcidx" (0x0) 0x80-0x80.7 (1)
0x080|   03                                          | .              |                x: 3 (valid) 0x81-0x81.7 (1)
     |                                               |                |            [4]{}: ex 0x82-0x98.7 (23)
     |                                               |                |              nm{}: 0x82-0x96.7 (21)
0x080|      14                                       |  .             |                n: 20 (valid) 0x82-0x82.7 (1)
0x080|         66 36 34 2e 6e 6f 5f 74 72 69 63 68 6f|   f64.no_tricho|                b: "f64.no_trichotomy_lt" 0x83-0x96.7 (20)
0x090|74 6f 6d 79 5f 6c 74                           |tomy_lt         |
     |                                               |                |              d{}: 0x97-0x98.7 (2)
0x090|                     00                        |       .        |                tag: "funcidx" (0x0) 0x97-0x97.7 (1)
0x090|                        04                     |        .       |                x: 4 (valid) 0x98-0x98.7 (1)
     |                                               |                |            [5]{}: ex 0x99-0xaf.7 (23)
     |                                               |                |              nm{}: 0x99-0xad.7 (21)
0x090|                           14                  |         .      |                n: 20 (valid) 0x99-0x99.7 (1)
0x090|                              66 36 34 2e 6e 6f|          f64.no|                b: "f64.no_trichotomy_le" 0x9a-0xad.7 (20)
0x0a0|5f 74 72 69 63 68 6f 74 6f 6d 79 5f 6c 65      |_trichotomy_le  |
     |                                               |                |              d{}: 0xae-0xaf.7 (2)
0x0a0|                                          00   |              . |                tag: "funcidx" (0x0) 0xae-0xae.7 (1)
0x0a0|                                             05|               .|                x: 5 (valid) 0xaf-0xaf.7 (1)
     |                                               |                |            [6]{}: ex 0xb0-0xc6.7 (23)
     |                                               |                |              nm{}: 0xb0-0xc4.7 (21)
0x0b0|14                                             |.               |                n: 20 (valid) 0xb0-0xb0.7 (1)
0x0b0|   66 36 34 2e 6e 6f 5f 74 72 69 63 68 6f 74 6f| f64.no_trichoto|                b: "f64.no_trichotomy_gt" 0xb1-0xc4.7 (20)
0x0c0|6d 79 5f 67 74                                 |my_gt           |
     |                                               |                |              d{}: 0xc5-0xc6.7 (2)
0x0c0|               00                              |     .          |                tag: "funcidx" (0x0) 0xc5-0xc5.7 (1)
0x0c0|                  06                           |      .         |                x: 6 (valid) 0xc6-0xc6.7 (1)
     |                                               |                |            [7]{}: ex 0xc7-0xdd.7 (23)
     |                                               |                |              nm{}: 0xc7-0xdb.7 (21)
0x0c0|                     14                        |       .        |                n: 20 (valid) 0xc7-0xc7.7 (1)
0x0c0|                        66 36 34 2e 6e 6f 5f 74|        f64.no_t|                b: "f64.no_trichotomy_ge" 0xc8-0xdb.7 (20)
0x0d0|72 69 63 68 6f 74 6f 6d 79 5f 67 65            |richotomy_ge    |
     |                                               |                |              d{}: 0xdc-0xdd.7 (2)
0x0d0|                                    00         |            .   |                tag: "funcidx" (0x0) 0xdc-0xdc.7 (1)
0x0d0|                                       07      |             .  |                x: 7 (valid) 0xdd-0xdd.7 (1)
     |                                               |                |    [3]{}: section 0xde-0x150.7 (115)
0x0d0|                                          0a   |              . |      id: "code_section" (10) 0xde-0xde.7 (1)
0x0d0|                                             71|               q|      size: 113 (valid) 0xdf-0xdf.7 (1)
     |                                               |                |      content{}: 0xe0-0x150.7 (113)
     |                                               |                |        code{}: 0xe0-0x150.7 (113)
0x0e0|08                                             |.               |          n: 8 (valid) 0xe0-0xe0.7 (1)
     |                                               |                |          x[0:8]: 0xe1-0x150.7 (112)
     |                                               |                |            [0]{}: code 0xe1-0xee.7 (14)
0x0e0|   0d                                          | .              |              size: 13 (valid) 0xe1-0xe1.7 (1)
     |                                               |                |              code{}: 0xe2-0xee.7 (13)
     |                                               |                |                t{}: 0xe2-0xe2.7 (1)
0x0e0|      00                                       |  .             |                  n: 0 (valid) 0xe2-0xe2.7 (1)
     |                                               |                |                  x[0:0]: 0xe3-NA (0)
     |                                               |                |                e[0:8]: 0xe3-0xee.7 (12)
     |                                               |                |                  [0]{}: in 0xe3-0xe4.7 (2)
0x0e0|         20                                    |                |                    opcode: "local.get" (0x20) 0xe3-0xe3.7 (1)
0x0e0|            00                                 |    .           |                    x: 0 (valid) 0xe4-0xe4.7 (1)
     |                                               |                |                  [1]{}: in 0xe5-0xe6.7 (2)
0x0e0|               20                              |                |                    opcode: "local.get" (0x20) 0xe5-0xe5.7 (1)
0x0e0|                  01                           |      .         |                    x: 1 (valid) 0xe6-0xe6.7 (1)
     |                                               |                |                  [2]{}: in 0xe7-0xe7.7 (1)
0x0e0|                     5d                        |       ]        |                    opcode: "f32.lt" (0x5d) 0xe7-0xe7.7 (1)
     |                                               |                |                  [3]{}: in 0xe8-0xe9.7 (2)
0x0e0|                        20                     |                |                    opcode: "local.get" (0x20) 0xe8-0xe8.7 (1)
0x0e0|                           00                  |         .      |                    x: 0 (valid) 0xe9-0xe9.7 (1)
     |                                               |                |                  [4]{}: in 0xea-0xeb.7 (2)
0x0e0|                              20               |                |                    opcode: "local.get" (0x20) 0xea-0xea.7 (1)
0x0e0|                                 01            |           .    |                    x: 1 (valid) 0xeb-0xeb.7 (1)
     |                                               |                |                  [5]{}: in 0xec-0xec.7 (1)
0x0e0|                                    60         |            `   |                    opcode: "f32.ge" (0x60) 0xec-0xec.7 (1)
     |                                               |                |                  [6]{}: in 0xed-0xed.7 (1)
0x0e0|                                       72      |             r  |                    opcode: "i32.or" (0x72) 0xed-0xed.7 (1)
     |                                               |                |                  [7]{}: in 0xee-0xee.7 (1)
0x0e0|                                          0b   |              . |                    opcode: "end" (0xb) 0xee-0xee.7 (1)
     |                                               |                |            [1]{}: code 0xef-0xfc.7 (14)
0x0e0|                                             0d|               .|              size: 13 (valid) 0xef-0xef.7 (1)
     |                                               |                |              code{}: 0xf0-0xfc.7 (13)
     |                                               |                |                t{}: 0xf0-0xf0.7 (1)
0x0f0|00                                             |.               |                  n: 0 (valid) 0xf0-0xf0.7 (1)
     |                                               |                |                  x[0:0]: 0xf1-NA (0)
     |                                               |                |                e[0:8]: 0xf1-0xfc.7 (12)
     |                                               |                |                  [0]{}: in 0xf1-0xf2.7 (2)
0x0f0|   20                                          |                |                    opcode: "local.get" (0x20) 0xf1-0xf1.7 (1)
0x0f0|      00                                       |  .             |                    x: 0 (valid) 0xf2-0xf2.7 (1)
     |                                               |                |                  [1]{}: in 0xf3-0xf4.7 (2)
0x0f0|         20                                    |                |                    opcode: "local.get" (0x20) 0xf3-0xf3.7 (1)
0x0f0|            01                                 |    .           |                    x: 1 (valid) 0xf4-0xf4.7 (1)
     |                                               |                |                  [2]{}: in 0xf5-0xf5.7 (1)
0x0f0|               5f                              |     _          |                    opcode: "f32.le" (0x5f) 0xf5-0xf5.7 (1)
     |                                               |                |                  [3]{}: in 0xf6-0xf7.7 (2)
0x0f0|                  20                           |                |                    opcode: "local.get" (0x20) 0xf6-0xf6.7 (1)
0x0f0|                     00                        |       .        |                    x: 0 (valid) 0xf7-0xf7.7 (1)
     |                                               |                |                  [4]{}: in 0xf8-0xf9.7 (2)
0x0f0|                        20                     |                |                    opcode: "local.get" (0x20) 0xf8-0xf8.7 (1)
0x0f0|                           01                  |         .      |                    x: 1 (valid) 0xf9-0xf9.7 (1)
     |                                               |                |                  [5]{}: in 0xfa-0xfa.7 (1)
0x0f0|                              5e               |          ^     |                    opcode: "f32.gt" (0x5e) 0xfa-0xfa.7 (1)
     |                                               |                |                  [6]{}: in 0xfb-0xfb.7 (1)
0x0f0|                                 72            |           r    |                    opcode: "i32.or" (0x72) 0xfb-0xfb.7 (1)
     |                                               |                |                  [7]{}: in 0xfc-0xfc.7 (1)
0x0f0|                                    0b         |            .   |                    opcode: "end" (0xb) 0xfc-0xfc.7 (1)
     |                                               |                |            [2]{}: code 0xfd-0x10a.7 (14)
0x0f0|                                       0d      |             .  |              size: 13 (valid) 0xfd-0xfd.7 (1)
     |                                               |                |              code{}: 0xfe-0x10a.7 (13)
     |                                               |                |                t{}: 0xfe-0xfe.7 (1)
0x0f0|                                          00   |              . |                  n: 0 (valid) 0xfe-0xfe.7 (1)
     |                                               |                |                  x[0:0]: 0xff-NA (0)
     |                                               |                |                e[0:8]: 0xff-0x10a.7 (12)
     |                                               |                |                  [0]{}: in 0xff-0x100.7 (2)
0x0f0|                                             20|                |                    opcode: "local.get" (0x20) 0xff-0xff.7 (1)
0x100|00                                             |.               |                    x: 0 (valid) 0x100-0x100.7 (1)
     |                                               |                |                  [1]{}: in 0x101-0x102.7 (2)
0x100|   20                                          |                |                    opcode: "local.get" (0x20) 0x101-0x101.7 (1)
0x100|      01                                       |  .             |                    x: 1 (valid) 0x102-0x102.7 (1)
     |                                               |                |                  [2]{}: in 0x103-0x103.7 (1)
0x100|         5e                                    |   ^            |                    opcode: "f32.gt" (0x5e) 0x103-0x103.7 (1)
     |                                               |                |                  [3]{}: in 0x104-0x105.7 (2)
0x100|            20                                 |                |                    opcode: "local.get" (0x20) 0x104-0x104.7 (1)
0x100|               00                              |     .          |                    x: 0 (valid) 0x105-0x105.7 (1)
     |                                               |                |                  [4]{}: in 0x106-0x107.7 (2)
0x100|                  20                           |                |                    opcode: "local.get" (0x20) 0x106-0x106.7 (1)
0x100|                     01                        |       .        |                    x: 1 (valid) 0x107-0x107.7 (1)
     |                                               |                |                  [5]{}: in 0x108-0x108.7 (1)
0x100|                        5f                     |        _       |                    opcode: "f32.le" (0x5f) 0x108-0x108.7 (1)
     |                                               |                |                  [6]{}: in 0x109-0x109.7 (1)
0x100|                           72                  |         r      |                    opcode: "i32.or" (0x72) 0x109-0x109.7 (1)
     |                                               |                |                  [7]{}: in 0x10a-0x10a.7 (1)
0x100|                              0b               |          .     |                    opcode: "end" (0xb) 0x10a-0x10a.7 (1)
     |                                               |                |            [3]{}: code 0x10b-0x118.7 (14)
0x100|                                 0d            |           .    |              size: 13 (valid) 0x10b-0x10b.7 (1)
     |                                               |                |              code{}: 0x10c-0x118.7 (13)
     |                                               |                |                t{}: 0x10c-0x10c.7 (1)
0x100|                                    00         |            .   |                  n: 0 (valid) 0x10c-0x10c.7 (1)
     |                                               |                |                  x[0:0]: 0x10d-NA (0)
     |                                               |                |                e[0:8]: 0x10d-0x118.7 (12)
     |                                               |                |                  [0]{}: in 0x10d-0x10e.7 (2)
0x100|                                       20      |                |                    opcode: "local.get" (0x20) 0x10d-0x10d.7 (1)
0x100|                                          00   |              . |                    x: 0 (valid) 0x10e-0x10e.7 (1)
     |                                               |                |                  [1]{}: in 0x10f-0x110.7 (2)
0x100|                                             20|                |                    opcode: "local.get" (0x20) 0x10f-0x10f.7 (1)
0x110|01                                             |.               |                    x: 1 (valid) 0x110-0x110.7 (1)
     |                                               |                |                  [2]{}: in 0x111-0x111.7 (1)
0x110|   60                                          | `              |                    opcode: "f32.ge" (0x60) 0x111-0x111.7 (1)
     |                                               |                |                  [3]{}: in 0x112-0x113.7 (2)
0x110|      20                                       |                |                    opcode: "local.get" (0x20) 0x112-0x112.7 (1)
0x110|         00                                    |   .            |                    x: 0 (valid) 0x113-0x113.7 (1)
     |                                               |                |                  [4]{}: in 0x114-0x115.7 (2)
0x110|            20                                 |                |                    opcode: "local.get" (0x20) 0x114-0x114.7 (1)
0x110|               01                              |     .          |                    x: 1 (valid) 0x115-0x115.7 (1)
     |                                               |                |                  [5]{}: in 0x116-0x116.7 (1)
0x110|                  5d                           |      ]         |                    opcode: "f32.lt" (0x5d) 0x116-0x116.7 (1)
     |                                               |                |                  [6]{}: in 0x117-0x117.7 (1)
0x110|                     72                        |       r        |                    opcode: "i32.or" (0x72) 0x117-0x117.7 (1)
     |                                               |                |                  [7]{}: in 0x118-0x118.7 (1)
0x110|                        0b                     |        .       |                    opcode: "end" (0xb) 0x118-0x118.7 (1)
     |                                               |                |            [4]{}: code 0x119-0x126.7 (14)
0x110|                           0d                  |         .      |              size: 13 (valid) 0x119-0x119.7 (1)
     |                                               |                |              code{}: 0x11a-0x126.7 (13)
     |                                               |                |                t{}: 0x11a-0x11a.7 (1)
0x110|                              00               |          .     |                  n: 0 (valid) 0x11a-0x11a.7 (1)
     |                                               |                |                  x[0:0]: 0x11b-NA (0)
     |                                               |                |                e[0:8]: 0x11b-0x126.7 (12)
     |                                               |                |                  [0]{}: in 0x11b-0x11c.7 (2)
0x110|                                 20            |                |                    opcode: "local.get" (0x20) 0x11b-0x11b.7 (1)
0x110|                                    00         |            .   |                    x: 0 (valid) 0x11c-0x11c.7 (1)
     |                                               |                |                  [1]{}: in 0x11d-0x11e.7 (2)
0x110|                                       20      |                |                    opcode: "local.get" (0x20) 0x11d-0x11d.7 (1)
0x110|                                          01   |              . |                    x: 1 (valid) 0x11e-0x11e.7 (1)
     |                                               |                |                  [2]{}: in 0x11f-0x11f.7 (1)
0x110|                                             63|               c|                    opcode: "f64.lt" (0x63) 0x11f-0x11f.7 (1)
     |                                               |                |                  [3]{}: in 0x120-0x121.7 (2)
0x120|20                                             |                |                    opcode: "local.get" (0x20) 0x120-0x120.7 (1)
0x120|   00                                          | .              |                    x: 0 (valid) 0x121-0x121.7 (1)
     |                                               |                |                  [4]{}: in 0x122-0x123.7 (2)
0x120|      20                                       |                |                    opcode: "local.get" (0x20) 0x122-0x122.7 (1)
0x120|         01                                    |   .            |                    x: 1 (valid) 0x123-0x123.7 (1)
     |                                               |                |                  [5]{}: in 0x124-0x124.7 (1)
0x120|            66                                 |    f           |                    opcode: "f64.ge" (0x66) 0x124-0x124.7 (1)
     |                                               |                |                  [6]{}: in 0x125-0x125.7 (1)
0x120|               72                              |     r          |                    opcode: "i32.or" (0x72) 0x125-0x125.7 (1)
     |                                               |                |                  [7]{}: in 0x126-0x126.7 (1)
0x120|                  0b                           |      .         |                    opcode: "end" (0xb) 0x126-0x126.7 (1)
     |                                               |                |            [5]{}: code 0x127-0x134.7 (14)
0x120|                     0d                        |       .        |              size: 13 (valid) 0x127-0x127.7 (1)
     |                                               |                |              code{}: 0x128-0x134.7 (13)
     |                                               |                |                t{}: 0x128-0x128.7 (1)
0x120|                        00                     |        .       |                  n: 0 (valid) 0x128-0x128.7 (1)
     |                                               |                |                  x[0:0]: 0x129-NA (0)
     |                                               |                |                e[0:8]: 0x129-0x134.7 (12)
     |                                               |                |                  [0]{}: in 0x129-0x12a.7 (2)
0x120|                           20                  |                |                    opcode: "local.get" (0x20) 0x129-0x129.7 (1)
0x120|                              00               |          .     |                    x: 0 (valid) 0x12a-0x12a.7 (1)
     |                                               |                |                  [1]{}: in 0x12b-0x12c.7 (2)
0x120|                                 20            |                |                    opcode: "local.get" (0x20) 0x12b-0x12b.7 (1)
0x120|                                    01         |            .   |                    x: 1 (valid) 0x12c-0x12c.7 (1)
     |                                               |                |                  [2]{}: in 0x12d-0x12d.7 (1)
0x120|                                       65      |             e  |                    opcode: "f64.le" (0x65) 0x12d-0x12d.7 (1)
     |                                               |                |                  [3]{}: in 0x12e-0x12f.7 (2)
0x120|                                          20   |                |                    opcode: "local.get" (0x20) 0x12e-0x12e.7 (1)
0x120|                                             00|               .|                    x: 0 (valid) 0x12f-0x12f.7 (1)
     |                                               |                |                  [4]{}: in 0x130-0x131.7 (2)
0x130|20                                             |                |                    opcode: "local.get" (0x20) 0x130-0x130.7 (1)
0x130|   01                                          | .              |                    x: 1 (valid) 0x131-0x131.7 (1)
     |                                               |                |                  [5]{}: in 0x132-0x132.7 (1)
0x130|      64                                       |  d             |                    opcode: "f64.gt" (0x64) 0x132-0x132.7 (1)
     |                                               |                |                  [6]{}: in 0x133-0x133.7 (1)
0x130|         72                                    |   r            |                    opcode: "i32.or" (0x72) 0x133-0x133.7 (1)
     |                                               |                |                  [7]{}: in 0x134-0x134.7 (1)
0x130|            0b                                 |    .           |                    opcode: "end" (0xb) 0x134-0x134.7 (1)
     |                                               |                |            [6]{}: code 0x135-0x142.7 (14)
0x130|               0d                              |     .          |              size: 13 (valid) 0x135-0x135.7 (1)
     |                                               |                |              code{}: 0x136-0x142.7 (13)
     |                                               |                |                t{}: 0x136-0x136.7 (1)
0x130|                  00                           |      .         |                  n: 0 (valid) 0x136-0x136.7 (1)
     |                                               |                |                  x[0:0]: 0x137-NA (0)
     |                                               |                |                e[0:8]: 0x137-0x142.7 (12)
     |                                               |                |                  [0]{}: in 0x137-0x138.7 (2)
0x130|                     20                        |                |                    opcode: "local.get" (0x20) 0x137-0x137.7 (1)
0x130|                        00                     |        .       |                    x: 0 (valid) 0x138-0x138.7 (1)
     |                                               |                |                  [1]{}: in 0x139-0x13a.7 (2)
0x130|                           20                  |                |                    opcode: "local.get" (0x20) 0x139-0x139.7 (1)
0x130|                              01               |          .     |                    x: 1 (valid) 0x13a-0x13a.7 (1)
     |                                               |                |                  [2]{}: in 0x13b-0x13b.7 (1)
0x130|                                 64            |           d    |                    opcode: "f64.gt" (0x64) 0x13b-0x13b.7 (1)
     |                                               |                |                  [3]{}: in 0x13c-0x13d.7 (2)
0x130|                                    20         |                |                    opcode: "local.get" (0x20) 0x13c-0x13c.7 (1)
0x130|                                       00      |             .  |                    x: 0 (valid) 0x13d-0x13d.7 (1)
     |                                               |                |                  [4]{}: in 0x13e-0x13f.7 (2)
0x130|                                          20   |                |                    opcode: "local.get" (0x20) 0x13e-0x13e.7 (1)
0x130|                                             01|               .|                    x: 1 (valid) 0x13f-0x13f.7 (1)
     |                                               |                |                  [5]{}: in 0x140-0x140.7 (1)
0x140|65                                             |e               |                    opcode: "f64.le" (0x65) 0x140-0x140.7 (1)
     |                                               |                |                  [6]{}: in 0x141-0x141.7 (1)
0x140|   72                                          | r              |                    opcode: "i32.or" (0x72) 0x141-0x141.7 (1)
     |                                               |                |                  [7]{}: in 0x142-0x142.7 (1)
0x140|      0b                                       |  .             |                    opcode: "end" (0xb) 0x142-0x142.7 (1)
     |                                               |                |            [7]{}: code 0x143-0x150.7 (14)
0x140|         0d                                    |   .            |              size: 13 (valid) 0x143-0x143.7 (1)
     |                                               |                |              code{}: 0x144-0x150.7 (13)
     |                                               |                |                t{}: 0x144-0x144.7 (1)
0x140|            00                                 |    .           |                  n: 0 (valid) 0x144-0x144.7 (1)
     |                                               |                |                  x[0:0]: 0x145-NA (0)
     |                                               |                |                e[0:8]: 0x145-0x150.7 (12)
     |                                               |                |                  [0]{}: in 0x145-0x146.7 (2)
0x140|               20                              |                |                    opcode: "local.get" (0x20) 0x145-0x145.7 (1)
0x140|                  00                           |      .         |                    x: 0 (valid) 0x146-0x146.7 (1)
     |                                               |                |                  [1]{}: in 0x147-0x148.7 (2)
0x140|                     20                        |                |                    opcode: "local.get" (0x20) 0x147-0x147.7 (1)
0x140|                        01                     |        .       |                    x: 1 (valid) 0x148-0x148.7 (1)
     |                                               |                |                  [2]{}: in 0x149-0x149.7 (1)
0x140|                           66                  |         f      |                    opcode: "f64.ge" (0x66) 0x149-0x149.7 (1)
     |                                               |                |                  [3]{}: in 0x14a-0x14b.7 (2)
0x140|                              20               |                |                    opcode: "local.get" (0x20) 0x14a-0x14a.7 (1)
0x140|                                 00            |           .    |                    x: 0 (valid) 0x14b-0x14b.7 (1)
     |                                               |                |                  [4]{}: in 0x14c-0x14d.7 (2)
0x140|                                    20         |                |                    opcode: "local.get" (0x20) 0x14c-0x14c.7 (1)
0x140|                                       01      |             .  |                    x: 1 (valid) 0x14d-0x14d.7 (1)
     |                                               |                |                  [5]{}: in 0x14e-0x14e.7 (1)
0x140|                                          63   |              c |                    opcode: "f64.lt" (0x63) 0x14e-0x14e.7 (1)
     |                                               |                |                  [6]{}: in 0x14f-0x14f.7 (1)
0x140|                                             72|               r|                    opcode: "i32.or" (0x72) 0x14f-0x14f.7 (1)
     |                                               |                |                  [7]{}: in 0x150-0x150.7 (1)
0x150|0b|                                            |.|              |                    opcode: "end" (0xb) 0x150-0x150.7 (1)
