$ fq -d wasm dv float_exprs-66.wasm
    |00 01 02 03 04 05 06 07 08 09 0a 0b 0c 0d 0e 0f|0123456789abcdef|.{}: float_exprs-66.wasm (wasm) 0x0-0x5e (94)
0x00|00 61 73 6d                                    |.asm            |  magic: raw bits (valid) 0x0-0x4 (4)
0x00|            01 00 00 00                        |    ....        |  version: 1 0x4-0x8 (4)
    |                                               |                |  sections[0:4]: 0x8-0x5e (86)
    |                                               |                |    [0]{}: section 0x8-0x15 (13)
0x00|                        01                     |        .       |      id: "type_section" (1) 0x8-0x9 (1)
0x00|                           0b                  |         .      |      size: 11 (valid) 0x9-0xa (1)
    |                                               |                |      content{}: 0xa-0x15 (11)
    |                                               |                |        ft{}: 0xa-0x15 (11)
0x00|                              02               |          .     |          n: 2 (valid) 0xa-0xb (1)
    |                                               |                |          x[0:2]: 0xb-0x15 (10)
    |                                               |                |            [0]{}: ft 0xb-0x10 (5)
0x00|                                 60            |           `    |              tag: 0x60 (valid) 0xb-0xc (1)
    |                                               |                |              rt1{}: 0xc-0xe (2)
0x00|                                    01         |            .   |                n: 1 (valid) 0xc-0xd (1)
    |                                               |                |                x[0:1]: 0xd-0xe (1)
0x00|                                       7d      |             }  |                  [0]: "f32" (0x7d) t 0xd-0xe (1)
    |                                               |                |              rt2{}: 0xe-0x10 (2)
0x00|                                          01   |              . |                n: 1 (valid) 0xe-0xf (1)
    |                                               |                |                x[0:1]: 0xf-0x10 (1)
0x00|                                             7d|               }|                  [0]: "f32" (0x7d) t 0xf-0x10 (1)
    |                                               |                |            [1]{}: ft 0x10-0x15 (5)
0x10|60                                             |`               |              tag: 0x60 (valid) 0x10-0x11 (1)
    |                                               |                |              rt1{}: 0x11-0x13 (2)
0x10|   01                                          | .              |                n: 1 (valid) 0x11-0x12 (1)
    |                                               |                |                x[0:1]: 0x12-0x13 (1)
0x10|      7c                                       |  |             |                  [0]: "f64" (0x7c) t 0x12-0x13 (1)
    |                                               |                |              rt2{}: 0x13-0x15 (2)
0x10|         01                                    |   .            |                n: 1 (valid) 0x13-0x14 (1)
    |                                               |                |                x[0:1]: 0x14-0x15 (1)
0x10|            7c                                 |    |           |                  [0]: "f64" (0x7c) t 0x14-0x15 (1)
    |                                               |                |    [1]{}: section 0x15-0x1a (5)
0x10|               03                              |     .          |      id: "function_section" (3) 0x15-0x16 (1)
0x10|                  03                           |      .         |      size: 3 (valid) 0x16-0x17 (1)
    |                                               |                |      content{}: 0x17-0x1a (3)
    |                                               |                |        x{}: 0x17-0x1a (3)
0x10|                     02                        |       .        |          n: 2 (valid) 0x17-0x18 (1)
    |                                               |                |          x[0:2]: 0x18-0x1a (2)
0x10|                        00                     |        .       |            [0]: 0 x (valid) 0x18-0x19 (1)
0x10|                           01                  |         .      |            [1]: 1 x (valid) 0x19-0x1a (1)
    |                                               |                |    [2]{}: section 0x1a-0x49 (47)
0x10|                              07               |          .     |      id: "export_section" (7) 0x1a-0x1b (1)
0x10|                                 2d            |           -    |      size: 45 (valid) 0x1b-0x1c (1)
    |                                               |                |      content{}: 0x1c-0x49 (45)
    |                                               |                |        ex{}: 0x1c-0x49 (45)
0x10|                                    02         |            .   |          n: 2 (valid) 0x1c-0x1d (1)
    |                                               |                |          x[0:2]: 0x1d-0x49 (44)
    |                                               |                |            [0]{}: ex 0x1d-0x33 (22)
    |                                               |                |              nm{}: 0x1d-0x31 (20)
0x10|                                       13      |             .  |                n: 19 (valid) 0x1d-0x1e (1)
0x10|                                          66 33|              f3|                b: "f32.no_fold_add_neg" 0x1e-0x31 (19)
0x20|32 2e 6e 6f 5f 66 6f 6c 64 5f 61 64 64 5f 6e 65|2.no_fold_add_ne|
0x30|67                                             |g               |
    |                                               |                |              d{}: 0x31-0x33 (2)
0x30|   00                                          | .              |                tag: "funcidx" (0x0) 0x31-0x32 (1)
0x30|      00                                       |  .             |                x: 0 (valid) 0x32-0x33 (1)
    |                                               |                |            [1]{}: ex 0x33-0x49 (22)
    |                                               |                |              nm{}: 0x33-0x47 (20)
0x30|         13                                    |   .            |                n: 19 (valid) 0x33-0x34 (1)
0x30|            66 36 34 2e 6e 6f 5f 66 6f 6c 64 5f|    f64.no_fold_|                b: "f64.no_fold_add_neg" 0x34-0x47 (19)
0x40|61 64 64 5f 6e 65 67                           |add_neg         |
    |                                               |                |              d{}: 0x47-0x49 (2)
0x40|                     00                        |       .        |                tag: "funcidx" (0x0) 0x47-0x48 (1)
0x40|                        01                     |        .       |                x: 1 (valid) 0x48-0x49 (1)
    |                                               |                |    [3]{}: section 0x49-0x5e (21)
0x40|                           0a                  |         .      |      id: "code_section" (10) 0x49-0x4a (1)
0x40|                              13               |          .     |      size: 19 (valid) 0x4a-0x4b (1)
    |                                               |                |      content{}: 0x4b-0x5e (19)
    |                                               |                |        code{}: 0x4b-0x5e (19)
0x40|                                 02            |           .    |          n: 2 (valid) 0x4b-0x4c (1)
    |                                               |                |          x[0:2]: 0x4c-0x5e (18)
    |                                               |                |            [0]{}: code 0x4c-0x55 (9)
0x40|                                    08         |            .   |              size: 8 (valid) 0x4c-0x4d (1)
    |                                               |                |              code{}: 0x4d-0x55 (8)
    |                                               |                |                t{}: 0x4d-0x4e (1)
0x40|                                       00      |             .  |                  n: 0 (valid) 0x4d-0x4e (1)
    |                                               |                |                  x[0:0]: 0x4e-0x4e (0)
    |                                               |                |                e[0:5]: 0x4e-0x55 (7)
    |                                               |                |                  [0]{}: in 0x4e-0x50 (2)
0x40|                                          20   |                |                    opcode: "local.get" (0x20) 0x4e-0x4f (1)
0x40|                                             00|               .|                    x: 0 (valid) 0x4f-0x50 (1)
    |                                               |                |                  [1]{}: in 0x50-0x51 (1)
0x50|8c                                             |.               |                    opcode: "f32.neg" (0x8c) 0x50-0x51 (1)
    |                                               |                |                  [2]{}: in 0x51-0x53 (2)
0x50|   20                                          |                |                    opcode: "local.get" (0x20) 0x51-0x52 (1)
0x50|      00                                       |  .             |                    x: 0 (valid) 0x52-0x53 (1)
    |                                               |                |                  [3]{}: in 0x53-0x54 (1)
0x50|         92                                    |   .            |                    opcode: "f32.add" (0x92) 0x53-0x54 (1)
    |                                               |                |                  [4]{}: in 0x54-0x55 (1)
0x50|            0b                                 |    .           |                    opcode: "end" (0xb) 0x54-0x55 (1)
    |                                               |                |            [1]{}: code 0x55-0x5e (9)
0x50|               08                              |     .          |              size: 8 (valid) 0x55-0x56 (1)
    |                                               |                |              code{}: 0x56-0x5e (8)
    |                                               |                |                t{}: 0x56-0x57 (1)
0x50|                  00                           |      .         |                  n: 0 (valid) 0x56-0x57 (1)
    |                                               |                |                  x[0:0]: 0x57-0x57 (0)
    |                                               |                |                e[0:5]: 0x57-0x5e (7)
    |                                               |                |                  [0]{}: in 0x57-0x59 (2)
0x50|                     20                        |                |                    opcode: "local.get" (0x20) 0x57-0x58 (1)
0x50|                        00                     |        .       |                    x: 0 (valid) 0x58-0x59 (1)
    |                                               |                |                  [1]{}: in 0x59-0x5a (1)
0x50|                           9a                  |         .      |                    opcode: "f64.neg" (0x9a) 0x59-0x5a (1)
    |                                               |                |                  [2]{}: in 0x5a-0x5c (2)
0x50|                              20               |                |                    opcode: "local.get" (0x20) 0x5a-0x5b (1)
0x50|                                 00            |           .    |                    x: 0 (valid) 0x5b-0x5c (1)
    |                                               |                |                  [3]{}: in 0x5c-0x5d (1)
0x50|                                    a0         |            .   |                    opcode: "f64.add" (0xa0) 0x5c-0x5d (1)
    |                                               |                |                  [4]{}: in 0x5d-0x5e (1)
0x50|                                       0b|     |             .| |                    opcode: "end" (0xb) 0x5d-0x5e (1)
