$ fq -d wasm dv float_exprs-0.wasm
    |00 01 02 03 04 05 06 07 08 09 0a 0b 0c 0d 0e 0f|0123456789abcdef|.{}: float_exprs-0.wasm (wasm) 0x0-0x3c (60)
0x00|00 61 73 6d                                    |.asm            |  magic: raw bits (valid) 0x0-0x4 (4)
0x00|            01 00 00 00                        |    ....        |  version: 1 0x4-0x8 (4)
    |                                               |                |  sections[0:4]: 0x8-0x3c (52)
    |                                               |                |    [0]{}: section 0x8-0x12 (10)
0x00|                        01                     |        .       |      id: "type_section" (1) 0x8-0x9 (1)
0x00|                           08                  |         .      |      size: 8 (valid) 0x9-0xa (1)
    |                                               |                |      content{}: 0xa-0x12 (8)
    |                                               |                |        ft{}: 0xa-0x12 (8)
0x00|                              01               |          .     |          n: 1 (valid) 0xa-0xb (1)
    |                                               |                |          x[0:1]: 0xb-0x12 (7)
    |                                               |                |            [0]{}: ft 0xb-0x12 (7)
0x00|                                 60            |           `    |              tag: 0x60 (valid) 0xb-0xc (1)
    |                                               |                |              rt1{}: 0xc-0x10 (4)
0x00|                                    03         |            .   |                n: 3 (valid) 0xc-0xd (1)
    |                                               |                |                x[0:3]: 0xd-0x10 (3)
0x00|                                       7c      |             |  |                  [0]: "f64" (0x7c) t 0xd-0xe (1)
0x00|                                          7c   |              | |                  [1]: "f64" (0x7c) t 0xe-0xf (1)
0x00|                                             7c|               ||                  [2]: "f64" (0x7c) t 0xf-0x10 (1)
    |                                               |                |              rt2{}: 0x10-0x12 (2)
0x10|01                                             |.               |                n: 1 (valid) 0x10-0x11 (1)
    |                                               |                |                x[0:1]: 0x11-0x12 (1)
0x10|   7c                                          | |              |                  [0]: "f64" (0x7c) t 0x11-0x12 (1)
    |                                               |                |    [1]{}: section 0x12-0x16 (4)
0x10|      03                                       |  .             |      id: "function_section" (3) 0x12-0x13 (1)
0x10|         02                                    |   .            |      size: 2 (valid) 0x13-0x14 (1)
    |                                               |                |      content{}: 0x14-0x16 (2)
    |                                               |                |        x{}: 0x14-0x16 (2)
0x10|            01                                 |    .           |          n: 1 (valid) 0x14-0x15 (1)
    |                                               |                |          x[0:1]: 0x15-0x16 (1)
0x10|               00                              |     .          |            [0]: 0 x (valid) 0x15-0x16 (1)
    |                                               |                |    [2]{}: section 0x16-0x2e (24)
0x10|                  07                           |      .         |      id: "export_section" (7) 0x16-0x17 (1)
0x10|                     16                        |       .        |      size: 22 (valid) 0x17-0x18 (1)
    |                                               |                |      content{}: 0x18-0x2e (22)
    |                                               |                |        ex{}: 0x18-0x2e (22)
0x10|                        01                     |        .       |          n: 1 (valid) 0x18-0x19 (1)
    |                                               |                |          x[0:1]: 0x19-0x2e (21)
    |                                               |                |            [0]{}: ex 0x19-0x2e (21)
    |                                               |                |              nm{}: 0x19-0x2c (19)
0x10|                           12                  |         .      |                n: 18 (valid) 0x19-0x1a (1)
0x10|                              66 36 34 2e 6e 6f|          f64.no|                b: "f64.no_contraction" 0x1a-0x2c (18)
0x20|5f 63 6f 6e 74 72 61 63 74 69 6f 6e            |_contraction    |
    |                                               |                |              d{}: 0x2c-0x2e (2)
0x20|                                    00         |            .   |                tag: "funcidx" (0x0) 0x2c-0x2d (1)
0x20|                                       00      |             .  |                x: 0 (valid) 0x2d-0x2e (1)
    |                                               |                |    [3]{}: section 0x2e-0x3c (14)
0x20|                                          0a   |              . |      id: "code_section" (10) 0x2e-0x2f (1)
0x20|                                             0c|               .|      size: 12 (valid) 0x2f-0x30 (1)
    |                                               |                |      content{}: 0x30-0x3c (12)
    |                                               |                |        code{}: 0x30-0x3c (12)
0x30|01                                             |.               |          n: 1 (valid) 0x30-0x31 (1)
    |                                               |                |          x[0:1]: 0x31-0x3c (11)
    |                                               |                |            [0]{}: code 0x31-0x3c (11)
0x30|   0a                                          | .              |              size: 10 (valid) 0x31-0x32 (1)
    |                                               |                |              code{}: 0x32-0x3c (10)
    |                                               |                |                t{}: 0x32-0x33 (1)
0x30|      00                                       |  .             |                  n: 0 (valid) 0x32-0x33 (1)
    |                                               |                |                  x[0:0]: 0x33-0x33 (0)
    |                                               |                |                e[0:6]: 0x33-0x3c (9)
    |                                               |                |                  [0]{}: in 0x33-0x35 (2)
0x30|         20                                    |                |                    opcode: "local.get" (0x20) 0x33-0x34 (1)
0x30|            00                                 |    .           |                    x: 0 (valid) 0x34-0x35 (1)
    |                                               |                |                  [1]{}: in 0x35-0x37 (2)
0x30|               20                              |                |                    opcode: "local.get" (0x20) 0x35-0x36 (1)
0x30|                  01                           |      .         |                    x: 1 (valid) 0x36-0x37 (1)
    |                                               |                |                  [2]{}: in 0x37-0x38 (1)
0x30|                     a2                        |       .        |                    opcode: "f64.mul" (0xa2) 0x37-0x38 (1)
    |                                               |                |                  [3]{}: in 0x38-0x3a (2)
0x30|                        20                     |                |                    opcode: "local.get" (0x20) 0x38-0x39 (1)
0x30|                           02                  |         .      |                    x: 2 (valid) 0x39-0x3a (1)
    |                                               |                |                  [4]{}: in 0x3a-0x3b (1)
0x30|                              a0               |          .     |                    opcode: "f64.add" (0xa0) 0x3a-0x3b (1)
    |                                               |                |                  [5]{}: in 0x3b-0x3c (1)
0x30|                                 0b|           |           .|   |                    opcode: "end" (0xb) 0x3b-0x3c (1)
