$ fq -d wasm dv float_exprs-58.wasm
    |00 01 02 03 04 05 06 07 08 09 0a 0b 0c 0d 0e 0f|0123456789abcdef|.{}: float_exprs-58.wasm (wasm) 0x0-0x78 (120)
0x00|00 61 73 6d                                    |.asm            |  magic: raw bits (valid) 0x0-0x4 (4)
0x00|            01 00 00 00                        |    ....        |  version: 1 0x4-0x8 (4)
    |                                               |                |  sections[0:4]: 0x8-0x78 (112)
    |                                               |                |    [0]{}: section 0x8-0x17 (15)
0x00|                        01                     |        .       |      id: "type_section" (1) 0x8-0x9 (1)
0x00|                           0d                  |         .      |      size: 13 (valid) 0x9-0xa (1)
    |                                               |                |      content{}: 0xa-0x17 (13)
    |                                               |                |        ft{}: 0xa-0x17 (13)
0x00|                              02               |          .     |          n: 2 (valid) 0xa-0xb (1)
    |                                               |                |          x[0:2]: 0xb-0x17 (12)
    |                                               |                |            [0]{}: ft 0xb-0x11 (6)
0x00|                                 60            |           `    |              tag: 0x60 (valid) 0xb-0xc (1)
    |                                               |                |              rt1{}: 0xc-0xf (3)
0x00|                                    02         |            .   |                n: 2 (valid) 0xc-0xd (1)
    |                                               |                |                x[0:2]: 0xd-0xf (2)
0x00|                                       7d      |             }  |                  [0]: "f32" (0x7d) t 0xd-0xe (1)
0x00|                                          7d   |              } |                  [1]: "f32" (0x7d) t 0xe-0xf (1)
    |                                               |                |              rt2{}: 0xf-0x11 (2)
0x00|                                             01|               .|                n: 1 (valid) 0xf-0x10 (1)
    |                                               |                |                x[0:1]: 0x10-0x11 (1)
0x10|7d                                             |}               |                  [0]: "f32" (0x7d) t 0x10-0x11 (1)
    |                                               |                |            [1]{}: ft 0x11-0x17 (6)
0x10|   60                                          | `              |              tag: 0x60 (valid) 0x11-0x12 (1)
    |                                               |                |              rt1{}: 0x12-0x15 (3)
0x10|      02                                       |  .             |                n: 2 (valid) 0x12-0x13 (1)
    |                                               |                |                x[0:2]: 0x13-0x15 (2)
0x10|         7c                                    |   |            |                  [0]: "f64" (0x7c) t 0x13-0x14 (1)
0x10|            7c                                 |    |           |                  [1]: "f64" (0x7c) t 0x14-0x15 (1)
    |                                               |                |              rt2{}: 0x15-0x17 (2)
0x10|               01                              |     .          |                n: 1 (valid) 0x15-0x16 (1)
    |                                               |                |                x[0:1]: 0x16-0x17 (1)
0x10|                  7c                           |      |         |                  [0]: "f64" (0x7c) t 0x16-0x17 (1)
    |                                               |                |    [1]{}: section 0x17-0x1c (5)
0x10|                     03                        |       .        |      id: "function_section" (3) 0x17-0x18 (1)
0x10|                        03                     |        .       |      size: 3 (valid) 0x18-0x19 (1)
    |                                               |                |      content{}: 0x19-0x1c (3)
    |                                               |                |        x{}: 0x19-0x1c (3)
0x10|                           02                  |         .      |          n: 2 (valid) 0x19-0x1a (1)
    |                                               |                |          x[0:2]: 0x1a-0x1c (2)
0x10|                              00               |          .     |            [0]: 0 x (valid) 0x1a-0x1b (1)
0x10|                                 01            |           .    |            [1]: 1 x (valid) 0x1b-0x1c (1)
    |                                               |                |    [2]{}: section 0x1c-0x59 (61)
0x10|                                    07         |            .   |      id: "export_section" (7) 0x1c-0x1d (1)
0x10|                                       3b      |             ;  |      size: 59 (valid) 0x1d-0x1e (1)
    |                                               |                |      content{}: 0x1e-0x59 (59)
    |                                               |                |        ex{}: 0x1e-0x59 (59)
0x10|                                          02   |              . |          n: 2 (valid) 0x1e-0x1f (1)
    |                                               |                |          x[0:2]: 0x1f-0x59 (58)
    |                                               |                |            [0]{}: ex 0x1f-0x3c (29)
    |                                               |                |              nm{}: 0x1f-0x3a (27)
0x10|                                             1a|               .|                n: 26 (valid) 0x1f-0x20 (1)
0x20|66 33 32 2e 6e 6f 5f 61 6c 67 65 62 72 61 69 63|f32.no_algebraic|                b: "f32.no_algebraic_factoring" 0x20-0x3a (26)
0x30|5f 66 61 63 74 6f 72 69 6e 67                  |_factoring      |
    |                                               |                |              d{}: 0x3a-0x3c (2)
0x30|                              00               |          .     |                tag: "funcidx" (0x0) 0x3a-0x3b (1)
0x30|                                 00            |           .    |                x: 0 (valid) 0x3b-0x3c (1)
    |                                               |                |            [1]{}: ex 0x3c-0x59 (29)
    |                                               |                |              nm{}: 0x3c-0x57 (27)
0x30|                                    1a         |            .   |                n: 26 (valid) 0x3c-0x3d (1)
0x30|                                       66 36 34|             f64|                b: "f64.no_algebraic_factoring" 0x3d-0x57 (26)
0x40|2e 6e 6f 5f 61 6c 67 65 62 72 61 69 63 5f 66 61|.no_algebraic_fa|
0x50|63 74 6f 72 69 6e 67                           |ctoring         |
    |                                               |                |              d{}: 0x57-0x59 (2)
0x50|                     00                        |       .        |                tag: "funcidx" (0x0) 0x57-0x58 (1)
0x50|                        01                     |        .       |                x: 1 (valid) 0x58-0x59 (1)
    |                                               |                |    [3]{}: section 0x59-0x78 (31)
0x50|                           0a                  |         .      |      id: "code_section" (10) 0x59-0x5a (1)
0x50|                              1d               |          .     |      size: 29 (valid) 0x5a-0x5b (1)
    |                                               |                |      content{}: 0x5b-0x78 (29)
    |                                               |                |        code{}: 0x5b-0x78 (29)
0x50|                                 02            |           .    |          n: 2 (valid) 0x5b-0x5c (1)
    |                                               |                |          x[0:2]: 0x5c-0x78 (28)
    |                                               |                |            [0]{}: code 0x5c-0x6a (14)
0x50|                                    0d         |            .   |              size: 13 (valid) 0x5c-0x5d (1)
    |                                               |                |              code{}: 0x5d-0x6a (13)
    |                                               |                |                t{}: 0x5d-0x5e (1)
0x50|                                       00      |             .  |                  n: 0 (valid) 0x5d-0x5e (1)
    |                                               |                |                  x[0:0]: 0x5e-0x5e (0)
    |                                               |                |                e[0:8]: 0x5e-0x6a (12)
    |                                               |                |                  [0]{}: in 0x5e-0x60 (2)
0x50|                                          20   |                |                    opcode: "local.get" (0x20) 0x5e-0x5f (1)
0x50|                                             00|               .|                    x: 0 (valid) 0x5f-0x60 (1)
    |                                               |                |                  [1]{}: in 0x60-0x62 (2)
0x60|20                                             |                |                    opcode: "local.get" (0x20) 0x60-0x61 (1)
0x60|   00                                          | .              |                    x: 0 (valid) 0x61-0x62 (1)
    |                                               |                |                  [2]{}: in 0x62-0x63 (1)
0x60|      94                                       |  .             |                    opcode: "f32.mul" (0x94) 0x62-0x63 (1)
    |                                               |                |                  [3]{}: in 0x63-0x65 (2)
0x60|         20                                    |                |                    opcode: "local.get" (0x20) 0x63-0x64 (1)
0x60|            01                                 |    .           |                    x: 1 (valid) 0x64-0x65 (1)
    |                                               |                |                  [4]{}: in 0x65-0x67 (2)
0x60|               20                              |                |                    opcode: "local.get" (0x20) 0x65-0x66 (1)
0x60|                  01                           |      .         |                    x: 1 (valid) 0x66-0x67 (1)
    |                                               |                |                  [5]{}: in 0x67-0x68 (1)
0x60|                     94                        |       .        |                    opcode: "f32.mul" (0x94) 0x67-0x68 (1)
    |                                               |                |                  [6]{}: in 0x68-0x69 (1)
0x60|                        93                     |        .       |                    opcode: "f32.sub" (0x93) 0x68-0x69 (1)
    |                                               |                |                  [7]{}: in 0x69-0x6a (1)
0x60|                           0b                  |         .      |                    opcode: "end" (0xb) 0x69-0x6a (1)
    |                                               |                |            [1]{}: code 0x6a-0x78 (14)
0x60|                              0d               |          .     |              size: 13 (valid) 0x6a-0x6b (1)
    |                                               |                |              code{}: 0x6b-0x78 (13)
    |                                               |                |                t{}: 0x6b-0x6c (1)
0x60|                                 00            |           .    |                  n: 0 (valid) 0x6b-0x6c (1)
    |                                               |                |                  x[0:0]: 0x6c-0x6c (0)
    |                                               |                |                e[0:8]: 0x6c-0x78 (12)
    |                                               |                |                  [0]{}: in 0x6c-0x6e (2)
0x60|                                    20         |                |                    opcode: "local.get" (0x20) 0x6c-0x6d (1)
0x60|                                       00      |             .  |                    x: 0 (valid) 0x6d-0x6e (1)
    |                                               |                |                  [1]{}: in 0x6e-0x70 (2)
0x60|                                          20   |                |                    opcode: "local.get" (0x20) 0x6e-0x6f (1)
0x60|                                             00|               .|                    x: 0 (valid) 0x6f-0x70 (1)
    |                                               |                |                  [2]{}: in 0x70-0x71 (1)
0x70|a2                                             |.               |                    opcode: "f64.mul" (0xa2) 0x70-0x71 (1)
    |                                               |                |                  [3]{}: in 0x71-0x73 (2)
0x70|   20                                          |                |                    opcode: "local.get" (0x20) 0x71-0x72 (1)
0x70|      01                                       |  .             |                    x: 1 (valid) 0x72-0x73 (1)
    |                                               |                |                  [4]{}: in 0x73-0x75 (2)
0x70|         20                                    |                |                    opcode: "local.get" (0x20) 0x73-0x74 (1)
0x70|            01                                 |    .           |                    x: 1 (valid) 0x74-0x75 (1)
    |                                               |                |                  [5]{}: in 0x75-0x76 (1)
0x70|               a2                              |     .          |                    opcode: "f64.mul" (0xa2) 0x75-0x76 (1)
    |                                               |                |                  [6]{}: in 0x76-0x77 (1)
0x70|                  a1                           |      .         |                    opcode: "f64.sub" (0xa1) 0x76-0x77 (1)
    |                                               |                |                  [7]{}: in 0x77-0x78 (1)
0x70|                     0b|                       |       .|       |                    opcode: "end" (0xb) 0x77-0x78 (1)
