$ fq -d wasm dv float_exprs-60.wasm
     |00 01 02 03 04 05 06 07 08 09 0a 0b 0c 0d 0e 0f|0123456789abcdef|.{}: float_exprs-60.wasm (wasm) 0x0-0x11a.7 (283)
0x000|00 61 73 6d                                    |.asm            |  magic: raw bits (valid) 0x0-0x3.7 (4)
0x000|            01 00 00 00                        |    ....        |  version: 1 0x4-0x7.7 (4)
     |                                               |                |  sections[0:6]: 0x8-0x11a.7 (275)
     |                                               |                |    [0]{}: section 0x8-0x15.7 (14)
0x000|                        01                     |        .       |      id: "type section" (1) 0x8-0x8.7 (1)
0x000|                           0c                  |         .      |      size: 12 0x9-0x9.7 (1)
     |                                               |                |      content{}: 0xa-0x15.7 (12)
     |                                               |                |        ft{}: 0xa-0x15.7 (12)
0x000|                              02               |          .     |          n: 2 0xa-0xa.7 (1)
     |                                               |                |          x[0:2]: 0xb-0x15.7 (11)
     |                                               |                |            [0]{}: ft 0xb-0x10.7 (6)
0x000|                                 60            |           `    |              tag: 0x60 (valid) 0xb-0xb.7 (1)
     |                                               |                |              rt1{}: 0xc-0xf.7 (4)
0x000|                                    03         |            .   |                n: 3 0xc-0xc.7 (1)
     |                                               |                |                x[0:3]: 0xd-0xf.7 (3)
0x000|                                       7f      |             .  |                  [0]: "i32" (0x7f) t 0xd-0xd.7 (1)
0x000|                                          7f   |              . |                  [1]: "i32" (0x7f) t 0xe-0xe.7 (1)
0x000|                                             7f|               .|                  [2]: "i32" (0x7f) t 0xf-0xf.7 (1)
     |                                               |                |              rt2{}: 0x10-0x10.7 (1)
0x010|00                                             |.               |                n: 0 0x10-0x10.7 (1)
     |                                               |                |                x[0:0]: 0x11-NA (0)
     |                                               |                |            [1]{}: ft 0x11-0x15.7 (5)
0x010|   60                                          | `              |              tag: 0x60 (valid) 0x11-0x11.7 (1)
     |                                               |                |              rt1{}: 0x12-0x13.7 (2)
0x010|      01                                       |  .             |                n: 1 0x12-0x12.7 (1)
     |                                               |                |                x[0:1]: 0x13-0x13.7 (1)
0x010|         7f                                    |   .            |                  [0]: "i32" (0x7f) t 0x13-0x13.7 (1)
     |                                               |                |              rt2{}: 0x14-0x15.7 (2)
0x010|            01                                 |    .           |                n: 1 0x14-0x14.7 (1)
     |                                               |                |                x[0:1]: 0x15-0x15.7 (1)
0x010|               7c                              |     |          |                  [0]: "f64" (0x7c) t 0x15-0x15.7 (1)
     |                                               |                |    [1]{}: section 0x16-0x1a.7 (5)
0x010|                  03                           |      .         |      id: "function section" (3) 0x16-0x16.7 (1)
0x010|                     03                        |       .        |      size: 3 0x17-0x17.7 (1)
     |                                               |                |      content{}: 0x18-0x1a.7 (3)
     |                                               |                |        x{}: 0x18-0x1a.7 (3)
0x010|                        02                     |        .       |          n: 2 0x18-0x18.7 (1)
     |                                               |                |          x[0:2]: 0x19-0x1a.7 (2)
0x010|                           00                  |         .      |            [0]: 0 x 0x19-0x19.7 (1)
0x010|                              01               |          .     |            [1]: 1 x 0x1a-0x1a.7 (1)
     |                                               |                |    [2]{}: section 0x1b-0x20.7 (6)
0x010|                                 05            |           .    |      id: "memory section" (5) 0x1b-0x1b.7 (1)
0x010|                                    04         |            .   |      size: 4 0x1c-0x1c.7 (1)
     |                                               |                |      content{}: 0x1d-0x20.7 (4)
     |                                               |                |        mem{}: 0x1d-0x20.7 (4)
0x010|                                       01      |             .  |          n: 1 0x1d-0x1d.7 (1)
     |                                               |                |          x[0:1]: 0x1e-0x20.7 (3)
     |                                               |                |            [0]{}: mem 0x1e-0x20.7 (3)
     |                                               |                |              lim{}: 0x1e-0x20.7 (3)
0x010|                                          01   |              . |                tag: 0x1 0x1e-0x1e.7 (1)
0x010|                                             01|               .|                n: 1 0x1f-0x1f.7 (1)
0x020|01                                             |.               |                m: 1 0x20-0x20.7 (1)
     |                                               |                |    [3]{}: section 0x21-0x42.7 (34)
0x020|   07                                          | .              |      id: "export section" (7) 0x21-0x21.7 (1)
0x020|      20                                       |                |      size: 32 0x22-0x22.7 (1)
     |                                               |                |      content{}: 0x23-0x42.7 (32)
     |                                               |                |        ex{}: 0x23-0x42.7 (32)
0x020|         02                                    |   .            |          n: 2 0x23-0x23.7 (1)
     |                                               |                |          x[0:2]: 0x24-0x42.7 (31)
     |                                               |                |            [0]{}: ex 0x24-0x37.7 (20)
     |                                               |                |              nm{}: 0x24-0x35.7 (18)
0x020|            11                                 |    .           |                n: 17 0x24-0x24.7 (1)
0x020|               66 36 34 2e 73 69 6d 70 6c 65 5f|     f64.simple_|                b: "f64.simple_x4_sum" 0x25-0x35.7 (17)
0x030|78 34 5f 73 75 6d                              |x4_sum          |
     |                                               |                |              d{}: 0x36-0x37.7 (2)
0x030|                  00                           |      .         |                tag: "funcidx" (0x0) 0x36-0x36.7 (1)
0x030|                     00                        |       .        |                x: 0 0x37-0x37.7 (1)
     |                                               |                |            [1]{}: ex 0x38-0x42.7 (11)
     |                                               |                |              nm{}: 0x38-0x40.7 (9)
0x030|                        08                     |        .       |                n: 8 0x38-0x38.7 (1)
0x030|                           66 36 34 2e 6c 6f 61|         f64.loa|                b: "f64.load" 0x39-0x40.7 (8)
0x040|64                                             |d               |
     |                                               |                |              d{}: 0x41-0x42.7 (2)
0x040|   00                                          | .              |                tag: "funcidx" (0x0) 0x41-0x41.7 (1)
0x040|      01                                       |  .             |                x: 1 0x42-0x42.7 (1)
     |                                               |                |    [4]{}: section 0x43-0xb2.7 (112)
0x040|         0a                                    |   .            |      id: "code section" (10) 0x43-0x43.7 (1)
0x040|            6e                                 |    n           |      size: 110 0x44-0x44.7 (1)
     |                                               |                |      content{}: 0x45-0xb2.7 (110)
     |                                               |                |        code{}: 0x45-0xb2.7 (110)
0x040|               02                              |     .          |          n: 2 0x45-0x45.7 (1)
     |                                               |                |          x[0:2]: 0x46-0xb2.7 (109)
     |                                               |                |            [0]{}: code 0x46-0xaa.7 (101)
0x040|                  64                           |      d         |              size: 100 0x46-0x46.7 (1)
     |                                               |                |              code{}: 0x47-0xaa.7 (100)
     |                                               |                |                t{}: 0x47-0x49.7 (3)
0x040|                     01                        |       .        |                  n: 1 0x47-0x47.7 (1)
     |                                               |                |                  x[0:1]: 0x48-0x49.7 (2)
     |                                               |                |                    [0]{}: t 0x48-0x49.7 (2)
0x040|                        08                     |        .       |                      n: 8 0x48-0x48.7 (1)
0x040|                           7c                  |         |      |                      t: "f64" (0x7c) 0x49-0x49.7 (1)
     |                                               |                |                e[0:45]: 0x4a-0xaa.7 (97)
     |                                               |                |                  [0]{}: in 0x4a-0x4b.7 (2)
0x040|                              20               |                |                    local.get: 0x20 (valid) 0x4a-0x4a.7 (1)
0x040|                                 00            |           .    |                    x: 0 0x4b-0x4b.7 (1)
     |                                               |                |                  [1]{}: in 0x4c-0x4e.7 (3)
0x040|                                    2b         |            +   |                    f64.load: 0x2b (valid) 0x4c-0x4c.7 (1)
     |                                               |                |                    m{}: 0x4d-0x4e.7 (2)
0x040|                                       03      |             .  |                      a: 3 0x4d-0x4d.7 (1)
0x040|                                          00   |              . |                      o: 0 0x4e-0x4e.7 (1)
     |                                               |                |                  [2]{}: in 0x4f-0x50.7 (2)
0x040|                                             21|               !|                    local.set: 0x21 (valid) 0x4f-0x4f.7 (1)
0x050|03                                             |.               |                    x: 3 0x50-0x50.7 (1)
     |                                               |                |                  [3]{}: in 0x51-0x52.7 (2)
0x050|   20                                          |                |                    local.get: 0x20 (valid) 0x51-0x51.7 (1)
0x050|      00                                       |  .             |                    x: 0 0x52-0x52.7 (1)
     |                                               |                |                  [4]{}: in 0x53-0x55.7 (3)
0x050|         2b                                    |   +            |                    f64.load: 0x2b (valid) 0x53-0x53.7 (1)
     |                                               |                |                    m{}: 0x54-0x55.7 (2)
0x050|            03                                 |    .           |                      a: 3 0x54-0x54.7 (1)
0x050|               08                              |     .          |                      o: 8 0x55-0x55.7 (1)
     |                                               |                |                  [5]{}: in 0x56-0x57.7 (2)
0x050|                  21                           |      !         |                    local.set: 0x21 (valid) 0x56-0x56.7 (1)
0x050|                     04                        |       .        |                    x: 4 0x57-0x57.7 (1)
     |                                               |                |                  [6]{}: in 0x58-0x59.7 (2)
0x050|                        20                     |                |                    local.get: 0x20 (valid) 0x58-0x58.7 (1)
0x050|                           00                  |         .      |                    x: 0 0x59-0x59.7 (1)
     |                                               |                |                  [7]{}: in 0x5a-0x5c.7 (3)
0x050|                              2b               |          +     |                    f64.load: 0x2b (valid) 0x5a-0x5a.7 (1)
     |                                               |                |                    m{}: 0x5b-0x5c.7 (2)
0x050|                                 03            |           .    |                      a: 3 0x5b-0x5b.7 (1)
0x050|                                    10         |            .   |                      o: 16 0x5c-0x5c.7 (1)
     |                                               |                |                  [8]{}: in 0x5d-0x5e.7 (2)
0x050|                                       21      |             !  |                    local.set: 0x21 (valid) 0x5d-0x5d.7 (1)
0x050|                                          05   |              . |                    x: 5 0x5e-0x5e.7 (1)
     |                                               |                |                  [9]{}: in 0x5f-0x60.7 (2)
0x050|                                             20|                |                    local.get: 0x20 (valid) 0x5f-0x5f.7 (1)
0x060|00                                             |.               |                    x: 0 0x60-0x60.7 (1)
     |                                               |                |                  [10]{}: in 0x61-0x63.7 (3)
0x060|   2b                                          | +              |                    f64.load: 0x2b (valid) 0x61-0x61.7 (1)
     |                                               |                |                    m{}: 0x62-0x63.7 (2)
0x060|      03                                       |  .             |                      a: 3 0x62-0x62.7 (1)
0x060|         18                                    |   .            |                      o: 24 0x63-0x63.7 (1)
     |                                               |                |                  [11]{}: in 0x64-0x65.7 (2)
0x060|            21                                 |    !           |                    local.set: 0x21 (valid) 0x64-0x64.7 (1)
0x060|               06                              |     .          |                    x: 6 0x65-0x65.7 (1)
     |                                               |                |                  [12]{}: in 0x66-0x67.7 (2)
0x060|                  20                           |                |                    local.get: 0x20 (valid) 0x66-0x66.7 (1)
0x060|                     01                        |       .        |                    x: 1 0x67-0x67.7 (1)
     |                                               |                |                  [13]{}: in 0x68-0x6a.7 (3)
0x060|                        2b                     |        +       |                    f64.load: 0x2b (valid) 0x68-0x68.7 (1)
     |                                               |                |                    m{}: 0x69-0x6a.7 (2)
0x060|                           03                  |         .      |                      a: 3 0x69-0x69.7 (1)
0x060|                              00               |          .     |                      o: 0 0x6a-0x6a.7 (1)
     |                                               |                |                  [14]{}: in 0x6b-0x6c.7 (2)
0x060|                                 21            |           !    |                    local.set: 0x21 (valid) 0x6b-0x6b.7 (1)
0x060|                                    07         |            .   |                    x: 7 0x6c-0x6c.7 (1)
     |                                               |                |                  [15]{}: in 0x6d-0x6e.7 (2)
0x060|                                       20      |                |                    local.get: 0x20 (valid) 0x6d-0x6d.7 (1)
0x060|                                          01   |              . |                    x: 1 0x6e-0x6e.7 (1)
     |                                               |                |                  [16]{}: in 0x6f-0x71.7 (3)
0x060|                                             2b|               +|                    f64.load: 0x2b (valid) 0x6f-0x6f.7 (1)
     |                                               |                |                    m{}: 0x70-0x71.7 (2)
0x070|03                                             |.               |                      a: 3 0x70-0x70.7 (1)
0x070|   08                                          | .              |                      o: 8 0x71-0x71.7 (1)
     |                                               |                |                  [17]{}: in 0x72-0x73.7 (2)
0x070|      21                                       |  !             |                    local.set: 0x21 (valid) 0x72-0x72.7 (1)
0x070|         08                                    |   .            |                    x: 8 0x73-0x73.7 (1)
     |                                               |                |                  [18]{}: in 0x74-0x75.7 (2)
0x070|            20                                 |                |                    local.get: 0x20 (valid) 0x74-0x74.7 (1)
0x070|               01                              |     .          |                    x: 1 0x75-0x75.7 (1)
     |                                               |                |                  [19]{}: in 0x76-0x78.7 (3)
0x070|                  2b                           |      +         |                    f64.load: 0x2b (valid) 0x76-0x76.7 (1)
     |                                               |                |                    m{}: 0x77-0x78.7 (2)
0x070|                     03                        |       .        |                      a: 3 0x77-0x77.7 (1)
0x070|                        10                     |        .       |                      o: 16 0x78-0x78.7 (1)
     |                                               |                |                  [20]{}: in 0x79-0x7a.7 (2)
0x070|                           21                  |         !      |                    local.set: 0x21 (valid) 0x79-0x79.7 (1)
0x070|                              09               |          .     |                    x: 9 0x7a-0x7a.7 (1)
     |                                               |                |                  [21]{}: in 0x7b-0x7c.7 (2)
0x070|                                 20            |                |                    local.get: 0x20 (valid) 0x7b-0x7b.7 (1)
0x070|                                    01         |            .   |                    x: 1 0x7c-0x7c.7 (1)
     |                                               |                |                  [22]{}: in 0x7d-0x7f.7 (3)
0x070|                                       2b      |             +  |                    f64.load: 0x2b (valid) 0x7d-0x7d.7 (1)
     |                                               |                |                    m{}: 0x7e-0x7f.7 (2)
0x070|                                          03   |              . |                      a: 3 0x7e-0x7e.7 (1)
0x070|                                             18|               .|                      o: 24 0x7f-0x7f.7 (1)
     |                                               |                |                  [23]{}: in 0x80-0x81.7 (2)
0x080|21                                             |!               |                    local.set: 0x21 (valid) 0x80-0x80.7 (1)
0x080|   0a                                          | .              |                    x: 10 0x81-0x81.7 (1)
     |                                               |                |                  [24]{}: in 0x82-0x83.7 (2)
0x080|      20                                       |                |                    local.get: 0x20 (valid) 0x82-0x82.7 (1)
0x080|         02                                    |   .            |                    x: 2 0x83-0x83.7 (1)
     |                                               |                |                  [25]{}: in 0x84-0x85.7 (2)
0x080|            20                                 |                |                    local.get: 0x20 (valid) 0x84-0x84.7 (1)
0x080|               03                              |     .          |                    x: 3 0x85-0x85.7 (1)
     |                                               |                |                  [26]{}: in 0x86-0x87.7 (2)
0x080|                  20                           |                |                    local.get: 0x20 (valid) 0x86-0x86.7 (1)
0x080|                     07                        |       .        |                    x: 7 0x87-0x87.7 (1)
     |                                               |                |                  [27]{}: in 0x88-0x88.7 (1)
0x080|                        a0                     |        .       |                    f64.add: 0xa0 (valid) 0x88-0x88.7 (1)
     |                                               |                |                  [28]{}: in 0x89-0x8b.7 (3)
0x080|                           39                  |         9      |                    f64.store: 0x39 (valid) 0x89-0x89.7 (1)
     |                                               |                |                    m{}: 0x8a-0x8b.7 (2)
0x080|                              03               |          .     |                      a: 3 0x8a-0x8a.7 (1)
0x080|                                 00            |           .    |                      o: 0 0x8b-0x8b.7 (1)
     |                                               |                |                  [29]{}: in 0x8c-0x8d.7 (2)
0x080|                                    20         |                |                    local.get: 0x20 (valid) 0x8c-0x8c.7 (1)
0x080|                                       02      |             .  |                    x: 2 0x8d-0x8d.7 (1)
     |                                               |                |                  [30]{}: in 0x8e-0x8f.7 (2)
0x080|                                          20   |                |                    local.get: 0x20 (valid) 0x8e-0x8e.7 (1)
0x080|                                             04|               .|                    x: 4 0x8f-0x8f.7 (1)
     |                                               |                |                  [31]{}: in 0x90-0x91.7 (2)
0x090|20                                             |                |                    local.get: 0x20 (valid) 0x90-0x90.7 (1)
0x090|   08                                          | .              |                    x: 8 0x91-0x91.7 (1)
     |                                               |                |                  [32]{}: in 0x92-0x92.7 (1)
0x090|      a0                                       |  .             |                    f64.add: 0xa0 (valid) 0x92-0x92.7 (1)
     |                                               |                |                  [33]{}: in 0x93-0x95.7 (3)
0x090|         39                                    |   9            |                    f64.store: 0x39 (valid) 0x93-0x93.7 (1)
     |                                               |                |                    m{}: 0x94-0x95.7 (2)
0x090|            03                                 |    .           |                      a: 3 0x94-0x94.7 (1)
0x090|               08                              |     .          |                      o: 8 0x95-0x95.7 (1)
     |                                               |                |                  [34]{}: in 0x96-0x97.7 (2)
0x090|                  20                           |                |                    local.get: 0x20 (valid) 0x96-0x96.7 (1)
0x090|                     02                        |       .        |                    x: 2 0x97-0x97.7 (1)
     |                                               |                |                  [35]{}: in 0x98-0x99.7 (2)
0x090|                        20                     |                |                    local.get: 0x20 (valid) 0x98-0x98.7 (1)
0x090|                           05                  |         .      |                    x: 5 0x99-0x99.7 (1)
     |                                               |                |                  [36]{}: in 0x9a-0x9b.7 (2)
0x090|                              20               |                |                    local.get: 0x20 (valid) 0x9a-0x9a.7 (1)
0x090|                                 09            |           .    |                    x: 9 0x9b-0x9b.7 (1)
     |                                               |                |                  [37]{}: in 0x9c-0x9c.7 (1)
0x090|                                    a0         |            .   |                    f64.add: 0xa0 (valid) 0x9c-0x9c.7 (1)
     |                                               |                |                  [38]{}: in 0x9d-0x9f.7 (3)
0x090|                                       39      |             9  |                    f64.store: 0x39 (valid) 0x9d-0x9d.7 (1)
     |                                               |                |                    m{}: 0x9e-0x9f.7 (2)
0x090|                                          03   |              . |                      a: 3 0x9e-0x9e.7 (1)
0x090|                                             10|               .|                      o: 16 0x9f-0x9f.7 (1)
     |                                               |                |                  [39]{}: in 0xa0-0xa1.7 (2)
0x0a0|20                                             |                |                    local.get: 0x20 (valid) 0xa0-0xa0.7 (1)
0x0a0|   02                                          | .              |                    x: 2 0xa1-0xa1.7 (1)
     |                                               |                |                  [40]{}: in 0xa2-0xa3.7 (2)
0x0a0|      20                                       |                |                    local.get: 0x20 (valid) 0xa2-0xa2.7 (1)
0x0a0|         06                                    |   .            |                    x: 6 0xa3-0xa3.7 (1)
     |                                               |                |                  [41]{}: in 0xa4-0xa5.7 (2)
0x0a0|            20                                 |                |                    local.get: 0x20 (valid) 0xa4-0xa4.7 (1)
0x0a0|               0a                              |     .          |                    x: 10 0xa5-0xa5.7 (1)
     |                                               |                |                  [42]{}: in 0xa6-0xa6.7 (1)
0x0a0|                  a0                           |      .         |                    f64.add: 0xa0 (valid) 0xa6-0xa6.7 (1)
     |                                               |                |                  [43]{}: in 0xa7-0xa9.7 (3)
0x0a0|                     39                        |       9        |                    f64.store: 0x39 (valid) 0xa7-0xa7.7 (1)
     |                                               |                |                    m{}: 0xa8-0xa9.7 (2)
0x0a0|                        03                     |        .       |                      a: 3 0xa8-0xa8.7 (1)
0x0a0|                           18                  |         .      |                      o: 24 0xa9-0xa9.7 (1)
     |                                               |                |                  [44]{}: in 0xaa-0xaa.7 (1)
0x0a0|                              0b               |          .     |                    end: 0xb (valid) 0xaa-0xaa.7 (1)
     |                                               |                |            [1]{}: code 0xab-0xb2.7 (8)
0x0a0|                                 07            |           .    |              size: 7 0xab-0xab.7 (1)
     |                                               |                |              code{}: 0xac-0xb2.7 (7)
     |                                               |                |                t{}: 0xac-0xac.7 (1)
0x0a0|                                    00         |            .   |                  n: 0 0xac-0xac.7 (1)
     |                                               |                |                  x[0:0]: 0xad-NA (0)
     |                                               |                |                e[0:3]: 0xad-0xb2.7 (6)
     |                                               |                |                  [0]{}: in 0xad-0xae.7 (2)
0x0a0|                                       20      |                |                    local.get: 0x20 (valid) 0xad-0xad.7 (1)
0x0a0|                                          00   |              . |                    x: 0 0xae-0xae.7 (1)
     |                                               |                |                  [1]{}: in 0xaf-0xb1.7 (3)
0x0a0|                                             2b|               +|                    f64.load: 0x2b (valid) 0xaf-0xaf.7 (1)
     |                                               |                |                    m{}: 0xb0-0xb1.7 (2)
0x0b0|03                                             |.               |                      a: 3 0xb0-0xb0.7 (1)
0x0b0|   00                                          | .              |                      o: 0 0xb1-0xb1.7 (1)
     |                                               |                |                  [2]{}: in 0xb2-0xb2.7 (1)
0x0b0|      0b                                       |  .             |                    end: 0xb (valid) 0xb2-0xb2.7 (1)
     |                                               |                |    [5]{}: section 0xb3-0x11a.7 (104)
0x0b0|         0b                                    |   .            |      id: "data section" (11) 0xb3-0xb3.7 (1)
0x0b0|            66                                 |    f           |      size: 102 0xb4-0xb4.7 (1)
     |                                               |                |      content{}: 0xb5-0x11a.7 (102)
     |                                               |                |        seg{}: 0xb5-0x11a.7 (102)
0x0b0|               01                              |     .          |          n: 1 0xb5-0xb5.7 (1)
     |                                               |                |          x[0:1]: 0xb6-0x11a.7 (101)
     |                                               |                |            [0]{}: seg 0xb6-0x11a.7 (101)
0x0b0|                  00                           |      .         |              tag: 0 0xb6-0xb6.7 (1)
     |                                               |                |              e[0:2]: 0xb7-0xb9.7 (3)
     |                                               |                |                [0]{}: in 0xb7-0xb8.7 (2)
0x0b0|                     41                        |       A        |                  i32.const: 0x41 (valid) 0xb7-0xb7.7 (1)
0x0b0|                        00                     |        .       |                  n: 0 0xb8-0xb8.7 (1)
     |                                               |                |                [1]{}: in 0xb9-0xb9.7 (1)
0x0b0|                           0b                  |         .      |                  end: 0xb (valid) 0xb9-0xb9.7 (1)
     |                                               |                |              b{}: 0xba-0x11a.7 (97)
0x0b0|                              60               |          `     |                n: 96 0xba-0xba.7 (1)
0x0b0|                                 01 00 00 00 00|           .....|                x: raw bits 0xbb-0x11a.7 (96)
0x0c0|00 00 00 01 00 00 00 00 00 00 80 01 00 00 00 00|................|
*    |until 0x11a.7 (end) (96)                       |                |
