$ fq -d wasm dv float_exprs-20.wasm
    |00 01 02 03 04 05 06 07 08 09 0a 0b 0c 0d 0e 0f|0123456789abcdef|.{}: float_exprs-20.wasm (wasm) 0x0-0x6c (108)
0x00|00 61 73 6d                                    |.asm            |  magic: raw bits (valid) 0x0-0x4 (4)
0x00|            01 00 00 00                        |    ....        |  version: 1 0x4-0x8 (4)
    |                                               |                |  sections[0:4]: 0x8-0x6c (100)
    |                                               |                |    [0]{}: section 0x8-0x19 (17)
0x00|                        01                     |        .       |      id: "type_section" (1) 0x8-0x9 (1)
0x00|                           0f                  |         .      |      size: 15 (valid) 0x9-0xa (1)
    |                                               |                |      content{}: 0xa-0x19 (15)
    |                                               |                |        ft{}: 0xa-0x19 (15)
0x00|                              02               |          .     |          n: 2 (valid) 0xa-0xb (1)
    |                                               |                |          x[0:2]: 0xb-0x19 (14)
    |                                               |                |            [0]{}: ft 0xb-0x12 (7)
0x00|                                 60            |           `    |              tag: 0x60 (valid) 0xb-0xc (1)
    |                                               |                |              rt1{}: 0xc-0x10 (4)
0x00|                                    03         |            .   |                n: 3 (valid) 0xc-0xd (1)
    |                                               |                |                x[0:3]: 0xd-0x10 (3)
0x00|                                       7d      |             }  |                  [0]: "f32" (0x7d) t 0xd-0xe (1)
0x00|                                          7d   |              } |                  [1]: "f32" (0x7d) t 0xe-0xf (1)
0x00|                                             7d|               }|                  [2]: "f32" (0x7d) t 0xf-0x10 (1)
    |                                               |                |              rt2{}: 0x10-0x12 (2)
0x10|01                                             |.               |                n: 1 (valid) 0x10-0x11 (1)
    |                                               |                |                x[0:1]: 0x11-0x12 (1)
0x10|   7d                                          | }              |                  [0]: "f32" (0x7d) t 0x11-0x12 (1)
    |                                               |                |            [1]{}: ft 0x12-0x19 (7)
0x10|      60                                       |  `             |              tag: 0x60 (valid) 0x12-0x13 (1)
    |                                               |                |              rt1{}: 0x13-0x17 (4)
0x10|         03                                    |   .            |                n: 3 (valid) 0x13-0x14 (1)
    |                                               |                |                x[0:3]: 0x14-0x17 (3)
0x10|            7c                                 |    |           |                  [0]: "f64" (0x7c) t 0x14-0x15 (1)
0x10|               7c                              |     |          |                  [1]: "f64" (0x7c) t 0x15-0x16 (1)
0x10|                  7c                           |      |         |                  [2]: "f64" (0x7c) t 0x16-0x17 (1)
    |                                               |                |              rt2{}: 0x17-0x19 (2)
0x10|                     01                        |       .        |                n: 1 (valid) 0x17-0x18 (1)
    |                                               |                |                x[0:1]: 0x18-0x19 (1)
0x10|                        7c                     |        |       |                  [0]: "f64" (0x7c) t 0x18-0x19 (1)
    |                                               |                |    [1]{}: section 0x19-0x1e (5)
0x10|                           03                  |         .      |      id: "function_section" (3) 0x19-0x1a (1)
0x10|                              03               |          .     |      size: 3 (valid) 0x1a-0x1b (1)
    |                                               |                |      content{}: 0x1b-0x1e (3)
    |                                               |                |        x{}: 0x1b-0x1e (3)
0x10|                                 02            |           .    |          n: 2 (valid) 0x1b-0x1c (1)
    |                                               |                |          x[0:2]: 0x1c-0x1e (2)
0x10|                                    00         |            .   |            [0]: 0 x (valid) 0x1c-0x1d (1)
0x10|                                       01      |             .  |            [1]: 1 x (valid) 0x1d-0x1e (1)
    |                                               |                |    [2]{}: section 0x1e-0x53 (53)
0x10|                                          07   |              . |      id: "export_section" (7) 0x1e-0x1f (1)
0x10|                                             33|               3|      size: 51 (valid) 0x1f-0x20 (1)
    |                                               |                |      content{}: 0x20-0x53 (51)
    |                                               |                |        ex{}: 0x20-0x53 (51)
0x20|02                                             |.               |          n: 2 (valid) 0x20-0x21 (1)
    |                                               |                |          x[0:2]: 0x21-0x53 (50)
    |                                               |                |            [0]{}: ex 0x21-0x3a (25)
    |                                               |                |              nm{}: 0x21-0x38 (23)
0x20|   16                                          | .              |                n: 22 (valid) 0x21-0x22 (1)
0x20|      66 33 32 2e 6e 6f 5f 72 65 67 72 6f 75 70|  f32.no_regroup|                b: "f32.no_regroup_mul_div" 0x22-0x38 (22)
0x30|5f 6d 75 6c 5f 64 69 76                        |_mul_div        |
    |                                               |                |              d{}: 0x38-0x3a (2)
0x30|                        00                     |        .       |                tag: "funcidx" (0x0) 0x38-0x39 (1)
0x30|                           00                  |         .      |                x: 0 (valid) 0x39-0x3a (1)
    |                                               |                |            [1]{}: ex 0x3a-0x53 (25)
    |                                               |                |              nm{}: 0x3a-0x51 (23)
0x30|                              16               |          .     |                n: 22 (valid) 0x3a-0x3b (1)
0x30|                                 66 36 34 2e 6e|           f64.n|                b: "f64.no_regroup_mul_div" 0x3b-0x51 (22)
0x40|6f 5f 72 65 67 72 6f 75 70 5f 6d 75 6c 5f 64 69|o_regroup_mul_di|
0x50|76                                             |v               |
    |                                               |                |              d{}: 0x51-0x53 (2)
0x50|   00                                          | .              |                tag: "funcidx" (0x0) 0x51-0x52 (1)
0x50|      01                                       |  .             |                x: 1 (valid) 0x52-0x53 (1)
    |                                               |                |    [3]{}: section 0x53-0x6c (25)
0x50|         0a                                    |   .            |      id: "code_section" (10) 0x53-0x54 (1)
0x50|            17                                 |    .           |      size: 23 (valid) 0x54-0x55 (1)
    |                                               |                |      content{}: 0x55-0x6c (23)
    |                                               |                |        code{}: 0x55-0x6c (23)
0x50|               02                              |     .          |          n: 2 (valid) 0x55-0x56 (1)
    |                                               |                |          x[0:2]: 0x56-0x6c (22)
    |                                               |                |            [0]{}: code 0x56-0x61 (11)
0x50|                  0a                           |      .         |              size: 10 (valid) 0x56-0x57 (1)
    |                                               |                |              code{}: 0x57-0x61 (10)
    |                                               |                |                t{}: 0x57-0x58 (1)
0x50|                     00                        |       .        |                  n: 0 (valid) 0x57-0x58 (1)
    |                                               |                |                  x[0:0]: 0x58-0x58 (0)
    |                                               |                |                e[0:6]: 0x58-0x61 (9)
    |                                               |                |                  [0]{}: in 0x58-0x5a (2)
0x50|                        20                     |                |                    opcode: "local.get" (0x20) 0x58-0x59 (1)
0x50|                           00                  |         .      |                    x: 0 (valid) 0x59-0x5a (1)
    |                                               |                |                  [1]{}: in 0x5a-0x5c (2)
0x50|                              20               |                |                    opcode: "local.get" (0x20) 0x5a-0x5b (1)
0x50|                                 01            |           .    |                    x: 1 (valid) 0x5b-0x5c (1)
    |                                               |                |                  [2]{}: in 0x5c-0x5d (1)
0x50|                                    94         |            .   |                    opcode: "f32.mul" (0x94) 0x5c-0x5d (1)
    |                                               |                |                  [3]{}: in 0x5d-0x5f (2)
0x50|                                       20      |                |                    opcode: "local.get" (0x20) 0x5d-0x5e (1)
0x50|                                          02   |              . |                    x: 2 (valid) 0x5e-0x5f (1)
    |                                               |                |                  [4]{}: in 0x5f-0x60 (1)
0x50|                                             95|               .|                    opcode: "f32.div" (0x95) 0x5f-0x60 (1)
    |                                               |                |                  [5]{}: in 0x60-0x61 (1)
0x60|0b                                             |.               |                    opcode: "end" (0xb) 0x60-0x61 (1)
    |                                               |                |            [1]{}: code 0x61-0x6c (11)
0x60|   0a                                          | .              |              size: 10 (valid) 0x61-0x62 (1)
    |                                               |                |              code{}: 0x62-0x6c (10)
    |                                               |                |                t{}: 0x62-0x63 (1)
0x60|      00                                       |  .             |                  n: 0 (valid) 0x62-0x63 (1)
    |                                               |                |                  x[0:0]: 0x63-0x63 (0)
    |                                               |                |                e[0:6]: 0x63-0x6c (9)
    |                                               |                |                  [0]{}: in 0x63-0x65 (2)
0x60|         20                                    |                |                    opcode: "local.get" (0x20) 0x63-0x64 (1)
0x60|            00                                 |    .           |                    x: 0 (valid) 0x64-0x65 (1)
    |                                               |                |                  [1]{}: in 0x65-0x67 (2)
0x60|               20                              |                |                    opcode: "local.get" (0x20) 0x65-0x66 (1)
0x60|                  01                           |      .         |                    x: 1 (valid) 0x66-0x67 (1)
    |                                               |                |                  [2]{}: in 0x67-0x68 (1)
0x60|                     a2                        |       .        |                    opcode: "f64.mul" (0xa2) 0x67-0x68 (1)
    |                                               |                |                  [3]{}: in 0x68-0x6a (2)
0x60|                        20                     |                |                    opcode: "local.get" (0x20) 0x68-0x69 (1)
0x60|                           02                  |         .      |                    x: 2 (valid) 0x69-0x6a (1)
    |                                               |                |                  [4]{}: in 0x6a-0x6b (1)
0x60|                              a3               |          .     |                    opcode: "f64.div" (0xa3) 0x6a-0x6b (1)
    |                                               |                |                  [5]{}: in 0x6b-0x6c (1)
0x60|                                 0b|           |           .|   |                    opcode: "end" (0xb) 0x6b-0x6c (1)
