$ fq -d wasm dv float_exprs-44.wasm
     |00 01 02 03 04 05 06 07 08 09 0a 0b 0c 0d 0e 0f|0123456789abcdef|.{}: float_exprs-44.wasm (wasm) 0x0-0x149.7 (330)
0x000|00 61 73 6d                                    |.asm            |  magic: raw bits (valid) 0x0-0x3.7 (4)
0x000|            01 00 00 00                        |    ....        |  version: 1 0x4-0x7.7 (4)
     |                                               |                |  sections[0:4]: 0x8-0x149.7 (322)
     |                                               |                |    [0]{}: section 0x8-0x16.7 (15)
0x000|                        01                     |        .       |      id: "type_section" (1) 0x8-0x8.7 (1)
0x000|                           0d                  |         .      |      size: 13 (valid) 0x9-0x9.7 (1)
     |                                               |                |      content{}: 0xa-0x16.7 (13)
     |                                               |                |        ft{}: 0xa-0x16.7 (13)
0x000|                              02               |          .     |          n: 2 (valid) 0xa-0xa.7 (1)
     |                                               |                |          x[0:2]: 0xb-0x16.7 (12)
     |                                               |                |            [0]{}: ft 0xb-0x10.7 (6)
0x000|                                 60            |           `    |              tag: 0x60 (valid) 0xb-0xb.7 (1)
     |                                               |                |              rt1{}: 0xc-0xe.7 (3)
0x000|                                    02         |            .   |                n: 2 (valid) 0xc-0xc.7 (1)
     |                                               |                |                x[0:2]: 0xd-0xe.7 (2)
0x000|                                       7d      |             }  |                  [0]: "f32" (0x7d) t 0xd-0xd.7 (1)
0x000|                                          7d   |              } |                  [1]: "f32" (0x7d) t 0xe-0xe.7 (1)
     |                                               |                |              rt2{}: 0xf-0x10.7 (2)
0x000|                                             01|               .|                n: 1 (valid) 0xf-0xf.7 (1)
     |                                               |                |                x[0:1]: 0x10-0x10.7 (1)
0x010|7d                                             |}               |                  [0]: "f32" (0x7d) t 0x10-0x10.7 (1)
     |                                               |                |            [1]{}: ft 0x11-0x16.7 (6)
0x010|   60                                          | `              |              tag: 0x60 (valid) 0x11-0x11.7 (1)
     |                                               |                |              rt1{}: 0x12-0x14.7 (3)
0x010|      02                                       |  .             |                n: 2 (valid) 0x12-0x12.7 (1)
     |                                               |                |                x[0:2]: 0x13-0x14.7 (2)
0x010|         7c                                    |   |            |                  [0]: "f64" (0x7c) t 0x13-0x13.7 (1)
0x010|            7c                                 |    |           |                  [1]: "f64" (0x7c) t 0x14-0x14.7 (1)
     |                                               |                |              rt2{}: 0x15-0x16.7 (2)
0x010|               01                              |     .          |                n: 1 (valid) 0x15-0x15.7 (1)
     |                                               |                |                x[0:1]: 0x16-0x16.7 (1)
0x010|                  7c                           |      |         |                  [0]: "f64" (0x7c) t 0x16-0x16.7 (1)
     |                                               |                |    [1]{}: section 0x17-0x21.7 (11)
0x010|                     03                        |       .        |      id: "function_section" (3) 0x17-0x17.7 (1)
0x010|                        09                     |        .       |      size: 9 (valid) 0x18-0x18.7 (1)
     |                                               |                |      content{}: 0x19-0x21.7 (9)
     |                                               |                |        x{}: 0x19-0x21.7 (9)
0x010|                           08                  |         .      |          n: 8 (valid) 0x19-0x19.7 (1)
     |                                               |                |          x[0:8]: 0x1a-0x21.7 (8)
0x010|                              00               |          .     |            [0]: 0 x (valid) 0x1a-0x1a.7 (1)
0x010|                                 00            |           .    |            [1]: 0 x (valid) 0x1b-0x1b.7 (1)
0x010|                                    00         |            .   |            [2]: 0 x (valid) 0x1c-0x1c.7 (1)
0x010|                                       00      |             .  |            [3]: 0 x (valid) 0x1d-0x1d.7 (1)
0x010|                                          01   |              . |            [4]: 1 x (valid) 0x1e-0x1e.7 (1)
0x010|                                             01|               .|            [5]: 1 x (valid) 0x1f-0x1f.7 (1)
0x020|01                                             |.               |            [6]: 1 x (valid) 0x20-0x20.7 (1)
0x020|   01                                          | .              |            [7]: 1 x (valid) 0x21-0x21.7 (1)
     |                                               |                |    [2]{}: section 0x22-0xc5.7 (164)
0x020|      07                                       |  .             |      id: "export_section" (7) 0x22-0x22.7 (1)
0x020|         a1 01                                 |   ..           |      size: 161 (valid) 0x23-0x24.7 (2)
     |                                               |                |      content{}: 0x25-0xc5.7 (161)
     |                                               |                |        ex{}: 0x25-0xc5.7 (161)
0x020|               08                              |     .          |          n: 8 (valid) 0x25-0x25.7 (1)
     |                                               |                |          x[0:8]: 0x26-0xc5.7 (160)
     |                                               |                |            [0]{}: ex 0x26-0x39.7 (20)
     |                                               |                |              nm{}: 0x26-0x37.7 (18)
0x020|                  11                           |      .         |                n: 17 (valid) 0x26-0x26.7 (1)
0x020|                     66 33 32 2e 6e 6f 5f 66 6f|       f32.no_fo|                b: "f32.no_fold_lt_if" 0x27-0x37.7 (17)
0x030|6c 64 5f 6c 74 5f 69 66                        |ld_lt_if        |
     |                                               |                |              d{}: 0x38-0x39.7 (2)
0x030|                        00                     |        .       |                tag: "funcidx" (0x0) 0x38-0x38.7 (1)
0x030|                           00                  |         .      |                x: 0 (valid) 0x39-0x39.7 (1)
     |                                               |                |            [1]{}: ex 0x3a-0x4d.7 (20)
     |                                               |                |              nm{}: 0x3a-0x4b.7 (18)
0x030|                              11               |          .     |                n: 17 (valid) 0x3a-0x3a.7 (1)
0x030|                                 66 33 32 2e 6e|           f32.n|                b: "f32.no_fold_le_if" 0x3b-0x4b.7 (17)
0x040|6f 5f 66 6f 6c 64 5f 6c 65 5f 69 66            |o_fold_le_if    |
     |                                               |                |              d{}: 0x4c-0x4d.7 (2)
0x040|                                    00         |            .   |                tag: "funcidx" (0x0) 0x4c-0x4c.7 (1)
0x040|                                       01      |             .  |                x: 1 (valid) 0x4d-0x4d.7 (1)
     |                                               |                |            [2]{}: ex 0x4e-0x61.7 (20)
     |                                               |                |              nm{}: 0x4e-0x5f.7 (18)
0x040|                                          11   |              . |                n: 17 (valid) 0x4e-0x4e.7 (1)
0x040|                                             66|               f|                b: "f32.no_fold_gt_if" 0x4f-0x5f.7 (17)
0x050|33 32 2e 6e 6f 5f 66 6f 6c 64 5f 67 74 5f 69 66|32.no_fold_gt_if|
     |                                               |                |              d{}: 0x60-0x61.7 (2)
0x060|00                                             |.               |                tag: "funcidx" (0x0) 0x60-0x60.7 (1)
0x060|   02                                          | .              |                x: 2 (valid) 0x61-0x61.7 (1)
     |                                               |                |            [3]{}: ex 0x62-0x75.7 (20)
     |                                               |                |              nm{}: 0x62-0x73.7 (18)
0x060|      11                                       |  .             |                n: 17 (valid) 0x62-0x62.7 (1)
0x060|         66 33 32 2e 6e 6f 5f 66 6f 6c 64 5f 67|   f32.no_fold_g|                b: "f32.no_fold_ge_if" 0x63-0x73.7 (17)
0x070|65 5f 69 66                                    |e_if            |
     |                                               |                |              d{}: 0x74-0x75.7 (2)
0x070|            00                                 |    .           |                tag: "funcidx" (0x0) 0x74-0x74.7 (1)
0x070|               03                              |     .          |                x: 3 (valid) 0x75-0x75.7 (1)
     |                                               |                |            [4]{}: ex 0x76-0x89.7 (20)
     |                                               |                |              nm{}: 0x76-0x87.7 (18)
0x070|                  11                           |      .         |                n: 17 (valid) 0x76-0x76.7 (1)
0x070|                     66 36 34 2e 6e 6f 5f 66 6f|       f64.no_fo|                b: "f64.no_fold_lt_if" 0x77-0x87.7 (17)
0x080|6c 64 5f 6c 74 5f 69 66                        |ld_lt_if        |
     |                                               |                |              d{}: 0x88-0x89.7 (2)
0x080|                        00                     |        .       |                tag: "funcidx" (0x0) 0x88-0x88.7 (1)
0x080|                           04                  |         .      |                x: 4 (valid) 0x89-0x89.7 (1)
     |                                               |                |            [5]{}: ex 0x8a-0x9d.7 (20)
     |                                               |                |              nm{}: 0x8a-0x9b.7 (18)
0x080|                              11               |          .     |                n: 17 (valid) 0x8a-0x8a.7 (1)
0x080|                                 66 36 34 2e 6e|           f64.n|                b: "f64.no_fold_le_if" 0x8b-0x9b.7 (17)
0x090|6f 5f 66 6f 6c 64 5f 6c 65 5f 69 66            |o_fold_le_if    |
     |                                               |                |              d{}: 0x9c-0x9d.7 (2)
0x090|                                    00         |            .   |                tag: "funcidx" (0x0) 0x9c-0x9c.7 (1)
0x090|                                       05      |             .  |                x: 5 (valid) 0x9d-0x9d.7 (1)
     |                                               |                |            [6]{}: ex 0x9e-0xb1.7 (20)
     |                                               |                |              nm{}: 0x9e-0xaf.7 (18)
0x090|                                          11   |              . |                n: 17 (valid) 0x9e-0x9e.7 (1)
0x090|                                             66|               f|                b: "f64.no_fold_gt_if" 0x9f-0xaf.7 (17)
0x0a0|36 34 2e 6e 6f 5f 66 6f 6c 64 5f 67 74 5f 69 66|64.no_fold_gt_if|
     |                                               |                |              d{}: 0xb0-0xb1.7 (2)
0x0b0|00                                             |.               |                tag: "funcidx" (0x0) 0xb0-0xb0.7 (1)
0x0b0|   06                                          | .              |                x: 6 (valid) 0xb1-0xb1.7 (1)
     |                                               |                |            [7]{}: ex 0xb2-0xc5.7 (20)
     |                                               |                |              nm{}: 0xb2-0xc3.7 (18)
0x0b0|      11                                       |  .             |                n: 17 (valid) 0xb2-0xb2.7 (1)
0x0b0|         66 36 34 2e 6e 6f 5f 66 6f 6c 64 5f 67|   f64.no_fold_g|                b: "f64.no_fold_ge_if" 0xb3-0xc3.7 (17)
0x0c0|65 5f 69 66                                    |e_if            |
     |                                               |                |              d{}: 0xc4-0xc5.7 (2)
0x0c0|            00                                 |    .           |                tag: "funcidx" (0x0) 0xc4-0xc4.7 (1)
0x0c0|               07                              |     .          |                x: 7 (valid) 0xc5-0xc5.7 (1)
     |                                               |                |    [3]{}: section 0xc6-0x149.7 (132)
0x0c0|                  0a                           |      .         |      id: "code_section" (10) 0xc6-0xc6.7 (1)
0x0c0|                     81 01                     |       ..       |      size: 129 (valid) 0xc7-0xc8.7 (2)
     |                                               |                |      content{}: 0xc9-0x149.7 (129)
     |                                               |                |        code{}: 0xc9-0x149.7 (129)
0x0c0|                           08                  |         .      |          n: 8 (valid) 0xc9-0xc9.7 (1)
     |                                               |                |          x[0:8]: 0xca-0x149.7 (128)
     |                                               |                |            [0]{}: code 0xca-0xd9.7 (16)
0x0c0|                              0f               |          .     |              size: 15 (valid) 0xca-0xca.7 (1)
     |                                               |                |              code{}: 0xcb-0xd9.7 (15)
     |                                               |                |                t{}: 0xcb-0xcb.7 (1)
0x0c0|                                 00            |           .    |                  n: 0 (valid) 0xcb-0xcb.7 (1)
     |                                               |                |                  x[0:0]: 0xcc-NA (0)
     |                                               |                |                e[0:5]: 0xcc-0xd9.7 (14)
     |                                               |                |                  [0]{}: in 0xcc-0xcd.7 (2)
0x0c0|                                    20         |                |                    opcode: "local.get" (0x20) 0xcc-0xcc.7 (1)
0x0c0|                                       00      |             .  |                    x: 0 (valid) 0xcd-0xcd.7 (1)
     |                                               |                |                  [1]{}: in 0xce-0xcf.7 (2)
0x0c0|                                          20   |                |                    opcode: "local.get" (0x20) 0xce-0xce.7 (1)
0x0c0|                                             01|               .|                    x: 1 (valid) 0xcf-0xcf.7 (1)
     |                                               |                |                  [2]{}: in 0xd0-0xd0.7 (1)
0x0d0|5d                                             |]               |                    opcode: "f32.lt" (0x5d) 0xd0-0xd0.7 (1)
     |                                               |                |                  [3]{}: in 0xd1-0xd8.7 (8)
0x0d0|   04                                          | .              |                    opcode: "if" (0x4) 0xd1-0xd1.7 (1)
0x0d0|      7d                                       |  }             |                    bt: "f32" (125) 0xd2-0xd2.7 (1)
     |                                               |                |                    in1[0:1]: 0xd3-0xd4.7 (2)
     |                                               |                |                      [0]{}: instr 0xd3-0xd4.7 (2)
0x0d0|         20                                    |                |                        opcode: "local.get" (0x20) 0xd3-0xd3.7 (1)
0x0d0|            00                                 |    .           |                        x: 0 (valid) 0xd4-0xd4.7 (1)
0x0d0|               05                              |     .          |                    else: 0x5 (valid) 0xd5-0xd5.7 (1)
     |                                               |                |                    in2[0:1]: 0xd6-0xd7.7 (2)
     |                                               |                |                      [0]{}: instr 0xd6-0xd7.7 (2)
0x0d0|                  20                           |                |                        opcode: "local.get" (0x20) 0xd6-0xd6.7 (1)
0x0d0|                     01                        |       .        |                        x: 1 (valid) 0xd7-0xd7.7 (1)
0x0d0|                        0b                     |        .       |                    end: 0xb (valid) 0xd8-0xd8.7 (1)
     |                                               |                |                  [4]{}: in 0xd9-0xd9.7 (1)
0x0d0|                           0b                  |         .      |                    opcode: "end" (0xb) 0xd9-0xd9.7 (1)
     |                                               |                |            [1]{}: code 0xda-0xe9.7 (16)
0x0d0|                              0f               |          .     |              size: 15 (valid) 0xda-0xda.7 (1)
     |                                               |                |              code{}: 0xdb-0xe9.7 (15)
     |                                               |                |                t{}: 0xdb-0xdb.7 (1)
0x0d0|                                 00            |           .    |                  n: 0 (valid) 0xdb-0xdb.7 (1)
     |                                               |                |                  x[0:0]: 0xdc-NA (0)
     |                                               |                |                e[0:5]: 0xdc-0xe9.7 (14)
     |                                               |                |                  [0]{}: in 0xdc-0xdd.7 (2)
0x0d0|                                    20         |                |                    opcode: "local.get" (0x20) 0xdc-0xdc.7 (1)
0x0d0|                                       00      |             .  |                    x: 0 (valid) 0xdd-0xdd.7 (1)
     |                                               |                |                  [1]{}: in 0xde-0xdf.7 (2)
0x0d0|                                          20   |                |                    opcode: "local.get" (0x20) 0xde-0xde.7 (1)
0x0d0|                                             01|               .|                    x: 1 (valid) 0xdf-0xdf.7 (1)
     |                                               |                |                  [2]{}: in 0xe0-0xe0.7 (1)
0x0e0|5f                                             |_               |                    opcode: "f32.le" (0x5f) 0xe0-0xe0.7 (1)
     |                                               |                |                  [3]{}: in 0xe1-0xe8.7 (8)
0x0e0|   04                                          | .              |                    opcode: "if" (0x4) 0xe1-0xe1.7 (1)
0x0e0|      7d                                       |  }             |                    bt: "f32" (125) 0xe2-0xe2.7 (1)
     |                                               |                |                    in1[0:1]: 0xe3-0xe4.7 (2)
     |                                               |                |                      [0]{}: instr 0xe3-0xe4.7 (2)
0x0e0|         20                                    |                |                        opcode: "local.get" (0x20) 0xe3-0xe3.7 (1)
0x0e0|            00                                 |    .           |                        x: 0 (valid) 0xe4-0xe4.7 (1)
0x0e0|               05                              |     .          |                    else: 0x5 (valid) 0xe5-0xe5.7 (1)
     |                                               |                |                    in2[0:1]: 0xe6-0xe7.7 (2)
     |                                               |                |                      [0]{}: instr 0xe6-0xe7.7 (2)
0x0e0|                  20                           |                |                        opcode: "local.get" (0x20) 0xe6-0xe6.7 (1)
0x0e0|                     01                        |       .        |                        x: 1 (valid) 0xe7-0xe7.7 (1)
0x0e0|                        0b                     |        .       |                    end: 0xb (valid) 0xe8-0xe8.7 (1)
     |                                               |                |                  [4]{}: in 0xe9-0xe9.7 (1)
0x0e0|                           0b                  |         .      |                    opcode: "end" (0xb) 0xe9-0xe9.7 (1)
     |                                               |                |            [2]{}: code 0xea-0xf9.7 (16)
0x0e0|                              0f               |          .     |              size: 15 (valid) 0xea-0xea.7 (1)
     |                                               |                |              code{}: 0xeb-0xf9.7 (15)
     |                                               |                |                t{}: 0xeb-0xeb.7 (1)
0x0e0|                                 00            |           .    |                  n: 0 (valid) 0xeb-0xeb.7 (1)
     |                                               |                |                  x[0:0]: 0xec-NA (0)
     |                                               |                |                e[0:5]: 0xec-0xf9.7 (14)
     |                                               |                |                  [0]{}: in 0xec-0xed.7 (2)
0x0e0|                                    20         |                |                    opcode: "local.get" (0x20) 0xec-0xec.7 (1)
0x0e0|                                       00      |             .  |                    x: 0 (valid) 0xed-0xed.7 (1)
     |                                               |                |                  [1]{}: in 0xee-0xef.7 (2)
0x0e0|                                          20   |                |                    opcode: "local.get" (0x20) 0xee-0xee.7 (1)
0x0e0|                                             01|               .|                    x: 1 (valid) 0xef-0xef.7 (1)
     |                                               |                |                  [2]{}: in 0xf0-0xf0.7 (1)
0x0f0|5e                                             |^               |                    opcode: "f32.gt" (0x5e) 0xf0-0xf0.7 (1)
     |                                               |                |                  [3]{}: in 0xf1-0xf8.7 (8)
0x0f0|   04                                          | .              |                    opcode: "if" (0x4) 0xf1-0xf1.7 (1)
0x0f0|      7d                                       |  }             |                    bt: "f32" (125) 0xf2-0xf2.7 (1)
     |                                               |                |                    in1[0:1]: 0xf3-0xf4.7 (2)
     |                                               |                |                      [0]{}: instr 0xf3-0xf4.7 (2)
0x0f0|         20                                    |                |                        opcode: "local.get" (0x20) 0xf3-0xf3.7 (1)
0x0f0|            00                                 |    .           |                        x: 0 (valid) 0xf4-0xf4.7 (1)
0x0f0|               05                              |     .          |                    else: 0x5 (valid) 0xf5-0xf5.7 (1)
     |                                               |                |                    in2[0:1]: 0xf6-0xf7.7 (2)
     |                                               |                |                      [0]{}: instr 0xf6-0xf7.7 (2)
0x0f0|                  20                           |                |                        opcode: "local.get" (0x20) 0xf6-0xf6.7 (1)
0x0f0|                     01                        |       .        |                        x: 1 (valid) 0xf7-0xf7.7 (1)
0x0f0|                        0b                     |        .       |                    end: 0xb (valid) 0xf8-0xf8.7 (1)
     |                                               |                |                  [4]{}: in 0xf9-0xf9.7 (1)
0x0f0|                           0b                  |         .      |                    opcode: "end" (0xb) 0xf9-0xf9.7 (1)
     |                                               |                |            [3]{}: code 0xfa-0x109.7 (16)
0x0f0|                              0f               |          .     |              size: 15 (valid) 0xfa-0xfa.7 (1)
     |                                               |                |              code{}: 0xfb-0x109.7 (15)
     |                                               |                |                t{}: 0xfb-0xfb.7 (1)
0x0f0|                                 00            |           .    |                  n: 0 (valid) 0xfb-0xfb.7 (1)
     |                                               |                |                  x[0:0]: 0xfc-NA (0)
     |                                               |                |                e[0:5]: 0xfc-0x109.7 (14)
     |                                               |                |                  [0]{}: in 0xfc-0xfd.7 (2)
0x0f0|                                    20         |                |                    opcode: "local.get" (0x20) 0xfc-0xfc.7 (1)
0x0f0|                                       00      |             .  |                    x: 0 (valid) 0xfd-0xfd.7 (1)
     |                                               |                |                  [1]{}: in 0xfe-0xff.7 (2)
0x0f0|                                          20   |                |                    opcode: "local.get" (0x20) 0xfe-0xfe.7 (1)
0x0f0|                                             01|               .|                    x: 1 (valid) 0xff-0xff.7 (1)
     |                                               |                |                  [2]{}: in 0x100-0x100.7 (1)
0x100|60                                             |`               |                    opcode: "f32.ge" (0x60) 0x100-0x100.7 (1)
     |                                               |                |                  [3]{}: in 0x101-0x108.7 (8)
0x100|   04                                          | .              |                    opcode: "if" (0x4) 0x101-0x101.7 (1)
0x100|      7d                                       |  }             |                    bt: "f32" (125) 0x102-0x102.7 (1)
     |                                               |                |                    in1[0:1]: 0x103-0x104.7 (2)
     |                                               |                |                      [0]{}: instr 0x103-0x104.7 (2)
0x100|         20                                    |                |                        opcode: "local.get" (0x20) 0x103-0x103.7 (1)
0x100|            00                                 |    .           |                        x: 0 (valid) 0x104-0x104.7 (1)
0x100|               05                              |     .          |                    else: 0x5 (valid) 0x105-0x105.7 (1)
     |                                               |                |                    in2[0:1]: 0x106-0x107.7 (2)
     |                                               |                |                      [0]{}: instr 0x106-0x107.7 (2)
0x100|                  20                           |                |                        opcode: "local.get" (0x20) 0x106-0x106.7 (1)
0x100|                     01                        |       .        |                        x: 1 (valid) 0x107-0x107.7 (1)
0x100|                        0b                     |        .       |                    end: 0xb (valid) 0x108-0x108.7 (1)
     |                                               |                |                  [4]{}: in 0x109-0x109.7 (1)
0x100|                           0b                  |         .      |                    opcode: "end" (0xb) 0x109-0x109.7 (1)
     |                                               |                |            [4]{}: code 0x10a-0x119.7 (16)
0x100|                              0f               |          .     |              size: 15 (valid) 0x10a-0x10a.7 (1)
     |                                               |                |              code{}: 0x10b-0x119.7 (15)
     |                                               |                |                t{}: 0x10b-0x10b.7 (1)
0x100|                                 00            |           .    |                  n: 0 (valid) 0x10b-0x10b.7 (1)
     |                                               |                |                  x[0:0]: 0x10c-NA (0)
     |                                               |                |                e[0:5]: 0x10c-0x119.7 (14)
     |                                               |                |                  [0]{}: in 0x10c-0x10d.7 (2)
0x100|                                    20         |                |                    opcode: "local.get" (0x20) 0x10c-0x10c.7 (1)
0x100|                                       00      |             .  |                    x: 0 (valid) 0x10d-0x10d.7 (1)
     |                                               |                |                  [1]{}: in 0x10e-0x10f.7 (2)
0x100|                                          20   |                |                    opcode: "local.get" (0x20) 0x10e-0x10e.7 (1)
0x100|                                             01|               .|                    x: 1 (valid) 0x10f-0x10f.7 (1)
     |                                               |                |                  [2]{}: in 0x110-0x110.7 (1)
0x110|63                                             |c               |                    opcode: "f64.lt" (0x63) 0x110-0x110.7 (1)
     |                                               |                |                  [3]{}: in 0x111-0x118.7 (8)
0x110|   04                                          | .              |                    opcode: "if" (0x4) 0x111-0x111.7 (1)
0x110|      7c                                       |  |             |                    bt: "f64" (124) 0x112-0x112.7 (1)
     |                                               |                |                    in1[0:1]: 0x113-0x114.7 (2)
     |                                               |                |                      [0]{}: instr 0x113-0x114.7 (2)
0x110|         20                                    |                |                        opcode: "local.get" (0x20) 0x113-0x113.7 (1)
0x110|            00                                 |    .           |                        x: 0 (valid) 0x114-0x114.7 (1)
0x110|               05                              |     .          |                    else: 0x5 (valid) 0x115-0x115.7 (1)
     |                                               |                |                    in2[0:1]: 0x116-0x117.7 (2)
     |                                               |                |                      [0]{}: instr 0x116-0x117.7 (2)
0x110|                  20                           |                |                        opcode: "local.get" (0x20) 0x116-0x116.7 (1)
0x110|                     01                        |       .        |                        x: 1 (valid) 0x117-0x117.7 (1)
0x110|                        0b                     |        .       |                    end: 0xb (valid) 0x118-0x118.7 (1)
     |                                               |                |                  [4]{}: in 0x119-0x119.7 (1)
0x110|                           0b                  |         .      |                    opcode: "end" (0xb) 0x119-0x119.7 (1)
     |                                               |                |            [5]{}: code 0x11a-0x129.7 (16)
0x110|                              0f               |          .     |              size: 15 (valid) 0x11a-0x11a.7 (1)
     |                                               |                |              code{}: 0x11b-0x129.7 (15)
     |                                               |                |                t{}: 0x11b-0x11b.7 (1)
0x110|                                 00            |           .    |                  n: 0 (valid) 0x11b-0x11b.7 (1)
     |                                               |                |                  x[0:0]: 0x11c-NA (0)
     |                                               |                |                e[0:5]: 0x11c-0x129.7 (14)
     |                                               |                |                  [0]{}: in 0x11c-0x11d.7 (2)
0x110|                                    20         |                |                    opcode: "local.get" (0x20) 0x11c-0x11c.7 (1)
0x110|                                       00      |             .  |                    x: 0 (valid) 0x11d-0x11d.7 (1)
     |                                               |                |                  [1]{}: in 0x11e-0x11f.7 (2)
0x110|                                          20   |                |                    opcode: "local.get" (0x20) 0x11e-0x11e.7 (1)
0x110|                                             01|               .|                    x: 1 (valid) 0x11f-0x11f.7 (1)
     |                                               |                |                  [2]{}: in 0x120-0x120.7 (1)
0x120|65                                             |e               |                    opcode: "f64.le" (0x65) 0x120-0x120.7 (1)
     |                                               |                |                  [3]{}: in 0x121-0x128.7 (8)
0x120|   04                                          | .              |                    opcode: "if" (0x4) 0x121-0x121.7 (1)
0x120|      7c                                       |  |             |                    bt: "f64" (124) 0x122-0x122.7 (1)
     |                                               |                |                    in1[0:1]: 0x123-0x124.7 (2)
     |                                               |                |                      [0]{}: instr 0x123-0x124.7 (2)
0x120|         20                                    |                |                        opcode: "local.get" (0x20) 0x123-0x123.7 (1)
0x120|            00                                 |    .           |                        x: 0 (valid) 0x124-0x124.7 (1)
0x120|               05                              |     .          |                    else: 0x5 (valid) 0x125-0x125.7 (1)
     |                                               |                |                    in2[0:1]: 0x126-0x127.7 (2)
     |                                               |                |                      [0]{}: instr 0x126-0x127.7 (2)
0x120|                  20                           |                |                        opcode: "local.get" (0x20) 0x126-0x126.7 (1)
0x120|                     01                        |       .        |                        x: 1 (valid) 0x127-0x127.7 (1)
0x120|                        0b                     |        .       |                    end: 0xb (valid) 0x128-0x128.7 (1)
     |                                               |                |                  [4]{}: in 0x129-0x129.7 (1)
0x120|                           0b                  |         .      |                    opcode: "end" (0xb) 0x129-0x129.7 (1)
     |                                               |                |            [6]{}: code 0x12a-0x139.7 (16)
0x120|                              0f               |          .     |              size: 15 (valid) 0x12a-0x12a.7 (1)
     |                                               |                |              code{}: 0x12b-0x139.7 (15)
     |                                               |                |                t{}: 0x12b-0x12b.7 (1)
0x120|                                 00            |           .    |                  n: 0 (valid) 0x12b-0x12b.7 (1)
     |                                               |                |                  x[0:0]: 0x12c-NA (0)
     |                                               |                |                e[0:5]: 0x12c-0x139.7 (14)
     |                                               |                |                  [0]{}: in 0x12c-0x12d.7 (2)
0x120|                                    20         |                |                    opcode: "local.get" (0x20) 0x12c-0x12c.7 (1)
0x120|                                       00      |             .  |                    x: 0 (valid) 0x12d-0x12d.7 (1)
     |                                               |                |                  [1]{}: in 0x12e-0x12f.7 (2)
0x120|                                          20   |                |                    opcode: "local.get" (0x20) 0x12e-0x12e.7 (1)
0x120|                                             01|               .|                    x: 1 (valid) 0x12f-0x12f.7 (1)
     |                                               |                |                  [2]{}: in 0x130-0x130.7 (1)
0x130|64                                             |d               |                    opcode: "f64.gt" (0x64) 0x130-0x130.7 (1)
     |                                               |                |                  [3]{}: in 0x131-0x138.7 (8)
0x130|   04                                          | .              |                    opcode: "if" (0x4) 0x131-0x131.7 (1)
0x130|      7c                                       |  |             |                    bt: "f64" (124) 0x132-0x132.7 (1)
     |                                               |                |                    in1[0:1]: 0x133-0x134.7 (2)
     |                                               |                |                      [0]{}: instr 0x133-0x134.7 (2)
0x130|         20                                    |                |                        opcode: "local.get" (0x20) 0x133-0x133.7 (1)
0x130|            00                                 |    .           |                        x: 0 (valid) 0x134-0x134.7 (1)
0x130|               05                              |     .          |                    else: 0x5 (valid) 0x135-0x135.7 (1)
     |                                               |                |                    in2[0:1]: 0x136-0x137.7 (2)
     |                                               |                |                      [0]{}: instr 0x136-0x137.7 (2)
0x130|                  20                           |                |                        opcode: "local.get" (0x20) 0x136-0x136.7 (1)
0x130|                     01                        |       .        |                        x: 1 (valid) 0x137-0x137.7 (1)
0x130|                        0b                     |        .       |                    end: 0xb (valid) 0x138-0x138.7 (1)
     |                                               |                |                  [4]{}: in 0x139-0x139.7 (1)
0x130|                           0b                  |         .      |                    opcode: "end" (0xb) 0x139-0x139.7 (1)
     |                                               |                |            [7]{}: code 0x13a-0x149.7 (16)
0x130|                              0f               |          .     |              size: 15 (valid) 0x13a-0x13a.7 (1)
     |                                               |                |              code{}: 0x13b-0x149.7 (15)
     |                                               |                |                t{}: 0x13b-0x13b.7 (1)
0x130|                                 00            |           .    |                  n: 0 (valid) 0x13b-0x13b.7 (1)
     |                                               |                |                  x[0:0]: 0x13c-NA (0)
     |                                               |                |                e[0:5]: 0x13c-0x149.7 (14)
     |                                               |                |                  [0]{}: in 0x13c-0x13d.7 (2)
0x130|                                    20         |                |                    opcode: "local.get" (0x20) 0x13c-0x13c.7 (1)
0x130|                                       00      |             .  |                    x: 0 (valid) 0x13d-0x13d.7 (1)
     |                                               |                |                  [1]{}: in 0x13e-0x13f.7 (2)
0x130|                                          20   |                |                    opcode: "local.get" (0x20) 0x13e-0x13e.7 (1)
0x130|                                             01|               .|                    x: 1 (valid) 0x13f-0x13f.7 (1)
     |                                               |                |                  [2]{}: in 0x140-0x140.7 (1)
0x140|66                                             |f               |                    opcode: "f64.ge" (0x66) 0x140-0x140.7 (1)
     |                                               |                |                  [3]{}: in 0x141-0x148.7 (8)
0x140|   04                                          | .              |                    opcode: "if" (0x4) 0x141-0x141.7 (1)
0x140|      7c                                       |  |             |                    bt: "f64" (124) 0x142-0x142.7 (1)
     |                                               |                |                    in1[0:1]: 0x143-0x144.7 (2)
     |                                               |                |                      [0]{}: instr 0x143-0x144.7 (2)
0x140|         20                                    |                |                        opcode: "local.get" (0x20) 0x143-0x143.7 (1)
0x140|            00                                 |    .           |                        x: 0 (valid) 0x144-0x144.7 (1)
0x140|               05                              |     .          |                    else: 0x5 (valid) 0x145-0x145.7 (1)
     |                                               |                |                    in2[0:1]: 0x146-0x147.7 (2)
     |                                               |                |                      [0]{}: instr 0x146-0x147.7 (2)
0x140|                  20                           |                |                        opcode: "local.get" (0x20) 0x146-0x146.7 (1)
0x140|                     01                        |       .        |                        x: 1 (valid) 0x147-0x147.7 (1)
0x140|                        0b                     |        .       |                    end: 0xb (valid) 0x148-0x148.7 (1)
     |                                               |                |                  [4]{}: in 0x149-0x149.7 (1)
0x140|                           0b|                 |         .|     |                    opcode: "end" (0xb) 0x149-0x149.7 (1)
