$ fq -d wasm dv float_exprs-94.wasm
    |00 01 02 03 04 05 06 07 08 09 0a 0b 0c 0d 0e 0f|0123456789abcdef|.{}: float_exprs-94.wasm (wasm) 0x0-0xea.7 (235)
0x00|00 61 73 6d                                    |.asm            |  magic: raw bits (valid) 0x0-0x3.7 (4)
0x00|            01 00 00 00                        |    ....        |  version: 1 0x4-0x7.7 (4)
    |                                               |                |  sections[0:4]: 0x8-0xea.7 (227)
    |                                               |                |    [0]{}: section 0x8-0xf.7 (8)
0x00|                        01                     |        .       |      id: "type section" (1) 0x8-0x8.7 (1)
0x00|                           06                  |         .      |      size: 6 0x9-0x9.7 (1)
    |                                               |                |      content{}: 0xa-0xf.7 (6)
    |                                               |                |        ft{}: 0xa-0xf.7 (6)
0x00|                              01               |          .     |          n: 1 0xa-0xa.7 (1)
    |                                               |                |          x[0:1]: 0xb-0xf.7 (5)
    |                                               |                |            [0]{}: ft 0xb-0xf.7 (5)
0x00|                                 60            |           `    |              tag: 0x60 (valid) 0xb-0xb.7 (1)
    |                                               |                |              rt1{}: 0xc-0xd.7 (2)
0x00|                                    01         |            .   |                n: 1 0xc-0xc.7 (1)
    |                                               |                |                x[0:1]: 0xd-0xd.7 (1)
0x00|                                       7f      |             .  |                  [0]: "i32" (0x7f) t 0xd-0xd.7 (1)
    |                                               |                |              rt2{}: 0xe-0xf.7 (2)
0x00|                                          01   |              . |                n: 1 0xe-0xe.7 (1)
    |                                               |                |                x[0:1]: 0xf-0xf.7 (1)
0x00|                                             7c|               ||                  [0]: "f64" (0x7c) t 0xf-0xf.7 (1)
    |                                               |                |    [1]{}: section 0x10-0x13.7 (4)
0x10|03                                             |.               |      id: "function section" (3) 0x10-0x10.7 (1)
0x10|   02                                          | .              |      size: 2 0x11-0x11.7 (1)
    |                                               |                |      content{}: 0x12-0x13.7 (2)
    |                                               |                |        x{}: 0x12-0x13.7 (2)
0x10|      01                                       |  .             |          n: 1 0x12-0x12.7 (1)
    |                                               |                |          x[0:1]: 0x13-0x13.7 (1)
0x10|         00                                    |   .            |            [0]: 0 x 0x13-0x13.7 (1)
    |                                               |                |    [2]{}: section 0x14-0x1c.7 (9)
0x10|            07                                 |    .           |      id: "export section" (7) 0x14-0x14.7 (1)
0x10|               07                              |     .          |      size: 7 0x15-0x15.7 (1)
    |                                               |                |      content{}: 0x16-0x1c.7 (7)
    |                                               |                |        ex{}: 0x16-0x1c.7 (7)
0x10|                  01                           |      .         |          n: 1 0x16-0x16.7 (1)
    |                                               |                |          x[0:1]: 0x17-0x1c.7 (6)
    |                                               |                |            [0]{}: ex 0x17-0x1c.7 (6)
    |                                               |                |              nm{}: 0x17-0x1a.7 (4)
0x10|                     03                        |       .        |                n: 3 0x17-0x17.7 (1)
0x10|                        74 61 75               |        tau     |                b: "tau" 0x18-0x1a.7 (3)
    |                                               |                |              d{}: 0x1b-0x1c.7 (2)
0x10|                                 00            |           .    |                tag: "funcidx" (0x0) 0x1b-0x1b.7 (1)
0x10|                                    00         |            .   |                x: 0 0x1c-0x1c.7 (1)
    |                                               |                |    [3]{}: section 0x1d-0xea.7 (206)
0x10|                                       0a      |             .  |      id: "code section" (10) 0x1d-0x1d.7 (1)
0x10|                                          cb 01|              ..|      size: 203 0x1e-0x1f.7 (2)
    |                                               |                |      content{}: 0x20-0xea.7 (203)
    |                                               |                |        code{}: 0x20-0xea.7 (203)
0x20|01                                             |.               |          n: 1 0x20-0x20.7 (1)
    |                                               |                |          x[0:1]: 0x21-0xea.7 (202)
    |                                               |                |            [0]{}: code 0x21-0xea.7 (202)
0x20|   c8 01                                       | ..             |              size: 200 0x21-0x22.7 (2)
    |                                               |                |              code{}: 0x23-0xea.7 (200)
    |                                               |                |                t{}: 0x23-0x25.7 (3)
0x20|         01                                    |   .            |                  n: 1 0x23-0x23.7 (1)
    |                                               |                |                  x[0:1]: 0x24-0x25.7 (2)
    |                                               |                |                    [0]{}: t 0x24-0x25.7 (2)
0x20|            04                                 |    .           |                      n: 4 0x24-0x24.7 (1)
0x20|               7c                              |     |          |                      t: "f64" (0x7c) 0x25-0x25.7 (1)
    |                                               |                |                e[0:5]: 0x26-0xea.7 (197)
    |                                               |                |                  [0]{}: in 0x26-0x2e.7 (9)
0x20|                  44                           |      D         |                    f64.const: 0x44 (valid) 0x26-0x26.7 (1)
0x20|                     00 00 00 00 00 00 00 00   |       ........ |                    z: 0 0x27-0x2e.7 (8)
    |                                               |                |                  [1]{}: in 0x2f-0x30.7 (2)
0x20|                                             21|               !|                    local.set: 0x21 (valid) 0x2f-0x2f.7 (1)
0x30|01                                             |.               |                    x: 1 0x30-0x30.7 (1)
    |                                               |                |                  [2]{}: in 0x31-0xe7.7 (183)
0x30|   02                                          | .              |                    block: 0x2 (valid) 0x31-0x31.7 (1)
0x30|      40                                       |  @             |                    bt: "ε" (64) 0x32-0x32.7 (1)
    |                                               |                |                    instructions[0:9]: 0x33-0xe6.7 (180)
    |                                               |                |                      [0]{}: instr 0x33-0x34.7 (2)
0x30|         20                                    |                |                        local.get: 0x20 (valid) 0x33-0x33.7 (1)
0x30|            00                                 |    .           |                        x: 0 0x34-0x34.7 (1)
    |                                               |                |                      [1]{}: instr 0x35-0x36.7 (2)
0x30|               41                              |     A          |                        i32.const: 0x41 (valid) 0x35-0x35.7 (1)
0x30|                  01                           |      .         |                        n: 1 0x36-0x36.7 (1)
    |                                               |                |                      [2]{}: instr 0x37-0x37.7 (1)
0x30|                     48                        |       H        |                        i32.lt_s: 0x48 (valid) 0x37-0x37.7 (1)
    |                                               |                |                      [3]{}: instr 0x38-0x39.7 (2)
0x30|                        0d                     |        .       |                        br_if: 0xd (valid) 0x38-0x38.7 (1)
0x30|                           00                  |         .      |                        l: 0 0x39-0x39.7 (1)
    |                                               |                |                      [4]{}: instr 0x3a-0x42.7 (9)
0x30|                              44               |          D     |                        f64.const: 0x44 (valid) 0x3a-0x3a.7 (1)
0x30|                                 00 00 00 00 00|           .....|                        z: 1 0x3b-0x42.7 (8)
0x40|00 f0 3f                                       |..?             |
    |                                               |                |                      [5]{}: instr 0x43-0x44.7 (2)
0x40|         21                                    |   !            |                        local.set: 0x21 (valid) 0x43-0x43.7 (1)
0x40|            02                                 |    .           |                        x: 2 0x44-0x44.7 (1)
    |                                               |                |                      [6]{}: instr 0x45-0x4d.7 (9)
0x40|               44                              |     D          |                        f64.const: 0x44 (valid) 0x45-0x45.7 (1)
0x40|                  00 00 00 00 00 00 00 00      |      ........  |                        z: 0 0x46-0x4d.7 (8)
    |                                               |                |                      [7]{}: instr 0x4e-0x4f.7 (2)
0x40|                                          21   |              ! |                        local.set: 0x21 (valid) 0x4e-0x4e.7 (1)
0x40|                                             03|               .|                        x: 3 0x4f-0x4f.7 (1)
    |                                               |                |                      [8]{}: instr 0x50-0xe6.7 (151)
0x50|03                                             |.               |                        loop: 0x3 (valid) 0x50-0x50.7 (1)
0x50|   40                                          | @              |                        bt: "ε" (64) 0x51-0x51.7 (1)
    |                                               |                |                        instructions[0:44]: 0x52-0xe5.7 (148)
    |                                               |                |                          [0]{}: instr 0x52-0x53.7 (2)
0x50|      20                                       |                |                            local.get: 0x20 (valid) 0x52-0x52.7 (1)
0x50|         01                                    |   .            |                            x: 1 0x53-0x53.7 (1)
    |                                               |                |                          [1]{}: instr 0x54-0x55.7 (2)
0x50|            20                                 |                |                            local.get: 0x20 (valid) 0x54-0x54.7 (1)
0x50|               02                              |     .          |                            x: 2 0x55-0x55.7 (1)
    |                                               |                |                          [2]{}: instr 0x56-0x5e.7 (9)
0x50|                  44                           |      D         |                            f64.const: 0x44 (valid) 0x56-0x56.7 (1)
0x50|                     00 00 00 00 00 00 20 40   |       ...... @ |                            z: 8 0x57-0x5e.7 (8)
    |                                               |                |                          [3]{}: instr 0x5f-0x60.7 (2)
0x50|                                             20|                |                            local.get: 0x20 (valid) 0x5f-0x5f.7 (1)
0x60|03                                             |.               |                            x: 3 0x60-0x60.7 (1)
    |                                               |                |                          [4]{}: instr 0x61-0x69.7 (9)
0x60|   44                                          | D              |                            f64.const: 0x44 (valid) 0x61-0x61.7 (1)
0x60|      00 00 00 00 00 00 20 40                  |  ...... @      |                            z: 8 0x62-0x69.7 (8)
    |                                               |                |                          [5]{}: instr 0x6a-0x6a.7 (1)
0x60|                              a2               |          .     |                            f64.mul: 0xa2 (valid) 0x6a-0x6a.7 (1)
    |                                               |                |                          [6]{}: instr 0x6b-0x6c.7 (2)
0x60|                                 22            |           "    |                            local.tee: 0x22 (valid) 0x6b-0x6b.7 (1)
0x60|                                    04         |            .   |                            x: 4 0x6c-0x6c.7 (1)
    |                                               |                |                          [7]{}: instr 0x6d-0x75.7 (9)
0x60|                                       44      |             D  |                            f64.const: 0x44 (valid) 0x6d-0x6d.7 (1)
0x60|                                          00 00|              ..|                            z: 1 0x6e-0x75.7 (8)
0x70|00 00 00 00 f0 3f                              |.....?          |
    |                                               |                |                          [8]{}: instr 0x76-0x76.7 (1)
0x70|                  a0                           |      .         |                            f64.add: 0xa0 (valid) 0x76-0x76.7 (1)
    |                                               |                |                          [9]{}: instr 0x77-0x77.7 (1)
0x70|                     a3                        |       .        |                            f64.div: 0xa3 (valid) 0x77-0x77.7 (1)
    |                                               |                |                          [10]{}: instr 0x78-0x80.7 (9)
0x70|                        44                     |        D       |                            f64.const: 0x44 (valid) 0x78-0x78.7 (1)
0x70|                           00 00 00 00 00 00 10|         .......|                            z: 4 0x79-0x80.7 (8)
0x80|40                                             |@               |
    |                                               |                |                          [11]{}: instr 0x81-0x82.7 (2)
0x80|   20                                          |                |                            local.get: 0x20 (valid) 0x81-0x81.7 (1)
0x80|      04                                       |  .             |                            x: 4 0x82-0x82.7 (1)
    |                                               |                |                          [12]{}: instr 0x83-0x8b.7 (9)
0x80|         44                                    |   D            |                            f64.const: 0x44 (valid) 0x83-0x83.7 (1)
0x80|            00 00 00 00 00 00 10 40            |    .......@    |                            z: 4 0x84-0x8b.7 (8)
    |                                               |                |                          [13]{}: instr 0x8c-0x8c.7 (1)
0x80|                                    a0         |            .   |                            f64.add: 0xa0 (valid) 0x8c-0x8c.7 (1)
    |                                               |                |                          [14]{}: instr 0x8d-0x8d.7 (1)
0x80|                                       a3      |             .  |                            f64.div: 0xa3 (valid) 0x8d-0x8d.7 (1)
    |                                               |                |                          [15]{}: instr 0x8e-0x8e.7 (1)
0x80|                                          a1   |              . |                            f64.sub: 0xa1 (valid) 0x8e-0x8e.7 (1)
    |                                               |                |                          [16]{}: instr 0x8f-0x97.7 (9)
0x80|                                             44|               D|                            f64.const: 0x44 (valid) 0x8f-0x8f.7 (1)
0x90|00 00 00 00 00 00 00 40                        |.......@        |                            z: 2 0x90-0x97.7 (8)
    |                                               |                |                          [17]{}: instr 0x98-0x99.7 (2)
0x90|                        20                     |                |                            local.get: 0x20 (valid) 0x98-0x98.7 (1)
0x90|                           04                  |         .      |                            x: 4 0x99-0x99.7 (1)
    |                                               |                |                          [18]{}: instr 0x9a-0xa2.7 (9)
0x90|                              44               |          D     |                            f64.const: 0x44 (valid) 0x9a-0x9a.7 (1)
0x90|                                 00 00 00 00 00|           .....|                            z: 5 0x9b-0xa2.7 (8)
0xa0|00 14 40                                       |..@             |
    |                                               |                |                          [19]{}: instr 0xa3-0xa3.7 (1)
0xa0|         a0                                    |   .            |                            f64.add: 0xa0 (valid) 0xa3-0xa3.7 (1)
    |                                               |                |                          [20]{}: instr 0xa4-0xa4.7 (1)
0xa0|            a3                                 |    .           |                            f64.div: 0xa3 (valid) 0xa4-0xa4.7 (1)
    |                                               |                |                          [21]{}: instr 0xa5-0xa5.7 (1)
0xa0|               a1                              |     .          |                            f64.sub: 0xa1 (valid) 0xa5-0xa5.7 (1)
    |                                               |                |                          [22]{}: instr 0xa6-0xae.7 (9)
0xa0|                  44                           |      D         |                            f64.const: 0x44 (valid) 0xa6-0xa6.7 (1)
0xa0|                     00 00 00 00 00 00 00 40   |       .......@ |                            z: 2 0xa7-0xae.7 (8)
    |                                               |                |                          [23]{}: instr 0xaf-0xb0.7 (2)
0xa0|                                             20|                |                            local.get: 0x20 (valid) 0xaf-0xaf.7 (1)
0xb0|04                                             |.               |                            x: 4 0xb0-0xb0.7 (1)
    |                                               |                |                          [24]{}: instr 0xb1-0xb9.7 (9)
0xb0|   44                                          | D              |                            f64.const: 0x44 (valid) 0xb1-0xb1.7 (1)
0xb0|      00 00 00 00 00 00 18 40                  |  .......@      |                            z: 6 0xb2-0xb9.7 (8)
    |                                               |                |                          [25]{}: instr 0xba-0xba.7 (1)
0xb0|                              a0               |          .     |                            f64.add: 0xa0 (valid) 0xba-0xba.7 (1)
    |                                               |                |                          [26]{}: instr 0xbb-0xbb.7 (1)
0xb0|                                 a3            |           .    |                            f64.div: 0xa3 (valid) 0xbb-0xbb.7 (1)
    |                                               |                |                          [27]{}: instr 0xbc-0xbc.7 (1)
0xb0|                                    a1         |            .   |                            f64.sub: 0xa1 (valid) 0xbc-0xbc.7 (1)
    |                                               |                |                          [28]{}: instr 0xbd-0xbd.7 (1)
0xb0|                                       a2      |             .  |                            f64.mul: 0xa2 (valid) 0xbd-0xbd.7 (1)
    |                                               |                |                          [29]{}: instr 0xbe-0xbe.7 (1)
0xb0|                                          a0   |              . |                            f64.add: 0xa0 (valid) 0xbe-0xbe.7 (1)
    |                                               |                |                          [30]{}: instr 0xbf-0xc0.7 (2)
0xb0|                                             21|               !|                            local.set: 0x21 (valid) 0xbf-0xbf.7 (1)
0xc0|01                                             |.               |                            x: 1 0xc0-0xc0.7 (1)
    |                                               |                |                          [31]{}: instr 0xc1-0xc2.7 (2)
0xc0|   20                                          |                |                            local.get: 0x20 (valid) 0xc1-0xc1.7 (1)
0xc0|      03                                       |  .             |                            x: 3 0xc2-0xc2.7 (1)
    |                                               |                |                          [32]{}: instr 0xc3-0xcb.7 (9)
0xc0|         44                                    |   D            |                            f64.const: 0x44 (valid) 0xc3-0xc3.7 (1)
0xc0|            00 00 00 00 00 00 f0 3f            |    .......?    |                            z: 1 0xc4-0xcb.7 (8)
    |                                               |                |                          [33]{}: instr 0xcc-0xcc.7 (1)
0xc0|                                    a0         |            .   |                            f64.add: 0xa0 (valid) 0xcc-0xcc.7 (1)
    |                                               |                |                          [34]{}: instr 0xcd-0xce.7 (2)
0xc0|                                       21      |             !  |                            local.set: 0x21 (valid) 0xcd-0xcd.7 (1)
0xc0|                                          03   |              . |                            x: 3 0xce-0xce.7 (1)
    |                                               |                |                          [35]{}: instr 0xcf-0xd0.7 (2)
0xc0|                                             20|                |                            local.get: 0x20 (valid) 0xcf-0xcf.7 (1)
0xd0|02                                             |.               |                            x: 2 0xd0-0xd0.7 (1)
    |                                               |                |                          [36]{}: instr 0xd1-0xd9.7 (9)
0xd0|   44                                          | D              |                            f64.const: 0x44 (valid) 0xd1-0xd1.7 (1)
0xd0|      00 00 00 00 00 00 b0 3f                  |  .......?      |                            z: 0.0625 0xd2-0xd9.7 (8)
    |                                               |                |                          [37]{}: instr 0xda-0xda.7 (1)
0xd0|                              a2               |          .     |                            f64.mul: 0xa2 (valid) 0xda-0xda.7 (1)
    |                                               |                |                          [38]{}: instr 0xdb-0xdc.7 (2)
0xd0|                                 21            |           !    |                            local.set: 0x21 (valid) 0xdb-0xdb.7 (1)
0xd0|                                    02         |            .   |                            x: 2 0xdc-0xdc.7 (1)
    |                                               |                |                          [39]{}: instr 0xdd-0xde.7 (2)
0xd0|                                       20      |                |                            local.get: 0x20 (valid) 0xdd-0xdd.7 (1)
0xd0|                                          00   |              . |                            x: 0 0xde-0xde.7 (1)
    |                                               |                |                          [40]{}: instr 0xdf-0xe0.7 (2)
0xd0|                                             41|               A|                            i32.const: 0x41 (valid) 0xdf-0xdf.7 (1)
0xe0|7f                                             |.               |                            n: -1 0xe0-0xe0.7 (1)
    |                                               |                |                          [41]{}: instr 0xe1-0xe1.7 (1)
0xe0|   6a                                          | j              |                            i32.add: 0x6a (valid) 0xe1-0xe1.7 (1)
    |                                               |                |                          [42]{}: instr 0xe2-0xe3.7 (2)
0xe0|      22                                       |  "             |                            local.tee: 0x22 (valid) 0xe2-0xe2.7 (1)
0xe0|         00                                    |   .            |                            x: 0 0xe3-0xe3.7 (1)
    |                                               |                |                          [43]{}: instr 0xe4-0xe5.7 (2)
0xe0|            0d                                 |    .           |                            br_if: 0xd (valid) 0xe4-0xe4.7 (1)
0xe0|               00                              |     .          |                            l: 0 0xe5-0xe5.7 (1)
0xe0|                  0b                           |      .         |                        end: 11 (valid) 0xe6-0xe6.7 (1)
0xe0|                     0b                        |       .        |                    end: 11 (valid) 0xe7-0xe7.7 (1)
    |                                               |                |                  [3]{}: in 0xe8-0xe9.7 (2)
0xe0|                        20                     |                |                    local.get: 0x20 (valid) 0xe8-0xe8.7 (1)
0xe0|                           01                  |         .      |                    x: 1 0xe9-0xe9.7 (1)
    |                                               |                |                  [4]{}: in 0xea-0xea.7 (1)
0xe0|                              0b|              |          .|    |                    end: 0xb (valid) 0xea-0xea.7 (1)
