$ fq -d wasm dv float_exprs-0.wasm
    |00 01 02 03 04 05 06 07 08 09 0a 0b 0c 0d 0e 0f|0123456789abcdef|.{}: float_exprs-0.wasm (wasm) 0x0-0x3b.7 (60)
0x00|00 61 73 6d                                    |.asm            |  magic: raw bits (valid) 0x0-0x3.7 (4)
0x00|            01 00 00 00                        |    ....        |  version: 1 0x4-0x7.7 (4)
    |                                               |                |  sections[0:4]: 0x8-0x3b.7 (52)
    |                                               |                |    [0]{}: section 0x8-0x11.7 (10)
0x00|                        01                     |        .       |      id: "type section" (1) 0x8-0x8.7 (1)
0x00|                           08                  |         .      |      size: 8 0x9-0x9.7 (1)
    |                                               |                |      content{}: 0xa-0x11.7 (8)
    |                                               |                |        ft{}: 0xa-0x11.7 (8)
0x00|                              01               |          .     |          n: 1 0xa-0xa.7 (1)
    |                                               |                |          x[0:1]: 0xb-0x11.7 (7)
    |                                               |                |            [0]{}: ft 0xb-0x11.7 (7)
0x00|                                 60            |           `    |              tag: 0x60 (valid) 0xb-0xb.7 (1)
    |                                               |                |              rt1{}: 0xc-0xf.7 (4)
0x00|                                    03         |            .   |                n: 3 0xc-0xc.7 (1)
    |                                               |                |                x[0:3]: 0xd-0xf.7 (3)
0x00|                                       7c      |             |  |                  [0]: "f64" (0x7c) t 0xd-0xd.7 (1)
0x00|                                          7c   |              | |                  [1]: "f64" (0x7c) t 0xe-0xe.7 (1)
0x00|                                             7c|               ||                  [2]: "f64" (0x7c) t 0xf-0xf.7 (1)
    |                                               |                |              rt2{}: 0x10-0x11.7 (2)
0x10|01                                             |.               |                n: 1 0x10-0x10.7 (1)
    |                                               |                |                x[0:1]: 0x11-0x11.7 (1)
0x10|   7c                                          | |              |                  [0]: "f64" (0x7c) t 0x11-0x11.7 (1)
    |                                               |                |    [1]{}: section 0x12-0x15.7 (4)
0x10|      03                                       |  .             |      id: "function section" (3) 0x12-0x12.7 (1)
0x10|         02                                    |   .            |      size: 2 0x13-0x13.7 (1)
    |                                               |                |      content{}: 0x14-0x15.7 (2)
    |                                               |                |        x{}: 0x14-0x15.7 (2)
0x10|            01                                 |    .           |          n: 1 0x14-0x14.7 (1)
    |                                               |                |          x[0:1]: 0x15-0x15.7 (1)
0x10|               00                              |     .          |            [0]: 0 x 0x15-0x15.7 (1)
    |                                               |                |    [2]{}: section 0x16-0x2d.7 (24)
0x10|                  07                           |      .         |      id: "export section" (7) 0x16-0x16.7 (1)
0x10|                     16                        |       .        |      size: 22 0x17-0x17.7 (1)
    |                                               |                |      content{}: 0x18-0x2d.7 (22)
    |                                               |                |        ex{}: 0x18-0x2d.7 (22)
0x10|                        01                     |        .       |          n: 1 0x18-0x18.7 (1)
    |                                               |                |          x[0:1]: 0x19-0x2d.7 (21)
    |                                               |                |            [0]{}: ex 0x19-0x2d.7 (21)
    |                                               |                |              nm{}: 0x19-0x2b.7 (19)
0x10|                           12                  |         .      |                n: 18 0x19-0x19.7 (1)
0x10|                              66 36 34 2e 6e 6f|          f64.no|                b: "f64.no_contraction" 0x1a-0x2b.7 (18)
0x20|5f 63 6f 6e 74 72 61 63 74 69 6f 6e            |_contraction    |
    |                                               |                |              d{}: 0x2c-0x2d.7 (2)
0x20|                                    00         |            .   |                tag: "funcidx" (0x0) 0x2c-0x2c.7 (1)
0x20|                                       00      |             .  |                x: 0 0x2d-0x2d.7 (1)
    |                                               |                |    [3]{}: section 0x2e-0x3b.7 (14)
0x20|                                          0a   |              . |      id: "code section" (10) 0x2e-0x2e.7 (1)
0x20|                                             0c|               .|      size: 12 0x2f-0x2f.7 (1)
    |                                               |                |      content{}: 0x30-0x3b.7 (12)
    |                                               |                |        code{}: 0x30-0x3b.7 (12)
0x30|01                                             |.               |          n: 1 0x30-0x30.7 (1)
    |                                               |                |          x[0:1]: 0x31-0x3b.7 (11)
    |                                               |                |            [0]{}: code 0x31-0x3b.7 (11)
0x30|   0a                                          | .              |              size: 10 0x31-0x31.7 (1)
    |                                               |                |              code{}: 0x32-0x3b.7 (10)
    |                                               |                |                t{}: 0x32-0x32.7 (1)
0x30|      00                                       |  .             |                  n: 0 0x32-0x32.7 (1)
    |                                               |                |                  x[0:0]: 0x33-NA (0)
    |                                               |                |                e[0:6]: 0x33-0x3b.7 (9)
    |                                               |                |                  [0]{}: in 0x33-0x34.7 (2)
0x30|         20                                    |                |                    local.get: 0x20 (valid) 0x33-0x33.7 (1)
0x30|            00                                 |    .           |                    x: 0 0x34-0x34.7 (1)
    |                                               |                |                  [1]{}: in 0x35-0x36.7 (2)
0x30|               20                              |                |                    local.get: 0x20 (valid) 0x35-0x35.7 (1)
0x30|                  01                           |      .         |                    x: 1 0x36-0x36.7 (1)
    |                                               |                |                  [2]{}: in 0x37-0x37.7 (1)
0x30|                     a2                        |       .        |                    f64.mul: 0xa2 (valid) 0x37-0x37.7 (1)
    |                                               |                |                  [3]{}: in 0x38-0x39.7 (2)
0x30|                        20                     |                |                    local.get: 0x20 (valid) 0x38-0x38.7 (1)
0x30|                           02                  |         .      |                    x: 2 0x39-0x39.7 (1)
    |                                               |                |                  [4]{}: in 0x3a-0x3a.7 (1)
0x30|                              a0               |          .     |                    f64.add: 0xa0 (valid) 0x3a-0x3a.7 (1)
    |                                               |                |                  [5]{}: in 0x3b-0x3b.7 (1)
0x30|                                 0b|           |           .|   |                    end: 0xb (valid) 0x3b-0x3b.7 (1)
