$ fq -d wasm dv float_exprs-55.wasm
    |00 01 02 03 04 05 06 07 08 09 0a 0b 0c 0d 0e 0f|0123456789abcdef|.{}: float_exprs-55.wasm (wasm) 0x0-0x62 (98)
0x00|00 61 73 6d                                    |.asm            |  magic: raw bits (valid) 0x0-0x4 (4)
0x00|            01 00 00 00                        |    ....        |  version: 1 0x4-0x8 (4)
    |                                               |                |  sections[0:4]: 0x8-0x62 (90)
    |                                               |                |    [0]{}: section 0x8-0x15 (13)
0x00|                        01                     |        .       |      id: "type_section" (1) 0x8-0x9 (1)
0x00|                           0b                  |         .      |      size: 11 (valid) 0x9-0xa (1)
    |                                               |                |      content{}: 0xa-0x15 (11)
    |                                               |                |        ft{}: 0xa-0x15 (11)
0x00|                              02               |          .     |          n: 2 (valid) 0xa-0xb (1)
    |                                               |                |          x[0:2]: 0xb-0x15 (10)
    |                                               |                |            [0]{}: ft 0xb-0x10 (5)
0x00|                                 60            |           `    |              tag: 0x60 (valid) 0xb-0xc (1)
    |                                               |                |              rt1{}: 0xc-0xe (2)
0x00|                                    01         |            .   |                n: 1 (valid) 0xc-0xd (1)
    |                                               |                |                x[0:1]: 0xd-0xe (1)
0x00|                                       7d      |             }  |                  [0]: "f32" (0x7d) t 0xd-0xe (1)
    |                                               |                |              rt2{}: 0xe-0x10 (2)
0x00|                                          01   |              . |                n: 1 (valid) 0xe-0xf (1)
    |                                               |                |                x[0:1]: 0xf-0x10 (1)
0x00|                                             7d|               }|                  [0]: "f32" (0x7d) t 0xf-0x10 (1)
    |                                               |                |            [1]{}: ft 0x10-0x15 (5)
0x10|60                                             |`               |              tag: 0x60 (valid) 0x10-0x11 (1)
    |                                               |                |              rt1{}: 0x11-0x13 (2)
0x10|   01                                          | .              |                n: 1 (valid) 0x11-0x12 (1)
    |                                               |                |                x[0:1]: 0x12-0x13 (1)
0x10|      7c                                       |  |             |                  [0]: "f64" (0x7c) t 0x12-0x13 (1)
    |                                               |                |              rt2{}: 0x13-0x15 (2)
0x10|         01                                    |   .            |                n: 1 (valid) 0x13-0x14 (1)
    |                                               |                |                x[0:1]: 0x14-0x15 (1)
0x10|            7c                                 |    |           |                  [0]: "f64" (0x7c) t 0x14-0x15 (1)
    |                                               |                |    [1]{}: section 0x15-0x1a (5)
0x10|               03                              |     .          |      id: "function_section" (3) 0x15-0x16 (1)
0x10|                  03                           |      .         |      size: 3 (valid) 0x16-0x17 (1)
    |                                               |                |      content{}: 0x17-0x1a (3)
    |                                               |                |        x{}: 0x17-0x1a (3)
0x10|                     02                        |       .        |          n: 2 (valid) 0x17-0x18 (1)
    |                                               |                |          x[0:2]: 0x18-0x1a (2)
0x10|                        00                     |        .       |            [0]: 0 x (valid) 0x18-0x19 (1)
0x10|                           01                  |         .      |            [1]: 1 x (valid) 0x19-0x1a (1)
    |                                               |                |    [2]{}: section 0x1a-0x43 (41)
0x10|                              07               |          .     |      id: "export_section" (7) 0x1a-0x1b (1)
0x10|                                 27            |           '    |      size: 39 (valid) 0x1b-0x1c (1)
    |                                               |                |      content{}: 0x1c-0x43 (39)
    |                                               |                |        ex{}: 0x1c-0x43 (39)
0x10|                                    02         |            .   |          n: 2 (valid) 0x1c-0x1d (1)
    |                                               |                |          x[0:2]: 0x1d-0x43 (38)
    |                                               |                |            [0]{}: ex 0x1d-0x30 (19)
    |                                               |                |              nm{}: 0x1d-0x2e (17)
0x10|                                       10      |             .  |                n: 16 (valid) 0x1d-0x1e (1)
0x10|                                          66 33|              f3|                b: "f32_sqrt_minus_2" 0x1e-0x2e (16)
0x20|32 5f 73 71 72 74 5f 6d 69 6e 75 73 5f 32      |2_sqrt_minus_2  |
    |                                               |                |              d{}: 0x2e-0x30 (2)
0x20|                                          00   |              . |                tag: "funcidx" (0x0) 0x2e-0x2f (1)
0x20|                                             00|               .|                x: 0 (valid) 0x2f-0x30 (1)
    |                                               |                |            [1]{}: ex 0x30-0x43 (19)
    |                                               |                |              nm{}: 0x30-0x41 (17)
0x30|10                                             |.               |                n: 16 (valid) 0x30-0x31 (1)
0x30|   66 36 34 5f 73 71 72 74 5f 6d 69 6e 75 73 5f| f64_sqrt_minus_|                b: "f64_sqrt_minus_2" 0x31-0x41 (16)
0x40|32                                             |2               |
    |                                               |                |              d{}: 0x41-0x43 (2)
0x40|   00                                          | .              |                tag: "funcidx" (0x0) 0x41-0x42 (1)
0x40|      01                                       |  .             |                x: 1 (valid) 0x42-0x43 (1)
    |                                               |                |    [3]{}: section 0x43-0x62 (31)
0x40|         0a                                    |   .            |      id: "code_section" (10) 0x43-0x44 (1)
0x40|            1d                                 |    .           |      size: 29 (valid) 0x44-0x45 (1)
    |                                               |                |      content{}: 0x45-0x62 (29)
    |                                               |                |        code{}: 0x45-0x62 (29)
0x40|               02                              |     .          |          n: 2 (valid) 0x45-0x46 (1)
    |                                               |                |          x[0:2]: 0x46-0x62 (28)
    |                                               |                |            [0]{}: code 0x46-0x52 (12)
0x40|                  0b                           |      .         |              size: 11 (valid) 0x46-0x47 (1)
    |                                               |                |              code{}: 0x47-0x52 (11)
    |                                               |                |                t{}: 0x47-0x48 (1)
0x40|                     00                        |       .        |                  n: 0 (valid) 0x47-0x48 (1)
    |                                               |                |                  x[0:0]: 0x48-0x48 (0)
    |                                               |                |                e[0:5]: 0x48-0x52 (10)
    |                                               |                |                  [0]{}: in 0x48-0x4a (2)
0x40|                        20                     |                |                    opcode: "local.get" (0x20) 0x48-0x49 (1)
0x40|                           00                  |         .      |                    x: 0 (valid) 0x49-0x4a (1)
    |                                               |                |                  [1]{}: in 0x4a-0x4b (1)
0x40|                              91               |          .     |                    opcode: "f32.sqrt" (0x91) 0x4a-0x4b (1)
    |                                               |                |                  [2]{}: in 0x4b-0x50 (5)
0x40|                                 43            |           C    |                    opcode: "f32.const" (0x43) 0x4b-0x4c (1)
0x40|                                    00 00 00 40|            ...@|                    z: 2 0x4c-0x50 (4)
    |                                               |                |                  [3]{}: in 0x50-0x51 (1)
0x50|93                                             |.               |                    opcode: "f32.sub" (0x93) 0x50-0x51 (1)
    |                                               |                |                  [4]{}: in 0x51-0x52 (1)
0x50|   0b                                          | .              |                    opcode: "end" (0xb) 0x51-0x52 (1)
    |                                               |                |            [1]{}: code 0x52-0x62 (16)
0x50|      0f                                       |  .             |              size: 15 (valid) 0x52-0x53 (1)
    |                                               |                |              code{}: 0x53-0x62 (15)
    |                                               |                |                t{}: 0x53-0x54 (1)
0x50|         00                                    |   .            |                  n: 0 (valid) 0x53-0x54 (1)
    |                                               |                |                  x[0:0]: 0x54-0x54 (0)
    |                                               |                |                e[0:5]: 0x54-0x62 (14)
    |                                               |                |                  [0]{}: in 0x54-0x56 (2)
0x50|            20                                 |                |                    opcode: "local.get" (0x20) 0x54-0x55 (1)
0x50|               00                              |     .          |                    x: 0 (valid) 0x55-0x56 (1)
    |                                               |                |                  [1]{}: in 0x56-0x57 (1)
0x50|                  9f                           |      .         |                    opcode: "f64.sqrt" (0x9f) 0x56-0x57 (1)
    |                                               |                |                  [2]{}: in 0x57-0x60 (9)
0x50|                     44                        |       D        |                    opcode: "f64.const" (0x44) 0x57-0x58 (1)
0x50|                        00 00 00 00 00 00 00 40|        .......@|                    z: 2 0x58-0x60 (8)
    |                                               |                |                  [3]{}: in 0x60-0x61 (1)
0x60|a1                                             |.               |                    opcode: "f64.sub" (0xa1) 0x60-0x61 (1)
    |                                               |                |                  [4]{}: in 0x61-0x62 (1)
0x60|   0b|                                         | .|             |                    opcode: "end" (0xb) 0x61-0x62 (1)
