$ fq -d wasm dv float_exprs-88.wasm
    |00 01 02 03 04 05 06 07 08 09 0a 0b 0c 0d 0e 0f|0123456789abcdef|.{}: float_exprs-88.wasm (wasm) 0x0-0x86.7 (135)
0x00|00 61 73 6d                                    |.asm            |  magic: raw bits (valid) 0x0-0x3.7 (4)
0x00|            01 00 00 00                        |    ....        |  version: 1 0x4-0x7.7 (4)
    |                                               |                |  sections[0:4]: 0x8-0x86.7 (127)
    |                                               |                |    [0]{}: section 0x8-0x16.7 (15)
0x00|                        01                     |        .       |      id: "type section" (1) 0x8-0x8.7 (1)
0x00|                           0d                  |         .      |      size: 13 0x9-0x9.7 (1)
    |                                               |                |      content{}: 0xa-0x16.7 (13)
    |                                               |                |        ft{}: 0xa-0x16.7 (13)
0x00|                              01               |          .     |          n: 1 0xa-0xa.7 (1)
    |                                               |                |          x[0:1]: 0xb-0x16.7 (12)
    |                                               |                |            [0]{}: ft 0xb-0x16.7 (12)
0x00|                                 60            |           `    |              tag: 0x60 (valid) 0xb-0xb.7 (1)
    |                                               |                |              rt1{}: 0xc-0x14.7 (9)
0x00|                                    08         |            .   |                n: 8 0xc-0xc.7 (1)
    |                                               |                |                x[0:8]: 0xd-0x14.7 (8)
0x00|                                       7c      |             |  |                  [0]: "f64" (0x7c) t 0xd-0xd.7 (1)
0x00|                                          7c   |              | |                  [1]: "f64" (0x7c) t 0xe-0xe.7 (1)
0x00|                                             7c|               ||                  [2]: "f64" (0x7c) t 0xf-0xf.7 (1)
0x10|7c                                             ||               |                  [3]: "f64" (0x7c) t 0x10-0x10.7 (1)
0x10|   7c                                          | |              |                  [4]: "f64" (0x7c) t 0x11-0x11.7 (1)
0x10|      7c                                       |  |             |                  [5]: "f64" (0x7c) t 0x12-0x12.7 (1)
0x10|         7c                                    |   |            |                  [6]: "f64" (0x7c) t 0x13-0x13.7 (1)
0x10|            7c                                 |    |           |                  [7]: "f64" (0x7c) t 0x14-0x14.7 (1)
    |                                               |                |              rt2{}: 0x15-0x16.7 (2)
0x10|               01                              |     .          |                n: 1 0x15-0x15.7 (1)
    |                                               |                |                x[0:1]: 0x16-0x16.7 (1)
0x10|                  7c                           |      |         |                  [0]: "f64" (0x7c) t 0x16-0x16.7 (1)
    |                                               |                |    [1]{}: section 0x17-0x1b.7 (5)
0x10|                     03                        |       .        |      id: "function section" (3) 0x17-0x17.7 (1)
0x10|                        03                     |        .       |      size: 3 0x18-0x18.7 (1)
    |                                               |                |      content{}: 0x19-0x1b.7 (3)
    |                                               |                |        x{}: 0x19-0x1b.7 (3)
0x10|                           02                  |         .      |          n: 2 0x19-0x19.7 (1)
    |                                               |                |          x[0:2]: 0x1a-0x1b.7 (2)
0x10|                              00               |          .     |            [0]: 0 x 0x1a-0x1a.7 (1)
0x10|                                 00            |           .    |            [1]: 0 x 0x1b-0x1b.7 (1)
    |                                               |                |    [2]{}: section 0x1c-0x4f.7 (52)
0x10|                                    07         |            .   |      id: "export section" (7) 0x1c-0x1c.7 (1)
0x10|                                       32      |             2  |      size: 50 0x1d-0x1d.7 (1)
    |                                               |                |      content{}: 0x1e-0x4f.7 (50)
    |                                               |                |        ex{}: 0x1e-0x4f.7 (50)
0x10|                                          02   |              . |          n: 2 0x1e-0x1e.7 (1)
    |                                               |                |          x[0:2]: 0x1f-0x4f.7 (49)
    |                                               |                |            [0]{}: ex 0x1f-0x34.7 (22)
    |                                               |                |              nm{}: 0x1f-0x32.7 (20)
0x10|                                             13|               .|                n: 19 0x1f-0x1f.7 (1)
0x20|64 6f 74 5f 70 72 6f 64 75 63 74 5f 65 78 61 6d|dot_product_exam|                b: "dot_product_example" 0x20-0x32.7 (19)
0x30|70 6c 65                                       |ple             |
    |                                               |                |              d{}: 0x33-0x34.7 (2)
0x30|         00                                    |   .            |                tag: "funcidx" (0x0) 0x33-0x33.7 (1)
0x30|            00                                 |    .           |                x: 0 0x34-0x34.7 (1)
    |                                               |                |            [1]{}: ex 0x35-0x4f.7 (27)
    |                                               |                |              nm{}: 0x35-0x4d.7 (25)
0x30|               18                              |     .          |                n: 24 0x35-0x35.7 (1)
0x30|                  77 69 74 68 5f 62 69 6e 61 72|      with_binar|                b: "with_binary_sum_collapse" 0x36-0x4d.7 (24)
0x40|79 5f 73 75 6d 5f 63 6f 6c 6c 61 70 73 65      |y_sum_collapse  |
    |                                               |                |              d{}: 0x4e-0x4f.7 (2)
0x40|                                          00   |              . |                tag: "funcidx" (0x0) 0x4e-0x4e.7 (1)
0x40|                                             01|               .|                x: 1 0x4f-0x4f.7 (1)
    |                                               |                |    [3]{}: section 0x50-0x86.7 (55)
0x50|0a                                             |.               |      id: "code section" (10) 0x50-0x50.7 (1)
0x50|   35                                          | 5              |      size: 53 0x51-0x51.7 (1)
    |                                               |                |      content{}: 0x52-0x86.7 (53)
    |                                               |                |        code{}: 0x52-0x86.7 (53)
0x50|      02                                       |  .             |          n: 2 0x52-0x52.7 (1)
    |                                               |                |          x[0:2]: 0x53-0x86.7 (52)
    |                                               |                |            [0]{}: code 0x53-0x6c.7 (26)
0x50|         19                                    |   .            |              size: 25 0x53-0x53.7 (1)
    |                                               |                |              code{}: 0x54-0x6c.7 (25)
    |                                               |                |                t{}: 0x54-0x54.7 (1)
0x50|            00                                 |    .           |                  n: 0 0x54-0x54.7 (1)
    |                                               |                |                  x[0:0]: 0x55-NA (0)
    |                                               |                |                e[0:16]: 0x55-0x6c.7 (24)
    |                                               |                |                  [0]{}: in 0x55-0x56.7 (2)
0x50|               20                              |                |                    local.get: 0x20 (valid) 0x55-0x55.7 (1)
0x50|                  00                           |      .         |                    x: 0 0x56-0x56.7 (1)
    |                                               |                |                  [1]{}: in 0x57-0x58.7 (2)
0x50|                     20                        |                |                    local.get: 0x20 (valid) 0x57-0x57.7 (1)
0x50|                        04                     |        .       |                    x: 4 0x58-0x58.7 (1)
    |                                               |                |                  [2]{}: in 0x59-0x59.7 (1)
0x50|                           a2                  |         .      |                    f64.mul: 0xa2 (valid) 0x59-0x59.7 (1)
    |                                               |                |                  [3]{}: in 0x5a-0x5b.7 (2)
0x50|                              20               |                |                    local.get: 0x20 (valid) 0x5a-0x5a.7 (1)
0x50|                                 01            |           .    |                    x: 1 0x5b-0x5b.7 (1)
    |                                               |                |                  [4]{}: in 0x5c-0x5d.7 (2)
0x50|                                    20         |                |                    local.get: 0x20 (valid) 0x5c-0x5c.7 (1)
0x50|                                       05      |             .  |                    x: 5 0x5d-0x5d.7 (1)
    |                                               |                |                  [5]{}: in 0x5e-0x5e.7 (1)
0x50|                                          a2   |              . |                    f64.mul: 0xa2 (valid) 0x5e-0x5e.7 (1)
    |                                               |                |                  [6]{}: in 0x5f-0x5f.7 (1)
0x50|                                             a0|               .|                    f64.add: 0xa0 (valid) 0x5f-0x5f.7 (1)
    |                                               |                |                  [7]{}: in 0x60-0x61.7 (2)
0x60|20                                             |                |                    local.get: 0x20 (valid) 0x60-0x60.7 (1)
0x60|   02                                          | .              |                    x: 2 0x61-0x61.7 (1)
    |                                               |                |                  [8]{}: in 0x62-0x63.7 (2)
0x60|      20                                       |                |                    local.get: 0x20 (valid) 0x62-0x62.7 (1)
0x60|         06                                    |   .            |                    x: 6 0x63-0x63.7 (1)
    |                                               |                |                  [9]{}: in 0x64-0x64.7 (1)
0x60|            a2                                 |    .           |                    f64.mul: 0xa2 (valid) 0x64-0x64.7 (1)
    |                                               |                |                  [10]{}: in 0x65-0x65.7 (1)
0x60|               a0                              |     .          |                    f64.add: 0xa0 (valid) 0x65-0x65.7 (1)
    |                                               |                |                  [11]{}: in 0x66-0x67.7 (2)
0x60|                  20                           |                |                    local.get: 0x20 (valid) 0x66-0x66.7 (1)
0x60|                     03                        |       .        |                    x: 3 0x67-0x67.7 (1)
    |                                               |                |                  [12]{}: in 0x68-0x69.7 (2)
0x60|                        20                     |                |                    local.get: 0x20 (valid) 0x68-0x68.7 (1)
0x60|                           07                  |         .      |                    x: 7 0x69-0x69.7 (1)
    |                                               |                |                  [13]{}: in 0x6a-0x6a.7 (1)
0x60|                              a2               |          .     |                    f64.mul: 0xa2 (valid) 0x6a-0x6a.7 (1)
    |                                               |                |                  [14]{}: in 0x6b-0x6b.7 (1)
0x60|                                 a0            |           .    |                    f64.add: 0xa0 (valid) 0x6b-0x6b.7 (1)
    |                                               |                |                  [15]{}: in 0x6c-0x6c.7 (1)
0x60|                                    0b         |            .   |                    end: 0xb (valid) 0x6c-0x6c.7 (1)
    |                                               |                |            [1]{}: code 0x6d-0x86.7 (26)
0x60|                                       19      |             .  |              size: 25 0x6d-0x6d.7 (1)
    |                                               |                |              code{}: 0x6e-0x86.7 (25)
    |                                               |                |                t{}: 0x6e-0x6e.7 (1)
0x60|                                          00   |              . |                  n: 0 0x6e-0x6e.7 (1)
    |                                               |                |                  x[0:0]: 0x6f-NA (0)
    |                                               |                |                e[0:16]: 0x6f-0x86.7 (24)
    |                                               |                |                  [0]{}: in 0x6f-0x70.7 (2)
0x60|                                             20|                |                    local.get: 0x20 (valid) 0x6f-0x6f.7 (1)
0x70|00                                             |.               |                    x: 0 0x70-0x70.7 (1)
    |                                               |                |                  [1]{}: in 0x71-0x72.7 (2)
0x70|   20                                          |                |                    local.get: 0x20 (valid) 0x71-0x71.7 (1)
0x70|      04                                       |  .             |                    x: 4 0x72-0x72.7 (1)
    |                                               |                |                  [2]{}: in 0x73-0x73.7 (1)
0x70|         a2                                    |   .            |                    f64.mul: 0xa2 (valid) 0x73-0x73.7 (1)
    |                                               |                |                  [3]{}: in 0x74-0x75.7 (2)
0x70|            20                                 |                |                    local.get: 0x20 (valid) 0x74-0x74.7 (1)
0x70|               01                              |     .          |                    x: 1 0x75-0x75.7 (1)
    |                                               |                |                  [4]{}: in 0x76-0x77.7 (2)
0x70|                  20                           |                |                    local.get: 0x20 (valid) 0x76-0x76.7 (1)
0x70|                     05                        |       .        |                    x: 5 0x77-0x77.7 (1)
    |                                               |                |                  [5]{}: in 0x78-0x78.7 (1)
0x70|                        a2                     |        .       |                    f64.mul: 0xa2 (valid) 0x78-0x78.7 (1)
    |                                               |                |                  [6]{}: in 0x79-0x79.7 (1)
0x70|                           a0                  |         .      |                    f64.add: 0xa0 (valid) 0x79-0x79.7 (1)
    |                                               |                |                  [7]{}: in 0x7a-0x7b.7 (2)
0x70|                              20               |                |                    local.get: 0x20 (valid) 0x7a-0x7a.7 (1)
0x70|                                 02            |           .    |                    x: 2 0x7b-0x7b.7 (1)
    |                                               |                |                  [8]{}: in 0x7c-0x7d.7 (2)
0x70|                                    20         |                |                    local.get: 0x20 (valid) 0x7c-0x7c.7 (1)
0x70|                                       06      |             .  |                    x: 6 0x7d-0x7d.7 (1)
    |                                               |                |                  [9]{}: in 0x7e-0x7e.7 (1)
0x70|                                          a2   |              . |                    f64.mul: 0xa2 (valid) 0x7e-0x7e.7 (1)
    |                                               |                |                  [10]{}: in 0x7f-0x80.7 (2)
0x70|                                             20|                |                    local.get: 0x20 (valid) 0x7f-0x7f.7 (1)
0x80|03                                             |.               |                    x: 3 0x80-0x80.7 (1)
    |                                               |                |                  [11]{}: in 0x81-0x82.7 (2)
0x80|   20                                          |                |                    local.get: 0x20 (valid) 0x81-0x81.7 (1)
0x80|      07                                       |  .             |                    x: 7 0x82-0x82.7 (1)
    |                                               |                |                  [12]{}: in 0x83-0x83.7 (1)
0x80|         a2                                    |   .            |                    f64.mul: 0xa2 (valid) 0x83-0x83.7 (1)
    |                                               |                |                  [13]{}: in 0x84-0x84.7 (1)
0x80|            a0                                 |    .           |                    f64.add: 0xa0 (valid) 0x84-0x84.7 (1)
    |                                               |                |                  [14]{}: in 0x85-0x85.7 (1)
0x80|               a0                              |     .          |                    f64.add: 0xa0 (valid) 0x85-0x85.7 (1)
    |                                               |                |                  [15]{}: in 0x86-0x86.7 (1)
0x80|                  0b|                          |      .|        |                    end: 0xb (valid) 0x86-0x86.7 (1)
