$ fq -d wasm dv float_exprs-82.wasm
    |00 01 02 03 04 05 06 07 08 09 0a 0b 0c 0d 0e 0f|0123456789abcdef|.{}: float_exprs-82.wasm (wasm) 0x0-0xe7 (231)
0x00|00 61 73 6d                                    |.asm            |  magic: raw bits (valid) 0x0-0x4 (4)
0x00|            01 00 00 00                        |    ....        |  version: 1 0x4-0x8 (4)
    |                                               |                |  sections[0:4]: 0x8-0xe7 (223)
    |                                               |                |    [0]{}: section 0x8-0x19 (17)
0x00|                        01                     |        .       |      id: "type_section" (1) 0x8-0x9 (1)
0x00|                           0f                  |         .      |      size: 15 (valid) 0x9-0xa (1)
    |                                               |                |      content{}: 0xa-0x19 (15)
    |                                               |                |        ft{}: 0xa-0x19 (15)
0x00|                              02               |          .     |          n: 2 (valid) 0xa-0xb (1)
    |                                               |                |          x[0:2]: 0xb-0x19 (14)
    |                                               |                |            [0]{}: ft 0xb-0x12 (7)
0x00|                                 60            |           `    |              tag: 0x60 (valid) 0xb-0xc (1)
    |                                               |                |              rt1{}: 0xc-0x10 (4)
0x00|                                    03         |            .   |                n: 3 (valid) 0xc-0xd (1)
    |                                               |                |                x[0:3]: 0xd-0x10 (3)
0x00|                                       7d      |             }  |                  [0]: "f32" (0x7d) t 0xd-0xe (1)
0x00|                                          7d   |              } |                  [1]: "f32" (0x7d) t 0xe-0xf (1)
0x00|                                             7d|               }|                  [2]: "f32" (0x7d) t 0xf-0x10 (1)
    |                                               |                |              rt2{}: 0x10-0x12 (2)
0x10|01                                             |.               |                n: 1 (valid) 0x10-0x11 (1)
    |                                               |                |                x[0:1]: 0x11-0x12 (1)
0x10|   7f                                          | .              |                  [0]: "i32" (0x7f) t 0x11-0x12 (1)
    |                                               |                |            [1]{}: ft 0x12-0x19 (7)
0x10|      60                                       |  `             |              tag: 0x60 (valid) 0x12-0x13 (1)
    |                                               |                |              rt1{}: 0x13-0x17 (4)
0x10|         03                                    |   .            |                n: 3 (valid) 0x13-0x14 (1)
    |                                               |                |                x[0:3]: 0x14-0x17 (3)
0x10|            7c                                 |    |           |                  [0]: "f64" (0x7c) t 0x14-0x15 (1)
0x10|               7c                              |     |          |                  [1]: "f64" (0x7c) t 0x15-0x16 (1)
0x10|                  7c                           |      |         |                  [2]: "f64" (0x7c) t 0x16-0x17 (1)
    |                                               |                |              rt2{}: 0x17-0x19 (2)
0x10|                     01                        |       .        |                n: 1 (valid) 0x17-0x18 (1)
    |                                               |                |                x[0:1]: 0x18-0x19 (1)
0x10|                        7f                     |        .       |                  [0]: "i32" (0x7f) t 0x18-0x19 (1)
    |                                               |                |    [1]{}: section 0x19-0x20 (7)
0x10|                           03                  |         .      |      id: "function_section" (3) 0x19-0x1a (1)
0x10|                              05               |          .     |      size: 5 (valid) 0x1a-0x1b (1)
    |                                               |                |      content{}: 0x1b-0x20 (5)
    |                                               |                |        x{}: 0x1b-0x20 (5)
0x10|                                 04            |           .    |          n: 4 (valid) 0x1b-0x1c (1)
    |                                               |                |          x[0:4]: 0x1c-0x20 (4)
0x10|                                    00         |            .   |            [0]: 0 x (valid) 0x1c-0x1d (1)
0x10|                                       00      |             .  |            [1]: 0 x (valid) 0x1d-0x1e (1)
0x10|                                          01   |              . |            [2]: 1 x (valid) 0x1e-0x1f (1)
0x10|                                             01|               .|            [3]: 1 x (valid) 0x1f-0x20 (1)
    |                                               |                |    [2]{}: section 0x20-0xac (140)
0x20|07                                             |.               |      id: "export_section" (7) 0x20-0x21 (1)
0x20|   89 01                                       | ..             |      size: 137 (valid) 0x21-0x23 (2)
    |                                               |                |      content{}: 0x23-0xac (137)
    |                                               |                |        ex{}: 0x23-0xac (137)
0x20|         04                                    |   .            |          n: 4 (valid) 0x23-0x24 (1)
    |                                               |                |          x[0:4]: 0x24-0xac (136)
    |                                               |                |            [0]{}: ex 0x24-0x46 (34)
    |                                               |                |              nm{}: 0x24-0x44 (32)
0x20|            1f                                 |    .           |                n: 31 (valid) 0x24-0x25 (1)
0x20|               66 33 32 2e 6e 6f 5f 66 6f 6c 64|     f32.no_fold|                b: "f32.no_fold_add_le_monotonicity" 0x25-0x44 (31)
0x30|5f 61 64 64 5f 6c 65 5f 6d 6f 6e 6f 74 6f 6e 69|_add_le_monotoni|
0x40|63 69 74 79                                    |city            |
    |                                               |                |              d{}: 0x44-0x46 (2)
0x40|            00                                 |    .           |                tag: "funcidx" (0x0) 0x44-0x45 (1)
0x40|               00                              |     .          |                x: 0 (valid) 0x45-0x46 (1)
    |                                               |                |            [1]{}: ex 0x46-0x68 (34)
    |                                               |                |              nm{}: 0x46-0x66 (32)
0x40|                  1f                           |      .         |                n: 31 (valid) 0x46-0x47 (1)
0x40|                     66 33 32 2e 6e 6f 5f 66 6f|       f32.no_fo|                b: "f32.no_fold_add_ge_monotonicity" 0x47-0x66 (31)
0x50|6c 64 5f 61 64 64 5f 67 65 5f 6d 6f 6e 6f 74 6f|ld_add_ge_monoto|
0x60|6e 69 63 69 74 79                              |nicity          |
    |                                               |                |              d{}: 0x66-0x68 (2)
0x60|                  00                           |      .         |                tag: "funcidx" (0x0) 0x66-0x67 (1)
0x60|                     01                        |       .        |                x: 1 (valid) 0x67-0x68 (1)
    |                                               |                |            [2]{}: ex 0x68-0x8a (34)
    |                                               |                |              nm{}: 0x68-0x88 (32)
0x60|                        1f                     |        .       |                n: 31 (valid) 0x68-0x69 (1)
0x60|                           66 36 34 2e 6e 6f 5f|         f64.no_|                b: "f64.no_fold_add_le_monotonicity" 0x69-0x88 (31)
0x70|66 6f 6c 64 5f 61 64 64 5f 6c 65 5f 6d 6f 6e 6f|fold_add_le_mono|
0x80|74 6f 6e 69 63 69 74 79                        |tonicity        |
    |                                               |                |              d{}: 0x88-0x8a (2)
0x80|                        00                     |        .       |                tag: "funcidx" (0x0) 0x88-0x89 (1)
0x80|                           02                  |         .      |                x: 2 (valid) 0x89-0x8a (1)
    |                                               |                |            [3]{}: ex 0x8a-0xac (34)
    |                                               |                |              nm{}: 0x8a-0xaa (32)
0x80|                              1f               |          .     |                n: 31 (valid) 0x8a-0x8b (1)
0x80|                                 66 36 34 2e 6e|           f64.n|                b: "f64.no_fold_add_ge_monotonicity" 0x8b-0xaa (31)
0x90|6f 5f 66 6f 6c 64 5f 61 64 64 5f 67 65 5f 6d 6f|o_fold_add_ge_mo|
0xa0|6e 6f 74 6f 6e 69 63 69 74 79                  |notonicity      |
    |                                               |                |              d{}: 0xaa-0xac (2)
0xa0|                              00               |          .     |                tag: "funcidx" (0x0) 0xaa-0xab (1)
0xa0|                                 03            |           .    |                x: 3 (valid) 0xab-0xac (1)
    |                                               |                |    [3]{}: section 0xac-0xe7 (59)
0xa0|                                    0a         |            .   |      id: "code_section" (10) 0xac-0xad (1)
0xa0|                                       39      |             9  |      size: 57 (valid) 0xad-0xae (1)
    |                                               |                |      content{}: 0xae-0xe7 (57)
    |                                               |                |        code{}: 0xae-0xe7 (57)
0xa0|                                          04   |              . |          n: 4 (valid) 0xae-0xaf (1)
    |                                               |                |          x[0:4]: 0xaf-0xe7 (56)
    |                                               |                |            [0]{}: code 0xaf-0xbd (14)
0xa0|                                             0d|               .|              size: 13 (valid) 0xaf-0xb0 (1)
    |                                               |                |              code{}: 0xb0-0xbd (13)
    |                                               |                |                t{}: 0xb0-0xb1 (1)
0xb0|00                                             |.               |                  n: 0 (valid) 0xb0-0xb1 (1)
    |                                               |                |                  x[0:0]: 0xb1-0xb1 (0)
    |                                               |                |                e[0:8]: 0xb1-0xbd (12)
    |                                               |                |                  [0]{}: in 0xb1-0xb3 (2)
0xb0|   20                                          |                |                    opcode: "local.get" (0x20) 0xb1-0xb2 (1)
0xb0|      00                                       |  .             |                    x: 0 (valid) 0xb2-0xb3 (1)
    |                                               |                |                  [1]{}: in 0xb3-0xb5 (2)
0xb0|         20                                    |                |                    opcode: "local.get" (0x20) 0xb3-0xb4 (1)
0xb0|            02                                 |    .           |                    x: 2 (valid) 0xb4-0xb5 (1)
    |                                               |                |                  [2]{}: in 0xb5-0xb6 (1)
0xb0|               92                              |     .          |                    opcode: "f32.add" (0x92) 0xb5-0xb6 (1)
    |                                               |                |                  [3]{}: in 0xb6-0xb8 (2)
0xb0|                  20                           |                |                    opcode: "local.get" (0x20) 0xb6-0xb7 (1)
0xb0|                     01                        |       .        |                    x: 1 (valid) 0xb7-0xb8 (1)
    |                                               |                |                  [4]{}: in 0xb8-0xba (2)
0xb0|                        20                     |                |                    opcode: "local.get" (0x20) 0xb8-0xb9 (1)
0xb0|                           02                  |         .      |                    x: 2 (valid) 0xb9-0xba (1)
    |                                               |                |                  [5]{}: in 0xba-0xbb (1)
0xb0|                              92               |          .     |                    opcode: "f32.add" (0x92) 0xba-0xbb (1)
    |                                               |                |                  [6]{}: in 0xbb-0xbc (1)
0xb0|                                 5f            |           _    |                    opcode: "f32.le" (0x5f) 0xbb-0xbc (1)
    |                                               |                |                  [7]{}: in 0xbc-0xbd (1)
0xb0|                                    0b         |            .   |                    opcode: "end" (0xb) 0xbc-0xbd (1)
    |                                               |                |            [1]{}: code 0xbd-0xcb (14)
0xb0|                                       0d      |             .  |              size: 13 (valid) 0xbd-0xbe (1)
    |                                               |                |              code{}: 0xbe-0xcb (13)
    |                                               |                |                t{}: 0xbe-0xbf (1)
0xb0|                                          00   |              . |                  n: 0 (valid) 0xbe-0xbf (1)
    |                                               |                |                  x[0:0]: 0xbf-0xbf (0)
    |                                               |                |                e[0:8]: 0xbf-0xcb (12)
    |                                               |                |                  [0]{}: in 0xbf-0xc1 (2)
0xb0|                                             20|                |                    opcode: "local.get" (0x20) 0xbf-0xc0 (1)
0xc0|00                                             |.               |                    x: 0 (valid) 0xc0-0xc1 (1)
    |                                               |                |                  [1]{}: in 0xc1-0xc3 (2)
0xc0|   20                                          |                |                    opcode: "local.get" (0x20) 0xc1-0xc2 (1)
0xc0|      02                                       |  .             |                    x: 2 (valid) 0xc2-0xc3 (1)
    |                                               |                |                  [2]{}: in 0xc3-0xc4 (1)
0xc0|         92                                    |   .            |                    opcode: "f32.add" (0x92) 0xc3-0xc4 (1)
    |                                               |                |                  [3]{}: in 0xc4-0xc6 (2)
0xc0|            20                                 |                |                    opcode: "local.get" (0x20) 0xc4-0xc5 (1)
0xc0|               01                              |     .          |                    x: 1 (valid) 0xc5-0xc6 (1)
    |                                               |                |                  [4]{}: in 0xc6-0xc8 (2)
0xc0|                  20                           |                |                    opcode: "local.get" (0x20) 0xc6-0xc7 (1)
0xc0|                     02                        |       .        |                    x: 2 (valid) 0xc7-0xc8 (1)
    |                                               |                |                  [5]{}: in 0xc8-0xc9 (1)
0xc0|                        92                     |        .       |                    opcode: "f32.add" (0x92) 0xc8-0xc9 (1)
    |                                               |                |                  [6]{}: in 0xc9-0xca (1)
0xc0|                           60                  |         `      |                    opcode: "f32.ge" (0x60) 0xc9-0xca (1)
    |                                               |                |                  [7]{}: in 0xca-0xcb (1)
0xc0|                              0b               |          .     |                    opcode: "end" (0xb) 0xca-0xcb (1)
    |                                               |                |            [2]{}: code 0xcb-0xd9 (14)
0xc0|                                 0d            |           .    |              size: 13 (valid) 0xcb-0xcc (1)
    |                                               |                |              code{}: 0xcc-0xd9 (13)
    |                                               |                |                t{}: 0xcc-0xcd (1)
0xc0|                                    00         |            .   |                  n: 0 (valid) 0xcc-0xcd (1)
    |                                               |                |                  x[0:0]: 0xcd-0xcd (0)
    |                                               |                |                e[0:8]: 0xcd-0xd9 (12)
    |                                               |                |                  [0]{}: in 0xcd-0xcf (2)
0xc0|                                       20      |                |                    opcode: "local.get" (0x20) 0xcd-0xce (1)
0xc0|                                          00   |              . |                    x: 0 (valid) 0xce-0xcf (1)
    |                                               |                |                  [1]{}: in 0xcf-0xd1 (2)
0xc0|                                             20|                |                    opcode: "local.get" (0x20) 0xcf-0xd0 (1)
0xd0|02                                             |.               |                    x: 2 (valid) 0xd0-0xd1 (1)
    |                                               |                |                  [2]{}: in 0xd1-0xd2 (1)
0xd0|   a0                                          | .              |                    opcode: "f64.add" (0xa0) 0xd1-0xd2 (1)
    |                                               |                |                  [3]{}: in 0xd2-0xd4 (2)
0xd0|      20                                       |                |                    opcode: "local.get" (0x20) 0xd2-0xd3 (1)
0xd0|         01                                    |   .            |                    x: 1 (valid) 0xd3-0xd4 (1)
    |                                               |                |                  [4]{}: in 0xd4-0xd6 (2)
0xd0|            20                                 |                |                    opcode: "local.get" (0x20) 0xd4-0xd5 (1)
0xd0|               02                              |     .          |                    x: 2 (valid) 0xd5-0xd6 (1)
    |                                               |                |                  [5]{}: in 0xd6-0xd7 (1)
0xd0|                  a0                           |      .         |                    opcode: "f64.add" (0xa0) 0xd6-0xd7 (1)
    |                                               |                |                  [6]{}: in 0xd7-0xd8 (1)
0xd0|                     65                        |       e        |                    opcode: "f64.le" (0x65) 0xd7-0xd8 (1)
    |                                               |                |                  [7]{}: in 0xd8-0xd9 (1)
0xd0|                        0b                     |        .       |                    opcode: "end" (0xb) 0xd8-0xd9 (1)
    |                                               |                |            [3]{}: code 0xd9-0xe7 (14)
0xd0|                           0d                  |         .      |              size: 13 (valid) 0xd9-0xda (1)
    |                                               |                |              code{}: 0xda-0xe7 (13)
    |                                               |                |                t{}: 0xda-0xdb (1)
0xd0|                              00               |          .     |                  n: 0 (valid) 0xda-0xdb (1)
    |                                               |                |                  x[0:0]: 0xdb-0xdb (0)
    |                                               |                |                e[0:8]: 0xdb-0xe7 (12)
    |                                               |                |                  [0]{}: in 0xdb-0xdd (2)
0xd0|                                 20            |                |                    opcode: "local.get" (0x20) 0xdb-0xdc (1)
0xd0|                                    00         |            .   |                    x: 0 (valid) 0xdc-0xdd (1)
    |                                               |                |                  [1]{}: in 0xdd-0xdf (2)
0xd0|                                       20      |                |                    opcode: "local.get" (0x20) 0xdd-0xde (1)
0xd0|                                          02   |              . |                    x: 2 (valid) 0xde-0xdf (1)
    |                                               |                |                  [2]{}: in 0xdf-0xe0 (1)
0xd0|                                             a0|               .|                    opcode: "f64.add" (0xa0) 0xdf-0xe0 (1)
    |                                               |                |                  [3]{}: in 0xe0-0xe2 (2)
0xe0|20                                             |                |                    opcode: "local.get" (0x20) 0xe0-0xe1 (1)
0xe0|   01                                          | .              |                    x: 1 (valid) 0xe1-0xe2 (1)
    |                                               |                |                  [4]{}: in 0xe2-0xe4 (2)
0xe0|      20                                       |                |                    opcode: "local.get" (0x20) 0xe2-0xe3 (1)
0xe0|         02                                    |   .            |                    x: 2 (valid) 0xe3-0xe4 (1)
    |                                               |                |                  [5]{}: in 0xe4-0xe5 (1)
0xe0|            a0                                 |    .           |                    opcode: "f64.add" (0xa0) 0xe4-0xe5 (1)
    |                                               |                |                  [6]{}: in 0xe5-0xe6 (1)
0xe0|               66                              |     f          |                    opcode: "f64.ge" (0x66) 0xe5-0xe6 (1)
    |                                               |                |                  [7]{}: in 0xe6-0xe7 (1)
0xe0|                  0b|                          |      .|        |                    opcode: "end" (0xb) 0xe6-0xe7 (1)
