$ fq -d wasm dv float_exprs-83.wasm
    |00 01 02 03 04 05 06 07 08 09 0a 0b 0c 0d 0e 0f|0123456789abcdef|.{}: float_exprs-83.wasm (wasm) 0x0-0xd8 (216)
0x00|00 61 73 6d                                    |.asm            |  magic: raw bits (valid) 0x0-0x4 (4)
0x00|            01 00 00 00                        |    ....        |  version: 1 0x4-0x8 (4)
    |                                               |                |  sections[0:4]: 0x8-0xd8 (208)
    |                                               |                |    [0]{}: section 0x8-0x17 (15)
0x00|                        01                     |        .       |      id: "type_section" (1) 0x8-0x9 (1)
0x00|                           0d                  |         .      |      size: 13 (valid) 0x9-0xa (1)
    |                                               |                |      content{}: 0xa-0x17 (13)
    |                                               |                |        ft{}: 0xa-0x17 (13)
0x00|                              02               |          .     |          n: 2 (valid) 0xa-0xb (1)
    |                                               |                |          x[0:2]: 0xb-0x17 (12)
    |                                               |                |            [0]{}: ft 0xb-0x11 (6)
0x00|                                 60            |           `    |              tag: 0x60 (valid) 0xb-0xc (1)
    |                                               |                |              rt1{}: 0xc-0xf (3)
0x00|                                    02         |            .   |                n: 2 (valid) 0xc-0xd (1)
    |                                               |                |                x[0:2]: 0xd-0xf (2)
0x00|                                       7d      |             }  |                  [0]: "f32" (0x7d) t 0xd-0xe (1)
0x00|                                          7d   |              } |                  [1]: "f32" (0x7d) t 0xe-0xf (1)
    |                                               |                |              rt2{}: 0xf-0x11 (2)
0x00|                                             01|               .|                n: 1 (valid) 0xf-0x10 (1)
    |                                               |                |                x[0:1]: 0x10-0x11 (1)
0x10|7f                                             |.               |                  [0]: "i32" (0x7f) t 0x10-0x11 (1)
    |                                               |                |            [1]{}: ft 0x11-0x17 (6)
0x10|   60                                          | `              |              tag: 0x60 (valid) 0x11-0x12 (1)
    |                                               |                |              rt1{}: 0x12-0x15 (3)
0x10|      02                                       |  .             |                n: 2 (valid) 0x12-0x13 (1)
    |                                               |                |                x[0:2]: 0x13-0x15 (2)
0x10|         7c                                    |   |            |                  [0]: "f64" (0x7c) t 0x13-0x14 (1)
0x10|            7c                                 |    |           |                  [1]: "f64" (0x7c) t 0x14-0x15 (1)
    |                                               |                |              rt2{}: 0x15-0x17 (2)
0x10|               01                              |     .          |                n: 1 (valid) 0x15-0x16 (1)
    |                                               |                |                x[0:1]: 0x16-0x17 (1)
0x10|                  7f                           |      .         |                  [0]: "i32" (0x7f) t 0x16-0x17 (1)
    |                                               |                |    [1]{}: section 0x17-0x22 (11)
0x10|                     03                        |       .        |      id: "function_section" (3) 0x17-0x18 (1)
0x10|                        09                     |        .       |      size: 9 (valid) 0x18-0x19 (1)
    |                                               |                |      content{}: 0x19-0x22 (9)
    |                                               |                |        x{}: 0x19-0x22 (9)
0x10|                           08                  |         .      |          n: 8 (valid) 0x19-0x1a (1)
    |                                               |                |          x[0:8]: 0x1a-0x22 (8)
0x10|                              00               |          .     |            [0]: 0 x (valid) 0x1a-0x1b (1)
0x10|                                 00            |           .    |            [1]: 0 x (valid) 0x1b-0x1c (1)
0x10|                                    00         |            .   |            [2]: 0 x (valid) 0x1c-0x1d (1)
0x10|                                       00      |             .  |            [3]: 0 x (valid) 0x1d-0x1e (1)
0x10|                                          01   |              . |            [4]: 1 x (valid) 0x1e-0x1f (1)
0x10|                                             01|               .|            [5]: 1 x (valid) 0x1f-0x20 (1)
0x20|01                                             |.               |            [6]: 1 x (valid) 0x20-0x21 (1)
0x20|   01                                          | .              |            [7]: 1 x (valid) 0x21-0x22 (1)
    |                                               |                |    [2]{}: section 0x22-0x8d (107)
0x20|      07                                       |  .             |      id: "export_section" (7) 0x22-0x23 (1)
0x20|         69                                    |   i            |      size: 105 (valid) 0x23-0x24 (1)
    |                                               |                |      content{}: 0x24-0x8d (105)
    |                                               |                |        ex{}: 0x24-0x8d (105)
0x20|            08                                 |    .           |          n: 8 (valid) 0x24-0x25 (1)
    |                                               |                |          x[0:8]: 0x25-0x8d (104)
    |                                               |                |            [0]{}: ex 0x25-0x32 (13)
    |                                               |                |              nm{}: 0x25-0x30 (11)
0x20|               0a                              |     .          |                n: 10 (valid) 0x25-0x26 (1)
0x20|                  66 33 32 2e 6e 6f 74 5f 6c 74|      f32.not_lt|                b: "f32.not_lt" 0x26-0x30 (10)
    |                                               |                |              d{}: 0x30-0x32 (2)
0x30|00                                             |.               |                tag: "funcidx" (0x0) 0x30-0x31 (1)
0x30|   00                                          | .              |                x: 0 (valid) 0x31-0x32 (1)
    |                                               |                |            [1]{}: ex 0x32-0x3f (13)
    |                                               |                |              nm{}: 0x32-0x3d (11)
0x30|      0a                                       |  .             |                n: 10 (valid) 0x32-0x33 (1)
0x30|         66 33 32 2e 6e 6f 74 5f 6c 65         |   f32.not_le   |                b: "f32.not_le" 0x33-0x3d (10)
    |                                               |                |              d{}: 0x3d-0x3f (2)
0x30|                                       00      |             .  |                tag: "funcidx" (0x0) 0x3d-0x3e (1)
0x30|                                          01   |              . |                x: 1 (valid) 0x3e-0x3f (1)
    |                                               |                |            [2]{}: ex 0x3f-0x4c (13)
    |                                               |                |              nm{}: 0x3f-0x4a (11)
0x30|                                             0a|               .|                n: 10 (valid) 0x3f-0x40 (1)
0x40|66 33 32 2e 6e 6f 74 5f 67 74                  |f32.not_gt      |                b: "f32.not_gt" 0x40-0x4a (10)
    |                                               |                |              d{}: 0x4a-0x4c (2)
0x40|                              00               |          .     |                tag: "funcidx" (0x0) 0x4a-0x4b (1)
0x40|                                 02            |           .    |                x: 2 (valid) 0x4b-0x4c (1)
    |                                               |                |            [3]{}: ex 0x4c-0x59 (13)
    |                                               |                |              nm{}: 0x4c-0x57 (11)
0x40|                                    0a         |            .   |                n: 10 (valid) 0x4c-0x4d (1)
0x40|                                       66 33 32|             f32|                b: "f32.not_ge" 0x4d-0x57 (10)
0x50|2e 6e 6f 74 5f 67 65                           |.not_ge         |
    |                                               |                |              d{}: 0x57-0x59 (2)
0x50|                     00                        |       .        |                tag: "funcidx" (0x0) 0x57-0x58 (1)
0x50|                        03                     |        .       |                x: 3 (valid) 0x58-0x59 (1)
    |                                               |                |            [4]{}: ex 0x59-0x66 (13)
    |                                               |                |              nm{}: 0x59-0x64 (11)
0x50|                           0a                  |         .      |                n: 10 (valid) 0x59-0x5a (1)
0x50|                              66 36 34 2e 6e 6f|          f64.no|                b: "f64.not_lt" 0x5a-0x64 (10)
0x60|74 5f 6c 74                                    |t_lt            |
    |                                               |                |              d{}: 0x64-0x66 (2)
0x60|            00                                 |    .           |                tag: "funcidx" (0x0) 0x64-0x65 (1)
0x60|               04                              |     .          |                x: 4 (valid) 0x65-0x66 (1)
    |                                               |                |            [5]{}: ex 0x66-0x73 (13)
    |                                               |                |              nm{}: 0x66-0x71 (11)
0x60|                  0a                           |      .         |                n: 10 (valid) 0x66-0x67 (1)
0x60|                     66 36 34 2e 6e 6f 74 5f 6c|       f64.not_l|                b: "f64.not_le" 0x67-0x71 (10)
0x70|65                                             |e               |
    |                                               |                |              d{}: 0x71-0x73 (2)
0x70|   00                                          | .              |                tag: "funcidx" (0x0) 0x71-0x72 (1)
0x70|      05                                       |  .             |                x: 5 (valid) 0x72-0x73 (1)
    |                                               |                |            [6]{}: ex 0x73-0x80 (13)
    |                                               |                |              nm{}: 0x73-0x7e (11)
0x70|         0a                                    |   .            |                n: 10 (valid) 0x73-0x74 (1)
0x70|            66 36 34 2e 6e 6f 74 5f 67 74      |    f64.not_gt  |                b: "f64.not_gt" 0x74-0x7e (10)
    |                                               |                |              d{}: 0x7e-0x80 (2)
0x70|                                          00   |              . |                tag: "funcidx" (0x0) 0x7e-0x7f (1)
0x70|                                             06|               .|                x: 6 (valid) 0x7f-0x80 (1)
    |                                               |                |            [7]{}: ex 0x80-0x8d (13)
    |                                               |                |              nm{}: 0x80-0x8b (11)
0x80|0a                                             |.               |                n: 10 (valid) 0x80-0x81 (1)
0x80|   66 36 34 2e 6e 6f 74 5f 67 65               | f64.not_ge     |                b: "f64.not_ge" 0x81-0x8b (10)
    |                                               |                |              d{}: 0x8b-0x8d (2)
0x80|                                 00            |           .    |                tag: "funcidx" (0x0) 0x8b-0x8c (1)
0x80|                                    07         |            .   |                x: 7 (valid) 0x8c-0x8d (1)
    |                                               |                |    [3]{}: section 0x8d-0xd8 (75)
0x80|                                       0a      |             .  |      id: "code_section" (10) 0x8d-0x8e (1)
0x80|                                          49   |              I |      size: 73 (valid) 0x8e-0x8f (1)
    |                                               |                |      content{}: 0x8f-0xd8 (73)
    |                                               |                |        code{}: 0x8f-0xd8 (73)
0x80|                                             08|               .|          n: 8 (valid) 0x8f-0x90 (1)
    |                                               |                |          x[0:8]: 0x90-0xd8 (72)
    |                                               |                |            [0]{}: code 0x90-0x99 (9)
0x90|08                                             |.               |              size: 8 (valid) 0x90-0x91 (1)
    |                                               |                |              code{}: 0x91-0x99 (8)
    |                                               |                |                t{}: 0x91-0x92 (1)
0x90|   00                                          | .              |                  n: 0 (valid) 0x91-0x92 (1)
    |                                               |                |                  x[0:0]: 0x92-0x92 (0)
    |                                               |                |                e[0:5]: 0x92-0x99 (7)
    |                                               |                |                  [0]{}: in 0x92-0x94 (2)
0x90|      20                                       |                |                    opcode: "local.get" (0x20) 0x92-0x93 (1)
0x90|         00                                    |   .            |                    x: 0 (valid) 0x93-0x94 (1)
    |                                               |                |                  [1]{}: in 0x94-0x96 (2)
0x90|            20                                 |                |                    opcode: "local.get" (0x20) 0x94-0x95 (1)
0x90|               01                              |     .          |                    x: 1 (valid) 0x95-0x96 (1)
    |                                               |                |                  [2]{}: in 0x96-0x97 (1)
0x90|                  5d                           |      ]         |                    opcode: "f32.lt" (0x5d) 0x96-0x97 (1)
    |                                               |                |                  [3]{}: in 0x97-0x98 (1)
0x90|                     45                        |       E        |                    opcode: "32.eqz" (0x45) 0x97-0x98 (1)
    |                                               |                |                  [4]{}: in 0x98-0x99 (1)
0x90|                        0b                     |        .       |                    opcode: "end" (0xb) 0x98-0x99 (1)
    |                                               |                |            [1]{}: code 0x99-0xa2 (9)
0x90|                           08                  |         .      |              size: 8 (valid) 0x99-0x9a (1)
    |                                               |                |              code{}: 0x9a-0xa2 (8)
    |                                               |                |                t{}: 0x9a-0x9b (1)
0x90|                              00               |          .     |                  n: 0 (valid) 0x9a-0x9b (1)
    |                                               |                |                  x[0:0]: 0x9b-0x9b (0)
    |                                               |                |                e[0:5]: 0x9b-0xa2 (7)
    |                                               |                |                  [0]{}: in 0x9b-0x9d (2)
0x90|                                 20            |                |                    opcode: "local.get" (0x20) 0x9b-0x9c (1)
0x90|                                    00         |            .   |                    x: 0 (valid) 0x9c-0x9d (1)
    |                                               |                |                  [1]{}: in 0x9d-0x9f (2)
0x90|                                       20      |                |                    opcode: "local.get" (0x20) 0x9d-0x9e (1)
0x90|                                          01   |              . |                    x: 1 (valid) 0x9e-0x9f (1)
    |                                               |                |                  [2]{}: in 0x9f-0xa0 (1)
0x90|                                             5f|               _|                    opcode: "f32.le" (0x5f) 0x9f-0xa0 (1)
    |                                               |                |                  [3]{}: in 0xa0-0xa1 (1)
0xa0|45                                             |E               |                    opcode: "32.eqz" (0x45) 0xa0-0xa1 (1)
    |                                               |                |                  [4]{}: in 0xa1-0xa2 (1)
0xa0|   0b                                          | .              |                    opcode: "end" (0xb) 0xa1-0xa2 (1)
    |                                               |                |            [2]{}: code 0xa2-0xab (9)
0xa0|      08                                       |  .             |              size: 8 (valid) 0xa2-0xa3 (1)
    |                                               |                |              code{}: 0xa3-0xab (8)
    |                                               |                |                t{}: 0xa3-0xa4 (1)
0xa0|         00                                    |   .            |                  n: 0 (valid) 0xa3-0xa4 (1)
    |                                               |                |                  x[0:0]: 0xa4-0xa4 (0)
    |                                               |                |                e[0:5]: 0xa4-0xab (7)
    |                                               |                |                  [0]{}: in 0xa4-0xa6 (2)
0xa0|            20                                 |                |                    opcode: "local.get" (0x20) 0xa4-0xa5 (1)
0xa0|               00                              |     .          |                    x: 0 (valid) 0xa5-0xa6 (1)
    |                                               |                |                  [1]{}: in 0xa6-0xa8 (2)
0xa0|                  20                           |                |                    opcode: "local.get" (0x20) 0xa6-0xa7 (1)
0xa0|                     01                        |       .        |                    x: 1 (valid) 0xa7-0xa8 (1)
    |                                               |                |                  [2]{}: in 0xa8-0xa9 (1)
0xa0|                        5e                     |        ^       |                    opcode: "f32.gt" (0x5e) 0xa8-0xa9 (1)
    |                                               |                |                  [3]{}: in 0xa9-0xaa (1)
0xa0|                           45                  |         E      |                    opcode: "32.eqz" (0x45) 0xa9-0xaa (1)
    |                                               |                |                  [4]{}: in 0xaa-0xab (1)
0xa0|                              0b               |          .     |                    opcode: "end" (0xb) 0xaa-0xab (1)
    |                                               |                |            [3]{}: code 0xab-0xb4 (9)
0xa0|                                 08            |           .    |              size: 8 (valid) 0xab-0xac (1)
    |                                               |                |              code{}: 0xac-0xb4 (8)
    |                                               |                |                t{}: 0xac-0xad (1)
0xa0|                                    00         |            .   |                  n: 0 (valid) 0xac-0xad (1)
    |                                               |                |                  x[0:0]: 0xad-0xad (0)
    |                                               |                |                e[0:5]: 0xad-0xb4 (7)
    |                                               |                |                  [0]{}: in 0xad-0xaf (2)
0xa0|                                       20      |                |                    opcode: "local.get" (0x20) 0xad-0xae (1)
0xa0|                                          00   |              . |                    x: 0 (valid) 0xae-0xaf (1)
    |                                               |                |                  [1]{}: in 0xaf-0xb1 (2)
0xa0|                                             20|                |                    opcode: "local.get" (0x20) 0xaf-0xb0 (1)
0xb0|01                                             |.               |                    x: 1 (valid) 0xb0-0xb1 (1)
    |                                               |                |                  [2]{}: in 0xb1-0xb2 (1)
0xb0|   60                                          | `              |                    opcode: "f32.ge" (0x60) 0xb1-0xb2 (1)
    |                                               |                |                  [3]{}: in 0xb2-0xb3 (1)
0xb0|      45                                       |  E             |                    opcode: "32.eqz" (0x45) 0xb2-0xb3 (1)
    |                                               |                |                  [4]{}: in 0xb3-0xb4 (1)
0xb0|         0b                                    |   .            |                    opcode: "end" (0xb) 0xb3-0xb4 (1)
    |                                               |                |            [4]{}: code 0xb4-0xbd (9)
0xb0|            08                                 |    .           |              size: 8 (valid) 0xb4-0xb5 (1)
    |                                               |                |              code{}: 0xb5-0xbd (8)
    |                                               |                |                t{}: 0xb5-0xb6 (1)
0xb0|               00                              |     .          |                  n: 0 (valid) 0xb5-0xb6 (1)
    |                                               |                |                  x[0:0]: 0xb6-0xb6 (0)
    |                                               |                |                e[0:5]: 0xb6-0xbd (7)
    |                                               |                |                  [0]{}: in 0xb6-0xb8 (2)
0xb0|                  20                           |                |                    opcode: "local.get" (0x20) 0xb6-0xb7 (1)
0xb0|                     00                        |       .        |                    x: 0 (valid) 0xb7-0xb8 (1)
    |                                               |                |                  [1]{}: in 0xb8-0xba (2)
0xb0|                        20                     |                |                    opcode: "local.get" (0x20) 0xb8-0xb9 (1)
0xb0|                           01                  |         .      |                    x: 1 (valid) 0xb9-0xba (1)
    |                                               |                |                  [2]{}: in 0xba-0xbb (1)
0xb0|                              63               |          c     |                    opcode: "f64.lt" (0x63) 0xba-0xbb (1)
    |                                               |                |                  [3]{}: in 0xbb-0xbc (1)
0xb0|                                 45            |           E    |                    opcode: "32.eqz" (0x45) 0xbb-0xbc (1)
    |                                               |                |                  [4]{}: in 0xbc-0xbd (1)
0xb0|                                    0b         |            .   |                    opcode: "end" (0xb) 0xbc-0xbd (1)
    |                                               |                |            [5]{}: code 0xbd-0xc6 (9)
0xb0|                                       08      |             .  |              size: 8 (valid) 0xbd-0xbe (1)
    |                                               |                |              code{}: 0xbe-0xc6 (8)
    |                                               |                |                t{}: 0xbe-0xbf (1)
0xb0|                                          00   |              . |                  n: 0 (valid) 0xbe-0xbf (1)
    |                                               |                |                  x[0:0]: 0xbf-0xbf (0)
    |                                               |                |                e[0:5]: 0xbf-0xc6 (7)
    |                                               |                |                  [0]{}: in 0xbf-0xc1 (2)
0xb0|                                             20|                |                    opcode: "local.get" (0x20) 0xbf-0xc0 (1)
0xc0|00                                             |.               |                    x: 0 (valid) 0xc0-0xc1 (1)
    |                                               |                |                  [1]{}: in 0xc1-0xc3 (2)
0xc0|   20                                          |                |                    opcode: "local.get" (0x20) 0xc1-0xc2 (1)
0xc0|      01                                       |  .             |                    x: 1 (valid) 0xc2-0xc3 (1)
    |                                               |                |                  [2]{}: in 0xc3-0xc4 (1)
0xc0|         65                                    |   e            |                    opcode: "f64.le" (0x65) 0xc3-0xc4 (1)
    |                                               |                |                  [3]{}: in 0xc4-0xc5 (1)
0xc0|            45                                 |    E           |                    opcode: "32.eqz" (0x45) 0xc4-0xc5 (1)
    |                                               |                |                  [4]{}: in 0xc5-0xc6 (1)
0xc0|               0b                              |     .          |                    opcode: "end" (0xb) 0xc5-0xc6 (1)
    |                                               |                |            [6]{}: code 0xc6-0xcf (9)
0xc0|                  08                           |      .         |              size: 8 (valid) 0xc6-0xc7 (1)
    |                                               |                |              code{}: 0xc7-0xcf (8)
    |                                               |                |                t{}: 0xc7-0xc8 (1)
0xc0|                     00                        |       .        |                  n: 0 (valid) 0xc7-0xc8 (1)
    |                                               |                |                  x[0:0]: 0xc8-0xc8 (0)
    |                                               |                |                e[0:5]: 0xc8-0xcf (7)
    |                                               |                |                  [0]{}: in 0xc8-0xca (2)
0xc0|                        20                     |                |                    opcode: "local.get" (0x20) 0xc8-0xc9 (1)
0xc0|                           00                  |         .      |                    x: 0 (valid) 0xc9-0xca (1)
    |                                               |                |                  [1]{}: in 0xca-0xcc (2)
0xc0|                              20               |                |                    opcode: "local.get" (0x20) 0xca-0xcb (1)
0xc0|                                 01            |           .    |                    x: 1 (valid) 0xcb-0xcc (1)
    |                                               |                |                  [2]{}: in 0xcc-0xcd (1)
0xc0|                                    64         |            d   |                    opcode: "f64.gt" (0x64) 0xcc-0xcd (1)
    |                                               |                |                  [3]{}: in 0xcd-0xce (1)
0xc0|                                       45      |             E  |                    opcode: "32.eqz" (0x45) 0xcd-0xce (1)
    |                                               |                |                  [4]{}: in 0xce-0xcf (1)
0xc0|                                          0b   |              . |                    opcode: "end" (0xb) 0xce-0xcf (1)
    |                                               |                |            [7]{}: code 0xcf-0xd8 (9)
0xc0|                                             08|               .|              size: 8 (valid) 0xcf-0xd0 (1)
    |                                               |                |              code{}: 0xd0-0xd8 (8)
    |                                               |                |                t{}: 0xd0-0xd1 (1)
0xd0|00                                             |.               |                  n: 0 (valid) 0xd0-0xd1 (1)
    |                                               |                |                  x[0:0]: 0xd1-0xd1 (0)
    |                                               |                |                e[0:5]: 0xd1-0xd8 (7)
    |                                               |                |                  [0]{}: in 0xd1-0xd3 (2)
0xd0|   20                                          |                |                    opcode: "local.get" (0x20) 0xd1-0xd2 (1)
0xd0|      00                                       |  .             |                    x: 0 (valid) 0xd2-0xd3 (1)
    |                                               |                |                  [1]{}: in 0xd3-0xd5 (2)
0xd0|         20                                    |                |                    opcode: "local.get" (0x20) 0xd3-0xd4 (1)
0xd0|            01                                 |    .           |                    x: 1 (valid) 0xd4-0xd5 (1)
    |                                               |                |                  [2]{}: in 0xd5-0xd6 (1)
0xd0|               66                              |     f          |                    opcode: "f64.ge" (0x66) 0xd5-0xd6 (1)
    |                                               |                |                  [3]{}: in 0xd6-0xd7 (1)
0xd0|                  45                           |      E         |                    opcode: "32.eqz" (0x45) 0xd6-0xd7 (1)
    |                                               |                |                  [4]{}: in 0xd7-0xd8 (1)
0xd0|                     0b|                       |       .|       |                    opcode: "end" (0xb) 0xd7-0xd8 (1)
