$ fq -d wasm dv float_exprs-47.wasm
    |00 01 02 03 04 05 06 07 08 09 0a 0b 0c 0d 0e 0f|0123456789abcdef|.{}: float_exprs-47.wasm (wasm) 0x0-0x98 (152)
0x00|00 61 73 6d                                    |.asm            |  magic: raw bits (valid) 0x0-0x4 (4)
0x00|            01 00 00 00                        |    ....        |  version: 1 0x4-0x8 (4)
    |                                               |                |  sections[0:4]: 0x8-0x98 (144)
    |                                               |                |    [0]{}: section 0x8-0x13 (11)
0x00|                        01                     |        .       |      id: "type_section" (1) 0x8-0x9 (1)
0x00|                           09                  |         .      |      size: 9 (valid) 0x9-0xa (1)
    |                                               |                |      content{}: 0xa-0x13 (9)
    |                                               |                |        ft{}: 0xa-0x13 (9)
0x00|                              02               |          .     |          n: 2 (valid) 0xa-0xb (1)
    |                                               |                |          x[0:2]: 0xb-0x13 (8)
    |                                               |                |            [0]{}: ft 0xb-0xf (4)
0x00|                                 60            |           `    |              tag: 0x60 (valid) 0xb-0xc (1)
    |                                               |                |              rt1{}: 0xc-0xd (1)
0x00|                                    00         |            .   |                n: 0 (valid) 0xc-0xd (1)
    |                                               |                |                x[0:0]: 0xd-0xd (0)
    |                                               |                |              rt2{}: 0xd-0xf (2)
0x00|                                       01      |             .  |                n: 1 (valid) 0xd-0xe (1)
    |                                               |                |                x[0:1]: 0xe-0xf (1)
0x00|                                          7d   |              } |                  [0]: "f32" (0x7d) t 0xe-0xf (1)
    |                                               |                |            [1]{}: ft 0xf-0x13 (4)
0x00|                                             60|               `|              tag: 0x60 (valid) 0xf-0x10 (1)
    |                                               |                |              rt1{}: 0x10-0x11 (1)
0x10|00                                             |.               |                n: 0 (valid) 0x10-0x11 (1)
    |                                               |                |                x[0:0]: 0x11-0x11 (0)
    |                                               |                |              rt2{}: 0x11-0x13 (2)
0x10|   01                                          | .              |                n: 1 (valid) 0x11-0x12 (1)
    |                                               |                |                x[0:1]: 0x12-0x13 (1)
0x10|      7c                                       |  |             |                  [0]: "f64" (0x7c) t 0x12-0x13 (1)
    |                                               |                |    [1]{}: section 0x13-0x18 (5)
0x10|         03                                    |   .            |      id: "function_section" (3) 0x13-0x14 (1)
0x10|            03                                 |    .           |      size: 3 (valid) 0x14-0x15 (1)
    |                                               |                |      content{}: 0x15-0x18 (3)
    |                                               |                |        x{}: 0x15-0x18 (3)
0x10|               02                              |     .          |          n: 2 (valid) 0x15-0x16 (1)
    |                                               |                |          x[0:2]: 0x16-0x18 (2)
0x10|                  00                           |      .         |            [0]: 0 x (valid) 0x16-0x17 (1)
0x10|                     01                        |       .        |            [1]: 1 x (valid) 0x17-0x18 (1)
    |                                               |                |    [2]{}: section 0x18-0x51 (57)
0x10|                        07                     |        .       |      id: "export_section" (7) 0x18-0x19 (1)
0x10|                           37                  |         7      |      size: 55 (valid) 0x19-0x1a (1)
    |                                               |                |      content{}: 0x1a-0x51 (55)
    |                                               |                |        ex{}: 0x1a-0x51 (55)
0x10|                              02               |          .     |          n: 2 (valid) 0x1a-0x1b (1)
    |                                               |                |          x[0:2]: 0x1b-0x51 (54)
    |                                               |                |            [0]{}: ex 0x1b-0x36 (27)
    |                                               |                |              nm{}: 0x1b-0x34 (25)
0x10|                                 18            |           .    |                n: 24 (valid) 0x1b-0x1c (1)
0x10|                                    66 33 32 2e|            f32.|                b: "f32.incorrect_correction" 0x1c-0x34 (24)
0x20|69 6e 63 6f 72 72 65 63 74 5f 63 6f 72 72 65 63|incorrect_correc|
0x30|74 69 6f 6e                                    |tion            |
    |                                               |                |              d{}: 0x34-0x36 (2)
0x30|            00                                 |    .           |                tag: "funcidx" (0x0) 0x34-0x35 (1)
0x30|               00                              |     .          |                x: 0 (valid) 0x35-0x36 (1)
    |                                               |                |            [1]{}: ex 0x36-0x51 (27)
    |                                               |                |              nm{}: 0x36-0x4f (25)
0x30|                  18                           |      .         |                n: 24 (valid) 0x36-0x37 (1)
0x30|                     66 36 34 2e 69 6e 63 6f 72|       f64.incor|                b: "f64.incorrect_correction" 0x37-0x4f (24)
0x40|72 65 63 74 5f 63 6f 72 72 65 63 74 69 6f 6e   |rect_correction |
    |                                               |                |              d{}: 0x4f-0x51 (2)
0x40|                                             00|               .|                tag: "funcidx" (0x0) 0x4f-0x50 (1)
0x50|01                                             |.               |                x: 1 (valid) 0x50-0x51 (1)
    |                                               |                |    [3]{}: section 0x51-0x98 (71)
0x50|   0a                                          | .              |      id: "code_section" (10) 0x51-0x52 (1)
0x50|      45                                       |  E             |      size: 69 (valid) 0x52-0x53 (1)
    |                                               |                |      content{}: 0x53-0x98 (69)
    |                                               |                |        code{}: 0x53-0x98 (69)
0x50|         02                                    |   .            |          n: 2 (valid) 0x53-0x54 (1)
    |                                               |                |          x[0:2]: 0x54-0x98 (68)
    |                                               |                |            [0]{}: code 0x54-0x6e (26)
0x50|            19                                 |    .           |              size: 25 (valid) 0x54-0x55 (1)
    |                                               |                |              code{}: 0x55-0x6e (25)
    |                                               |                |                t{}: 0x55-0x56 (1)
0x50|               00                              |     .          |                  n: 0 (valid) 0x55-0x56 (1)
    |                                               |                |                  x[0:0]: 0x56-0x56 (0)
    |                                               |                |                e[0:8]: 0x56-0x6e (24)
    |                                               |                |                  [0]{}: in 0x56-0x5b (5)
0x50|                  43                           |      C         |                    opcode: "f32.const" (0x43) 0x56-0x57 (1)
0x50|                     be 9f aa 3f               |       ...?     |                    z: 1.3329999446868896 0x57-0x5b (4)
    |                                               |                |                  [1]{}: in 0x5b-0x60 (5)
0x50|                                 43            |           C    |                    opcode: "f32.const" (0x43) 0x5b-0x5c (1)
0x50|                                    cd cc 9c 3f|            ...?|                    z: 1.225000023841858 0x5c-0x60 (4)
    |                                               |                |                  [2]{}: in 0x60-0x61 (1)
0x60|92                                             |.               |                    opcode: "f32.add" (0x92) 0x60-0x61 (1)
    |                                               |                |                  [3]{}: in 0x61-0x66 (5)
0x60|   43                                          | C              |                    opcode: "f32.const" (0x43) 0x61-0x62 (1)
0x60|      be 9f aa 3f                              |  ...?          |                    z: 1.3329999446868896 0x62-0x66 (4)
    |                                               |                |                  [4]{}: in 0x66-0x67 (1)
0x60|                  93                           |      .         |                    opcode: "f32.sub" (0x93) 0x66-0x67 (1)
    |                                               |                |                  [5]{}: in 0x67-0x6c (5)
0x60|                     43                        |       C        |                    opcode: "f32.const" (0x43) 0x67-0x68 (1)
0x60|                        cd cc 9c 3f            |        ...?    |                    z: 1.225000023841858 0x68-0x6c (4)
    |                                               |                |                  [6]{}: in 0x6c-0x6d (1)
0x60|                                    93         |            .   |                    opcode: "f32.sub" (0x93) 0x6c-0x6d (1)
    |                                               |                |                  [7]{}: in 0x6d-0x6e (1)
0x60|                                       0b      |             .  |                    opcode: "end" (0xb) 0x6d-0x6e (1)
    |                                               |                |            [1]{}: code 0x6e-0x98 (42)
0x60|                                          29   |              ) |              size: 41 (valid) 0x6e-0x6f (1)
    |                                               |                |              code{}: 0x6f-0x98 (41)
    |                                               |                |                t{}: 0x6f-0x70 (1)
0x60|                                             00|               .|                  n: 0 (valid) 0x6f-0x70 (1)
    |                                               |                |                  x[0:0]: 0x70-0x70 (0)
    |                                               |                |                e[0:8]: 0x70-0x98 (40)
    |                                               |                |                  [0]{}: in 0x70-0x79 (9)
0x70|44                                             |D               |                    opcode: "f64.const" (0x44) 0x70-0x71 (1)
0x70|   87 16 d9 ce f7 53 f5 3f                     | .....S.?       |                    z: 1.333 0x71-0x79 (8)
    |                                               |                |                  [1]{}: in 0x79-0x82 (9)
0x70|                           44                  |         D      |                    opcode: "f64.const" (0x44) 0x79-0x7a (1)
0x70|                              9a 99 99 99 99 99|          ......|                    z: 1.225 0x7a-0x82 (8)
0x80|f3 3f                                          |.?              |
    |                                               |                |                  [2]{}: in 0x82-0x83 (1)
0x80|      a0                                       |  .             |                    opcode: "f64.add" (0xa0) 0x82-0x83 (1)
    |                                               |                |                  [3]{}: in 0x83-0x8c (9)
0x80|         44                                    |   D            |                    opcode: "f64.const" (0x44) 0x83-0x84 (1)
0x80|            87 16 d9 ce f7 53 f5 3f            |    .....S.?    |                    z: 1.333 0x84-0x8c (8)
    |                                               |                |                  [4]{}: in 0x8c-0x8d (1)
0x80|                                    a1         |            .   |                    opcode: "f64.sub" (0xa1) 0x8c-0x8d (1)
    |                                               |                |                  [5]{}: in 0x8d-0x96 (9)
0x80|                                       44      |             D  |                    opcode: "f64.const" (0x44) 0x8d-0x8e (1)
0x80|                                          9a 99|              ..|                    z: 1.225 0x8e-0x96 (8)
0x90|99 99 99 99 f3 3f                              |.....?          |
    |                                               |                |                  [6]{}: in 0x96-0x97 (1)
0x90|                  a1                           |      .         |                    opcode: "f64.sub" (0xa1) 0x96-0x97 (1)
    |                                               |                |                  [7]{}: in 0x97-0x98 (1)
0x90|                     0b|                       |       .|       |                    opcode: "end" (0xb) 0x97-0x98 (1)
