$ fq -d wasm dv float_exprs-23.wasm
    |00 01 02 03 04 05 06 07 08 09 0a 0b 0c 0d 0e 0f|0123456789abcdef|.{}: float_exprs-23.wasm (wasm) 0x0-0x61.7 (98)
0x00|00 61 73 6d                                    |.asm            |  magic: raw bits (valid) 0x0-0x3.7 (4)
0x00|            01 00 00 00                        |    ....        |  version: 1 0x4-0x7.7 (4)
    |                                               |                |  sections[0:4]: 0x8-0x61.7 (90)
    |                                               |                |    [0]{}: section 0x8-0x14.7 (13)
0x00|                        01                     |        .       |      id: "type section" (1) 0x8-0x8.7 (1)
0x00|                           0b                  |         .      |      size: 11 0x9-0x9.7 (1)
    |                                               |                |      content{}: 0xa-0x14.7 (11)
    |                                               |                |        ft{}: 0xa-0x14.7 (11)
0x00|                              02               |          .     |          n: 2 0xa-0xa.7 (1)
    |                                               |                |          x[0:2]: 0xb-0x14.7 (10)
    |                                               |                |            [0]{}: ft 0xb-0xf.7 (5)
0x00|                                 60            |           `    |              tag: 0x60 (valid) 0xb-0xb.7 (1)
    |                                               |                |              rt1{}: 0xc-0xd.7 (2)
0x00|                                    01         |            .   |                n: 1 0xc-0xc.7 (1)
    |                                               |                |                x[0:1]: 0xd-0xd.7 (1)
0x00|                                       7d      |             }  |                  [0]: "f32" (0x7d) t 0xd-0xd.7 (1)
    |                                               |                |              rt2{}: 0xe-0xf.7 (2)
0x00|                                          01   |              . |                n: 1 0xe-0xe.7 (1)
    |                                               |                |                x[0:1]: 0xf-0xf.7 (1)
0x00|                                             7d|               }|                  [0]: "f32" (0x7d) t 0xf-0xf.7 (1)
    |                                               |                |            [1]{}: ft 0x10-0x14.7 (5)
0x10|60                                             |`               |              tag: 0x60 (valid) 0x10-0x10.7 (1)
    |                                               |                |              rt1{}: 0x11-0x12.7 (2)
0x10|   01                                          | .              |                n: 1 0x11-0x11.7 (1)
    |                                               |                |                x[0:1]: 0x12-0x12.7 (1)
0x10|      7c                                       |  |             |                  [0]: "f64" (0x7c) t 0x12-0x12.7 (1)
    |                                               |                |              rt2{}: 0x13-0x14.7 (2)
0x10|         01                                    |   .            |                n: 1 0x13-0x13.7 (1)
    |                                               |                |                x[0:1]: 0x14-0x14.7 (1)
0x10|            7c                                 |    |           |                  [0]: "f64" (0x7c) t 0x14-0x14.7 (1)
    |                                               |                |    [1]{}: section 0x15-0x19.7 (5)
0x10|               03                              |     .          |      id: "function section" (3) 0x15-0x15.7 (1)
0x10|                  03                           |      .         |      size: 3 0x16-0x16.7 (1)
    |                                               |                |      content{}: 0x17-0x19.7 (3)
    |                                               |                |        x{}: 0x17-0x19.7 (3)
0x10|                     02                        |       .        |          n: 2 0x17-0x17.7 (1)
    |                                               |                |          x[0:2]: 0x18-0x19.7 (2)
0x10|                        00                     |        .       |            [0]: 0 x 0x18-0x18.7 (1)
0x10|                           01                  |         .      |            [1]: 1 x 0x19-0x19.7 (1)
    |                                               |                |    [2]{}: section 0x1a-0x44.7 (43)
0x10|                              07               |          .     |      id: "export section" (7) 0x1a-0x1a.7 (1)
0x10|                                 29            |           )    |      size: 41 0x1b-0x1b.7 (1)
    |                                               |                |      content{}: 0x1c-0x44.7 (41)
    |                                               |                |        ex{}: 0x1c-0x44.7 (41)
0x10|                                    02         |            .   |          n: 2 0x1c-0x1c.7 (1)
    |                                               |                |          x[0:2]: 0x1d-0x44.7 (40)
    |                                               |                |            [0]{}: ex 0x1d-0x30.7 (20)
    |                                               |                |              nm{}: 0x1d-0x2e.7 (18)
0x10|                                       11      |             .  |                n: 17 0x1d-0x1d.7 (1)
0x10|                                          66 33|              f3|                b: "f32.no_fold_div_0" 0x1e-0x2e.7 (17)
0x20|32 2e 6e 6f 5f 66 6f 6c 64 5f 64 69 76 5f 30   |2.no_fold_div_0 |
    |                                               |                |              d{}: 0x2f-0x30.7 (2)
0x20|                                             00|               .|                tag: "funcidx" (0x0) 0x2f-0x2f.7 (1)
0x30|00                                             |.               |                x: 0 0x30-0x30.7 (1)
    |                                               |                |            [1]{}: ex 0x31-0x44.7 (20)
    |                                               |                |              nm{}: 0x31-0x42.7 (18)
0x30|   11                                          | .              |                n: 17 0x31-0x31.7 (1)
0x30|      66 36 34 2e 6e 6f 5f 66 6f 6c 64 5f 64 69|  f64.no_fold_di|                b: "f64.no_fold_div_0" 0x32-0x42.7 (17)
0x40|76 5f 30                                       |v_0             |
    |                                               |                |              d{}: 0x43-0x44.7 (2)
0x40|         00                                    |   .            |                tag: "funcidx" (0x0) 0x43-0x43.7 (1)
0x40|            01                                 |    .           |                x: 1 0x44-0x44.7 (1)
    |                                               |                |    [3]{}: section 0x45-0x61.7 (29)
0x40|               0a                              |     .          |      id: "code section" (10) 0x45-0x45.7 (1)
0x40|                  1b                           |      .         |      size: 27 0x46-0x46.7 (1)
    |                                               |                |      content{}: 0x47-0x61.7 (27)
    |                                               |                |        code{}: 0x47-0x61.7 (27)
0x40|                     02                        |       .        |          n: 2 0x47-0x47.7 (1)
    |                                               |                |          x[0:2]: 0x48-0x61.7 (26)
    |                                               |                |            [0]{}: code 0x48-0x52.7 (11)
0x40|                        0a                     |        .       |              size: 10 0x48-0x48.7 (1)
    |                                               |                |              code{}: 0x49-0x52.7 (10)
    |                                               |                |                t{}: 0x49-0x49.7 (1)
0x40|                           00                  |         .      |                  n: 0 0x49-0x49.7 (1)
    |                                               |                |                  x[0:0]: 0x4a-NA (0)
    |                                               |                |                e[0:4]: 0x4a-0x52.7 (9)
    |                                               |                |                  [0]{}: in 0x4a-0x4b.7 (2)
0x40|                              20               |                |                    local.get: 0x20 (valid) 0x4a-0x4a.7 (1)
0x40|                                 00            |           .    |                    x: 0 0x4b-0x4b.7 (1)
    |                                               |                |                  [1]{}: in 0x4c-0x50.7 (5)
0x40|                                    43         |            C   |                    f32.const: 0x43 (valid) 0x4c-0x4c.7 (1)
0x40|                                       00 00 00|             ...|                    z: 0 0x4d-0x50.7 (4)
0x50|00                                             |.               |
    |                                               |                |                  [2]{}: in 0x51-0x51.7 (1)
0x50|   95                                          | .              |                    f32.div: 0x95 (valid) 0x51-0x51.7 (1)
    |                                               |                |                  [3]{}: in 0x52-0x52.7 (1)
0x50|      0b                                       |  .             |                    end: 0xb (valid) 0x52-0x52.7 (1)
    |                                               |                |            [1]{}: code 0x53-0x61.7 (15)
0x50|         0e                                    |   .            |              size: 14 0x53-0x53.7 (1)
    |                                               |                |              code{}: 0x54-0x61.7 (14)
    |                                               |                |                t{}: 0x54-0x54.7 (1)
0x50|            00                                 |    .           |                  n: 0 0x54-0x54.7 (1)
    |                                               |                |                  x[0:0]: 0x55-NA (0)
    |                                               |                |                e[0:4]: 0x55-0x61.7 (13)
    |                                               |                |                  [0]{}: in 0x55-0x56.7 (2)
0x50|               20                              |                |                    local.get: 0x20 (valid) 0x55-0x55.7 (1)
0x50|                  00                           |      .         |                    x: 0 0x56-0x56.7 (1)
    |                                               |                |                  [1]{}: in 0x57-0x5f.7 (9)
0x50|                     44                        |       D        |                    f64.const: 0x44 (valid) 0x57-0x57.7 (1)
0x50|                        00 00 00 00 00 00 00 00|        ........|                    z: 0 0x58-0x5f.7 (8)
    |                                               |                |                  [2]{}: in 0x60-0x60.7 (1)
0x60|a3                                             |.               |                    f64.div: 0xa3 (valid) 0x60-0x60.7 (1)
    |                                               |                |                  [3]{}: in 0x61-0x61.7 (1)
0x60|   0b|                                         | .|             |                    end: 0xb (valid) 0x61-0x61.7 (1)
