$ fq -d wasm dv float_exprs-17.wasm
    |00 01 02 03 04 05 06 07 08 09 0a 0b 0c 0d 0e 0f|0123456789abcdef|.{}: float_exprs-17.wasm (wasm) 0x0-0x60 (96)
0x00|00 61 73 6d                                    |.asm            |  magic: raw bits (valid) 0x0-0x4 (4)
0x00|            01 00 00 00                        |    ....        |  version: 1 0x4-0x8 (4)
    |                                               |                |  sections[0:4]: 0x8-0x60 (88)
    |                                               |                |    [0]{}: section 0x8-0x19 (17)
0x00|                        01                     |        .       |      id: "type_section" (1) 0x8-0x9 (1)
0x00|                           0f                  |         .      |      size: 15 (valid) 0x9-0xa (1)
    |                                               |                |      content{}: 0xa-0x19 (15)
    |                                               |                |        ft{}: 0xa-0x19 (15)
0x00|                              02               |          .     |          n: 2 (valid) 0xa-0xb (1)
    |                                               |                |          x[0:2]: 0xb-0x19 (14)
    |                                               |                |            [0]{}: ft 0xb-0x12 (7)
0x00|                                 60            |           `    |              tag: 0x60 (valid) 0xb-0xc (1)
    |                                               |                |              rt1{}: 0xc-0x10 (4)
0x00|                                    03         |            .   |                n: 3 (valid) 0xc-0xd (1)
    |                                               |                |                x[0:3]: 0xd-0x10 (3)
0x00|                                       7d      |             }  |                  [0]: "f32" (0x7d) t 0xd-0xe (1)
0x00|                                          7d   |              } |                  [1]: "f32" (0x7d) t 0xe-0xf (1)
0x00|                                             7d|               }|                  [2]: "f32" (0x7d) t 0xf-0x10 (1)
    |                                               |                |              rt2{}: 0x10-0x12 (2)
0x10|01                                             |.               |                n: 1 (valid) 0x10-0x11 (1)
    |                                               |                |                x[0:1]: 0x11-0x12 (1)
0x10|   7d                                          | }              |                  [0]: "f32" (0x7d) t 0x11-0x12 (1)
    |                                               |                |            [1]{}: ft 0x12-0x19 (7)
0x10|      60                                       |  `             |              tag: 0x60 (valid) 0x12-0x13 (1)
    |                                               |                |              rt1{}: 0x13-0x17 (4)
0x10|         03                                    |   .            |                n: 3 (valid) 0x13-0x14 (1)
    |                                               |                |                x[0:3]: 0x14-0x17 (3)
0x10|            7c                                 |    |           |                  [0]: "f64" (0x7c) t 0x14-0x15 (1)
0x10|               7c                              |     |          |                  [1]: "f64" (0x7c) t 0x15-0x16 (1)
0x10|                  7c                           |      |         |                  [2]: "f64" (0x7c) t 0x16-0x17 (1)
    |                                               |                |              rt2{}: 0x17-0x19 (2)
0x10|                     01                        |       .        |                n: 1 (valid) 0x17-0x18 (1)
    |                                               |                |                x[0:1]: 0x18-0x19 (1)
0x10|                        7c                     |        |       |                  [0]: "f64" (0x7c) t 0x18-0x19 (1)
    |                                               |                |    [1]{}: section 0x19-0x1e (5)
0x10|                           03                  |         .      |      id: "function_section" (3) 0x19-0x1a (1)
0x10|                              03               |          .     |      size: 3 (valid) 0x1a-0x1b (1)
    |                                               |                |      content{}: 0x1b-0x1e (3)
    |                                               |                |        x{}: 0x1b-0x1e (3)
0x10|                                 02            |           .    |          n: 2 (valid) 0x1b-0x1c (1)
    |                                               |                |          x[0:2]: 0x1c-0x1e (2)
0x10|                                    00         |            .   |            [0]: 0 x (valid) 0x1c-0x1d (1)
0x10|                                       01      |             .  |            [1]: 1 x (valid) 0x1d-0x1e (1)
    |                                               |                |    [2]{}: section 0x1e-0x41 (35)
0x10|                                          07   |              . |      id: "export_section" (7) 0x1e-0x1f (1)
0x10|                                             21|               !|      size: 33 (valid) 0x1f-0x20 (1)
    |                                               |                |      content{}: 0x20-0x41 (33)
    |                                               |                |        ex{}: 0x20-0x41 (33)
0x20|02                                             |.               |          n: 2 (valid) 0x20-0x21 (1)
    |                                               |                |          x[0:2]: 0x21-0x41 (32)
    |                                               |                |            [0]{}: ex 0x21-0x31 (16)
    |                                               |                |              nm{}: 0x21-0x2f (14)
0x20|   0d                                          | .              |                n: 13 (valid) 0x21-0x22 (1)
0x20|      66 33 32 2e 6e 6f 5f 66 61 63 74 6f 72   |  f32.no_factor |                b: "f32.no_factor" 0x22-0x2f (13)
    |                                               |                |              d{}: 0x2f-0x31 (2)
0x20|                                             00|               .|                tag: "funcidx" (0x0) 0x2f-0x30 (1)
0x30|00                                             |.               |                x: 0 (valid) 0x30-0x31 (1)
    |                                               |                |            [1]{}: ex 0x31-0x41 (16)
    |                                               |                |              nm{}: 0x31-0x3f (14)
0x30|   0d                                          | .              |                n: 13 (valid) 0x31-0x32 (1)
0x30|      66 36 34 2e 6e 6f 5f 66 61 63 74 6f 72   |  f64.no_factor |                b: "f64.no_factor" 0x32-0x3f (13)
    |                                               |                |              d{}: 0x3f-0x41 (2)
0x30|                                             00|               .|                tag: "funcidx" (0x0) 0x3f-0x40 (1)
0x40|01                                             |.               |                x: 1 (valid) 0x40-0x41 (1)
    |                                               |                |    [3]{}: section 0x41-0x60 (31)
0x40|   0a                                          | .              |      id: "code_section" (10) 0x41-0x42 (1)
0x40|      1d                                       |  .             |      size: 29 (valid) 0x42-0x43 (1)
    |                                               |                |      content{}: 0x43-0x60 (29)
    |                                               |                |        code{}: 0x43-0x60 (29)
0x40|         02                                    |   .            |          n: 2 (valid) 0x43-0x44 (1)
    |                                               |                |          x[0:2]: 0x44-0x60 (28)
    |                                               |                |            [0]{}: code 0x44-0x52 (14)
0x40|            0d                                 |    .           |              size: 13 (valid) 0x44-0x45 (1)
    |                                               |                |              code{}: 0x45-0x52 (13)
    |                                               |                |                t{}: 0x45-0x46 (1)
0x40|               00                              |     .          |                  n: 0 (valid) 0x45-0x46 (1)
    |                                               |                |                  x[0:0]: 0x46-0x46 (0)
    |                                               |                |                e[0:8]: 0x46-0x52 (12)
    |                                               |                |                  [0]{}: in 0x46-0x48 (2)
0x40|                  20                           |                |                    opcode: "local.get" (0x20) 0x46-0x47 (1)
0x40|                     00                        |       .        |                    x: 0 (valid) 0x47-0x48 (1)
    |                                               |                |                  [1]{}: in 0x48-0x4a (2)
0x40|                        20                     |                |                    opcode: "local.get" (0x20) 0x48-0x49 (1)
0x40|                           02                  |         .      |                    x: 2 (valid) 0x49-0x4a (1)
    |                                               |                |                  [2]{}: in 0x4a-0x4b (1)
0x40|                              94               |          .     |                    opcode: "f32.mul" (0x94) 0x4a-0x4b (1)
    |                                               |                |                  [3]{}: in 0x4b-0x4d (2)
0x40|                                 20            |                |                    opcode: "local.get" (0x20) 0x4b-0x4c (1)
0x40|                                    01         |            .   |                    x: 1 (valid) 0x4c-0x4d (1)
    |                                               |                |                  [4]{}: in 0x4d-0x4f (2)
0x40|                                       20      |                |                    opcode: "local.get" (0x20) 0x4d-0x4e (1)
0x40|                                          02   |              . |                    x: 2 (valid) 0x4e-0x4f (1)
    |                                               |                |                  [5]{}: in 0x4f-0x50 (1)
0x40|                                             94|               .|                    opcode: "f32.mul" (0x94) 0x4f-0x50 (1)
    |                                               |                |                  [6]{}: in 0x50-0x51 (1)
0x50|92                                             |.               |                    opcode: "f32.add" (0x92) 0x50-0x51 (1)
    |                                               |                |                  [7]{}: in 0x51-0x52 (1)
0x50|   0b                                          | .              |                    opcode: "end" (0xb) 0x51-0x52 (1)
    |                                               |                |            [1]{}: code 0x52-0x60 (14)
0x50|      0d                                       |  .             |              size: 13 (valid) 0x52-0x53 (1)
    |                                               |                |              code{}: 0x53-0x60 (13)
    |                                               |                |                t{}: 0x53-0x54 (1)
0x50|         00                                    |   .            |                  n: 0 (valid) 0x53-0x54 (1)
    |                                               |                |                  x[0:0]: 0x54-0x54 (0)
    |                                               |                |                e[0:8]: 0x54-0x60 (12)
    |                                               |                |                  [0]{}: in 0x54-0x56 (2)
0x50|            20                                 |                |                    opcode: "local.get" (0x20) 0x54-0x55 (1)
0x50|               00                              |     .          |                    x: 0 (valid) 0x55-0x56 (1)
    |                                               |                |                  [1]{}: in 0x56-0x58 (2)
0x50|                  20                           |                |                    opcode: "local.get" (0x20) 0x56-0x57 (1)
0x50|                     02                        |       .        |                    x: 2 (valid) 0x57-0x58 (1)
    |                                               |                |                  [2]{}: in 0x58-0x59 (1)
0x50|                        a2                     |        .       |                    opcode: "f64.mul" (0xa2) 0x58-0x59 (1)
    |                                               |                |                  [3]{}: in 0x59-0x5b (2)
0x50|                           20                  |                |                    opcode: "local.get" (0x20) 0x59-0x5a (1)
0x50|                              01               |          .     |                    x: 1 (valid) 0x5a-0x5b (1)
    |                                               |                |                  [4]{}: in 0x5b-0x5d (2)
0x50|                                 20            |                |                    opcode: "local.get" (0x20) 0x5b-0x5c (1)
0x50|                                    02         |            .   |                    x: 2 (valid) 0x5c-0x5d (1)
    |                                               |                |                  [5]{}: in 0x5d-0x5e (1)
0x50|                                       a2      |             .  |                    opcode: "f64.mul" (0xa2) 0x5d-0x5e (1)
    |                                               |                |                  [6]{}: in 0x5e-0x5f (1)
0x50|                                          a0   |              . |                    opcode: "f64.add" (0xa0) 0x5e-0x5f (1)
    |                                               |                |                  [7]{}: in 0x5f-0x60 (1)
0x50|                                             0b|               .|                    opcode: "end" (0xb) 0x5f-0x60 (1)
