$ fq -d wasm dv float_exprs-54.wasm
    |00 01 02 03 04 05 06 07 08 09 0a 0b 0c 0d 0e 0f|0123456789abcdef|.{}: float_exprs-54.wasm (wasm) 0x0-0x2f (47)
0x00|00 61 73 6d                                    |.asm            |  magic: raw bits (valid) 0x0-0x4 (4)
0x00|            01 00 00 00                        |    ....        |  version: 1 0x4-0x8 (4)
    |                                               |                |  sections[0:4]: 0x8-0x2f (39)
    |                                               |                |    [0]{}: section 0x8-0x10 (8)
0x00|                        01                     |        .       |      id: "type_section" (1) 0x8-0x9 (1)
0x00|                           06                  |         .      |      size: 6 (valid) 0x9-0xa (1)
    |                                               |                |      content{}: 0xa-0x10 (6)
    |                                               |                |        ft{}: 0xa-0x10 (6)
0x00|                              01               |          .     |          n: 1 (valid) 0xa-0xb (1)
    |                                               |                |          x[0:1]: 0xb-0x10 (5)
    |                                               |                |            [0]{}: ft 0xb-0x10 (5)
0x00|                                 60            |           `    |              tag: 0x60 (valid) 0xb-0xc (1)
    |                                               |                |              rt1{}: 0xc-0xe (2)
0x00|                                    01         |            .   |                n: 1 (valid) 0xc-0xd (1)
    |                                               |                |                x[0:1]: 0xd-0xe (1)
0x00|                                       7d      |             }  |                  [0]: "f32" (0x7d) t 0xd-0xe (1)
    |                                               |                |              rt2{}: 0xe-0x10 (2)
0x00|                                          01   |              . |                n: 1 (valid) 0xe-0xf (1)
    |                                               |                |                x[0:1]: 0xf-0x10 (1)
0x00|                                             7d|               }|                  [0]: "f32" (0x7d) t 0xf-0x10 (1)
    |                                               |                |    [1]{}: section 0x10-0x14 (4)
0x10|03                                             |.               |      id: "function_section" (3) 0x10-0x11 (1)
0x10|   02                                          | .              |      size: 2 (valid) 0x11-0x12 (1)
    |                                               |                |      content{}: 0x12-0x14 (2)
    |                                               |                |        x{}: 0x12-0x14 (2)
0x10|      01                                       |  .             |          n: 1 (valid) 0x12-0x13 (1)
    |                                               |                |          x[0:1]: 0x13-0x14 (1)
0x10|         00                                    |   .            |            [0]: 0 x (valid) 0x13-0x14 (1)
    |                                               |                |    [2]{}: section 0x14-0x21 (13)
0x10|            07                                 |    .           |      id: "export_section" (7) 0x14-0x15 (1)
0x10|               0b                              |     .          |      size: 11 (valid) 0x15-0x16 (1)
    |                                               |                |      content{}: 0x16-0x21 (11)
    |                                               |                |        ex{}: 0x16-0x21 (11)
0x10|                  01                           |      .         |          n: 1 (valid) 0x16-0x17 (1)
    |                                               |                |          x[0:1]: 0x17-0x21 (10)
    |                                               |                |            [0]{}: ex 0x17-0x21 (10)
    |                                               |                |              nm{}: 0x17-0x1f (8)
0x10|                     07                        |       .        |                n: 7 (valid) 0x17-0x18 (1)
0x10|                        69 6e 76 65 72 73 65   |        inverse |                b: "inverse" 0x18-0x1f (7)
    |                                               |                |              d{}: 0x1f-0x21 (2)
0x10|                                             00|               .|                tag: "funcidx" (0x0) 0x1f-0x20 (1)
0x20|00                                             |.               |                x: 0 (valid) 0x20-0x21 (1)
    |                                               |                |    [3]{}: section 0x21-0x2f (14)
0x20|   0a                                          | .              |      id: "code_section" (10) 0x21-0x22 (1)
0x20|      0c                                       |  .             |      size: 12 (valid) 0x22-0x23 (1)
    |                                               |                |      content{}: 0x23-0x2f (12)
    |                                               |                |        code{}: 0x23-0x2f (12)
0x20|         01                                    |   .            |          n: 1 (valid) 0x23-0x24 (1)
    |                                               |                |          x[0:1]: 0x24-0x2f (11)
    |                                               |                |            [0]{}: code 0x24-0x2f (11)
0x20|            0a                                 |    .           |              size: 10 (valid) 0x24-0x25 (1)
    |                                               |                |              code{}: 0x25-0x2f (10)
    |                                               |                |                t{}: 0x25-0x26 (1)
0x20|               00                              |     .          |                  n: 0 (valid) 0x25-0x26 (1)
    |                                               |                |                  x[0:0]: 0x26-0x26 (0)
    |                                               |                |                e[0:4]: 0x26-0x2f (9)
    |                                               |                |                  [0]{}: in 0x26-0x2b (5)
0x20|                  43                           |      C         |                    opcode: "f32.const" (0x43) 0x26-0x27 (1)
0x20|                     00 00 80 3f               |       ...?     |                    z: 1 0x27-0x2b (4)
    |                                               |                |                  [1]{}: in 0x2b-0x2d (2)
0x20|                                 20            |                |                    opcode: "local.get" (0x20) 0x2b-0x2c (1)
0x20|                                    00         |            .   |                    x: 0 (valid) 0x2c-0x2d (1)
    |                                               |                |                  [2]{}: in 0x2d-0x2e (1)
0x20|                                       95      |             .  |                    opcode: "f32.div" (0x95) 0x2d-0x2e (1)
    |                                               |                |                  [3]{}: in 0x2e-0x2f (1)
0x20|                                          0b|  |              .||                    opcode: "end" (0xb) 0x2e-0x2f (1)
