$ fq -d wasm dv float_exprs-56.wasm
    |00 01 02 03 04 05 06 07 08 09 0a 0b 0c 0d 0e 0f|0123456789abcdef|.{}: float_exprs-56.wasm (wasm) 0x0-0x7d.7 (126)
0x00|00 61 73 6d                                    |.asm            |  magic: raw bits (valid) 0x0-0x3.7 (4)
0x00|            01 00 00 00                        |    ....        |  version: 1 0x4-0x7.7 (4)
    |                                               |                |  sections[0:4]: 0x8-0x7d.7 (118)
    |                                               |                |    [0]{}: section 0x8-0x14.7 (13)
0x00|                        01                     |        .       |      id: "type section" (1) 0x8-0x8.7 (1)
0x00|                           0b                  |         .      |      size: 11 0x9-0x9.7 (1)
    |                                               |                |      content{}: 0xa-0x14.7 (11)
    |                                               |                |        ft{}: 0xa-0x14.7 (11)
0x00|                              02               |          .     |          n: 2 0xa-0xa.7 (1)
    |                                               |                |          x[0:2]: 0xb-0x14.7 (10)
    |                                               |                |            [0]{}: ft 0xb-0xf.7 (5)
0x00|                                 60            |           `    |              tag: 0x60 (valid) 0xb-0xb.7 (1)
    |                                               |                |              rt1{}: 0xc-0xd.7 (2)
0x00|                                    01         |            .   |                n: 1 0xc-0xc.7 (1)
    |                                               |                |                x[0:1]: 0xd-0xd.7 (1)
0x00|                                       7d      |             }  |                  [0]: "f32" (0x7d) t 0xd-0xd.7 (1)
    |                                               |                |              rt2{}: 0xe-0xf.7 (2)
0x00|                                          01   |              . |                n: 1 0xe-0xe.7 (1)
    |                                               |                |                x[0:1]: 0xf-0xf.7 (1)
0x00|                                             7d|               }|                  [0]: "f32" (0x7d) t 0xf-0xf.7 (1)
    |                                               |                |            [1]{}: ft 0x10-0x14.7 (5)
0x10|60                                             |`               |              tag: 0x60 (valid) 0x10-0x10.7 (1)
    |                                               |                |              rt1{}: 0x11-0x12.7 (2)
0x10|   01                                          | .              |                n: 1 0x11-0x11.7 (1)
    |                                               |                |                x[0:1]: 0x12-0x12.7 (1)
0x10|      7c                                       |  |             |                  [0]: "f64" (0x7c) t 0x12-0x12.7 (1)
    |                                               |                |              rt2{}: 0x13-0x14.7 (2)
0x10|         01                                    |   .            |                n: 1 0x13-0x13.7 (1)
    |                                               |                |                x[0:1]: 0x14-0x14.7 (1)
0x10|            7c                                 |    |           |                  [0]: "f64" (0x7c) t 0x14-0x14.7 (1)
    |                                               |                |    [1]{}: section 0x15-0x19.7 (5)
0x10|               03                              |     .          |      id: "function section" (3) 0x15-0x15.7 (1)
0x10|                  03                           |      .         |      size: 3 0x16-0x16.7 (1)
    |                                               |                |      content{}: 0x17-0x19.7 (3)
    |                                               |                |        x{}: 0x17-0x19.7 (3)
0x10|                     02                        |       .        |          n: 2 0x17-0x17.7 (1)
    |                                               |                |          x[0:2]: 0x18-0x19.7 (2)
0x10|                        00                     |        .       |            [0]: 0 x 0x18-0x18.7 (1)
0x10|                           01                  |         .      |            [1]: 1 x 0x19-0x19.7 (1)
    |                                               |                |    [2]{}: section 0x1a-0x50.7 (55)
0x10|                              07               |          .     |      id: "export section" (7) 0x1a-0x1a.7 (1)
0x10|                                 35            |           5    |      size: 53 0x1b-0x1b.7 (1)
    |                                               |                |      content{}: 0x1c-0x50.7 (53)
    |                                               |                |        ex{}: 0x1c-0x50.7 (53)
0x10|                                    02         |            .   |          n: 2 0x1c-0x1c.7 (1)
    |                                               |                |          x[0:2]: 0x1d-0x50.7 (52)
    |                                               |                |            [0]{}: ex 0x1d-0x36.7 (26)
    |                                               |                |              nm{}: 0x1d-0x34.7 (24)
0x10|                                       17      |             .  |                n: 23 0x1d-0x1d.7 (1)
0x10|                                          66 33|              f3|                b: "f32.no_fold_recip_recip" 0x1e-0x34.7 (23)
0x20|32 2e 6e 6f 5f 66 6f 6c 64 5f 72 65 63 69 70 5f|2.no_fold_recip_|
0x30|72 65 63 69 70                                 |recip           |
    |                                               |                |              d{}: 0x35-0x36.7 (2)
0x30|               00                              |     .          |                tag: "funcidx" (0x0) 0x35-0x35.7 (1)
0x30|                  00                           |      .         |                x: 0 0x36-0x36.7 (1)
    |                                               |                |            [1]{}: ex 0x37-0x50.7 (26)
    |                                               |                |              nm{}: 0x37-0x4e.7 (24)
0x30|                     17                        |       .        |                n: 23 0x37-0x37.7 (1)
0x30|                        66 36 34 2e 6e 6f 5f 66|        f64.no_f|                b: "f64.no_fold_recip_recip" 0x38-0x4e.7 (23)
0x40|6f 6c 64 5f 72 65 63 69 70 5f 72 65 63 69 70   |old_recip_recip |
    |                                               |                |              d{}: 0x4f-0x50.7 (2)
0x40|                                             00|               .|                tag: "funcidx" (0x0) 0x4f-0x4f.7 (1)
0x50|01                                             |.               |                x: 1 0x50-0x50.7 (1)
    |                                               |                |    [3]{}: section 0x51-0x7d.7 (45)
0x50|   0a                                          | .              |      id: "code section" (10) 0x51-0x51.7 (1)
0x50|      2b                                       |  +             |      size: 43 0x52-0x52.7 (1)
    |                                               |                |      content{}: 0x53-0x7d.7 (43)
    |                                               |                |        code{}: 0x53-0x7d.7 (43)
0x50|         02                                    |   .            |          n: 2 0x53-0x53.7 (1)
    |                                               |                |          x[0:2]: 0x54-0x7d.7 (42)
    |                                               |                |            [0]{}: code 0x54-0x64.7 (17)
0x50|            10                                 |    .           |              size: 16 0x54-0x54.7 (1)
    |                                               |                |              code{}: 0x55-0x64.7 (16)
    |                                               |                |                t{}: 0x55-0x55.7 (1)
0x50|               00                              |     .          |                  n: 0 0x55-0x55.7 (1)
    |                                               |                |                  x[0:0]: 0x56-NA (0)
    |                                               |                |                e[0:6]: 0x56-0x64.7 (15)
    |                                               |                |                  [0]{}: in 0x56-0x5a.7 (5)
0x50|                  43                           |      C         |                    f32.const: 0x43 (valid) 0x56-0x56.7 (1)
0x50|                     00 00 80 3f               |       ...?     |                    z: 1 0x57-0x5a.7 (4)
    |                                               |                |                  [1]{}: in 0x5b-0x5f.7 (5)
0x50|                                 43            |           C    |                    f32.const: 0x43 (valid) 0x5b-0x5b.7 (1)
0x50|                                    00 00 80 3f|            ...?|                    z: 1 0x5c-0x5f.7 (4)
    |                                               |                |                  [2]{}: in 0x60-0x61.7 (2)
0x60|20                                             |                |                    local.get: 0x20 (valid) 0x60-0x60.7 (1)
0x60|   00                                          | .              |                    x: 0 0x61-0x61.7 (1)
    |                                               |                |                  [3]{}: in 0x62-0x62.7 (1)
0x60|      95                                       |  .             |                    f32.div: 0x95 (valid) 0x62-0x62.7 (1)
    |                                               |                |                  [4]{}: in 0x63-0x63.7 (1)
0x60|         95                                    |   .            |                    f32.div: 0x95 (valid) 0x63-0x63.7 (1)
    |                                               |                |                  [5]{}: in 0x64-0x64.7 (1)
0x60|            0b                                 |    .           |                    end: 0xb (valid) 0x64-0x64.7 (1)
    |                                               |                |            [1]{}: code 0x65-0x7d.7 (25)
0x60|               18                              |     .          |              size: 24 0x65-0x65.7 (1)
    |                                               |                |              code{}: 0x66-0x7d.7 (24)
    |                                               |                |                t{}: 0x66-0x66.7 (1)
0x60|                  00                           |      .         |                  n: 0 0x66-0x66.7 (1)
    |                                               |                |                  x[0:0]: 0x67-NA (0)
    |                                               |                |                e[0:6]: 0x67-0x7d.7 (23)
    |                                               |                |                  [0]{}: in 0x67-0x6f.7 (9)
0x60|                     44                        |       D        |                    f64.const: 0x44 (valid) 0x67-0x67.7 (1)
0x60|                        00 00 00 00 00 00 f0 3f|        .......?|                    z: 1 0x68-0x6f.7 (8)
    |                                               |                |                  [1]{}: in 0x70-0x78.7 (9)
0x70|44                                             |D               |                    f64.const: 0x44 (valid) 0x70-0x70.7 (1)
0x70|   00 00 00 00 00 00 f0 3f                     | .......?       |                    z: 1 0x71-0x78.7 (8)
    |                                               |                |                  [2]{}: in 0x79-0x7a.7 (2)
0x70|                           20                  |                |                    local.get: 0x20 (valid) 0x79-0x79.7 (1)
0x70|                              00               |          .     |                    x: 0 0x7a-0x7a.7 (1)
    |                                               |                |                  [3]{}: in 0x7b-0x7b.7 (1)
0x70|                                 a3            |           .    |                    f64.div: 0xa3 (valid) 0x7b-0x7b.7 (1)
    |                                               |                |                  [4]{}: in 0x7c-0x7c.7 (1)
0x70|                                    a3         |            .   |                    f64.div: 0xa3 (valid) 0x7c-0x7c.7 (1)
    |                                               |                |                  [5]{}: in 0x7d-0x7d.7 (1)
0x70|                                       0b|     |             .| |                    end: 0xb (valid) 0x7d-0x7d.7 (1)
