$ fq -d wasm dv float_exprs-76.wasm
    |00 01 02 03 04 05 06 07 08 09 0a 0b 0c 0d 0e 0f|0123456789abcdef|.{}: float_exprs-76.wasm (wasm) 0x0-0xf5.7 (246)
0x00|00 61 73 6d                                    |.asm            |  magic: raw bits (valid) 0x0-0x3.7 (4)
0x00|            01 00 00 00                        |    ....        |  version: 1 0x4-0x7.7 (4)
    |                                               |                |  sections[0:4]: 0x8-0xf5.7 (238)
    |                                               |                |    [0]{}: section 0x8-0x1c.7 (21)
0x00|                        01                     |        .       |      id: "type section" (1) 0x8-0x8.7 (1)
0x00|                           13                  |         .      |      size: 19 0x9-0x9.7 (1)
    |                                               |                |      content{}: 0xa-0x1c.7 (19)
    |                                               |                |        ft{}: 0xa-0x1c.7 (19)
0x00|                              03               |          .     |          n: 3 0xa-0xa.7 (1)
    |                                               |                |          x[0:3]: 0xb-0x1c.7 (18)
    |                                               |                |            [0]{}: ft 0xb-0x10.7 (6)
0x00|                                 60            |           `    |              tag: 0x60 (valid) 0xb-0xb.7 (1)
    |                                               |                |              rt1{}: 0xc-0xe.7 (3)
0x00|                                    02         |            .   |                n: 2 0xc-0xc.7 (1)
    |                                               |                |                x[0:2]: 0xd-0xe.7 (2)
0x00|                                       7d      |             }  |                  [0]: "f32" (0x7d) t 0xd-0xd.7 (1)
0x00|                                          7d   |              } |                  [1]: "f32" (0x7d) t 0xe-0xe.7 (1)
    |                                               |                |              rt2{}: 0xf-0x10.7 (2)
0x00|                                             01|               .|                n: 1 0xf-0xf.7 (1)
    |                                               |                |                x[0:1]: 0x10-0x10.7 (1)
0x10|7f                                             |.               |                  [0]: "i32" (0x7f) t 0x10-0x10.7 (1)
    |                                               |                |            [1]{}: ft 0x11-0x16.7 (6)
0x10|   60                                          | `              |              tag: 0x60 (valid) 0x11-0x11.7 (1)
    |                                               |                |              rt1{}: 0x12-0x14.7 (3)
0x10|      02                                       |  .             |                n: 2 0x12-0x12.7 (1)
    |                                               |                |                x[0:2]: 0x13-0x14.7 (2)
0x10|         7c                                    |   |            |                  [0]: "f64" (0x7c) t 0x13-0x13.7 (1)
0x10|            7c                                 |    |           |                  [1]: "f64" (0x7c) t 0x14-0x14.7 (1)
    |                                               |                |              rt2{}: 0x15-0x16.7 (2)
0x10|               01                              |     .          |                n: 1 0x15-0x15.7 (1)
    |                                               |                |                x[0:1]: 0x16-0x16.7 (1)
0x10|                  7f                           |      .         |                  [0]: "i32" (0x7f) t 0x16-0x16.7 (1)
    |                                               |                |            [2]{}: ft 0x17-0x1c.7 (6)
0x10|                     60                        |       `        |              tag: 0x60 (valid) 0x17-0x17.7 (1)
    |                                               |                |              rt1{}: 0x18-0x1a.7 (3)
0x10|                        02                     |        .       |                n: 2 0x18-0x18.7 (1)
    |                                               |                |                x[0:2]: 0x19-0x1a.7 (2)
0x10|                           7c                  |         |      |                  [0]: "f64" (0x7c) t 0x19-0x19.7 (1)
0x10|                              7d               |          }     |                  [1]: "f32" (0x7d) t 0x1a-0x1a.7 (1)
    |                                               |                |              rt2{}: 0x1b-0x1c.7 (2)
0x10|                                 01            |           .    |                n: 1 0x1b-0x1b.7 (1)
    |                                               |                |                x[0:1]: 0x1c-0x1c.7 (1)
0x10|                                    7d         |            }   |                  [0]: "f32" (0x7d) t 0x1c-0x1c.7 (1)
    |                                               |                |    [1]{}: section 0x1d-0x26.7 (10)
0x10|                                       03      |             .  |      id: "function section" (3) 0x1d-0x1d.7 (1)
0x10|                                          08   |              . |      size: 8 0x1e-0x1e.7 (1)
    |                                               |                |      content{}: 0x1f-0x26.7 (8)
    |                                               |                |        x{}: 0x1f-0x26.7 (8)
0x10|                                             07|               .|          n: 7 0x1f-0x1f.7 (1)
    |                                               |                |          x[0:7]: 0x20-0x26.7 (7)
0x20|00                                             |.               |            [0]: 0 x 0x20-0x20.7 (1)
0x20|   00                                          | .              |            [1]: 0 x 0x21-0x21.7 (1)
0x20|      00                                       |  .             |            [2]: 0 x 0x22-0x22.7 (1)
0x20|         01                                    |   .            |            [3]: 1 x 0x23-0x23.7 (1)
0x20|            01                                 |    .           |            [4]: 1 x 0x24-0x24.7 (1)
0x20|               01                              |     .          |            [5]: 1 x 0x25-0x25.7 (1)
0x20|                  02                           |      .         |            [6]: 2 x 0x26-0x26.7 (1)
    |                                               |                |    [2]{}: section 0x27-0xa7.7 (129)
0x20|                     07                        |       .        |      id: "export section" (7) 0x27-0x27.7 (1)
0x20|                        7f                     |        .       |      size: 127 0x28-0x28.7 (1)
    |                                               |                |      content{}: 0x29-0xa7.7 (127)
    |                                               |                |        ex{}: 0x29-0xa7.7 (127)
0x20|                           07                  |         .      |          n: 7 0x29-0x29.7 (1)
    |                                               |                |          x[0:7]: 0x2a-0xa7.7 (126)
    |                                               |                |            [0]{}: ex 0x2a-0x3b.7 (18)
    |                                               |                |              nm{}: 0x2a-0x39.7 (16)
0x20|                              0f               |          .     |                n: 15 0x2a-0x2a.7 (1)
0x20|                                 66 33 32 2e 72|           f32.r|                b: "f32.recoding_eq" 0x2b-0x39.7 (15)
0x30|65 63 6f 64 69 6e 67 5f 65 71                  |ecoding_eq      |
    |                                               |                |              d{}: 0x3a-0x3b.7 (2)
0x30|                              00               |          .     |                tag: "funcidx" (0x0) 0x3a-0x3a.7 (1)
0x30|                                 00            |           .    |                x: 0 0x3b-0x3b.7 (1)
    |                                               |                |            [1]{}: ex 0x3c-0x4d.7 (18)
    |                                               |                |              nm{}: 0x3c-0x4b.7 (16)
0x30|                                    0f         |            .   |                n: 15 0x3c-0x3c.7 (1)
0x30|                                       66 33 32|             f32|                b: "f32.recoding_le" 0x3d-0x4b.7 (15)
0x40|2e 72 65 63 6f 64 69 6e 67 5f 6c 65            |.recoding_le    |
    |                                               |                |              d{}: 0x4c-0x4d.7 (2)
0x40|                                    00         |            .   |                tag: "funcidx" (0x0) 0x4c-0x4c.7 (1)
0x40|                                       01      |             .  |                x: 1 0x4d-0x4d.7 (1)
    |                                               |                |            [2]{}: ex 0x4e-0x5f.7 (18)
    |                                               |                |              nm{}: 0x4e-0x5d.7 (16)
0x40|                                          0f   |              . |                n: 15 0x4e-0x4e.7 (1)
0x40|                                             66|               f|                b: "f32.recoding_lt" 0x4f-0x5d.7 (15)
0x50|33 32 2e 72 65 63 6f 64 69 6e 67 5f 6c 74      |32.recoding_lt  |
    |                                               |                |              d{}: 0x5e-0x5f.7 (2)
0x50|                                          00   |              . |                tag: "funcidx" (0x0) 0x5e-0x5e.7 (1)
0x50|                                             02|               .|                x: 2 0x5f-0x5f.7 (1)
    |                                               |                |            [3]{}: ex 0x60-0x71.7 (18)
    |                                               |                |              nm{}: 0x60-0x6f.7 (16)
0x60|0f                                             |.               |                n: 15 0x60-0x60.7 (1)
0x60|   66 36 34 2e 72 65 63 6f 64 69 6e 67 5f 65 71| f64.recoding_eq|                b: "f64.recoding_eq" 0x61-0x6f.7 (15)
    |                                               |                |              d{}: 0x70-0x71.7 (2)
0x70|00                                             |.               |                tag: "funcidx" (0x0) 0x70-0x70.7 (1)
0x70|   03                                          | .              |                x: 3 0x71-0x71.7 (1)
    |                                               |                |            [4]{}: ex 0x72-0x83.7 (18)
    |                                               |                |              nm{}: 0x72-0x81.7 (16)
0x70|      0f                                       |  .             |                n: 15 0x72-0x72.7 (1)
0x70|         66 36 34 2e 72 65 63 6f 64 69 6e 67 5f|   f64.recoding_|                b: "f64.recoding_le" 0x73-0x81.7 (15)
0x80|6c 65                                          |le              |
    |                                               |                |              d{}: 0x82-0x83.7 (2)
0x80|      00                                       |  .             |                tag: "funcidx" (0x0) 0x82-0x82.7 (1)
0x80|         04                                    |   .            |                x: 4 0x83-0x83.7 (1)
    |                                               |                |            [5]{}: ex 0x84-0x95.7 (18)
    |                                               |                |              nm{}: 0x84-0x93.7 (16)
0x80|            0f                                 |    .           |                n: 15 0x84-0x84.7 (1)
0x80|               66 36 34 2e 72 65 63 6f 64 69 6e|     f64.recodin|                b: "f64.recoding_lt" 0x85-0x93.7 (15)
0x90|67 5f 6c 74                                    |g_lt            |
    |                                               |                |              d{}: 0x94-0x95.7 (2)
0x90|            00                                 |    .           |                tag: "funcidx" (0x0) 0x94-0x94.7 (1)
0x90|               05                              |     .          |                x: 5 0x95-0x95.7 (1)
    |                                               |                |            [6]{}: ex 0x96-0xa7.7 (18)
    |                                               |                |              nm{}: 0x96-0xa5.7 (16)
0x90|                  0f                           |      .         |                n: 15 0x96-0x96.7 (1)
0x90|                     72 65 63 6f 64 69 6e 67 5f|       recoding_|                b: "recoding_demote" 0x97-0xa5.7 (15)
0xa0|64 65 6d 6f 74 65                              |demote          |
    |                                               |                |              d{}: 0xa6-0xa7.7 (2)
0xa0|                  00                           |      .         |                tag: "funcidx" (0x0) 0xa6-0xa6.7 (1)
0xa0|                     06                        |       .        |                x: 6 0xa7-0xa7.7 (1)
    |                                               |                |    [3]{}: section 0xa8-0xf5.7 (78)
0xa0|                        0a                     |        .       |      id: "code section" (10) 0xa8-0xa8.7 (1)
0xa0|                           4c                  |         L      |      size: 76 0xa9-0xa9.7 (1)
    |                                               |                |      content{}: 0xaa-0xf5.7 (76)
    |                                               |                |        code{}: 0xaa-0xf5.7 (76)
0xa0|                              07               |          .     |          n: 7 0xaa-0xaa.7 (1)
    |                                               |                |          x[0:7]: 0xab-0xf5.7 (75)
    |                                               |                |            [0]{}: code 0xab-0xb5.7 (11)
0xa0|                                 0a            |           .    |              size: 10 0xab-0xab.7 (1)
    |                                               |                |              code{}: 0xac-0xb5.7 (10)
    |                                               |                |                t{}: 0xac-0xac.7 (1)
0xa0|                                    00         |            .   |                  n: 0 0xac-0xac.7 (1)
    |                                               |                |                  x[0:0]: 0xad-NA (0)
    |                                               |                |                e[0:6]: 0xad-0xb5.7 (9)
    |                                               |                |                  [0]{}: in 0xad-0xae.7 (2)
0xa0|                                       20      |                |                    local.get: 0x20 (valid) 0xad-0xad.7 (1)
0xa0|                                          00   |              . |                    x: 0 0xae-0xae.7 (1)
    |                                               |                |                  [1]{}: in 0xaf-0xb0.7 (2)
0xa0|                                             20|                |                    local.get: 0x20 (valid) 0xaf-0xaf.7 (1)
0xb0|01                                             |.               |                    x: 1 0xb0-0xb0.7 (1)
    |                                               |                |                  [2]{}: in 0xb1-0xb1.7 (1)
0xb0|   94                                          | .              |                    f32.mul: 0x94 (valid) 0xb1-0xb1.7 (1)
    |                                               |                |                  [3]{}: in 0xb2-0xb3.7 (2)
0xb0|      20                                       |                |                    local.get: 0x20 (valid) 0xb2-0xb2.7 (1)
0xb0|         00                                    |   .            |                    x: 0 0xb3-0xb3.7 (1)
    |                                               |                |                  [4]{}: in 0xb4-0xb4.7 (1)
0xb0|            5b                                 |    [           |                    f32.eq: 0x5b (valid) 0xb4-0xb4.7 (1)
    |                                               |                |                  [5]{}: in 0xb5-0xb5.7 (1)
0xb0|               0b                              |     .          |                    end: 0xb (valid) 0xb5-0xb5.7 (1)
    |                                               |                |            [1]{}: code 0xb6-0xc0.7 (11)
0xb0|                  0a                           |      .         |              size: 10 0xb6-0xb6.7 (1)
    |                                               |                |              code{}: 0xb7-0xc0.7 (10)
    |                                               |                |                t{}: 0xb7-0xb7.7 (1)
0xb0|                     00                        |       .        |                  n: 0 0xb7-0xb7.7 (1)
    |                                               |                |                  x[0:0]: 0xb8-NA (0)
    |                                               |                |                e[0:6]: 0xb8-0xc0.7 (9)
    |                                               |                |                  [0]{}: in 0xb8-0xb9.7 (2)
0xb0|                        20                     |                |                    local.get: 0x20 (valid) 0xb8-0xb8.7 (1)
0xb0|                           00                  |         .      |                    x: 0 0xb9-0xb9.7 (1)
    |                                               |                |                  [1]{}: in 0xba-0xbb.7 (2)
0xb0|                              20               |                |                    local.get: 0x20 (valid) 0xba-0xba.7 (1)
0xb0|                                 01            |           .    |                    x: 1 0xbb-0xbb.7 (1)
    |                                               |                |                  [2]{}: in 0xbc-0xbc.7 (1)
0xb0|                                    94         |            .   |                    f32.mul: 0x94 (valid) 0xbc-0xbc.7 (1)
    |                                               |                |                  [3]{}: in 0xbd-0xbe.7 (2)
0xb0|                                       20      |                |                    local.get: 0x20 (valid) 0xbd-0xbd.7 (1)
0xb0|                                          00   |              . |                    x: 0 0xbe-0xbe.7 (1)
    |                                               |                |                  [4]{}: in 0xbf-0xbf.7 (1)
0xb0|                                             5f|               _|                    f32.le: 0x5f (valid) 0xbf-0xbf.7 (1)
    |                                               |                |                  [5]{}: in 0xc0-0xc0.7 (1)
0xc0|0b                                             |.               |                    end: 0xb (valid) 0xc0-0xc0.7 (1)
    |                                               |                |            [2]{}: code 0xc1-0xcb.7 (11)
0xc0|   0a                                          | .              |              size: 10 0xc1-0xc1.7 (1)
    |                                               |                |              code{}: 0xc2-0xcb.7 (10)
    |                                               |                |                t{}: 0xc2-0xc2.7 (1)
0xc0|      00                                       |  .             |                  n: 0 0xc2-0xc2.7 (1)
    |                                               |                |                  x[0:0]: 0xc3-NA (0)
    |                                               |                |                e[0:6]: 0xc3-0xcb.7 (9)
    |                                               |                |                  [0]{}: in 0xc3-0xc4.7 (2)
0xc0|         20                                    |                |                    local.get: 0x20 (valid) 0xc3-0xc3.7 (1)
0xc0|            00                                 |    .           |                    x: 0 0xc4-0xc4.7 (1)
    |                                               |                |                  [1]{}: in 0xc5-0xc6.7 (2)
0xc0|               20                              |                |                    local.get: 0x20 (valid) 0xc5-0xc5.7 (1)
0xc0|                  01                           |      .         |                    x: 1 0xc6-0xc6.7 (1)
    |                                               |                |                  [2]{}: in 0xc7-0xc7.7 (1)
0xc0|                     94                        |       .        |                    f32.mul: 0x94 (valid) 0xc7-0xc7.7 (1)
    |                                               |                |                  [3]{}: in 0xc8-0xc9.7 (2)
0xc0|                        20                     |                |                    local.get: 0x20 (valid) 0xc8-0xc8.7 (1)
0xc0|                           00                  |         .      |                    x: 0 0xc9-0xc9.7 (1)
    |                                               |                |                  [4]{}: in 0xca-0xca.7 (1)
0xc0|                              5d               |          ]     |                    f32.lt: 0x5d (valid) 0xca-0xca.7 (1)
    |                                               |                |                  [5]{}: in 0xcb-0xcb.7 (1)
0xc0|                                 0b            |           .    |                    end: 0xb (valid) 0xcb-0xcb.7 (1)
    |                                               |                |            [3]{}: code 0xcc-0xd6.7 (11)
0xc0|                                    0a         |            .   |              size: 10 0xcc-0xcc.7 (1)
    |                                               |                |              code{}: 0xcd-0xd6.7 (10)
    |                                               |                |                t{}: 0xcd-0xcd.7 (1)
0xc0|                                       00      |             .  |                  n: 0 0xcd-0xcd.7 (1)
    |                                               |                |                  x[0:0]: 0xce-NA (0)
    |                                               |                |                e[0:6]: 0xce-0xd6.7 (9)
    |                                               |                |                  [0]{}: in 0xce-0xcf.7 (2)
0xc0|                                          20   |                |                    local.get: 0x20 (valid) 0xce-0xce.7 (1)
0xc0|                                             00|               .|                    x: 0 0xcf-0xcf.7 (1)
    |                                               |                |                  [1]{}: in 0xd0-0xd1.7 (2)
0xd0|20                                             |                |                    local.get: 0x20 (valid) 0xd0-0xd0.7 (1)
0xd0|   01                                          | .              |                    x: 1 0xd1-0xd1.7 (1)
    |                                               |                |                  [2]{}: in 0xd2-0xd2.7 (1)
0xd0|      a2                                       |  .             |                    f64.mul: 0xa2 (valid) 0xd2-0xd2.7 (1)
    |                                               |                |                  [3]{}: in 0xd3-0xd4.7 (2)
0xd0|         20                                    |                |                    local.get: 0x20 (valid) 0xd3-0xd3.7 (1)
0xd0|            00                                 |    .           |                    x: 0 0xd4-0xd4.7 (1)
    |                                               |                |                  [4]{}: in 0xd5-0xd5.7 (1)
0xd0|               61                              |     a          |                    f64.eq: 0x61 (valid) 0xd5-0xd5.7 (1)
    |                                               |                |                  [5]{}: in 0xd6-0xd6.7 (1)
0xd0|                  0b                           |      .         |                    end: 0xb (valid) 0xd6-0xd6.7 (1)
    |                                               |                |            [4]{}: code 0xd7-0xe1.7 (11)
0xd0|                     0a                        |       .        |              size: 10 0xd7-0xd7.7 (1)
    |                                               |                |              code{}: 0xd8-0xe1.7 (10)
    |                                               |                |                t{}: 0xd8-0xd8.7 (1)
0xd0|                        00                     |        .       |                  n: 0 0xd8-0xd8.7 (1)
    |                                               |                |                  x[0:0]: 0xd9-NA (0)
    |                                               |                |                e[0:6]: 0xd9-0xe1.7 (9)
    |                                               |                |                  [0]{}: in 0xd9-0xda.7 (2)
0xd0|                           20                  |                |                    local.get: 0x20 (valid) 0xd9-0xd9.7 (1)
0xd0|                              00               |          .     |                    x: 0 0xda-0xda.7 (1)
    |                                               |                |                  [1]{}: in 0xdb-0xdc.7 (2)
0xd0|                                 20            |                |                    local.get: 0x20 (valid) 0xdb-0xdb.7 (1)
0xd0|                                    01         |            .   |                    x: 1 0xdc-0xdc.7 (1)
    |                                               |                |                  [2]{}: in 0xdd-0xdd.7 (1)
0xd0|                                       a2      |             .  |                    f64.mul: 0xa2 (valid) 0xdd-0xdd.7 (1)
    |                                               |                |                  [3]{}: in 0xde-0xdf.7 (2)
0xd0|                                          20   |                |                    local.get: 0x20 (valid) 0xde-0xde.7 (1)
0xd0|                                             00|               .|                    x: 0 0xdf-0xdf.7 (1)
    |                                               |                |                  [4]{}: in 0xe0-0xe0.7 (1)
0xe0|65                                             |e               |                    f64.le: 0x65 (valid) 0xe0-0xe0.7 (1)
    |                                               |                |                  [5]{}: in 0xe1-0xe1.7 (1)
0xe0|   0b                                          | .              |                    end: 0xb (valid) 0xe1-0xe1.7 (1)
    |                                               |                |            [5]{}: code 0xe2-0xec.7 (11)
0xe0|      0a                                       |  .             |              size: 10 0xe2-0xe2.7 (1)
    |                                               |                |              code{}: 0xe3-0xec.7 (10)
    |                                               |                |                t{}: 0xe3-0xe3.7 (1)
0xe0|         00                                    |   .            |                  n: 0 0xe3-0xe3.7 (1)
    |                                               |                |                  x[0:0]: 0xe4-NA (0)
    |                                               |                |                e[0:6]: 0xe4-0xec.7 (9)
    |                                               |                |                  [0]{}: in 0xe4-0xe5.7 (2)
0xe0|            20                                 |                |                    local.get: 0x20 (valid) 0xe4-0xe4.7 (1)
0xe0|               00                              |     .          |                    x: 0 0xe5-0xe5.7 (1)
    |                                               |                |                  [1]{}: in 0xe6-0xe7.7 (2)
0xe0|                  20                           |                |                    local.get: 0x20 (valid) 0xe6-0xe6.7 (1)
0xe0|                     01                        |       .        |                    x: 1 0xe7-0xe7.7 (1)
    |                                               |                |                  [2]{}: in 0xe8-0xe8.7 (1)
0xe0|                        a2                     |        .       |                    f64.mul: 0xa2 (valid) 0xe8-0xe8.7 (1)
    |                                               |                |                  [3]{}: in 0xe9-0xea.7 (2)
0xe0|                           20                  |                |                    local.get: 0x20 (valid) 0xe9-0xe9.7 (1)
0xe0|                              00               |          .     |                    x: 0 0xea-0xea.7 (1)
    |                                               |                |                  [4]{}: in 0xeb-0xeb.7 (1)
0xe0|                                 63            |           c    |                    f64.lt: 0x63 (valid) 0xeb-0xeb.7 (1)
    |                                               |                |                  [5]{}: in 0xec-0xec.7 (1)
0xe0|                                    0b         |            .   |                    end: 0xb (valid) 0xec-0xec.7 (1)
    |                                               |                |            [6]{}: code 0xed-0xf5.7 (9)
0xe0|                                       08      |             .  |              size: 8 0xed-0xed.7 (1)
    |                                               |                |              code{}: 0xee-0xf5.7 (8)
    |                                               |                |                t{}: 0xee-0xee.7 (1)
0xe0|                                          00   |              . |                  n: 0 0xee-0xee.7 (1)
    |                                               |                |                  x[0:0]: 0xef-NA (0)
    |                                               |                |                e[0:5]: 0xef-0xf5.7 (7)
    |                                               |                |                  [0]{}: in 0xef-0xf0.7 (2)
0xe0|                                             20|                |                    local.get: 0x20 (valid) 0xef-0xef.7 (1)
0xf0|00                                             |.               |                    x: 0 0xf0-0xf0.7 (1)
    |                                               |                |                  [1]{}: in 0xf1-0xf1.7 (1)
0xf0|   b6                                          | .              |                    f32.demote_f64: 0xb6 (valid) 0xf1-0xf1.7 (1)
    |                                               |                |                  [2]{}: in 0xf2-0xf3.7 (2)
0xf0|      20                                       |                |                    local.get: 0x20 (valid) 0xf2-0xf2.7 (1)
0xf0|         01                                    |   .            |                    x: 1 0xf3-0xf3.7 (1)
    |                                               |                |                  [3]{}: in 0xf4-0xf4.7 (1)
0xf0|            94                                 |    .           |                    f32.mul: 0x94 (valid) 0xf4-0xf4.7 (1)
    |                                               |                |                  [4]{}: in 0xf5-0xf5.7 (1)
0xf0|               0b|                             |     .|         |                    end: 0xb (valid) 0xf5-0xf5.7 (1)
