$ fq -d wasm dv float_exprs-93.wasm
    |00 01 02 03 04 05 06 07 08 09 0a 0b 0c 0d 0e 0f|0123456789abcdef|.{}: float_exprs-93.wasm (wasm) 0x0-0x39.7 (58)
0x00|00 61 73 6d                                    |.asm            |  magic: raw bits (valid) 0x0-0x3.7 (4)
0x00|            01 00 00 00                        |    ....        |  version: 1 0x4-0x7.7 (4)
    |                                               |                |  sections[0:4]: 0x8-0x39.7 (50)
    |                                               |                |    [0]{}: section 0x8-0x10.7 (9)
0x00|                        01                     |        .       |      id: "type section" (1) 0x8-0x8.7 (1)
0x00|                           07                  |         .      |      size: 7 0x9-0x9.7 (1)
    |                                               |                |      content{}: 0xa-0x10.7 (7)
    |                                               |                |        ft{}: 0xa-0x10.7 (7)
0x00|                              01               |          .     |          n: 1 0xa-0xa.7 (1)
    |                                               |                |          x[0:1]: 0xb-0x10.7 (6)
    |                                               |                |            [0]{}: ft 0xb-0x10.7 (6)
0x00|                                 60            |           `    |              tag: 0x60 (valid) 0xb-0xb.7 (1)
    |                                               |                |              rt1{}: 0xc-0xe.7 (3)
0x00|                                    02         |            .   |                n: 2 0xc-0xc.7 (1)
    |                                               |                |                x[0:2]: 0xd-0xe.7 (2)
0x00|                                       7c      |             |  |                  [0]: "f64" (0x7c) t 0xd-0xd.7 (1)
0x00|                                          7c   |              | |                  [1]: "f64" (0x7c) t 0xe-0xe.7 (1)
    |                                               |                |              rt2{}: 0xf-0x10.7 (2)
0x00|                                             01|               .|                n: 1 0xf-0xf.7 (1)
    |                                               |                |                x[0:1]: 0x10-0x10.7 (1)
0x10|7f                                             |.               |                  [0]: "i32" (0x7f) t 0x10-0x10.7 (1)
    |                                               |                |    [1]{}: section 0x11-0x14.7 (4)
0x10|   03                                          | .              |      id: "function section" (3) 0x11-0x11.7 (1)
0x10|      02                                       |  .             |      size: 2 0x12-0x12.7 (1)
    |                                               |                |      content{}: 0x13-0x14.7 (2)
    |                                               |                |        x{}: 0x13-0x14.7 (2)
0x10|         01                                    |   .            |          n: 1 0x13-0x13.7 (1)
    |                                               |                |          x[0:1]: 0x14-0x14.7 (1)
0x10|            00                                 |    .           |            [0]: 0 x 0x14-0x14.7 (1)
    |                                               |                |    [2]{}: section 0x15-0x24.7 (16)
0x10|               07                              |     .          |      id: "export section" (7) 0x15-0x15.7 (1)
0x10|                  0e                           |      .         |      size: 14 0x16-0x16.7 (1)
    |                                               |                |      content{}: 0x17-0x24.7 (14)
    |                                               |                |        ex{}: 0x17-0x24.7 (14)
0x10|                     01                        |       .        |          n: 1 0x17-0x17.7 (1)
    |                                               |                |          x[0:1]: 0x18-0x24.7 (13)
    |                                               |                |            [0]{}: ex 0x18-0x24.7 (13)
    |                                               |                |              nm{}: 0x18-0x22.7 (11)
0x10|                        0a                     |        .       |                n: 10 0x18-0x18.7 (1)
0x10|                           70 6f 69 6e 74 5f 66|         point_f|                b: "point_four" 0x19-0x22.7 (10)
0x20|6f 75 72                                       |our             |
    |                                               |                |              d{}: 0x23-0x24.7 (2)
0x20|         00                                    |   .            |                tag: "funcidx" (0x0) 0x23-0x23.7 (1)
0x20|            00                                 |    .           |                x: 0 0x24-0x24.7 (1)
    |                                               |                |    [3]{}: section 0x25-0x39.7 (21)
0x20|               0a                              |     .          |      id: "code section" (10) 0x25-0x25.7 (1)
0x20|                  13                           |      .         |      size: 19 0x26-0x26.7 (1)
    |                                               |                |      content{}: 0x27-0x39.7 (19)
    |                                               |                |        code{}: 0x27-0x39.7 (19)
0x20|                     01                        |       .        |          n: 1 0x27-0x27.7 (1)
    |                                               |                |          x[0:1]: 0x28-0x39.7 (18)
    |                                               |                |            [0]{}: code 0x28-0x39.7 (18)
0x20|                        11                     |        .       |              size: 17 0x28-0x28.7 (1)
    |                                               |                |              code{}: 0x29-0x39.7 (17)
    |                                               |                |                t{}: 0x29-0x29.7 (1)
0x20|                           00                  |         .      |                  n: 0 0x29-0x29.7 (1)
    |                                               |                |                  x[0:0]: 0x2a-NA (0)
    |                                               |                |                e[0:6]: 0x2a-0x39.7 (16)
    |                                               |                |                  [0]{}: in 0x2a-0x2b.7 (2)
0x20|                              20               |                |                    local.get: 0x20 (valid) 0x2a-0x2a.7 (1)
0x20|                                 00            |           .    |                    x: 0 0x2b-0x2b.7 (1)
    |                                               |                |                  [1]{}: in 0x2c-0x2d.7 (2)
0x20|                                    20         |                |                    local.get: 0x20 (valid) 0x2c-0x2c.7 (1)
0x20|                                       01      |             .  |                    x: 1 0x2d-0x2d.7 (1)
    |                                               |                |                  [2]{}: in 0x2e-0x2e.7 (1)
0x20|                                          a3   |              . |                    f64.div: 0xa3 (valid) 0x2e-0x2e.7 (1)
    |                                               |                |                  [3]{}: in 0x2f-0x37.7 (9)
0x20|                                             44|               D|                    f64.const: 0x44 (valid) 0x2f-0x2f.7 (1)
0x30|9a 99 99 99 99 99 d9 3f                        |.......?        |                    z: 0.4 0x30-0x37.7 (8)
    |                                               |                |                  [4]{}: in 0x38-0x38.7 (1)
0x30|                        63                     |        c       |                    f64.lt: 0x63 (valid) 0x38-0x38.7 (1)
    |                                               |                |                  [5]{}: in 0x39-0x39.7 (1)
0x30|                           0b|                 |         .|     |                    end: 0xb (valid) 0x39-0x39.7 (1)
