$ fq -d wasm dv float_exprs-95.wasm
    |00 01 02 03 04 05 06 07 08 09 0a 0b 0c 0d 0e 0f|0123456789abcdef|.{}: float_exprs-95.wasm (wasm) 0x0-0x92 (146)
0x00|00 61 73 6d                                    |.asm            |  magic: raw bits (valid) 0x0-0x4 (4)
0x00|            01 00 00 00                        |    ....        |  version: 1 0x4-0x8 (4)
    |                                               |                |  sections[0:4]: 0x8-0x92 (138)
    |                                               |                |    [0]{}: section 0x8-0x17 (15)
0x00|                        01                     |        .       |      id: "type_section" (1) 0x8-0x9 (1)
0x00|                           0d                  |         .      |      size: 13 (valid) 0x9-0xa (1)
    |                                               |                |      content{}: 0xa-0x17 (13)
    |                                               |                |        ft{}: 0xa-0x17 (13)
0x00|                              02               |          .     |          n: 2 (valid) 0xa-0xb (1)
    |                                               |                |          x[0:2]: 0xb-0x17 (12)
    |                                               |                |            [0]{}: ft 0xb-0x11 (6)
0x00|                                 60            |           `    |              tag: 0x60 (valid) 0xb-0xc (1)
    |                                               |                |              rt1{}: 0xc-0xf (3)
0x00|                                    02         |            .   |                n: 2 (valid) 0xc-0xd (1)
    |                                               |                |                x[0:2]: 0xd-0xf (2)
0x00|                                       7d      |             }  |                  [0]: "f32" (0x7d) t 0xd-0xe (1)
0x00|                                          7d   |              } |                  [1]: "f32" (0x7d) t 0xe-0xf (1)
    |                                               |                |              rt2{}: 0xf-0x11 (2)
0x00|                                             01|               .|                n: 1 (valid) 0xf-0x10 (1)
    |                                               |                |                x[0:1]: 0x10-0x11 (1)
0x10|7d                                             |}               |                  [0]: "f32" (0x7d) t 0x10-0x11 (1)
    |                                               |                |            [1]{}: ft 0x11-0x17 (6)
0x10|   60                                          | `              |              tag: 0x60 (valid) 0x11-0x12 (1)
    |                                               |                |              rt1{}: 0x12-0x15 (3)
0x10|      02                                       |  .             |                n: 2 (valid) 0x12-0x13 (1)
    |                                               |                |                x[0:2]: 0x13-0x15 (2)
0x10|         7c                                    |   |            |                  [0]: "f64" (0x7c) t 0x13-0x14 (1)
0x10|            7c                                 |    |           |                  [1]: "f64" (0x7c) t 0x14-0x15 (1)
    |                                               |                |              rt2{}: 0x15-0x17 (2)
0x10|               01                              |     .          |                n: 1 (valid) 0x15-0x16 (1)
    |                                               |                |                x[0:1]: 0x16-0x17 (1)
0x10|                  7c                           |      |         |                  [0]: "f64" (0x7c) t 0x16-0x17 (1)
    |                                               |                |    [1]{}: section 0x17-0x1c (5)
0x10|                     03                        |       .        |      id: "function_section" (3) 0x17-0x18 (1)
0x10|                        03                     |        .       |      size: 3 (valid) 0x18-0x19 (1)
    |                                               |                |      content{}: 0x19-0x1c (3)
    |                                               |                |        x{}: 0x19-0x1c (3)
0x10|                           02                  |         .      |          n: 2 (valid) 0x19-0x1a (1)
    |                                               |                |          x[0:2]: 0x1a-0x1c (2)
0x10|                              00               |          .     |            [0]: 0 x (valid) 0x1a-0x1b (1)
0x10|                                 01            |           .    |            [1]: 1 x (valid) 0x1b-0x1c (1)
    |                                               |                |    [2]{}: section 0x1c-0x5b (63)
0x10|                                    07         |            .   |      id: "export_section" (7) 0x1c-0x1d (1)
0x10|                                       3d      |             =  |      size: 61 (valid) 0x1d-0x1e (1)
    |                                               |                |      content{}: 0x1e-0x5b (61)
    |                                               |                |        ex{}: 0x1e-0x5b (61)
0x10|                                          02   |              . |          n: 2 (valid) 0x1e-0x1f (1)
    |                                               |                |          x[0:2]: 0x1f-0x5b (60)
    |                                               |                |            [0]{}: ex 0x1f-0x3d (30)
    |                                               |                |              nm{}: 0x1f-0x3b (28)
0x10|                                             1b|               .|                n: 27 (valid) 0x1f-0x20 (1)
0x20|66 33 32 2e 6e 6f 5f 66 6f 6c 64 5f 63 6f 6e 64|f32.no_fold_cond|                b: "f32.no_fold_conditional_inc" 0x20-0x3b (27)
0x30|69 74 69 6f 6e 61 6c 5f 69 6e 63               |itional_inc     |
    |                                               |                |              d{}: 0x3b-0x3d (2)
0x30|                                 00            |           .    |                tag: "funcidx" (0x0) 0x3b-0x3c (1)
0x30|                                    00         |            .   |                x: 0 (valid) 0x3c-0x3d (1)
    |                                               |                |            [1]{}: ex 0x3d-0x5b (30)
    |                                               |                |              nm{}: 0x3d-0x59 (28)
0x30|                                       1b      |             .  |                n: 27 (valid) 0x3d-0x3e (1)
0x30|                                          66 36|              f6|                b: "f64.no_fold_conditional_inc" 0x3e-0x59 (27)
0x40|34 2e 6e 6f 5f 66 6f 6c 64 5f 63 6f 6e 64 69 74|4.no_fold_condit|
0x50|69 6f 6e 61 6c 5f 69 6e 63                     |ional_inc       |
    |                                               |                |              d{}: 0x59-0x5b (2)
0x50|                           00                  |         .      |                tag: "funcidx" (0x0) 0x59-0x5a (1)
0x50|                              01               |          .     |                x: 1 (valid) 0x5a-0x5b (1)
    |                                               |                |    [3]{}: section 0x5b-0x92 (55)
0x50|                                 0a            |           .    |      id: "code_section" (10) 0x5b-0x5c (1)
0x50|                                    35         |            5   |      size: 53 (valid) 0x5c-0x5d (1)
    |                                               |                |      content{}: 0x5d-0x92 (53)
    |                                               |                |        code{}: 0x5d-0x92 (53)
0x50|                                       02      |             .  |          n: 2 (valid) 0x5d-0x5e (1)
    |                                               |                |          x[0:2]: 0x5e-0x92 (52)
    |                                               |                |            [0]{}: code 0x5e-0x74 (22)
0x50|                                          15   |              . |              size: 21 (valid) 0x5e-0x5f (1)
    |                                               |                |              code{}: 0x5f-0x74 (21)
    |                                               |                |                t{}: 0x5f-0x60 (1)
0x50|                                             00|               .|                  n: 0 (valid) 0x5f-0x60 (1)
    |                                               |                |                  x[0:0]: 0x60-0x60 (0)
    |                                               |                |                e[0:9]: 0x60-0x74 (20)
    |                                               |                |                  [0]{}: in 0x60-0x62 (2)
0x60|20                                             |                |                    opcode: "local.get" (0x20) 0x60-0x61 (1)
0x60|   00                                          | .              |                    x: 0 (valid) 0x61-0x62 (1)
    |                                               |                |                  [1]{}: in 0x62-0x64 (2)
0x60|      20                                       |                |                    opcode: "local.get" (0x20) 0x62-0x63 (1)
0x60|         00                                    |   .            |                    x: 0 (valid) 0x63-0x64 (1)
    |                                               |                |                  [2]{}: in 0x64-0x69 (5)
0x60|            43                                 |    C           |                    opcode: "f32.const" (0x43) 0x64-0x65 (1)
0x60|               00 00 80 3f                     |     ...?       |                    z: 1 0x65-0x69 (4)
    |                                               |                |                  [3]{}: in 0x69-0x6a (1)
0x60|                           92                  |         .      |                    opcode: "f32.add" (0x92) 0x69-0x6a (1)
    |                                               |                |                  [4]{}: in 0x6a-0x6c (2)
0x60|                              20               |                |                    opcode: "local.get" (0x20) 0x6a-0x6b (1)
0x60|                                 01            |           .    |                    x: 1 (valid) 0x6b-0x6c (1)
    |                                               |                |                  [5]{}: in 0x6c-0x71 (5)
0x60|                                    43         |            C   |                    opcode: "f32.const" (0x43) 0x6c-0x6d (1)
0x60|                                       00 00 00|             ...|                    z: 0 0x6d-0x71 (4)
0x70|00                                             |.               |
    |                                               |                |                  [6]{}: in 0x71-0x72 (1)
0x70|   5d                                          | ]              |                    opcode: "f32.lt" (0x5d) 0x71-0x72 (1)
    |                                               |                |                  [7]{}: in 0x72-0x73 (1)
0x70|      1b                                       |  .             |                    opcode: "select" (0x1b) 0x72-0x73 (1)
    |                                               |                |                  [8]{}: in 0x73-0x74 (1)
0x70|         0b                                    |   .            |                    opcode: "end" (0xb) 0x73-0x74 (1)
    |                                               |                |            [1]{}: code 0x74-0x92 (30)
0x70|            1d                                 |    .           |              size: 29 (valid) 0x74-0x75 (1)
    |                                               |                |              code{}: 0x75-0x92 (29)
    |                                               |                |                t{}: 0x75-0x76 (1)
0x70|               00                              |     .          |                  n: 0 (valid) 0x75-0x76 (1)
    |                                               |                |                  x[0:0]: 0x76-0x76 (0)
    |                                               |                |                e[0:9]: 0x76-0x92 (28)
    |                                               |                |                  [0]{}: in 0x76-0x78 (2)
0x70|                  20                           |                |                    opcode: "local.get" (0x20) 0x76-0x77 (1)
0x70|                     00                        |       .        |                    x: 0 (valid) 0x77-0x78 (1)
    |                                               |                |                  [1]{}: in 0x78-0x7a (2)
0x70|                        20                     |                |                    opcode: "local.get" (0x20) 0x78-0x79 (1)
0x70|                           00                  |         .      |                    x: 0 (valid) 0x79-0x7a (1)
    |                                               |                |                  [2]{}: in 0x7a-0x83 (9)
0x70|                              44               |          D     |                    opcode: "f64.const" (0x44) 0x7a-0x7b (1)
0x70|                                 00 00 00 00 00|           .....|                    z: 1 0x7b-0x83 (8)
0x80|00 f0 3f                                       |..?             |
    |                                               |                |                  [3]{}: in 0x83-0x84 (1)
0x80|         a0                                    |   .            |                    opcode: "f64.add" (0xa0) 0x83-0x84 (1)
    |                                               |                |                  [4]{}: in 0x84-0x86 (2)
0x80|            20                                 |                |                    opcode: "local.get" (0x20) 0x84-0x85 (1)
0x80|               01                              |     .          |                    x: 1 (valid) 0x85-0x86 (1)
    |                                               |                |                  [5]{}: in 0x86-0x8f (9)
0x80|                  44                           |      D         |                    opcode: "f64.const" (0x44) 0x86-0x87 (1)
0x80|                     00 00 00 00 00 00 00 00   |       ........ |                    z: 0 0x87-0x8f (8)
    |                                               |                |                  [6]{}: in 0x8f-0x90 (1)
0x80|                                             63|               c|                    opcode: "f64.lt" (0x63) 0x8f-0x90 (1)
    |                                               |                |                  [7]{}: in 0x90-0x91 (1)
0x90|1b                                             |.               |                    opcode: "select" (0x1b) 0x90-0x91 (1)
    |                                               |                |                  [8]{}: in 0x91-0x92 (1)
0x90|   0b|                                         | .|             |                    opcode: "end" (0xb) 0x91-0x92 (1)
