$ fq -d wasm dv float_exprs-29.wasm
    |00 01 02 03 04 05 06 07 08 09 0a 0b 0c 0d 0e 0f|0123456789abcdef|.{}: float_exprs-29.wasm (wasm) 0x0-0x8d.7 (142)
0x00|00 61 73 6d                                    |.asm            |  magic: raw bits (valid) 0x0-0x3.7 (4)
0x00|            01 00 00 00                        |    ....        |  version: 1 0x4-0x7.7 (4)
    |                                               |                |  sections[0:4]: 0x8-0x8d.7 (134)
    |                                               |                |    [0]{}: section 0x8-0x14.7 (13)
0x00|                        01                     |        .       |      id: "type_section" (1) 0x8-0x8.7 (1)
0x00|                           0b                  |         .      |      size: 11 (valid) 0x9-0x9.7 (1)
    |                                               |                |      content{}: 0xa-0x14.7 (11)
    |                                               |                |        ft{}: 0xa-0x14.7 (11)
0x00|                              02               |          .     |          n: 2 (valid) 0xa-0xa.7 (1)
    |                                               |                |          x[0:2]: 0xb-0x14.7 (10)
    |                                               |                |            [0]{}: ft 0xb-0xf.7 (5)
0x00|                                 60            |           `    |              tag: 0x60 (valid) 0xb-0xb.7 (1)
    |                                               |                |              rt1{}: 0xc-0xd.7 (2)
0x00|                                    01         |            .   |                n: 1 (valid) 0xc-0xc.7 (1)
    |                                               |                |                x[0:1]: 0xd-0xd.7 (1)
0x00|                                       7f      |             .  |                  [0]: "i32" (0x7f) t 0xd-0xd.7 (1)
    |                                               |                |              rt2{}: 0xe-0xf.7 (2)
0x00|                                          01   |              . |                n: 1 (valid) 0xe-0xe.7 (1)
    |                                               |                |                x[0:1]: 0xf-0xf.7 (1)
0x00|                                             7f|               .|                  [0]: "i32" (0x7f) t 0xf-0xf.7 (1)
    |                                               |                |            [1]{}: ft 0x10-0x14.7 (5)
0x10|60                                             |`               |              tag: 0x60 (valid) 0x10-0x10.7 (1)
    |                                               |                |              rt1{}: 0x11-0x12.7 (2)
0x10|   01                                          | .              |                n: 1 (valid) 0x11-0x11.7 (1)
    |                                               |                |                x[0:1]: 0x12-0x12.7 (1)
0x10|      7e                                       |  ~             |                  [0]: "i64" (0x7e) t 0x12-0x12.7 (1)
    |                                               |                |              rt2{}: 0x13-0x14.7 (2)
0x10|         01                                    |   .            |                n: 1 (valid) 0x13-0x13.7 (1)
    |                                               |                |                x[0:1]: 0x14-0x14.7 (1)
0x10|            7e                                 |    ~           |                  [0]: "i64" (0x7e) t 0x14-0x14.7 (1)
    |                                               |                |    [1]{}: section 0x15-0x1b.7 (7)
0x10|               03                              |     .          |      id: "function_section" (3) 0x15-0x15.7 (1)
0x10|                  05                           |      .         |      size: 5 (valid) 0x16-0x16.7 (1)
    |                                               |                |      content{}: 0x17-0x1b.7 (5)
    |                                               |                |        x{}: 0x17-0x1b.7 (5)
0x10|                     04                        |       .        |          n: 4 (valid) 0x17-0x17.7 (1)
    |                                               |                |          x[0:4]: 0x18-0x1b.7 (4)
0x10|                        00                     |        .       |            [0]: 0 x (valid) 0x18-0x18.7 (1)
0x10|                           00                  |         .      |            [1]: 0 x (valid) 0x19-0x19.7 (1)
0x10|                              01               |          .     |            [2]: 1 x (valid) 0x1a-0x1a.7 (1)
0x10|                                 01            |           .    |            [3]: 1 x (valid) 0x1b-0x1b.7 (1)
    |                                               |                |    [2]{}: section 0x1c-0x6e.7 (83)
0x10|                                    07         |            .   |      id: "export_section" (7) 0x1c-0x1c.7 (1)
0x10|                                       51      |             Q  |      size: 81 (valid) 0x1d-0x1d.7 (1)
    |                                               |                |      content{}: 0x1e-0x6e.7 (81)
    |                                               |                |        ex{}: 0x1e-0x6e.7 (81)
0x10|                                          04   |              . |          n: 4 (valid) 0x1e-0x1e.7 (1)
    |                                               |                |          x[0:4]: 0x1f-0x6e.7 (80)
    |                                               |                |            [0]{}: ex 0x1f-0x32.7 (20)
    |                                               |                |              nm{}: 0x1f-0x30.7 (18)
0x10|                                             11|               .|                n: 17 (valid) 0x1f-0x1f.7 (1)
0x20|69 33 32 2e 6e 6f 5f 66 6f 6c 64 5f 66 33 32 5f|i32.no_fold_f32_|                b: "i32.no_fold_f32_s" 0x20-0x30.7 (17)
0x30|73                                             |s               |
    |                                               |                |              d{}: 0x31-0x32.7 (2)
0x30|   00                                          | .              |                tag: "funcidx" (0x0) 0x31-0x31.7 (1)
0x30|      00                                       |  .             |                x: 0 (valid) 0x32-0x32.7 (1)
    |                                               |                |            [1]{}: ex 0x33-0x46.7 (20)
    |                                               |                |              nm{}: 0x33-0x44.7 (18)
0x30|         11                                    |   .            |                n: 17 (valid) 0x33-0x33.7 (1)
0x30|            69 33 32 2e 6e 6f 5f 66 6f 6c 64 5f|    i32.no_fold_|                b: "i32.no_fold_f32_u" 0x34-0x44.7 (17)
0x40|66 33 32 5f 75                                 |f32_u           |
    |                                               |                |              d{}: 0x45-0x46.7 (2)
0x40|               00                              |     .          |                tag: "funcidx" (0x0) 0x45-0x45.7 (1)
0x40|                  01                           |      .         |                x: 1 (valid) 0x46-0x46.7 (1)
    |                                               |                |            [2]{}: ex 0x47-0x5a.7 (20)
    |                                               |                |              nm{}: 0x47-0x58.7 (18)
0x40|                     11                        |       .        |                n: 17 (valid) 0x47-0x47.7 (1)
0x40|                        69 36 34 2e 6e 6f 5f 66|        i64.no_f|                b: "i64.no_fold_f64_s" 0x48-0x58.7 (17)
0x50|6f 6c 64 5f 66 36 34 5f 73                     |old_f64_s       |
    |                                               |                |              d{}: 0x59-0x5a.7 (2)
0x50|                           00                  |         .      |                tag: "funcidx" (0x0) 0x59-0x59.7 (1)
0x50|                              02               |          .     |                x: 2 (valid) 0x5a-0x5a.7 (1)
    |                                               |                |            [3]{}: ex 0x5b-0x6e.7 (20)
    |                                               |                |              nm{}: 0x5b-0x6c.7 (18)
0x50|                                 11            |           .    |                n: 17 (valid) 0x5b-0x5b.7 (1)
0x50|                                    69 36 34 2e|            i64.|                b: "i64.no_fold_f64_u" 0x5c-0x6c.7 (17)
0x60|6e 6f 5f 66 6f 6c 64 5f 66 36 34 5f 75         |no_fold_f64_u   |
    |                                               |                |              d{}: 0x6d-0x6e.7 (2)
0x60|                                       00      |             .  |                tag: "funcidx" (0x0) 0x6d-0x6d.7 (1)
0x60|                                          03   |              . |                x: 3 (valid) 0x6e-0x6e.7 (1)
    |                                               |                |    [3]{}: section 0x6f-0x8d.7 (31)
0x60|                                             0a|               .|      id: "code_section" (10) 0x6f-0x6f.7 (1)
0x70|1d                                             |.               |      size: 29 (valid) 0x70-0x70.7 (1)
    |                                               |                |      content{}: 0x71-0x8d.7 (29)
    |                                               |                |        code{}: 0x71-0x8d.7 (29)
0x70|   04                                          | .              |          n: 4 (valid) 0x71-0x71.7 (1)
    |                                               |                |          x[0:4]: 0x72-0x8d.7 (28)
    |                                               |                |            [0]{}: code 0x72-0x78.7 (7)
0x70|      06                                       |  .             |              size: 6 (valid) 0x72-0x72.7 (1)
    |                                               |                |              code{}: 0x73-0x78.7 (6)
    |                                               |                |                t{}: 0x73-0x73.7 (1)
0x70|         00                                    |   .            |                  n: 0 (valid) 0x73-0x73.7 (1)
    |                                               |                |                  x[0:0]: 0x74-NA (0)
    |                                               |                |                e[0:4]: 0x74-0x78.7 (5)
    |                                               |                |                  [0]{}: in 0x74-0x75.7 (2)
0x70|            20                                 |                |                    opcode: "local.get" (0x20) 0x74-0x74.7 (1)
0x70|               00                              |     .          |                    x: 0 (valid) 0x75-0x75.7 (1)
    |                                               |                |                  [1]{}: in 0x76-0x76.7 (1)
0x70|                  b2                           |      .         |                    opcode: "f32.convert_i32_s" (0xb2) 0x76-0x76.7 (1)
    |                                               |                |                  [2]{}: in 0x77-0x77.7 (1)
0x70|                     a8                        |       .        |                    opcode: "i32.trunc_f32_s" (0xa8) 0x77-0x77.7 (1)
    |                                               |                |                  [3]{}: in 0x78-0x78.7 (1)
0x70|                        0b                     |        .       |                    opcode: "end" (0xb) 0x78-0x78.7 (1)
    |                                               |                |            [1]{}: code 0x79-0x7f.7 (7)
0x70|                           06                  |         .      |              size: 6 (valid) 0x79-0x79.7 (1)
    |                                               |                |              code{}: 0x7a-0x7f.7 (6)
    |                                               |                |                t{}: 0x7a-0x7a.7 (1)
0x70|                              00               |          .     |                  n: 0 (valid) 0x7a-0x7a.7 (1)
    |                                               |                |                  x[0:0]: 0x7b-NA (0)
    |                                               |                |                e[0:4]: 0x7b-0x7f.7 (5)
    |                                               |                |                  [0]{}: in 0x7b-0x7c.7 (2)
0x70|                                 20            |                |                    opcode: "local.get" (0x20) 0x7b-0x7b.7 (1)
0x70|                                    00         |            .   |                    x: 0 (valid) 0x7c-0x7c.7 (1)
    |                                               |                |                  [1]{}: in 0x7d-0x7d.7 (1)
0x70|                                       b3      |             .  |                    opcode: "f32.convert_i32_u" (0xb3) 0x7d-0x7d.7 (1)
    |                                               |                |                  [2]{}: in 0x7e-0x7e.7 (1)
0x70|                                          a9   |              . |                    opcode: "i32.trunc_f32_u" (0xa9) 0x7e-0x7e.7 (1)
    |                                               |                |                  [3]{}: in 0x7f-0x7f.7 (1)
0x70|                                             0b|               .|                    opcode: "end" (0xb) 0x7f-0x7f.7 (1)
    |                                               |                |            [2]{}: code 0x80-0x86.7 (7)
0x80|06                                             |.               |              size: 6 (valid) 0x80-0x80.7 (1)
    |                                               |                |              code{}: 0x81-0x86.7 (6)
    |                                               |                |                t{}: 0x81-0x81.7 (1)
0x80|   00                                          | .              |                  n: 0 (valid) 0x81-0x81.7 (1)
    |                                               |                |                  x[0:0]: 0x82-NA (0)
    |                                               |                |                e[0:4]: 0x82-0x86.7 (5)
    |                                               |                |                  [0]{}: in 0x82-0x83.7 (2)
0x80|      20                                       |                |                    opcode: "local.get" (0x20) 0x82-0x82.7 (1)
0x80|         00                                    |   .            |                    x: 0 (valid) 0x83-0x83.7 (1)
    |                                               |                |                  [1]{}: in 0x84-0x84.7 (1)
0x80|            b9                                 |    .           |                    opcode: "f64.convert_i64_s" (0xb9) 0x84-0x84.7 (1)
    |                                               |                |                  [2]{}: in 0x85-0x85.7 (1)
0x80|               b0                              |     .          |                    opcode: "i64.trunc_f64_s" (0xb0) 0x85-0x85.7 (1)
    |                                               |                |                  [3]{}: in 0x86-0x86.7 (1)
0x80|                  0b                           |      .         |                    opcode: "end" (0xb) 0x86-0x86.7 (1)
    |                                               |                |            [3]{}: code 0x87-0x8d.7 (7)
0x80|                     06                        |       .        |              size: 6 (valid) 0x87-0x87.7 (1)
    |                                               |                |              code{}: 0x88-0x8d.7 (6)
    |                                               |                |                t{}: 0x88-0x88.7 (1)
0x80|                        00                     |        .       |                  n: 0 (valid) 0x88-0x88.7 (1)
    |                                               |                |                  x[0:0]: 0x89-NA (0)
    |                                               |                |                e[0:4]: 0x89-0x8d.7 (5)
    |                                               |                |                  [0]{}: in 0x89-0x8a.7 (2)
0x80|                           20                  |                |                    opcode: "local.get" (0x20) 0x89-0x89.7 (1)
0x80|                              00               |          .     |                    x: 0 (valid) 0x8a-0x8a.7 (1)
    |                                               |                |                  [1]{}: in 0x8b-0x8b.7 (1)
0x80|                                 ba            |           .    |                    opcode: "f64.convert_i64_u" (0xba) 0x8b-0x8b.7 (1)
    |                                               |                |                  [2]{}: in 0x8c-0x8c.7 (1)
0x80|                                    b1         |            .   |                    opcode: "i64.trunc_f64_u" (0xb1) 0x8c-0x8c.7 (1)
    |                                               |                |                  [3]{}: in 0x8d-0x8d.7 (1)
0x80|                                       0b|     |             .| |                    opcode: "end" (0xb) 0x8d-0x8d.7 (1)
