$ fq -d wasm dv float_exprs-59.wasm
    |00 01 02 03 04 05 06 07 08 09 0a 0b 0c 0d 0e 0f|0123456789abcdef|.{}: float_exprs-59.wasm (wasm) 0x0-0xeb (235)
0x00|00 61 73 6d                                    |.asm            |  magic: raw bits (valid) 0x0-0x4 (4)
0x00|            01 00 00 00                        |    ....        |  version: 1 0x4-0x8 (4)
    |                                               |                |  sections[0:6]: 0x8-0xeb (227)
    |                                               |                |    [0]{}: section 0x8-0x16 (14)
0x00|                        01                     |        .       |      id: "type_section" (1) 0x8-0x9 (1)
0x00|                           0c                  |         .      |      size: 12 (valid) 0x9-0xa (1)
    |                                               |                |      content{}: 0xa-0x16 (12)
    |                                               |                |        ft{}: 0xa-0x16 (12)
0x00|                              02               |          .     |          n: 2 (valid) 0xa-0xb (1)
    |                                               |                |          x[0:2]: 0xb-0x16 (11)
    |                                               |                |            [0]{}: ft 0xb-0x11 (6)
0x00|                                 60            |           `    |              tag: 0x60 (valid) 0xb-0xc (1)
    |                                               |                |              rt1{}: 0xc-0x10 (4)
0x00|                                    03         |            .   |                n: 3 (valid) 0xc-0xd (1)
    |                                               |                |                x[0:3]: 0xd-0x10 (3)
0x00|                                       7f      |             .  |                  [0]: "i32" (0x7f) t 0xd-0xe (1)
0x00|                                          7f   |              . |                  [1]: "i32" (0x7f) t 0xe-0xf (1)
0x00|                                             7f|               .|                  [2]: "i32" (0x7f) t 0xf-0x10 (1)
    |                                               |                |              rt2{}: 0x10-0x11 (1)
0x10|00                                             |.               |                n: 0 (valid) 0x10-0x11 (1)
    |                                               |                |                x[0:0]: 0x11-0x11 (0)
    |                                               |                |            [1]{}: ft 0x11-0x16 (5)
0x10|   60                                          | `              |              tag: 0x60 (valid) 0x11-0x12 (1)
    |                                               |                |              rt1{}: 0x12-0x14 (2)
0x10|      01                                       |  .             |                n: 1 (valid) 0x12-0x13 (1)
    |                                               |                |                x[0:1]: 0x13-0x14 (1)
0x10|         7f                                    |   .            |                  [0]: "i32" (0x7f) t 0x13-0x14 (1)
    |                                               |                |              rt2{}: 0x14-0x16 (2)
0x10|            01                                 |    .           |                n: 1 (valid) 0x14-0x15 (1)
    |                                               |                |                x[0:1]: 0x15-0x16 (1)
0x10|               7d                              |     }          |                  [0]: "f32" (0x7d) t 0x15-0x16 (1)
    |                                               |                |    [1]{}: section 0x16-0x1b (5)
0x10|                  03                           |      .         |      id: "function_section" (3) 0x16-0x17 (1)
0x10|                     03                        |       .        |      size: 3 (valid) 0x17-0x18 (1)
    |                                               |                |      content{}: 0x18-0x1b (3)
    |                                               |                |        x{}: 0x18-0x1b (3)
0x10|                        02                     |        .       |          n: 2 (valid) 0x18-0x19 (1)
    |                                               |                |          x[0:2]: 0x19-0x1b (2)
0x10|                           00                  |         .      |            [0]: 0 x (valid) 0x19-0x1a (1)
0x10|                              01               |          .     |            [1]: 1 x (valid) 0x1a-0x1b (1)
    |                                               |                |    [2]{}: section 0x1b-0x21 (6)
0x10|                                 05            |           .    |      id: "memory_section" (5) 0x1b-0x1c (1)
0x10|                                    04         |            .   |      size: 4 (valid) 0x1c-0x1d (1)
    |                                               |                |      content{}: 0x1d-0x21 (4)
    |                                               |                |        mem{}: 0x1d-0x21 (4)
0x10|                                       01      |             .  |          n: 1 (valid) 0x1d-0x1e (1)
    |                                               |                |          x[0:1]: 0x1e-0x21 (3)
    |                                               |                |            [0]{}: mem 0x1e-0x21 (3)
    |                                               |                |              lim{}: 0x1e-0x21 (3)
0x10|                                          01   |              . |                tag: 0x1 0x1e-0x1f (1)
0x10|                                             01|               .|                n: 1 (valid) 0x1f-0x20 (1)
0x20|01                                             |.               |                m: 1 (valid) 0x20-0x21 (1)
    |                                               |                |    [3]{}: section 0x21-0x43 (34)
0x20|   07                                          | .              |      id: "export_section" (7) 0x21-0x22 (1)
0x20|      20                                       |                |      size: 32 (valid) 0x22-0x23 (1)
    |                                               |                |      content{}: 0x23-0x43 (32)
    |                                               |                |        ex{}: 0x23-0x43 (32)
0x20|         02                                    |   .            |          n: 2 (valid) 0x23-0x24 (1)
    |                                               |                |          x[0:2]: 0x24-0x43 (31)
    |                                               |                |            [0]{}: ex 0x24-0x38 (20)
    |                                               |                |              nm{}: 0x24-0x36 (18)
0x20|            11                                 |    .           |                n: 17 (valid) 0x24-0x25 (1)
0x20|               66 33 32 2e 73 69 6d 70 6c 65 5f|     f32.simple_|                b: "f32.simple_x4_sum" 0x25-0x36 (17)
0x30|78 34 5f 73 75 6d                              |x4_sum          |
    |                                               |                |              d{}: 0x36-0x38 (2)
0x30|                  00                           |      .         |                tag: "funcidx" (0x0) 0x36-0x37 (1)
0x30|                     00                        |       .        |                x: 0 (valid) 0x37-0x38 (1)
    |                                               |                |            [1]{}: ex 0x38-0x43 (11)
    |                                               |                |              nm{}: 0x38-0x41 (9)
0x30|                        08                     |        .       |                n: 8 (valid) 0x38-0x39 (1)
0x30|                           66 33 32 2e 6c 6f 61|         f32.loa|                b: "f32.load" 0x39-0x41 (8)
0x40|64                                             |d               |
    |                                               |                |              d{}: 0x41-0x43 (2)
0x40|   00                                          | .              |                tag: "funcidx" (0x0) 0x41-0x42 (1)
0x40|      01                                       |  .             |                x: 1 (valid) 0x42-0x43 (1)
    |                                               |                |    [4]{}: section 0x43-0xb3 (112)
0x40|         0a                                    |   .            |      id: "code_section" (10) 0x43-0x44 (1)
0x40|            6e                                 |    n           |      size: 110 (valid) 0x44-0x45 (1)
    |                                               |                |      content{}: 0x45-0xb3 (110)
    |                                               |                |        code{}: 0x45-0xb3 (110)
0x40|               02                              |     .          |          n: 2 (valid) 0x45-0x46 (1)
    |                                               |                |          x[0:2]: 0x46-0xb3 (109)
    |                                               |                |            [0]{}: code 0x46-0xab (101)
0x40|                  64                           |      d         |              size: 100 (valid) 0x46-0x47 (1)
    |                                               |                |              code{}: 0x47-0xab (100)
    |                                               |                |                t{}: 0x47-0x4a (3)
0x40|                     01                        |       .        |                  n: 1 (valid) 0x47-0x48 (1)
    |                                               |                |                  x[0:1]: 0x48-0x4a (2)
    |                                               |                |                    [0]{}: t 0x48-0x4a (2)
0x40|                        08                     |        .       |                      n: 8 (valid) 0x48-0x49 (1)
0x40|                           7d                  |         }      |                      t: "f32" (0x7d) 0x49-0x4a (1)
    |                                               |                |                e[0:45]: 0x4a-0xab (97)
    |                                               |                |                  [0]{}: in 0x4a-0x4c (2)
0x40|                              20               |                |                    opcode: "local.get" (0x20) 0x4a-0x4b (1)
0x40|                                 00            |           .    |                    x: 0 (valid) 0x4b-0x4c (1)
    |                                               |                |                  [1]{}: in 0x4c-0x4f (3)
0x40|                                    2a         |            *   |                    opcode: "f32.load" (0x2a) 0x4c-0x4d (1)
    |                                               |                |                    m{}: 0x4d-0x4f (2)
0x40|                                       02      |             .  |                      a: 2 (valid) 0x4d-0x4e (1)
0x40|                                          00   |              . |                      o: 0 (valid) 0x4e-0x4f (1)
    |                                               |                |                  [2]{}: in 0x4f-0x51 (2)
0x40|                                             21|               !|                    opcode: "local.set" (0x21) 0x4f-0x50 (1)
0x50|03                                             |.               |                    x: 3 (valid) 0x50-0x51 (1)
    |                                               |                |                  [3]{}: in 0x51-0x53 (2)
0x50|   20                                          |                |                    opcode: "local.get" (0x20) 0x51-0x52 (1)
0x50|      00                                       |  .             |                    x: 0 (valid) 0x52-0x53 (1)
    |                                               |                |                  [4]{}: in 0x53-0x56 (3)
0x50|         2a                                    |   *            |                    opcode: "f32.load" (0x2a) 0x53-0x54 (1)
    |                                               |                |                    m{}: 0x54-0x56 (2)
0x50|            02                                 |    .           |                      a: 2 (valid) 0x54-0x55 (1)
0x50|               04                              |     .          |                      o: 4 (valid) 0x55-0x56 (1)
    |                                               |                |                  [5]{}: in 0x56-0x58 (2)
0x50|                  21                           |      !         |                    opcode: "local.set" (0x21) 0x56-0x57 (1)
0x50|                     04                        |       .        |                    x: 4 (valid) 0x57-0x58 (1)
    |                                               |                |                  [6]{}: in 0x58-0x5a (2)
0x50|                        20                     |                |                    opcode: "local.get" (0x20) 0x58-0x59 (1)
0x50|                           00                  |         .      |                    x: 0 (valid) 0x59-0x5a (1)
    |                                               |                |                  [7]{}: in 0x5a-0x5d (3)
0x50|                              2a               |          *     |                    opcode: "f32.load" (0x2a) 0x5a-0x5b (1)
    |                                               |                |                    m{}: 0x5b-0x5d (2)
0x50|                                 02            |           .    |                      a: 2 (valid) 0x5b-0x5c (1)
0x50|                                    08         |            .   |                      o: 8 (valid) 0x5c-0x5d (1)
    |                                               |                |                  [8]{}: in 0x5d-0x5f (2)
0x50|                                       21      |             !  |                    opcode: "local.set" (0x21) 0x5d-0x5e (1)
0x50|                                          05   |              . |                    x: 5 (valid) 0x5e-0x5f (1)
    |                                               |                |                  [9]{}: in 0x5f-0x61 (2)
0x50|                                             20|                |                    opcode: "local.get" (0x20) 0x5f-0x60 (1)
0x60|00                                             |.               |                    x: 0 (valid) 0x60-0x61 (1)
    |                                               |                |                  [10]{}: in 0x61-0x64 (3)
0x60|   2a                                          | *              |                    opcode: "f32.load" (0x2a) 0x61-0x62 (1)
    |                                               |                |                    m{}: 0x62-0x64 (2)
0x60|      02                                       |  .             |                      a: 2 (valid) 0x62-0x63 (1)
0x60|         0c                                    |   .            |                      o: 12 (valid) 0x63-0x64 (1)
    |                                               |                |                  [11]{}: in 0x64-0x66 (2)
0x60|            21                                 |    !           |                    opcode: "local.set" (0x21) 0x64-0x65 (1)
0x60|               06                              |     .          |                    x: 6 (valid) 0x65-0x66 (1)
    |                                               |                |                  [12]{}: in 0x66-0x68 (2)
0x60|                  20                           |                |                    opcode: "local.get" (0x20) 0x66-0x67 (1)
0x60|                     01                        |       .        |                    x: 1 (valid) 0x67-0x68 (1)
    |                                               |                |                  [13]{}: in 0x68-0x6b (3)
0x60|                        2a                     |        *       |                    opcode: "f32.load" (0x2a) 0x68-0x69 (1)
    |                                               |                |                    m{}: 0x69-0x6b (2)
0x60|                           02                  |         .      |                      a: 2 (valid) 0x69-0x6a (1)
0x60|                              00               |          .     |                      o: 0 (valid) 0x6a-0x6b (1)
    |                                               |                |                  [14]{}: in 0x6b-0x6d (2)
0x60|                                 21            |           !    |                    opcode: "local.set" (0x21) 0x6b-0x6c (1)
0x60|                                    07         |            .   |                    x: 7 (valid) 0x6c-0x6d (1)
    |                                               |                |                  [15]{}: in 0x6d-0x6f (2)
0x60|                                       20      |                |                    opcode: "local.get" (0x20) 0x6d-0x6e (1)
0x60|                                          01   |              . |                    x: 1 (valid) 0x6e-0x6f (1)
    |                                               |                |                  [16]{}: in 0x6f-0x72 (3)
0x60|                                             2a|               *|                    opcode: "f32.load" (0x2a) 0x6f-0x70 (1)
    |                                               |                |                    m{}: 0x70-0x72 (2)
0x70|02                                             |.               |                      a: 2 (valid) 0x70-0x71 (1)
0x70|   04                                          | .              |                      o: 4 (valid) 0x71-0x72 (1)
    |                                               |                |                  [17]{}: in 0x72-0x74 (2)
0x70|      21                                       |  !             |                    opcode: "local.set" (0x21) 0x72-0x73 (1)
0x70|         08                                    |   .            |                    x: 8 (valid) 0x73-0x74 (1)
    |                                               |                |                  [18]{}: in 0x74-0x76 (2)
0x70|            20                                 |                |                    opcode: "local.get" (0x20) 0x74-0x75 (1)
0x70|               01                              |     .          |                    x: 1 (valid) 0x75-0x76 (1)
    |                                               |                |                  [19]{}: in 0x76-0x79 (3)
0x70|                  2a                           |      *         |                    opcode: "f32.load" (0x2a) 0x76-0x77 (1)
    |                                               |                |                    m{}: 0x77-0x79 (2)
0x70|                     02                        |       .        |                      a: 2 (valid) 0x77-0x78 (1)
0x70|                        08                     |        .       |                      o: 8 (valid) 0x78-0x79 (1)
    |                                               |                |                  [20]{}: in 0x79-0x7b (2)
0x70|                           21                  |         !      |                    opcode: "local.set" (0x21) 0x79-0x7a (1)
0x70|                              09               |          .     |                    x: 9 (valid) 0x7a-0x7b (1)
    |                                               |                |                  [21]{}: in 0x7b-0x7d (2)
0x70|                                 20            |                |                    opcode: "local.get" (0x20) 0x7b-0x7c (1)
0x70|                                    01         |            .   |                    x: 1 (valid) 0x7c-0x7d (1)
    |                                               |                |                  [22]{}: in 0x7d-0x80 (3)
0x70|                                       2a      |             *  |                    opcode: "f32.load" (0x2a) 0x7d-0x7e (1)
    |                                               |                |                    m{}: 0x7e-0x80 (2)
0x70|                                          02   |              . |                      a: 2 (valid) 0x7e-0x7f (1)
0x70|                                             0c|               .|                      o: 12 (valid) 0x7f-0x80 (1)
    |                                               |                |                  [23]{}: in 0x80-0x82 (2)
0x80|21                                             |!               |                    opcode: "local.set" (0x21) 0x80-0x81 (1)
0x80|   0a                                          | .              |                    x: 10 (valid) 0x81-0x82 (1)
    |                                               |                |                  [24]{}: in 0x82-0x84 (2)
0x80|      20                                       |                |                    opcode: "local.get" (0x20) 0x82-0x83 (1)
0x80|         02                                    |   .            |                    x: 2 (valid) 0x83-0x84 (1)
    |                                               |                |                  [25]{}: in 0x84-0x86 (2)
0x80|            20                                 |                |                    opcode: "local.get" (0x20) 0x84-0x85 (1)
0x80|               03                              |     .          |                    x: 3 (valid) 0x85-0x86 (1)
    |                                               |                |                  [26]{}: in 0x86-0x88 (2)
0x80|                  20                           |                |                    opcode: "local.get" (0x20) 0x86-0x87 (1)
0x80|                     07                        |       .        |                    x: 7 (valid) 0x87-0x88 (1)
    |                                               |                |                  [27]{}: in 0x88-0x89 (1)
0x80|                        92                     |        .       |                    opcode: "f32.add" (0x92) 0x88-0x89 (1)
    |                                               |                |                  [28]{}: in 0x89-0x8c (3)
0x80|                           38                  |         8      |                    opcode: "f32.store" (0x38) 0x89-0x8a (1)
    |                                               |                |                    m{}: 0x8a-0x8c (2)
0x80|                              02               |          .     |                      a: 2 (valid) 0x8a-0x8b (1)
0x80|                                 00            |           .    |                      o: 0 (valid) 0x8b-0x8c (1)
    |                                               |                |                  [29]{}: in 0x8c-0x8e (2)
0x80|                                    20         |                |                    opcode: "local.get" (0x20) 0x8c-0x8d (1)
0x80|                                       02      |             .  |                    x: 2 (valid) 0x8d-0x8e (1)
    |                                               |                |                  [30]{}: in 0x8e-0x90 (2)
0x80|                                          20   |                |                    opcode: "local.get" (0x20) 0x8e-0x8f (1)
0x80|                                             04|               .|                    x: 4 (valid) 0x8f-0x90 (1)
    |                                               |                |                  [31]{}: in 0x90-0x92 (2)
0x90|20                                             |                |                    opcode: "local.get" (0x20) 0x90-0x91 (1)
0x90|   08                                          | .              |                    x: 8 (valid) 0x91-0x92 (1)
    |                                               |                |                  [32]{}: in 0x92-0x93 (1)
0x90|      92                                       |  .             |                    opcode: "f32.add" (0x92) 0x92-0x93 (1)
    |                                               |                |                  [33]{}: in 0x93-0x96 (3)
0x90|         38                                    |   8            |                    opcode: "f32.store" (0x38) 0x93-0x94 (1)
    |                                               |                |                    m{}: 0x94-0x96 (2)
0x90|            02                                 |    .           |                      a: 2 (valid) 0x94-0x95 (1)
0x90|               04                              |     .          |                      o: 4 (valid) 0x95-0x96 (1)
    |                                               |                |                  [34]{}: in 0x96-0x98 (2)
0x90|                  20                           |                |                    opcode: "local.get" (0x20) 0x96-0x97 (1)
0x90|                     02                        |       .        |                    x: 2 (valid) 0x97-0x98 (1)
    |                                               |                |                  [35]{}: in 0x98-0x9a (2)
0x90|                        20                     |                |                    opcode: "local.get" (0x20) 0x98-0x99 (1)
0x90|                           05                  |         .      |                    x: 5 (valid) 0x99-0x9a (1)
    |                                               |                |                  [36]{}: in 0x9a-0x9c (2)
0x90|                              20               |                |                    opcode: "local.get" (0x20) 0x9a-0x9b (1)
0x90|                                 09            |           .    |                    x: 9 (valid) 0x9b-0x9c (1)
    |                                               |                |                  [37]{}: in 0x9c-0x9d (1)
0x90|                                    92         |            .   |                    opcode: "f32.add" (0x92) 0x9c-0x9d (1)
    |                                               |                |                  [38]{}: in 0x9d-0xa0 (3)
0x90|                                       38      |             8  |                    opcode: "f32.store" (0x38) 0x9d-0x9e (1)
    |                                               |                |                    m{}: 0x9e-0xa0 (2)
0x90|                                          02   |              . |                      a: 2 (valid) 0x9e-0x9f (1)
0x90|                                             08|               .|                      o: 8 (valid) 0x9f-0xa0 (1)
    |                                               |                |                  [39]{}: in 0xa0-0xa2 (2)
0xa0|20                                             |                |                    opcode: "local.get" (0x20) 0xa0-0xa1 (1)
0xa0|   02                                          | .              |                    x: 2 (valid) 0xa1-0xa2 (1)
    |                                               |                |                  [40]{}: in 0xa2-0xa4 (2)
0xa0|      20                                       |                |                    opcode: "local.get" (0x20) 0xa2-0xa3 (1)
0xa0|         06                                    |   .            |                    x: 6 (valid) 0xa3-0xa4 (1)
    |                                               |                |                  [41]{}: in 0xa4-0xa6 (2)
0xa0|            20                                 |                |                    opcode: "local.get" (0x20) 0xa4-0xa5 (1)
0xa0|               0a                              |     .          |                    x: 10 (valid) 0xa5-0xa6 (1)
    |                                               |                |                  [42]{}: in 0xa6-0xa7 (1)
0xa0|                  92                           |      .         |                    opcode: "f32.add" (0x92) 0xa6-0xa7 (1)
    |                                               |                |                  [43]{}: in 0xa7-0xaa (3)
0xa0|                     38                        |       8        |                    opcode: "f32.store" (0x38) 0xa7-0xa8 (1)
    |                                               |                |                    m{}: 0xa8-0xaa (2)
0xa0|                        02                     |        .       |                      a: 2 (valid) 0xa8-0xa9 (1)
0xa0|                           0c                  |         .      |                      o: 12 (valid) 0xa9-0xaa (1)
    |                                               |                |                  [44]{}: in 0xaa-0xab (1)
0xa0|                              0b               |          .     |                    opcode: "end" (0xb) 0xaa-0xab (1)
    |                                               |                |            [1]{}: code 0xab-0xb3 (8)
0xa0|                                 07            |           .    |              size: 7 (valid) 0xab-0xac (1)
    |                                               |                |              code{}: 0xac-0xb3 (7)
    |                                               |                |                t{}: 0xac-0xad (1)
0xa0|                                    00         |            .   |                  n: 0 (valid) 0xac-0xad (1)
    |                                               |                |                  x[0:0]: 0xad-0xad (0)
    |                                               |                |                e[0:3]: 0xad-0xb3 (6)
    |                                               |                |                  [0]{}: in 0xad-0xaf (2)
0xa0|                                       20      |                |                    opcode: "local.get" (0x20) 0xad-0xae (1)
0xa0|                                          00   |              . |                    x: 0 (valid) 0xae-0xaf (1)
    |                                               |                |                  [1]{}: in 0xaf-0xb2 (3)
0xa0|                                             2a|               *|                    opcode: "f32.load" (0x2a) 0xaf-0xb0 (1)
    |                                               |                |                    m{}: 0xb0-0xb2 (2)
0xb0|02                                             |.               |                      a: 2 (valid) 0xb0-0xb1 (1)
0xb0|   00                                          | .              |                      o: 0 (valid) 0xb1-0xb2 (1)
    |                                               |                |                  [2]{}: in 0xb2-0xb3 (1)
0xb0|      0b                                       |  .             |                    opcode: "end" (0xb) 0xb2-0xb3 (1)
    |                                               |                |    [5]{}: section 0xb3-0xeb (56)
0xb0|         0b                                    |   .            |      id: "data_section" (11) 0xb3-0xb4 (1)
0xb0|            36                                 |    6           |      size: 54 (valid) 0xb4-0xb5 (1)
    |                                               |                |      content{}: 0xb5-0xeb (54)
    |                                               |                |        seg{}: 0xb5-0xeb (54)
0xb0|               01                              |     .          |          n: 1 (valid) 0xb5-0xb6 (1)
    |                                               |                |          x[0:1]: 0xb6-0xeb (53)
    |                                               |                |            [0]{}: seg 0xb6-0xeb (53)
0xb0|                  00                           |      .         |              tag: 0 (valid) 0xb6-0xb7 (1)
    |                                               |                |              e[0:2]: 0xb7-0xba (3)
    |                                               |                |                [0]{}: in 0xb7-0xb9 (2)
0xb0|                     41                        |       A        |                  opcode: "i32.const" (0x41) 0xb7-0xb8 (1)
0xb0|                        00                     |        .       |                  n: 0 (valid) 0xb8-0xb9 (1)
    |                                               |                |                [1]{}: in 0xb9-0xba (1)
0xb0|                           0b                  |         .      |                  opcode: "end" (0xb) 0xb9-0xba (1)
    |                                               |                |              b{}: 0xba-0xeb (49)
0xb0|                              30               |          0     |                n: 48 (valid) 0xba-0xbb (1)
0xb0|                                 01 00 00 00 01|           .....|                x: raw bits 0xbb-0xeb (48)
0xc0|00 00 80 01 00 00 00 01 00 00 80 01 00 00 00 01|................|
*   |until 0xea.7 (end) (48)                        |                |
