$ fq -d wasm dv float_exprs-83.wasm
    |00 01 02 03 04 05 06 07 08 09 0a 0b 0c 0d 0e 0f|0123456789abcdef|.{}: float_exprs-83.wasm (wasm) 0x0-0xd7.7 (216)
0x00|00 61 73 6d                                    |.asm            |  magic: raw bits (valid) 0x0-0x3.7 (4)
0x00|            01 00 00 00                        |    ....        |  version: 1 0x4-0x7.7 (4)
    |                                               |                |  sections[0:4]: 0x8-0xd7.7 (208)
    |                                               |                |    [0]{}: section 0x8-0x16.7 (15)
0x00|                        01                     |        .       |      id: "type section" (1) 0x8-0x8.7 (1)
0x00|                           0d                  |         .      |      size: 13 0x9-0x9.7 (1)
    |                                               |                |      content{}: 0xa-0x16.7 (13)
    |                                               |                |        ft{}: 0xa-0x16.7 (13)
0x00|                              02               |          .     |          n: 2 0xa-0xa.7 (1)
    |                                               |                |          x[0:2]: 0xb-0x16.7 (12)
    |                                               |                |            [0]{}: ft 0xb-0x10.7 (6)
0x00|                                 60            |           `    |              tag: 0x60 (valid) 0xb-0xb.7 (1)
    |                                               |                |              rt1{}: 0xc-0xe.7 (3)
0x00|                                    02         |            .   |                n: 2 0xc-0xc.7 (1)
    |                                               |                |                x[0:2]: 0xd-0xe.7 (2)
0x00|                                       7d      |             }  |                  [0]: "f32" (0x7d) t 0xd-0xd.7 (1)
0x00|                                          7d   |              } |                  [1]: "f32" (0x7d) t 0xe-0xe.7 (1)
    |                                               |                |              rt2{}: 0xf-0x10.7 (2)
0x00|                                             01|               .|                n: 1 0xf-0xf.7 (1)
    |                                               |                |                x[0:1]: 0x10-0x10.7 (1)
0x10|7f                                             |.               |                  [0]: "i32" (0x7f) t 0x10-0x10.7 (1)
    |                                               |                |            [1]{}: ft 0x11-0x16.7 (6)
0x10|   60                                          | `              |              tag: 0x60 (valid) 0x11-0x11.7 (1)
    |                                               |                |              rt1{}: 0x12-0x14.7 (3)
0x10|      02                                       |  .             |                n: 2 0x12-0x12.7 (1)
    |                                               |                |                x[0:2]: 0x13-0x14.7 (2)
0x10|         7c                                    |   |            |                  [0]: "f64" (0x7c) t 0x13-0x13.7 (1)
0x10|            7c                                 |    |           |                  [1]: "f64" (0x7c) t 0x14-0x14.7 (1)
    |                                               |                |              rt2{}: 0x15-0x16.7 (2)
0x10|               01                              |     .          |                n: 1 0x15-0x15.7 (1)
    |                                               |                |                x[0:1]: 0x16-0x16.7 (1)
0x10|                  7f                           |      .         |                  [0]: "i32" (0x7f) t 0x16-0x16.7 (1)
    |                                               |                |    [1]{}: section 0x17-0x21.7 (11)
0x10|                     03                        |       .        |      id: "function section" (3) 0x17-0x17.7 (1)
0x10|                        09                     |        .       |      size: 9 0x18-0x18.7 (1)
    |                                               |                |      content{}: 0x19-0x21.7 (9)
    |                                               |                |        x{}: 0x19-0x21.7 (9)
0x10|                           08                  |         .      |          n: 8 0x19-0x19.7 (1)
    |                                               |                |          x[0:8]: 0x1a-0x21.7 (8)
0x10|                              00               |          .     |            [0]: 0 x 0x1a-0x1a.7 (1)
0x10|                                 00            |           .    |            [1]: 0 x 0x1b-0x1b.7 (1)
0x10|                                    00         |            .   |            [2]: 0 x 0x1c-0x1c.7 (1)
0x10|                                       00      |             .  |            [3]: 0 x 0x1d-0x1d.7 (1)
0x10|                                          01   |              . |            [4]: 1 x 0x1e-0x1e.7 (1)
0x10|                                             01|               .|            [5]: 1 x 0x1f-0x1f.7 (1)
0x20|01                                             |.               |            [6]: 1 x 0x20-0x20.7 (1)
0x20|   01                                          | .              |            [7]: 1 x 0x21-0x21.7 (1)
    |                                               |                |    [2]{}: section 0x22-0x8c.7 (107)
0x20|      07                                       |  .             |      id: "export section" (7) 0x22-0x22.7 (1)
0x20|         69                                    |   i            |      size: 105 0x23-0x23.7 (1)
    |                                               |                |      content{}: 0x24-0x8c.7 (105)
    |                                               |                |        ex{}: 0x24-0x8c.7 (105)
0x20|            08                                 |    .           |          n: 8 0x24-0x24.7 (1)
    |                                               |                |          x[0:8]: 0x25-0x8c.7 (104)
    |                                               |                |            [0]{}: ex 0x25-0x31.7 (13)
    |                                               |                |              nm{}: 0x25-0x2f.7 (11)
0x20|               0a                              |     .          |                n: 10 0x25-0x25.7 (1)
0x20|                  66 33 32 2e 6e 6f 74 5f 6c 74|      f32.not_lt|                b: "f32.not_lt" 0x26-0x2f.7 (10)
    |                                               |                |              d{}: 0x30-0x31.7 (2)
0x30|00                                             |.               |                tag: "funcidx" (0x0) 0x30-0x30.7 (1)
0x30|   00                                          | .              |                x: 0 0x31-0x31.7 (1)
    |                                               |                |            [1]{}: ex 0x32-0x3e.7 (13)
    |                                               |                |              nm{}: 0x32-0x3c.7 (11)
0x30|      0a                                       |  .             |                n: 10 0x32-0x32.7 (1)
0x30|         66 33 32 2e 6e 6f 74 5f 6c 65         |   f32.not_le   |                b: "f32.not_le" 0x33-0x3c.7 (10)
    |                                               |                |              d{}: 0x3d-0x3e.7 (2)
0x30|                                       00      |             .  |                tag: "funcidx" (0x0) 0x3d-0x3d.7 (1)
0x30|                                          01   |              . |                x: 1 0x3e-0x3e.7 (1)
    |                                               |                |            [2]{}: ex 0x3f-0x4b.7 (13)
    |                                               |                |              nm{}: 0x3f-0x49.7 (11)
0x30|                                             0a|               .|                n: 10 0x3f-0x3f.7 (1)
0x40|66 33 32 2e 6e 6f 74 5f 67 74                  |f32.not_gt      |                b: "f32.not_gt" 0x40-0x49.7 (10)
    |                                               |                |              d{}: 0x4a-0x4b.7 (2)
0x40|                              00               |          .     |                tag: "funcidx" (0x0) 0x4a-0x4a.7 (1)
0x40|                                 02            |           .    |                x: 2 0x4b-0x4b.7 (1)
    |                                               |                |            [3]{}: ex 0x4c-0x58.7 (13)
    |                                               |                |              nm{}: 0x4c-0x56.7 (11)
0x40|                                    0a         |            .   |                n: 10 0x4c-0x4c.7 (1)
0x40|                                       66 33 32|             f32|                b: "f32.not_ge" 0x4d-0x56.7 (10)
0x50|2e 6e 6f 74 5f 67 65                           |.not_ge         |
    |                                               |                |              d{}: 0x57-0x58.7 (2)
0x50|                     00                        |       .        |                tag: "funcidx" (0x0) 0x57-0x57.7 (1)
0x50|                        03                     |        .       |                x: 3 0x58-0x58.7 (1)
    |                                               |                |            [4]{}: ex 0x59-0x65.7 (13)
    |                                               |                |              nm{}: 0x59-0x63.7 (11)
0x50|                           0a                  |         .      |                n: 10 0x59-0x59.7 (1)
0x50|                              66 36 34 2e 6e 6f|          f64.no|                b: "f64.not_lt" 0x5a-0x63.7 (10)
0x60|74 5f 6c 74                                    |t_lt            |
    |                                               |                |              d{}: 0x64-0x65.7 (2)
0x60|            00                                 |    .           |                tag: "funcidx" (0x0) 0x64-0x64.7 (1)
0x60|               04                              |     .          |                x: 4 0x65-0x65.7 (1)
    |                                               |                |            [5]{}: ex 0x66-0x72.7 (13)
    |                                               |                |              nm{}: 0x66-0x70.7 (11)
0x60|                  0a                           |      .         |                n: 10 0x66-0x66.7 (1)
0x60|                     66 36 34 2e 6e 6f 74 5f 6c|       f64.not_l|                b: "f64.not_le" 0x67-0x70.7 (10)
0x70|65                                             |e               |
    |                                               |                |              d{}: 0x71-0x72.7 (2)
0x70|   00                                          | .              |                tag: "funcidx" (0x0) 0x71-0x71.7 (1)
0x70|      05                                       |  .             |                x: 5 0x72-0x72.7 (1)
    |                                               |                |            [6]{}: ex 0x73-0x7f.7 (13)
    |                                               |                |              nm{}: 0x73-0x7d.7 (11)
0x70|         0a                                    |   .            |                n: 10 0x73-0x73.7 (1)
0x70|            66 36 34 2e 6e 6f 74 5f 67 74      |    f64.not_gt  |                b: "f64.not_gt" 0x74-0x7d.7 (10)
    |                                               |                |              d{}: 0x7e-0x7f.7 (2)
0x70|                                          00   |              . |                tag: "funcidx" (0x0) 0x7e-0x7e.7 (1)
0x70|                                             06|               .|                x: 6 0x7f-0x7f.7 (1)
    |                                               |                |            [7]{}: ex 0x80-0x8c.7 (13)
    |                                               |                |              nm{}: 0x80-0x8a.7 (11)
0x80|0a                                             |.               |                n: 10 0x80-0x80.7 (1)
0x80|   66 36 34 2e 6e 6f 74 5f 67 65               | f64.not_ge     |                b: "f64.not_ge" 0x81-0x8a.7 (10)
    |                                               |                |              d{}: 0x8b-0x8c.7 (2)
0x80|                                 00            |           .    |                tag: "funcidx" (0x0) 0x8b-0x8b.7 (1)
0x80|                                    07         |            .   |                x: 7 0x8c-0x8c.7 (1)
    |                                               |                |    [3]{}: section 0x8d-0xd7.7 (75)
0x80|                                       0a      |             .  |      id: "code section" (10) 0x8d-0x8d.7 (1)
0x80|                                          49   |              I |      size: 73 0x8e-0x8e.7 (1)
    |                                               |                |      content{}: 0x8f-0xd7.7 (73)
    |                                               |                |        code{}: 0x8f-0xd7.7 (73)
0x80|                                             08|               .|          n: 8 0x8f-0x8f.7 (1)
    |                                               |                |          x[0:8]: 0x90-0xd7.7 (72)
    |                                               |                |            [0]{}: code 0x90-0x98.7 (9)
0x90|08                                             |.               |              size: 8 0x90-0x90.7 (1)
    |                                               |                |              code{}: 0x91-0x98.7 (8)
    |                                               |                |                t{}: 0x91-0x91.7 (1)
0x90|   00                                          | .              |                  n: 0 0x91-0x91.7 (1)
    |                                               |                |                  x[0:0]: 0x92-NA (0)
    |                                               |                |                e[0:5]: 0x92-0x98.7 (7)
    |                                               |                |                  [0]{}: in 0x92-0x93.7 (2)
0x90|      20                                       |                |                    local.get: 0x20 (valid) 0x92-0x92.7 (1)
0x90|         00                                    |   .            |                    x: 0 0x93-0x93.7 (1)
    |                                               |                |                  [1]{}: in 0x94-0x95.7 (2)
0x90|            20                                 |                |                    local.get: 0x20 (valid) 0x94-0x94.7 (1)
0x90|               01                              |     .          |                    x: 1 0x95-0x95.7 (1)
    |                                               |                |                  [2]{}: in 0x96-0x96.7 (1)
0x90|                  5d                           |      ]         |                    f32.lt: 0x5d (valid) 0x96-0x96.7 (1)
    |                                               |                |                  [3]{}: in 0x97-0x97.7 (1)
0x90|                     45                        |       E        |                    i32.eqz: 0x45 (valid) 0x97-0x97.7 (1)
    |                                               |                |                  [4]{}: in 0x98-0x98.7 (1)
0x90|                        0b                     |        .       |                    end: 0xb (valid) 0x98-0x98.7 (1)
    |                                               |                |            [1]{}: code 0x99-0xa1.7 (9)
0x90|                           08                  |         .      |              size: 8 0x99-0x99.7 (1)
    |                                               |                |              code{}: 0x9a-0xa1.7 (8)
    |                                               |                |                t{}: 0x9a-0x9a.7 (1)
0x90|                              00               |          .     |                  n: 0 0x9a-0x9a.7 (1)
    |                                               |                |                  x[0:0]: 0x9b-NA (0)
    |                                               |                |                e[0:5]: 0x9b-0xa1.7 (7)
    |                                               |                |                  [0]{}: in 0x9b-0x9c.7 (2)
0x90|                                 20            |                |                    local.get: 0x20 (valid) 0x9b-0x9b.7 (1)
0x90|                                    00         |            .   |                    x: 0 0x9c-0x9c.7 (1)
    |                                               |                |                  [1]{}: in 0x9d-0x9e.7 (2)
0x90|                                       20      |                |                    local.get: 0x20 (valid) 0x9d-0x9d.7 (1)
0x90|                                          01   |              . |                    x: 1 0x9e-0x9e.7 (1)
    |                                               |                |                  [2]{}: in 0x9f-0x9f.7 (1)
0x90|                                             5f|               _|                    f32.le: 0x5f (valid) 0x9f-0x9f.7 (1)
    |                                               |                |                  [3]{}: in 0xa0-0xa0.7 (1)
0xa0|45                                             |E               |                    i32.eqz: 0x45 (valid) 0xa0-0xa0.7 (1)
    |                                               |                |                  [4]{}: in 0xa1-0xa1.7 (1)
0xa0|   0b                                          | .              |                    end: 0xb (valid) 0xa1-0xa1.7 (1)
    |                                               |                |            [2]{}: code 0xa2-0xaa.7 (9)
0xa0|      08                                       |  .             |              size: 8 0xa2-0xa2.7 (1)
    |                                               |                |              code{}: 0xa3-0xaa.7 (8)
    |                                               |                |                t{}: 0xa3-0xa3.7 (1)
0xa0|         00                                    |   .            |                  n: 0 0xa3-0xa3.7 (1)
    |                                               |                |                  x[0:0]: 0xa4-NA (0)
    |                                               |                |                e[0:5]: 0xa4-0xaa.7 (7)
    |                                               |                |                  [0]{}: in 0xa4-0xa5.7 (2)
0xa0|            20                                 |                |                    local.get: 0x20 (valid) 0xa4-0xa4.7 (1)
0xa0|               00                              |     .          |                    x: 0 0xa5-0xa5.7 (1)
    |                                               |                |                  [1]{}: in 0xa6-0xa7.7 (2)
0xa0|                  20                           |                |                    local.get: 0x20 (valid) 0xa6-0xa6.7 (1)
0xa0|                     01                        |       .        |                    x: 1 0xa7-0xa7.7 (1)
    |                                               |                |                  [2]{}: in 0xa8-0xa8.7 (1)
0xa0|                        5e                     |        ^       |                    f32.gt: 0x5e (valid) 0xa8-0xa8.7 (1)
    |                                               |                |                  [3]{}: in 0xa9-0xa9.7 (1)
0xa0|                           45                  |         E      |                    i32.eqz: 0x45 (valid) 0xa9-0xa9.7 (1)
    |                                               |                |                  [4]{}: in 0xaa-0xaa.7 (1)
0xa0|                              0b               |          .     |                    end: 0xb (valid) 0xaa-0xaa.7 (1)
    |                                               |                |            [3]{}: code 0xab-0xb3.7 (9)
0xa0|                                 08            |           .    |              size: 8 0xab-0xab.7 (1)
    |                                               |                |              code{}: 0xac-0xb3.7 (8)
    |                                               |                |                t{}: 0xac-0xac.7 (1)
0xa0|                                    00         |            .   |                  n: 0 0xac-0xac.7 (1)
    |                                               |                |                  x[0:0]: 0xad-NA (0)
    |                                               |                |                e[0:5]: 0xad-0xb3.7 (7)
    |                                               |                |                  [0]{}: in 0xad-0xae.7 (2)
0xa0|                                       20      |                |                    local.get: 0x20 (valid) 0xad-0xad.7 (1)
0xa0|                                          00   |              . |                    x: 0 0xae-0xae.7 (1)
    |                                               |                |                  [1]{}: in 0xaf-0xb0.7 (2)
0xa0|                                             20|                |                    local.get: 0x20 (valid) 0xaf-0xaf.7 (1)
0xb0|01                                             |.               |                    x: 1 0xb0-0xb0.7 (1)
    |                                               |                |                  [2]{}: in 0xb1-0xb1.7 (1)
0xb0|   60                                          | `              |                    f32.ge: 0x60 (valid) 0xb1-0xb1.7 (1)
    |                                               |                |                  [3]{}: in 0xb2-0xb2.7 (1)
0xb0|      45                                       |  E             |                    i32.eqz: 0x45 (valid) 0xb2-0xb2.7 (1)
    |                                               |                |                  [4]{}: in 0xb3-0xb3.7 (1)
0xb0|         0b                                    |   .            |                    end: 0xb (valid) 0xb3-0xb3.7 (1)
    |                                               |                |            [4]{}: code 0xb4-0xbc.7 (9)
0xb0|            08                                 |    .           |              size: 8 0xb4-0xb4.7 (1)
    |                                               |                |              code{}: 0xb5-0xbc.7 (8)
    |                                               |                |                t{}: 0xb5-0xb5.7 (1)
0xb0|               00                              |     .          |                  n: 0 0xb5-0xb5.7 (1)
    |                                               |                |                  x[0:0]: 0xb6-NA (0)
    |                                               |                |                e[0:5]: 0xb6-0xbc.7 (7)
    |                                               |                |                  [0]{}: in 0xb6-0xb7.7 (2)
0xb0|                  20                           |                |                    local.get: 0x20 (valid) 0xb6-0xb6.7 (1)
0xb0|                     00                        |       .        |                    x: 0 0xb7-0xb7.7 (1)
    |                                               |                |                  [1]{}: in 0xb8-0xb9.7 (2)
0xb0|                        20                     |                |                    local.get: 0x20 (valid) 0xb8-0xb8.7 (1)
0xb0|                           01                  |         .      |                    x: 1 0xb9-0xb9.7 (1)
    |                                               |                |                  [2]{}: in 0xba-0xba.7 (1)
0xb0|                              63               |          c     |                    f64.lt: 0x63 (valid) 0xba-0xba.7 (1)
    |                                               |                |                  [3]{}: in 0xbb-0xbb.7 (1)
0xb0|                                 45            |           E    |                    i32.eqz: 0x45 (valid) 0xbb-0xbb.7 (1)
    |                                               |                |                  [4]{}: in 0xbc-0xbc.7 (1)
0xb0|                                    0b         |            .   |                    end: 0xb (valid) 0xbc-0xbc.7 (1)
    |                                               |                |            [5]{}: code 0xbd-0xc5.7 (9)
0xb0|                                       08      |             .  |              size: 8 0xbd-0xbd.7 (1)
    |                                               |                |              code{}: 0xbe-0xc5.7 (8)
    |                                               |                |                t{}: 0xbe-0xbe.7 (1)
0xb0|                                          00   |              . |                  n: 0 0xbe-0xbe.7 (1)
    |                                               |                |                  x[0:0]: 0xbf-NA (0)
    |                                               |                |                e[0:5]: 0xbf-0xc5.7 (7)
    |                                               |                |                  [0]{}: in 0xbf-0xc0.7 (2)
0xb0|                                             20|                |                    local.get: 0x20 (valid) 0xbf-0xbf.7 (1)
0xc0|00                                             |.               |                    x: 0 0xc0-0xc0.7 (1)
    |                                               |                |                  [1]{}: in 0xc1-0xc2.7 (2)
0xc0|   20                                          |                |                    local.get: 0x20 (valid) 0xc1-0xc1.7 (1)
0xc0|      01                                       |  .             |                    x: 1 0xc2-0xc2.7 (1)
    |                                               |                |                  [2]{}: in 0xc3-0xc3.7 (1)
0xc0|         65                                    |   e            |                    f64.le: 0x65 (valid) 0xc3-0xc3.7 (1)
    |                                               |                |                  [3]{}: in 0xc4-0xc4.7 (1)
0xc0|            45                                 |    E           |                    i32.eqz: 0x45 (valid) 0xc4-0xc4.7 (1)
    |                                               |                |                  [4]{}: in 0xc5-0xc5.7 (1)
0xc0|               0b                              |     .          |                    end: 0xb (valid) 0xc5-0xc5.7 (1)
    |                                               |                |            [6]{}: code 0xc6-0xce.7 (9)
0xc0|                  08                           |      .         |              size: 8 0xc6-0xc6.7 (1)
    |                                               |                |              code{}: 0xc7-0xce.7 (8)
    |                                               |                |                t{}: 0xc7-0xc7.7 (1)
0xc0|                     00                        |       .        |                  n: 0 0xc7-0xc7.7 (1)
    |                                               |                |                  x[0:0]: 0xc8-NA (0)
    |                                               |                |                e[0:5]: 0xc8-0xce.7 (7)
    |                                               |                |                  [0]{}: in 0xc8-0xc9.7 (2)
0xc0|                        20                     |                |                    local.get: 0x20 (valid) 0xc8-0xc8.7 (1)
0xc0|                           00                  |         .      |                    x: 0 0xc9-0xc9.7 (1)
    |                                               |                |                  [1]{}: in 0xca-0xcb.7 (2)
0xc0|                              20               |                |                    local.get: 0x20 (valid) 0xca-0xca.7 (1)
0xc0|                                 01            |           .    |                    x: 1 0xcb-0xcb.7 (1)
    |                                               |                |                  [2]{}: in 0xcc-0xcc.7 (1)
0xc0|                                    64         |            d   |                    f64.gt: 0x64 (valid) 0xcc-0xcc.7 (1)
    |                                               |                |                  [3]{}: in 0xcd-0xcd.7 (1)
0xc0|                                       45      |             E  |                    i32.eqz: 0x45 (valid) 0xcd-0xcd.7 (1)
    |                                               |                |                  [4]{}: in 0xce-0xce.7 (1)
0xc0|                                          0b   |              . |                    end: 0xb (valid) 0xce-0xce.7 (1)
    |                                               |                |            [7]{}: code 0xcf-0xd7.7 (9)
0xc0|                                             08|               .|              size: 8 0xcf-0xcf.7 (1)
    |                                               |                |              code{}: 0xd0-0xd7.7 (8)
    |                                               |                |                t{}: 0xd0-0xd0.7 (1)
0xd0|00                                             |.               |                  n: 0 0xd0-0xd0.7 (1)
    |                                               |                |                  x[0:0]: 0xd1-NA (0)
    |                                               |                |                e[0:5]: 0xd1-0xd7.7 (7)
    |                                               |                |                  [0]{}: in 0xd1-0xd2.7 (2)
0xd0|   20                                          |                |                    local.get: 0x20 (valid) 0xd1-0xd1.7 (1)
0xd0|      00                                       |  .             |                    x: 0 0xd2-0xd2.7 (1)
    |                                               |                |                  [1]{}: in 0xd3-0xd4.7 (2)
0xd0|         20                                    |                |                    local.get: 0x20 (valid) 0xd3-0xd3.7 (1)
0xd0|            01                                 |    .           |                    x: 1 0xd4-0xd4.7 (1)
    |                                               |                |                  [2]{}: in 0xd5-0xd5.7 (1)
0xd0|               66                              |     f          |                    f64.ge: 0x66 (valid) 0xd5-0xd5.7 (1)
    |                                               |                |                  [3]{}: in 0xd6-0xd6.7 (1)
0xd0|                  45                           |      E         |                    i32.eqz: 0x45 (valid) 0xd6-0xd6.7 (1)
    |                                               |                |                  [4]{}: in 0xd7-0xd7.7 (1)
0xd0|                     0b|                       |       .|       |                    end: 0xb (valid) 0xd7-0xd7.7 (1)
