$ fq -d wasm dv float_exprs-37.wasm
    |00 01 02 03 04 05 06 07 08 09 0a 0b 0c 0d 0e 0f|0123456789abcdef|.{}: float_exprs-37.wasm (wasm) 0x0-0x6b (107)
0x00|00 61 73 6d                                    |.asm            |  magic: raw bits (valid) 0x0-0x4 (4)
0x00|            01 00 00 00                        |    ....        |  version: 1 0x4-0x8 (4)
    |                                               |                |  sections[0:4]: 0x8-0x6b (99)
    |                                               |                |    [0]{}: section 0x8-0x17 (15)
0x00|                        01                     |        .       |      id: "type_section" (1) 0x8-0x9 (1)
0x00|                           0d                  |         .      |      size: 13 (valid) 0x9-0xa (1)
    |                                               |                |      content{}: 0xa-0x17 (13)
    |                                               |                |        ft{}: 0xa-0x17 (13)
0x00|                              02               |          .     |          n: 2 (valid) 0xa-0xb (1)
    |                                               |                |          x[0:2]: 0xb-0x17 (12)
    |                                               |                |            [0]{}: ft 0xb-0x11 (6)
0x00|                                 60            |           `    |              tag: 0x60 (valid) 0xb-0xc (1)
    |                                               |                |              rt1{}: 0xc-0xf (3)
0x00|                                    02         |            .   |                n: 2 (valid) 0xc-0xd (1)
    |                                               |                |                x[0:2]: 0xd-0xf (2)
0x00|                                       7c      |             |  |                  [0]: "f64" (0x7c) t 0xd-0xe (1)
0x00|                                          7d   |              } |                  [1]: "f32" (0x7d) t 0xe-0xf (1)
    |                                               |                |              rt2{}: 0xf-0x11 (2)
0x00|                                             01|               .|                n: 1 (valid) 0xf-0x10 (1)
    |                                               |                |                x[0:1]: 0x10-0x11 (1)
0x10|7d                                             |}               |                  [0]: "f32" (0x7d) t 0x10-0x11 (1)
    |                                               |                |            [1]{}: ft 0x11-0x17 (6)
0x10|   60                                          | `              |              tag: 0x60 (valid) 0x11-0x12 (1)
    |                                               |                |              rt1{}: 0x12-0x15 (3)
0x10|      02                                       |  .             |                n: 2 (valid) 0x12-0x13 (1)
    |                                               |                |                x[0:2]: 0x13-0x15 (2)
0x10|         7d                                    |   }            |                  [0]: "f32" (0x7d) t 0x13-0x14 (1)
0x10|            7c                                 |    |           |                  [1]: "f64" (0x7c) t 0x14-0x15 (1)
    |                                               |                |              rt2{}: 0x15-0x17 (2)
0x10|               01                              |     .          |                n: 1 (valid) 0x15-0x16 (1)
    |                                               |                |                x[0:1]: 0x16-0x17 (1)
0x10|                  7d                           |      }         |                  [0]: "f32" (0x7d) t 0x16-0x17 (1)
    |                                               |                |    [1]{}: section 0x17-0x1c (5)
0x10|                     03                        |       .        |      id: "function_section" (3) 0x17-0x18 (1)
0x10|                        03                     |        .       |      size: 3 (valid) 0x18-0x19 (1)
    |                                               |                |      content{}: 0x19-0x1c (3)
    |                                               |                |        x{}: 0x19-0x1c (3)
0x10|                           02                  |         .      |          n: 2 (valid) 0x19-0x1a (1)
    |                                               |                |          x[0:2]: 0x1a-0x1c (2)
0x10|                              00               |          .     |            [0]: 0 x (valid) 0x1a-0x1b (1)
0x10|                                 01            |           .    |            [1]: 1 x (valid) 0x1b-0x1c (1)
    |                                               |                |    [2]{}: section 0x1c-0x54 (56)
0x10|                                    07         |            .   |      id: "export_section" (7) 0x1c-0x1d (1)
0x10|                                       36      |             6  |      size: 54 (valid) 0x1d-0x1e (1)
    |                                               |                |      content{}: 0x1e-0x54 (54)
    |                                               |                |        ex{}: 0x1e-0x54 (54)
0x10|                                          02   |              . |          n: 2 (valid) 0x1e-0x1f (1)
    |                                               |                |          x[0:2]: 0x1f-0x54 (53)
    |                                               |                |            [0]{}: ex 0x1f-0x35 (22)
    |                                               |                |              nm{}: 0x1f-0x33 (20)
0x10|                                             13|               .|                n: 19 (valid) 0x1f-0x20 (1)
0x20|6e 6f 5f 64 65 6d 6f 74 65 5f 6d 69 78 65 64 5f|no_demote_mixed_|                b: "no_demote_mixed_add" 0x20-0x33 (19)
0x30|61 64 64                                       |add             |
    |                                               |                |              d{}: 0x33-0x35 (2)
0x30|         00                                    |   .            |                tag: "funcidx" (0x0) 0x33-0x34 (1)
0x30|            00                                 |    .           |                x: 0 (valid) 0x34-0x35 (1)
    |                                               |                |            [1]{}: ex 0x35-0x54 (31)
    |                                               |                |              nm{}: 0x35-0x52 (29)
0x30|               1c                              |     .          |                n: 28 (valid) 0x35-0x36 (1)
0x30|                  6e 6f 5f 64 65 6d 6f 74 65 5f|      no_demote_|                b: "no_demote_mixed_add_commuted" 0x36-0x52 (28)
0x40|6d 69 78 65 64 5f 61 64 64 5f 63 6f 6d 6d 75 74|mixed_add_commut|
0x50|65 64                                          |ed              |
    |                                               |                |              d{}: 0x52-0x54 (2)
0x50|      00                                       |  .             |                tag: "funcidx" (0x0) 0x52-0x53 (1)
0x50|         01                                    |   .            |                x: 1 (valid) 0x53-0x54 (1)
    |                                               |                |    [3]{}: section 0x54-0x6b (23)
0x50|            0a                                 |    .           |      id: "code_section" (10) 0x54-0x55 (1)
0x50|               15                              |     .          |      size: 21 (valid) 0x55-0x56 (1)
    |                                               |                |      content{}: 0x56-0x6b (21)
    |                                               |                |        code{}: 0x56-0x6b (21)
0x50|                  02                           |      .         |          n: 2 (valid) 0x56-0x57 (1)
    |                                               |                |          x[0:2]: 0x57-0x6b (20)
    |                                               |                |            [0]{}: code 0x57-0x61 (10)
0x50|                     09                        |       .        |              size: 9 (valid) 0x57-0x58 (1)
    |                                               |                |              code{}: 0x58-0x61 (9)
    |                                               |                |                t{}: 0x58-0x59 (1)
0x50|                        00                     |        .       |                  n: 0 (valid) 0x58-0x59 (1)
    |                                               |                |                  x[0:0]: 0x59-0x59 (0)
    |                                               |                |                e[0:6]: 0x59-0x61 (8)
    |                                               |                |                  [0]{}: in 0x59-0x5b (2)
0x50|                           20                  |                |                    opcode: "local.get" (0x20) 0x59-0x5a (1)
0x50|                              00               |          .     |                    x: 0 (valid) 0x5a-0x5b (1)
    |                                               |                |                  [1]{}: in 0x5b-0x5d (2)
0x50|                                 20            |                |                    opcode: "local.get" (0x20) 0x5b-0x5c (1)
0x50|                                    01         |            .   |                    x: 1 (valid) 0x5c-0x5d (1)
    |                                               |                |                  [2]{}: in 0x5d-0x5e (1)
0x50|                                       bb      |             .  |                    opcode: "f64.promote_f32" (0xbb) 0x5d-0x5e (1)
    |                                               |                |                  [3]{}: in 0x5e-0x5f (1)
0x50|                                          a0   |              . |                    opcode: "f64.add" (0xa0) 0x5e-0x5f (1)
    |                                               |                |                  [4]{}: in 0x5f-0x60 (1)
0x50|                                             b6|               .|                    opcode: "f32.demote_f64" (0xb6) 0x5f-0x60 (1)
    |                                               |                |                  [5]{}: in 0x60-0x61 (1)
0x60|0b                                             |.               |                    opcode: "end" (0xb) 0x60-0x61 (1)
    |                                               |                |            [1]{}: code 0x61-0x6b (10)
0x60|   09                                          | .              |              size: 9 (valid) 0x61-0x62 (1)
    |                                               |                |              code{}: 0x62-0x6b (9)
    |                                               |                |                t{}: 0x62-0x63 (1)
0x60|      00                                       |  .             |                  n: 0 (valid) 0x62-0x63 (1)
    |                                               |                |                  x[0:0]: 0x63-0x63 (0)
    |                                               |                |                e[0:6]: 0x63-0x6b (8)
    |                                               |                |                  [0]{}: in 0x63-0x65 (2)
0x60|         20                                    |                |                    opcode: "local.get" (0x20) 0x63-0x64 (1)
0x60|            00                                 |    .           |                    x: 0 (valid) 0x64-0x65 (1)
    |                                               |                |                  [1]{}: in 0x65-0x66 (1)
0x60|               bb                              |     .          |                    opcode: "f64.promote_f32" (0xbb) 0x65-0x66 (1)
    |                                               |                |                  [2]{}: in 0x66-0x68 (2)
0x60|                  20                           |                |                    opcode: "local.get" (0x20) 0x66-0x67 (1)
0x60|                     01                        |       .        |                    x: 1 (valid) 0x67-0x68 (1)
    |                                               |                |                  [3]{}: in 0x68-0x69 (1)
0x60|                        a0                     |        .       |                    opcode: "f64.add" (0xa0) 0x68-0x69 (1)
    |                                               |                |                  [4]{}: in 0x69-0x6a (1)
0x60|                           b6                  |         .      |                    opcode: "f32.demote_f64" (0xb6) 0x69-0x6a (1)
    |                                               |                |                  [5]{}: in 0x6a-0x6b (1)
0x60|                              0b|              |          .|    |                    opcode: "end" (0xb) 0x6a-0x6b (1)
