$ fq -d wasm dv float_exprs-61.wasm
     |00 01 02 03 04 05 06 07 08 09 0a 0b 0c 0d 0e 0f|0123456789abcdef|.{}: float_exprs-61.wasm (wasm) 0x0-0x4ad (1197)
0x000|00 61 73 6d                                    |.asm            |  magic: raw bits (valid) 0x0-0x4 (4)
0x000|            01 00 00 00                        |    ....        |  version: 1 0x4-0x8 (4)
     |                                               |                |  sections[0:6]: 0x8-0x4ad (1189)
     |                                               |                |    [0]{}: section 0x8-0x11 (9)
0x000|                        01                     |        .       |      id: "type_section" (1) 0x8-0x9 (1)
0x000|                           07                  |         .      |      size: 7 (valid) 0x9-0xa (1)
     |                                               |                |      content{}: 0xa-0x11 (7)
     |                                               |                |        ft{}: 0xa-0x11 (7)
0x000|                              01               |          .     |          n: 1 (valid) 0xa-0xb (1)
     |                                               |                |          x[0:1]: 0xb-0x11 (6)
     |                                               |                |            [0]{}: ft 0xb-0x11 (6)
0x000|                                 60            |           `    |              tag: 0x60 (valid) 0xb-0xc (1)
     |                                               |                |              rt1{}: 0xc-0xf (3)
0x000|                                    02         |            .   |                n: 2 (valid) 0xc-0xd (1)
     |                                               |                |                x[0:2]: 0xd-0xf (2)
0x000|                                       7f      |             .  |                  [0]: "i32" (0x7f) t 0xd-0xe (1)
0x000|                                          7f   |              . |                  [1]: "i32" (0x7f) t 0xe-0xf (1)
     |                                               |                |              rt2{}: 0xf-0x11 (2)
0x000|                                             01|               .|                n: 1 (valid) 0xf-0x10 (1)
     |                                               |                |                x[0:1]: 0x10-0x11 (1)
0x010|7d                                             |}               |                  [0]: "f32" (0x7d) t 0x10-0x11 (1)
     |                                               |                |    [1]{}: section 0x11-0x16 (5)
0x010|   03                                          | .              |      id: "function_section" (3) 0x11-0x12 (1)
0x010|      03                                       |  .             |      size: 3 (valid) 0x12-0x13 (1)
     |                                               |                |      content{}: 0x13-0x16 (3)
     |                                               |                |        x{}: 0x13-0x16 (3)
0x010|         02                                    |   .            |          n: 2 (valid) 0x13-0x14 (1)
     |                                               |                |          x[0:2]: 0x14-0x16 (2)
0x010|            00                                 |    .           |            [0]: 0 x (valid) 0x14-0x15 (1)
0x010|               00                              |     .          |            [1]: 0 x (valid) 0x15-0x16 (1)
     |                                               |                |    [2]{}: section 0x16-0x1c (6)
0x010|                  05                           |      .         |      id: "memory_section" (5) 0x16-0x17 (1)
0x010|                     04                        |       .        |      size: 4 (valid) 0x17-0x18 (1)
     |                                               |                |      content{}: 0x18-0x1c (4)
     |                                               |                |        mem{}: 0x18-0x1c (4)
0x010|                        01                     |        .       |          n: 1 (valid) 0x18-0x19 (1)
     |                                               |                |          x[0:1]: 0x19-0x1c (3)
     |                                               |                |            [0]{}: mem 0x19-0x1c (3)
     |                                               |                |              lim{}: 0x19-0x1c (3)
0x010|                           01                  |         .      |                tag: 0x1 0x19-0x1a (1)
0x010|                              01               |          .     |                n: 1 (valid) 0x1a-0x1b (1)
0x010|                                 01            |           .    |                m: 1 (valid) 0x1b-0x1c (1)
     |                                               |                |    [3]{}: section 0x1c-0x3f (35)
0x010|                                    07         |            .   |      id: "export_section" (7) 0x1c-0x1d (1)
0x010|                                       21      |             !  |      size: 33 (valid) 0x1d-0x1e (1)
     |                                               |                |      content{}: 0x1e-0x3f (33)
     |                                               |                |        ex{}: 0x1e-0x3f (33)
0x010|                                          02   |              . |          n: 2 (valid) 0x1e-0x1f (1)
     |                                               |                |          x[0:2]: 0x1f-0x3f (32)
     |                                               |                |            [0]{}: ex 0x1f-0x2f (16)
     |                                               |                |              nm{}: 0x1f-0x2d (14)
0x010|                                             0d|               .|                n: 13 (valid) 0x1f-0x20 (1)
0x020|66 33 32 2e 6b 61 68 61 6e 5f 73 75 6d         |f32.kahan_sum   |                b: "f32.kahan_sum" 0x20-0x2d (13)
     |                                               |                |              d{}: 0x2d-0x2f (2)
0x020|                                       00      |             .  |                tag: "funcidx" (0x0) 0x2d-0x2e (1)
0x020|                                          00   |              . |                x: 0 (valid) 0x2e-0x2f (1)
     |                                               |                |            [1]{}: ex 0x2f-0x3f (16)
     |                                               |                |              nm{}: 0x2f-0x3d (14)
0x020|                                             0d|               .|                n: 13 (valid) 0x2f-0x30 (1)
0x030|66 33 32 2e 70 6c 61 69 6e 5f 73 75 6d         |f32.plain_sum   |                b: "f32.plain_sum" 0x30-0x3d (13)
     |                                               |                |              d{}: 0x3d-0x3f (2)
0x030|                                       00      |             .  |                tag: "funcidx" (0x0) 0x3d-0x3e (1)
0x030|                                          01   |              . |                x: 1 (valid) 0x3e-0x3f (1)
     |                                               |                |    [4]{}: section 0x3f-0xa3 (100)
0x030|                                             0a|               .|      id: "code_section" (10) 0x3f-0x40 (1)
0x040|62                                             |b               |      size: 98 (valid) 0x40-0x41 (1)
     |                                               |                |      content{}: 0x41-0xa3 (98)
     |                                               |                |        code{}: 0x41-0xa3 (98)
0x040|   02                                          | .              |          n: 2 (valid) 0x41-0x42 (1)
     |                                               |                |          x[0:2]: 0x42-0xa3 (97)
     |                                               |                |            [0]{}: code 0x42-0x7a (56)
0x040|      37                                       |  7             |              size: 55 (valid) 0x42-0x43 (1)
     |                                               |                |              code{}: 0x43-0x7a (55)
     |                                               |                |                t{}: 0x43-0x46 (3)
0x040|         01                                    |   .            |                  n: 1 (valid) 0x43-0x44 (1)
     |                                               |                |                  x[0:1]: 0x44-0x46 (2)
     |                                               |                |                    [0]{}: t 0x44-0x46 (2)
0x040|            03                                 |    .           |                      n: 3 (valid) 0x44-0x45 (1)
0x040|               7d                              |     }          |                      t: "f32" (0x7d) 0x45-0x46 (1)
     |                                               |                |                e[0:3]: 0x46-0x7a (52)
     |                                               |                |                  [0]{}: in 0x46-0x77 (49)
0x040|                  02                           |      .         |                    opcode: "block" (0x2) 0x46-0x47 (1)
0x040|                     40                        |       @        |                    bt: "ε" (64) 0x47-0x48 (1)
     |                                               |                |                    instructions[0:1]: 0x48-0x76 (46)
     |                                               |                |                      [0]{}: instr 0x48-0x76 (46)
0x040|                        03                     |        .       |                        opcode: "loop" (0x3) 0x48-0x49 (1)
0x040|                           40                  |         @      |                        bt: "ε" (64) 0x49-0x4a (1)
     |                                               |                |                        instructions[0:24]: 0x4a-0x75 (43)
     |                                               |                |                          [0]{}: instr 0x4a-0x4c (2)
0x040|                              20               |                |                            opcode: "local.get" (0x20) 0x4a-0x4b (1)
0x040|                                 03            |           .    |                            x: 3 (valid) 0x4b-0x4c (1)
     |                                               |                |                          [1]{}: instr 0x4c-0x4e (2)
0x040|                                    20         |                |                            opcode: "local.get" (0x20) 0x4c-0x4d (1)
0x040|                                       00      |             .  |                            x: 0 (valid) 0x4d-0x4e (1)
     |                                               |                |                          [2]{}: instr 0x4e-0x51 (3)
0x040|                                          2a   |              * |                            opcode: "f32.load" (0x2a) 0x4e-0x4f (1)
     |                                               |                |                            m{}: 0x4f-0x51 (2)
0x040|                                             02|               .|                              a: 2 (valid) 0x4f-0x50 (1)
0x050|00                                             |.               |                              o: 0 (valid) 0x50-0x51 (1)
     |                                               |                |                          [3]{}: instr 0x51-0x53 (2)
0x050|   20                                          |                |                            opcode: "local.get" (0x20) 0x51-0x52 (1)
0x050|      04                                       |  .             |                            x: 4 (valid) 0x52-0x53 (1)
     |                                               |                |                          [4]{}: instr 0x53-0x54 (1)
0x050|         93                                    |   .            |                            opcode: "f32.sub" (0x93) 0x53-0x54 (1)
     |                                               |                |                          [5]{}: instr 0x54-0x56 (2)
0x050|            22                                 |    "           |                            opcode: "local.tee" (0x22) 0x54-0x55 (1)
0x050|               04                              |     .          |                            x: 4 (valid) 0x55-0x56 (1)
     |                                               |                |                          [6]{}: instr 0x56-0x57 (1)
0x050|                  92                           |      .         |                            opcode: "f32.add" (0x92) 0x56-0x57 (1)
     |                                               |                |                          [7]{}: instr 0x57-0x59 (2)
0x050|                     22                        |       "        |                            opcode: "local.tee" (0x22) 0x57-0x58 (1)
0x050|                        02                     |        .       |                            x: 2 (valid) 0x58-0x59 (1)
     |                                               |                |                          [8]{}: instr 0x59-0x5b (2)
0x050|                           20                  |                |                            opcode: "local.get" (0x20) 0x59-0x5a (1)
0x050|                              03               |          .     |                            x: 3 (valid) 0x5a-0x5b (1)
     |                                               |                |                          [9]{}: instr 0x5b-0x5c (1)
0x050|                                 93            |           .    |                            opcode: "f32.sub" (0x93) 0x5b-0x5c (1)
     |                                               |                |                          [10]{}: instr 0x5c-0x5e (2)
0x050|                                    20         |                |                            opcode: "local.get" (0x20) 0x5c-0x5d (1)
0x050|                                       04      |             .  |                            x: 4 (valid) 0x5d-0x5e (1)
     |                                               |                |                          [11]{}: instr 0x5e-0x5f (1)
0x050|                                          93   |              . |                            opcode: "f32.sub" (0x93) 0x5e-0x5f (1)
     |                                               |                |                          [12]{}: instr 0x5f-0x61 (2)
0x050|                                             21|               !|                            opcode: "local.set" (0x21) 0x5f-0x60 (1)
0x060|04                                             |.               |                            x: 4 (valid) 0x60-0x61 (1)
     |                                               |                |                          [13]{}: instr 0x61-0x63 (2)
0x060|   20                                          |                |                            opcode: "local.get" (0x20) 0x61-0x62 (1)
0x060|      00                                       |  .             |                            x: 0 (valid) 0x62-0x63 (1)
     |                                               |                |                          [14]{}: instr 0x63-0x65 (2)
0x060|         41                                    |   A            |                            opcode: "i32.const" (0x41) 0x63-0x64 (1)
0x060|            04                                 |    .           |                            n: 4 (valid) 0x64-0x65 (1)
     |                                               |                |                          [15]{}: instr 0x65-0x66 (1)
0x060|               6a                              |     j          |                            opcode: "i32.add" (0x6a) 0x65-0x66 (1)
     |                                               |                |                          [16]{}: instr 0x66-0x68 (2)
0x060|                  21                           |      !         |                            opcode: "local.set" (0x21) 0x66-0x67 (1)
0x060|                     00                        |       .        |                            x: 0 (valid) 0x67-0x68 (1)
     |                                               |                |                          [17]{}: instr 0x68-0x6a (2)
0x060|                        20                     |                |                            opcode: "local.get" (0x20) 0x68-0x69 (1)
0x060|                           02                  |         .      |                            x: 2 (valid) 0x69-0x6a (1)
     |                                               |                |                          [18]{}: instr 0x6a-0x6c (2)
0x060|                              21               |          !     |                            opcode: "local.set" (0x21) 0x6a-0x6b (1)
0x060|                                 03            |           .    |                            x: 3 (valid) 0x6b-0x6c (1)
     |                                               |                |                          [19]{}: instr 0x6c-0x6e (2)
0x060|                                    20         |                |                            opcode: "local.get" (0x20) 0x6c-0x6d (1)
0x060|                                       01      |             .  |                            x: 1 (valid) 0x6d-0x6e (1)
     |                                               |                |                          [20]{}: instr 0x6e-0x70 (2)
0x060|                                          41   |              A |                            opcode: "i32.const" (0x41) 0x6e-0x6f (1)
0x060|                                             7f|               .|                            n: -1 (valid) 0x6f-0x70 (1)
     |                                               |                |                          [21]{}: instr 0x70-0x71 (1)
0x070|6a                                             |j               |                            opcode: "i32.add" (0x6a) 0x70-0x71 (1)
     |                                               |                |                          [22]{}: instr 0x71-0x73 (2)
0x070|   22                                          | "              |                            opcode: "local.tee" (0x22) 0x71-0x72 (1)
0x070|      01                                       |  .             |                            x: 1 (valid) 0x72-0x73 (1)
     |                                               |                |                          [23]{}: instr 0x73-0x75 (2)
0x070|         0d                                    |   .            |                            opcode: "br_if" (0xd) 0x73-0x74 (1)
0x070|            00                                 |    .           |                            l: 0 (valid) 0x74-0x75 (1)
0x070|               0b                              |     .          |                        end: 0xb (valid) 0x75-0x76 (1)
0x070|                  0b                           |      .         |                    end: 0xb (valid) 0x76-0x77 (1)
     |                                               |                |                  [1]{}: in 0x77-0x79 (2)
0x070|                     20                        |                |                    opcode: "local.get" (0x20) 0x77-0x78 (1)
0x070|                        02                     |        .       |                    x: 2 (valid) 0x78-0x79 (1)
     |                                               |                |                  [2]{}: in 0x79-0x7a (1)
0x070|                           0b                  |         .      |                    opcode: "end" (0xb) 0x79-0x7a (1)
     |                                               |                |            [1]{}: code 0x7a-0xa3 (41)
0x070|                              28               |          (     |              size: 40 (valid) 0x7a-0x7b (1)
     |                                               |                |              code{}: 0x7b-0xa3 (40)
     |                                               |                |                t{}: 0x7b-0x7e (3)
0x070|                                 01            |           .    |                  n: 1 (valid) 0x7b-0x7c (1)
     |                                               |                |                  x[0:1]: 0x7c-0x7e (2)
     |                                               |                |                    [0]{}: t 0x7c-0x7e (2)
0x070|                                    01         |            .   |                      n: 1 (valid) 0x7c-0x7d (1)
0x070|                                       7d      |             }  |                      t: "f32" (0x7d) 0x7d-0x7e (1)
     |                                               |                |                e[0:3]: 0x7e-0xa3 (37)
     |                                               |                |                  [0]{}: in 0x7e-0xa0 (34)
0x070|                                          02   |              . |                    opcode: "block" (0x2) 0x7e-0x7f (1)
0x070|                                             40|               @|                    bt: "ε" (64) 0x7f-0x80 (1)
     |                                               |                |                    instructions[0:1]: 0x80-0x9f (31)
     |                                               |                |                      [0]{}: instr 0x80-0x9f (31)
0x080|03                                             |.               |                        opcode: "loop" (0x3) 0x80-0x81 (1)
0x080|   40                                          | @              |                        bt: "ε" (64) 0x81-0x82 (1)
     |                                               |                |                        instructions[0:15]: 0x82-0x9e (28)
     |                                               |                |                          [0]{}: instr 0x82-0x84 (2)
0x080|      20                                       |                |                            opcode: "local.get" (0x20) 0x82-0x83 (1)
0x080|         02                                    |   .            |                            x: 2 (valid) 0x83-0x84 (1)
     |                                               |                |                          [1]{}: instr 0x84-0x86 (2)
0x080|            20                                 |                |                            opcode: "local.get" (0x20) 0x84-0x85 (1)
0x080|               00                              |     .          |                            x: 0 (valid) 0x85-0x86 (1)
     |                                               |                |                          [2]{}: instr 0x86-0x89 (3)
0x080|                  2a                           |      *         |                            opcode: "f32.load" (0x2a) 0x86-0x87 (1)
     |                                               |                |                            m{}: 0x87-0x89 (2)
0x080|                     02                        |       .        |                              a: 2 (valid) 0x87-0x88 (1)
0x080|                        00                     |        .       |                              o: 0 (valid) 0x88-0x89 (1)
     |                                               |                |                          [3]{}: instr 0x89-0x8a (1)
0x080|                           92                  |         .      |                            opcode: "f32.add" (0x92) 0x89-0x8a (1)
     |                                               |                |                          [4]{}: instr 0x8a-0x8c (2)
0x080|                              21               |          !     |                            opcode: "local.set" (0x21) 0x8a-0x8b (1)
0x080|                                 02            |           .    |                            x: 2 (valid) 0x8b-0x8c (1)
     |                                               |                |                          [5]{}: instr 0x8c-0x8e (2)
0x080|                                    20         |                |                            opcode: "local.get" (0x20) 0x8c-0x8d (1)
0x080|                                       00      |             .  |                            x: 0 (valid) 0x8d-0x8e (1)
     |                                               |                |                          [6]{}: instr 0x8e-0x90 (2)
0x080|                                          41   |              A |                            opcode: "i32.const" (0x41) 0x8e-0x8f (1)
0x080|                                             04|               .|                            n: 4 (valid) 0x8f-0x90 (1)
     |                                               |                |                          [7]{}: instr 0x90-0x91 (1)
0x090|6a                                             |j               |                            opcode: "i32.add" (0x6a) 0x90-0x91 (1)
     |                                               |                |                          [8]{}: instr 0x91-0x93 (2)
0x090|   21                                          | !              |                            opcode: "local.set" (0x21) 0x91-0x92 (1)
0x090|      00                                       |  .             |                            x: 0 (valid) 0x92-0x93 (1)
     |                                               |                |                          [9]{}: instr 0x93-0x95 (2)
0x090|         20                                    |                |                            opcode: "local.get" (0x20) 0x93-0x94 (1)
0x090|            01                                 |    .           |                            x: 1 (valid) 0x94-0x95 (1)
     |                                               |                |                          [10]{}: instr 0x95-0x97 (2)
0x090|               41                              |     A          |                            opcode: "i32.const" (0x41) 0x95-0x96 (1)
0x090|                  7f                           |      .         |                            n: -1 (valid) 0x96-0x97 (1)
     |                                               |                |                          [11]{}: instr 0x97-0x98 (1)
0x090|                     6a                        |       j        |                            opcode: "i32.add" (0x6a) 0x97-0x98 (1)
     |                                               |                |                          [12]{}: instr 0x98-0x9a (2)
0x090|                        21                     |        !       |                            opcode: "local.set" (0x21) 0x98-0x99 (1)
0x090|                           01                  |         .      |                            x: 1 (valid) 0x99-0x9a (1)
     |                                               |                |                          [13]{}: instr 0x9a-0x9c (2)
0x090|                              20               |                |                            opcode: "local.get" (0x20) 0x9a-0x9b (1)
0x090|                                 01            |           .    |                            x: 1 (valid) 0x9b-0x9c (1)
     |                                               |                |                          [14]{}: instr 0x9c-0x9e (2)
0x090|                                    0d         |            .   |                            opcode: "br_if" (0xd) 0x9c-0x9d (1)
0x090|                                       00      |             .  |                            l: 0 (valid) 0x9d-0x9e (1)
0x090|                                          0b   |              . |                        end: 0xb (valid) 0x9e-0x9f (1)
0x090|                                             0b|               .|                    end: 0xb (valid) 0x9f-0xa0 (1)
     |                                               |                |                  [1]{}: in 0xa0-0xa2 (2)
0x0a0|20                                             |                |                    opcode: "local.get" (0x20) 0xa0-0xa1 (1)
0x0a0|   02                                          | .              |                    x: 2 (valid) 0xa1-0xa2 (1)
     |                                               |                |                  [2]{}: in 0xa2-0xa3 (1)
0x0a0|      0b                                       |  .             |                    opcode: "end" (0xb) 0xa2-0xa3 (1)
     |                                               |                |    [5]{}: section 0xa3-0x4ad (1034)
0x0a0|         0b                                    |   .            |      id: "data_section" (11) 0xa3-0xa4 (1)
0x0a0|            87 08                              |    ..          |      size: 1031 (valid) 0xa4-0xa6 (2)
     |                                               |                |      content{}: 0xa6-0x4ad (1031)
     |                                               |                |        seg{}: 0xa6-0x4ad (1031)
0x0a0|                  01                           |      .         |          n: 1 (valid) 0xa6-0xa7 (1)
     |                                               |                |          x[0:1]: 0xa7-0x4ad (1030)
     |                                               |                |            [0]{}: seg 0xa7-0x4ad (1030)
0x0a0|                     00                        |       .        |              tag: 0 (valid) 0xa7-0xa8 (1)
     |                                               |                |              e[0:2]: 0xa8-0xab (3)
     |                                               |                |                [0]{}: in 0xa8-0xaa (2)
0x0a0|                        41                     |        A       |                  opcode: "i32.const" (0x41) 0xa8-0xa9 (1)
0x0a0|                           00                  |         .      |                  n: 0 (valid) 0xa9-0xaa (1)
     |                                               |                |                [1]{}: in 0xaa-0xab (1)
0x0a0|                              0b               |          .     |                  opcode: "end" (0xb) 0xaa-0xab (1)
     |                                               |                |              b{}: 0xab-0x4ad (1026)
0x0a0|                                 80 08         |           ..   |                n: 1024 (valid) 0xab-0xad (2)
0x0a0|                                       c4 c5 57|             ..W|                x: raw bits 0xad-0x4ad (1024)
0x0b0|24 a5 84 c8 0b 6d b8 4b 2e f2 76 17 1c ca 4a 56|$....m.K..v...JV|
*    |until 0x4ac.7 (end) (1024)                     |                |
