$ fq -d wasm dv float_exprs-79.wasm
     |00 01 02 03 04 05 06 07 08 09 0a 0b 0c 0d 0e 0f|0123456789abcdef|.{}: float_exprs-79.wasm (wasm) 0x0-0x184 (388)
0x000|00 61 73 6d                                    |.asm            |  magic: raw bits (valid) 0x0-0x4 (4)
0x000|            01 00 00 00                        |    ....        |  version: 1 0x4-0x8 (4)
     |                                               |                |  sections[0:4]: 0x8-0x184 (380)
     |                                               |                |    [0]{}: section 0x8-0x33 (43)
0x000|                        01                     |        .       |      id: "type_section" (1) 0x8-0x9 (1)
0x000|                           29                  |         )      |      size: 41 (valid) 0x9-0xa (1)
     |                                               |                |      content{}: 0xa-0x33 (41)
     |                                               |                |        ft{}: 0xa-0x33 (41)
0x000|                              06               |          .     |          n: 6 (valid) 0xa-0xb (1)
     |                                               |                |          x[0:6]: 0xb-0x33 (40)
     |                                               |                |            [0]{}: ft 0xb-0x10 (5)
0x000|                                 60            |           `    |              tag: 0x60 (valid) 0xb-0xc (1)
     |                                               |                |              rt1{}: 0xc-0xe (2)
0x000|                                    01         |            .   |                n: 1 (valid) 0xc-0xd (1)
     |                                               |                |                x[0:1]: 0xd-0xe (1)
0x000|                                       7d      |             }  |                  [0]: "f32" (0x7d) t 0xd-0xe (1)
     |                                               |                |              rt2{}: 0xe-0x10 (2)
0x000|                                          01   |              . |                n: 1 (valid) 0xe-0xf (1)
     |                                               |                |                x[0:1]: 0xf-0x10 (1)
0x000|                                             7d|               }|                  [0]: "f32" (0x7d) t 0xf-0x10 (1)
     |                                               |                |            [1]{}: ft 0x10-0x18 (8)
0x010|60                                             |`               |              tag: 0x60 (valid) 0x10-0x11 (1)
     |                                               |                |              rt1{}: 0x11-0x16 (5)
0x010|   04                                          | .              |                n: 4 (valid) 0x11-0x12 (1)
     |                                               |                |                x[0:4]: 0x12-0x16 (4)
0x010|      7d                                       |  }             |                  [0]: "f32" (0x7d) t 0x12-0x13 (1)
0x010|         7d                                    |   }            |                  [1]: "f32" (0x7d) t 0x13-0x14 (1)
0x010|            7d                                 |    }           |                  [2]: "f32" (0x7d) t 0x14-0x15 (1)
0x010|               7d                              |     }          |                  [3]: "f32" (0x7d) t 0x15-0x16 (1)
     |                                               |                |              rt2{}: 0x16-0x18 (2)
0x010|                  01                           |      .         |                n: 1 (valid) 0x16-0x17 (1)
     |                                               |                |                x[0:1]: 0x17-0x18 (1)
0x010|                     7d                        |       }        |                  [0]: "f32" (0x7d) t 0x17-0x18 (1)
     |                                               |                |            [2]{}: ft 0x18-0x1f (7)
0x010|                        60                     |        `       |              tag: 0x60 (valid) 0x18-0x19 (1)
     |                                               |                |              rt1{}: 0x19-0x1d (4)
0x010|                           03                  |         .      |                n: 3 (valid) 0x19-0x1a (1)
     |                                               |                |                x[0:3]: 0x1a-0x1d (3)
0x010|                              7d               |          }     |                  [0]: "f32" (0x7d) t 0x1a-0x1b (1)
0x010|                                 7d            |           }    |                  [1]: "f32" (0x7d) t 0x1b-0x1c (1)
0x010|                                    7d         |            }   |                  [2]: "f32" (0x7d) t 0x1c-0x1d (1)
     |                                               |                |              rt2{}: 0x1d-0x1f (2)
0x010|                                       01      |             .  |                n: 1 (valid) 0x1d-0x1e (1)
     |                                               |                |                x[0:1]: 0x1e-0x1f (1)
0x010|                                          7d   |              } |                  [0]: "f32" (0x7d) t 0x1e-0x1f (1)
     |                                               |                |            [3]{}: ft 0x1f-0x24 (5)
0x010|                                             60|               `|              tag: 0x60 (valid) 0x1f-0x20 (1)
     |                                               |                |              rt1{}: 0x20-0x22 (2)
0x020|01                                             |.               |                n: 1 (valid) 0x20-0x21 (1)
     |                                               |                |                x[0:1]: 0x21-0x22 (1)
0x020|   7c                                          | |              |                  [0]: "f64" (0x7c) t 0x21-0x22 (1)
     |                                               |                |              rt2{}: 0x22-0x24 (2)
0x020|      01                                       |  .             |                n: 1 (valid) 0x22-0x23 (1)
     |                                               |                |                x[0:1]: 0x23-0x24 (1)
0x020|         7c                                    |   |            |                  [0]: "f64" (0x7c) t 0x23-0x24 (1)
     |                                               |                |            [4]{}: ft 0x24-0x2c (8)
0x020|            60                                 |    `           |              tag: 0x60 (valid) 0x24-0x25 (1)
     |                                               |                |              rt1{}: 0x25-0x2a (5)
0x020|               04                              |     .          |                n: 4 (valid) 0x25-0x26 (1)
     |                                               |                |                x[0:4]: 0x26-0x2a (4)
0x020|                  7c                           |      |         |                  [0]: "f64" (0x7c) t 0x26-0x27 (1)
0x020|                     7c                        |       |        |                  [1]: "f64" (0x7c) t 0x27-0x28 (1)
0x020|                        7c                     |        |       |                  [2]: "f64" (0x7c) t 0x28-0x29 (1)
0x020|                           7c                  |         |      |                  [3]: "f64" (0x7c) t 0x29-0x2a (1)
     |                                               |                |              rt2{}: 0x2a-0x2c (2)
0x020|                              01               |          .     |                n: 1 (valid) 0x2a-0x2b (1)
     |                                               |                |                x[0:1]: 0x2b-0x2c (1)
0x020|                                 7c            |           |    |                  [0]: "f64" (0x7c) t 0x2b-0x2c (1)
     |                                               |                |            [5]{}: ft 0x2c-0x33 (7)
0x020|                                    60         |            `   |              tag: 0x60 (valid) 0x2c-0x2d (1)
     |                                               |                |              rt1{}: 0x2d-0x31 (4)
0x020|                                       03      |             .  |                n: 3 (valid) 0x2d-0x2e (1)
     |                                               |                |                x[0:3]: 0x2e-0x31 (3)
0x020|                                          7c   |              | |                  [0]: "f64" (0x7c) t 0x2e-0x2f (1)
0x020|                                             7c|               ||                  [1]: "f64" (0x7c) t 0x2f-0x30 (1)
0x030|7c                                             ||               |                  [2]: "f64" (0x7c) t 0x30-0x31 (1)
     |                                               |                |              rt2{}: 0x31-0x33 (2)
0x030|   01                                          | .              |                n: 1 (valid) 0x31-0x32 (1)
     |                                               |                |                x[0:1]: 0x32-0x33 (1)
0x030|      7c                                       |  |             |                  [0]: "f64" (0x7c) t 0x32-0x33 (1)
     |                                               |                |    [1]{}: section 0x33-0x40 (13)
0x030|         03                                    |   .            |      id: "function_section" (3) 0x33-0x34 (1)
0x030|            0b                                 |    .           |      size: 11 (valid) 0x34-0x35 (1)
     |                                               |                |      content{}: 0x35-0x40 (11)
     |                                               |                |        x{}: 0x35-0x40 (11)
0x030|               0a                              |     .          |          n: 10 (valid) 0x35-0x36 (1)
     |                                               |                |          x[0:10]: 0x36-0x40 (10)
0x030|                  00                           |      .         |            [0]: 0 x (valid) 0x36-0x37 (1)
0x030|                     01                        |       .        |            [1]: 1 x (valid) 0x37-0x38 (1)
0x030|                        02                     |        .       |            [2]: 2 x (valid) 0x38-0x39 (1)
0x030|                           02                  |         .      |            [3]: 2 x (valid) 0x39-0x3a (1)
0x030|                              01               |          .     |            [4]: 1 x (valid) 0x3a-0x3b (1)
0x030|                                 03            |           .    |            [5]: 3 x (valid) 0x3b-0x3c (1)
0x030|                                    04         |            .   |            [6]: 4 x (valid) 0x3c-0x3d (1)
0x030|                                       05      |             .  |            [7]: 5 x (valid) 0x3d-0x3e (1)
0x030|                                          05   |              . |            [8]: 5 x (valid) 0x3e-0x3f (1)
0x030|                                             04|               .|            [9]: 4 x (valid) 0x3f-0x40 (1)
     |                                               |                |    [2]{}: section 0x40-0xf8 (184)
0x040|07                                             |.               |      id: "export_section" (7) 0x40-0x41 (1)
0x040|   b5 01                                       | ..             |      size: 181 (valid) 0x41-0x43 (2)
     |                                               |                |      content{}: 0x43-0xf8 (181)
     |                                               |                |        ex{}: 0x43-0xf8 (181)
0x040|         0a                                    |   .            |          n: 10 (valid) 0x43-0x44 (1)
     |                                               |                |          x[0:10]: 0x44-0xf8 (180)
     |                                               |                |            [0]{}: ex 0x44-0x4f (11)
     |                                               |                |              nm{}: 0x44-0x4d (9)
0x040|            08                                 |    .           |                n: 8 (valid) 0x44-0x45 (1)
0x040|               66 33 32 2e 73 71 72 74         |     f32.sqrt   |                b: "f32.sqrt" 0x45-0x4d (8)
     |                                               |                |              d{}: 0x4d-0x4f (2)
0x040|                                       00      |             .  |                tag: "funcidx" (0x0) 0x4d-0x4e (1)
0x040|                                          00   |              . |                x: 0 (valid) 0x4e-0x4f (1)
     |                                               |                |            [1]{}: ex 0x4f-0x61 (18)
     |                                               |                |              nm{}: 0x4f-0x5f (16)
0x040|                                             0f|               .|                n: 15 (valid) 0x4f-0x50 (1)
0x050|66 33 32 2e 78 6b 63 64 5f 73 71 72 74 5f 32   |f32.xkcd_sqrt_2 |                b: "f32.xkcd_sqrt_2" 0x50-0x5f (15)
     |                                               |                |              d{}: 0x5f-0x61 (2)
0x050|                                             00|               .|                tag: "funcidx" (0x0) 0x5f-0x60 (1)
0x060|01                                             |.               |                x: 1 (valid) 0x60-0x61 (1)
     |                                               |                |            [2]{}: ex 0x61-0x73 (18)
     |                                               |                |              nm{}: 0x61-0x71 (16)
0x060|   0f                                          | .              |                n: 15 (valid) 0x61-0x62 (1)
0x060|      66 33 32 2e 78 6b 63 64 5f 73 71 72 74 5f|  f32.xkcd_sqrt_|                b: "f32.xkcd_sqrt_3" 0x62-0x71 (15)
0x070|33                                             |3               |
     |                                               |                |              d{}: 0x71-0x73 (2)
0x070|   00                                          | .              |                tag: "funcidx" (0x0) 0x71-0x72 (1)
0x070|      02                                       |  .             |                x: 2 (valid) 0x72-0x73 (1)
     |                                               |                |            [3]{}: ex 0x73-0x85 (18)
     |                                               |                |              nm{}: 0x73-0x83 (16)
0x070|         0f                                    |   .            |                n: 15 (valid) 0x73-0x74 (1)
0x070|            66 33 32 2e 78 6b 63 64 5f 73 71 72|    f32.xkcd_sqr|                b: "f32.xkcd_sqrt_5" 0x74-0x83 (15)
0x080|74 5f 35                                       |t_5             |
     |                                               |                |              d{}: 0x83-0x85 (2)
0x080|         00                                    |   .            |                tag: "funcidx" (0x0) 0x83-0x84 (1)
0x080|            03                                 |    .           |                x: 3 (valid) 0x84-0x85 (1)
     |                                               |                |            [4]{}: ex 0x85-0x9e (25)
     |                                               |                |              nm{}: 0x85-0x9c (23)
0x080|               16                              |     .          |                n: 22 (valid) 0x85-0x86 (1)
0x080|                  66 33 32 2e 78 6b 63 64 5f 62|      f32.xkcd_b|                b: "f32.xkcd_better_sqrt_5" 0x86-0x9c (22)
0x090|65 74 74 65 72 5f 73 71 72 74 5f 35            |etter_sqrt_5    |
     |                                               |                |              d{}: 0x9c-0x9e (2)
0x090|                                    00         |            .   |                tag: "funcidx" (0x0) 0x9c-0x9d (1)
0x090|                                       04      |             .  |                x: 4 (valid) 0x9d-0x9e (1)
     |                                               |                |            [5]{}: ex 0x9e-0xa9 (11)
     |                                               |                |              nm{}: 0x9e-0xa7 (9)
0x090|                                          08   |              . |                n: 8 (valid) 0x9e-0x9f (1)
0x090|                                             66|               f|                b: "f64.sqrt" 0x9f-0xa7 (8)
0x0a0|36 34 2e 73 71 72 74                           |64.sqrt         |
     |                                               |                |              d{}: 0xa7-0xa9 (2)
0x0a0|                     00                        |       .        |                tag: "funcidx" (0x0) 0xa7-0xa8 (1)
0x0a0|                        05                     |        .       |                x: 5 (valid) 0xa8-0xa9 (1)
     |                                               |                |            [6]{}: ex 0xa9-0xbb (18)
     |                                               |                |              nm{}: 0xa9-0xb9 (16)
0x0a0|                           0f                  |         .      |                n: 15 (valid) 0xa9-0xaa (1)
0x0a0|                              66 36 34 2e 78 6b|          f64.xk|                b: "f64.xkcd_sqrt_2" 0xaa-0xb9 (15)
0x0b0|63 64 5f 73 71 72 74 5f 32                     |cd_sqrt_2       |
     |                                               |                |              d{}: 0xb9-0xbb (2)
0x0b0|                           00                  |         .      |                tag: "funcidx" (0x0) 0xb9-0xba (1)
0x0b0|                              06               |          .     |                x: 6 (valid) 0xba-0xbb (1)
     |                                               |                |            [7]{}: ex 0xbb-0xcd (18)
     |                                               |                |              nm{}: 0xbb-0xcb (16)
0x0b0|                                 0f            |           .    |                n: 15 (valid) 0xbb-0xbc (1)
0x0b0|                                    66 36 34 2e|            f64.|                b: "f64.xkcd_sqrt_3" 0xbc-0xcb (15)
0x0c0|78 6b 63 64 5f 73 71 72 74 5f 33               |xkcd_sqrt_3     |
     |                                               |                |              d{}: 0xcb-0xcd (2)
0x0c0|                                 00            |           .    |                tag: "funcidx" (0x0) 0xcb-0xcc (1)
0x0c0|                                    07         |            .   |                x: 7 (valid) 0xcc-0xcd (1)
     |                                               |                |            [8]{}: ex 0xcd-0xdf (18)
     |                                               |                |              nm{}: 0xcd-0xdd (16)
0x0c0|                                       0f      |             .  |                n: 15 (valid) 0xcd-0xce (1)
0x0c0|                                          66 36|              f6|                b: "f64.xkcd_sqrt_5" 0xce-0xdd (15)
0x0d0|34 2e 78 6b 63 64 5f 73 71 72 74 5f 35         |4.xkcd_sqrt_5   |
     |                                               |                |              d{}: 0xdd-0xdf (2)
0x0d0|                                       00      |             .  |                tag: "funcidx" (0x0) 0xdd-0xde (1)
0x0d0|                                          08   |              . |                x: 8 (valid) 0xde-0xdf (1)
     |                                               |                |            [9]{}: ex 0xdf-0xf8 (25)
     |                                               |                |              nm{}: 0xdf-0xf6 (23)
0x0d0|                                             16|               .|                n: 22 (valid) 0xdf-0xe0 (1)
0x0e0|66 36 34 2e 78 6b 63 64 5f 62 65 74 74 65 72 5f|f64.xkcd_better_|                b: "f64.xkcd_better_sqrt_5" 0xe0-0xf6 (22)
0x0f0|73 71 72 74 5f 35                              |sqrt_5          |
     |                                               |                |              d{}: 0xf6-0xf8 (2)
0x0f0|                  00                           |      .         |                tag: "funcidx" (0x0) 0xf6-0xf7 (1)
0x0f0|                     09                        |       .        |                x: 9 (valid) 0xf7-0xf8 (1)
     |                                               |                |    [3]{}: section 0xf8-0x184 (140)
0x0f0|                        0a                     |        .       |      id: "code_section" (10) 0xf8-0xf9 (1)
0x0f0|                           89 01               |         ..     |      size: 137 (valid) 0xf9-0xfb (2)
     |                                               |                |      content{}: 0xfb-0x184 (137)
     |                                               |                |        code{}: 0xfb-0x184 (137)
0x0f0|                                 0a            |           .    |          n: 10 (valid) 0xfb-0xfc (1)
     |                                               |                |          x[0:10]: 0xfc-0x184 (136)
     |                                               |                |            [0]{}: code 0xfc-0x102 (6)
0x0f0|                                    05         |            .   |              size: 5 (valid) 0xfc-0xfd (1)
     |                                               |                |              code{}: 0xfd-0x102 (5)
     |                                               |                |                t{}: 0xfd-0xfe (1)
0x0f0|                                       00      |             .  |                  n: 0 (valid) 0xfd-0xfe (1)
     |                                               |                |                  x[0:0]: 0xfe-0xfe (0)
     |                                               |                |                e[0:3]: 0xfe-0x102 (4)
     |                                               |                |                  [0]{}: in 0xfe-0x100 (2)
0x0f0|                                          20   |                |                    opcode: "local.get" (0x20) 0xfe-0xff (1)
0x0f0|                                             00|               .|                    x: 0 (valid) 0xff-0x100 (1)
     |                                               |                |                  [1]{}: in 0x100-0x101 (1)
0x100|91                                             |.               |                    opcode: "f32.sqrt" (0x91) 0x100-0x101 (1)
     |                                               |                |                  [2]{}: in 0x101-0x102 (1)
0x100|   0b                                          | .              |                    opcode: "end" (0xb) 0x101-0x102 (1)
     |                                               |                |            [1]{}: code 0x102-0x113 (17)
0x100|      10                                       |  .             |              size: 16 (valid) 0x102-0x103 (1)
     |                                               |                |              code{}: 0x103-0x113 (16)
     |                                               |                |                t{}: 0x103-0x104 (1)
0x100|         00                                    |   .            |                  n: 0 (valid) 0x103-0x104 (1)
     |                                               |                |                  x[0:0]: 0x104-0x104 (0)
     |                                               |                |                e[0:10]: 0x104-0x113 (15)
     |                                               |                |                  [0]{}: in 0x104-0x106 (2)
0x100|            20                                 |                |                    opcode: "local.get" (0x20) 0x104-0x105 (1)
0x100|               00                              |     .          |                    x: 0 (valid) 0x105-0x106 (1)
     |                                               |                |                  [1]{}: in 0x106-0x108 (2)
0x100|                  20                           |                |                    opcode: "local.get" (0x20) 0x106-0x107 (1)
0x100|                     01                        |       .        |                    x: 1 (valid) 0x107-0x108 (1)
     |                                               |                |                  [2]{}: in 0x108-0x109 (1)
0x100|                        95                     |        .       |                    opcode: "f32.div" (0x95) 0x108-0x109 (1)
     |                                               |                |                  [3]{}: in 0x109-0x10b (2)
0x100|                           20                  |                |                    opcode: "local.get" (0x20) 0x109-0x10a (1)
0x100|                              02               |          .     |                    x: 2 (valid) 0x10a-0x10b (1)
     |                                               |                |                  [4]{}: in 0x10b-0x10d (2)
0x100|                                 20            |                |                    opcode: "local.get" (0x20) 0x10b-0x10c (1)
0x100|                                    03         |            .   |                    x: 3 (valid) 0x10c-0x10d (1)
     |                                               |                |                  [5]{}: in 0x10d-0x10f (2)
0x100|                                       20      |                |                    opcode: "local.get" (0x20) 0x10d-0x10e (1)
0x100|                                          02   |              . |                    x: 2 (valid) 0x10e-0x10f (1)
     |                                               |                |                  [6]{}: in 0x10f-0x110 (1)
0x100|                                             93|               .|                    opcode: "f32.sub" (0x93) 0x10f-0x110 (1)
     |                                               |                |                  [7]{}: in 0x110-0x111 (1)
0x110|95                                             |.               |                    opcode: "f32.div" (0x95) 0x110-0x111 (1)
     |                                               |                |                  [8]{}: in 0x111-0x112 (1)
0x110|   92                                          | .              |                    opcode: "f32.add" (0x92) 0x111-0x112 (1)
     |                                               |                |                  [9]{}: in 0x112-0x113 (1)
0x110|      0b                                       |  .             |                    opcode: "end" (0xb) 0x112-0x113 (1)
     |                                               |                |            [2]{}: code 0x113-0x11e (11)
0x110|         0a                                    |   .            |              size: 10 (valid) 0x113-0x114 (1)
     |                                               |                |              code{}: 0x114-0x11e (10)
     |                                               |                |                t{}: 0x114-0x115 (1)
0x110|            00                                 |    .           |                  n: 0 (valid) 0x114-0x115 (1)
     |                                               |                |                  x[0:0]: 0x115-0x115 (0)
     |                                               |                |                e[0:6]: 0x115-0x11e (9)
     |                                               |                |                  [0]{}: in 0x115-0x117 (2)
0x110|               20                              |                |                    opcode: "local.get" (0x20) 0x115-0x116 (1)
0x110|                  00                           |      .         |                    x: 0 (valid) 0x116-0x117 (1)
     |                                               |                |                  [1]{}: in 0x117-0x119 (2)
0x110|                     20                        |                |                    opcode: "local.get" (0x20) 0x117-0x118 (1)
0x110|                        01                     |        .       |                    x: 1 (valid) 0x118-0x119 (1)
     |                                               |                |                  [2]{}: in 0x119-0x11a (1)
0x110|                           94                  |         .      |                    opcode: "f32.mul" (0x94) 0x119-0x11a (1)
     |                                               |                |                  [3]{}: in 0x11a-0x11c (2)
0x110|                              20               |                |                    opcode: "local.get" (0x20) 0x11a-0x11b (1)
0x110|                                 02            |           .    |                    x: 2 (valid) 0x11b-0x11c (1)
     |                                               |                |                  [4]{}: in 0x11c-0x11d (1)
0x110|                                    95         |            .   |                    opcode: "f32.div" (0x95) 0x11c-0x11d (1)
     |                                               |                |                  [5]{}: in 0x11d-0x11e (1)
0x110|                                       0b      |             .  |                    opcode: "end" (0xb) 0x11d-0x11e (1)
     |                                               |                |            [3]{}: code 0x11e-0x12c (14)
0x110|                                          0d   |              . |              size: 13 (valid) 0x11e-0x11f (1)
     |                                               |                |              code{}: 0x11f-0x12c (13)
     |                                               |                |                t{}: 0x11f-0x120 (1)
0x110|                                             00|               .|                  n: 0 (valid) 0x11f-0x120 (1)
     |                                               |                |                  x[0:0]: 0x120-0x120 (0)
     |                                               |                |                e[0:8]: 0x120-0x12c (12)
     |                                               |                |                  [0]{}: in 0x120-0x122 (2)
0x120|20                                             |                |                    opcode: "local.get" (0x20) 0x120-0x121 (1)
0x120|   00                                          | .              |                    x: 0 (valid) 0x121-0x122 (1)
     |                                               |                |                  [1]{}: in 0x122-0x124 (2)
0x120|      20                                       |                |                    opcode: "local.get" (0x20) 0x122-0x123 (1)
0x120|         01                                    |   .            |                    x: 1 (valid) 0x123-0x124 (1)
     |                                               |                |                  [2]{}: in 0x124-0x125 (1)
0x120|            95                                 |    .           |                    opcode: "f32.div" (0x95) 0x124-0x125 (1)
     |                                               |                |                  [3]{}: in 0x125-0x127 (2)
0x120|               20                              |                |                    opcode: "local.get" (0x20) 0x125-0x126 (1)
0x120|                  02                           |      .         |                    x: 2 (valid) 0x126-0x127 (1)
     |                                               |                |                  [4]{}: in 0x127-0x129 (2)
0x120|                     20                        |                |                    opcode: "local.get" (0x20) 0x127-0x128 (1)
0x120|                        00                     |        .       |                    x: 0 (valid) 0x128-0x129 (1)
     |                                               |                |                  [5]{}: in 0x129-0x12a (1)
0x120|                           95                  |         .      |                    opcode: "f32.div" (0x95) 0x129-0x12a (1)
     |                                               |                |                  [6]{}: in 0x12a-0x12b (1)
0x120|                              92               |          .     |                    opcode: "f32.add" (0x92) 0x12a-0x12b (1)
     |                                               |                |                  [7]{}: in 0x12b-0x12c (1)
0x120|                                 0b            |           .    |                    opcode: "end" (0xb) 0x12b-0x12c (1)
     |                                               |                |            [4]{}: code 0x12c-0x140 (20)
0x120|                                    13         |            .   |              size: 19 (valid) 0x12c-0x12d (1)
     |                                               |                |              code{}: 0x12d-0x140 (19)
     |                                               |                |                t{}: 0x12d-0x12e (1)
0x120|                                       00      |             .  |                  n: 0 (valid) 0x12d-0x12e (1)
     |                                               |                |                  x[0:0]: 0x12e-0x12e (0)
     |                                               |                |                e[0:12]: 0x12e-0x140 (18)
     |                                               |                |                  [0]{}: in 0x12e-0x130 (2)
0x120|                                          20   |                |                    opcode: "local.get" (0x20) 0x12e-0x12f (1)
0x120|                                             00|               .|                    x: 0 (valid) 0x12f-0x130 (1)
     |                                               |                |                  [1]{}: in 0x130-0x132 (2)
0x130|20                                             |                |                    opcode: "local.get" (0x20) 0x130-0x131 (1)
0x130|   01                                          | .              |                    x: 1 (valid) 0x131-0x132 (1)
     |                                               |                |                  [2]{}: in 0x132-0x134 (2)
0x130|      20                                       |                |                    opcode: "local.get" (0x20) 0x132-0x133 (1)
0x130|         02                                    |   .            |                    x: 2 (valid) 0x133-0x134 (1)
     |                                               |                |                  [3]{}: in 0x134-0x135 (1)
0x130|            94                                 |    .           |                    opcode: "f32.mul" (0x94) 0x134-0x135 (1)
     |                                               |                |                  [4]{}: in 0x135-0x136 (1)
0x130|               92                              |     .          |                    opcode: "f32.add" (0x92) 0x135-0x136 (1)
     |                                               |                |                  [5]{}: in 0x136-0x138 (2)
0x130|                  20                           |                |                    opcode: "local.get" (0x20) 0x136-0x137 (1)
0x130|                     03                        |       .        |                    x: 3 (valid) 0x137-0x138 (1)
     |                                               |                |                  [6]{}: in 0x138-0x13a (2)
0x130|                        20                     |                |                    opcode: "local.get" (0x20) 0x138-0x139 (1)
0x130|                           01                  |         .      |                    x: 1 (valid) 0x139-0x13a (1)
     |                                               |                |                  [7]{}: in 0x13a-0x13c (2)
0x130|                              20               |                |                    opcode: "local.get" (0x20) 0x13a-0x13b (1)
0x130|                                 02            |           .    |                    x: 2 (valid) 0x13b-0x13c (1)
     |                                               |                |                  [8]{}: in 0x13c-0x13d (1)
0x130|                                    94         |            .   |                    opcode: "f32.mul" (0x94) 0x13c-0x13d (1)
     |                                               |                |                  [9]{}: in 0x13d-0x13e (1)
0x130|                                       93      |             .  |                    opcode: "f32.sub" (0x93) 0x13d-0x13e (1)
     |                                               |                |                  [10]{}: in 0x13e-0x13f (1)
0x130|                                          95   |              . |                    opcode: "f32.div" (0x95) 0x13e-0x13f (1)
     |                                               |                |                  [11]{}: in 0x13f-0x140 (1)
0x130|                                             0b|               .|                    opcode: "end" (0xb) 0x13f-0x140 (1)
     |                                               |                |            [5]{}: code 0x140-0x146 (6)
0x140|05                                             |.               |              size: 5 (valid) 0x140-0x141 (1)
     |                                               |                |              code{}: 0x141-0x146 (5)
     |                                               |                |                t{}: 0x141-0x142 (1)
0x140|   00                                          | .              |                  n: 0 (valid) 0x141-0x142 (1)
     |                                               |                |                  x[0:0]: 0x142-0x142 (0)
     |                                               |                |                e[0:3]: 0x142-0x146 (4)
     |                                               |                |                  [0]{}: in 0x142-0x144 (2)
0x140|      20                                       |                |                    opcode: "local.get" (0x20) 0x142-0x143 (1)
0x140|         00                                    |   .            |                    x: 0 (valid) 0x143-0x144 (1)
     |                                               |                |                  [1]{}: in 0x144-0x145 (1)
0x140|            9f                                 |    .           |                    opcode: "f64.sqrt" (0x9f) 0x144-0x145 (1)
     |                                               |                |                  [2]{}: in 0x145-0x146 (1)
0x140|               0b                              |     .          |                    opcode: "end" (0xb) 0x145-0x146 (1)
     |                                               |                |            [6]{}: code 0x146-0x157 (17)
0x140|                  10                           |      .         |              size: 16 (valid) 0x146-0x147 (1)
     |                                               |                |              code{}: 0x147-0x157 (16)
     |                                               |                |                t{}: 0x147-0x148 (1)
0x140|                     00                        |       .        |                  n: 0 (valid) 0x147-0x148 (1)
     |                                               |                |                  x[0:0]: 0x148-0x148 (0)
     |                                               |                |                e[0:10]: 0x148-0x157 (15)
     |                                               |                |                  [0]{}: in 0x148-0x14a (2)
0x140|                        20                     |                |                    opcode: "local.get" (0x20) 0x148-0x149 (1)
0x140|                           00                  |         .      |                    x: 0 (valid) 0x149-0x14a (1)
     |                                               |                |                  [1]{}: in 0x14a-0x14c (2)
0x140|                              20               |                |                    opcode: "local.get" (0x20) 0x14a-0x14b (1)
0x140|                                 01            |           .    |                    x: 1 (valid) 0x14b-0x14c (1)
     |                                               |                |                  [2]{}: in 0x14c-0x14d (1)
0x140|                                    a3         |            .   |                    opcode: "f64.div" (0xa3) 0x14c-0x14d (1)
     |                                               |                |                  [3]{}: in 0x14d-0x14f (2)
0x140|                                       20      |                |                    opcode: "local.get" (0x20) 0x14d-0x14e (1)
0x140|                                          02   |              . |                    x: 2 (valid) 0x14e-0x14f (1)
     |                                               |                |                  [4]{}: in 0x14f-0x151 (2)
0x140|                                             20|                |                    opcode: "local.get" (0x20) 0x14f-0x150 (1)
0x150|03                                             |.               |                    x: 3 (valid) 0x150-0x151 (1)
     |                                               |                |                  [5]{}: in 0x151-0x153 (2)
0x150|   20                                          |                |                    opcode: "local.get" (0x20) 0x151-0x152 (1)
0x150|      02                                       |  .             |                    x: 2 (valid) 0x152-0x153 (1)
     |                                               |                |                  [6]{}: in 0x153-0x154 (1)
0x150|         a1                                    |   .            |                    opcode: "f64.sub" (0xa1) 0x153-0x154 (1)
     |                                               |                |                  [7]{}: in 0x154-0x155 (1)
0x150|            a3                                 |    .           |                    opcode: "f64.div" (0xa3) 0x154-0x155 (1)
     |                                               |                |                  [8]{}: in 0x155-0x156 (1)
0x150|               a0                              |     .          |                    opcode: "f64.add" (0xa0) 0x155-0x156 (1)
     |                                               |                |                  [9]{}: in 0x156-0x157 (1)
0x150|                  0b                           |      .         |                    opcode: "end" (0xb) 0x156-0x157 (1)
     |                                               |                |            [7]{}: code 0x157-0x162 (11)
0x150|                     0a                        |       .        |              size: 10 (valid) 0x157-0x158 (1)
     |                                               |                |              code{}: 0x158-0x162 (10)
     |                                               |                |                t{}: 0x158-0x159 (1)
0x150|                        00                     |        .       |                  n: 0 (valid) 0x158-0x159 (1)
     |                                               |                |                  x[0:0]: 0x159-0x159 (0)
     |                                               |                |                e[0:6]: 0x159-0x162 (9)
     |                                               |                |                  [0]{}: in 0x159-0x15b (2)
0x150|                           20                  |                |                    opcode: "local.get" (0x20) 0x159-0x15a (1)
0x150|                              00               |          .     |                    x: 0 (valid) 0x15a-0x15b (1)
     |                                               |                |                  [1]{}: in 0x15b-0x15d (2)
0x150|                                 20            |                |                    opcode: "local.get" (0x20) 0x15b-0x15c (1)
0x150|                                    01         |            .   |                    x: 1 (valid) 0x15c-0x15d (1)
     |                                               |                |                  [2]{}: in 0x15d-0x15e (1)
0x150|                                       a2      |             .  |                    opcode: "f64.mul" (0xa2) 0x15d-0x15e (1)
     |                                               |                |                  [3]{}: in 0x15e-0x160 (2)
0x150|                                          20   |                |                    opcode: "local.get" (0x20) 0x15e-0x15f (1)
0x150|                                             02|               .|                    x: 2 (valid) 0x15f-0x160 (1)
     |                                               |                |                  [4]{}: in 0x160-0x161 (1)
0x160|a3                                             |.               |                    opcode: "f64.div" (0xa3) 0x160-0x161 (1)
     |                                               |                |                  [5]{}: in 0x161-0x162 (1)
0x160|   0b                                          | .              |                    opcode: "end" (0xb) 0x161-0x162 (1)
     |                                               |                |            [8]{}: code 0x162-0x170 (14)
0x160|      0d                                       |  .             |              size: 13 (valid) 0x162-0x163 (1)
     |                                               |                |              code{}: 0x163-0x170 (13)
     |                                               |                |                t{}: 0x163-0x164 (1)
0x160|         00                                    |   .            |                  n: 0 (valid) 0x163-0x164 (1)
     |                                               |                |                  x[0:0]: 0x164-0x164 (0)
     |                                               |                |                e[0:8]: 0x164-0x170 (12)
     |                                               |                |                  [0]{}: in 0x164-0x166 (2)
0x160|            20                                 |                |                    opcode: "local.get" (0x20) 0x164-0x165 (1)
0x160|               00                              |     .          |                    x: 0 (valid) 0x165-0x166 (1)
     |                                               |                |                  [1]{}: in 0x166-0x168 (2)
0x160|                  20                           |                |                    opcode: "local.get" (0x20) 0x166-0x167 (1)
0x160|                     01                        |       .        |                    x: 1 (valid) 0x167-0x168 (1)
     |                                               |                |                  [2]{}: in 0x168-0x169 (1)
0x160|                        a3                     |        .       |                    opcode: "f64.div" (0xa3) 0x168-0x169 (1)
     |                                               |                |                  [3]{}: in 0x169-0x16b (2)
0x160|                           20                  |                |                    opcode: "local.get" (0x20) 0x169-0x16a (1)
0x160|                              02               |          .     |                    x: 2 (valid) 0x16a-0x16b (1)
     |                                               |                |                  [4]{}: in 0x16b-0x16d (2)
0x160|                                 20            |                |                    opcode: "local.get" (0x20) 0x16b-0x16c (1)
0x160|                                    00         |            .   |                    x: 0 (valid) 0x16c-0x16d (1)
     |                                               |                |                  [5]{}: in 0x16d-0x16e (1)
0x160|                                       a3      |             .  |                    opcode: "f64.div" (0xa3) 0x16d-0x16e (1)
     |                                               |                |                  [6]{}: in 0x16e-0x16f (1)
0x160|                                          a0   |              . |                    opcode: "f64.add" (0xa0) 0x16e-0x16f (1)
     |                                               |                |                  [7]{}: in 0x16f-0x170 (1)
0x160|                                             0b|               .|                    opcode: "end" (0xb) 0x16f-0x170 (1)
     |                                               |                |            [9]{}: code 0x170-0x184 (20)
0x170|13                                             |.               |              size: 19 (valid) 0x170-0x171 (1)
     |                                               |                |              code{}: 0x171-0x184 (19)
     |                                               |                |                t{}: 0x171-0x172 (1)
0x170|   00                                          | .              |                  n: 0 (valid) 0x171-0x172 (1)
     |                                               |                |                  x[0:0]: 0x172-0x172 (0)
     |                                               |                |                e[0:12]: 0x172-0x184 (18)
     |                                               |                |                  [0]{}: in 0x172-0x174 (2)
0x170|      20                                       |                |                    opcode: "local.get" (0x20) 0x172-0x173 (1)
0x170|         00                                    |   .            |                    x: 0 (valid) 0x173-0x174 (1)
     |                                               |                |                  [1]{}: in 0x174-0x176 (2)
0x170|            20                                 |                |                    opcode: "local.get" (0x20) 0x174-0x175 (1)
0x170|               01                              |     .          |                    x: 1 (valid) 0x175-0x176 (1)
     |                                               |                |                  [2]{}: in 0x176-0x178 (2)
0x170|                  20                           |                |                    opcode: "local.get" (0x20) 0x176-0x177 (1)
0x170|                     02                        |       .        |                    x: 2 (valid) 0x177-0x178 (1)
     |                                               |                |                  [3]{}: in 0x178-0x179 (1)
0x170|                        a2                     |        .       |                    opcode: "f64.mul" (0xa2) 0x178-0x179 (1)
     |                                               |                |                  [4]{}: in 0x179-0x17a (1)
0x170|                           a0                  |         .      |                    opcode: "f64.add" (0xa0) 0x179-0x17a (1)
     |                                               |                |                  [5]{}: in 0x17a-0x17c (2)
0x170|                              20               |                |                    opcode: "local.get" (0x20) 0x17a-0x17b (1)
0x170|                                 03            |           .    |                    x: 3 (valid) 0x17b-0x17c (1)
     |                                               |                |                  [6]{}: in 0x17c-0x17e (2)
0x170|                                    20         |                |                    opcode: "local.get" (0x20) 0x17c-0x17d (1)
0x170|                                       01      |             .  |                    x: 1 (valid) 0x17d-0x17e (1)
     |                                               |                |                  [7]{}: in 0x17e-0x180 (2)
0x170|                                          20   |                |                    opcode: "local.get" (0x20) 0x17e-0x17f (1)
0x170|                                             02|               .|                    x: 2 (valid) 0x17f-0x180 (1)
     |                                               |                |                  [8]{}: in 0x180-0x181 (1)
0x180|a2                                             |.               |                    opcode: "f64.mul" (0xa2) 0x180-0x181 (1)
     |                                               |                |                  [9]{}: in 0x181-0x182 (1)
0x180|   a1                                          | .              |                    opcode: "f64.sub" (0xa1) 0x181-0x182 (1)
     |                                               |                |                  [10]{}: in 0x182-0x183 (1)
0x180|      a3                                       |  .             |                    opcode: "f64.div" (0xa3) 0x182-0x183 (1)
     |                                               |                |                  [11]{}: in 0x183-0x184 (1)
0x180|         0b|                                   |   .|           |                    opcode: "end" (0xb) 0x183-0x184 (1)
