$ fq -d wasm dv float_misc-0.wasm
     |00 01 02 03 04 05 06 07 08 09 0a 0b 0c 0d 0e 0f|0123456789abcdef|.{}: float_misc-0.wasm (wasm) 0x0-0x242 (578)
0x000|00 61 73 6d                                    |.asm            |  magic: raw bits (valid) 0x0-0x4 (4)
0x000|            01 00 00 00                        |    ....        |  version: 1 0x4-0x8 (4)
     |                                               |                |  sections[0:4]: 0x8-0x242 (570)
     |                                               |                |    [0]{}: section 0x8-0x21 (25)
0x000|                        01                     |        .       |      id: "type_section" (1) 0x8-0x9 (1)
0x000|                           17                  |         .      |      size: 23 (valid) 0x9-0xa (1)
     |                                               |                |      content{}: 0xa-0x21 (23)
     |                                               |                |        ft{}: 0xa-0x21 (23)
0x000|                              04               |          .     |          n: 4 (valid) 0xa-0xb (1)
     |                                               |                |          x[0:4]: 0xb-0x21 (22)
     |                                               |                |            [0]{}: ft 0xb-0x11 (6)
0x000|                                 60            |           `    |              tag: 0x60 (valid) 0xb-0xc (1)
     |                                               |                |              rt1{}: 0xc-0xf (3)
0x000|                                    02         |            .   |                n: 2 (valid) 0xc-0xd (1)
     |                                               |                |                x[0:2]: 0xd-0xf (2)
0x000|                                       7d      |             }  |                  [0]: "f32" (0x7d) t 0xd-0xe (1)
0x000|                                          7d   |              } |                  [1]: "f32" (0x7d) t 0xe-0xf (1)
     |                                               |                |              rt2{}: 0xf-0x11 (2)
0x000|                                             01|               .|                n: 1 (valid) 0xf-0x10 (1)
     |                                               |                |                x[0:1]: 0x10-0x11 (1)
0x010|7d                                             |}               |                  [0]: "f32" (0x7d) t 0x10-0x11 (1)
     |                                               |                |            [1]{}: ft 0x11-0x16 (5)
0x010|   60                                          | `              |              tag: 0x60 (valid) 0x11-0x12 (1)
     |                                               |                |              rt1{}: 0x12-0x14 (2)
0x010|      01                                       |  .             |                n: 1 (valid) 0x12-0x13 (1)
     |                                               |                |                x[0:1]: 0x13-0x14 (1)
0x010|         7d                                    |   }            |                  [0]: "f32" (0x7d) t 0x13-0x14 (1)
     |                                               |                |              rt2{}: 0x14-0x16 (2)
0x010|            01                                 |    .           |                n: 1 (valid) 0x14-0x15 (1)
     |                                               |                |                x[0:1]: 0x15-0x16 (1)
0x010|               7d                              |     }          |                  [0]: "f32" (0x7d) t 0x15-0x16 (1)
     |                                               |                |            [2]{}: ft 0x16-0x1c (6)
0x010|                  60                           |      `         |              tag: 0x60 (valid) 0x16-0x17 (1)
     |                                               |                |              rt1{}: 0x17-0x1a (3)
0x010|                     02                        |       .        |                n: 2 (valid) 0x17-0x18 (1)
     |                                               |                |                x[0:2]: 0x18-0x1a (2)
0x010|                        7c                     |        |       |                  [0]: "f64" (0x7c) t 0x18-0x19 (1)
0x010|                           7c                  |         |      |                  [1]: "f64" (0x7c) t 0x19-0x1a (1)
     |                                               |                |              rt2{}: 0x1a-0x1c (2)
0x010|                              01               |          .     |                n: 1 (valid) 0x1a-0x1b (1)
     |                                               |                |                x[0:1]: 0x1b-0x1c (1)
0x010|                                 7c            |           |    |                  [0]: "f64" (0x7c) t 0x1b-0x1c (1)
     |                                               |                |            [3]{}: ft 0x1c-0x21 (5)
0x010|                                    60         |            `   |              tag: 0x60 (valid) 0x1c-0x1d (1)
     |                                               |                |              rt1{}: 0x1d-0x1f (2)
0x010|                                       01      |             .  |                n: 1 (valid) 0x1d-0x1e (1)
     |                                               |                |                x[0:1]: 0x1e-0x1f (1)
0x010|                                          7c   |              | |                  [0]: "f64" (0x7c) t 0x1e-0x1f (1)
     |                                               |                |              rt2{}: 0x1f-0x21 (2)
0x010|                                             01|               .|                n: 1 (valid) 0x1f-0x20 (1)
     |                                               |                |                x[0:1]: 0x20-0x21 (1)
0x020|7c                                             ||               |                  [0]: "f64" (0x7c) t 0x20-0x21 (1)
     |                                               |                |    [1]{}: section 0x21-0x40 (31)
0x020|   03                                          | .              |      id: "function_section" (3) 0x21-0x22 (1)
0x020|      1d                                       |  .             |      size: 29 (valid) 0x22-0x23 (1)
     |                                               |                |      content{}: 0x23-0x40 (29)
     |                                               |                |        x{}: 0x23-0x40 (29)
0x020|         1c                                    |   .            |          n: 28 (valid) 0x23-0x24 (1)
     |                                               |                |          x[0:28]: 0x24-0x40 (28)
0x020|            00                                 |    .           |            [0]: 0 x (valid) 0x24-0x25 (1)
0x020|               00                              |     .          |            [1]: 0 x (valid) 0x25-0x26 (1)
0x020|                  00                           |      .         |            [2]: 0 x (valid) 0x26-0x27 (1)
0x020|                     00                        |       .        |            [3]: 0 x (valid) 0x27-0x28 (1)
0x020|                        01                     |        .       |            [4]: 1 x (valid) 0x28-0x29 (1)
0x020|                           01                  |         .      |            [5]: 1 x (valid) 0x29-0x2a (1)
0x020|                              01               |          .     |            [6]: 1 x (valid) 0x2a-0x2b (1)
0x020|                                 00            |           .    |            [7]: 0 x (valid) 0x2b-0x2c (1)
0x020|                                    01         |            .   |            [8]: 1 x (valid) 0x2c-0x2d (1)
0x020|                                       01      |             .  |            [9]: 1 x (valid) 0x2d-0x2e (1)
0x020|                                          01   |              . |            [10]: 1 x (valid) 0x2e-0x2f (1)
0x020|                                             01|               .|            [11]: 1 x (valid) 0x2f-0x30 (1)
0x030|00                                             |.               |            [12]: 0 x (valid) 0x30-0x31 (1)
0x030|   00                                          | .              |            [13]: 0 x (valid) 0x31-0x32 (1)
0x030|      02                                       |  .             |            [14]: 2 x (valid) 0x32-0x33 (1)
0x030|         02                                    |   .            |            [15]: 2 x (valid) 0x33-0x34 (1)
0x030|            02                                 |    .           |            [16]: 2 x (valid) 0x34-0x35 (1)
0x030|               02                              |     .          |            [17]: 2 x (valid) 0x35-0x36 (1)
0x030|                  03                           |      .         |            [18]: 3 x (valid) 0x36-0x37 (1)
0x030|                     03                        |       .        |            [19]: 3 x (valid) 0x37-0x38 (1)
0x030|                        03                     |        .       |            [20]: 3 x (valid) 0x38-0x39 (1)
0x030|                           02                  |         .      |            [21]: 2 x (valid) 0x39-0x3a (1)
0x030|                              03               |          .     |            [22]: 3 x (valid) 0x3a-0x3b (1)
0x030|                                 03            |           .    |            [23]: 3 x (valid) 0x3b-0x3c (1)
0x030|                                    03         |            .   |            [24]: 3 x (valid) 0x3c-0x3d (1)
0x030|                                       03      |             .  |            [25]: 3 x (valid) 0x3d-0x3e (1)
0x030|                                          02   |              . |            [26]: 2 x (valid) 0x3e-0x3f (1)
0x030|                                             02|               .|            [27]: 2 x (valid) 0x3f-0x40 (1)
     |                                               |                |    [2]{}: section 0x40-0x17a (314)
0x040|07                                             |.               |      id: "export_section" (7) 0x40-0x41 (1)
0x040|   b7 02                                       | ..             |      size: 311 (valid) 0x41-0x43 (2)
     |                                               |                |      content{}: 0x43-0x17a (311)
     |                                               |                |        ex{}: 0x43-0x17a (311)
0x040|         1c                                    |   .            |          n: 28 (valid) 0x43-0x44 (1)
     |                                               |                |          x[0:28]: 0x44-0x17a (310)
     |                                               |                |            [0]{}: ex 0x44-0x4e (10)
     |                                               |                |              nm{}: 0x44-0x4c (8)
0x040|            07                                 |    .           |                n: 7 (valid) 0x44-0x45 (1)
0x040|               66 33 32 2e 61 64 64            |     f32.add    |                b: "f32.add" 0x45-0x4c (7)
     |                                               |                |              d{}: 0x4c-0x4e (2)
0x040|                                    00         |            .   |                tag: "funcidx" (0x0) 0x4c-0x4d (1)
0x040|                                       00      |             .  |                x: 0 (valid) 0x4d-0x4e (1)
     |                                               |                |            [1]{}: ex 0x4e-0x58 (10)
     |                                               |                |              nm{}: 0x4e-0x56 (8)
0x040|                                          07   |              . |                n: 7 (valid) 0x4e-0x4f (1)
0x040|                                             66|               f|                b: "f32.sub" 0x4f-0x56 (7)
0x050|33 32 2e 73 75 62                              |32.sub          |
     |                                               |                |              d{}: 0x56-0x58 (2)
0x050|                  00                           |      .         |                tag: "funcidx" (0x0) 0x56-0x57 (1)
0x050|                     01                        |       .        |                x: 1 (valid) 0x57-0x58 (1)
     |                                               |                |            [2]{}: ex 0x58-0x62 (10)
     |                                               |                |              nm{}: 0x58-0x60 (8)
0x050|                        07                     |        .       |                n: 7 (valid) 0x58-0x59 (1)
0x050|                           66 33 32 2e 6d 75 6c|         f32.mul|                b: "f32.mul" 0x59-0x60 (7)
     |                                               |                |              d{}: 0x60-0x62 (2)
0x060|00                                             |.               |                tag: "funcidx" (0x0) 0x60-0x61 (1)
0x060|   02                                          | .              |                x: 2 (valid) 0x61-0x62 (1)
     |                                               |                |            [3]{}: ex 0x62-0x6c (10)
     |                                               |                |              nm{}: 0x62-0x6a (8)
0x060|      07                                       |  .             |                n: 7 (valid) 0x62-0x63 (1)
0x060|         66 33 32 2e 64 69 76                  |   f32.div      |                b: "f32.div" 0x63-0x6a (7)
     |                                               |                |              d{}: 0x6a-0x6c (2)
0x060|                              00               |          .     |                tag: "funcidx" (0x0) 0x6a-0x6b (1)
0x060|                                 03            |           .    |                x: 3 (valid) 0x6b-0x6c (1)
     |                                               |                |            [4]{}: ex 0x6c-0x77 (11)
     |                                               |                |              nm{}: 0x6c-0x75 (9)
0x060|                                    08         |            .   |                n: 8 (valid) 0x6c-0x6d (1)
0x060|                                       66 33 32|             f32|                b: "f32.sqrt" 0x6d-0x75 (8)
0x070|2e 73 71 72 74                                 |.sqrt           |
     |                                               |                |              d{}: 0x75-0x77 (2)
0x070|               00                              |     .          |                tag: "funcidx" (0x0) 0x75-0x76 (1)
0x070|                  04                           |      .         |                x: 4 (valid) 0x76-0x77 (1)
     |                                               |                |            [5]{}: ex 0x77-0x81 (10)
     |                                               |                |              nm{}: 0x77-0x7f (8)
0x070|                     07                        |       .        |                n: 7 (valid) 0x77-0x78 (1)
0x070|                        66 33 32 2e 61 62 73   |        f32.abs |                b: "f32.abs" 0x78-0x7f (7)
     |                                               |                |              d{}: 0x7f-0x81 (2)
0x070|                                             00|               .|                tag: "funcidx" (0x0) 0x7f-0x80 (1)
0x080|05                                             |.               |                x: 5 (valid) 0x80-0x81 (1)
     |                                               |                |            [6]{}: ex 0x81-0x8b (10)
     |                                               |                |              nm{}: 0x81-0x89 (8)
0x080|   07                                          | .              |                n: 7 (valid) 0x81-0x82 (1)
0x080|      66 33 32 2e 6e 65 67                     |  f32.neg       |                b: "f32.neg" 0x82-0x89 (7)
     |                                               |                |              d{}: 0x89-0x8b (2)
0x080|                           00                  |         .      |                tag: "funcidx" (0x0) 0x89-0x8a (1)
0x080|                              06               |          .     |                x: 6 (valid) 0x8a-0x8b (1)
     |                                               |                |            [7]{}: ex 0x8b-0x9a (15)
     |                                               |                |              nm{}: 0x8b-0x98 (13)
0x080|                                 0c            |           .    |                n: 12 (valid) 0x8b-0x8c (1)
0x080|                                    66 33 32 2e|            f32.|                b: "f32.copysign" 0x8c-0x98 (12)
0x090|63 6f 70 79 73 69 67 6e                        |copysign        |
     |                                               |                |              d{}: 0x98-0x9a (2)
0x090|                        00                     |        .       |                tag: "funcidx" (0x0) 0x98-0x99 (1)
0x090|                           07                  |         .      |                x: 7 (valid) 0x99-0x9a (1)
     |                                               |                |            [8]{}: ex 0x9a-0xa5 (11)
     |                                               |                |              nm{}: 0x9a-0xa3 (9)
0x090|                              08               |          .     |                n: 8 (valid) 0x9a-0x9b (1)
0x090|                                 66 33 32 2e 63|           f32.c|                b: "f32.ceil" 0x9b-0xa3 (8)
0x0a0|65 69 6c                                       |eil             |
     |                                               |                |              d{}: 0xa3-0xa5 (2)
0x0a0|         00                                    |   .            |                tag: "funcidx" (0x0) 0xa3-0xa4 (1)
0x0a0|            08                                 |    .           |                x: 8 (valid) 0xa4-0xa5 (1)
     |                                               |                |            [9]{}: ex 0xa5-0xb1 (12)
     |                                               |                |              nm{}: 0xa5-0xaf (10)
0x0a0|               09                              |     .          |                n: 9 (valid) 0xa5-0xa6 (1)
0x0a0|                  66 33 32 2e 66 6c 6f 6f 72   |      f32.floor |                b: "f32.floor" 0xa6-0xaf (9)
     |                                               |                |              d{}: 0xaf-0xb1 (2)
0x0a0|                                             00|               .|                tag: "funcidx" (0x0) 0xaf-0xb0 (1)
0x0b0|09                                             |.               |                x: 9 (valid) 0xb0-0xb1 (1)
     |                                               |                |            [10]{}: ex 0xb1-0xbd (12)
     |                                               |                |              nm{}: 0xb1-0xbb (10)
0x0b0|   09                                          | .              |                n: 9 (valid) 0xb1-0xb2 (1)
0x0b0|      66 33 32 2e 74 72 75 6e 63               |  f32.trunc     |                b: "f32.trunc" 0xb2-0xbb (9)
     |                                               |                |              d{}: 0xbb-0xbd (2)
0x0b0|                                 00            |           .    |                tag: "funcidx" (0x0) 0xbb-0xbc (1)
0x0b0|                                    0a         |            .   |                x: 10 (valid) 0xbc-0xbd (1)
     |                                               |                |            [11]{}: ex 0xbd-0xcb (14)
     |                                               |                |              nm{}: 0xbd-0xc9 (12)
0x0b0|                                       0b      |             .  |                n: 11 (valid) 0xbd-0xbe (1)
0x0b0|                                          66 33|              f3|                b: "f32.nearest" 0xbe-0xc9 (11)
0x0c0|32 2e 6e 65 61 72 65 73 74                     |2.nearest       |
     |                                               |                |              d{}: 0xc9-0xcb (2)
0x0c0|                           00                  |         .      |                tag: "funcidx" (0x0) 0xc9-0xca (1)
0x0c0|                              0b               |          .     |                x: 11 (valid) 0xca-0xcb (1)
     |                                               |                |            [12]{}: ex 0xcb-0xd5 (10)
     |                                               |                |              nm{}: 0xcb-0xd3 (8)
0x0c0|                                 07            |           .    |                n: 7 (valid) 0xcb-0xcc (1)
0x0c0|                                    66 33 32 2e|            f32.|                b: "f32.min" 0xcc-0xd3 (7)
0x0d0|6d 69 6e                                       |min             |
     |                                               |                |              d{}: 0xd3-0xd5 (2)
0x0d0|         00                                    |   .            |                tag: "funcidx" (0x0) 0xd3-0xd4 (1)
0x0d0|            0c                                 |    .           |                x: 12 (valid) 0xd4-0xd5 (1)
     |                                               |                |            [13]{}: ex 0xd5-0xdf (10)
     |                                               |                |              nm{}: 0xd5-0xdd (8)
0x0d0|               07                              |     .          |                n: 7 (valid) 0xd5-0xd6 (1)
0x0d0|                  66 33 32 2e 6d 61 78         |      f32.max   |                b: "f32.max" 0xd6-0xdd (7)
     |                                               |                |              d{}: 0xdd-0xdf (2)
0x0d0|                                       00      |             .  |                tag: "funcidx" (0x0) 0xdd-0xde (1)
0x0d0|                                          0d   |              . |                x: 13 (valid) 0xde-0xdf (1)
     |                                               |                |            [14]{}: ex 0xdf-0xe9 (10)
     |                                               |                |              nm{}: 0xdf-0xe7 (8)
0x0d0|                                             07|               .|                n: 7 (valid) 0xdf-0xe0 (1)
0x0e0|66 36 34 2e 61 64 64                           |f64.add         |                b: "f64.add" 0xe0-0xe7 (7)
     |                                               |                |              d{}: 0xe7-0xe9 (2)
0x0e0|                     00                        |       .        |                tag: "funcidx" (0x0) 0xe7-0xe8 (1)
0x0e0|                        0e                     |        .       |                x: 14 (valid) 0xe8-0xe9 (1)
     |                                               |                |            [15]{}: ex 0xe9-0xf3 (10)
     |                                               |                |              nm{}: 0xe9-0xf1 (8)
0x0e0|                           07                  |         .      |                n: 7 (valid) 0xe9-0xea (1)
0x0e0|                              66 36 34 2e 73 75|          f64.su|                b: "f64.sub" 0xea-0xf1 (7)
0x0f0|62                                             |b               |
     |                                               |                |              d{}: 0xf1-0xf3 (2)
0x0f0|   00                                          | .              |                tag: "funcidx" (0x0) 0xf1-0xf2 (1)
0x0f0|      0f                                       |  .             |                x: 15 (valid) 0xf2-0xf3 (1)
     |                                               |                |            [16]{}: ex 0xf3-0xfd (10)
     |                                               |                |              nm{}: 0xf3-0xfb (8)
0x0f0|         07                                    |   .            |                n: 7 (valid) 0xf3-0xf4 (1)
0x0f0|            66 36 34 2e 6d 75 6c               |    f64.mul     |                b: "f64.mul" 0xf4-0xfb (7)
     |                                               |                |              d{}: 0xfb-0xfd (2)
0x0f0|                                 00            |           .    |                tag: "funcidx" (0x0) 0xfb-0xfc (1)
0x0f0|                                    10         |            .   |                x: 16 (valid) 0xfc-0xfd (1)
     |                                               |                |            [17]{}: ex 0xfd-0x107 (10)
     |                                               |                |              nm{}: 0xfd-0x105 (8)
0x0f0|                                       07      |             .  |                n: 7 (valid) 0xfd-0xfe (1)
0x0f0|                                          66 36|              f6|                b: "f64.div" 0xfe-0x105 (7)
0x100|34 2e 64 69 76                                 |4.div           |
     |                                               |                |              d{}: 0x105-0x107 (2)
0x100|               00                              |     .          |                tag: "funcidx" (0x0) 0x105-0x106 (1)
0x100|                  11                           |      .         |                x: 17 (valid) 0x106-0x107 (1)
     |                                               |                |            [18]{}: ex 0x107-0x112 (11)
     |                                               |                |              nm{}: 0x107-0x110 (9)
0x100|                     08                        |       .        |                n: 8 (valid) 0x107-0x108 (1)
0x100|                        66 36 34 2e 73 71 72 74|        f64.sqrt|                b: "f64.sqrt" 0x108-0x110 (8)
     |                                               |                |              d{}: 0x110-0x112 (2)
0x110|00                                             |.               |                tag: "funcidx" (0x0) 0x110-0x111 (1)
0x110|   12                                          | .              |                x: 18 (valid) 0x111-0x112 (1)
     |                                               |                |            [19]{}: ex 0x112-0x11c (10)
     |                                               |                |              nm{}: 0x112-0x11a (8)
0x110|      07                                       |  .             |                n: 7 (valid) 0x112-0x113 (1)
0x110|         66 36 34 2e 61 62 73                  |   f64.abs      |                b: "f64.abs" 0x113-0x11a (7)
     |                                               |                |              d{}: 0x11a-0x11c (2)
0x110|                              00               |          .     |                tag: "funcidx" (0x0) 0x11a-0x11b (1)
0x110|                                 13            |           .    |                x: 19 (valid) 0x11b-0x11c (1)
     |                                               |                |            [20]{}: ex 0x11c-0x126 (10)
     |                                               |                |              nm{}: 0x11c-0x124 (8)
0x110|                                    07         |            .   |                n: 7 (valid) 0x11c-0x11d (1)
0x110|                                       66 36 34|             f64|                b: "f64.neg" 0x11d-0x124 (7)
0x120|2e 6e 65 67                                    |.neg            |
     |                                               |                |              d{}: 0x124-0x126 (2)
0x120|            00                                 |    .           |                tag: "funcidx" (0x0) 0x124-0x125 (1)
0x120|               14                              |     .          |                x: 20 (valid) 0x125-0x126 (1)
     |                                               |                |            [21]{}: ex 0x126-0x135 (15)
     |                                               |                |              nm{}: 0x126-0x133 (13)
0x120|                  0c                           |      .         |                n: 12 (valid) 0x126-0x127 (1)
0x120|                     66 36 34 2e 63 6f 70 79 73|       f64.copys|                b: "f64.copysign" 0x127-0x133 (12)
0x130|69 67 6e                                       |ign             |
     |                                               |                |              d{}: 0x133-0x135 (2)
0x130|         00                                    |   .            |                tag: "funcidx" (0x0) 0x133-0x134 (1)
0x130|            15                                 |    .           |                x: 21 (valid) 0x134-0x135 (1)
     |                                               |                |            [22]{}: ex 0x135-0x140 (11)
     |                                               |                |              nm{}: 0x135-0x13e (9)
0x130|               08                              |     .          |                n: 8 (valid) 0x135-0x136 (1)
0x130|                  66 36 34 2e 63 65 69 6c      |      f64.ceil  |                b: "f64.ceil" 0x136-0x13e (8)
     |                                               |                |              d{}: 0x13e-0x140 (2)
0x130|                                          00   |              . |                tag: "funcidx" (0x0) 0x13e-0x13f (1)
0x130|                                             16|               .|                x: 22 (valid) 0x13f-0x140 (1)
     |                                               |                |            [23]{}: ex 0x140-0x14c (12)
     |                                               |                |              nm{}: 0x140-0x14a (10)
0x140|09                                             |.               |                n: 9 (valid) 0x140-0x141 (1)
0x140|   66 36 34 2e 66 6c 6f 6f 72                  | f64.floor      |                b: "f64.floor" 0x141-0x14a (9)
     |                                               |                |              d{}: 0x14a-0x14c (2)
0x140|                              00               |          .     |                tag: "funcidx" (0x0) 0x14a-0x14b (1)
0x140|                                 17            |           .    |                x: 23 (valid) 0x14b-0x14c (1)
     |                                               |                |            [24]{}: ex 0x14c-0x158 (12)
     |                                               |                |              nm{}: 0x14c-0x156 (10)
0x140|                                    09         |            .   |                n: 9 (valid) 0x14c-0x14d (1)
0x140|                                       66 36 34|             f64|                b: "f64.trunc" 0x14d-0x156 (9)
0x150|2e 74 72 75 6e 63                              |.trunc          |
     |                                               |                |              d{}: 0x156-0x158 (2)
0x150|                  00                           |      .         |                tag: "funcidx" (0x0) 0x156-0x157 (1)
0x150|                     18                        |       .        |                x: 24 (valid) 0x157-0x158 (1)
     |                                               |                |            [25]{}: ex 0x158-0x166 (14)
     |                                               |                |              nm{}: 0x158-0x164 (12)
0x150|                        0b                     |        .       |                n: 11 (valid) 0x158-0x159 (1)
0x150|                           66 36 34 2e 6e 65 61|         f64.nea|                b: "f64.nearest" 0x159-0x164 (11)
0x160|72 65 73 74                                    |rest            |
     |                                               |                |              d{}: 0x164-0x166 (2)
0x160|            00                                 |    .           |                tag: "funcidx" (0x0) 0x164-0x165 (1)
0x160|               19                              |     .          |                x: 25 (valid) 0x165-0x166 (1)
     |                                               |                |            [26]{}: ex 0x166-0x170 (10)
     |                                               |                |              nm{}: 0x166-0x16e (8)
0x160|                  07                           |      .         |                n: 7 (valid) 0x166-0x167 (1)
0x160|                     66 36 34 2e 6d 69 6e      |       f64.min  |                b: "f64.min" 0x167-0x16e (7)
     |                                               |                |              d{}: 0x16e-0x170 (2)
0x160|                                          00   |              . |                tag: "funcidx" (0x0) 0x16e-0x16f (1)
0x160|                                             1a|               .|                x: 26 (valid) 0x16f-0x170 (1)
     |                                               |                |            [27]{}: ex 0x170-0x17a (10)
     |                                               |                |              nm{}: 0x170-0x178 (8)
0x170|07                                             |.               |                n: 7 (valid) 0x170-0x171 (1)
0x170|   66 36 34 2e 6d 61 78                        | f64.max        |                b: "f64.max" 0x171-0x178 (7)
     |                                               |                |              d{}: 0x178-0x17a (2)
0x170|                        00                     |        .       |                tag: "funcidx" (0x0) 0x178-0x179 (1)
0x170|                           1b                  |         .      |                x: 27 (valid) 0x179-0x17a (1)
     |                                               |                |    [3]{}: section 0x17a-0x242 (200)
0x170|                              0a               |          .     |      id: "code_section" (10) 0x17a-0x17b (1)
0x170|                                 c5 01         |           ..   |      size: 197 (valid) 0x17b-0x17d (2)
     |                                               |                |      content{}: 0x17d-0x242 (197)
     |                                               |                |        code{}: 0x17d-0x242 (197)
0x170|                                       1c      |             .  |          n: 28 (valid) 0x17d-0x17e (1)
     |                                               |                |          x[0:28]: 0x17e-0x242 (196)
     |                                               |                |            [0]{}: code 0x17e-0x186 (8)
0x170|                                          07   |              . |              size: 7 (valid) 0x17e-0x17f (1)
     |                                               |                |              code{}: 0x17f-0x186 (7)
     |                                               |                |                t{}: 0x17f-0x180 (1)
0x170|                                             00|               .|                  n: 0 (valid) 0x17f-0x180 (1)
     |                                               |                |                  x[0:0]: 0x180-0x180 (0)
     |                                               |                |                e[0:4]: 0x180-0x186 (6)
     |                                               |                |                  [0]{}: in 0x180-0x182 (2)
0x180|20                                             |                |                    opcode: "local.get" (0x20) 0x180-0x181 (1)
0x180|   00                                          | .              |                    x: 0 (valid) 0x181-0x182 (1)
     |                                               |                |                  [1]{}: in 0x182-0x184 (2)
0x180|      20                                       |                |                    opcode: "local.get" (0x20) 0x182-0x183 (1)
0x180|         01                                    |   .            |                    x: 1 (valid) 0x183-0x184 (1)
     |                                               |                |                  [2]{}: in 0x184-0x185 (1)
0x180|            92                                 |    .           |                    opcode: "f32.add" (0x92) 0x184-0x185 (1)
     |                                               |                |                  [3]{}: in 0x185-0x186 (1)
0x180|               0b                              |     .          |                    opcode: "end" (0xb) 0x185-0x186 (1)
     |                                               |                |            [1]{}: code 0x186-0x18e (8)
0x180|                  07                           |      .         |              size: 7 (valid) 0x186-0x187 (1)
     |                                               |                |              code{}: 0x187-0x18e (7)
     |                                               |                |                t{}: 0x187-0x188 (1)
0x180|                     00                        |       .        |                  n: 0 (valid) 0x187-0x188 (1)
     |                                               |                |                  x[0:0]: 0x188-0x188 (0)
     |                                               |                |                e[0:4]: 0x188-0x18e (6)
     |                                               |                |                  [0]{}: in 0x188-0x18a (2)
0x180|                        20                     |                |                    opcode: "local.get" (0x20) 0x188-0x189 (1)
0x180|                           00                  |         .      |                    x: 0 (valid) 0x189-0x18a (1)
     |                                               |                |                  [1]{}: in 0x18a-0x18c (2)
0x180|                              20               |                |                    opcode: "local.get" (0x20) 0x18a-0x18b (1)
0x180|                                 01            |           .    |                    x: 1 (valid) 0x18b-0x18c (1)
     |                                               |                |                  [2]{}: in 0x18c-0x18d (1)
0x180|                                    93         |            .   |                    opcode: "f32.sub" (0x93) 0x18c-0x18d (1)
     |                                               |                |                  [3]{}: in 0x18d-0x18e (1)
0x180|                                       0b      |             .  |                    opcode: "end" (0xb) 0x18d-0x18e (1)
     |                                               |                |            [2]{}: code 0x18e-0x196 (8)
0x180|                                          07   |              . |              size: 7 (valid) 0x18e-0x18f (1)
     |                                               |                |              code{}: 0x18f-0x196 (7)
     |                                               |                |                t{}: 0x18f-0x190 (1)
0x180|                                             00|               .|                  n: 0 (valid) 0x18f-0x190 (1)
     |                                               |                |                  x[0:0]: 0x190-0x190 (0)
     |                                               |                |                e[0:4]: 0x190-0x196 (6)
     |                                               |                |                  [0]{}: in 0x190-0x192 (2)
0x190|20                                             |                |                    opcode: "local.get" (0x20) 0x190-0x191 (1)
0x190|   00                                          | .              |                    x: 0 (valid) 0x191-0x192 (1)
     |                                               |                |                  [1]{}: in 0x192-0x194 (2)
0x190|      20                                       |                |                    opcode: "local.get" (0x20) 0x192-0x193 (1)
0x190|         01                                    |   .            |                    x: 1 (valid) 0x193-0x194 (1)
     |                                               |                |                  [2]{}: in 0x194-0x195 (1)
0x190|            94                                 |    .           |                    opcode: "f32.mul" (0x94) 0x194-0x195 (1)
     |                                               |                |                  [3]{}: in 0x195-0x196 (1)
0x190|               0b                              |     .          |                    opcode: "end" (0xb) 0x195-0x196 (1)
     |                                               |                |            [3]{}: code 0x196-0x19e (8)
0x190|                  07                           |      .         |              size: 7 (valid) 0x196-0x197 (1)
     |                                               |                |              code{}: 0x197-0x19e (7)
     |                                               |                |                t{}: 0x197-0x198 (1)
0x190|                     00                        |       .        |                  n: 0 (valid) 0x197-0x198 (1)
     |                                               |                |                  x[0:0]: 0x198-0x198 (0)
     |                                               |                |                e[0:4]: 0x198-0x19e (6)
     |                                               |                |                  [0]{}: in 0x198-0x19a (2)
0x190|                        20                     |                |                    opcode: "local.get" (0x20) 0x198-0x199 (1)
0x190|                           00                  |         .      |                    x: 0 (valid) 0x199-0x19a (1)
     |                                               |                |                  [1]{}: in 0x19a-0x19c (2)
0x190|                              20               |                |                    opcode: "local.get" (0x20) 0x19a-0x19b (1)
0x190|                                 01            |           .    |                    x: 1 (valid) 0x19b-0x19c (1)
     |                                               |                |                  [2]{}: in 0x19c-0x19d (1)
0x190|                                    95         |            .   |                    opcode: "f32.div" (0x95) 0x19c-0x19d (1)
     |                                               |                |                  [3]{}: in 0x19d-0x19e (1)
0x190|                                       0b      |             .  |                    opcode: "end" (0xb) 0x19d-0x19e (1)
     |                                               |                |            [4]{}: code 0x19e-0x1a4 (6)
0x190|                                          05   |              . |              size: 5 (valid) 0x19e-0x19f (1)
     |                                               |                |              code{}: 0x19f-0x1a4 (5)
     |                                               |                |                t{}: 0x19f-0x1a0 (1)
0x190|                                             00|               .|                  n: 0 (valid) 0x19f-0x1a0 (1)
     |                                               |                |                  x[0:0]: 0x1a0-0x1a0 (0)
     |                                               |                |                e[0:3]: 0x1a0-0x1a4 (4)
     |                                               |                |                  [0]{}: in 0x1a0-0x1a2 (2)
0x1a0|20                                             |                |                    opcode: "local.get" (0x20) 0x1a0-0x1a1 (1)
0x1a0|   00                                          | .              |                    x: 0 (valid) 0x1a1-0x1a2 (1)
     |                                               |                |                  [1]{}: in 0x1a2-0x1a3 (1)
0x1a0|      91                                       |  .             |                    opcode: "f32.sqrt" (0x91) 0x1a2-0x1a3 (1)
     |                                               |                |                  [2]{}: in 0x1a3-0x1a4 (1)
0x1a0|         0b                                    |   .            |                    opcode: "end" (0xb) 0x1a3-0x1a4 (1)
     |                                               |                |            [5]{}: code 0x1a4-0x1aa (6)
0x1a0|            05                                 |    .           |              size: 5 (valid) 0x1a4-0x1a5 (1)
     |                                               |                |              code{}: 0x1a5-0x1aa (5)
     |                                               |                |                t{}: 0x1a5-0x1a6 (1)
0x1a0|               00                              |     .          |                  n: 0 (valid) 0x1a5-0x1a6 (1)
     |                                               |                |                  x[0:0]: 0x1a6-0x1a6 (0)
     |                                               |                |                e[0:3]: 0x1a6-0x1aa (4)
     |                                               |                |                  [0]{}: in 0x1a6-0x1a8 (2)
0x1a0|                  20                           |                |                    opcode: "local.get" (0x20) 0x1a6-0x1a7 (1)
0x1a0|                     00                        |       .        |                    x: 0 (valid) 0x1a7-0x1a8 (1)
     |                                               |                |                  [1]{}: in 0x1a8-0x1a9 (1)
0x1a0|                        8b                     |        .       |                    opcode: "f32.abs" (0x8b) 0x1a8-0x1a9 (1)
     |                                               |                |                  [2]{}: in 0x1a9-0x1aa (1)
0x1a0|                           0b                  |         .      |                    opcode: "end" (0xb) 0x1a9-0x1aa (1)
     |                                               |                |            [6]{}: code 0x1aa-0x1b0 (6)
0x1a0|                              05               |          .     |              size: 5 (valid) 0x1aa-0x1ab (1)
     |                                               |                |              code{}: 0x1ab-0x1b0 (5)
     |                                               |                |                t{}: 0x1ab-0x1ac (1)
0x1a0|                                 00            |           .    |                  n: 0 (valid) 0x1ab-0x1ac (1)
     |                                               |                |                  x[0:0]: 0x1ac-0x1ac (0)
     |                                               |                |                e[0:3]: 0x1ac-0x1b0 (4)
     |                                               |                |                  [0]{}: in 0x1ac-0x1ae (2)
0x1a0|                                    20         |                |                    opcode: "local.get" (0x20) 0x1ac-0x1ad (1)
0x1a0|                                       00      |             .  |                    x: 0 (valid) 0x1ad-0x1ae (1)
     |                                               |                |                  [1]{}: in 0x1ae-0x1af (1)
0x1a0|                                          8c   |              . |                    opcode: "f32.neg" (0x8c) 0x1ae-0x1af (1)
     |                                               |                |                  [2]{}: in 0x1af-0x1b0 (1)
0x1a0|                                             0b|               .|                    opcode: "end" (0xb) 0x1af-0x1b0 (1)
     |                                               |                |            [7]{}: code 0x1b0-0x1b8 (8)
0x1b0|07                                             |.               |              size: 7 (valid) 0x1b0-0x1b1 (1)
     |                                               |                |              code{}: 0x1b1-0x1b8 (7)
     |                                               |                |                t{}: 0x1b1-0x1b2 (1)
0x1b0|   00                                          | .              |                  n: 0 (valid) 0x1b1-0x1b2 (1)
     |                                               |                |                  x[0:0]: 0x1b2-0x1b2 (0)
     |                                               |                |                e[0:4]: 0x1b2-0x1b8 (6)
     |                                               |                |                  [0]{}: in 0x1b2-0x1b4 (2)
0x1b0|      20                                       |                |                    opcode: "local.get" (0x20) 0x1b2-0x1b3 (1)
0x1b0|         00                                    |   .            |                    x: 0 (valid) 0x1b3-0x1b4 (1)
     |                                               |                |                  [1]{}: in 0x1b4-0x1b6 (2)
0x1b0|            20                                 |                |                    opcode: "local.get" (0x20) 0x1b4-0x1b5 (1)
0x1b0|               01                              |     .          |                    x: 1 (valid) 0x1b5-0x1b6 (1)
     |                                               |                |                  [2]{}: in 0x1b6-0x1b7 (1)
0x1b0|                  98                           |      .         |                    opcode: "f32.copysign" (0x98) 0x1b6-0x1b7 (1)
     |                                               |                |                  [3]{}: in 0x1b7-0x1b8 (1)
0x1b0|                     0b                        |       .        |                    opcode: "end" (0xb) 0x1b7-0x1b8 (1)
     |                                               |                |            [8]{}: code 0x1b8-0x1be (6)
0x1b0|                        05                     |        .       |              size: 5 (valid) 0x1b8-0x1b9 (1)
     |                                               |                |              code{}: 0x1b9-0x1be (5)
     |                                               |                |                t{}: 0x1b9-0x1ba (1)
0x1b0|                           00                  |         .      |                  n: 0 (valid) 0x1b9-0x1ba (1)
     |                                               |                |                  x[0:0]: 0x1ba-0x1ba (0)
     |                                               |                |                e[0:3]: 0x1ba-0x1be (4)
     |                                               |                |                  [0]{}: in 0x1ba-0x1bc (2)
0x1b0|                              20               |                |                    opcode: "local.get" (0x20) 0x1ba-0x1bb (1)
0x1b0|                                 00            |           .    |                    x: 0 (valid) 0x1bb-0x1bc (1)
     |                                               |                |                  [1]{}: in 0x1bc-0x1bd (1)
0x1b0|                                    8d         |            .   |                    opcode: "f32.ceil" (0x8d) 0x1bc-0x1bd (1)
     |                                               |                |                  [2]{}: in 0x1bd-0x1be (1)
0x1b0|                                       0b      |             .  |                    opcode: "end" (0xb) 0x1bd-0x1be (1)
     |                                               |                |            [9]{}: code 0x1be-0x1c4 (6)
0x1b0|                                          05   |              . |              size: 5 (valid) 0x1be-0x1bf (1)
     |                                               |                |              code{}: 0x1bf-0x1c4 (5)
     |                                               |                |                t{}: 0x1bf-0x1c0 (1)
0x1b0|                                             00|               .|                  n: 0 (valid) 0x1bf-0x1c0 (1)
     |                                               |                |                  x[0:0]: 0x1c0-0x1c0 (0)
     |                                               |                |                e[0:3]: 0x1c0-0x1c4 (4)
     |                                               |                |                  [0]{}: in 0x1c0-0x1c2 (2)
0x1c0|20                                             |                |                    opcode: "local.get" (0x20) 0x1c0-0x1c1 (1)
0x1c0|   00                                          | .              |                    x: 0 (valid) 0x1c1-0x1c2 (1)
     |                                               |                |                  [1]{}: in 0x1c2-0x1c3 (1)
0x1c0|      8e                                       |  .             |                    opcode: "f32.floor" (0x8e) 0x1c2-0x1c3 (1)
     |                                               |                |                  [2]{}: in 0x1c3-0x1c4 (1)
0x1c0|         0b                                    |   .            |                    opcode: "end" (0xb) 0x1c3-0x1c4 (1)
     |                                               |                |            [10]{}: code 0x1c4-0x1ca (6)
0x1c0|            05                                 |    .           |              size: 5 (valid) 0x1c4-0x1c5 (1)
     |                                               |                |              code{}: 0x1c5-0x1ca (5)
     |                                               |                |                t{}: 0x1c5-0x1c6 (1)
0x1c0|               00                              |     .          |                  n: 0 (valid) 0x1c5-0x1c6 (1)
     |                                               |                |                  x[0:0]: 0x1c6-0x1c6 (0)
     |                                               |                |                e[0:3]: 0x1c6-0x1ca (4)
     |                                               |                |                  [0]{}: in 0x1c6-0x1c8 (2)
0x1c0|                  20                           |                |                    opcode: "local.get" (0x20) 0x1c6-0x1c7 (1)
0x1c0|                     00                        |       .        |                    x: 0 (valid) 0x1c7-0x1c8 (1)
     |                                               |                |                  [1]{}: in 0x1c8-0x1c9 (1)
0x1c0|                        8f                     |        .       |                    opcode: "f32.trunc" (0x8f) 0x1c8-0x1c9 (1)
     |                                               |                |                  [2]{}: in 0x1c9-0x1ca (1)
0x1c0|                           0b                  |         .      |                    opcode: "end" (0xb) 0x1c9-0x1ca (1)
     |                                               |                |            [11]{}: code 0x1ca-0x1d0 (6)
0x1c0|                              05               |          .     |              size: 5 (valid) 0x1ca-0x1cb (1)
     |                                               |                |              code{}: 0x1cb-0x1d0 (5)
     |                                               |                |                t{}: 0x1cb-0x1cc (1)
0x1c0|                                 00            |           .    |                  n: 0 (valid) 0x1cb-0x1cc (1)
     |                                               |                |                  x[0:0]: 0x1cc-0x1cc (0)
     |                                               |                |                e[0:3]: 0x1cc-0x1d0 (4)
     |                                               |                |                  [0]{}: in 0x1cc-0x1ce (2)
0x1c0|                                    20         |                |                    opcode: "local.get" (0x20) 0x1cc-0x1cd (1)
0x1c0|                                       00      |             .  |                    x: 0 (valid) 0x1cd-0x1ce (1)
     |                                               |                |                  [1]{}: in 0x1ce-0x1cf (1)
0x1c0|                                          90   |              . |                    opcode: "f32.nearest" (0x90) 0x1ce-0x1cf (1)
     |                                               |                |                  [2]{}: in 0x1cf-0x1d0 (1)
0x1c0|                                             0b|               .|                    opcode: "end" (0xb) 0x1cf-0x1d0 (1)
     |                                               |                |            [12]{}: code 0x1d0-0x1d8 (8)
0x1d0|07                                             |.               |              size: 7 (valid) 0x1d0-0x1d1 (1)
     |                                               |                |              code{}: 0x1d1-0x1d8 (7)
     |                                               |                |                t{}: 0x1d1-0x1d2 (1)
0x1d0|   00                                          | .              |                  n: 0 (valid) 0x1d1-0x1d2 (1)
     |                                               |                |                  x[0:0]: 0x1d2-0x1d2 (0)
     |                                               |                |                e[0:4]: 0x1d2-0x1d8 (6)
     |                                               |                |                  [0]{}: in 0x1d2-0x1d4 (2)
0x1d0|      20                                       |                |                    opcode: "local.get" (0x20) 0x1d2-0x1d3 (1)
0x1d0|         00                                    |   .            |                    x: 0 (valid) 0x1d3-0x1d4 (1)
     |                                               |                |                  [1]{}: in 0x1d4-0x1d6 (2)
0x1d0|            20                                 |                |                    opcode: "local.get" (0x20) 0x1d4-0x1d5 (1)
0x1d0|               01                              |     .          |                    x: 1 (valid) 0x1d5-0x1d6 (1)
     |                                               |                |                  [2]{}: in 0x1d6-0x1d7 (1)
0x1d0|                  96                           |      .         |                    opcode: "f32.min" (0x96) 0x1d6-0x1d7 (1)
     |                                               |                |                  [3]{}: in 0x1d7-0x1d8 (1)
0x1d0|                     0b                        |       .        |                    opcode: "end" (0xb) 0x1d7-0x1d8 (1)
     |                                               |                |            [13]{}: code 0x1d8-0x1e0 (8)
0x1d0|                        07                     |        .       |              size: 7 (valid) 0x1d8-0x1d9 (1)
     |                                               |                |              code{}: 0x1d9-0x1e0 (7)
     |                                               |                |                t{}: 0x1d9-0x1da (1)
0x1d0|                           00                  |         .      |                  n: 0 (valid) 0x1d9-0x1da (1)
     |                                               |                |                  x[0:0]: 0x1da-0x1da (0)
     |                                               |                |                e[0:4]: 0x1da-0x1e0 (6)
     |                                               |                |                  [0]{}: in 0x1da-0x1dc (2)
0x1d0|                              20               |                |                    opcode: "local.get" (0x20) 0x1da-0x1db (1)
0x1d0|                                 00            |           .    |                    x: 0 (valid) 0x1db-0x1dc (1)
     |                                               |                |                  [1]{}: in 0x1dc-0x1de (2)
0x1d0|                                    20         |                |                    opcode: "local.get" (0x20) 0x1dc-0x1dd (1)
0x1d0|                                       01      |             .  |                    x: 1 (valid) 0x1dd-0x1de (1)
     |                                               |                |                  [2]{}: in 0x1de-0x1df (1)
0x1d0|                                          97   |              . |                    opcode: "f32.max" (0x97) 0x1de-0x1df (1)
     |                                               |                |                  [3]{}: in 0x1df-0x1e0 (1)
0x1d0|                                             0b|               .|                    opcode: "end" (0xb) 0x1df-0x1e0 (1)
     |                                               |                |            [14]{}: code 0x1e0-0x1e8 (8)
0x1e0|07                                             |.               |              size: 7 (valid) 0x1e0-0x1e1 (1)
     |                                               |                |              code{}: 0x1e1-0x1e8 (7)
     |                                               |                |                t{}: 0x1e1-0x1e2 (1)
0x1e0|   00                                          | .              |                  n: 0 (valid) 0x1e1-0x1e2 (1)
     |                                               |                |                  x[0:0]: 0x1e2-0x1e2 (0)
     |                                               |                |                e[0:4]: 0x1e2-0x1e8 (6)
     |                                               |                |                  [0]{}: in 0x1e2-0x1e4 (2)
0x1e0|      20                                       |                |                    opcode: "local.get" (0x20) 0x1e2-0x1e3 (1)
0x1e0|         00                                    |   .            |                    x: 0 (valid) 0x1e3-0x1e4 (1)
     |                                               |                |                  [1]{}: in 0x1e4-0x1e6 (2)
0x1e0|            20                                 |                |                    opcode: "local.get" (0x20) 0x1e4-0x1e5 (1)
0x1e0|               01                              |     .          |                    x: 1 (valid) 0x1e5-0x1e6 (1)
     |                                               |                |                  [2]{}: in 0x1e6-0x1e7 (1)
0x1e0|                  a0                           |      .         |                    opcode: "f64.add" (0xa0) 0x1e6-0x1e7 (1)
     |                                               |                |                  [3]{}: in 0x1e7-0x1e8 (1)
0x1e0|                     0b                        |       .        |                    opcode: "end" (0xb) 0x1e7-0x1e8 (1)
     |                                               |                |            [15]{}: code 0x1e8-0x1f0 (8)
0x1e0|                        07                     |        .       |              size: 7 (valid) 0x1e8-0x1e9 (1)
     |                                               |                |              code{}: 0x1e9-0x1f0 (7)
     |                                               |                |                t{}: 0x1e9-0x1ea (1)
0x1e0|                           00                  |         .      |                  n: 0 (valid) 0x1e9-0x1ea (1)
     |                                               |                |                  x[0:0]: 0x1ea-0x1ea (0)
     |                                               |                |                e[0:4]: 0x1ea-0x1f0 (6)
     |                                               |                |                  [0]{}: in 0x1ea-0x1ec (2)
0x1e0|                              20               |                |                    opcode: "local.get" (0x20) 0x1ea-0x1eb (1)
0x1e0|                                 00            |           .    |                    x: 0 (valid) 0x1eb-0x1ec (1)
     |                                               |                |                  [1]{}: in 0x1ec-0x1ee (2)
0x1e0|                                    20         |                |                    opcode: "local.get" (0x20) 0x1ec-0x1ed (1)
0x1e0|                                       01      |             .  |                    x: 1 (valid) 0x1ed-0x1ee (1)
     |                                               |                |                  [2]{}: in 0x1ee-0x1ef (1)
0x1e0|                                          a1   |              . |                    opcode: "f64.sub" (0xa1) 0x1ee-0x1ef (1)
     |                                               |                |                  [3]{}: in 0x1ef-0x1f0 (1)
0x1e0|                                             0b|               .|                    opcode: "end" (0xb) 0x1ef-0x1f0 (1)
     |                                               |                |            [16]{}: code 0x1f0-0x1f8 (8)
0x1f0|07                                             |.               |              size: 7 (valid) 0x1f0-0x1f1 (1)
     |                                               |                |              code{}: 0x1f1-0x1f8 (7)
     |                                               |                |                t{}: 0x1f1-0x1f2 (1)
0x1f0|   00                                          | .              |                  n: 0 (valid) 0x1f1-0x1f2 (1)
     |                                               |                |                  x[0:0]: 0x1f2-0x1f2 (0)
     |                                               |                |                e[0:4]: 0x1f2-0x1f8 (6)
     |                                               |                |                  [0]{}: in 0x1f2-0x1f4 (2)
0x1f0|      20                                       |                |                    opcode: "local.get" (0x20) 0x1f2-0x1f3 (1)
0x1f0|         00                                    |   .            |                    x: 0 (valid) 0x1f3-0x1f4 (1)
     |                                               |                |                  [1]{}: in 0x1f4-0x1f6 (2)
0x1f0|            20                                 |                |                    opcode: "local.get" (0x20) 0x1f4-0x1f5 (1)
0x1f0|               01                              |     .          |                    x: 1 (valid) 0x1f5-0x1f6 (1)
     |                                               |                |                  [2]{}: in 0x1f6-0x1f7 (1)
0x1f0|                  a2                           |      .         |                    opcode: "f64.mul" (0xa2) 0x1f6-0x1f7 (1)
     |                                               |                |                  [3]{}: in 0x1f7-0x1f8 (1)
0x1f0|                     0b                        |       .        |                    opcode: "end" (0xb) 0x1f7-0x1f8 (1)
     |                                               |                |            [17]{}: code 0x1f8-0x200 (8)
0x1f0|                        07                     |        .       |              size: 7 (valid) 0x1f8-0x1f9 (1)
     |                                               |                |              code{}: 0x1f9-0x200 (7)
     |                                               |                |                t{}: 0x1f9-0x1fa (1)
0x1f0|                           00                  |         .      |                  n: 0 (valid) 0x1f9-0x1fa (1)
     |                                               |                |                  x[0:0]: 0x1fa-0x1fa (0)
     |                                               |                |                e[0:4]: 0x1fa-0x200 (6)
     |                                               |                |                  [0]{}: in 0x1fa-0x1fc (2)
0x1f0|                              20               |                |                    opcode: "local.get" (0x20) 0x1fa-0x1fb (1)
0x1f0|                                 00            |           .    |                    x: 0 (valid) 0x1fb-0x1fc (1)
     |                                               |                |                  [1]{}: in 0x1fc-0x1fe (2)
0x1f0|                                    20         |                |                    opcode: "local.get" (0x20) 0x1fc-0x1fd (1)
0x1f0|                                       01      |             .  |                    x: 1 (valid) 0x1fd-0x1fe (1)
     |                                               |                |                  [2]{}: in 0x1fe-0x1ff (1)
0x1f0|                                          a3   |              . |                    opcode: "f64.div" (0xa3) 0x1fe-0x1ff (1)
     |                                               |                |                  [3]{}: in 0x1ff-0x200 (1)
0x1f0|                                             0b|               .|                    opcode: "end" (0xb) 0x1ff-0x200 (1)
     |                                               |                |            [18]{}: code 0x200-0x206 (6)
0x200|05                                             |.               |              size: 5 (valid) 0x200-0x201 (1)
     |                                               |                |              code{}: 0x201-0x206 (5)
     |                                               |                |                t{}: 0x201-0x202 (1)
0x200|   00                                          | .              |                  n: 0 (valid) 0x201-0x202 (1)
     |                                               |                |                  x[0:0]: 0x202-0x202 (0)
     |                                               |                |                e[0:3]: 0x202-0x206 (4)
     |                                               |                |                  [0]{}: in 0x202-0x204 (2)
0x200|      20                                       |                |                    opcode: "local.get" (0x20) 0x202-0x203 (1)
0x200|         00                                    |   .            |                    x: 0 (valid) 0x203-0x204 (1)
     |                                               |                |                  [1]{}: in 0x204-0x205 (1)
0x200|            9f                                 |    .           |                    opcode: "f64.sqrt" (0x9f) 0x204-0x205 (1)
     |                                               |                |                  [2]{}: in 0x205-0x206 (1)
0x200|               0b                              |     .          |                    opcode: "end" (0xb) 0x205-0x206 (1)
     |                                               |                |            [19]{}: code 0x206-0x20c (6)
0x200|                  05                           |      .         |              size: 5 (valid) 0x206-0x207 (1)
     |                                               |                |              code{}: 0x207-0x20c (5)
     |                                               |                |                t{}: 0x207-0x208 (1)
0x200|                     00                        |       .        |                  n: 0 (valid) 0x207-0x208 (1)
     |                                               |                |                  x[0:0]: 0x208-0x208 (0)
     |                                               |                |                e[0:3]: 0x208-0x20c (4)
     |                                               |                |                  [0]{}: in 0x208-0x20a (2)
0x200|                        20                     |                |                    opcode: "local.get" (0x20) 0x208-0x209 (1)
0x200|                           00                  |         .      |                    x: 0 (valid) 0x209-0x20a (1)
     |                                               |                |                  [1]{}: in 0x20a-0x20b (1)
0x200|                              99               |          .     |                    opcode: "f64.abs" (0x99) 0x20a-0x20b (1)
     |                                               |                |                  [2]{}: in 0x20b-0x20c (1)
0x200|                                 0b            |           .    |                    opcode: "end" (0xb) 0x20b-0x20c (1)
     |                                               |                |            [20]{}: code 0x20c-0x212 (6)
0x200|                                    05         |            .   |              size: 5 (valid) 0x20c-0x20d (1)
     |                                               |                |              code{}: 0x20d-0x212 (5)
     |                                               |                |                t{}: 0x20d-0x20e (1)
0x200|                                       00      |             .  |                  n: 0 (valid) 0x20d-0x20e (1)
     |                                               |                |                  x[0:0]: 0x20e-0x20e (0)
     |                                               |                |                e[0:3]: 0x20e-0x212 (4)
     |                                               |                |                  [0]{}: in 0x20e-0x210 (2)
0x200|                                          20   |                |                    opcode: "local.get" (0x20) 0x20e-0x20f (1)
0x200|                                             00|               .|                    x: 0 (valid) 0x20f-0x210 (1)
     |                                               |                |                  [1]{}: in 0x210-0x211 (1)
0x210|9a                                             |.               |                    opcode: "f64.neg" (0x9a) 0x210-0x211 (1)
     |                                               |                |                  [2]{}: in 0x211-0x212 (1)
0x210|   0b                                          | .              |                    opcode: "end" (0xb) 0x211-0x212 (1)
     |                                               |                |            [21]{}: code 0x212-0x21a (8)
0x210|      07                                       |  .             |              size: 7 (valid) 0x212-0x213 (1)
     |                                               |                |              code{}: 0x213-0x21a (7)
     |                                               |                |                t{}: 0x213-0x214 (1)
0x210|         00                                    |   .            |                  n: 0 (valid) 0x213-0x214 (1)
     |                                               |                |                  x[0:0]: 0x214-0x214 (0)
     |                                               |                |                e[0:4]: 0x214-0x21a (6)
     |                                               |                |                  [0]{}: in 0x214-0x216 (2)
0x210|            20                                 |                |                    opcode: "local.get" (0x20) 0x214-0x215 (1)
0x210|               00                              |     .          |                    x: 0 (valid) 0x215-0x216 (1)
     |                                               |                |                  [1]{}: in 0x216-0x218 (2)
0x210|                  20                           |                |                    opcode: "local.get" (0x20) 0x216-0x217 (1)
0x210|                     01                        |       .        |                    x: 1 (valid) 0x217-0x218 (1)
     |                                               |                |                  [2]{}: in 0x218-0x219 (1)
0x210|                        a6                     |        .       |                    opcode: "f64.copysign" (0xa6) 0x218-0x219 (1)
     |                                               |                |                  [3]{}: in 0x219-0x21a (1)
0x210|                           0b                  |         .      |                    opcode: "end" (0xb) 0x219-0x21a (1)
     |                                               |                |            [22]{}: code 0x21a-0x220 (6)
0x210|                              05               |          .     |              size: 5 (valid) 0x21a-0x21b (1)
     |                                               |                |              code{}: 0x21b-0x220 (5)
     |                                               |                |                t{}: 0x21b-0x21c (1)
0x210|                                 00            |           .    |                  n: 0 (valid) 0x21b-0x21c (1)
     |                                               |                |                  x[0:0]: 0x21c-0x21c (0)
     |                                               |                |                e[0:3]: 0x21c-0x220 (4)
     |                                               |                |                  [0]{}: in 0x21c-0x21e (2)
0x210|                                    20         |                |                    opcode: "local.get" (0x20) 0x21c-0x21d (1)
0x210|                                       00      |             .  |                    x: 0 (valid) 0x21d-0x21e (1)
     |                                               |                |                  [1]{}: in 0x21e-0x21f (1)
0x210|                                          9b   |              . |                    opcode: "f64.ceil" (0x9b) 0x21e-0x21f (1)
     |                                               |                |                  [2]{}: in 0x21f-0x220 (1)
0x210|                                             0b|               .|                    opcode: "end" (0xb) 0x21f-0x220 (1)
     |                                               |                |            [23]{}: code 0x220-0x226 (6)
0x220|05                                             |.               |              size: 5 (valid) 0x220-0x221 (1)
     |                                               |                |              code{}: 0x221-0x226 (5)
     |                                               |                |                t{}: 0x221-0x222 (1)
0x220|   00                                          | .              |                  n: 0 (valid) 0x221-0x222 (1)
     |                                               |                |                  x[0:0]: 0x222-0x222 (0)
     |                                               |                |                e[0:3]: 0x222-0x226 (4)
     |                                               |                |                  [0]{}: in 0x222-0x224 (2)
0x220|      20                                       |                |                    opcode: "local.get" (0x20) 0x222-0x223 (1)
0x220|         00                                    |   .            |                    x: 0 (valid) 0x223-0x224 (1)
     |                                               |                |                  [1]{}: in 0x224-0x225 (1)
0x220|            9c                                 |    .           |                    opcode: "f64.floor" (0x9c) 0x224-0x225 (1)
     |                                               |                |                  [2]{}: in 0x225-0x226 (1)
0x220|               0b                              |     .          |                    opcode: "end" (0xb) 0x225-0x226 (1)
     |                                               |                |            [24]{}: code 0x226-0x22c (6)
0x220|                  05                           |      .         |              size: 5 (valid) 0x226-0x227 (1)
     |                                               |                |              code{}: 0x227-0x22c (5)
     |                                               |                |                t{}: 0x227-0x228 (1)
0x220|                     00                        |       .        |                  n: 0 (valid) 0x227-0x228 (1)
     |                                               |                |                  x[0:0]: 0x228-0x228 (0)
     |                                               |                |                e[0:3]: 0x228-0x22c (4)
     |                                               |                |                  [0]{}: in 0x228-0x22a (2)
0x220|                        20                     |                |                    opcode: "local.get" (0x20) 0x228-0x229 (1)
0x220|                           00                  |         .      |                    x: 0 (valid) 0x229-0x22a (1)
     |                                               |                |                  [1]{}: in 0x22a-0x22b (1)
0x220|                              9d               |          .     |                    opcode: "f64.trunc" (0x9d) 0x22a-0x22b (1)
     |                                               |                |                  [2]{}: in 0x22b-0x22c (1)
0x220|                                 0b            |           .    |                    opcode: "end" (0xb) 0x22b-0x22c (1)
     |                                               |                |            [25]{}: code 0x22c-0x232 (6)
0x220|                                    05         |            .   |              size: 5 (valid) 0x22c-0x22d (1)
     |                                               |                |              code{}: 0x22d-0x232 (5)
     |                                               |                |                t{}: 0x22d-0x22e (1)
0x220|                                       00      |             .  |                  n: 0 (valid) 0x22d-0x22e (1)
     |                                               |                |                  x[0:0]: 0x22e-0x22e (0)
     |                                               |                |                e[0:3]: 0x22e-0x232 (4)
     |                                               |                |                  [0]{}: in 0x22e-0x230 (2)
0x220|                                          20   |                |                    opcode: "local.get" (0x20) 0x22e-0x22f (1)
0x220|                                             00|               .|                    x: 0 (valid) 0x22f-0x230 (1)
     |                                               |                |                  [1]{}: in 0x230-0x231 (1)
0x230|9e                                             |.               |                    opcode: "f64.nearest" (0x9e) 0x230-0x231 (1)
     |                                               |                |                  [2]{}: in 0x231-0x232 (1)
0x230|   0b                                          | .              |                    opcode: "end" (0xb) 0x231-0x232 (1)
     |                                               |                |            [26]{}: code 0x232-0x23a (8)
0x230|      07                                       |  .             |              size: 7 (valid) 0x232-0x233 (1)
     |                                               |                |              code{}: 0x233-0x23a (7)
     |                                               |                |                t{}: 0x233-0x234 (1)
0x230|         00                                    |   .            |                  n: 0 (valid) 0x233-0x234 (1)
     |                                               |                |                  x[0:0]: 0x234-0x234 (0)
     |                                               |                |                e[0:4]: 0x234-0x23a (6)
     |                                               |                |                  [0]{}: in 0x234-0x236 (2)
0x230|            20                                 |                |                    opcode: "local.get" (0x20) 0x234-0x235 (1)
0x230|               00                              |     .          |                    x: 0 (valid) 0x235-0x236 (1)
     |                                               |                |                  [1]{}: in 0x236-0x238 (2)
0x230|                  20                           |                |                    opcode: "local.get" (0x20) 0x236-0x237 (1)
0x230|                     01                        |       .        |                    x: 1 (valid) 0x237-0x238 (1)
     |                                               |                |                  [2]{}: in 0x238-0x239 (1)
0x230|                        a4                     |        .       |                    opcode: "f64.min" (0xa4) 0x238-0x239 (1)
     |                                               |                |                  [3]{}: in 0x239-0x23a (1)
0x230|                           0b                  |         .      |                    opcode: "end" (0xb) 0x239-0x23a (1)
     |                                               |                |            [27]{}: code 0x23a-0x242 (8)
0x230|                              07               |          .     |              size: 7 (valid) 0x23a-0x23b (1)
     |                                               |                |              code{}: 0x23b-0x242 (7)
     |                                               |                |                t{}: 0x23b-0x23c (1)
0x230|                                 00            |           .    |                  n: 0 (valid) 0x23b-0x23c (1)
     |                                               |                |                  x[0:0]: 0x23c-0x23c (0)
     |                                               |                |                e[0:4]: 0x23c-0x242 (6)
     |                                               |                |                  [0]{}: in 0x23c-0x23e (2)
0x230|                                    20         |                |                    opcode: "local.get" (0x20) 0x23c-0x23d (1)
0x230|                                       00      |             .  |                    x: 0 (valid) 0x23d-0x23e (1)
     |                                               |                |                  [1]{}: in 0x23e-0x240 (2)
0x230|                                          20   |                |                    opcode: "local.get" (0x20) 0x23e-0x23f (1)
0x230|                                             01|               .|                    x: 1 (valid) 0x23f-0x240 (1)
     |                                               |                |                  [2]{}: in 0x240-0x241 (1)
0x240|a5                                             |.               |                    opcode: "f64.max" (0xa5) 0x240-0x241 (1)
     |                                               |                |                  [3]{}: in 0x241-0x242 (1)
0x240|   0b|                                         | .|             |                    opcode: "end" (0xb) 0x241-0x242 (1)
