$ fq -d wasm dv float_exprs-26.wasm
    |00 01 02 03 04 05 06 07 08 09 0a 0b 0c 0d 0e 0f|0123456789abcdef|.{}: float_exprs-26.wasm (wasm) 0x0-0x44.7 (69)
0x00|00 61 73 6d                                    |.asm            |  magic: raw bits (valid) 0x0-0x3.7 (4)
0x00|            01 00 00 00                        |    ....        |  version: 1 0x4-0x7.7 (4)
    |                                               |                |  sections[0:4]: 0x8-0x44.7 (61)
    |                                               |                |    [0]{}: section 0x8-0xf.7 (8)
0x00|                        01                     |        .       |      id: "type section" (1) 0x8-0x8.7 (1)
0x00|                           06                  |         .      |      size: 6 0x9-0x9.7 (1)
    |                                               |                |      content{}: 0xa-0xf.7 (6)
    |                                               |                |        ft{}: 0xa-0xf.7 (6)
0x00|                              01               |          .     |          n: 1 0xa-0xa.7 (1)
    |                                               |                |          x[0:1]: 0xb-0xf.7 (5)
    |                                               |                |            [0]{}: ft 0xb-0xf.7 (5)
0x00|                                 60            |           `    |              tag: 0x60 (valid) 0xb-0xb.7 (1)
    |                                               |                |              rt1{}: 0xc-0xd.7 (2)
0x00|                                    01         |            .   |                n: 1 0xc-0xc.7 (1)
    |                                               |                |                x[0:1]: 0xd-0xd.7 (1)
0x00|                                       7d      |             }  |                  [0]: "f32" (0x7d) t 0xd-0xd.7 (1)
    |                                               |                |              rt2{}: 0xe-0xf.7 (2)
0x00|                                          01   |              . |                n: 1 0xe-0xe.7 (1)
    |                                               |                |                x[0:1]: 0xf-0xf.7 (1)
0x00|                                             7d|               }|                  [0]: "f32" (0x7d) t 0xf-0xf.7 (1)
    |                                               |                |    [1]{}: section 0x10-0x13.7 (4)
0x10|03                                             |.               |      id: "function section" (3) 0x10-0x10.7 (1)
0x10|   02                                          | .              |      size: 2 0x11-0x11.7 (1)
    |                                               |                |      content{}: 0x12-0x13.7 (2)
    |                                               |                |        x{}: 0x12-0x13.7 (2)
0x10|      01                                       |  .             |          n: 1 0x12-0x12.7 (1)
    |                                               |                |          x[0:1]: 0x13-0x13.7 (1)
0x10|         00                                    |   .            |            [0]: 0 x 0x13-0x13.7 (1)
    |                                               |                |    [2]{}: section 0x14-0x36.7 (35)
0x10|            07                                 |    .           |      id: "export section" (7) 0x14-0x14.7 (1)
0x10|               21                              |     !          |      size: 33 0x15-0x15.7 (1)
    |                                               |                |      content{}: 0x16-0x36.7 (33)
    |                                               |                |        ex{}: 0x16-0x36.7 (33)
0x10|                  01                           |      .         |          n: 1 0x16-0x16.7 (1)
    |                                               |                |          x[0:1]: 0x17-0x36.7 (32)
    |                                               |                |            [0]{}: ex 0x17-0x36.7 (32)
    |                                               |                |              nm{}: 0x17-0x34.7 (30)
0x10|                     1d                        |       .        |                n: 29 0x17-0x17.7 (1)
0x10|                        66 33 32 2e 6e 6f 5f 61|        f32.no_a|                b: "f32.no_approximate_reciprocal" 0x18-0x34.7 (29)
0x20|70 70 72 6f 78 69 6d 61 74 65 5f 72 65 63 69 70|pproximate_recip|
0x30|72 6f 63 61 6c                                 |rocal           |
    |                                               |                |              d{}: 0x35-0x36.7 (2)
0x30|               00                              |     .          |                tag: "funcidx" (0x0) 0x35-0x35.7 (1)
0x30|                  00                           |      .         |                x: 0 0x36-0x36.7 (1)
    |                                               |                |    [3]{}: section 0x37-0x44.7 (14)
0x30|                     0a                        |       .        |      id: "code section" (10) 0x37-0x37.7 (1)
0x30|                        0c                     |        .       |      size: 12 0x38-0x38.7 (1)
    |                                               |                |      content{}: 0x39-0x44.7 (12)
    |                                               |                |        code{}: 0x39-0x44.7 (12)
0x30|                           01                  |         .      |          n: 1 0x39-0x39.7 (1)
    |                                               |                |          x[0:1]: 0x3a-0x44.7 (11)
    |                                               |                |            [0]{}: code 0x3a-0x44.7 (11)
0x30|                              0a               |          .     |              size: 10 0x3a-0x3a.7 (1)
    |                                               |                |              code{}: 0x3b-0x44.7 (10)
    |                                               |                |                t{}: 0x3b-0x3b.7 (1)
0x30|                                 00            |           .    |                  n: 0 0x3b-0x3b.7 (1)
    |                                               |                |                  x[0:0]: 0x3c-NA (0)
    |                                               |                |                e[0:4]: 0x3c-0x44.7 (9)
    |                                               |                |                  [0]{}: in 0x3c-0x40.7 (5)
0x30|                                    43         |            C   |                    f32.const: 0x43 (valid) 0x3c-0x3c.7 (1)
0x30|                                       00 00 80|             ...|                    z: 1 0x3d-0x40.7 (4)
0x40|3f                                             |?               |
    |                                               |                |                  [1]{}: in 0x41-0x42.7 (2)
0x40|   20                                          |                |                    local.get: 0x20 (valid) 0x41-0x41.7 (1)
0x40|      00                                       |  .             |                    x: 0 0x42-0x42.7 (1)
    |                                               |                |                  [2]{}: in 0x43-0x43.7 (1)
0x40|         95                                    |   .            |                    f32.div: 0x95 (valid) 0x43-0x43.7 (1)
    |                                               |                |                  [3]{}: in 0x44-0x44.7 (1)
0x40|            0b|                                |    .|          |                    end: 0xb (valid) 0x44-0x44.7 (1)
