$ fq -d wasm dv float_exprs-46.wasm
     |00 01 02 03 04 05 06 07 08 09 0a 0b 0c 0d 0e 0f|0123456789abcdef|.{}: float_exprs-46.wasm (wasm) 0x0-0x1af.7 (432)
0x000|00 61 73 6d                                    |.asm            |  magic: raw bits (valid) 0x0-0x3.7 (4)
0x000|            01 00 00 00                        |    ....        |  version: 1 0x4-0x7.7 (4)
     |                                               |                |  sections[0:4]: 0x8-0x1af.7 (424)
     |                                               |                |    [0]{}: section 0x8-0x14.7 (13)
0x000|                        01                     |        .       |      id: "type section" (1) 0x8-0x8.7 (1)
0x000|                           0b                  |         .      |      size: 11 0x9-0x9.7 (1)
     |                                               |                |      content{}: 0xa-0x14.7 (11)
     |                                               |                |        ft{}: 0xa-0x14.7 (11)
0x000|                              02               |          .     |          n: 2 0xa-0xa.7 (1)
     |                                               |                |          x[0:2]: 0xb-0x14.7 (10)
     |                                               |                |            [0]{}: ft 0xb-0xf.7 (5)
0x000|                                 60            |           `    |              tag: 0x60 (valid) 0xb-0xb.7 (1)
     |                                               |                |              rt1{}: 0xc-0xd.7 (2)
0x000|                                    01         |            .   |                n: 1 0xc-0xc.7 (1)
     |                                               |                |                x[0:1]: 0xd-0xd.7 (1)
0x000|                                       7d      |             }  |                  [0]: "f32" (0x7d) t 0xd-0xd.7 (1)
     |                                               |                |              rt2{}: 0xe-0xf.7 (2)
0x000|                                          01   |              . |                n: 1 0xe-0xe.7 (1)
     |                                               |                |                x[0:1]: 0xf-0xf.7 (1)
0x000|                                             7d|               }|                  [0]: "f32" (0x7d) t 0xf-0xf.7 (1)
     |                                               |                |            [1]{}: ft 0x10-0x14.7 (5)
0x010|60                                             |`               |              tag: 0x60 (valid) 0x10-0x10.7 (1)
     |                                               |                |              rt1{}: 0x11-0x12.7 (2)
0x010|   01                                          | .              |                n: 1 0x11-0x11.7 (1)
     |                                               |                |                x[0:1]: 0x12-0x12.7 (1)
0x010|      7c                                       |  |             |                  [0]: "f64" (0x7c) t 0x12-0x12.7 (1)
     |                                               |                |              rt2{}: 0x13-0x14.7 (2)
0x010|         01                                    |   .            |                n: 1 0x13-0x13.7 (1)
     |                                               |                |                x[0:1]: 0x14-0x14.7 (1)
0x010|            7c                                 |    |           |                  [0]: "f64" (0x7c) t 0x14-0x14.7 (1)
     |                                               |                |    [1]{}: section 0x15-0x1f.7 (11)
0x010|               03                              |     .          |      id: "function section" (3) 0x15-0x15.7 (1)
0x010|                  09                           |      .         |      size: 9 0x16-0x16.7 (1)
     |                                               |                |      content{}: 0x17-0x1f.7 (9)
     |                                               |                |        x{}: 0x17-0x1f.7 (9)
0x010|                     08                        |       .        |          n: 8 0x17-0x17.7 (1)
     |                                               |                |          x[0:8]: 0x18-0x1f.7 (8)
0x010|                        00                     |        .       |            [0]: 0 x 0x18-0x18.7 (1)
0x010|                           00                  |         .      |            [1]: 0 x 0x19-0x19.7 (1)
0x010|                              00               |          .     |            [2]: 0 x 0x1a-0x1a.7 (1)
0x010|                                 00            |           .    |            [3]: 0 x 0x1b-0x1b.7 (1)
0x010|                                    01         |            .   |            [4]: 1 x 0x1c-0x1c.7 (1)
0x010|                                       01      |             .  |            [5]: 1 x 0x1d-0x1d.7 (1)
0x010|                                          01   |              . |            [6]: 1 x 0x1e-0x1e.7 (1)
0x010|                                             01|               .|            [7]: 1 x 0x1f-0x1f.7 (1)
     |                                               |                |    [2]{}: section 0x20-0xfb.7 (220)
0x020|07                                             |.               |      id: "export section" (7) 0x20-0x20.7 (1)
0x020|   d9 01                                       | ..             |      size: 217 0x21-0x22.7 (2)
     |                                               |                |      content{}: 0x23-0xfb.7 (217)
     |                                               |                |        ex{}: 0x23-0xfb.7 (217)
0x020|         08                                    |   .            |          n: 8 0x23-0x23.7 (1)
     |                                               |                |          x[0:8]: 0x24-0xfb.7 (216)
     |                                               |                |            [0]{}: ex 0x24-0x3e.7 (27)
     |                                               |                |              nm{}: 0x24-0x3c.7 (25)
0x020|            18                                 |    .           |                n: 24 0x24-0x24.7 (1)
0x020|               66 33 32 2e 6e 6f 5f 66 6f 6c 64|     f32.no_fold|                b: "f32.no_fold_lt_if_to_abs" 0x25-0x3c.7 (24)
0x030|5f 6c 74 5f 69 66 5f 74 6f 5f 61 62 73         |_lt_if_to_abs   |
     |                                               |                |              d{}: 0x3d-0x3e.7 (2)
0x030|                                       00      |             .  |                tag: "funcidx" (0x0) 0x3d-0x3d.7 (1)
0x030|                                          00   |              . |                x: 0 0x3e-0x3e.7 (1)
     |                                               |                |            [1]{}: ex 0x3f-0x59.7 (27)
     |                                               |                |              nm{}: 0x3f-0x57.7 (25)
0x030|                                             18|               .|                n: 24 0x3f-0x3f.7 (1)
0x040|66 33 32 2e 6e 6f 5f 66 6f 6c 64 5f 6c 65 5f 69|f32.no_fold_le_i|                b: "f32.no_fold_le_if_to_abs" 0x40-0x57.7 (24)
0x050|66 5f 74 6f 5f 61 62 73                        |f_to_abs        |
     |                                               |                |              d{}: 0x58-0x59.7 (2)
0x050|                        00                     |        .       |                tag: "funcidx" (0x0) 0x58-0x58.7 (1)
0x050|                           01                  |         .      |                x: 1 0x59-0x59.7 (1)
     |                                               |                |            [2]{}: ex 0x5a-0x74.7 (27)
     |                                               |                |              nm{}: 0x5a-0x72.7 (25)
0x050|                              18               |          .     |                n: 24 0x5a-0x5a.7 (1)
0x050|                                 66 33 32 2e 6e|           f32.n|                b: "f32.no_fold_gt_if_to_abs" 0x5b-0x72.7 (24)
0x060|6f 5f 66 6f 6c 64 5f 67 74 5f 69 66 5f 74 6f 5f|o_fold_gt_if_to_|
0x070|61 62 73                                       |abs             |
     |                                               |                |              d{}: 0x73-0x74.7 (2)
0x070|         00                                    |   .            |                tag: "funcidx" (0x0) 0x73-0x73.7 (1)
0x070|            02                                 |    .           |                x: 2 0x74-0x74.7 (1)
     |                                               |                |            [3]{}: ex 0x75-0x8f.7 (27)
     |                                               |                |              nm{}: 0x75-0x8d.7 (25)
0x070|               18                              |     .          |                n: 24 0x75-0x75.7 (1)
0x070|                  66 33 32 2e 6e 6f 5f 66 6f 6c|      f32.no_fol|                b: "f32.no_fold_ge_if_to_abs" 0x76-0x8d.7 (24)
0x080|64 5f 67 65 5f 69 66 5f 74 6f 5f 61 62 73      |d_ge_if_to_abs  |
     |                                               |                |              d{}: 0x8e-0x8f.7 (2)
0x080|                                          00   |              . |                tag: "funcidx" (0x0) 0x8e-0x8e.7 (1)
0x080|                                             03|               .|                x: 3 0x8f-0x8f.7 (1)
     |                                               |                |            [4]{}: ex 0x90-0xaa.7 (27)
     |                                               |                |              nm{}: 0x90-0xa8.7 (25)
0x090|18                                             |.               |                n: 24 0x90-0x90.7 (1)
0x090|   66 36 34 2e 6e 6f 5f 66 6f 6c 64 5f 6c 74 5f| f64.no_fold_lt_|                b: "f64.no_fold_lt_if_to_abs" 0x91-0xa8.7 (24)
0x0a0|69 66 5f 74 6f 5f 61 62 73                     |if_to_abs       |
     |                                               |                |              d{}: 0xa9-0xaa.7 (2)
0x0a0|                           00                  |         .      |                tag: "funcidx" (0x0) 0xa9-0xa9.7 (1)
0x0a0|                              04               |          .     |                x: 4 0xaa-0xaa.7 (1)
     |                                               |                |            [5]{}: ex 0xab-0xc5.7 (27)
     |                                               |                |              nm{}: 0xab-0xc3.7 (25)
0x0a0|                                 18            |           .    |                n: 24 0xab-0xab.7 (1)
0x0a0|                                    66 36 34 2e|            f64.|                b: "f64.no_fold_le_if_to_abs" 0xac-0xc3.7 (24)
0x0b0|6e 6f 5f 66 6f 6c 64 5f 6c 65 5f 69 66 5f 74 6f|no_fold_le_if_to|
0x0c0|5f 61 62 73                                    |_abs            |
     |                                               |                |              d{}: 0xc4-0xc5.7 (2)
0x0c0|            00                                 |    .           |                tag: "funcidx" (0x0) 0xc4-0xc4.7 (1)
0x0c0|               05                              |     .          |                x: 5 0xc5-0xc5.7 (1)
     |                                               |                |            [6]{}: ex 0xc6-0xe0.7 (27)
     |                                               |                |              nm{}: 0xc6-0xde.7 (25)
0x0c0|                  18                           |      .         |                n: 24 0xc6-0xc6.7 (1)
0x0c0|                     66 36 34 2e 6e 6f 5f 66 6f|       f64.no_fo|                b: "f64.no_fold_gt_if_to_abs" 0xc7-0xde.7 (24)
0x0d0|6c 64 5f 67 74 5f 69 66 5f 74 6f 5f 61 62 73   |ld_gt_if_to_abs |
     |                                               |                |              d{}: 0xdf-0xe0.7 (2)
0x0d0|                                             00|               .|                tag: "funcidx" (0x0) 0xdf-0xdf.7 (1)
0x0e0|06                                             |.               |                x: 6 0xe0-0xe0.7 (1)
     |                                               |                |            [7]{}: ex 0xe1-0xfb.7 (27)
     |                                               |                |              nm{}: 0xe1-0xf9.7 (25)
0x0e0|   18                                          | .              |                n: 24 0xe1-0xe1.7 (1)
0x0e0|      66 36 34 2e 6e 6f 5f 66 6f 6c 64 5f 67 65|  f64.no_fold_ge|                b: "f64.no_fold_ge_if_to_abs" 0xe2-0xf9.7 (24)
0x0f0|5f 69 66 5f 74 6f 5f 61 62 73                  |_if_to_abs      |
     |                                               |                |              d{}: 0xfa-0xfb.7 (2)
0x0f0|                              00               |          .     |                tag: "funcidx" (0x0) 0xfa-0xfa.7 (1)
0x0f0|                                 07            |           .    |                x: 7 0xfb-0xfb.7 (1)
     |                                               |                |    [3]{}: section 0xfc-0x1af.7 (180)
0x0f0|                                    0a         |            .   |      id: "code section" (10) 0xfc-0xfc.7 (1)
0x0f0|                                       b1 01   |             .. |      size: 177 0xfd-0xfe.7 (2)
     |                                               |                |      content{}: 0xff-0x1af.7 (177)
     |                                               |                |        code{}: 0xff-0x1af.7 (177)
0x0f0|                                             08|               .|          n: 8 0xff-0xff.7 (1)
     |                                               |                |          x[0:8]: 0x100-0x1af.7 (176)
     |                                               |                |            [0]{}: code 0x100-0x113.7 (20)
0x100|13                                             |.               |              size: 19 0x100-0x100.7 (1)
     |                                               |                |              code{}: 0x101-0x113.7 (19)
     |                                               |                |                t{}: 0x101-0x101.7 (1)
0x100|   00                                          | .              |                  n: 0 0x101-0x101.7 (1)
     |                                               |                |                  x[0:0]: 0x102-NA (0)
     |                                               |                |                e[0:5]: 0x102-0x113.7 (18)
     |                                               |                |                  [0]{}: in 0x102-0x103.7 (2)
0x100|      20                                       |                |                    local.get: 0x20 (valid) 0x102-0x102.7 (1)
0x100|         00                                    |   .            |                    x: 0 0x103-0x103.7 (1)
     |                                               |                |                  [1]{}: in 0x104-0x108.7 (5)
0x100|            43                                 |    C           |                    f32.const: 0x43 (valid) 0x104-0x104.7 (1)
0x100|               00 00 00 00                     |     ....       |                    z: 0 0x105-0x108.7 (4)
     |                                               |                |                  [2]{}: in 0x109-0x109.7 (1)
0x100|                           5d                  |         ]      |                    f32.lt: 0x5d (valid) 0x109-0x109.7 (1)
     |                                               |                |                  [3]{}: in 0x10a-0x112.7 (9)
0x100|                              04               |          .     |                    if: 0x4 (valid) 0x10a-0x10a.7 (1)
0x100|                                 7d            |           }    |                    bt: "f32" (125) 0x10b-0x10b.7 (1)
     |                                               |                |                    in1[0:2]: 0x10c-0x10e.7 (3)
     |                                               |                |                      [0]{}: instr 0x10c-0x10d.7 (2)
0x100|                                    20         |                |                        local.get: 0x20 (valid) 0x10c-0x10c.7 (1)
0x100|                                       00      |             .  |                        x: 0 0x10d-0x10d.7 (1)
     |                                               |                |                      [1]{}: instr 0x10e-0x10e.7 (1)
0x100|                                          8c   |              . |                        f32.neg: 0x8c (valid) 0x10e-0x10e.7 (1)
0x100|                                             05|               .|                    else: 0x5 (valid) 0x10f-0x10f.7 (1)
     |                                               |                |                    in2[0:1]: 0x110-0x111.7 (2)
     |                                               |                |                      [0]{}: instr 0x110-0x111.7 (2)
0x110|20                                             |                |                        local.get: 0x20 (valid) 0x110-0x110.7 (1)
0x110|   00                                          | .              |                        x: 0 0x111-0x111.7 (1)
0x110|      0b                                       |  .             |                    end: 11 (valid) 0x112-0x112.7 (1)
     |                                               |                |                  [4]{}: in 0x113-0x113.7 (1)
0x110|         0b                                    |   .            |                    end: 0xb (valid) 0x113-0x113.7 (1)
     |                                               |                |            [1]{}: code 0x114-0x127.7 (20)
0x110|            13                                 |    .           |              size: 19 0x114-0x114.7 (1)
     |                                               |                |              code{}: 0x115-0x127.7 (19)
     |                                               |                |                t{}: 0x115-0x115.7 (1)
0x110|               00                              |     .          |                  n: 0 0x115-0x115.7 (1)
     |                                               |                |                  x[0:0]: 0x116-NA (0)
     |                                               |                |                e[0:5]: 0x116-0x127.7 (18)
     |                                               |                |                  [0]{}: in 0x116-0x117.7 (2)
0x110|                  20                           |                |                    local.get: 0x20 (valid) 0x116-0x116.7 (1)
0x110|                     00                        |       .        |                    x: 0 0x117-0x117.7 (1)
     |                                               |                |                  [1]{}: in 0x118-0x11c.7 (5)
0x110|                        43                     |        C       |                    f32.const: 0x43 (valid) 0x118-0x118.7 (1)
0x110|                           00 00 00 80         |         ....   |                    z: -0 0x119-0x11c.7 (4)
     |                                               |                |                  [2]{}: in 0x11d-0x11d.7 (1)
0x110|                                       5f      |             _  |                    f32.le: 0x5f (valid) 0x11d-0x11d.7 (1)
     |                                               |                |                  [3]{}: in 0x11e-0x126.7 (9)
0x110|                                          04   |              . |                    if: 0x4 (valid) 0x11e-0x11e.7 (1)
0x110|                                             7d|               }|                    bt: "f32" (125) 0x11f-0x11f.7 (1)
     |                                               |                |                    in1[0:2]: 0x120-0x122.7 (3)
     |                                               |                |                      [0]{}: instr 0x120-0x121.7 (2)
0x120|20                                             |                |                        local.get: 0x20 (valid) 0x120-0x120.7 (1)
0x120|   00                                          | .              |                        x: 0 0x121-0x121.7 (1)
     |                                               |                |                      [1]{}: instr 0x122-0x122.7 (1)
0x120|      8c                                       |  .             |                        f32.neg: 0x8c (valid) 0x122-0x122.7 (1)
0x120|         05                                    |   .            |                    else: 0x5 (valid) 0x123-0x123.7 (1)
     |                                               |                |                    in2[0:1]: 0x124-0x125.7 (2)
     |                                               |                |                      [0]{}: instr 0x124-0x125.7 (2)
0x120|            20                                 |                |                        local.get: 0x20 (valid) 0x124-0x124.7 (1)
0x120|               00                              |     .          |                        x: 0 0x125-0x125.7 (1)
0x120|                  0b                           |      .         |                    end: 11 (valid) 0x126-0x126.7 (1)
     |                                               |                |                  [4]{}: in 0x127-0x127.7 (1)
0x120|                     0b                        |       .        |                    end: 0xb (valid) 0x127-0x127.7 (1)
     |                                               |                |            [2]{}: code 0x128-0x13b.7 (20)
0x120|                        13                     |        .       |              size: 19 0x128-0x128.7 (1)
     |                                               |                |              code{}: 0x129-0x13b.7 (19)
     |                                               |                |                t{}: 0x129-0x129.7 (1)
0x120|                           00                  |         .      |                  n: 0 0x129-0x129.7 (1)
     |                                               |                |                  x[0:0]: 0x12a-NA (0)
     |                                               |                |                e[0:5]: 0x12a-0x13b.7 (18)
     |                                               |                |                  [0]{}: in 0x12a-0x12b.7 (2)
0x120|                              20               |                |                    local.get: 0x20 (valid) 0x12a-0x12a.7 (1)
0x120|                                 00            |           .    |                    x: 0 0x12b-0x12b.7 (1)
     |                                               |                |                  [1]{}: in 0x12c-0x130.7 (5)
0x120|                                    43         |            C   |                    f32.const: 0x43 (valid) 0x12c-0x12c.7 (1)
0x120|                                       00 00 00|             ...|                    z: -0 0x12d-0x130.7 (4)
0x130|80                                             |.               |
     |                                               |                |                  [2]{}: in 0x131-0x131.7 (1)
0x130|   5e                                          | ^              |                    f32.gt: 0x5e (valid) 0x131-0x131.7 (1)
     |                                               |                |                  [3]{}: in 0x132-0x13a.7 (9)
0x130|      04                                       |  .             |                    if: 0x4 (valid) 0x132-0x132.7 (1)
0x130|         7d                                    |   }            |                    bt: "f32" (125) 0x133-0x133.7 (1)
     |                                               |                |                    in1[0:1]: 0x134-0x135.7 (2)
     |                                               |                |                      [0]{}: instr 0x134-0x135.7 (2)
0x130|            20                                 |                |                        local.get: 0x20 (valid) 0x134-0x134.7 (1)
0x130|               00                              |     .          |                        x: 0 0x135-0x135.7 (1)
0x130|                  05                           |      .         |                    else: 0x5 (valid) 0x136-0x136.7 (1)
     |                                               |                |                    in2[0:2]: 0x137-0x139.7 (3)
     |                                               |                |                      [0]{}: instr 0x137-0x138.7 (2)
0x130|                     20                        |                |                        local.get: 0x20 (valid) 0x137-0x137.7 (1)
0x130|                        00                     |        .       |                        x: 0 0x138-0x138.7 (1)
     |                                               |                |                      [1]{}: instr 0x139-0x139.7 (1)
0x130|                           8c                  |         .      |                        f32.neg: 0x8c (valid) 0x139-0x139.7 (1)
0x130|                              0b               |          .     |                    end: 11 (valid) 0x13a-0x13a.7 (1)
     |                                               |                |                  [4]{}: in 0x13b-0x13b.7 (1)
0x130|                                 0b            |           .    |                    end: 0xb (valid) 0x13b-0x13b.7 (1)
     |                                               |                |            [3]{}: code 0x13c-0x14f.7 (20)
0x130|                                    13         |            .   |              size: 19 0x13c-0x13c.7 (1)
     |                                               |                |              code{}: 0x13d-0x14f.7 (19)
     |                                               |                |                t{}: 0x13d-0x13d.7 (1)
0x130|                                       00      |             .  |                  n: 0 0x13d-0x13d.7 (1)
     |                                               |                |                  x[0:0]: 0x13e-NA (0)
     |                                               |                |                e[0:5]: 0x13e-0x14f.7 (18)
     |                                               |                |                  [0]{}: in 0x13e-0x13f.7 (2)
0x130|                                          20   |                |                    local.get: 0x20 (valid) 0x13e-0x13e.7 (1)
0x130|                                             00|               .|                    x: 0 0x13f-0x13f.7 (1)
     |                                               |                |                  [1]{}: in 0x140-0x144.7 (5)
0x140|43                                             |C               |                    f32.const: 0x43 (valid) 0x140-0x140.7 (1)
0x140|   00 00 00 00                                 | ....           |                    z: 0 0x141-0x144.7 (4)
     |                                               |                |                  [2]{}: in 0x145-0x145.7 (1)
0x140|               60                              |     `          |                    f32.ge: 0x60 (valid) 0x145-0x145.7 (1)
     |                                               |                |                  [3]{}: in 0x146-0x14e.7 (9)
0x140|                  04                           |      .         |                    if: 0x4 (valid) 0x146-0x146.7 (1)
0x140|                     7d                        |       }        |                    bt: "f32" (125) 0x147-0x147.7 (1)
     |                                               |                |                    in1[0:1]: 0x148-0x149.7 (2)
     |                                               |                |                      [0]{}: instr 0x148-0x149.7 (2)
0x140|                        20                     |                |                        local.get: 0x20 (valid) 0x148-0x148.7 (1)
0x140|                           00                  |         .      |                        x: 0 0x149-0x149.7 (1)
0x140|                              05               |          .     |                    else: 0x5 (valid) 0x14a-0x14a.7 (1)
     |                                               |                |                    in2[0:2]: 0x14b-0x14d.7 (3)
     |                                               |                |                      [0]{}: instr 0x14b-0x14c.7 (2)
0x140|                                 20            |                |                        local.get: 0x20 (valid) 0x14b-0x14b.7 (1)
0x140|                                    00         |            .   |                        x: 0 0x14c-0x14c.7 (1)
     |                                               |                |                      [1]{}: instr 0x14d-0x14d.7 (1)
0x140|                                       8c      |             .  |                        f32.neg: 0x8c (valid) 0x14d-0x14d.7 (1)
0x140|                                          0b   |              . |                    end: 11 (valid) 0x14e-0x14e.7 (1)
     |                                               |                |                  [4]{}: in 0x14f-0x14f.7 (1)
0x140|                                             0b|               .|                    end: 0xb (valid) 0x14f-0x14f.7 (1)
     |                                               |                |            [4]{}: code 0x150-0x167.7 (24)
0x150|17                                             |.               |              size: 23 0x150-0x150.7 (1)
     |                                               |                |              code{}: 0x151-0x167.7 (23)
     |                                               |                |                t{}: 0x151-0x151.7 (1)
0x150|   00                                          | .              |                  n: 0 0x151-0x151.7 (1)
     |                                               |                |                  x[0:0]: 0x152-NA (0)
     |                                               |                |                e[0:5]: 0x152-0x167.7 (22)
     |                                               |                |                  [0]{}: in 0x152-0x153.7 (2)
0x150|      20                                       |                |                    local.get: 0x20 (valid) 0x152-0x152.7 (1)
0x150|         00                                    |   .            |                    x: 0 0x153-0x153.7 (1)
     |                                               |                |                  [1]{}: in 0x154-0x15c.7 (9)
0x150|            44                                 |    D           |                    f64.const: 0x44 (valid) 0x154-0x154.7 (1)
0x150|               00 00 00 00 00 00 00 00         |     ........   |                    z: 0 0x155-0x15c.7 (8)
     |                                               |                |                  [2]{}: in 0x15d-0x15d.7 (1)
0x150|                                       63      |             c  |                    f64.lt: 0x63 (valid) 0x15d-0x15d.7 (1)
     |                                               |                |                  [3]{}: in 0x15e-0x166.7 (9)
0x150|                                          04   |              . |                    if: 0x4 (valid) 0x15e-0x15e.7 (1)
0x150|                                             7c|               ||                    bt: "f64" (124) 0x15f-0x15f.7 (1)
     |                                               |                |                    in1[0:2]: 0x160-0x162.7 (3)
     |                                               |                |                      [0]{}: instr 0x160-0x161.7 (2)
0x160|20                                             |                |                        local.get: 0x20 (valid) 0x160-0x160.7 (1)
0x160|   00                                          | .              |                        x: 0 0x161-0x161.7 (1)
     |                                               |                |                      [1]{}: instr 0x162-0x162.7 (1)
0x160|      9a                                       |  .             |                        f64.neg: 0x9a (valid) 0x162-0x162.7 (1)
0x160|         05                                    |   .            |                    else: 0x5 (valid) 0x163-0x163.7 (1)
     |                                               |                |                    in2[0:1]: 0x164-0x165.7 (2)
     |                                               |                |                      [0]{}: instr 0x164-0x165.7 (2)
0x160|            20                                 |                |                        local.get: 0x20 (valid) 0x164-0x164.7 (1)
0x160|               00                              |     .          |                        x: 0 0x165-0x165.7 (1)
0x160|                  0b                           |      .         |                    end: 11 (valid) 0x166-0x166.7 (1)
     |                                               |                |                  [4]{}: in 0x167-0x167.7 (1)
0x160|                     0b                        |       .        |                    end: 0xb (valid) 0x167-0x167.7 (1)
     |                                               |                |            [5]{}: code 0x168-0x17f.7 (24)
0x160|                        17                     |        .       |              size: 23 0x168-0x168.7 (1)
     |                                               |                |              code{}: 0x169-0x17f.7 (23)
     |                                               |                |                t{}: 0x169-0x169.7 (1)
0x160|                           00                  |         .      |                  n: 0 0x169-0x169.7 (1)
     |                                               |                |                  x[0:0]: 0x16a-NA (0)
     |                                               |                |                e[0:5]: 0x16a-0x17f.7 (22)
     |                                               |                |                  [0]{}: in 0x16a-0x16b.7 (2)
0x160|                              20               |                |                    local.get: 0x20 (valid) 0x16a-0x16a.7 (1)
0x160|                                 00            |           .    |                    x: 0 0x16b-0x16b.7 (1)
     |                                               |                |                  [1]{}: in 0x16c-0x174.7 (9)
0x160|                                    44         |            D   |                    f64.const: 0x44 (valid) 0x16c-0x16c.7 (1)
0x160|                                       00 00 00|             ...|                    z: -0 0x16d-0x174.7 (8)
0x170|00 00 00 00 80                                 |.....           |
     |                                               |                |                  [2]{}: in 0x175-0x175.7 (1)
0x170|               65                              |     e          |                    f64.le: 0x65 (valid) 0x175-0x175.7 (1)
     |                                               |                |                  [3]{}: in 0x176-0x17e.7 (9)
0x170|                  04                           |      .         |                    if: 0x4 (valid) 0x176-0x176.7 (1)
0x170|                     7c                        |       |        |                    bt: "f64" (124) 0x177-0x177.7 (1)
     |                                               |                |                    in1[0:2]: 0x178-0x17a.7 (3)
     |                                               |                |                      [0]{}: instr 0x178-0x179.7 (2)
0x170|                        20                     |                |                        local.get: 0x20 (valid) 0x178-0x178.7 (1)
0x170|                           00                  |         .      |                        x: 0 0x179-0x179.7 (1)
     |                                               |                |                      [1]{}: instr 0x17a-0x17a.7 (1)
0x170|                              9a               |          .     |                        f64.neg: 0x9a (valid) 0x17a-0x17a.7 (1)
0x170|                                 05            |           .    |                    else: 0x5 (valid) 0x17b-0x17b.7 (1)
     |                                               |                |                    in2[0:1]: 0x17c-0x17d.7 (2)
     |                                               |                |                      [0]{}: instr 0x17c-0x17d.7 (2)
0x170|                                    20         |                |                        local.get: 0x20 (valid) 0x17c-0x17c.7 (1)
0x170|                                       00      |             .  |                        x: 0 0x17d-0x17d.7 (1)
0x170|                                          0b   |              . |                    end: 11 (valid) 0x17e-0x17e.7 (1)
     |                                               |                |                  [4]{}: in 0x17f-0x17f.7 (1)
0x170|                                             0b|               .|                    end: 0xb (valid) 0x17f-0x17f.7 (1)
     |                                               |                |            [6]{}: code 0x180-0x197.7 (24)
0x180|17                                             |.               |              size: 23 0x180-0x180.7 (1)
     |                                               |                |              code{}: 0x181-0x197.7 (23)
     |                                               |                |                t{}: 0x181-0x181.7 (1)
0x180|   00                                          | .              |                  n: 0 0x181-0x181.7 (1)
     |                                               |                |                  x[0:0]: 0x182-NA (0)
     |                                               |                |                e[0:5]: 0x182-0x197.7 (22)
     |                                               |                |                  [0]{}: in 0x182-0x183.7 (2)
0x180|      20                                       |                |                    local.get: 0x20 (valid) 0x182-0x182.7 (1)
0x180|         00                                    |   .            |                    x: 0 0x183-0x183.7 (1)
     |                                               |                |                  [1]{}: in 0x184-0x18c.7 (9)
0x180|            44                                 |    D           |                    f64.const: 0x44 (valid) 0x184-0x184.7 (1)
0x180|               00 00 00 00 00 00 00 80         |     ........   |                    z: -0 0x185-0x18c.7 (8)
     |                                               |                |                  [2]{}: in 0x18d-0x18d.7 (1)
0x180|                                       64      |             d  |                    f64.gt: 0x64 (valid) 0x18d-0x18d.7 (1)
     |                                               |                |                  [3]{}: in 0x18e-0x196.7 (9)
0x180|                                          04   |              . |                    if: 0x4 (valid) 0x18e-0x18e.7 (1)
0x180|                                             7c|               ||                    bt: "f64" (124) 0x18f-0x18f.7 (1)
     |                                               |                |                    in1[0:1]: 0x190-0x191.7 (2)
     |                                               |                |                      [0]{}: instr 0x190-0x191.7 (2)
0x190|20                                             |                |                        local.get: 0x20 (valid) 0x190-0x190.7 (1)
0x190|   00                                          | .              |                        x: 0 0x191-0x191.7 (1)
0x190|      05                                       |  .             |                    else: 0x5 (valid) 0x192-0x192.7 (1)
     |                                               |                |                    in2[0:2]: 0x193-0x195.7 (3)
     |                                               |                |                      [0]{}: instr 0x193-0x194.7 (2)
0x190|         20                                    |                |                        local.get: 0x20 (valid) 0x193-0x193.7 (1)
0x190|            00                                 |    .           |                        x: 0 0x194-0x194.7 (1)
     |                                               |                |                      [1]{}: instr 0x195-0x195.7 (1)
0x190|               9a                              |     .          |                        f64.neg: 0x9a (valid) 0x195-0x195.7 (1)
0x190|                  0b                           |      .         |                    end: 11 (valid) 0x196-0x196.7 (1)
     |                                               |                |                  [4]{}: in 0x197-0x197.7 (1)
0x190|                     0b                        |       .        |                    end: 0xb (valid) 0x197-0x197.7 (1)
     |                                               |                |            [7]{}: code 0x198-0x1af.7 (24)
0x190|                        17                     |        .       |              size: 23 0x198-0x198.7 (1)
     |                                               |                |              code{}: 0x199-0x1af.7 (23)
     |                                               |                |                t{}: 0x199-0x199.7 (1)
0x190|                           00                  |         .      |                  n: 0 0x199-0x199.7 (1)
     |                                               |                |                  x[0:0]: 0x19a-NA (0)
     |                                               |                |                e[0:5]: 0x19a-0x1af.7 (22)
     |                                               |                |                  [0]{}: in 0x19a-0x19b.7 (2)
0x190|                              20               |                |                    local.get: 0x20 (valid) 0x19a-0x19a.7 (1)
0x190|                                 00            |           .    |                    x: 0 0x19b-0x19b.7 (1)
     |                                               |                |                  [1]{}: in 0x19c-0x1a4.7 (9)
0x190|                                    44         |            D   |                    f64.const: 0x44 (valid) 0x19c-0x19c.7 (1)
0x190|                                       00 00 00|             ...|                    z: 0 0x19d-0x1a4.7 (8)
0x1a0|00 00 00 00 00                                 |.....           |
     |                                               |                |                  [2]{}: in 0x1a5-0x1a5.7 (1)
0x1a0|               66                              |     f          |                    f64.ge: 0x66 (valid) 0x1a5-0x1a5.7 (1)
     |                                               |                |                  [3]{}: in 0x1a6-0x1ae.7 (9)
0x1a0|                  04                           |      .         |                    if: 0x4 (valid) 0x1a6-0x1a6.7 (1)
0x1a0|                     7c                        |       |        |                    bt: "f64" (124) 0x1a7-0x1a7.7 (1)
     |                                               |                |                    in1[0:1]: 0x1a8-0x1a9.7 (2)
     |                                               |                |                      [0]{}: instr 0x1a8-0x1a9.7 (2)
0x1a0|                        20                     |                |                        local.get: 0x20 (valid) 0x1a8-0x1a8.7 (1)
0x1a0|                           00                  |         .      |                        x: 0 0x1a9-0x1a9.7 (1)
0x1a0|                              05               |          .     |                    else: 0x5 (valid) 0x1aa-0x1aa.7 (1)
     |                                               |                |                    in2[0:2]: 0x1ab-0x1ad.7 (3)
     |                                               |                |                      [0]{}: instr 0x1ab-0x1ac.7 (2)
0x1a0|                                 20            |                |                        local.get: 0x20 (valid) 0x1ab-0x1ab.7 (1)
0x1a0|                                    00         |            .   |                        x: 0 0x1ac-0x1ac.7 (1)
     |                                               |                |                      [1]{}: instr 0x1ad-0x1ad.7 (1)
0x1a0|                                       9a      |             .  |                        f64.neg: 0x9a (valid) 0x1ad-0x1ad.7 (1)
0x1a0|                                          0b   |              . |                    end: 11 (valid) 0x1ae-0x1ae.7 (1)
     |                                               |                |                  [4]{}: in 0x1af-0x1af.7 (1)
0x1a0|                                             0b|               .|                    end: 0xb (valid) 0x1af-0x1af.7 (1)
