$ fq -d wasm dv float_exprs-51.wasm
    |00 01 02 03 04 05 06 07 08 09 0a 0b 0c 0d 0e 0f|0123456789abcdef|.{}: float_exprs-51.wasm (wasm) 0x0-0x3c (60)
0x00|00 61 73 6d                                    |.asm            |  magic: raw bits (valid) 0x0-0x4 (4)
0x00|            01 00 00 00                        |    ....        |  version: 1 0x4-0x8 (4)
    |                                               |                |  sections[0:4]: 0x8-0x3c (52)
    |                                               |                |    [0]{}: section 0x8-0x10 (8)
0x00|                        01                     |        .       |      id: "type_section" (1) 0x8-0x9 (1)
0x00|                           06                  |         .      |      size: 6 (valid) 0x9-0xa (1)
    |                                               |                |      content{}: 0xa-0x10 (6)
    |                                               |                |        ft{}: 0xa-0x10 (6)
0x00|                              01               |          .     |          n: 1 (valid) 0xa-0xb (1)
    |                                               |                |          x[0:1]: 0xb-0x10 (5)
    |                                               |                |            [0]{}: ft 0xb-0x10 (5)
0x00|                                 60            |           `    |              tag: 0x60 (valid) 0xb-0xc (1)
    |                                               |                |              rt1{}: 0xc-0xe (2)
0x00|                                    01         |            .   |                n: 1 (valid) 0xc-0xd (1)
    |                                               |                |                x[0:1]: 0xd-0xe (1)
0x00|                                       7f      |             .  |                  [0]: "i32" (0x7f) t 0xd-0xe (1)
    |                                               |                |              rt2{}: 0xe-0x10 (2)
0x00|                                          01   |              . |                n: 1 (valid) 0xe-0xf (1)
    |                                               |                |                x[0:1]: 0xf-0x10 (1)
0x00|                                             7d|               }|                  [0]: "f32" (0x7d) t 0xf-0x10 (1)
    |                                               |                |    [1]{}: section 0x10-0x14 (4)
0x10|03                                             |.               |      id: "function_section" (3) 0x10-0x11 (1)
0x10|   02                                          | .              |      size: 2 (valid) 0x11-0x12 (1)
    |                                               |                |      content{}: 0x12-0x14 (2)
    |                                               |                |        x{}: 0x12-0x14 (2)
0x10|      01                                       |  .             |          n: 1 (valid) 0x12-0x13 (1)
    |                                               |                |          x[0:1]: 0x13-0x14 (1)
0x10|         00                                    |   .            |            [0]: 0 x (valid) 0x13-0x14 (1)
    |                                               |                |    [2]{}: section 0x14-0x26 (18)
0x10|            07                                 |    .           |      id: "export_section" (7) 0x14-0x15 (1)
0x10|               10                              |     .          |      size: 16 (valid) 0x15-0x16 (1)
    |                                               |                |      content{}: 0x16-0x26 (16)
    |                                               |                |        ex{}: 0x16-0x26 (16)
0x10|                  01                           |      .         |          n: 1 (valid) 0x16-0x17 (1)
    |                                               |                |          x[0:1]: 0x17-0x26 (15)
    |                                               |                |            [0]{}: ex 0x17-0x26 (15)
    |                                               |                |              nm{}: 0x17-0x24 (13)
0x10|                     0c                        |       .        |                n: 12 (valid) 0x17-0x18 (1)
0x10|                        6c 6c 76 6d 5f 70 72 32|        llvm_pr2|                b: "llvm_pr27153" 0x18-0x24 (12)
0x20|37 31 35 33                                    |7153            |
    |                                               |                |              d{}: 0x24-0x26 (2)
0x20|            00                                 |    .           |                tag: "funcidx" (0x0) 0x24-0x25 (1)
0x20|               00                              |     .          |                x: 0 (valid) 0x25-0x26 (1)
    |                                               |                |    [3]{}: section 0x26-0x3c (22)
0x20|                  0a                           |      .         |      id: "code_section" (10) 0x26-0x27 (1)
0x20|                     14                        |       .        |      size: 20 (valid) 0x27-0x28 (1)
    |                                               |                |      content{}: 0x28-0x3c (20)
    |                                               |                |        code{}: 0x28-0x3c (20)
0x20|                        01                     |        .       |          n: 1 (valid) 0x28-0x29 (1)
    |                                               |                |          x[0:1]: 0x29-0x3c (19)
    |                                               |                |            [0]{}: code 0x29-0x3c (19)
0x20|                           12                  |         .      |              size: 18 (valid) 0x29-0x2a (1)
    |                                               |                |              code{}: 0x2a-0x3c (18)
    |                                               |                |                t{}: 0x2a-0x2b (1)
0x20|                              00               |          .     |                  n: 0 (valid) 0x2a-0x2b (1)
    |                                               |                |                  x[0:0]: 0x2b-0x2b (0)
    |                                               |                |                e[0:7]: 0x2b-0x3c (17)
    |                                               |                |                  [0]{}: in 0x2b-0x2d (2)
0x20|                                 20            |                |                    opcode: "local.get" (0x20) 0x2b-0x2c (1)
0x20|                                    00         |            .   |                    x: 0 (valid) 0x2c-0x2d (1)
    |                                               |                |                  [1]{}: in 0x2d-0x33 (6)
0x20|                                       41      |             A  |                    opcode: "i32.const" (0x41) 0x2d-0x2e (1)
0x20|                                          ff ff|              ..|                    n: 268435455 (valid) 0x2e-0x33 (5)
0x30|ff ff 00                                       |...             |
    |                                               |                |                  [2]{}: in 0x33-0x34 (1)
0x30|         71                                    |   q            |                    opcode: "i32.and" (0x71) 0x33-0x34 (1)
    |                                               |                |                  [3]{}: in 0x34-0x35 (1)
0x30|            b2                                 |    .           |                    opcode: "f32.convert_i32_s" (0xb2) 0x34-0x35 (1)
    |                                               |                |                  [4]{}: in 0x35-0x3a (5)
0x30|               43                              |     C          |                    opcode: "f32.const" (0x43) 0x35-0x36 (1)
0x30|                  00 00 00 cb                  |      ....      |                    z: -8.388608e+06 0x36-0x3a (4)
    |                                               |                |                  [5]{}: in 0x3a-0x3b (1)
0x30|                              92               |          .     |                    opcode: "f32.add" (0x92) 0x3a-0x3b (1)
    |                                               |                |                  [6]{}: in 0x3b-0x3c (1)
0x30|                                 0b|           |           .|   |                    opcode: "end" (0xb) 0x3b-0x3c (1)
