$ fq -d wasm dv float_exprs-46.wasm
     |00 01 02 03 04 05 06 07 08 09 0a 0b 0c 0d 0e 0f|0123456789abcdef|.{}: float_exprs-46.wasm (wasm) 0x0-0x1b0 (432)
0x000|00 61 73 6d                                    |.asm            |  magic: raw bits (valid) 0x0-0x4 (4)
0x000|            01 00 00 00                        |    ....        |  version: 1 0x4-0x8 (4)
     |                                               |                |  sections[0:4]: 0x8-0x1b0 (424)
     |                                               |                |    [0]{}: section 0x8-0x15 (13)
0x000|                        01                     |        .       |      id: "type_section" (1) 0x8-0x9 (1)
0x000|                           0b                  |         .      |      size: 11 (valid) 0x9-0xa (1)
     |                                               |                |      content{}: 0xa-0x15 (11)
     |                                               |                |        ft{}: 0xa-0x15 (11)
0x000|                              02               |          .     |          n: 2 (valid) 0xa-0xb (1)
     |                                               |                |          x[0:2]: 0xb-0x15 (10)
     |                                               |                |            [0]{}: ft 0xb-0x10 (5)
0x000|                                 60            |           `    |              tag: 0x60 (valid) 0xb-0xc (1)
     |                                               |                |              rt1{}: 0xc-0xe (2)
0x000|                                    01         |            .   |                n: 1 (valid) 0xc-0xd (1)
     |                                               |                |                x[0:1]: 0xd-0xe (1)
0x000|                                       7d      |             }  |                  [0]: "f32" (0x7d) t 0xd-0xe (1)
     |                                               |                |              rt2{}: 0xe-0x10 (2)
0x000|                                          01   |              . |                n: 1 (valid) 0xe-0xf (1)
     |                                               |                |                x[0:1]: 0xf-0x10 (1)
0x000|                                             7d|               }|                  [0]: "f32" (0x7d) t 0xf-0x10 (1)
     |                                               |                |            [1]{}: ft 0x10-0x15 (5)
0x010|60                                             |`               |              tag: 0x60 (valid) 0x10-0x11 (1)
     |                                               |                |              rt1{}: 0x11-0x13 (2)
0x010|   01                                          | .              |                n: 1 (valid) 0x11-0x12 (1)
     |                                               |                |                x[0:1]: 0x12-0x13 (1)
0x010|      7c                                       |  |             |                  [0]: "f64" (0x7c) t 0x12-0x13 (1)
     |                                               |                |              rt2{}: 0x13-0x15 (2)
0x010|         01                                    |   .            |                n: 1 (valid) 0x13-0x14 (1)
     |                                               |                |                x[0:1]: 0x14-0x15 (1)
0x010|            7c                                 |    |           |                  [0]: "f64" (0x7c) t 0x14-0x15 (1)
     |                                               |                |    [1]{}: section 0x15-0x20 (11)
0x010|               03                              |     .          |      id: "function_section" (3) 0x15-0x16 (1)
0x010|                  09                           |      .         |      size: 9 (valid) 0x16-0x17 (1)
     |                                               |                |      content{}: 0x17-0x20 (9)
     |                                               |                |        x{}: 0x17-0x20 (9)
0x010|                     08                        |       .        |          n: 8 (valid) 0x17-0x18 (1)
     |                                               |                |          x[0:8]: 0x18-0x20 (8)
0x010|                        00                     |        .       |            [0]: 0 x (valid) 0x18-0x19 (1)
0x010|                           00                  |         .      |            [1]: 0 x (valid) 0x19-0x1a (1)
0x010|                              00               |          .     |            [2]: 0 x (valid) 0x1a-0x1b (1)
0x010|                                 00            |           .    |            [3]: 0 x (valid) 0x1b-0x1c (1)
0x010|                                    01         |            .   |            [4]: 1 x (valid) 0x1c-0x1d (1)
0x010|                                       01      |             .  |            [5]: 1 x (valid) 0x1d-0x1e (1)
0x010|                                          01   |              . |            [6]: 1 x (valid) 0x1e-0x1f (1)
0x010|                                             01|               .|            [7]: 1 x (valid) 0x1f-0x20 (1)
     |                                               |                |    [2]{}: section 0x20-0xfc (220)
0x020|07                                             |.               |      id: "export_section" (7) 0x20-0x21 (1)
0x020|   d9 01                                       | ..             |      size: 217 (valid) 0x21-0x23 (2)
     |                                               |                |      content{}: 0x23-0xfc (217)
     |                                               |                |        ex{}: 0x23-0xfc (217)
0x020|         08                                    |   .            |          n: 8 (valid) 0x23-0x24 (1)
     |                                               |                |          x[0:8]: 0x24-0xfc (216)
     |                                               |                |            [0]{}: ex 0x24-0x3f (27)
     |                                               |                |              nm{}: 0x24-0x3d (25)
0x020|            18                                 |    .           |                n: 24 (valid) 0x24-0x25 (1)
0x020|               66 33 32 2e 6e 6f 5f 66 6f 6c 64|     f32.no_fold|                b: "f32.no_fold_lt_if_to_abs" 0x25-0x3d (24)
0x030|5f 6c 74 5f 69 66 5f 74 6f 5f 61 62 73         |_lt_if_to_abs   |
     |                                               |                |              d{}: 0x3d-0x3f (2)
0x030|                                       00      |             .  |                tag: "funcidx" (0x0) 0x3d-0x3e (1)
0x030|                                          00   |              . |                x: 0 (valid) 0x3e-0x3f (1)
     |                                               |                |            [1]{}: ex 0x3f-0x5a (27)
     |                                               |                |              nm{}: 0x3f-0x58 (25)
0x030|                                             18|               .|                n: 24 (valid) 0x3f-0x40 (1)
0x040|66 33 32 2e 6e 6f 5f 66 6f 6c 64 5f 6c 65 5f 69|f32.no_fold_le_i|                b: "f32.no_fold_le_if_to_abs" 0x40-0x58 (24)
0x050|66 5f 74 6f 5f 61 62 73                        |f_to_abs        |
     |                                               |                |              d{}: 0x58-0x5a (2)
0x050|                        00                     |        .       |                tag: "funcidx" (0x0) 0x58-0x59 (1)
0x050|                           01                  |         .      |                x: 1 (valid) 0x59-0x5a (1)
     |                                               |                |            [2]{}: ex 0x5a-0x75 (27)
     |                                               |                |              nm{}: 0x5a-0x73 (25)
0x050|                              18               |          .     |                n: 24 (valid) 0x5a-0x5b (1)
0x050|                                 66 33 32 2e 6e|           f32.n|                b: "f32.no_fold_gt_if_to_abs" 0x5b-0x73 (24)
0x060|6f 5f 66 6f 6c 64 5f 67 74 5f 69 66 5f 74 6f 5f|o_fold_gt_if_to_|
0x070|61 62 73                                       |abs             |
     |                                               |                |              d{}: 0x73-0x75 (2)
0x070|         00                                    |   .            |                tag: "funcidx" (0x0) 0x73-0x74 (1)
0x070|            02                                 |    .           |                x: 2 (valid) 0x74-0x75 (1)
     |                                               |                |            [3]{}: ex 0x75-0x90 (27)
     |                                               |                |              nm{}: 0x75-0x8e (25)
0x070|               18                              |     .          |                n: 24 (valid) 0x75-0x76 (1)
0x070|                  66 33 32 2e 6e 6f 5f 66 6f 6c|      f32.no_fol|                b: "f32.no_fold_ge_if_to_abs" 0x76-0x8e (24)
0x080|64 5f 67 65 5f 69 66 5f 74 6f 5f 61 62 73      |d_ge_if_to_abs  |
     |                                               |                |              d{}: 0x8e-0x90 (2)
0x080|                                          00   |              . |                tag: "funcidx" (0x0) 0x8e-0x8f (1)
0x080|                                             03|               .|                x: 3 (valid) 0x8f-0x90 (1)
     |                                               |                |            [4]{}: ex 0x90-0xab (27)
     |                                               |                |              nm{}: 0x90-0xa9 (25)
0x090|18                                             |.               |                n: 24 (valid) 0x90-0x91 (1)
0x090|   66 36 34 2e 6e 6f 5f 66 6f 6c 64 5f 6c 74 5f| f64.no_fold_lt_|                b: "f64.no_fold_lt_if_to_abs" 0x91-0xa9 (24)
0x0a0|69 66 5f 74 6f 5f 61 62 73                     |if_to_abs       |
     |                                               |                |              d{}: 0xa9-0xab (2)
0x0a0|                           00                  |         .      |                tag: "funcidx" (0x0) 0xa9-0xaa (1)
0x0a0|                              04               |          .     |                x: 4 (valid) 0xaa-0xab (1)
     |                                               |                |            [5]{}: ex 0xab-0xc6 (27)
     |                                               |                |              nm{}: 0xab-0xc4 (25)
0x0a0|                                 18            |           .    |                n: 24 (valid) 0xab-0xac (1)
0x0a0|                                    66 36 34 2e|            f64.|                b: "f64.no_fold_le_if_to_abs" 0xac-0xc4 (24)
0x0b0|6e 6f 5f 66 6f 6c 64 5f 6c 65 5f 69 66 5f 74 6f|no_fold_le_if_to|
0x0c0|5f 61 62 73                                    |_abs            |
     |                                               |                |              d{}: 0xc4-0xc6 (2)
0x0c0|            00                                 |    .           |                tag: "funcidx" (0x0) 0xc4-0xc5 (1)
0x0c0|               05                              |     .          |                x: 5 (valid) 0xc5-0xc6 (1)
     |                                               |                |            [6]{}: ex 0xc6-0xe1 (27)
     |                                               |                |              nm{}: 0xc6-0xdf (25)
0x0c0|                  18                           |      .         |                n: 24 (valid) 0xc6-0xc7 (1)
0x0c0|                     66 36 34 2e 6e 6f 5f 66 6f|       f64.no_fo|                b: "f64.no_fold_gt_if_to_abs" 0xc7-0xdf (24)
0x0d0|6c 64 5f 67 74 5f 69 66 5f 74 6f 5f 61 62 73   |ld_gt_if_to_abs |
     |                                               |                |              d{}: 0xdf-0xe1 (2)
0x0d0|                                             00|               .|                tag: "funcidx" (0x0) 0xdf-0xe0 (1)
0x0e0|06                                             |.               |                x: 6 (valid) 0xe0-0xe1 (1)
     |                                               |                |            [7]{}: ex 0xe1-0xfc (27)
     |                                               |                |              nm{}: 0xe1-0xfa (25)
0x0e0|   18                                          | .              |                n: 24 (valid) 0xe1-0xe2 (1)
0x0e0|      66 36 34 2e 6e 6f 5f 66 6f 6c 64 5f 67 65|  f64.no_fold_ge|                b: "f64.no_fold_ge_if_to_abs" 0xe2-0xfa (24)
0x0f0|5f 69 66 5f 74 6f 5f 61 62 73                  |_if_to_abs      |
     |                                               |                |              d{}: 0xfa-0xfc (2)
0x0f0|                              00               |          .     |                tag: "funcidx" (0x0) 0xfa-0xfb (1)
0x0f0|                                 07            |           .    |                x: 7 (valid) 0xfb-0xfc (1)
     |                                               |                |    [3]{}: section 0xfc-0x1b0 (180)
0x0f0|                                    0a         |            .   |      id: "code_section" (10) 0xfc-0xfd (1)
0x0f0|                                       b1 01   |             .. |      size: 177 (valid) 0xfd-0xff (2)
     |                                               |                |      content{}: 0xff-0x1b0 (177)
     |                                               |                |        code{}: 0xff-0x1b0 (177)
0x0f0|                                             08|               .|          n: 8 (valid) 0xff-0x100 (1)
     |                                               |                |          x[0:8]: 0x100-0x1b0 (176)
     |                                               |                |            [0]{}: code 0x100-0x114 (20)
0x100|13                                             |.               |              size: 19 (valid) 0x100-0x101 (1)
     |                                               |                |              code{}: 0x101-0x114 (19)
     |                                               |                |                t{}: 0x101-0x102 (1)
0x100|   00                                          | .              |                  n: 0 (valid) 0x101-0x102 (1)
     |                                               |                |                  x[0:0]: 0x102-0x102 (0)
     |                                               |                |                e[0:5]: 0x102-0x114 (18)
     |                                               |                |                  [0]{}: in 0x102-0x104 (2)
0x100|      20                                       |                |                    opcode: "local.get" (0x20) 0x102-0x103 (1)
0x100|         00                                    |   .            |                    x: 0 (valid) 0x103-0x104 (1)
     |                                               |                |                  [1]{}: in 0x104-0x109 (5)
0x100|            43                                 |    C           |                    opcode: "f32.const" (0x43) 0x104-0x105 (1)
0x100|               00 00 00 00                     |     ....       |                    z: 0 0x105-0x109 (4)
     |                                               |                |                  [2]{}: in 0x109-0x10a (1)
0x100|                           5d                  |         ]      |                    opcode: "f32.lt" (0x5d) 0x109-0x10a (1)
     |                                               |                |                  [3]{}: in 0x10a-0x113 (9)
0x100|                              04               |          .     |                    opcode: "if" (0x4) 0x10a-0x10b (1)
0x100|                                 7d            |           }    |                    bt: "f32" (125) 0x10b-0x10c (1)
     |                                               |                |                    in1[0:2]: 0x10c-0x10f (3)
     |                                               |                |                      [0]{}: instr 0x10c-0x10e (2)
0x100|                                    20         |                |                        opcode: "local.get" (0x20) 0x10c-0x10d (1)
0x100|                                       00      |             .  |                        x: 0 (valid) 0x10d-0x10e (1)
     |                                               |                |                      [1]{}: instr 0x10e-0x10f (1)
0x100|                                          8c   |              . |                        opcode: "f32.neg" (0x8c) 0x10e-0x10f (1)
0x100|                                             05|               .|                    else: 0x5 (valid) 0x10f-0x110 (1)
     |                                               |                |                    in2[0:1]: 0x110-0x112 (2)
     |                                               |                |                      [0]{}: instr 0x110-0x112 (2)
0x110|20                                             |                |                        opcode: "local.get" (0x20) 0x110-0x111 (1)
0x110|   00                                          | .              |                        x: 0 (valid) 0x111-0x112 (1)
0x110|      0b                                       |  .             |                    end: 0xb (valid) 0x112-0x113 (1)
     |                                               |                |                  [4]{}: in 0x113-0x114 (1)
0x110|         0b                                    |   .            |                    opcode: "end" (0xb) 0x113-0x114 (1)
     |                                               |                |            [1]{}: code 0x114-0x128 (20)
0x110|            13                                 |    .           |              size: 19 (valid) 0x114-0x115 (1)
     |                                               |                |              code{}: 0x115-0x128 (19)
     |                                               |                |                t{}: 0x115-0x116 (1)
0x110|               00                              |     .          |                  n: 0 (valid) 0x115-0x116 (1)
     |                                               |                |                  x[0:0]: 0x116-0x116 (0)
     |                                               |                |                e[0:5]: 0x116-0x128 (18)
     |                                               |                |                  [0]{}: in 0x116-0x118 (2)
0x110|                  20                           |                |                    opcode: "local.get" (0x20) 0x116-0x117 (1)
0x110|                     00                        |       .        |                    x: 0 (valid) 0x117-0x118 (1)
     |                                               |                |                  [1]{}: in 0x118-0x11d (5)
0x110|                        43                     |        C       |                    opcode: "f32.const" (0x43) 0x118-0x119 (1)
0x110|                           00 00 00 80         |         ....   |                    z: -0 0x119-0x11d (4)
     |                                               |                |                  [2]{}: in 0x11d-0x11e (1)
0x110|                                       5f      |             _  |                    opcode: "f32.le" (0x5f) 0x11d-0x11e (1)
     |                                               |                |                  [3]{}: in 0x11e-0x127 (9)
0x110|                                          04   |              . |                    opcode: "if" (0x4) 0x11e-0x11f (1)
0x110|                                             7d|               }|                    bt: "f32" (125) 0x11f-0x120 (1)
     |                                               |                |                    in1[0:2]: 0x120-0x123 (3)
     |                                               |                |                      [0]{}: instr 0x120-0x122 (2)
0x120|20                                             |                |                        opcode: "local.get" (0x20) 0x120-0x121 (1)
0x120|   00                                          | .              |                        x: 0 (valid) 0x121-0x122 (1)
     |                                               |                |                      [1]{}: instr 0x122-0x123 (1)
0x120|      8c                                       |  .             |                        opcode: "f32.neg" (0x8c) 0x122-0x123 (1)
0x120|         05                                    |   .            |                    else: 0x5 (valid) 0x123-0x124 (1)
     |                                               |                |                    in2[0:1]: 0x124-0x126 (2)
     |                                               |                |                      [0]{}: instr 0x124-0x126 (2)
0x120|            20                                 |                |                        opcode: "local.get" (0x20) 0x124-0x125 (1)
0x120|               00                              |     .          |                        x: 0 (valid) 0x125-0x126 (1)
0x120|                  0b                           |      .         |                    end: 0xb (valid) 0x126-0x127 (1)
     |                                               |                |                  [4]{}: in 0x127-0x128 (1)
0x120|                     0b                        |       .        |                    opcode: "end" (0xb) 0x127-0x128 (1)
     |                                               |                |            [2]{}: code 0x128-0x13c (20)
0x120|                        13                     |        .       |              size: 19 (valid) 0x128-0x129 (1)
     |                                               |                |              code{}: 0x129-0x13c (19)
     |                                               |                |                t{}: 0x129-0x12a (1)
0x120|                           00                  |         .      |                  n: 0 (valid) 0x129-0x12a (1)
     |                                               |                |                  x[0:0]: 0x12a-0x12a (0)
     |                                               |                |                e[0:5]: 0x12a-0x13c (18)
     |                                               |                |                  [0]{}: in 0x12a-0x12c (2)
0x120|                              20               |                |                    opcode: "local.get" (0x20) 0x12a-0x12b (1)
0x120|                                 00            |           .    |                    x: 0 (valid) 0x12b-0x12c (1)
     |                                               |                |                  [1]{}: in 0x12c-0x131 (5)
0x120|                                    43         |            C   |                    opcode: "f32.const" (0x43) 0x12c-0x12d (1)
0x120|                                       00 00 00|             ...|                    z: -0 0x12d-0x131 (4)
0x130|80                                             |.               |
     |                                               |                |                  [2]{}: in 0x131-0x132 (1)
0x130|   5e                                          | ^              |                    opcode: "f32.gt" (0x5e) 0x131-0x132 (1)
     |                                               |                |                  [3]{}: in 0x132-0x13b (9)
0x130|      04                                       |  .             |                    opcode: "if" (0x4) 0x132-0x133 (1)
0x130|         7d                                    |   }            |                    bt: "f32" (125) 0x133-0x134 (1)
     |                                               |                |                    in1[0:1]: 0x134-0x136 (2)
     |                                               |                |                      [0]{}: instr 0x134-0x136 (2)
0x130|            20                                 |                |                        opcode: "local.get" (0x20) 0x134-0x135 (1)
0x130|               00                              |     .          |                        x: 0 (valid) 0x135-0x136 (1)
0x130|                  05                           |      .         |                    else: 0x5 (valid) 0x136-0x137 (1)
     |                                               |                |                    in2[0:2]: 0x137-0x13a (3)
     |                                               |                |                      [0]{}: instr 0x137-0x139 (2)
0x130|                     20                        |                |                        opcode: "local.get" (0x20) 0x137-0x138 (1)
0x130|                        00                     |        .       |                        x: 0 (valid) 0x138-0x139 (1)
     |                                               |                |                      [1]{}: instr 0x139-0x13a (1)
0x130|                           8c                  |         .      |                        opcode: "f32.neg" (0x8c) 0x139-0x13a (1)
0x130|                              0b               |          .     |                    end: 0xb (valid) 0x13a-0x13b (1)
     |                                               |                |                  [4]{}: in 0x13b-0x13c (1)
0x130|                                 0b            |           .    |                    opcode: "end" (0xb) 0x13b-0x13c (1)
     |                                               |                |            [3]{}: code 0x13c-0x150 (20)
0x130|                                    13         |            .   |              size: 19 (valid) 0x13c-0x13d (1)
     |                                               |                |              code{}: 0x13d-0x150 (19)
     |                                               |                |                t{}: 0x13d-0x13e (1)
0x130|                                       00      |             .  |                  n: 0 (valid) 0x13d-0x13e (1)
     |                                               |                |                  x[0:0]: 0x13e-0x13e (0)
     |                                               |                |                e[0:5]: 0x13e-0x150 (18)
     |                                               |                |                  [0]{}: in 0x13e-0x140 (2)
0x130|                                          20   |                |                    opcode: "local.get" (0x20) 0x13e-0x13f (1)
0x130|                                             00|               .|                    x: 0 (valid) 0x13f-0x140 (1)
     |                                               |                |                  [1]{}: in 0x140-0x145 (5)
0x140|43                                             |C               |                    opcode: "f32.const" (0x43) 0x140-0x141 (1)
0x140|   00 00 00 00                                 | ....           |                    z: 0 0x141-0x145 (4)
     |                                               |                |                  [2]{}: in 0x145-0x146 (1)
0x140|               60                              |     `          |                    opcode: "f32.ge" (0x60) 0x145-0x146 (1)
     |                                               |                |                  [3]{}: in 0x146-0x14f (9)
0x140|                  04                           |      .         |                    opcode: "if" (0x4) 0x146-0x147 (1)
0x140|                     7d                        |       }        |                    bt: "f32" (125) 0x147-0x148 (1)
     |                                               |                |                    in1[0:1]: 0x148-0x14a (2)
     |                                               |                |                      [0]{}: instr 0x148-0x14a (2)
0x140|                        20                     |                |                        opcode: "local.get" (0x20) 0x148-0x149 (1)
0x140|                           00                  |         .      |                        x: 0 (valid) 0x149-0x14a (1)
0x140|                              05               |          .     |                    else: 0x5 (valid) 0x14a-0x14b (1)
     |                                               |                |                    in2[0:2]: 0x14b-0x14e (3)
     |                                               |                |                      [0]{}: instr 0x14b-0x14d (2)
0x140|                                 20            |                |                        opcode: "local.get" (0x20) 0x14b-0x14c (1)
0x140|                                    00         |            .   |                        x: 0 (valid) 0x14c-0x14d (1)
     |                                               |                |                      [1]{}: instr 0x14d-0x14e (1)
0x140|                                       8c      |             .  |                        opcode: "f32.neg" (0x8c) 0x14d-0x14e (1)
0x140|                                          0b   |              . |                    end: 0xb (valid) 0x14e-0x14f (1)
     |                                               |                |                  [4]{}: in 0x14f-0x150 (1)
0x140|                                             0b|               .|                    opcode: "end" (0xb) 0x14f-0x150 (1)
     |                                               |                |            [4]{}: code 0x150-0x168 (24)
0x150|17                                             |.               |              size: 23 (valid) 0x150-0x151 (1)
     |                                               |                |              code{}: 0x151-0x168 (23)
     |                                               |                |                t{}: 0x151-0x152 (1)
0x150|   00                                          | .              |                  n: 0 (valid) 0x151-0x152 (1)
     |                                               |                |                  x[0:0]: 0x152-0x152 (0)
     |                                               |                |                e[0:5]: 0x152-0x168 (22)
     |                                               |                |                  [0]{}: in 0x152-0x154 (2)
0x150|      20                                       |                |                    opcode: "local.get" (0x20) 0x152-0x153 (1)
0x150|         00                                    |   .            |                    x: 0 (valid) 0x153-0x154 (1)
     |                                               |                |                  [1]{}: in 0x154-0x15d (9)
0x150|            44                                 |    D           |                    opcode: "f64.const" (0x44) 0x154-0x155 (1)
0x150|               00 00 00 00 00 00 00 00         |     ........   |                    z: 0 0x155-0x15d (8)
     |                                               |                |                  [2]{}: in 0x15d-0x15e (1)
0x150|                                       63      |             c  |                    opcode: "f64.lt" (0x63) 0x15d-0x15e (1)
     |                                               |                |                  [3]{}: in 0x15e-0x167 (9)
0x150|                                          04   |              . |                    opcode: "if" (0x4) 0x15e-0x15f (1)
0x150|                                             7c|               ||                    bt: "f64" (124) 0x15f-0x160 (1)
     |                                               |                |                    in1[0:2]: 0x160-0x163 (3)
     |                                               |                |                      [0]{}: instr 0x160-0x162 (2)
0x160|20                                             |                |                        opcode: "local.get" (0x20) 0x160-0x161 (1)
0x160|   00                                          | .              |                        x: 0 (valid) 0x161-0x162 (1)
     |                                               |                |                      [1]{}: instr 0x162-0x163 (1)
0x160|      9a                                       |  .             |                        opcode: "f64.neg" (0x9a) 0x162-0x163 (1)
0x160|         05                                    |   .            |                    else: 0x5 (valid) 0x163-0x164 (1)
     |                                               |                |                    in2[0:1]: 0x164-0x166 (2)
     |                                               |                |                      [0]{}: instr 0x164-0x166 (2)
0x160|            20                                 |                |                        opcode: "local.get" (0x20) 0x164-0x165 (1)
0x160|               00                              |     .          |                        x: 0 (valid) 0x165-0x166 (1)
0x160|                  0b                           |      .         |                    end: 0xb (valid) 0x166-0x167 (1)
     |                                               |                |                  [4]{}: in 0x167-0x168 (1)
0x160|                     0b                        |       .        |                    opcode: "end" (0xb) 0x167-0x168 (1)
     |                                               |                |            [5]{}: code 0x168-0x180 (24)
0x160|                        17                     |        .       |              size: 23 (valid) 0x168-0x169 (1)
     |                                               |                |              code{}: 0x169-0x180 (23)
     |                                               |                |                t{}: 0x169-0x16a (1)
0x160|                           00                  |         .      |                  n: 0 (valid) 0x169-0x16a (1)
     |                                               |                |                  x[0:0]: 0x16a-0x16a (0)
     |                                               |                |                e[0:5]: 0x16a-0x180 (22)
     |                                               |                |                  [0]{}: in 0x16a-0x16c (2)
0x160|                              20               |                |                    opcode: "local.get" (0x20) 0x16a-0x16b (1)
0x160|                                 00            |           .    |                    x: 0 (valid) 0x16b-0x16c (1)
     |                                               |                |                  [1]{}: in 0x16c-0x175 (9)
0x160|                                    44         |            D   |                    opcode: "f64.const" (0x44) 0x16c-0x16d (1)
0x160|                                       00 00 00|             ...|                    z: -0 0x16d-0x175 (8)
0x170|00 00 00 00 80                                 |.....           |
     |                                               |                |                  [2]{}: in 0x175-0x176 (1)
0x170|               65                              |     e          |                    opcode: "f64.le" (0x65) 0x175-0x176 (1)
     |                                               |                |                  [3]{}: in 0x176-0x17f (9)
0x170|                  04                           |      .         |                    opcode: "if" (0x4) 0x176-0x177 (1)
0x170|                     7c                        |       |        |                    bt: "f64" (124) 0x177-0x178 (1)
     |                                               |                |                    in1[0:2]: 0x178-0x17b (3)
     |                                               |                |                      [0]{}: instr 0x178-0x17a (2)
0x170|                        20                     |                |                        opcode: "local.get" (0x20) 0x178-0x179 (1)
0x170|                           00                  |         .      |                        x: 0 (valid) 0x179-0x17a (1)
     |                                               |                |                      [1]{}: instr 0x17a-0x17b (1)
0x170|                              9a               |          .     |                        opcode: "f64.neg" (0x9a) 0x17a-0x17b (1)
0x170|                                 05            |           .    |                    else: 0x5 (valid) 0x17b-0x17c (1)
     |                                               |                |                    in2[0:1]: 0x17c-0x17e (2)
     |                                               |                |                      [0]{}: instr 0x17c-0x17e (2)
0x170|                                    20         |                |                        opcode: "local.get" (0x20) 0x17c-0x17d (1)
0x170|                                       00      |             .  |                        x: 0 (valid) 0x17d-0x17e (1)
0x170|                                          0b   |              . |                    end: 0xb (valid) 0x17e-0x17f (1)
     |                                               |                |                  [4]{}: in 0x17f-0x180 (1)
0x170|                                             0b|               .|                    opcode: "end" (0xb) 0x17f-0x180 (1)
     |                                               |                |            [6]{}: code 0x180-0x198 (24)
0x180|17                                             |.               |              size: 23 (valid) 0x180-0x181 (1)
     |                                               |                |              code{}: 0x181-0x198 (23)
     |                                               |                |                t{}: 0x181-0x182 (1)
0x180|   00                                          | .              |                  n: 0 (valid) 0x181-0x182 (1)
     |                                               |                |                  x[0:0]: 0x182-0x182 (0)
     |                                               |                |                e[0:5]: 0x182-0x198 (22)
     |                                               |                |                  [0]{}: in 0x182-0x184 (2)
0x180|      20                                       |                |                    opcode: "local.get" (0x20) 0x182-0x183 (1)
0x180|         00                                    |   .            |                    x: 0 (valid) 0x183-0x184 (1)
     |                                               |                |                  [1]{}: in 0x184-0x18d (9)
0x180|            44                                 |    D           |                    opcode: "f64.const" (0x44) 0x184-0x185 (1)
0x180|               00 00 00 00 00 00 00 80         |     ........   |                    z: -0 0x185-0x18d (8)
     |                                               |                |                  [2]{}: in 0x18d-0x18e (1)
0x180|                                       64      |             d  |                    opcode: "f64.gt" (0x64) 0x18d-0x18e (1)
     |                                               |                |                  [3]{}: in 0x18e-0x197 (9)
0x180|                                          04   |              . |                    opcode: "if" (0x4) 0x18e-0x18f (1)
0x180|                                             7c|               ||                    bt: "f64" (124) 0x18f-0x190 (1)
     |                                               |                |                    in1[0:1]: 0x190-0x192 (2)
     |                                               |                |                      [0]{}: instr 0x190-0x192 (2)
0x190|20                                             |                |                        opcode: "local.get" (0x20) 0x190-0x191 (1)
0x190|   00                                          | .              |                        x: 0 (valid) 0x191-0x192 (1)
0x190|      05                                       |  .             |                    else: 0x5 (valid) 0x192-0x193 (1)
     |                                               |                |                    in2[0:2]: 0x193-0x196 (3)
     |                                               |                |                      [0]{}: instr 0x193-0x195 (2)
0x190|         20                                    |                |                        opcode: "local.get" (0x20) 0x193-0x194 (1)
0x190|            00                                 |    .           |                        x: 0 (valid) 0x194-0x195 (1)
     |                                               |                |                      [1]{}: instr 0x195-0x196 (1)
0x190|               9a                              |     .          |                        opcode: "f64.neg" (0x9a) 0x195-0x196 (1)
0x190|                  0b                           |      .         |                    end: 0xb (valid) 0x196-0x197 (1)
     |                                               |                |                  [4]{}: in 0x197-0x198 (1)
0x190|                     0b                        |       .        |                    opcode: "end" (0xb) 0x197-0x198 (1)
     |                                               |                |            [7]{}: code 0x198-0x1b0 (24)
0x190|                        17                     |        .       |              size: 23 (valid) 0x198-0x199 (1)
     |                                               |                |              code{}: 0x199-0x1b0 (23)
     |                                               |                |                t{}: 0x199-0x19a (1)
0x190|                           00                  |         .      |                  n: 0 (valid) 0x199-0x19a (1)
     |                                               |                |                  x[0:0]: 0x19a-0x19a (0)
     |                                               |                |                e[0:5]: 0x19a-0x1b0 (22)
     |                                               |                |                  [0]{}: in 0x19a-0x19c (2)
0x190|                              20               |                |                    opcode: "local.get" (0x20) 0x19a-0x19b (1)
0x190|                                 00            |           .    |                    x: 0 (valid) 0x19b-0x19c (1)
     |                                               |                |                  [1]{}: in 0x19c-0x1a5 (9)
0x190|                                    44         |            D   |                    opcode: "f64.const" (0x44) 0x19c-0x19d (1)
0x190|                                       00 00 00|             ...|                    z: 0 0x19d-0x1a5 (8)
0x1a0|00 00 00 00 00                                 |.....           |
     |                                               |                |                  [2]{}: in 0x1a5-0x1a6 (1)
0x1a0|               66                              |     f          |                    opcode: "f64.ge" (0x66) 0x1a5-0x1a6 (1)
     |                                               |                |                  [3]{}: in 0x1a6-0x1af (9)
0x1a0|                  04                           |      .         |                    opcode: "if" (0x4) 0x1a6-0x1a7 (1)
0x1a0|                     7c                        |       |        |                    bt: "f64" (124) 0x1a7-0x1a8 (1)
     |                                               |                |                    in1[0:1]: 0x1a8-0x1aa (2)
     |                                               |                |                      [0]{}: instr 0x1a8-0x1aa (2)
0x1a0|                        20                     |                |                        opcode: "local.get" (0x20) 0x1a8-0x1a9 (1)
0x1a0|                           00                  |         .      |                        x: 0 (valid) 0x1a9-0x1aa (1)
0x1a0|                              05               |          .     |                    else: 0x5 (valid) 0x1aa-0x1ab (1)
     |                                               |                |                    in2[0:2]: 0x1ab-0x1ae (3)
     |                                               |                |                      [0]{}: instr 0x1ab-0x1ad (2)
0x1a0|                                 20            |                |                        opcode: "local.get" (0x20) 0x1ab-0x1ac (1)
0x1a0|                                    00         |            .   |                        x: 0 (valid) 0x1ac-0x1ad (1)
     |                                               |                |                      [1]{}: instr 0x1ad-0x1ae (1)
0x1a0|                                       9a      |             .  |                        opcode: "f64.neg" (0x9a) 0x1ad-0x1ae (1)
0x1a0|                                          0b   |              . |                    end: 0xb (valid) 0x1ae-0x1af (1)
     |                                               |                |                  [4]{}: in 0x1af-0x1b0 (1)
0x1a0|                                             0b|               .|                    opcode: "end" (0xb) 0x1af-0x1b0 (1)
