$ fq -d wasm dv forward-0.wasm
    |00 01 02 03 04 05 06 07 08 09 0a 0b 0c 0d 0e 0f|0123456789abcdef|.{}: forward-0.wasm (wasm) 0x0-0x51.7 (82)
0x00|00 61 73 6d                                    |.asm            |  magic: raw bits (valid) 0x0-0x3.7 (4)
0x00|            01 00 00 00                        |    ....        |  version: 1 0x4-0x7.7 (4)
    |                                               |                |  sections[0:4]: 0x8-0x51.7 (74)
    |                                               |                |    [0]{}: section 0x8-0xf.7 (8)
0x00|                        01                     |        .       |      id: "type section" (1) 0x8-0x8.7 (1)
0x00|                           06                  |         .      |      size: 6 0x9-0x9.7 (1)
    |                                               |                |      content{}: 0xa-0xf.7 (6)
    |                                               |                |        ft{}: 0xa-0xf.7 (6)
0x00|                              01               |          .     |          n: 1 0xa-0xa.7 (1)
    |                                               |                |          x[0:1]: 0xb-0xf.7 (5)
    |                                               |                |            [0]{}: ft 0xb-0xf.7 (5)
0x00|                                 60            |           `    |              tag: 0x60 (valid) 0xb-0xb.7 (1)
    |                                               |                |              rt1{}: 0xc-0xd.7 (2)
0x00|                                    01         |            .   |                n: 1 0xc-0xc.7 (1)
    |                                               |                |                x[0:1]: 0xd-0xd.7 (1)
0x00|                                       7f      |             .  |                  [0]: "i32" (0x7f) t 0xd-0xd.7 (1)
    |                                               |                |              rt2{}: 0xe-0xf.7 (2)
0x00|                                          01   |              . |                n: 1 0xe-0xe.7 (1)
    |                                               |                |                x[0:1]: 0xf-0xf.7 (1)
0x00|                                             7f|               .|                  [0]: "i32" (0x7f) t 0xf-0xf.7 (1)
    |                                               |                |    [1]{}: section 0x10-0x14.7 (5)
0x10|03                                             |.               |      id: "function section" (3) 0x10-0x10.7 (1)
0x10|   03                                          | .              |      size: 3 0x11-0x11.7 (1)
    |                                               |                |      content{}: 0x12-0x14.7 (3)
    |                                               |                |        x{}: 0x12-0x14.7 (3)
0x10|      02                                       |  .             |          n: 2 0x12-0x12.7 (1)
    |                                               |                |          x[0:2]: 0x13-0x14.7 (2)
0x10|         00                                    |   .            |            [0]: 0 x 0x13-0x13.7 (1)
0x10|            00                                 |    .           |            [1]: 0 x 0x14-0x14.7 (1)
    |                                               |                |    [2]{}: section 0x15-0x24.7 (16)
0x10|               07                              |     .          |      id: "export section" (7) 0x15-0x15.7 (1)
0x10|                  0e                           |      .         |      size: 14 0x16-0x16.7 (1)
    |                                               |                |      content{}: 0x17-0x24.7 (14)
    |                                               |                |        ex{}: 0x17-0x24.7 (14)
0x10|                     02                        |       .        |          n: 2 0x17-0x17.7 (1)
    |                                               |                |          x[0:2]: 0x18-0x24.7 (13)
    |                                               |                |            [0]{}: ex 0x18-0x1e.7 (7)
    |                                               |                |              nm{}: 0x18-0x1c.7 (5)
0x10|                        04                     |        .       |                n: 4 0x18-0x18.7 (1)
0x10|                           65 76 65 6e         |         even   |                b: "even" 0x19-0x1c.7 (4)
    |                                               |                |              d{}: 0x1d-0x1e.7 (2)
0x10|                                       00      |             .  |                tag: "funcidx" (0x0) 0x1d-0x1d.7 (1)
0x10|                                          00   |              . |                x: 0 0x1e-0x1e.7 (1)
    |                                               |                |            [1]{}: ex 0x1f-0x24.7 (6)
    |                                               |                |              nm{}: 0x1f-0x22.7 (4)
0x10|                                             03|               .|                n: 3 0x1f-0x1f.7 (1)
0x20|6f 64 64                                       |odd             |                b: "odd" 0x20-0x22.7 (3)
    |                                               |                |              d{}: 0x23-0x24.7 (2)
0x20|         00                                    |   .            |                tag: "funcidx" (0x0) 0x23-0x23.7 (1)
0x20|            01                                 |    .           |                x: 1 0x24-0x24.7 (1)
    |                                               |                |    [3]{}: section 0x25-0x51.7 (45)
0x20|               0a                              |     .          |      id: "code section" (10) 0x25-0x25.7 (1)
0x20|                  2b                           |      +         |      size: 43 0x26-0x26.7 (1)
    |                                               |                |      content{}: 0x27-0x51.7 (43)
    |                                               |                |        code{}: 0x27-0x51.7 (43)
0x20|                     02                        |       .        |          n: 2 0x27-0x27.7 (1)
    |                                               |                |          x[0:2]: 0x28-0x51.7 (42)
    |                                               |                |            [0]{}: code 0x28-0x3c.7 (21)
0x20|                        14                     |        .       |              size: 20 0x28-0x28.7 (1)
    |                                               |                |              code{}: 0x29-0x3c.7 (20)
    |                                               |                |                t{}: 0x29-0x29.7 (1)
0x20|                           00                  |         .      |                  n: 0 0x29-0x29.7 (1)
    |                                               |                |                  x[0:0]: 0x2a-NA (0)
    |                                               |                |                e[0:5]: 0x2a-0x3c.7 (19)
    |                                               |                |                  [0]{}: in 0x2a-0x2b.7 (2)
0x20|                              20               |                |                    local.get: 0x20 (valid) 0x2a-0x2a.7 (1)
0x20|                                 00            |           .    |                    x: 0 0x2b-0x2b.7 (1)
    |                                               |                |                  [1]{}: in 0x2c-0x2d.7 (2)
0x20|                                    41         |            A   |                    i32.const: 0x41 (valid) 0x2c-0x2c.7 (1)
0x20|                                       00      |             .  |                    n: 0 0x2d-0x2d.7 (1)
    |                                               |                |                  [2]{}: in 0x2e-0x2e.7 (1)
0x20|                                          46   |              F |                    i32.eq: 0x46 (valid) 0x2e-0x2e.7 (1)
    |                                               |                |                  [3]{}: in 0x2f-0x3b.7 (13)
0x20|                                             04|               .|                    if: 0x4 (valid) 0x2f-0x2f.7 (1)
0x30|7f                                             |.               |                    bt: "i32" (127) 0x30-0x30.7 (1)
    |                                               |                |                    in1[0:1]: 0x31-0x32.7 (2)
    |                                               |                |                      [0]{}: instr 0x31-0x32.7 (2)
0x30|   41                                          | A              |                        i32.const: 0x41 (valid) 0x31-0x31.7 (1)
0x30|      01                                       |  .             |                        n: 1 0x32-0x32.7 (1)
0x30|         05                                    |   .            |                    else: 0x5 (valid) 0x33-0x33.7 (1)
    |                                               |                |                    in2[0:4]: 0x34-0x3a.7 (7)
    |                                               |                |                      [0]{}: instr 0x34-0x35.7 (2)
0x30|            20                                 |                |                        local.get: 0x20 (valid) 0x34-0x34.7 (1)
0x30|               00                              |     .          |                        x: 0 0x35-0x35.7 (1)
    |                                               |                |                      [1]{}: instr 0x36-0x37.7 (2)
0x30|                  41                           |      A         |                        i32.const: 0x41 (valid) 0x36-0x36.7 (1)
0x30|                     01                        |       .        |                        n: 1 0x37-0x37.7 (1)
    |                                               |                |                      [2]{}: instr 0x38-0x38.7 (1)
0x30|                        6b                     |        k       |                        i32.sub: 0x6b (valid) 0x38-0x38.7 (1)
    |                                               |                |                      [3]{}: instr 0x39-0x3a.7 (2)
0x30|                           10                  |         .      |                        call: 0x10 (valid) 0x39-0x39.7 (1)
0x30|                              01               |          .     |                        x: 1 0x3a-0x3a.7 (1)
0x30|                                 0b            |           .    |                    end: 11 (valid) 0x3b-0x3b.7 (1)
    |                                               |                |                  [4]{}: in 0x3c-0x3c.7 (1)
0x30|                                    0b         |            .   |                    end: 0xb (valid) 0x3c-0x3c.7 (1)
    |                                               |                |            [1]{}: code 0x3d-0x51.7 (21)
0x30|                                       14      |             .  |              size: 20 0x3d-0x3d.7 (1)
    |                                               |                |              code{}: 0x3e-0x51.7 (20)
    |                                               |                |                t{}: 0x3e-0x3e.7 (1)
0x30|                                          00   |              . |                  n: 0 0x3e-0x3e.7 (1)
    |                                               |                |                  x[0:0]: 0x3f-NA (0)
    |                                               |                |                e[0:5]: 0x3f-0x51.7 (19)
    |                                               |                |                  [0]{}: in 0x3f-0x40.7 (2)
0x30|                                             20|                |                    local.get: 0x20 (valid) 0x3f-0x3f.7 (1)
0x40|00                                             |.               |                    x: 0 0x40-0x40.7 (1)
    |                                               |                |                  [1]{}: in 0x41-0x42.7 (2)
0x40|   41                                          | A              |                    i32.const: 0x41 (valid) 0x41-0x41.7 (1)
0x40|      00                                       |  .             |                    n: 0 0x42-0x42.7 (1)
    |                                               |                |                  [2]{}: in 0x43-0x43.7 (1)
0x40|         46                                    |   F            |                    i32.eq: 0x46 (valid) 0x43-0x43.7 (1)
    |                                               |                |                  [3]{}: in 0x44-0x50.7 (13)
0x40|            04                                 |    .           |                    if: 0x4 (valid) 0x44-0x44.7 (1)
0x40|               7f                              |     .          |                    bt: "i32" (127) 0x45-0x45.7 (1)
    |                                               |                |                    in1[0:1]: 0x46-0x47.7 (2)
    |                                               |                |                      [0]{}: instr 0x46-0x47.7 (2)
0x40|                  41                           |      A         |                        i32.const: 0x41 (valid) 0x46-0x46.7 (1)
0x40|                     00                        |       .        |                        n: 0 0x47-0x47.7 (1)
0x40|                        05                     |        .       |                    else: 0x5 (valid) 0x48-0x48.7 (1)
    |                                               |                |                    in2[0:4]: 0x49-0x4f.7 (7)
    |                                               |                |                      [0]{}: instr 0x49-0x4a.7 (2)
0x40|                           20                  |                |                        local.get: 0x20 (valid) 0x49-0x49.7 (1)
0x40|                              00               |          .     |                        x: 0 0x4a-0x4a.7 (1)
    |                                               |                |                      [1]{}: instr 0x4b-0x4c.7 (2)
0x40|                                 41            |           A    |                        i32.const: 0x41 (valid) 0x4b-0x4b.7 (1)
0x40|                                    01         |            .   |                        n: 1 0x4c-0x4c.7 (1)
    |                                               |                |                      [2]{}: instr 0x4d-0x4d.7 (1)
0x40|                                       6b      |             k  |                        i32.sub: 0x6b (valid) 0x4d-0x4d.7 (1)
    |                                               |                |                      [3]{}: instr 0x4e-0x4f.7 (2)
0x40|                                          10   |              . |                        call: 0x10 (valid) 0x4e-0x4e.7 (1)
0x40|                                             00|               .|                        x: 0 0x4f-0x4f.7 (1)
0x50|0b                                             |.               |                    end: 11 (valid) 0x50-0x50.7 (1)
    |                                               |                |                  [4]{}: in 0x51-0x51.7 (1)
0x50|   0b|                                         | .|             |                    end: 0xb (valid) 0x51-0x51.7 (1)
