$ fq -d wasm dv forward-0.wasm
    |00 01 02 03 04 05 06 07 08 09 0a 0b 0c 0d 0e 0f|0123456789abcdef|.{}: forward-0.wasm (wasm) 0x0-0x52 (82)
0x00|00 61 73 6d                                    |.asm            |  magic: raw bits (valid) 0x0-0x4 (4)
0x00|            01 00 00 00                        |    ....        |  version: 1 0x4-0x8 (4)
    |                                               |                |  sections[0:4]: 0x8-0x52 (74)
    |                                               |                |    [0]{}: section 0x8-0x10 (8)
0x00|                        01                     |        .       |      id: "type_section" (1) 0x8-0x9 (1)
0x00|                           06                  |         .      |      size: 6 (valid) 0x9-0xa (1)
    |                                               |                |      content{}: 0xa-0x10 (6)
    |                                               |                |        ft{}: 0xa-0x10 (6)
0x00|                              01               |          .     |          n: 1 (valid) 0xa-0xb (1)
    |                                               |                |          x[0:1]: 0xb-0x10 (5)
    |                                               |                |            [0]{}: ft 0xb-0x10 (5)
0x00|                                 60            |           `    |              tag: 0x60 (valid) 0xb-0xc (1)
    |                                               |                |              rt1{}: 0xc-0xe (2)
0x00|                                    01         |            .   |                n: 1 (valid) 0xc-0xd (1)
    |                                               |                |                x[0:1]: 0xd-0xe (1)
0x00|                                       7f      |             .  |                  [0]: "i32" (0x7f) t 0xd-0xe (1)
    |                                               |                |              rt2{}: 0xe-0x10 (2)
0x00|                                          01   |              . |                n: 1 (valid) 0xe-0xf (1)
    |                                               |                |                x[0:1]: 0xf-0x10 (1)
0x00|                                             7f|               .|                  [0]: "i32" (0x7f) t 0xf-0x10 (1)
    |                                               |                |    [1]{}: section 0x10-0x15 (5)
0x10|03                                             |.               |      id: "function_section" (3) 0x10-0x11 (1)
0x10|   03                                          | .              |      size: 3 (valid) 0x11-0x12 (1)
    |                                               |                |      content{}: 0x12-0x15 (3)
    |                                               |                |        x{}: 0x12-0x15 (3)
0x10|      02                                       |  .             |          n: 2 (valid) 0x12-0x13 (1)
    |                                               |                |          x[0:2]: 0x13-0x15 (2)
0x10|         00                                    |   .            |            [0]: 0 x (valid) 0x13-0x14 (1)
0x10|            00                                 |    .           |            [1]: 0 x (valid) 0x14-0x15 (1)
    |                                               |                |    [2]{}: section 0x15-0x25 (16)
0x10|               07                              |     .          |      id: "export_section" (7) 0x15-0x16 (1)
0x10|                  0e                           |      .         |      size: 14 (valid) 0x16-0x17 (1)
    |                                               |                |      content{}: 0x17-0x25 (14)
    |                                               |                |        ex{}: 0x17-0x25 (14)
0x10|                     02                        |       .        |          n: 2 (valid) 0x17-0x18 (1)
    |                                               |                |          x[0:2]: 0x18-0x25 (13)
    |                                               |                |            [0]{}: ex 0x18-0x1f (7)
    |                                               |                |              nm{}: 0x18-0x1d (5)
0x10|                        04                     |        .       |                n: 4 (valid) 0x18-0x19 (1)
0x10|                           65 76 65 6e         |         even   |                b: "even" 0x19-0x1d (4)
    |                                               |                |              d{}: 0x1d-0x1f (2)
0x10|                                       00      |             .  |                tag: "funcidx" (0x0) 0x1d-0x1e (1)
0x10|                                          00   |              . |                x: 0 (valid) 0x1e-0x1f (1)
    |                                               |                |            [1]{}: ex 0x1f-0x25 (6)
    |                                               |                |              nm{}: 0x1f-0x23 (4)
0x10|                                             03|               .|                n: 3 (valid) 0x1f-0x20 (1)
0x20|6f 64 64                                       |odd             |                b: "odd" 0x20-0x23 (3)
    |                                               |                |              d{}: 0x23-0x25 (2)
0x20|         00                                    |   .            |                tag: "funcidx" (0x0) 0x23-0x24 (1)
0x20|            01                                 |    .           |                x: 1 (valid) 0x24-0x25 (1)
    |                                               |                |    [3]{}: section 0x25-0x52 (45)
0x20|               0a                              |     .          |      id: "code_section" (10) 0x25-0x26 (1)
0x20|                  2b                           |      +         |      size: 43 (valid) 0x26-0x27 (1)
    |                                               |                |      content{}: 0x27-0x52 (43)
    |                                               |                |        code{}: 0x27-0x52 (43)
0x20|                     02                        |       .        |          n: 2 (valid) 0x27-0x28 (1)
    |                                               |                |          x[0:2]: 0x28-0x52 (42)
    |                                               |                |            [0]{}: code 0x28-0x3d (21)
0x20|                        14                     |        .       |              size: 20 (valid) 0x28-0x29 (1)
    |                                               |                |              code{}: 0x29-0x3d (20)
    |                                               |                |                t{}: 0x29-0x2a (1)
0x20|                           00                  |         .      |                  n: 0 (valid) 0x29-0x2a (1)
    |                                               |                |                  x[0:0]: 0x2a-0x2a (0)
    |                                               |                |                e[0:5]: 0x2a-0x3d (19)
    |                                               |                |                  [0]{}: in 0x2a-0x2c (2)
0x20|                              20               |                |                    opcode: "local.get" (0x20) 0x2a-0x2b (1)
0x20|                                 00            |           .    |                    x: 0 (valid) 0x2b-0x2c (1)
    |                                               |                |                  [1]{}: in 0x2c-0x2e (2)
0x20|                                    41         |            A   |                    opcode: "i32.const" (0x41) 0x2c-0x2d (1)
0x20|                                       00      |             .  |                    n: 0 (valid) 0x2d-0x2e (1)
    |                                               |                |                  [2]{}: in 0x2e-0x2f (1)
0x20|                                          46   |              F |                    opcode: "i32.eq" (0x46) 0x2e-0x2f (1)
    |                                               |                |                  [3]{}: in 0x2f-0x3c (13)
0x20|                                             04|               .|                    opcode: "if" (0x4) 0x2f-0x30 (1)
0x30|7f                                             |.               |                    bt: "i32" (127) 0x30-0x31 (1)
    |                                               |                |                    in1[0:1]: 0x31-0x33 (2)
    |                                               |                |                      [0]{}: instr 0x31-0x33 (2)
0x30|   41                                          | A              |                        opcode: "i32.const" (0x41) 0x31-0x32 (1)
0x30|      01                                       |  .             |                        n: 1 (valid) 0x32-0x33 (1)
0x30|         05                                    |   .            |                    else: 0x5 (valid) 0x33-0x34 (1)
    |                                               |                |                    in2[0:4]: 0x34-0x3b (7)
    |                                               |                |                      [0]{}: instr 0x34-0x36 (2)
0x30|            20                                 |                |                        opcode: "local.get" (0x20) 0x34-0x35 (1)
0x30|               00                              |     .          |                        x: 0 (valid) 0x35-0x36 (1)
    |                                               |                |                      [1]{}: instr 0x36-0x38 (2)
0x30|                  41                           |      A         |                        opcode: "i32.const" (0x41) 0x36-0x37 (1)
0x30|                     01                        |       .        |                        n: 1 (valid) 0x37-0x38 (1)
    |                                               |                |                      [2]{}: instr 0x38-0x39 (1)
0x30|                        6b                     |        k       |                        opcode: "i32.sub" (0x6b) 0x38-0x39 (1)
    |                                               |                |                      [3]{}: instr 0x39-0x3b (2)
0x30|                           10                  |         .      |                        opcode: "call" (0x10) 0x39-0x3a (1)
0x30|                              01               |          .     |                        x: 1 (valid) 0x3a-0x3b (1)
0x30|                                 0b            |           .    |                    end: 0xb (valid) 0x3b-0x3c (1)
    |                                               |                |                  [4]{}: in 0x3c-0x3d (1)
0x30|                                    0b         |            .   |                    opcode: "end" (0xb) 0x3c-0x3d (1)
    |                                               |                |            [1]{}: code 0x3d-0x52 (21)
0x30|                                       14      |             .  |              size: 20 (valid) 0x3d-0x3e (1)
    |                                               |                |              code{}: 0x3e-0x52 (20)
    |                                               |                |                t{}: 0x3e-0x3f (1)
0x30|                                          00   |              . |                  n: 0 (valid) 0x3e-0x3f (1)
    |                                               |                |                  x[0:0]: 0x3f-0x3f (0)
    |                                               |                |                e[0:5]: 0x3f-0x52 (19)
    |                                               |                |                  [0]{}: in 0x3f-0x41 (2)
0x30|                                             20|                |                    opcode: "local.get" (0x20) 0x3f-0x40 (1)
0x40|00                                             |.               |                    x: 0 (valid) 0x40-0x41 (1)
    |                                               |                |                  [1]{}: in 0x41-0x43 (2)
0x40|   41                                          | A              |                    opcode: "i32.const" (0x41) 0x41-0x42 (1)
0x40|      00                                       |  .             |                    n: 0 (valid) 0x42-0x43 (1)
    |                                               |                |                  [2]{}: in 0x43-0x44 (1)
0x40|         46                                    |   F            |                    opcode: "i32.eq" (0x46) 0x43-0x44 (1)
    |                                               |                |                  [3]{}: in 0x44-0x51 (13)
0x40|            04                                 |    .           |                    opcode: "if" (0x4) 0x44-0x45 (1)
0x40|               7f                              |     .          |                    bt: "i32" (127) 0x45-0x46 (1)
    |                                               |                |                    in1[0:1]: 0x46-0x48 (2)
    |                                               |                |                      [0]{}: instr 0x46-0x48 (2)
0x40|                  41                           |      A         |                        opcode: "i32.const" (0x41) 0x46-0x47 (1)
0x40|                     00                        |       .        |                        n: 0 (valid) 0x47-0x48 (1)
0x40|                        05                     |        .       |                    else: 0x5 (valid) 0x48-0x49 (1)
    |                                               |                |                    in2[0:4]: 0x49-0x50 (7)
    |                                               |                |                      [0]{}: instr 0x49-0x4b (2)
0x40|                           20                  |                |                        opcode: "local.get" (0x20) 0x49-0x4a (1)
0x40|                              00               |          .     |                        x: 0 (valid) 0x4a-0x4b (1)
    |                                               |                |                      [1]{}: instr 0x4b-0x4d (2)
0x40|                                 41            |           A    |                        opcode: "i32.const" (0x41) 0x4b-0x4c (1)
0x40|                                    01         |            .   |                        n: 1 (valid) 0x4c-0x4d (1)
    |                                               |                |                      [2]{}: instr 0x4d-0x4e (1)
0x40|                                       6b      |             k  |                        opcode: "i32.sub" (0x6b) 0x4d-0x4e (1)
    |                                               |                |                      [3]{}: instr 0x4e-0x50 (2)
0x40|                                          10   |              . |                        opcode: "call" (0x10) 0x4e-0x4f (1)
0x40|                                             00|               .|                        x: 0 (valid) 0x4f-0x50 (1)
0x50|0b                                             |.               |                    end: 0xb (valid) 0x50-0x51 (1)
    |                                               |                |                  [4]{}: in 0x51-0x52 (1)
0x50|   0b|                                         | .|             |                    opcode: "end" (0xb) 0x51-0x52 (1)
