$ fq -d wasm dv func-1.wasm
    |00 01 02 03 04 05 06 07 08 09 0a 0b 0c 0d 0e 0f|0123456789abcdef|.{}: func-1.wasm (wasm) 0x0-0x49 (73)
0x00|00 61 73 6d                                    |.asm            |  magic: raw bits (valid) 0x0-0x4 (4)
0x00|            01 00 00 00                        |    ....        |  version: 1 0x4-0x8 (4)
    |                                               |                |  sections[0:3]: 0x8-0x49 (65)
    |                                               |                |    [0]{}: section 0x8-0x16 (14)
0x00|                        01                     |        .       |      id: "type_section" (1) 0x8-0x9 (1)
0x00|                           0c                  |         .      |      size: 12 (valid) 0x9-0xa (1)
    |                                               |                |      content{}: 0xa-0x16 (12)
    |                                               |                |        ft{}: 0xa-0x16 (12)
0x00|                              03               |          .     |          n: 3 (valid) 0xa-0xb (1)
    |                                               |                |          x[0:3]: 0xb-0x16 (11)
    |                                               |                |            [0]{}: ft 0xb-0xf (4)
0x00|                                 60            |           `    |              tag: 0x60 (valid) 0xb-0xc (1)
    |                                               |                |              rt1{}: 0xc-0xe (2)
0x00|                                    01         |            .   |                n: 1 (valid) 0xc-0xd (1)
    |                                               |                |                x[0:1]: 0xd-0xe (1)
0x00|                                       7f      |             .  |                  [0]: "i32" (0x7f) t 0xd-0xe (1)
    |                                               |                |              rt2{}: 0xe-0xf (1)
0x00|                                          00   |              . |                n: 0 (valid) 0xe-0xf (1)
    |                                               |                |                x[0:0]: 0xf-0xf (0)
    |                                               |                |            [1]{}: ft 0xf-0x13 (4)
0x00|                                             60|               `|              tag: 0x60 (valid) 0xf-0x10 (1)
    |                                               |                |              rt1{}: 0x10-0x11 (1)
0x10|00                                             |.               |                n: 0 (valid) 0x10-0x11 (1)
    |                                               |                |                x[0:0]: 0x11-0x11 (0)
    |                                               |                |              rt2{}: 0x11-0x13 (2)
0x10|   01                                          | .              |                n: 1 (valid) 0x11-0x12 (1)
    |                                               |                |                x[0:1]: 0x12-0x13 (1)
0x10|      7c                                       |  |             |                  [0]: "f64" (0x7c) t 0x12-0x13 (1)
    |                                               |                |            [2]{}: ft 0x13-0x16 (3)
0x10|         60                                    |   `            |              tag: 0x60 (valid) 0x13-0x14 (1)
    |                                               |                |              rt1{}: 0x14-0x15 (1)
0x10|            00                                 |    .           |                n: 0 (valid) 0x14-0x15 (1)
    |                                               |                |                x[0:0]: 0x15-0x15 (0)
    |                                               |                |              rt2{}: 0x15-0x16 (1)
0x10|               00                              |     .          |                n: 0 (valid) 0x15-0x16 (1)
    |                                               |                |                x[0:0]: 0x16-0x16 (0)
    |                                               |                |    [1]{}: section 0x16-0x1e (8)
0x10|                  03                           |      .         |      id: "function_section" (3) 0x16-0x17 (1)
0x10|                     06                        |       .        |      size: 6 (valid) 0x17-0x18 (1)
    |                                               |                |      content{}: 0x18-0x1e (6)
    |                                               |                |        x{}: 0x18-0x1e (6)
0x10|                        05                     |        .       |          n: 5 (valid) 0x18-0x19 (1)
    |                                               |                |          x[0:5]: 0x19-0x1e (5)
0x10|                           01                  |         .      |            [0]: 1 x (valid) 0x19-0x1a (1)
0x10|                              00               |          .     |            [1]: 0 x (valid) 0x1a-0x1b (1)
0x10|                                 00            |           .    |            [2]: 0 x (valid) 0x1b-0x1c (1)
0x10|                                    01         |            .   |            [3]: 1 x (valid) 0x1c-0x1d (1)
0x10|                                       02      |             .  |            [4]: 2 x (valid) 0x1d-0x1e (1)
    |                                               |                |    [2]{}: section 0x1e-0x49 (43)
0x10|                                          0a   |              . |      id: "code_section" (10) 0x1e-0x1f (1)
0x10|                                             29|               )|      size: 41 (valid) 0x1f-0x20 (1)
    |                                               |                |      content{}: 0x20-0x49 (41)
    |                                               |                |        code{}: 0x20-0x49 (41)
0x20|05                                             |.               |          n: 5 (valid) 0x20-0x21 (1)
    |                                               |                |          x[0:5]: 0x21-0x49 (40)
    |                                               |                |            [0]{}: code 0x21-0x2d (12)
0x20|   0b                                          | .              |              size: 11 (valid) 0x21-0x22 (1)
    |                                               |                |              code{}: 0x22-0x2d (11)
    |                                               |                |                t{}: 0x22-0x23 (1)
0x20|      00                                       |  .             |                  n: 0 (valid) 0x22-0x23 (1)
    |                                               |                |                  x[0:0]: 0x23-0x23 (0)
    |                                               |                |                e[0:2]: 0x23-0x2d (10)
    |                                               |                |                  [0]{}: in 0x23-0x2c (9)
0x20|         44                                    |   D            |                    opcode: "f64.const" (0x44) 0x23-0x24 (1)
0x20|            00 00 00 00 00 00 00 00            |    ........    |                    z: 0 0x24-0x2c (8)
    |                                               |                |                  [1]{}: in 0x2c-0x2d (1)
0x20|                                    0b         |            .   |                    opcode: "end" (0xb) 0x2c-0x2d (1)
    |                                               |                |            [1]{}: code 0x2d-0x30 (3)
0x20|                                       02      |             .  |              size: 2 (valid) 0x2d-0x2e (1)
    |                                               |                |              code{}: 0x2e-0x30 (2)
    |                                               |                |                t{}: 0x2e-0x2f (1)
0x20|                                          00   |              . |                  n: 0 (valid) 0x2e-0x2f (1)
    |                                               |                |                  x[0:0]: 0x2f-0x2f (0)
    |                                               |                |                e[0:1]: 0x2f-0x30 (1)
    |                                               |                |                  [0]{}: in 0x2f-0x30 (1)
0x20|                                             0b|               .|                    opcode: "end" (0xb) 0x2f-0x30 (1)
    |                                               |                |            [2]{}: code 0x30-0x33 (3)
0x30|02                                             |.               |              size: 2 (valid) 0x30-0x31 (1)
    |                                               |                |              code{}: 0x31-0x33 (2)
    |                                               |                |                t{}: 0x31-0x32 (1)
0x30|   00                                          | .              |                  n: 0 (valid) 0x31-0x32 (1)
    |                                               |                |                  x[0:0]: 0x32-0x32 (0)
    |                                               |                |                e[0:1]: 0x32-0x33 (1)
    |                                               |                |                  [0]{}: in 0x32-0x33 (1)
0x30|      0b                                       |  .             |                    opcode: "end" (0xb) 0x32-0x33 (1)
    |                                               |                |            [3]{}: code 0x33-0x3f (12)
0x30|         0b                                    |   .            |              size: 11 (valid) 0x33-0x34 (1)
    |                                               |                |              code{}: 0x34-0x3f (11)
    |                                               |                |                t{}: 0x34-0x35 (1)
0x30|            00                                 |    .           |                  n: 0 (valid) 0x34-0x35 (1)
    |                                               |                |                  x[0:0]: 0x35-0x35 (0)
    |                                               |                |                e[0:2]: 0x35-0x3f (10)
    |                                               |                |                  [0]{}: in 0x35-0x3e (9)
0x30|               44                              |     D          |                    opcode: "f64.const" (0x44) 0x35-0x36 (1)
0x30|                  00 00 00 00 00 00 00 00      |      ........  |                    z: 0 0x36-0x3e (8)
    |                                               |                |                  [1]{}: in 0x3e-0x3f (1)
0x30|                                          0b   |              . |                    opcode: "end" (0xb) 0x3e-0x3f (1)
    |                                               |                |            [4]{}: code 0x3f-0x49 (10)
0x30|                                             09|               .|              size: 9 (valid) 0x3f-0x40 (1)
    |                                               |                |              code{}: 0x40-0x49 (9)
    |                                               |                |                t{}: 0x40-0x41 (1)
0x40|00                                             |.               |                  n: 0 (valid) 0x40-0x41 (1)
    |                                               |                |                  x[0:0]: 0x41-0x41 (0)
    |                                               |                |                e[0:5]: 0x41-0x49 (8)
    |                                               |                |                  [0]{}: in 0x41-0x43 (2)
0x40|   41                                          | A              |                    opcode: "i32.const" (0x41) 0x41-0x42 (1)
0x40|      00                                       |  .             |                    n: 0 (valid) 0x42-0x43 (1)
    |                                               |                |                  [1]{}: in 0x43-0x45 (2)
0x40|         10                                    |   .            |                    opcode: "call" (0x10) 0x43-0x44 (1)
0x40|            02                                 |    .           |                    x: 2 (valid) 0x44-0x45 (1)
    |                                               |                |                  [2]{}: in 0x45-0x47 (2)
0x40|               10                              |     .          |                    opcode: "call" (0x10) 0x45-0x46 (1)
0x40|                  03                           |      .         |                    x: 3 (valid) 0x46-0x47 (1)
    |                                               |                |                  [3]{}: in 0x47-0x48 (1)
0x40|                     1a                        |       .        |                    opcode: "drop" (0x1a) 0x47-0x48 (1)
    |                                               |                |                  [4]{}: in 0x48-0x49 (1)
0x40|                        0b|                    |        .|      |                    opcode: "end" (0xb) 0x48-0x49 (1)
