$ fq -d wasm dv func_ptrs-0.wasm
    |00 01 02 03 04 05 06 07 08 09 0a 0b 0c 0d 0e 0f|0123456789abcdef|.{}: func_ptrs-0.wasm (wasm) 0x0-0x89 (137)
0x00|00 61 73 6d                                    |.asm            |  magic: raw bits (valid) 0x0-0x4 (4)
0x00|            01 00 00 00                        |    ....        |  version: 1 0x4-0x8 (4)
    |                                               |                |  sections[0:5]: 0x8-0x89 (129)
    |                                               |                |    [0]{}: section 0x8-0x25 (29)
0x00|                        01                     |        .       |      id: "type_section" (1) 0x8-0x9 (1)
0x00|                           1b                  |         .      |      size: 27 (valid) 0x9-0xa (1)
    |                                               |                |      content{}: 0xa-0x25 (27)
    |                                               |                |        ft{}: 0xa-0x25 (27)
0x00|                              07               |          .     |          n: 7 (valid) 0xa-0xb (1)
    |                                               |                |          x[0:7]: 0xb-0x25 (26)
    |                                               |                |            [0]{}: ft 0xb-0xe (3)
0x00|                                 60            |           `    |              tag: 0x60 (valid) 0xb-0xc (1)
    |                                               |                |              rt1{}: 0xc-0xd (1)
0x00|                                    00         |            .   |                n: 0 (valid) 0xc-0xd (1)
    |                                               |                |                x[0:0]: 0xd-0xd (0)
    |                                               |                |              rt2{}: 0xd-0xe (1)
0x00|                                       00      |             .  |                n: 0 (valid) 0xd-0xe (1)
    |                                               |                |                x[0:0]: 0xe-0xe (0)
    |                                               |                |            [1]{}: ft 0xe-0x11 (3)
0x00|                                          60   |              ` |              tag: 0x60 (valid) 0xe-0xf (1)
    |                                               |                |              rt1{}: 0xf-0x10 (1)
0x00|                                             00|               .|                n: 0 (valid) 0xf-0x10 (1)
    |                                               |                |                x[0:0]: 0x10-0x10 (0)
    |                                               |                |              rt2{}: 0x10-0x11 (1)
0x10|00                                             |.               |                n: 0 (valid) 0x10-0x11 (1)
    |                                               |                |                x[0:0]: 0x11-0x11 (0)
    |                                               |                |            [2]{}: ft 0x11-0x14 (3)
0x10|   60                                          | `              |              tag: 0x60 (valid) 0x11-0x12 (1)
    |                                               |                |              rt1{}: 0x12-0x13 (1)
0x10|      00                                       |  .             |                n: 0 (valid) 0x12-0x13 (1)
    |                                               |                |                x[0:0]: 0x13-0x13 (0)
    |                                               |                |              rt2{}: 0x13-0x14 (1)
0x10|         00                                    |   .            |                n: 0 (valid) 0x13-0x14 (1)
    |                                               |                |                x[0:0]: 0x14-0x14 (0)
    |                                               |                |            [3]{}: ft 0x14-0x18 (4)
0x10|            60                                 |    `           |              tag: 0x60 (valid) 0x14-0x15 (1)
    |                                               |                |              rt1{}: 0x15-0x16 (1)
0x10|               00                              |     .          |                n: 0 (valid) 0x15-0x16 (1)
    |                                               |                |                x[0:0]: 0x16-0x16 (0)
    |                                               |                |              rt2{}: 0x16-0x18 (2)
0x10|                  01                           |      .         |                n: 1 (valid) 0x16-0x17 (1)
    |                                               |                |                x[0:1]: 0x17-0x18 (1)
0x10|                     7f                        |       .        |                  [0]: "i32" (0x7f) t 0x17-0x18 (1)
    |                                               |                |            [4]{}: ft 0x18-0x1c (4)
0x10|                        60                     |        `       |              tag: 0x60 (valid) 0x18-0x19 (1)
    |                                               |                |              rt1{}: 0x19-0x1a (1)
0x10|                           00                  |         .      |                n: 0 (valid) 0x19-0x1a (1)
    |                                               |                |                x[0:0]: 0x1a-0x1a (0)
    |                                               |                |              rt2{}: 0x1a-0x1c (2)
0x10|                              01               |          .     |                n: 1 (valid) 0x1a-0x1b (1)
    |                                               |                |                x[0:1]: 0x1b-0x1c (1)
0x10|                                 7f            |           .    |                  [0]: "i32" (0x7f) t 0x1b-0x1c (1)
    |                                               |                |            [5]{}: ft 0x1c-0x21 (5)
0x10|                                    60         |            `   |              tag: 0x60 (valid) 0x1c-0x1d (1)
    |                                               |                |              rt1{}: 0x1d-0x1f (2)
0x10|                                       01      |             .  |                n: 1 (valid) 0x1d-0x1e (1)
    |                                               |                |                x[0:1]: 0x1e-0x1f (1)
0x10|                                          7f   |              . |                  [0]: "i32" (0x7f) t 0x1e-0x1f (1)
    |                                               |                |              rt2{}: 0x1f-0x21 (2)
0x10|                                             01|               .|                n: 1 (valid) 0x1f-0x20 (1)
    |                                               |                |                x[0:1]: 0x20-0x21 (1)
0x20|7f                                             |.               |                  [0]: "i32" (0x7f) t 0x20-0x21 (1)
    |                                               |                |            [6]{}: ft 0x21-0x25 (4)
0x20|   60                                          | `              |              tag: 0x60 (valid) 0x21-0x22 (1)
    |                                               |                |              rt1{}: 0x22-0x24 (2)
0x20|      01                                       |  .             |                n: 1 (valid) 0x22-0x23 (1)
    |                                               |                |                x[0:1]: 0x23-0x24 (1)
0x20|         7f                                    |   .            |                  [0]: "i32" (0x7f) t 0x23-0x24 (1)
    |                                               |                |              rt2{}: 0x24-0x25 (1)
0x20|            00                                 |    .           |                n: 0 (valid) 0x24-0x25 (1)
    |                                               |                |                x[0:0]: 0x25-0x25 (0)
    |                                               |                |    [1]{}: section 0x25-0x3d (24)
0x20|               02                              |     .          |      id: "import_section" (2) 0x25-0x26 (1)
0x20|                  16                           |      .         |      size: 22 (valid) 0x26-0x27 (1)
    |                                               |                |      content{}: 0x27-0x3d (22)
    |                                               |                |        im{}: 0x27-0x3d (22)
0x20|                     01                        |       .        |          n: 1 (valid) 0x27-0x28 (1)
    |                                               |                |          x[0:1]: 0x28-0x3d (21)
    |                                               |                |            [0]{}: im 0x28-0x3d (21)
    |                                               |                |              mod{}: 0x28-0x31 (9)
0x20|                        08                     |        .       |                n: 8 (valid) 0x28-0x29 (1)
0x20|                           73 70 65 63 74 65 73|         spectes|                b: "spectest" 0x29-0x31 (8)
0x30|74                                             |t               |
    |                                               |                |              nm{}: 0x31-0x3b (10)
0x30|   09                                          | .              |                n: 9 (valid) 0x31-0x32 (1)
0x30|      70 72 69 6e 74 5f 69 33 32               |  print_i32     |                b: "print_i32" 0x32-0x3b (9)
    |                                               |                |              d{}: 0x3b-0x3d (2)
0x30|                                 00            |           .    |                tag: "func" (0x0) 0x3b-0x3c (1)
0x30|                                    06         |            .   |                x: 6 (valid) 0x3c-0x3d (1)
    |                                               |                |    [2]{}: section 0x3d-0x46 (9)
0x30|                                       03      |             .  |      id: "function_section" (3) 0x3d-0x3e (1)
0x30|                                          07   |              . |      size: 7 (valid) 0x3e-0x3f (1)
    |                                               |                |      content{}: 0x3f-0x46 (7)
    |                                               |                |        x{}: 0x3f-0x46 (7)
0x30|                                             06|               .|          n: 6 (valid) 0x3f-0x40 (1)
    |                                               |                |          x[0:6]: 0x40-0x46 (6)
0x40|00                                             |.               |            [0]: 0 x (valid) 0x40-0x41 (1)
0x40|   01                                          | .              |            [1]: 1 x (valid) 0x41-0x42 (1)
0x40|      04                                       |  .             |            [2]: 4 x (valid) 0x42-0x43 (1)
0x40|         05                                    |   .            |            [3]: 5 x (valid) 0x43-0x44 (1)
0x40|            05                                 |    .           |            [4]: 5 x (valid) 0x44-0x45 (1)
0x40|               06                              |     .          |            [5]: 6 x (valid) 0x45-0x46 (1)
    |                                               |                |    [3]{}: section 0x46-0x64 (30)
0x40|                  07                           |      .         |      id: "export_section" (7) 0x46-0x47 (1)
0x40|                     1c                        |       .        |      size: 28 (valid) 0x47-0x48 (1)
    |                                               |                |      content{}: 0x48-0x64 (28)
    |                                               |                |        ex{}: 0x48-0x64 (28)
0x40|                        04                     |        .       |          n: 4 (valid) 0x48-0x49 (1)
    |                                               |                |          x[0:4]: 0x49-0x64 (27)
    |                                               |                |            [0]{}: ex 0x49-0x4f (6)
    |                                               |                |              nm{}: 0x49-0x4d (4)
0x40|                           03                  |         .      |                n: 3 (valid) 0x49-0x4a (1)
0x40|                              6f 6e 65         |          one   |                b: "one" 0x4a-0x4d (3)
    |                                               |                |              d{}: 0x4d-0x4f (2)
0x40|                                       00      |             .  |                tag: "funcidx" (0x0) 0x4d-0x4e (1)
0x40|                                          03   |              . |                x: 3 (valid) 0x4e-0x4f (1)
    |                                               |                |            [1]{}: ex 0x4f-0x55 (6)
    |                                               |                |              nm{}: 0x4f-0x53 (4)
0x40|                                             03|               .|                n: 3 (valid) 0x4f-0x50 (1)
0x50|74 77 6f                                       |two             |                b: "two" 0x50-0x53 (3)
    |                                               |                |              d{}: 0x53-0x55 (2)
0x50|         00                                    |   .            |                tag: "funcidx" (0x0) 0x53-0x54 (1)
0x50|            04                                 |    .           |                x: 4 (valid) 0x54-0x55 (1)
    |                                               |                |            [2]{}: ex 0x55-0x5d (8)
    |                                               |                |              nm{}: 0x55-0x5b (6)
0x50|               05                              |     .          |                n: 5 (valid) 0x55-0x56 (1)
0x50|                  74 68 72 65 65               |      three     |                b: "three" 0x56-0x5b (5)
    |                                               |                |              d{}: 0x5b-0x5d (2)
0x50|                                 00            |           .    |                tag: "funcidx" (0x0) 0x5b-0x5c (1)
0x50|                                    05         |            .   |                x: 5 (valid) 0x5c-0x5d (1)
    |                                               |                |            [3]{}: ex 0x5d-0x64 (7)
    |                                               |                |              nm{}: 0x5d-0x62 (5)
0x50|                                       04      |             .  |                n: 4 (valid) 0x5d-0x5e (1)
0x50|                                          66 6f|              fo|                b: "four" 0x5e-0x62 (4)
0x60|75 72                                          |ur              |
    |                                               |                |              d{}: 0x62-0x64 (2)
0x60|      00                                       |  .             |                tag: "funcidx" (0x0) 0x62-0x63 (1)
0x60|         06                                    |   .            |                x: 6 (valid) 0x63-0x64 (1)
    |                                               |                |    [4]{}: section 0x64-0x89 (37)
0x60|            0a                                 |    .           |      id: "code_section" (10) 0x64-0x65 (1)
0x60|               23                              |     #          |      size: 35 (valid) 0x65-0x66 (1)
    |                                               |                |      content{}: 0x66-0x89 (35)
    |                                               |                |        code{}: 0x66-0x89 (35)
0x60|                  06                           |      .         |          n: 6 (valid) 0x66-0x67 (1)
    |                                               |                |          x[0:6]: 0x67-0x89 (34)
    |                                               |                |            [0]{}: code 0x67-0x6a (3)
0x60|                     02                        |       .        |              size: 2 (valid) 0x67-0x68 (1)
    |                                               |                |              code{}: 0x68-0x6a (2)
    |                                               |                |                t{}: 0x68-0x69 (1)
0x60|                        00                     |        .       |                  n: 0 (valid) 0x68-0x69 (1)
    |                                               |                |                  x[0:0]: 0x69-0x69 (0)
    |                                               |                |                e[0:1]: 0x69-0x6a (1)
    |                                               |                |                  [0]{}: in 0x69-0x6a (1)
0x60|                           0b                  |         .      |                    opcode: "end" (0xb) 0x69-0x6a (1)
    |                                               |                |            [1]{}: code 0x6a-0x6d (3)
0x60|                              02               |          .     |              size: 2 (valid) 0x6a-0x6b (1)
    |                                               |                |              code{}: 0x6b-0x6d (2)
    |                                               |                |                t{}: 0x6b-0x6c (1)
0x60|                                 00            |           .    |                  n: 0 (valid) 0x6b-0x6c (1)
    |                                               |                |                  x[0:0]: 0x6c-0x6c (0)
    |                                               |                |                e[0:1]: 0x6c-0x6d (1)
    |                                               |                |                  [0]{}: in 0x6c-0x6d (1)
0x60|                                    0b         |            .   |                    opcode: "end" (0xb) 0x6c-0x6d (1)
    |                                               |                |            [2]{}: code 0x6d-0x72 (5)
0x60|                                       04      |             .  |              size: 4 (valid) 0x6d-0x6e (1)
    |                                               |                |              code{}: 0x6e-0x72 (4)
    |                                               |                |                t{}: 0x6e-0x6f (1)
0x60|                                          00   |              . |                  n: 0 (valid) 0x6e-0x6f (1)
    |                                               |                |                  x[0:0]: 0x6f-0x6f (0)
    |                                               |                |                e[0:2]: 0x6f-0x72 (3)
    |                                               |                |                  [0]{}: in 0x6f-0x71 (2)
0x60|                                             41|               A|                    opcode: "i32.const" (0x41) 0x6f-0x70 (1)
0x70|0d                                             |.               |                    n: 13 (valid) 0x70-0x71 (1)
    |                                               |                |                  [1]{}: in 0x71-0x72 (1)
0x70|   0b                                          | .              |                    opcode: "end" (0xb) 0x71-0x72 (1)
    |                                               |                |            [3]{}: code 0x72-0x7a (8)
0x70|      07                                       |  .             |              size: 7 (valid) 0x72-0x73 (1)
    |                                               |                |              code{}: 0x73-0x7a (7)
    |                                               |                |                t{}: 0x73-0x74 (1)
0x70|         00                                    |   .            |                  n: 0 (valid) 0x73-0x74 (1)
    |                                               |                |                  x[0:0]: 0x74-0x74 (0)
    |                                               |                |                e[0:4]: 0x74-0x7a (6)
    |                                               |                |                  [0]{}: in 0x74-0x76 (2)
0x70|            20                                 |                |                    opcode: "local.get" (0x20) 0x74-0x75 (1)
0x70|               00                              |     .          |                    x: 0 (valid) 0x75-0x76 (1)
    |                                               |                |                  [1]{}: in 0x76-0x78 (2)
0x70|                  41                           |      A         |                    opcode: "i32.const" (0x41) 0x76-0x77 (1)
0x70|                     01                        |       .        |                    n: 1 (valid) 0x77-0x78 (1)
    |                                               |                |                  [2]{}: in 0x78-0x79 (1)
0x70|                        6a                     |        j       |                    opcode: "i32.add" (0x6a) 0x78-0x79 (1)
    |                                               |                |                  [3]{}: in 0x79-0x7a (1)
0x70|                           0b                  |         .      |                    opcode: "end" (0xb) 0x79-0x7a (1)
    |                                               |                |            [4]{}: code 0x7a-0x82 (8)
0x70|                              07               |          .     |              size: 7 (valid) 0x7a-0x7b (1)
    |                                               |                |              code{}: 0x7b-0x82 (7)
    |                                               |                |                t{}: 0x7b-0x7c (1)
0x70|                                 00            |           .    |                  n: 0 (valid) 0x7b-0x7c (1)
    |                                               |                |                  x[0:0]: 0x7c-0x7c (0)
    |                                               |                |                e[0:4]: 0x7c-0x82 (6)
    |                                               |                |                  [0]{}: in 0x7c-0x7e (2)
0x70|                                    20         |                |                    opcode: "local.get" (0x20) 0x7c-0x7d (1)
0x70|                                       00      |             .  |                    x: 0 (valid) 0x7d-0x7e (1)
    |                                               |                |                  [1]{}: in 0x7e-0x80 (2)
0x70|                                          41   |              A |                    opcode: "i32.const" (0x41) 0x7e-0x7f (1)
0x70|                                             02|               .|                    n: 2 (valid) 0x7f-0x80 (1)
    |                                               |                |                  [2]{}: in 0x80-0x81 (1)
0x80|6b                                             |k               |                    opcode: "i32.sub" (0x6b) 0x80-0x81 (1)
    |                                               |                |                  [3]{}: in 0x81-0x82 (1)
0x80|   0b                                          | .              |                    opcode: "end" (0xb) 0x81-0x82 (1)
    |                                               |                |            [5]{}: code 0x82-0x89 (7)
0x80|      06                                       |  .             |              size: 6 (valid) 0x82-0x83 (1)
    |                                               |                |              code{}: 0x83-0x89 (6)
    |                                               |                |                t{}: 0x83-0x84 (1)
0x80|         00                                    |   .            |                  n: 0 (valid) 0x83-0x84 (1)
    |                                               |                |                  x[0:0]: 0x84-0x84 (0)
    |                                               |                |                e[0:3]: 0x84-0x89 (5)
    |                                               |                |                  [0]{}: in 0x84-0x86 (2)
0x80|            20                                 |                |                    opcode: "local.get" (0x20) 0x84-0x85 (1)
0x80|               00                              |     .          |                    x: 0 (valid) 0x85-0x86 (1)
    |                                               |                |                  [1]{}: in 0x86-0x88 (2)
0x80|                  10                           |      .         |                    opcode: "call" (0x10) 0x86-0x87 (1)
0x80|                     00                        |       .        |                    x: 0 (valid) 0x87-0x88 (1)
    |                                               |                |                  [2]{}: in 0x88-0x89 (1)
0x80|                        0b|                    |        .|      |                    opcode: "end" (0xb) 0x88-0x89 (1)
