$ fq -d wasm dv func_ptrs-0.wasm
    |00 01 02 03 04 05 06 07 08 09 0a 0b 0c 0d 0e 0f|0123456789abcdef|.{}: func_ptrs-0.wasm (wasm) 0x0-0x88.7 (137)
0x00|00 61 73 6d                                    |.asm            |  magic: raw bits (valid) 0x0-0x3.7 (4)
0x00|            01 00 00 00                        |    ....        |  version: 1 0x4-0x7.7 (4)
    |                                               |                |  sections[0:5]: 0x8-0x88.7 (129)
    |                                               |                |    [0]{}: section 0x8-0x24.7 (29)
0x00|                        01                     |        .       |      id: "type section" (1) 0x8-0x8.7 (1)
0x00|                           1b                  |         .      |      size: 27 0x9-0x9.7 (1)
    |                                               |                |      content{}: 0xa-0x24.7 (27)
    |                                               |                |        ft{}: 0xa-0x24.7 (27)
0x00|                              07               |          .     |          n: 7 0xa-0xa.7 (1)
    |                                               |                |          x[0:7]: 0xb-0x24.7 (26)
    |                                               |                |            [0]{}: ft 0xb-0xd.7 (3)
0x00|                                 60            |           `    |              tag: 0x60 (valid) 0xb-0xb.7 (1)
    |                                               |                |              rt1{}: 0xc-0xc.7 (1)
0x00|                                    00         |            .   |                n: 0 0xc-0xc.7 (1)
    |                                               |                |                x[0:0]: 0xd-NA (0)
    |                                               |                |              rt2{}: 0xd-0xd.7 (1)
0x00|                                       00      |             .  |                n: 0 0xd-0xd.7 (1)
    |                                               |                |                x[0:0]: 0xe-NA (0)
    |                                               |                |            [1]{}: ft 0xe-0x10.7 (3)
0x00|                                          60   |              ` |              tag: 0x60 (valid) 0xe-0xe.7 (1)
    |                                               |                |              rt1{}: 0xf-0xf.7 (1)
0x00|                                             00|               .|                n: 0 0xf-0xf.7 (1)
    |                                               |                |                x[0:0]: 0x10-NA (0)
    |                                               |                |              rt2{}: 0x10-0x10.7 (1)
0x10|00                                             |.               |                n: 0 0x10-0x10.7 (1)
    |                                               |                |                x[0:0]: 0x11-NA (0)
    |                                               |                |            [2]{}: ft 0x11-0x13.7 (3)
0x10|   60                                          | `              |              tag: 0x60 (valid) 0x11-0x11.7 (1)
    |                                               |                |              rt1{}: 0x12-0x12.7 (1)
0x10|      00                                       |  .             |                n: 0 0x12-0x12.7 (1)
    |                                               |                |                x[0:0]: 0x13-NA (0)
    |                                               |                |              rt2{}: 0x13-0x13.7 (1)
0x10|         00                                    |   .            |                n: 0 0x13-0x13.7 (1)
    |                                               |                |                x[0:0]: 0x14-NA (0)
    |                                               |                |            [3]{}: ft 0x14-0x17.7 (4)
0x10|            60                                 |    `           |              tag: 0x60 (valid) 0x14-0x14.7 (1)
    |                                               |                |              rt1{}: 0x15-0x15.7 (1)
0x10|               00                              |     .          |                n: 0 0x15-0x15.7 (1)
    |                                               |                |                x[0:0]: 0x16-NA (0)
    |                                               |                |              rt2{}: 0x16-0x17.7 (2)
0x10|                  01                           |      .         |                n: 1 0x16-0x16.7 (1)
    |                                               |                |                x[0:1]: 0x17-0x17.7 (1)
0x10|                     7f                        |       .        |                  [0]: "i32" (0x7f) t 0x17-0x17.7 (1)
    |                                               |                |            [4]{}: ft 0x18-0x1b.7 (4)
0x10|                        60                     |        `       |              tag: 0x60 (valid) 0x18-0x18.7 (1)
    |                                               |                |              rt1{}: 0x19-0x19.7 (1)
0x10|                           00                  |         .      |                n: 0 0x19-0x19.7 (1)
    |                                               |                |                x[0:0]: 0x1a-NA (0)
    |                                               |                |              rt2{}: 0x1a-0x1b.7 (2)
0x10|                              01               |          .     |                n: 1 0x1a-0x1a.7 (1)
    |                                               |                |                x[0:1]: 0x1b-0x1b.7 (1)
0x10|                                 7f            |           .    |                  [0]: "i32" (0x7f) t 0x1b-0x1b.7 (1)
    |                                               |                |            [5]{}: ft 0x1c-0x20.7 (5)
0x10|                                    60         |            `   |              tag: 0x60 (valid) 0x1c-0x1c.7 (1)
    |                                               |                |              rt1{}: 0x1d-0x1e.7 (2)
0x10|                                       01      |             .  |                n: 1 0x1d-0x1d.7 (1)
    |                                               |                |                x[0:1]: 0x1e-0x1e.7 (1)
0x10|                                          7f   |              . |                  [0]: "i32" (0x7f) t 0x1e-0x1e.7 (1)
    |                                               |                |              rt2{}: 0x1f-0x20.7 (2)
0x10|                                             01|               .|                n: 1 0x1f-0x1f.7 (1)
    |                                               |                |                x[0:1]: 0x20-0x20.7 (1)
0x20|7f                                             |.               |                  [0]: "i32" (0x7f) t 0x20-0x20.7 (1)
    |                                               |                |            [6]{}: ft 0x21-0x24.7 (4)
0x20|   60                                          | `              |              tag: 0x60 (valid) 0x21-0x21.7 (1)
    |                                               |                |              rt1{}: 0x22-0x23.7 (2)
0x20|      01                                       |  .             |                n: 1 0x22-0x22.7 (1)
    |                                               |                |                x[0:1]: 0x23-0x23.7 (1)
0x20|         7f                                    |   .            |                  [0]: "i32" (0x7f) t 0x23-0x23.7 (1)
    |                                               |                |              rt2{}: 0x24-0x24.7 (1)
0x20|            00                                 |    .           |                n: 0 0x24-0x24.7 (1)
    |                                               |                |                x[0:0]: 0x25-NA (0)
    |                                               |                |    [1]{}: section 0x25-0x3c.7 (24)
0x20|               02                              |     .          |      id: "import section" (2) 0x25-0x25.7 (1)
0x20|                  16                           |      .         |      size: 22 0x26-0x26.7 (1)
    |                                               |                |      content{}: 0x27-0x3c.7 (22)
    |                                               |                |        im{}: 0x27-0x3c.7 (22)
0x20|                     01                        |       .        |          n: 1 0x27-0x27.7 (1)
    |                                               |                |          x[0:1]: 0x28-0x3c.7 (21)
    |                                               |                |            [0]{}: im 0x28-0x3c.7 (21)
    |                                               |                |              mod{}: 0x28-0x30.7 (9)
0x20|                        08                     |        .       |                n: 8 0x28-0x28.7 (1)
0x20|                           73 70 65 63 74 65 73|         spectes|                b: "spectest" 0x29-0x30.7 (8)
0x30|74                                             |t               |
    |                                               |                |              nm{}: 0x31-0x3a.7 (10)
0x30|   09                                          | .              |                n: 9 0x31-0x31.7 (1)
0x30|      70 72 69 6e 74 5f 69 33 32               |  print_i32     |                b: "print_i32" 0x32-0x3a.7 (9)
    |                                               |                |              d{}: 0x3b-0x3c.7 (2)
0x30|                                 00            |           .    |                tag: "func" (0x0) 0x3b-0x3b.7 (1)
0x30|                                    06         |            .   |                x: 6 0x3c-0x3c.7 (1)
    |                                               |                |    [2]{}: section 0x3d-0x45.7 (9)
0x30|                                       03      |             .  |      id: "function section" (3) 0x3d-0x3d.7 (1)
0x30|                                          07   |              . |      size: 7 0x3e-0x3e.7 (1)
    |                                               |                |      content{}: 0x3f-0x45.7 (7)
    |                                               |                |        x{}: 0x3f-0x45.7 (7)
0x30|                                             06|               .|          n: 6 0x3f-0x3f.7 (1)
    |                                               |                |          x[0:6]: 0x40-0x45.7 (6)
0x40|00                                             |.               |            [0]: 0 x 0x40-0x40.7 (1)
0x40|   01                                          | .              |            [1]: 1 x 0x41-0x41.7 (1)
0x40|      04                                       |  .             |            [2]: 4 x 0x42-0x42.7 (1)
0x40|         05                                    |   .            |            [3]: 5 x 0x43-0x43.7 (1)
0x40|            05                                 |    .           |            [4]: 5 x 0x44-0x44.7 (1)
0x40|               06                              |     .          |            [5]: 6 x 0x45-0x45.7 (1)
    |                                               |                |    [3]{}: section 0x46-0x63.7 (30)
0x40|                  07                           |      .         |      id: "export section" (7) 0x46-0x46.7 (1)
0x40|                     1c                        |       .        |      size: 28 0x47-0x47.7 (1)
    |                                               |                |      content{}: 0x48-0x63.7 (28)
    |                                               |                |        ex{}: 0x48-0x63.7 (28)
0x40|                        04                     |        .       |          n: 4 0x48-0x48.7 (1)
    |                                               |                |          x[0:4]: 0x49-0x63.7 (27)
    |                                               |                |            [0]{}: ex 0x49-0x4e.7 (6)
    |                                               |                |              nm{}: 0x49-0x4c.7 (4)
0x40|                           03                  |         .      |                n: 3 0x49-0x49.7 (1)
0x40|                              6f 6e 65         |          one   |                b: "one" 0x4a-0x4c.7 (3)
    |                                               |                |              d{}: 0x4d-0x4e.7 (2)
0x40|                                       00      |             .  |                tag: "funcidx" (0x0) 0x4d-0x4d.7 (1)
0x40|                                          03   |              . |                x: 3 0x4e-0x4e.7 (1)
    |                                               |                |            [1]{}: ex 0x4f-0x54.7 (6)
    |                                               |                |              nm{}: 0x4f-0x52.7 (4)
0x40|                                             03|               .|                n: 3 0x4f-0x4f.7 (1)
0x50|74 77 6f                                       |two             |                b: "two" 0x50-0x52.7 (3)
    |                                               |                |              d{}: 0x53-0x54.7 (2)
0x50|         00                                    |   .            |                tag: "funcidx" (0x0) 0x53-0x53.7 (1)
0x50|            04                                 |    .           |                x: 4 0x54-0x54.7 (1)
    |                                               |                |            [2]{}: ex 0x55-0x5c.7 (8)
    |                                               |                |              nm{}: 0x55-0x5a.7 (6)
0x50|               05                              |     .          |                n: 5 0x55-0x55.7 (1)
0x50|                  74 68 72 65 65               |      three     |                b: "three" 0x56-0x5a.7 (5)
    |                                               |                |              d{}: 0x5b-0x5c.7 (2)
0x50|                                 00            |           .    |                tag: "funcidx" (0x0) 0x5b-0x5b.7 (1)
0x50|                                    05         |            .   |                x: 5 0x5c-0x5c.7 (1)
    |                                               |                |            [3]{}: ex 0x5d-0x63.7 (7)
    |                                               |                |              nm{}: 0x5d-0x61.7 (5)
0x50|                                       04      |             .  |                n: 4 0x5d-0x5d.7 (1)
0x50|                                          66 6f|              fo|                b: "four" 0x5e-0x61.7 (4)
0x60|75 72                                          |ur              |
    |                                               |                |              d{}: 0x62-0x63.7 (2)
0x60|      00                                       |  .             |                tag: "funcidx" (0x0) 0x62-0x62.7 (1)
0x60|         06                                    |   .            |                x: 6 0x63-0x63.7 (1)
    |                                               |                |    [4]{}: section 0x64-0x88.7 (37)
0x60|            0a                                 |    .           |      id: "code section" (10) 0x64-0x64.7 (1)
0x60|               23                              |     #          |      size: 35 0x65-0x65.7 (1)
    |                                               |                |      content{}: 0x66-0x88.7 (35)
    |                                               |                |        code{}: 0x66-0x88.7 (35)
0x60|                  06                           |      .         |          n: 6 0x66-0x66.7 (1)
    |                                               |                |          x[0:6]: 0x67-0x88.7 (34)
    |                                               |                |            [0]{}: code 0x67-0x69.7 (3)
0x60|                     02                        |       .        |              size: 2 0x67-0x67.7 (1)
    |                                               |                |              code{}: 0x68-0x69.7 (2)
    |                                               |                |                t{}: 0x68-0x68.7 (1)
0x60|                        00                     |        .       |                  n: 0 0x68-0x68.7 (1)
    |                                               |                |                  x[0:0]: 0x69-NA (0)
    |                                               |                |                e[0:1]: 0x69-0x69.7 (1)
    |                                               |                |                  [0]{}: in 0x69-0x69.7 (1)
0x60|                           0b                  |         .      |                    end: 0xb (valid) 0x69-0x69.7 (1)
    |                                               |                |            [1]{}: code 0x6a-0x6c.7 (3)
0x60|                              02               |          .     |              size: 2 0x6a-0x6a.7 (1)
    |                                               |                |              code{}: 0x6b-0x6c.7 (2)
    |                                               |                |                t{}: 0x6b-0x6b.7 (1)
0x60|                                 00            |           .    |                  n: 0 0x6b-0x6b.7 (1)
    |                                               |                |                  x[0:0]: 0x6c-NA (0)
    |                                               |                |                e[0:1]: 0x6c-0x6c.7 (1)
    |                                               |                |                  [0]{}: in 0x6c-0x6c.7 (1)
0x60|                                    0b         |            .   |                    end: 0xb (valid) 0x6c-0x6c.7 (1)
    |                                               |                |            [2]{}: code 0x6d-0x71.7 (5)
0x60|                                       04      |             .  |              size: 4 0x6d-0x6d.7 (1)
    |                                               |                |              code{}: 0x6e-0x71.7 (4)
    |                                               |                |                t{}: 0x6e-0x6e.7 (1)
0x60|                                          00   |              . |                  n: 0 0x6e-0x6e.7 (1)
    |                                               |                |                  x[0:0]: 0x6f-NA (0)
    |                                               |                |                e[0:2]: 0x6f-0x71.7 (3)
    |                                               |                |                  [0]{}: in 0x6f-0x70.7 (2)
0x60|                                             41|               A|                    i32.const: 0x41 (valid) 0x6f-0x6f.7 (1)
0x70|0d                                             |.               |                    n: 13 0x70-0x70.7 (1)
    |                                               |                |                  [1]{}: in 0x71-0x71.7 (1)
0x70|   0b                                          | .              |                    end: 0xb (valid) 0x71-0x71.7 (1)
    |                                               |                |            [3]{}: code 0x72-0x79.7 (8)
0x70|      07                                       |  .             |              size: 7 0x72-0x72.7 (1)
    |                                               |                |              code{}: 0x73-0x79.7 (7)
    |                                               |                |                t{}: 0x73-0x73.7 (1)
0x70|         00                                    |   .            |                  n: 0 0x73-0x73.7 (1)
    |                                               |                |                  x[0:0]: 0x74-NA (0)
    |                                               |                |                e[0:4]: 0x74-0x79.7 (6)
    |                                               |                |                  [0]{}: in 0x74-0x75.7 (2)
0x70|            20                                 |                |                    local.get: 0x20 (valid) 0x74-0x74.7 (1)
0x70|               00                              |     .          |                    x: 0 0x75-0x75.7 (1)
    |                                               |                |                  [1]{}: in 0x76-0x77.7 (2)
0x70|                  41                           |      A         |                    i32.const: 0x41 (valid) 0x76-0x76.7 (1)
0x70|                     01                        |       .        |                    n: 1 0x77-0x77.7 (1)
    |                                               |                |                  [2]{}: in 0x78-0x78.7 (1)
0x70|                        6a                     |        j       |                    i32.add: 0x6a (valid) 0x78-0x78.7 (1)
    |                                               |                |                  [3]{}: in 0x79-0x79.7 (1)
0x70|                           0b                  |         .      |                    end: 0xb (valid) 0x79-0x79.7 (1)
    |                                               |                |            [4]{}: code 0x7a-0x81.7 (8)
0x70|                              07               |          .     |              size: 7 0x7a-0x7a.7 (1)
    |                                               |                |              code{}: 0x7b-0x81.7 (7)
    |                                               |                |                t{}: 0x7b-0x7b.7 (1)
0x70|                                 00            |           .    |                  n: 0 0x7b-0x7b.7 (1)
    |                                               |                |                  x[0:0]: 0x7c-NA (0)
    |                                               |                |                e[0:4]: 0x7c-0x81.7 (6)
    |                                               |                |                  [0]{}: in 0x7c-0x7d.7 (2)
0x70|                                    20         |                |                    local.get: 0x20 (valid) 0x7c-0x7c.7 (1)
0x70|                                       00      |             .  |                    x: 0 0x7d-0x7d.7 (1)
    |                                               |                |                  [1]{}: in 0x7e-0x7f.7 (2)
0x70|                                          41   |              A |                    i32.const: 0x41 (valid) 0x7e-0x7e.7 (1)
0x70|                                             02|               .|                    n: 2 0x7f-0x7f.7 (1)
    |                                               |                |                  [2]{}: in 0x80-0x80.7 (1)
0x80|6b                                             |k               |                    i32.sub: 0x6b (valid) 0x80-0x80.7 (1)
    |                                               |                |                  [3]{}: in 0x81-0x81.7 (1)
0x80|   0b                                          | .              |                    end: 0xb (valid) 0x81-0x81.7 (1)
    |                                               |                |            [5]{}: code 0x82-0x88.7 (7)
0x80|      06                                       |  .             |              size: 6 0x82-0x82.7 (1)
    |                                               |                |              code{}: 0x83-0x88.7 (6)
    |                                               |                |                t{}: 0x83-0x83.7 (1)
0x80|         00                                    |   .            |                  n: 0 0x83-0x83.7 (1)
    |                                               |                |                  x[0:0]: 0x84-NA (0)
    |                                               |                |                e[0:3]: 0x84-0x88.7 (5)
    |                                               |                |                  [0]{}: in 0x84-0x85.7 (2)
0x80|            20                                 |                |                    local.get: 0x20 (valid) 0x84-0x84.7 (1)
0x80|               00                              |     .          |                    x: 0 0x85-0x85.7 (1)
    |                                               |                |                  [1]{}: in 0x86-0x87.7 (2)
0x80|                  10                           |      .         |                    call: 0x10 (valid) 0x86-0x86.7 (1)
0x80|                     00                        |       .        |                    x: 0 0x87-0x87.7 (1)
    |                                               |                |                  [2]{}: in 0x88-0x88.7 (1)
0x80|                        0b|                    |        .|      |                    end: 0xb (valid) 0x88-0x88.7 (1)
