$ fq -d wasm dv func-3.wasm
     |00 01 02 03 04 05 06 07 08 09 0a 0b 0c 0d 0e 0f|0123456789abcdef|.{}: func-3.wasm (wasm) 0x0-0x1cc (460)
0x000|00 61 73 6d                                    |.asm            |  magic: raw bits (valid) 0x0-0x4 (4)
0x000|            01 00 00 00                        |    ....        |  version: 1 0x4-0x8 (4)
     |                                               |                |  sections[0:6]: 0x8-0x1cc (452)
     |                                               |                |    [0]{}: section 0x8-0x27 (31)
0x000|                        01                     |        .       |      id: "type_section" (1) 0x8-0x9 (1)
0x000|                           1d                  |         .      |      size: 29 (valid) 0x9-0xa (1)
     |                                               |                |      content{}: 0xa-0x27 (29)
     |                                               |                |        ft{}: 0xa-0x27 (29)
0x000|                              04               |          .     |          n: 4 (valid) 0xa-0xb (1)
     |                                               |                |          x[0:4]: 0xb-0x27 (28)
     |                                               |                |            [0]{}: ft 0xb-0xe (3)
0x000|                                 60            |           `    |              tag: 0x60 (valid) 0xb-0xc (1)
     |                                               |                |              rt1{}: 0xc-0xd (1)
0x000|                                    00         |            .   |                n: 0 (valid) 0xc-0xd (1)
     |                                               |                |                x[0:0]: 0xd-0xd (0)
     |                                               |                |              rt2{}: 0xd-0xe (1)
0x000|                                       00      |             .  |                n: 0 (valid) 0xd-0xe (1)
     |                                               |                |                x[0:0]: 0xe-0xe (0)
     |                                               |                |            [1]{}: ft 0xe-0x11 (3)
0x000|                                          60   |              ` |              tag: 0x60 (valid) 0xe-0xf (1)
     |                                               |                |              rt1{}: 0xf-0x10 (1)
0x000|                                             00|               .|                n: 0 (valid) 0xf-0x10 (1)
     |                                               |                |                x[0:0]: 0x10-0x10 (0)
     |                                               |                |              rt2{}: 0x10-0x11 (1)
0x010|00                                             |.               |                n: 0 (valid) 0x10-0x11 (1)
     |                                               |                |                x[0:0]: 0x11-0x11 (0)
     |                                               |                |            [2]{}: ft 0x11-0x1c (11)
0x010|   60                                          | `              |              tag: 0x60 (valid) 0x11-0x12 (1)
     |                                               |                |              rt1{}: 0x12-0x1b (9)
0x010|      08                                       |  .             |                n: 8 (valid) 0x12-0x13 (1)
     |                                               |                |                x[0:8]: 0x13-0x1b (8)
0x010|         7e                                    |   ~            |                  [0]: "i64" (0x7e) t 0x13-0x14 (1)
0x010|            7e                                 |    ~           |                  [1]: "i64" (0x7e) t 0x14-0x15 (1)
0x010|               7c                              |     |          |                  [2]: "f64" (0x7c) t 0x15-0x16 (1)
0x010|                  7e                           |      ~         |                  [3]: "i64" (0x7e) t 0x16-0x17 (1)
0x010|                     7c                        |       |        |                  [4]: "f64" (0x7c) t 0x17-0x18 (1)
0x010|                        7e                     |        ~       |                  [5]: "i64" (0x7e) t 0x18-0x19 (1)
0x010|                           7d                  |         }      |                  [6]: "f32" (0x7d) t 0x19-0x1a (1)
0x010|                              7f               |          .     |                  [7]: "i32" (0x7f) t 0x1a-0x1b (1)
     |                                               |                |              rt2{}: 0x1b-0x1c (1)
0x010|                                 00            |           .    |                n: 0 (valid) 0x1b-0x1c (1)
     |                                               |                |                x[0:0]: 0x1c-0x1c (0)
     |                                               |                |            [3]{}: ft 0x1c-0x27 (11)
0x010|                                    60         |            `   |              tag: 0x60 (valid) 0x1c-0x1d (1)
     |                                               |                |              rt1{}: 0x1d-0x26 (9)
0x010|                                       08      |             .  |                n: 8 (valid) 0x1d-0x1e (1)
     |                                               |                |                x[0:8]: 0x1e-0x26 (8)
0x010|                                          7c   |              | |                  [0]: "f64" (0x7c) t 0x1e-0x1f (1)
0x010|                                             7e|               ~|                  [1]: "i64" (0x7e) t 0x1f-0x20 (1)
0x020|7c                                             ||               |                  [2]: "f64" (0x7c) t 0x20-0x21 (1)
0x020|   7e                                          | ~              |                  [3]: "i64" (0x7e) t 0x21-0x22 (1)
0x020|      7c                                       |  |             |                  [4]: "f64" (0x7c) t 0x22-0x23 (1)
0x020|         7e                                    |   ~            |                  [5]: "i64" (0x7e) t 0x23-0x24 (1)
0x020|            7d                                 |    }           |                  [6]: "f32" (0x7d) t 0x24-0x25 (1)
0x020|               7f                              |     .          |                  [7]: "i32" (0x7f) t 0x25-0x26 (1)
     |                                               |                |              rt2{}: 0x26-0x27 (1)
0x020|                  00                           |      .         |                n: 0 (valid) 0x26-0x27 (1)
     |                                               |                |                x[0:0]: 0x27-0x27 (0)
     |                                               |                |    [1]{}: section 0x27-0x35 (14)
0x020|                     03                        |       .        |      id: "function_section" (3) 0x27-0x28 (1)
0x020|                        0c                     |        .       |      size: 12 (valid) 0x28-0x29 (1)
     |                                               |                |      content{}: 0x29-0x35 (12)
     |                                               |                |        x{}: 0x29-0x35 (12)
0x020|                           0b                  |         .      |          n: 11 (valid) 0x29-0x2a (1)
     |                                               |                |          x[0:11]: 0x2a-0x35 (11)
0x020|                              00               |          .     |            [0]: 0 x (valid) 0x2a-0x2b (1)
0x020|                                 03            |           .    |            [1]: 3 x (valid) 0x2b-0x2c (1)
0x020|                                    00         |            .   |            [2]: 0 x (valid) 0x2c-0x2d (1)
0x020|                                       03      |             .  |            [3]: 3 x (valid) 0x2d-0x2e (1)
0x020|                                          03   |              . |            [4]: 3 x (valid) 0x2e-0x2f (1)
0x020|                                             02|               .|            [5]: 2 x (valid) 0x2f-0x30 (1)
0x030|02                                             |.               |            [6]: 2 x (valid) 0x30-0x31 (1)
0x030|   00                                          | .              |            [7]: 0 x (valid) 0x31-0x32 (1)
0x030|      00                                       |  .             |            [8]: 0 x (valid) 0x32-0x33 (1)
0x030|         00                                    |   .            |            [9]: 0 x (valid) 0x33-0x34 (1)
0x030|            00                                 |    .           |            [10]: 0 x (valid) 0x34-0x35 (1)
     |                                               |                |    [2]{}: section 0x35-0x3c (7)
0x030|               04                              |     .          |      id: "table_section" (4) 0x35-0x36 (1)
0x030|                  05                           |      .         |      size: 5 (valid) 0x36-0x37 (1)
     |                                               |                |      content{}: 0x37-0x3c (5)
     |                                               |                |        tab{}: 0x37-0x3c (5)
0x030|                     01                        |       .        |          n: 1 (valid) 0x37-0x38 (1)
     |                                               |                |          x[0:1]: 0x38-0x3c (4)
     |                                               |                |            [0]{}: tab 0x38-0x3c (4)
0x030|                        70                     |        p       |              et: "funcref" (112) 0x38-0x39 (1)
     |                                               |                |              lim{}: 0x39-0x3c (3)
0x030|                           01                  |         .      |                tag: 0x1 0x39-0x3a (1)
0x030|                              07               |          .     |                n: 7 (valid) 0x3a-0x3b (1)
0x030|                                 07            |           .    |                m: 7 (valid) 0x3b-0x3c (1)
     |                                               |                |    [3]{}: section 0x3c-0xb5 (121)
0x030|                                    07         |            .   |      id: "export_section" (7) 0x3c-0x3d (1)
0x030|                                       77      |             w  |      size: 119 (valid) 0x3d-0x3e (1)
     |                                               |                |      content{}: 0x3e-0xb5 (119)
     |                                               |                |        ex{}: 0x3e-0xb5 (119)
0x030|                                          04   |              . |          n: 4 (valid) 0x3e-0x3f (1)
     |                                               |                |          x[0:4]: 0x3f-0xb5 (118)
     |                                               |                |            [0]{}: ex 0x3f-0x5b (28)
     |                                               |                |              nm{}: 0x3f-0x59 (26)
0x030|                                             19|               .|                n: 25 (valid) 0x3f-0x40 (1)
0x040|73 69 67 6e 61 74 75 72 65 2d 65 78 70 6c 69 63|signature-explic|                b: "signature-explicit-reused" 0x40-0x59 (25)
0x050|69 74 2d 72 65 75 73 65 64                     |it-reused       |
     |                                               |                |              d{}: 0x59-0x5b (2)
0x050|                           00                  |         .      |                tag: "funcidx" (0x0) 0x59-0x5a (1)
0x050|                              07               |          .     |                x: 7 (valid) 0x5a-0x5b (1)
     |                                               |                |            [1]{}: ex 0x5b-0x77 (28)
     |                                               |                |              nm{}: 0x5b-0x75 (26)
0x050|                                 19            |           .    |                n: 25 (valid) 0x5b-0x5c (1)
0x050|                                    73 69 67 6e|            sign|                b: "signature-implicit-reused" 0x5c-0x75 (25)
0x060|61 74 75 72 65 2d 69 6d 70 6c 69 63 69 74 2d 72|ature-implicit-r|
0x070|65 75 73 65 64                                 |eused           |
     |                                               |                |              d{}: 0x75-0x77 (2)
0x070|               00                              |     .          |                tag: "funcidx" (0x0) 0x75-0x76 (1)
0x070|                  08                           |      .         |                x: 8 (valid) 0x76-0x77 (1)
     |                                               |                |            [2]{}: ex 0x77-0x96 (31)
     |                                               |                |              nm{}: 0x77-0x94 (29)
0x070|                     1c                        |       .        |                n: 28 (valid) 0x77-0x78 (1)
0x070|                        73 69 67 6e 61 74 75 72|        signatur|                b: "signature-explicit-duplicate" 0x78-0x94 (28)
0x080|65 2d 65 78 70 6c 69 63 69 74 2d 64 75 70 6c 69|e-explicit-dupli|
0x090|63 61 74 65                                    |cate            |
     |                                               |                |              d{}: 0x94-0x96 (2)
0x090|            00                                 |    .           |                tag: "funcidx" (0x0) 0x94-0x95 (1)
0x090|               09                              |     .          |                x: 9 (valid) 0x95-0x96 (1)
     |                                               |                |            [3]{}: ex 0x96-0xb5 (31)
     |                                               |                |              nm{}: 0x96-0xb3 (29)
0x090|                  1c                           |      .         |                n: 28 (valid) 0x96-0x97 (1)
0x090|                     73 69 67 6e 61 74 75 72 65|       signature|                b: "signature-implicit-duplicate" 0x97-0xb3 (28)
0x0a0|2d 69 6d 70 6c 69 63 69 74 2d 64 75 70 6c 69 63|-implicit-duplic|
0x0b0|61 74 65                                       |ate             |
     |                                               |                |              d{}: 0xb3-0xb5 (2)
0x0b0|         00                                    |   .            |                tag: "funcidx" (0x0) 0xb3-0xb4 (1)
0x0b0|            0a                                 |    .           |                x: 10 (valid) 0xb4-0xb5 (1)
     |                                               |                |    [4]{}: section 0xb5-0xc4 (15)
0x0b0|               09                              |     .          |      id: "element_section" (9) 0xb5-0xb6 (1)
0x0b0|                  0d                           |      .         |      size: 13 (valid) 0xb6-0xb7 (1)
     |                                               |                |      element{}: 0xb7-0xc4 (13)
     |                                               |                |        seg{}: 0xb7-0xc4 (13)
0x0b0|                     01                        |       .        |          n: 1 (valid) 0xb7-0xb8 (1)
     |                                               |                |          x[0:1]: 0xb8-0xc4 (12)
     |                                               |                |            [0]{}: seg 0xb8-0xc4 (12)
0x0b0|                        00                     |        .       |              tag: 0 (valid) 0xb8-0xb9 (1)
     |                                               |                |              e[0:2]: 0xb9-0xbc (3)
     |                                               |                |                [0]{}: in 0xb9-0xbb (2)
0x0b0|                           41                  |         A      |                  opcode: "i32.const" (0x41) 0xb9-0xba (1)
0x0b0|                              00               |          .     |                  n: 0 (valid) 0xba-0xbb (1)
     |                                               |                |                [1]{}: in 0xbb-0xbc (1)
0x0b0|                                 0b            |           .    |                  opcode: "end" (0xb) 0xbb-0xbc (1)
     |                                               |                |              y{}: 0xbc-0xc4 (8)
0x0b0|                                    07         |            .   |                n: 7 (valid) 0xbc-0xbd (1)
     |                                               |                |                x[0:7]: 0xbd-0xc4 (7)
0x0b0|                                       04      |             .  |                  [0]: 4 y (valid) 0xbd-0xbe (1)
0x0b0|                                          02   |              . |                  [1]: 2 y (valid) 0xbe-0xbf (1)
0x0b0|                                             01|               .|                  [2]: 1 y (valid) 0xbf-0xc0 (1)
0x0c0|04                                             |.               |                  [3]: 4 y (valid) 0xc0-0xc1 (1)
0x0c0|   00                                          | .              |                  [4]: 0 y (valid) 0xc1-0xc2 (1)
0x0c0|      05                                       |  .             |                  [5]: 5 y (valid) 0xc2-0xc3 (1)
0x0c0|         06                                    |   .            |                  [6]: 6 y (valid) 0xc3-0xc4 (1)
     |                                               |                |    [5]{}: section 0xc4-0x1cc (264)
0x0c0|            0a                                 |    .           |      id: "code_section" (10) 0xc4-0xc5 (1)
0x0c0|               85 02                           |     ..         |      size: 261 (valid) 0xc5-0xc7 (2)
     |                                               |                |      content{}: 0xc7-0x1cc (261)
     |                                               |                |        code{}: 0xc7-0x1cc (261)
0x0c0|                     0b                        |       .        |          n: 11 (valid) 0xc7-0xc8 (1)
     |                                               |                |          x[0:11]: 0xc8-0x1cc (260)
     |                                               |                |            [0]{}: code 0xc8-0xcb (3)
0x0c0|                        02                     |        .       |              size: 2 (valid) 0xc8-0xc9 (1)
     |                                               |                |              code{}: 0xc9-0xcb (2)
     |                                               |                |                t{}: 0xc9-0xca (1)
0x0c0|                           00                  |         .      |                  n: 0 (valid) 0xc9-0xca (1)
     |                                               |                |                  x[0:0]: 0xca-0xca (0)
     |                                               |                |                e[0:1]: 0xca-0xcb (1)
     |                                               |                |                  [0]{}: in 0xca-0xcb (1)
0x0c0|                              0b               |          .     |                    opcode: "end" (0xb) 0xca-0xcb (1)
     |                                               |                |            [1]{}: code 0xcb-0xce (3)
0x0c0|                                 02            |           .    |              size: 2 (valid) 0xcb-0xcc (1)
     |                                               |                |              code{}: 0xcc-0xce (2)
     |                                               |                |                t{}: 0xcc-0xcd (1)
0x0c0|                                    00         |            .   |                  n: 0 (valid) 0xcc-0xcd (1)
     |                                               |                |                  x[0:0]: 0xcd-0xcd (0)
     |                                               |                |                e[0:1]: 0xcd-0xce (1)
     |                                               |                |                  [0]{}: in 0xcd-0xce (1)
0x0c0|                                       0b      |             .  |                    opcode: "end" (0xb) 0xcd-0xce (1)
     |                                               |                |            [2]{}: code 0xce-0xd1 (3)
0x0c0|                                          02   |              . |              size: 2 (valid) 0xce-0xcf (1)
     |                                               |                |              code{}: 0xcf-0xd1 (2)
     |                                               |                |                t{}: 0xcf-0xd0 (1)
0x0c0|                                             00|               .|                  n: 0 (valid) 0xcf-0xd0 (1)
     |                                               |                |                  x[0:0]: 0xd0-0xd0 (0)
     |                                               |                |                e[0:1]: 0xd0-0xd1 (1)
     |                                               |                |                  [0]{}: in 0xd0-0xd1 (1)
0x0d0|0b                                             |.               |                    opcode: "end" (0xb) 0xd0-0xd1 (1)
     |                                               |                |            [3]{}: code 0xd1-0xd4 (3)
0x0d0|   02                                          | .              |              size: 2 (valid) 0xd1-0xd2 (1)
     |                                               |                |              code{}: 0xd2-0xd4 (2)
     |                                               |                |                t{}: 0xd2-0xd3 (1)
0x0d0|      00                                       |  .             |                  n: 0 (valid) 0xd2-0xd3 (1)
     |                                               |                |                  x[0:0]: 0xd3-0xd3 (0)
     |                                               |                |                e[0:1]: 0xd3-0xd4 (1)
     |                                               |                |                  [0]{}: in 0xd3-0xd4 (1)
0x0d0|         0b                                    |   .            |                    opcode: "end" (0xb) 0xd3-0xd4 (1)
     |                                               |                |            [4]{}: code 0xd4-0xd7 (3)
0x0d0|            02                                 |    .           |              size: 2 (valid) 0xd4-0xd5 (1)
     |                                               |                |              code{}: 0xd5-0xd7 (2)
     |                                               |                |                t{}: 0xd5-0xd6 (1)
0x0d0|               00                              |     .          |                  n: 0 (valid) 0xd5-0xd6 (1)
     |                                               |                |                  x[0:0]: 0xd6-0xd6 (0)
     |                                               |                |                e[0:1]: 0xd6-0xd7 (1)
     |                                               |                |                  [0]{}: in 0xd6-0xd7 (1)
0x0d0|                  0b                           |      .         |                    opcode: "end" (0xb) 0xd6-0xd7 (1)
     |                                               |                |            [5]{}: code 0xd7-0xda (3)
0x0d0|                     02                        |       .        |              size: 2 (valid) 0xd7-0xd8 (1)
     |                                               |                |              code{}: 0xd8-0xda (2)
     |                                               |                |                t{}: 0xd8-0xd9 (1)
0x0d0|                        00                     |        .       |                  n: 0 (valid) 0xd8-0xd9 (1)
     |                                               |                |                  x[0:0]: 0xd9-0xd9 (0)
     |                                               |                |                e[0:1]: 0xd9-0xda (1)
     |                                               |                |                  [0]{}: in 0xd9-0xda (1)
0x0d0|                           0b                  |         .      |                    opcode: "end" (0xb) 0xd9-0xda (1)
     |                                               |                |            [6]{}: code 0xda-0xdd (3)
0x0d0|                              02               |          .     |              size: 2 (valid) 0xda-0xdb (1)
     |                                               |                |              code{}: 0xdb-0xdd (2)
     |                                               |                |                t{}: 0xdb-0xdc (1)
0x0d0|                                 00            |           .    |                  n: 0 (valid) 0xdb-0xdc (1)
     |                                               |                |                  x[0:0]: 0xdc-0xdc (0)
     |                                               |                |                e[0:1]: 0xdc-0xdd (1)
     |                                               |                |                  [0]{}: in 0xdc-0xdd (1)
0x0d0|                                    0b         |            .   |                    opcode: "end" (0xb) 0xdc-0xdd (1)
     |                                               |                |            [7]{}: code 0xdd-0xea (13)
0x0d0|                                       0c      |             .  |              size: 12 (valid) 0xdd-0xde (1)
     |                                               |                |              code{}: 0xde-0xea (12)
     |                                               |                |                t{}: 0xde-0xdf (1)
0x0d0|                                          00   |              . |                  n: 0 (valid) 0xde-0xdf (1)
     |                                               |                |                  x[0:0]: 0xdf-0xdf (0)
     |                                               |                |                e[0:5]: 0xdf-0xea (11)
     |                                               |                |                  [0]{}: in 0xdf-0xe1 (2)
0x0d0|                                             41|               A|                    opcode: "i32.const" (0x41) 0xdf-0xe0 (1)
0x0e0|01                                             |.               |                    n: 1 (valid) 0xe0-0xe1 (1)
     |                                               |                |                  [1]{}: in 0xe1-0xe4 (3)
0x0e0|   11                                          | .              |                    opcode: "call_indirect" (0x11) 0xe1-0xe2 (1)
0x0e0|      00                                       |  .             |                    y: 0 (valid) 0xe2-0xe3 (1)
0x0e0|         00                                    |   .            |                    x: 0 (valid) 0xe3-0xe4 (1)
     |                                               |                |                  [2]{}: in 0xe4-0xe6 (2)
0x0e0|            41                                 |    A           |                    opcode: "i32.const" (0x41) 0xe4-0xe5 (1)
0x0e0|               04                              |     .          |                    n: 4 (valid) 0xe5-0xe6 (1)
     |                                               |                |                  [3]{}: in 0xe6-0xe9 (3)
0x0e0|                  11                           |      .         |                    opcode: "call_indirect" (0x11) 0xe6-0xe7 (1)
0x0e0|                     00                        |       .        |                    y: 0 (valid) 0xe7-0xe8 (1)
0x0e0|                        00                     |        .       |                    x: 0 (valid) 0xe8-0xe9 (1)
     |                                               |                |                  [4]{}: in 0xe9-0xea (1)
0x0e0|                           0b                  |         .      |                    opcode: "end" (0xb) 0xe9-0xea (1)
     |                                               |                |            [8]{}: code 0xea-0x175 (139)
0x0e0|                              89 01            |          ..    |              size: 137 (valid) 0xea-0xec (2)
     |                                               |                |              code{}: 0xec-0x175 (137)
     |                                               |                |                t{}: 0xec-0xed (1)
0x0e0|                                    00         |            .   |                  n: 0 (valid) 0xec-0xed (1)
     |                                               |                |                  x[0:0]: 0xed-0xed (0)
     |                                               |                |                e[0:31]: 0xed-0x175 (136)
     |                                               |                |                  [0]{}: in 0xed-0xf6 (9)
0x0e0|                                       44      |             D  |                    opcode: "f64.const" (0x44) 0xed-0xee (1)
0x0e0|                                          00 00|              ..|                    z: 0 0xee-0xf6 (8)
0x0f0|00 00 00 00 00 00                              |......          |
     |                                               |                |                  [1]{}: in 0xf6-0xf8 (2)
0x0f0|                  42                           |      B         |                    opcode: "i64.const" (0x42) 0xf6-0xf7 (1)
0x0f0|                     00                        |       .        |                    n: 0 0xf7-0xf8 (1)
     |                                               |                |                  [2]{}: in 0xf8-0x101 (9)
0x0f0|                        44                     |        D       |                    opcode: "f64.const" (0x44) 0xf8-0xf9 (1)
0x0f0|                           00 00 00 00 00 00 00|         .......|                    z: 0 0xf9-0x101 (8)
0x100|00                                             |.               |
     |                                               |                |                  [3]{}: in 0x101-0x103 (2)
0x100|   42                                          | B              |                    opcode: "i64.const" (0x42) 0x101-0x102 (1)
0x100|      00                                       |  .             |                    n: 0 0x102-0x103 (1)
     |                                               |                |                  [4]{}: in 0x103-0x10c (9)
0x100|         44                                    |   D            |                    opcode: "f64.const" (0x44) 0x103-0x104 (1)
0x100|            00 00 00 00 00 00 00 00            |    ........    |                    z: 0 0x104-0x10c (8)
     |                                               |                |                  [5]{}: in 0x10c-0x10e (2)
0x100|                                    42         |            B   |                    opcode: "i64.const" (0x42) 0x10c-0x10d (1)
0x100|                                       00      |             .  |                    n: 0 0x10d-0x10e (1)
     |                                               |                |                  [6]{}: in 0x10e-0x113 (5)
0x100|                                          43   |              C |                    opcode: "f32.const" (0x43) 0x10e-0x10f (1)
0x100|                                             00|               .|                    z: 0 0x10f-0x113 (4)
0x110|00 00 00                                       |...             |
     |                                               |                |                  [7]{}: in 0x113-0x115 (2)
0x110|         41                                    |   A            |                    opcode: "i32.const" (0x41) 0x113-0x114 (1)
0x110|            00                                 |    .           |                    n: 0 (valid) 0x114-0x115 (1)
     |                                               |                |                  [8]{}: in 0x115-0x117 (2)
0x110|               41                              |     A          |                    opcode: "i32.const" (0x41) 0x115-0x116 (1)
0x110|                  00                           |      .         |                    n: 0 (valid) 0x116-0x117 (1)
     |                                               |                |                  [9]{}: in 0x117-0x11a (3)
0x110|                     11                        |       .        |                    opcode: "call_indirect" (0x11) 0x117-0x118 (1)
0x110|                        03                     |        .       |                    y: 3 (valid) 0x118-0x119 (1)
0x110|                           00                  |         .      |                    x: 0 (valid) 0x119-0x11a (1)
     |                                               |                |                  [10]{}: in 0x11a-0x123 (9)
0x110|                              44               |          D     |                    opcode: "f64.const" (0x44) 0x11a-0x11b (1)
0x110|                                 00 00 00 00 00|           .....|                    z: 0 0x11b-0x123 (8)
0x120|00 00 00                                       |...             |
     |                                               |                |                  [11]{}: in 0x123-0x125 (2)
0x120|         42                                    |   B            |                    opcode: "i64.const" (0x42) 0x123-0x124 (1)
0x120|            00                                 |    .           |                    n: 0 0x124-0x125 (1)
     |                                               |                |                  [12]{}: in 0x125-0x12e (9)
0x120|               44                              |     D          |                    opcode: "f64.const" (0x44) 0x125-0x126 (1)
0x120|                  00 00 00 00 00 00 00 00      |      ........  |                    z: 0 0x126-0x12e (8)
     |                                               |                |                  [13]{}: in 0x12e-0x130 (2)
0x120|                                          42   |              B |                    opcode: "i64.const" (0x42) 0x12e-0x12f (1)
0x120|                                             00|               .|                    n: 0 0x12f-0x130 (1)
     |                                               |                |                  [14]{}: in 0x130-0x139 (9)
0x130|44                                             |D               |                    opcode: "f64.const" (0x44) 0x130-0x131 (1)
0x130|   00 00 00 00 00 00 00 00                     | ........       |                    z: 0 0x131-0x139 (8)
     |                                               |                |                  [15]{}: in 0x139-0x13b (2)
0x130|                           42                  |         B      |                    opcode: "i64.const" (0x42) 0x139-0x13a (1)
0x130|                              00               |          .     |                    n: 0 0x13a-0x13b (1)
     |                                               |                |                  [16]{}: in 0x13b-0x140 (5)
0x130|                                 43            |           C    |                    opcode: "f32.const" (0x43) 0x13b-0x13c (1)
0x130|                                    00 00 00 00|            ....|                    z: 0 0x13c-0x140 (4)
     |                                               |                |                  [17]{}: in 0x140-0x142 (2)
0x140|41                                             |A               |                    opcode: "i32.const" (0x41) 0x140-0x141 (1)
0x140|   00                                          | .              |                    n: 0 (valid) 0x141-0x142 (1)
     |                                               |                |                  [18]{}: in 0x142-0x144 (2)
0x140|      41                                       |  A             |                    opcode: "i32.const" (0x41) 0x142-0x143 (1)
0x140|         02                                    |   .            |                    n: 2 (valid) 0x143-0x144 (1)
     |                                               |                |                  [19]{}: in 0x144-0x147 (3)
0x140|            11                                 |    .           |                    opcode: "call_indirect" (0x11) 0x144-0x145 (1)
0x140|               03                              |     .          |                    y: 3 (valid) 0x145-0x146 (1)
0x140|                  00                           |      .         |                    x: 0 (valid) 0x146-0x147 (1)
     |                                               |                |                  [20]{}: in 0x147-0x150 (9)
0x140|                     44                        |       D        |                    opcode: "f64.const" (0x44) 0x147-0x148 (1)
0x140|                        00 00 00 00 00 00 00 00|        ........|                    z: 0 0x148-0x150 (8)
     |                                               |                |                  [21]{}: in 0x150-0x152 (2)
0x150|42                                             |B               |                    opcode: "i64.const" (0x42) 0x150-0x151 (1)
0x150|   00                                          | .              |                    n: 0 0x151-0x152 (1)
     |                                               |                |                  [22]{}: in 0x152-0x15b (9)
0x150|      44                                       |  D             |                    opcode: "f64.const" (0x44) 0x152-0x153 (1)
0x150|         00 00 00 00 00 00 00 00               |   ........     |                    z: 0 0x153-0x15b (8)
     |                                               |                |                  [23]{}: in 0x15b-0x15d (2)
0x150|                                 42            |           B    |                    opcode: "i64.const" (0x42) 0x15b-0x15c (1)
0x150|                                    00         |            .   |                    n: 0 0x15c-0x15d (1)
     |                                               |                |                  [24]{}: in 0x15d-0x166 (9)
0x150|                                       44      |             D  |                    opcode: "f64.const" (0x44) 0x15d-0x15e (1)
0x150|                                          00 00|              ..|                    z: 0 0x15e-0x166 (8)
0x160|00 00 00 00 00 00                              |......          |
     |                                               |                |                  [25]{}: in 0x166-0x168 (2)
0x160|                  42                           |      B         |                    opcode: "i64.const" (0x42) 0x166-0x167 (1)
0x160|                     00                        |       .        |                    n: 0 0x167-0x168 (1)
     |                                               |                |                  [26]{}: in 0x168-0x16d (5)
0x160|                        43                     |        C       |                    opcode: "f32.const" (0x43) 0x168-0x169 (1)
0x160|                           00 00 00 00         |         ....   |                    z: 0 0x169-0x16d (4)
     |                                               |                |                  [27]{}: in 0x16d-0x16f (2)
0x160|                                       41      |             A  |                    opcode: "i32.const" (0x41) 0x16d-0x16e (1)
0x160|                                          00   |              . |                    n: 0 (valid) 0x16e-0x16f (1)
     |                                               |                |                  [28]{}: in 0x16f-0x171 (2)
0x160|                                             41|               A|                    opcode: "i32.const" (0x41) 0x16f-0x170 (1)
0x170|03                                             |.               |                    n: 3 (valid) 0x170-0x171 (1)
     |                                               |                |                  [29]{}: in 0x171-0x174 (3)
0x170|   11                                          | .              |                    opcode: "call_indirect" (0x11) 0x171-0x172 (1)
0x170|      03                                       |  .             |                    y: 3 (valid) 0x172-0x173 (1)
0x170|         00                                    |   .            |                    x: 0 (valid) 0x173-0x174 (1)
     |                                               |                |                  [30]{}: in 0x174-0x175 (1)
0x170|            0b                                 |    .           |                    opcode: "end" (0xb) 0x174-0x175 (1)
     |                                               |                |            [9]{}: code 0x175-0x17d (8)
0x170|               07                              |     .          |              size: 7 (valid) 0x175-0x176 (1)
     |                                               |                |              code{}: 0x176-0x17d (7)
     |                                               |                |                t{}: 0x176-0x177 (1)
0x170|                  00                           |      .         |                  n: 0 (valid) 0x176-0x177 (1)
     |                                               |                |                  x[0:0]: 0x177-0x177 (0)
     |                                               |                |                e[0:3]: 0x177-0x17d (6)
     |                                               |                |                  [0]{}: in 0x177-0x179 (2)
0x170|                     41                        |       A        |                    opcode: "i32.const" (0x41) 0x177-0x178 (1)
0x170|                        01                     |        .       |                    n: 1 (valid) 0x178-0x179 (1)
     |                                               |                |                  [1]{}: in 0x179-0x17c (3)
0x170|                           11                  |         .      |                    opcode: "call_indirect" (0x11) 0x179-0x17a (1)
0x170|                              01               |          .     |                    y: 1 (valid) 0x17a-0x17b (1)
0x170|                                 00            |           .    |                    x: 0 (valid) 0x17b-0x17c (1)
     |                                               |                |                  [2]{}: in 0x17c-0x17d (1)
0x170|                                    0b         |            .   |                    opcode: "end" (0xb) 0x17c-0x17d (1)
     |                                               |                |            [10]{}: code 0x17d-0x1cc (79)
0x170|                                       4e      |             N  |              size: 78 (valid) 0x17d-0x17e (1)
     |                                               |                |              code{}: 0x17e-0x1cc (78)
     |                                               |                |                t{}: 0x17e-0x17f (1)
0x170|                                          00   |              . |                  n: 0 (valid) 0x17e-0x17f (1)
     |                                               |                |                  x[0:0]: 0x17f-0x17f (0)
     |                                               |                |                e[0:21]: 0x17f-0x1cc (77)
     |                                               |                |                  [0]{}: in 0x17f-0x181 (2)
0x170|                                             42|               B|                    opcode: "i64.const" (0x42) 0x17f-0x180 (1)
0x180|00                                             |.               |                    n: 0 0x180-0x181 (1)
     |                                               |                |                  [1]{}: in 0x181-0x183 (2)
0x180|   42                                          | B              |                    opcode: "i64.const" (0x42) 0x181-0x182 (1)
0x180|      00                                       |  .             |                    n: 0 0x182-0x183 (1)
     |                                               |                |                  [2]{}: in 0x183-0x18c (9)
0x180|         44                                    |   D            |                    opcode: "f64.const" (0x44) 0x183-0x184 (1)
0x180|            00 00 00 00 00 00 00 00            |    ........    |                    z: 0 0x184-0x18c (8)
     |                                               |                |                  [3]{}: in 0x18c-0x18e (2)
0x180|                                    42         |            B   |                    opcode: "i64.const" (0x42) 0x18c-0x18d (1)
0x180|                                       00      |             .  |                    n: 0 0x18d-0x18e (1)
     |                                               |                |                  [4]{}: in 0x18e-0x197 (9)
0x180|                                          44   |              D |                    opcode: "f64.const" (0x44) 0x18e-0x18f (1)
0x180|                                             00|               .|                    z: 0 0x18f-0x197 (8)
0x190|00 00 00 00 00 00 00                           |.......         |
     |                                               |                |                  [5]{}: in 0x197-0x199 (2)
0x190|                     42                        |       B        |                    opcode: "i64.const" (0x42) 0x197-0x198 (1)
0x190|                        00                     |        .       |                    n: 0 0x198-0x199 (1)
     |                                               |                |                  [6]{}: in 0x199-0x19e (5)
0x190|                           43                  |         C      |                    opcode: "f32.const" (0x43) 0x199-0x19a (1)
0x190|                              00 00 00 00      |          ....  |                    z: 0 0x19a-0x19e (4)
     |                                               |                |                  [7]{}: in 0x19e-0x1a0 (2)
0x190|                                          41   |              A |                    opcode: "i32.const" (0x41) 0x19e-0x19f (1)
0x190|                                             00|               .|                    n: 0 (valid) 0x19f-0x1a0 (1)
     |                                               |                |                  [8]{}: in 0x1a0-0x1a2 (2)
0x1a0|41                                             |A               |                    opcode: "i32.const" (0x41) 0x1a0-0x1a1 (1)
0x1a0|   05                                          | .              |                    n: 5 (valid) 0x1a1-0x1a2 (1)
     |                                               |                |                  [9]{}: in 0x1a2-0x1a5 (3)
0x1a0|      11                                       |  .             |                    opcode: "call_indirect" (0x11) 0x1a2-0x1a3 (1)
0x1a0|         02                                    |   .            |                    y: 2 (valid) 0x1a3-0x1a4 (1)
0x1a0|            00                                 |    .           |                    x: 0 (valid) 0x1a4-0x1a5 (1)
     |                                               |                |                  [10]{}: in 0x1a5-0x1a7 (2)
0x1a0|               42                              |     B          |                    opcode: "i64.const" (0x42) 0x1a5-0x1a6 (1)
0x1a0|                  00                           |      .         |                    n: 0 0x1a6-0x1a7 (1)
     |                                               |                |                  [11]{}: in 0x1a7-0x1a9 (2)
0x1a0|                     42                        |       B        |                    opcode: "i64.const" (0x42) 0x1a7-0x1a8 (1)
0x1a0|                        00                     |        .       |                    n: 0 0x1a8-0x1a9 (1)
     |                                               |                |                  [12]{}: in 0x1a9-0x1b2 (9)
0x1a0|                           44                  |         D      |                    opcode: "f64.const" (0x44) 0x1a9-0x1aa (1)
0x1a0|                              00 00 00 00 00 00|          ......|                    z: 0 0x1aa-0x1b2 (8)
0x1b0|00 00                                          |..              |
     |                                               |                |                  [13]{}: in 0x1b2-0x1b4 (2)
0x1b0|      42                                       |  B             |                    opcode: "i64.const" (0x42) 0x1b2-0x1b3 (1)
0x1b0|         00                                    |   .            |                    n: 0 0x1b3-0x1b4 (1)
     |                                               |                |                  [14]{}: in 0x1b4-0x1bd (9)
0x1b0|            44                                 |    D           |                    opcode: "f64.const" (0x44) 0x1b4-0x1b5 (1)
0x1b0|               00 00 00 00 00 00 00 00         |     ........   |                    z: 0 0x1b5-0x1bd (8)
     |                                               |                |                  [15]{}: in 0x1bd-0x1bf (2)
0x1b0|                                       42      |             B  |                    opcode: "i64.const" (0x42) 0x1bd-0x1be (1)
0x1b0|                                          00   |              . |                    n: 0 0x1be-0x1bf (1)
     |                                               |                |                  [16]{}: in 0x1bf-0x1c4 (5)
0x1b0|                                             43|               C|                    opcode: "f32.const" (0x43) 0x1bf-0x1c0 (1)
0x1c0|00 00 00 00                                    |....            |                    z: 0 0x1c0-0x1c4 (4)
     |                                               |                |                  [17]{}: in 0x1c4-0x1c6 (2)
0x1c0|            41                                 |    A           |                    opcode: "i32.const" (0x41) 0x1c4-0x1c5 (1)
0x1c0|               00                              |     .          |                    n: 0 (valid) 0x1c5-0x1c6 (1)
     |                                               |                |                  [18]{}: in 0x1c6-0x1c8 (2)
0x1c0|                  41                           |      A         |                    opcode: "i32.const" (0x41) 0x1c6-0x1c7 (1)
0x1c0|                     06                        |       .        |                    n: 6 (valid) 0x1c7-0x1c8 (1)
     |                                               |                |                  [19]{}: in 0x1c8-0x1cb (3)
0x1c0|                        11                     |        .       |                    opcode: "call_indirect" (0x11) 0x1c8-0x1c9 (1)
0x1c0|                           02                  |         .      |                    y: 2 (valid) 0x1c9-0x1ca (1)
0x1c0|                              00               |          .     |                    x: 0 (valid) 0x1ca-0x1cb (1)
     |                                               |                |                  [20]{}: in 0x1cb-0x1cc (1)
0x1c0|                                 0b|           |           .|   |                    opcode: "end" (0xb) 0x1cb-0x1cc (1)
