$ fq -d wasm dv func-2.wasm
    |00 01 02 03 04 05 06 07 08 09 0a 0b 0c 0d 0e 0f|0123456789abcdef|.{}: func-2.wasm (wasm) 0x0-0x4c.7 (77)
0x00|00 61 73 6d                                    |.asm            |  magic: raw bits (valid) 0x0-0x3.7 (4)
0x00|            01 00 00 00                        |    ....        |  version: 1 0x4-0x7.7 (4)
    |                                               |                |  sections[0:4]: 0x8-0x4c.7 (69)
    |                                               |                |    [0]{}: section 0x8-0x13.7 (12)
0x00|                        01                     |        .       |      id: "type section" (1) 0x8-0x8.7 (1)
0x00|                           0a                  |         .      |      size: 10 0x9-0x9.7 (1)
    |                                               |                |      content{}: 0xa-0x13.7 (10)
    |                                               |                |        ft{}: 0xa-0x13.7 (10)
0x00|                              02               |          .     |          n: 2 0xa-0xa.7 (1)
    |                                               |                |          x[0:2]: 0xb-0x13.7 (9)
    |                                               |                |            [0]{}: ft 0xb-0xe.7 (4)
0x00|                                 60            |           `    |              tag: 0x60 (valid) 0xb-0xb.7 (1)
    |                                               |                |              rt1{}: 0xc-0xc.7 (1)
0x00|                                    00         |            .   |                n: 0 0xc-0xc.7 (1)
    |                                               |                |                x[0:0]: 0xd-NA (0)
    |                                               |                |              rt2{}: 0xd-0xe.7 (2)
0x00|                                       01      |             .  |                n: 1 0xd-0xd.7 (1)
    |                                               |                |                x[0:1]: 0xe-0xe.7 (1)
0x00|                                          7f   |              . |                  [0]: "i32" (0x7f) t 0xe-0xe.7 (1)
    |                                               |                |            [1]{}: ft 0xf-0x13.7 (5)
0x00|                                             60|               `|              tag: 0x60 (valid) 0xf-0xf.7 (1)
    |                                               |                |              rt1{}: 0x10-0x11.7 (2)
0x10|01                                             |.               |                n: 1 0x10-0x10.7 (1)
    |                                               |                |                x[0:1]: 0x11-0x11.7 (1)
0x10|   7f                                          | .              |                  [0]: "i32" (0x7f) t 0x11-0x11.7 (1)
    |                                               |                |              rt2{}: 0x12-0x13.7 (2)
0x10|      01                                       |  .             |                n: 1 0x12-0x12.7 (1)
    |                                               |                |                x[0:1]: 0x13-0x13.7 (1)
0x10|         7f                                    |   .            |                  [0]: "i32" (0x7f) t 0x13-0x13.7 (1)
    |                                               |                |    [1]{}: section 0x14-0x1a.7 (7)
0x10|            03                                 |    .           |      id: "function section" (3) 0x14-0x14.7 (1)
0x10|               05                              |     .          |      size: 5 0x15-0x15.7 (1)
    |                                               |                |      content{}: 0x16-0x1a.7 (5)
    |                                               |                |        x{}: 0x16-0x1a.7 (5)
0x10|                  04                           |      .         |          n: 4 0x16-0x16.7 (1)
    |                                               |                |          x[0:4]: 0x17-0x1a.7 (4)
0x10|                     01                        |       .        |            [0]: 1 x 0x17-0x17.7 (1)
0x10|                        01                     |        .       |            [1]: 1 x 0x18-0x18.7 (1)
0x10|                           01                  |         .      |            [2]: 1 x 0x19-0x19.7 (1)
0x10|                              00               |          .     |            [3]: 0 x 0x1a-0x1a.7 (1)
    |                                               |                |    [2]{}: section 0x1b-0x29.7 (15)
0x10|                                 07            |           .    |      id: "export section" (7) 0x1b-0x1b.7 (1)
0x10|                                    0d         |            .   |      size: 13 0x1c-0x1c.7 (1)
    |                                               |                |      content{}: 0x1d-0x29.7 (13)
    |                                               |                |        ex{}: 0x1d-0x29.7 (13)
0x10|                                       03      |             .  |          n: 3 0x1d-0x1d.7 (1)
    |                                               |                |          x[0:3]: 0x1e-0x29.7 (12)
    |                                               |                |            [0]{}: ex 0x1e-0x21.7 (4)
    |                                               |                |              nm{}: 0x1e-0x1f.7 (2)
0x10|                                          01   |              . |                n: 1 0x1e-0x1e.7 (1)
0x10|                                             66|               f|                b: "f" 0x1f-0x1f.7 (1)
    |                                               |                |              d{}: 0x20-0x21.7 (2)
0x20|00                                             |.               |                tag: "funcidx" (0x0) 0x20-0x20.7 (1)
0x20|   00                                          | .              |                x: 0 0x21-0x21.7 (1)
    |                                               |                |            [1]{}: ex 0x22-0x25.7 (4)
    |                                               |                |              nm{}: 0x22-0x23.7 (2)
0x20|      01                                       |  .             |                n: 1 0x22-0x22.7 (1)
0x20|         67                                    |   g            |                b: "g" 0x23-0x23.7 (1)
    |                                               |                |              d{}: 0x24-0x25.7 (2)
0x20|            00                                 |    .           |                tag: "funcidx" (0x0) 0x24-0x24.7 (1)
0x20|               02                              |     .          |                x: 2 0x25-0x25.7 (1)
    |                                               |                |            [2]{}: ex 0x26-0x29.7 (4)
    |                                               |                |              nm{}: 0x26-0x27.7 (2)
0x20|                  01                           |      .         |                n: 1 0x26-0x26.7 (1)
0x20|                     70                        |       p        |                b: "p" 0x27-0x27.7 (1)
    |                                               |                |              d{}: 0x28-0x29.7 (2)
0x20|                        00                     |        .       |                tag: "funcidx" (0x0) 0x28-0x28.7 (1)
0x20|                           03                  |         .      |                x: 3 0x29-0x29.7 (1)
    |                                               |                |    [3]{}: section 0x2a-0x4c.7 (35)
0x20|                              0a               |          .     |      id: "code section" (10) 0x2a-0x2a.7 (1)
0x20|                                 21            |           !    |      size: 33 0x2b-0x2b.7 (1)
    |                                               |                |      content{}: 0x2c-0x4c.7 (33)
    |                                               |                |        code{}: 0x2c-0x4c.7 (33)
0x20|                                    04         |            .   |          n: 4 0x2c-0x2c.7 (1)
    |                                               |                |          x[0:4]: 0x2d-0x4c.7 (32)
    |                                               |                |            [0]{}: code 0x2d-0x33.7 (7)
0x20|                                       06      |             .  |              size: 6 0x2d-0x2d.7 (1)
    |                                               |                |              code{}: 0x2e-0x33.7 (6)
    |                                               |                |                t{}: 0x2e-0x30.7 (3)
0x20|                                          01   |              . |                  n: 1 0x2e-0x2e.7 (1)
    |                                               |                |                  x[0:1]: 0x2f-0x30.7 (2)
    |                                               |                |                    [0]{}: t 0x2f-0x30.7 (2)
0x20|                                             01|               .|                      n: 1 0x2f-0x2f.7 (1)
0x30|7f                                             |.               |                      t: "i32" (0x7f) 0x30-0x30.7 (1)
    |                                               |                |                e[0:2]: 0x31-0x33.7 (3)
    |                                               |                |                  [0]{}: in 0x31-0x32.7 (2)
0x30|   20                                          |                |                    local.get: 0x20 (valid) 0x31-0x31.7 (1)
0x30|      01                                       |  .             |                    x: 1 0x32-0x32.7 (1)
    |                                               |                |                  [1]{}: in 0x33-0x33.7 (1)
0x30|         0b                                    |   .            |                    end: 0xb (valid) 0x33-0x33.7 (1)
    |                                               |                |            [1]{}: code 0x34-0x3a.7 (7)
0x30|            06                                 |    .           |              size: 6 0x34-0x34.7 (1)
    |                                               |                |              code{}: 0x35-0x3a.7 (6)
    |                                               |                |                t{}: 0x35-0x37.7 (3)
0x30|               01                              |     .          |                  n: 1 0x35-0x35.7 (1)
    |                                               |                |                  x[0:1]: 0x36-0x37.7 (2)
    |                                               |                |                    [0]{}: t 0x36-0x37.7 (2)
0x30|                  01                           |      .         |                      n: 1 0x36-0x36.7 (1)
0x30|                     7f                        |       .        |                      t: "i32" (0x7f) 0x37-0x37.7 (1)
    |                                               |                |                e[0:2]: 0x38-0x3a.7 (3)
    |                                               |                |                  [0]{}: in 0x38-0x39.7 (2)
0x30|                        20                     |                |                    local.get: 0x20 (valid) 0x38-0x38.7 (1)
0x30|                           01                  |         .      |                    x: 1 0x39-0x39.7 (1)
    |                                               |                |                  [1]{}: in 0x3a-0x3a.7 (1)
0x30|                              0b               |          .     |                    end: 0xb (valid) 0x3a-0x3a.7 (1)
    |                                               |                |            [2]{}: code 0x3b-0x41.7 (7)
0x30|                                 06            |           .    |              size: 6 0x3b-0x3b.7 (1)
    |                                               |                |              code{}: 0x3c-0x41.7 (6)
    |                                               |                |                t{}: 0x3c-0x3c.7 (1)
0x30|                                    00         |            .   |                  n: 0 0x3c-0x3c.7 (1)
    |                                               |                |                  x[0:0]: 0x3d-NA (0)
    |                                               |                |                e[0:3]: 0x3d-0x41.7 (5)
    |                                               |                |                  [0]{}: in 0x3d-0x3e.7 (2)
0x30|                                       20      |                |                    local.get: 0x20 (valid) 0x3d-0x3d.7 (1)
0x30|                                          00   |              . |                    x: 0 0x3e-0x3e.7 (1)
    |                                               |                |                  [1]{}: in 0x3f-0x40.7 (2)
0x30|                                             10|               .|                    call: 0x10 (valid) 0x3f-0x3f.7 (1)
0x40|01                                             |.               |                    x: 1 0x40-0x40.7 (1)
    |                                               |                |                  [2]{}: in 0x41-0x41.7 (1)
0x40|   0b                                          | .              |                    end: 0xb (valid) 0x41-0x41.7 (1)
    |                                               |                |            [3]{}: code 0x42-0x4c.7 (11)
0x40|      0a                                       |  .             |              size: 10 0x42-0x42.7 (1)
    |                                               |                |              code{}: 0x43-0x4c.7 (10)
    |                                               |                |                t{}: 0x43-0x45.7 (3)
0x40|         01                                    |   .            |                  n: 1 0x43-0x43.7 (1)
    |                                               |                |                  x[0:1]: 0x44-0x45.7 (2)
    |                                               |                |                    [0]{}: t 0x44-0x45.7 (2)
0x40|            01                                 |    .           |                      n: 1 0x44-0x44.7 (1)
0x40|               7f                              |     .          |                      t: "i32" (0x7f) 0x45-0x45.7 (1)
    |                                               |                |                e[0:4]: 0x46-0x4c.7 (7)
    |                                               |                |                  [0]{}: in 0x46-0x47.7 (2)
0x40|                  41                           |      A         |                    i32.const: 0x41 (valid) 0x46-0x46.7 (1)
0x40|                     2a                        |       *        |                    n: 42 0x47-0x47.7 (1)
    |                                               |                |                  [1]{}: in 0x48-0x49.7 (2)
0x40|                        21                     |        !       |                    local.set: 0x21 (valid) 0x48-0x48.7 (1)
0x40|                           00                  |         .      |                    x: 0 0x49-0x49.7 (1)
    |                                               |                |                  [2]{}: in 0x4a-0x4b.7 (2)
0x40|                              20               |                |                    local.get: 0x20 (valid) 0x4a-0x4a.7 (1)
0x40|                                 00            |           .    |                    x: 0 0x4b-0x4b.7 (1)
    |                                               |                |                  [3]{}: in 0x4c-0x4c.7 (1)
0x40|                                    0b|        |            .|  |                    end: 0xb (valid) 0x4c-0x4c.7 (1)
