$ fq -d wasm dv func_ptrs-1.wasm
    |00 01 02 03 04 05 06 07 08 09 0a 0b 0c 0d 0e 0f|0123456789abcdef|.{}: func_ptrs-1.wasm (wasm) 0x0-0x76.7 (119)
0x00|00 61 73 6d                                    |.asm            |  magic: raw bits (valid) 0x0-0x3.7 (4)
0x00|            01 00 00 00                        |    ....        |  version: 1 0x4-0x7.7 (4)
    |                                               |                |  sections[0:6]: 0x8-0x76.7 (111)
    |                                               |                |    [0]{}: section 0x8-0x17.7 (16)
0x00|                        01                     |        .       |      id: "type section" (1) 0x8-0x8.7 (1)
0x00|                           0e                  |         .      |      size: 14 0x9-0x9.7 (1)
    |                                               |                |      content{}: 0xa-0x17.7 (14)
    |                                               |                |        ft{}: 0xa-0x17.7 (14)
0x00|                              03               |          .     |          n: 3 0xa-0xa.7 (1)
    |                                               |                |          x[0:3]: 0xb-0x17.7 (13)
    |                                               |                |            [0]{}: ft 0xb-0xe.7 (4)
0x00|                                 60            |           `    |              tag: 0x60 (valid) 0xb-0xb.7 (1)
    |                                               |                |              rt1{}: 0xc-0xc.7 (1)
0x00|                                    00         |            .   |                n: 0 0xc-0xc.7 (1)
    |                                               |                |                x[0:0]: 0xd-NA (0)
    |                                               |                |              rt2{}: 0xd-0xe.7 (2)
0x00|                                       01      |             .  |                n: 1 0xd-0xd.7 (1)
    |                                               |                |                x[0:1]: 0xe-0xe.7 (1)
0x00|                                          7f   |              . |                  [0]: "i32" (0x7f) t 0xe-0xe.7 (1)
    |                                               |                |            [1]{}: ft 0xf-0x12.7 (4)
0x00|                                             60|               `|              tag: 0x60 (valid) 0xf-0xf.7 (1)
    |                                               |                |              rt1{}: 0x10-0x10.7 (1)
0x10|00                                             |.               |                n: 0 0x10-0x10.7 (1)
    |                                               |                |                x[0:0]: 0x11-NA (0)
    |                                               |                |              rt2{}: 0x11-0x12.7 (2)
0x10|   01                                          | .              |                n: 1 0x11-0x11.7 (1)
    |                                               |                |                x[0:1]: 0x12-0x12.7 (1)
0x10|      7f                                       |  .             |                  [0]: "i32" (0x7f) t 0x12-0x12.7 (1)
    |                                               |                |            [2]{}: ft 0x13-0x17.7 (5)
0x10|         60                                    |   `            |              tag: 0x60 (valid) 0x13-0x13.7 (1)
    |                                               |                |              rt1{}: 0x14-0x15.7 (2)
0x10|            01                                 |    .           |                n: 1 0x14-0x14.7 (1)
    |                                               |                |                x[0:1]: 0x15-0x15.7 (1)
0x10|               7f                              |     .          |                  [0]: "i32" (0x7f) t 0x15-0x15.7 (1)
    |                                               |                |              rt2{}: 0x16-0x17.7 (2)
0x10|                  01                           |      .         |                n: 1 0x16-0x16.7 (1)
    |                                               |                |                x[0:1]: 0x17-0x17.7 (1)
0x10|                     7f                        |       .        |                  [0]: "i32" (0x7f) t 0x17-0x17.7 (1)
    |                                               |                |    [1]{}: section 0x18-0x21.7 (10)
0x10|                        03                     |        .       |      id: "function section" (3) 0x18-0x18.7 (1)
0x10|                           08                  |         .      |      size: 8 0x19-0x19.7 (1)
    |                                               |                |      content{}: 0x1a-0x21.7 (8)
    |                                               |                |        x{}: 0x1a-0x21.7 (8)
0x10|                              07               |          .     |          n: 7 0x1a-0x1a.7 (1)
    |                                               |                |          x[0:7]: 0x1b-0x21.7 (7)
0x10|                                 00            |           .    |            [0]: 0 x 0x1b-0x1b.7 (1)
0x10|                                    00         |            .   |            [1]: 0 x 0x1c-0x1c.7 (1)
0x10|                                       00      |             .  |            [2]: 0 x 0x1d-0x1d.7 (1)
0x10|                                          01   |              . |            [3]: 1 x 0x1e-0x1e.7 (1)
0x10|                                             01|               .|            [4]: 1 x 0x1f-0x1f.7 (1)
0x20|02                                             |.               |            [5]: 2 x 0x20-0x20.7 (1)
0x20|   02                                          | .              |            [6]: 2 x 0x21-0x21.7 (1)
    |                                               |                |    [2]{}: section 0x22-0x28.7 (7)
0x20|      04                                       |  .             |      id: "table section" (4) 0x22-0x22.7 (1)
0x20|         05                                    |   .            |      size: 5 0x23-0x23.7 (1)
    |                                               |                |      content{}: 0x24-0x28.7 (5)
    |                                               |                |        tab{}: 0x24-0x28.7 (5)
0x20|            01                                 |    .           |          n: 1 0x24-0x24.7 (1)
    |                                               |                |          x[0:1]: 0x25-0x28.7 (4)
    |                                               |                |            [0]{}: tab 0x25-0x28.7 (4)
0x20|               70                              |     p          |              et: "funcref" (112) 0x25-0x25.7 (1)
    |                                               |                |              lim{}: 0x26-0x28.7 (3)
0x20|                  01                           |      .         |                tag: 0x1 0x26-0x26.7 (1)
0x20|                     07                        |       .        |                n: 7 0x27-0x27.7 (1)
0x20|                        07                     |        .       |                m: 7 0x28-0x28.7 (1)
    |                                               |                |    [3]{}: section 0x29-0x3b.7 (19)
0x20|                           07                  |         .      |      id: "export section" (7) 0x29-0x29.7 (1)
0x20|                              11               |          .     |      size: 17 0x2a-0x2a.7 (1)
    |                                               |                |      content{}: 0x2b-0x3b.7 (17)
    |                                               |                |        ex{}: 0x2b-0x3b.7 (17)
0x20|                                 02            |           .    |          n: 2 0x2b-0x2b.7 (1)
    |                                               |                |          x[0:2]: 0x2c-0x3b.7 (16)
    |                                               |                |            [0]{}: ex 0x2c-0x33.7 (8)
    |                                               |                |              nm{}: 0x2c-0x31.7 (6)
0x20|                                    05         |            .   |                n: 5 0x2c-0x2c.7 (1)
0x20|                                       63 61 6c|             cal|                b: "callt" 0x2d-0x31.7 (5)
0x30|6c 74                                          |lt              |
    |                                               |                |              d{}: 0x32-0x33.7 (2)
0x30|      00                                       |  .             |                tag: "funcidx" (0x0) 0x32-0x32.7 (1)
0x30|         05                                    |   .            |                x: 5 0x33-0x33.7 (1)
    |                                               |                |            [1]{}: ex 0x34-0x3b.7 (8)
    |                                               |                |              nm{}: 0x34-0x39.7 (6)
0x30|            05                                 |    .           |                n: 5 0x34-0x34.7 (1)
0x30|               63 61 6c 6c 75                  |     callu      |                b: "callu" 0x35-0x39.7 (5)
    |                                               |                |              d{}: 0x3a-0x3b.7 (2)
0x30|                              00               |          .     |                tag: "funcidx" (0x0) 0x3a-0x3a.7 (1)
0x30|                                 06            |           .    |                x: 6 0x3b-0x3b.7 (1)
    |                                               |                |    [4]{}: section 0x3c-0x4a.7 (15)
0x30|                                    09         |            .   |      id: "element section" (9) 0x3c-0x3c.7 (1)
0x30|                                       0d      |             .  |      size: 13 0x3d-0x3d.7 (1)
    |                                               |                |      element{}: 0x3e-0x4a.7 (13)
    |                                               |                |        seg{}: 0x3e-0x4a.7 (13)
0x30|                                          01   |              . |          n: 1 0x3e-0x3e.7 (1)
    |                                               |                |          x[0:1]: 0x3f-0x4a.7 (12)
    |                                               |                |            [0]{}: seg 0x3f-0x4a.7 (12)
0x30|                                             00|               .|              tag: 0 0x3f-0x3f.7 (1)
    |                                               |                |              e[0:2]: 0x40-0x42.7 (3)
    |                                               |                |                [0]{}: in 0x40-0x41.7 (2)
0x40|41                                             |A               |                  i32.const: 0x41 (valid) 0x40-0x40.7 (1)
0x40|   00                                          | .              |                  n: 0 0x41-0x41.7 (1)
    |                                               |                |                [1]{}: in 0x42-0x42.7 (1)
0x40|      0b                                       |  .             |                  end: 0xb (valid) 0x42-0x42.7 (1)
    |                                               |                |              y{}: 0x43-0x4a.7 (8)
0x40|         07                                    |   .            |                n: 7 0x43-0x43.7 (1)
    |                                               |                |                x[0:7]: 0x44-0x4a.7 (7)
0x40|            00                                 |    .           |                  [0]: 0 y 0x44-0x44.7 (1)
0x40|               01                              |     .          |                  [1]: 1 y 0x45-0x45.7 (1)
0x40|                  02                           |      .         |                  [2]: 2 y 0x46-0x46.7 (1)
0x40|                     03                        |       .        |                  [3]: 3 y 0x47-0x47.7 (1)
0x40|                        04                     |        .       |                  [4]: 4 y 0x48-0x48.7 (1)
0x40|                           00                  |         .      |                  [5]: 0 y 0x49-0x49.7 (1)
0x40|                              02               |          .     |                  [6]: 2 y 0x4a-0x4a.7 (1)
    |                                               |                |    [5]{}: section 0x4b-0x76.7 (44)
0x40|                                 0a            |           .    |      id: "code section" (10) 0x4b-0x4b.7 (1)
0x40|                                    2a         |            *   |      size: 42 0x4c-0x4c.7 (1)
    |                                               |                |      content{}: 0x4d-0x76.7 (42)
    |                                               |                |        code{}: 0x4d-0x76.7 (42)
0x40|                                       07      |             .  |          n: 7 0x4d-0x4d.7 (1)
    |                                               |                |          x[0:7]: 0x4e-0x76.7 (41)
    |                                               |                |            [0]{}: code 0x4e-0x52.7 (5)
0x40|                                          04   |              . |              size: 4 0x4e-0x4e.7 (1)
    |                                               |                |              code{}: 0x4f-0x52.7 (4)
    |                                               |                |                t{}: 0x4f-0x4f.7 (1)
0x40|                                             00|               .|                  n: 0 0x4f-0x4f.7 (1)
    |                                               |                |                  x[0:0]: 0x50-NA (0)
    |                                               |                |                e[0:2]: 0x50-0x52.7 (3)
    |                                               |                |                  [0]{}: in 0x50-0x51.7 (2)
0x50|41                                             |A               |                    i32.const: 0x41 (valid) 0x50-0x50.7 (1)
0x50|   01                                          | .              |                    n: 1 0x51-0x51.7 (1)
    |                                               |                |                  [1]{}: in 0x52-0x52.7 (1)
0x50|      0b                                       |  .             |                    end: 0xb (valid) 0x52-0x52.7 (1)
    |                                               |                |            [1]{}: code 0x53-0x57.7 (5)
0x50|         04                                    |   .            |              size: 4 0x53-0x53.7 (1)
    |                                               |                |              code{}: 0x54-0x57.7 (4)
    |                                               |                |                t{}: 0x54-0x54.7 (1)
0x50|            00                                 |    .           |                  n: 0 0x54-0x54.7 (1)
    |                                               |                |                  x[0:0]: 0x55-NA (0)
    |                                               |                |                e[0:2]: 0x55-0x57.7 (3)
    |                                               |                |                  [0]{}: in 0x55-0x56.7 (2)
0x50|               41                              |     A          |                    i32.const: 0x41 (valid) 0x55-0x55.7 (1)
0x50|                  02                           |      .         |                    n: 2 0x56-0x56.7 (1)
    |                                               |                |                  [1]{}: in 0x57-0x57.7 (1)
0x50|                     0b                        |       .        |                    end: 0xb (valid) 0x57-0x57.7 (1)
    |                                               |                |            [2]{}: code 0x58-0x5c.7 (5)
0x50|                        04                     |        .       |              size: 4 0x58-0x58.7 (1)
    |                                               |                |              code{}: 0x59-0x5c.7 (4)
    |                                               |                |                t{}: 0x59-0x59.7 (1)
0x50|                           00                  |         .      |                  n: 0 0x59-0x59.7 (1)
    |                                               |                |                  x[0:0]: 0x5a-NA (0)
    |                                               |                |                e[0:2]: 0x5a-0x5c.7 (3)
    |                                               |                |                  [0]{}: in 0x5a-0x5b.7 (2)
0x50|                              41               |          A     |                    i32.const: 0x41 (valid) 0x5a-0x5a.7 (1)
0x50|                                 03            |           .    |                    n: 3 0x5b-0x5b.7 (1)
    |                                               |                |                  [1]{}: in 0x5c-0x5c.7 (1)
0x50|                                    0b         |            .   |                    end: 0xb (valid) 0x5c-0x5c.7 (1)
    |                                               |                |            [3]{}: code 0x5d-0x61.7 (5)
0x50|                                       04      |             .  |              size: 4 0x5d-0x5d.7 (1)
    |                                               |                |              code{}: 0x5e-0x61.7 (4)
    |                                               |                |                t{}: 0x5e-0x5e.7 (1)
0x50|                                          00   |              . |                  n: 0 0x5e-0x5e.7 (1)
    |                                               |                |                  x[0:0]: 0x5f-NA (0)
    |                                               |                |                e[0:2]: 0x5f-0x61.7 (3)
    |                                               |                |                  [0]{}: in 0x5f-0x60.7 (2)
0x50|                                             41|               A|                    i32.const: 0x41 (valid) 0x5f-0x5f.7 (1)
0x60|04                                             |.               |                    n: 4 0x60-0x60.7 (1)
    |                                               |                |                  [1]{}: in 0x61-0x61.7 (1)
0x60|   0b                                          | .              |                    end: 0xb (valid) 0x61-0x61.7 (1)
    |                                               |                |            [4]{}: code 0x62-0x66.7 (5)
0x60|      04                                       |  .             |              size: 4 0x62-0x62.7 (1)
    |                                               |                |              code{}: 0x63-0x66.7 (4)
    |                                               |                |                t{}: 0x63-0x63.7 (1)
0x60|         00                                    |   .            |                  n: 0 0x63-0x63.7 (1)
    |                                               |                |                  x[0:0]: 0x64-NA (0)
    |                                               |                |                e[0:2]: 0x64-0x66.7 (3)
    |                                               |                |                  [0]{}: in 0x64-0x65.7 (2)
0x60|            41                                 |    A           |                    i32.const: 0x41 (valid) 0x64-0x64.7 (1)
0x60|               05                              |     .          |                    n: 5 0x65-0x65.7 (1)
    |                                               |                |                  [1]{}: in 0x66-0x66.7 (1)
0x60|                  0b                           |      .         |                    end: 0xb (valid) 0x66-0x66.7 (1)
    |                                               |                |            [5]{}: code 0x67-0x6e.7 (8)
0x60|                     07                        |       .        |              size: 7 0x67-0x67.7 (1)
    |                                               |                |              code{}: 0x68-0x6e.7 (7)
    |                                               |                |                t{}: 0x68-0x68.7 (1)
0x60|                        00                     |        .       |                  n: 0 0x68-0x68.7 (1)
    |                                               |                |                  x[0:0]: 0x69-NA (0)
    |                                               |                |                e[0:3]: 0x69-0x6e.7 (6)
    |                                               |                |                  [0]{}: in 0x69-0x6a.7 (2)
0x60|                           20                  |                |                    local.get: 0x20 (valid) 0x69-0x69.7 (1)
0x60|                              00               |          .     |                    x: 0 0x6a-0x6a.7 (1)
    |                                               |                |                  [1]{}: in 0x6b-0x6d.7 (3)
0x60|                                 11            |           .    |                    call: 0x11 (valid) 0x6b-0x6b.7 (1)
0x60|                                    00         |            .   |                    y: 0 0x6c-0x6c.7 (1)
0x60|                                       00      |             .  |                    x: 0 0x6d-0x6d.7 (1)
    |                                               |                |                  [2]{}: in 0x6e-0x6e.7 (1)
0x60|                                          0b   |              . |                    end: 0xb (valid) 0x6e-0x6e.7 (1)
    |                                               |                |            [6]{}: code 0x6f-0x76.7 (8)
0x60|                                             07|               .|              size: 7 0x6f-0x6f.7 (1)
    |                                               |                |              code{}: 0x70-0x76.7 (7)
    |                                               |                |                t{}: 0x70-0x70.7 (1)
0x70|00                                             |.               |                  n: 0 0x70-0x70.7 (1)
    |                                               |                |                  x[0:0]: 0x71-NA (0)
    |                                               |                |                e[0:3]: 0x71-0x76.7 (6)
    |                                               |                |                  [0]{}: in 0x71-0x72.7 (2)
0x70|   20                                          |                |                    local.get: 0x20 (valid) 0x71-0x71.7 (1)
0x70|      00                                       |  .             |                    x: 0 0x72-0x72.7 (1)
    |                                               |                |                  [1]{}: in 0x73-0x75.7 (3)
0x70|         11                                    |   .            |                    call: 0x11 (valid) 0x73-0x73.7 (1)
0x70|            01                                 |    .           |                    y: 1 0x74-0x74.7 (1)
0x70|               00                              |     .          |                    x: 0 0x75-0x75.7 (1)
    |                                               |                |                  [2]{}: in 0x76-0x76.7 (1)
0x70|                  0b|                          |      .|        |                    end: 0xb (valid) 0x76-0x76.7 (1)
