$ fq -d wasm dv func_ptrs-1.wasm
    |00 01 02 03 04 05 06 07 08 09 0a 0b 0c 0d 0e 0f|0123456789abcdef|.{}: func_ptrs-1.wasm (wasm) 0x0-0x77 (119)
0x00|00 61 73 6d                                    |.asm            |  magic: raw bits (valid) 0x0-0x4 (4)
0x00|            01 00 00 00                        |    ....        |  version: 1 0x4-0x8 (4)
    |                                               |                |  sections[0:6]: 0x8-0x77 (111)
    |                                               |                |    [0]{}: section 0x8-0x18 (16)
0x00|                        01                     |        .       |      id: "type_section" (1) 0x8-0x9 (1)
0x00|                           0e                  |         .      |      size: 14 (valid) 0x9-0xa (1)
    |                                               |                |      content{}: 0xa-0x18 (14)
    |                                               |                |        ft{}: 0xa-0x18 (14)
0x00|                              03               |          .     |          n: 3 (valid) 0xa-0xb (1)
    |                                               |                |          x[0:3]: 0xb-0x18 (13)
    |                                               |                |            [0]{}: ft 0xb-0xf (4)
0x00|                                 60            |           `    |              tag: 0x60 (valid) 0xb-0xc (1)
    |                                               |                |              rt1{}: 0xc-0xd (1)
0x00|                                    00         |            .   |                n: 0 (valid) 0xc-0xd (1)
    |                                               |                |                x[0:0]: 0xd-0xd (0)
    |                                               |                |              rt2{}: 0xd-0xf (2)
0x00|                                       01      |             .  |                n: 1 (valid) 0xd-0xe (1)
    |                                               |                |                x[0:1]: 0xe-0xf (1)
0x00|                                          7f   |              . |                  [0]: "i32" (0x7f) t 0xe-0xf (1)
    |                                               |                |            [1]{}: ft 0xf-0x13 (4)
0x00|                                             60|               `|              tag: 0x60 (valid) 0xf-0x10 (1)
    |                                               |                |              rt1{}: 0x10-0x11 (1)
0x10|00                                             |.               |                n: 0 (valid) 0x10-0x11 (1)
    |                                               |                |                x[0:0]: 0x11-0x11 (0)
    |                                               |                |              rt2{}: 0x11-0x13 (2)
0x10|   01                                          | .              |                n: 1 (valid) 0x11-0x12 (1)
    |                                               |                |                x[0:1]: 0x12-0x13 (1)
0x10|      7f                                       |  .             |                  [0]: "i32" (0x7f) t 0x12-0x13 (1)
    |                                               |                |            [2]{}: ft 0x13-0x18 (5)
0x10|         60                                    |   `            |              tag: 0x60 (valid) 0x13-0x14 (1)
    |                                               |                |              rt1{}: 0x14-0x16 (2)
0x10|            01                                 |    .           |                n: 1 (valid) 0x14-0x15 (1)
    |                                               |                |                x[0:1]: 0x15-0x16 (1)
0x10|               7f                              |     .          |                  [0]: "i32" (0x7f) t 0x15-0x16 (1)
    |                                               |                |              rt2{}: 0x16-0x18 (2)
0x10|                  01                           |      .         |                n: 1 (valid) 0x16-0x17 (1)
    |                                               |                |                x[0:1]: 0x17-0x18 (1)
0x10|                     7f                        |       .        |                  [0]: "i32" (0x7f) t 0x17-0x18 (1)
    |                                               |                |    [1]{}: section 0x18-0x22 (10)
0x10|                        03                     |        .       |      id: "function_section" (3) 0x18-0x19 (1)
0x10|                           08                  |         .      |      size: 8 (valid) 0x19-0x1a (1)
    |                                               |                |      content{}: 0x1a-0x22 (8)
    |                                               |                |        x{}: 0x1a-0x22 (8)
0x10|                              07               |          .     |          n: 7 (valid) 0x1a-0x1b (1)
    |                                               |                |          x[0:7]: 0x1b-0x22 (7)
0x10|                                 00            |           .    |            [0]: 0 x (valid) 0x1b-0x1c (1)
0x10|                                    00         |            .   |            [1]: 0 x (valid) 0x1c-0x1d (1)
0x10|                                       00      |             .  |            [2]: 0 x (valid) 0x1d-0x1e (1)
0x10|                                          01   |              . |            [3]: 1 x (valid) 0x1e-0x1f (1)
0x10|                                             01|               .|            [4]: 1 x (valid) 0x1f-0x20 (1)
0x20|02                                             |.               |            [5]: 2 x (valid) 0x20-0x21 (1)
0x20|   02                                          | .              |            [6]: 2 x (valid) 0x21-0x22 (1)
    |                                               |                |    [2]{}: section 0x22-0x29 (7)
0x20|      04                                       |  .             |      id: "table_section" (4) 0x22-0x23 (1)
0x20|         05                                    |   .            |      size: 5 (valid) 0x23-0x24 (1)
    |                                               |                |      content{}: 0x24-0x29 (5)
    |                                               |                |        tab{}: 0x24-0x29 (5)
0x20|            01                                 |    .           |          n: 1 (valid) 0x24-0x25 (1)
    |                                               |                |          x[0:1]: 0x25-0x29 (4)
    |                                               |                |            [0]{}: tab 0x25-0x29 (4)
0x20|               70                              |     p          |              et: "funcref" (112) 0x25-0x26 (1)
    |                                               |                |              lim{}: 0x26-0x29 (3)
0x20|                  01                           |      .         |                tag: 0x1 0x26-0x27 (1)
0x20|                     07                        |       .        |                n: 7 (valid) 0x27-0x28 (1)
0x20|                        07                     |        .       |                m: 7 (valid) 0x28-0x29 (1)
    |                                               |                |    [3]{}: section 0x29-0x3c (19)
0x20|                           07                  |         .      |      id: "export_section" (7) 0x29-0x2a (1)
0x20|                              11               |          .     |      size: 17 (valid) 0x2a-0x2b (1)
    |                                               |                |      content{}: 0x2b-0x3c (17)
    |                                               |                |        ex{}: 0x2b-0x3c (17)
0x20|                                 02            |           .    |          n: 2 (valid) 0x2b-0x2c (1)
    |                                               |                |          x[0:2]: 0x2c-0x3c (16)
    |                                               |                |            [0]{}: ex 0x2c-0x34 (8)
    |                                               |                |              nm{}: 0x2c-0x32 (6)
0x20|                                    05         |            .   |                n: 5 (valid) 0x2c-0x2d (1)
0x20|                                       63 61 6c|             cal|                b: "callt" 0x2d-0x32 (5)
0x30|6c 74                                          |lt              |
    |                                               |                |              d{}: 0x32-0x34 (2)
0x30|      00                                       |  .             |                tag: "funcidx" (0x0) 0x32-0x33 (1)
0x30|         05                                    |   .            |                x: 5 (valid) 0x33-0x34 (1)
    |                                               |                |            [1]{}: ex 0x34-0x3c (8)
    |                                               |                |              nm{}: 0x34-0x3a (6)
0x30|            05                                 |    .           |                n: 5 (valid) 0x34-0x35 (1)
0x30|               63 61 6c 6c 75                  |     callu      |                b: "callu" 0x35-0x3a (5)
    |                                               |                |              d{}: 0x3a-0x3c (2)
0x30|                              00               |          .     |                tag: "funcidx" (0x0) 0x3a-0x3b (1)
0x30|                                 06            |           .    |                x: 6 (valid) 0x3b-0x3c (1)
    |                                               |                |    [4]{}: section 0x3c-0x4b (15)
0x30|                                    09         |            .   |      id: "element_section" (9) 0x3c-0x3d (1)
0x30|                                       0d      |             .  |      size: 13 (valid) 0x3d-0x3e (1)
    |                                               |                |      element{}: 0x3e-0x4b (13)
    |                                               |                |        seg{}: 0x3e-0x4b (13)
0x30|                                          01   |              . |          n: 1 (valid) 0x3e-0x3f (1)
    |                                               |                |          x[0:1]: 0x3f-0x4b (12)
    |                                               |                |            [0]{}: seg 0x3f-0x4b (12)
0x30|                                             00|               .|              tag: 0 (valid) 0x3f-0x40 (1)
    |                                               |                |              e[0:2]: 0x40-0x43 (3)
    |                                               |                |                [0]{}: in 0x40-0x42 (2)
0x40|41                                             |A               |                  opcode: "i32.const" (0x41) 0x40-0x41 (1)
0x40|   00                                          | .              |                  n: 0 (valid) 0x41-0x42 (1)
    |                                               |                |                [1]{}: in 0x42-0x43 (1)
0x40|      0b                                       |  .             |                  opcode: "end" (0xb) 0x42-0x43 (1)
    |                                               |                |              y{}: 0x43-0x4b (8)
0x40|         07                                    |   .            |                n: 7 (valid) 0x43-0x44 (1)
    |                                               |                |                x[0:7]: 0x44-0x4b (7)
0x40|            00                                 |    .           |                  [0]: 0 y (valid) 0x44-0x45 (1)
0x40|               01                              |     .          |                  [1]: 1 y (valid) 0x45-0x46 (1)
0x40|                  02                           |      .         |                  [2]: 2 y (valid) 0x46-0x47 (1)
0x40|                     03                        |       .        |                  [3]: 3 y (valid) 0x47-0x48 (1)
0x40|                        04                     |        .       |                  [4]: 4 y (valid) 0x48-0x49 (1)
0x40|                           00                  |         .      |                  [5]: 0 y (valid) 0x49-0x4a (1)
0x40|                              02               |          .     |                  [6]: 2 y (valid) 0x4a-0x4b (1)
    |                                               |                |    [5]{}: section 0x4b-0x77 (44)
0x40|                                 0a            |           .    |      id: "code_section" (10) 0x4b-0x4c (1)
0x40|                                    2a         |            *   |      size: 42 (valid) 0x4c-0x4d (1)
    |                                               |                |      content{}: 0x4d-0x77 (42)
    |                                               |                |        code{}: 0x4d-0x77 (42)
0x40|                                       07      |             .  |          n: 7 (valid) 0x4d-0x4e (1)
    |                                               |                |          x[0:7]: 0x4e-0x77 (41)
    |                                               |                |            [0]{}: code 0x4e-0x53 (5)
0x40|                                          04   |              . |              size: 4 (valid) 0x4e-0x4f (1)
    |                                               |                |              code{}: 0x4f-0x53 (4)
    |                                               |                |                t{}: 0x4f-0x50 (1)
0x40|                                             00|               .|                  n: 0 (valid) 0x4f-0x50 (1)
    |                                               |                |                  x[0:0]: 0x50-0x50 (0)
    |                                               |                |                e[0:2]: 0x50-0x53 (3)
    |                                               |                |                  [0]{}: in 0x50-0x52 (2)
0x50|41                                             |A               |                    opcode: "i32.const" (0x41) 0x50-0x51 (1)
0x50|   01                                          | .              |                    n: 1 (valid) 0x51-0x52 (1)
    |                                               |                |                  [1]{}: in 0x52-0x53 (1)
0x50|      0b                                       |  .             |                    opcode: "end" (0xb) 0x52-0x53 (1)
    |                                               |                |            [1]{}: code 0x53-0x58 (5)
0x50|         04                                    |   .            |              size: 4 (valid) 0x53-0x54 (1)
    |                                               |                |              code{}: 0x54-0x58 (4)
    |                                               |                |                t{}: 0x54-0x55 (1)
0x50|            00                                 |    .           |                  n: 0 (valid) 0x54-0x55 (1)
    |                                               |                |                  x[0:0]: 0x55-0x55 (0)
    |                                               |                |                e[0:2]: 0x55-0x58 (3)
    |                                               |                |                  [0]{}: in 0x55-0x57 (2)
0x50|               41                              |     A          |                    opcode: "i32.const" (0x41) 0x55-0x56 (1)
0x50|                  02                           |      .         |                    n: 2 (valid) 0x56-0x57 (1)
    |                                               |                |                  [1]{}: in 0x57-0x58 (1)
0x50|                     0b                        |       .        |                    opcode: "end" (0xb) 0x57-0x58 (1)
    |                                               |                |            [2]{}: code 0x58-0x5d (5)
0x50|                        04                     |        .       |              size: 4 (valid) 0x58-0x59 (1)
    |                                               |                |              code{}: 0x59-0x5d (4)
    |                                               |                |                t{}: 0x59-0x5a (1)
0x50|                           00                  |         .      |                  n: 0 (valid) 0x59-0x5a (1)
    |                                               |                |                  x[0:0]: 0x5a-0x5a (0)
    |                                               |                |                e[0:2]: 0x5a-0x5d (3)
    |                                               |                |                  [0]{}: in 0x5a-0x5c (2)
0x50|                              41               |          A     |                    opcode: "i32.const" (0x41) 0x5a-0x5b (1)
0x50|                                 03            |           .    |                    n: 3 (valid) 0x5b-0x5c (1)
    |                                               |                |                  [1]{}: in 0x5c-0x5d (1)
0x50|                                    0b         |            .   |                    opcode: "end" (0xb) 0x5c-0x5d (1)
    |                                               |                |            [3]{}: code 0x5d-0x62 (5)
0x50|                                       04      |             .  |              size: 4 (valid) 0x5d-0x5e (1)
    |                                               |                |              code{}: 0x5e-0x62 (4)
    |                                               |                |                t{}: 0x5e-0x5f (1)
0x50|                                          00   |              . |                  n: 0 (valid) 0x5e-0x5f (1)
    |                                               |                |                  x[0:0]: 0x5f-0x5f (0)
    |                                               |                |                e[0:2]: 0x5f-0x62 (3)
    |                                               |                |                  [0]{}: in 0x5f-0x61 (2)
0x50|                                             41|               A|                    opcode: "i32.const" (0x41) 0x5f-0x60 (1)
0x60|04                                             |.               |                    n: 4 (valid) 0x60-0x61 (1)
    |                                               |                |                  [1]{}: in 0x61-0x62 (1)
0x60|   0b                                          | .              |                    opcode: "end" (0xb) 0x61-0x62 (1)
    |                                               |                |            [4]{}: code 0x62-0x67 (5)
0x60|      04                                       |  .             |              size: 4 (valid) 0x62-0x63 (1)
    |                                               |                |              code{}: 0x63-0x67 (4)
    |                                               |                |                t{}: 0x63-0x64 (1)
0x60|         00                                    |   .            |                  n: 0 (valid) 0x63-0x64 (1)
    |                                               |                |                  x[0:0]: 0x64-0x64 (0)
    |                                               |                |                e[0:2]: 0x64-0x67 (3)
    |                                               |                |                  [0]{}: in 0x64-0x66 (2)
0x60|            41                                 |    A           |                    opcode: "i32.const" (0x41) 0x64-0x65 (1)
0x60|               05                              |     .          |                    n: 5 (valid) 0x65-0x66 (1)
    |                                               |                |                  [1]{}: in 0x66-0x67 (1)
0x60|                  0b                           |      .         |                    opcode: "end" (0xb) 0x66-0x67 (1)
    |                                               |                |            [5]{}: code 0x67-0x6f (8)
0x60|                     07                        |       .        |              size: 7 (valid) 0x67-0x68 (1)
    |                                               |                |              code{}: 0x68-0x6f (7)
    |                                               |                |                t{}: 0x68-0x69 (1)
0x60|                        00                     |        .       |                  n: 0 (valid) 0x68-0x69 (1)
    |                                               |                |                  x[0:0]: 0x69-0x69 (0)
    |                                               |                |                e[0:3]: 0x69-0x6f (6)
    |                                               |                |                  [0]{}: in 0x69-0x6b (2)
0x60|                           20                  |                |                    opcode: "local.get" (0x20) 0x69-0x6a (1)
0x60|                              00               |          .     |                    x: 0 (valid) 0x6a-0x6b (1)
    |                                               |                |                  [1]{}: in 0x6b-0x6e (3)
0x60|                                 11            |           .    |                    opcode: "call_indirect" (0x11) 0x6b-0x6c (1)
0x60|                                    00         |            .   |                    y: 0 (valid) 0x6c-0x6d (1)
0x60|                                       00      |             .  |                    x: 0 (valid) 0x6d-0x6e (1)
    |                                               |                |                  [2]{}: in 0x6e-0x6f (1)
0x60|                                          0b   |              . |                    opcode: "end" (0xb) 0x6e-0x6f (1)
    |                                               |                |            [6]{}: code 0x6f-0x77 (8)
0x60|                                             07|               .|              size: 7 (valid) 0x6f-0x70 (1)
    |                                               |                |              code{}: 0x70-0x77 (7)
    |                                               |                |                t{}: 0x70-0x71 (1)
0x70|00                                             |.               |                  n: 0 (valid) 0x70-0x71 (1)
    |                                               |                |                  x[0:0]: 0x71-0x71 (0)
    |                                               |                |                e[0:3]: 0x71-0x77 (6)
    |                                               |                |                  [0]{}: in 0x71-0x73 (2)
0x70|   20                                          |                |                    opcode: "local.get" (0x20) 0x71-0x72 (1)
0x70|      00                                       |  .             |                    x: 0 (valid) 0x72-0x73 (1)
    |                                               |                |                  [1]{}: in 0x73-0x76 (3)
0x70|         11                                    |   .            |                    opcode: "call_indirect" (0x11) 0x73-0x74 (1)
0x70|            01                                 |    .           |                    y: 1 (valid) 0x74-0x75 (1)
0x70|               00                              |     .          |                    x: 0 (valid) 0x75-0x76 (1)
    |                                               |                |                  [2]{}: in 0x76-0x77 (1)
0x70|                  0b|                          |      .|        |                    opcode: "end" (0xb) 0x76-0x77 (1)
