$ fq -d wasm dv func-1.wasm
    |00 01 02 03 04 05 06 07 08 09 0a 0b 0c 0d 0e 0f|0123456789abcdef|.{}: func-1.wasm (wasm) 0x0-0x48.7 (73)
0x00|00 61 73 6d                                    |.asm            |  magic: raw bits (valid) 0x0-0x3.7 (4)
0x00|            01 00 00 00                        |    ....        |  version: 1 0x4-0x7.7 (4)
    |                                               |                |  sections[0:3]: 0x8-0x48.7 (65)
    |                                               |                |    [0]{}: section 0x8-0x15.7 (14)
0x00|                        01                     |        .       |      id: "type_section" (1) 0x8-0x8.7 (1)
0x00|                           0c                  |         .      |      size: 12 (valid) 0x9-0x9.7 (1)
    |                                               |                |      content{}: 0xa-0x15.7 (12)
    |                                               |                |        ft{}: 0xa-0x15.7 (12)
0x00|                              03               |          .     |          n: 3 (valid) 0xa-0xa.7 (1)
    |                                               |                |          x[0:3]: 0xb-0x15.7 (11)
    |                                               |                |            [0]{}: ft 0xb-0xe.7 (4)
0x00|                                 60            |           `    |              tag: 0x60 (valid) 0xb-0xb.7 (1)
    |                                               |                |              rt1{}: 0xc-0xd.7 (2)
0x00|                                    01         |            .   |                n: 1 (valid) 0xc-0xc.7 (1)
    |                                               |                |                x[0:1]: 0xd-0xd.7 (1)
0x00|                                       7f      |             .  |                  [0]: "i32" (0x7f) t 0xd-0xd.7 (1)
    |                                               |                |              rt2{}: 0xe-0xe.7 (1)
0x00|                                          00   |              . |                n: 0 (valid) 0xe-0xe.7 (1)
    |                                               |                |                x[0:0]: 0xf-NA (0)
    |                                               |                |            [1]{}: ft 0xf-0x12.7 (4)
0x00|                                             60|               `|              tag: 0x60 (valid) 0xf-0xf.7 (1)
    |                                               |                |              rt1{}: 0x10-0x10.7 (1)
0x10|00                                             |.               |                n: 0 (valid) 0x10-0x10.7 (1)
    |                                               |                |                x[0:0]: 0x11-NA (0)
    |                                               |                |              rt2{}: 0x11-0x12.7 (2)
0x10|   01                                          | .              |                n: 1 (valid) 0x11-0x11.7 (1)
    |                                               |                |                x[0:1]: 0x12-0x12.7 (1)
0x10|      7c                                       |  |             |                  [0]: "f64" (0x7c) t 0x12-0x12.7 (1)
    |                                               |                |            [2]{}: ft 0x13-0x15.7 (3)
0x10|         60                                    |   `            |              tag: 0x60 (valid) 0x13-0x13.7 (1)
    |                                               |                |              rt1{}: 0x14-0x14.7 (1)
0x10|            00                                 |    .           |                n: 0 (valid) 0x14-0x14.7 (1)
    |                                               |                |                x[0:0]: 0x15-NA (0)
    |                                               |                |              rt2{}: 0x15-0x15.7 (1)
0x10|               00                              |     .          |                n: 0 (valid) 0x15-0x15.7 (1)
    |                                               |                |                x[0:0]: 0x16-NA (0)
    |                                               |                |    [1]{}: section 0x16-0x1d.7 (8)
0x10|                  03                           |      .         |      id: "function_section" (3) 0x16-0x16.7 (1)
0x10|                     06                        |       .        |      size: 6 (valid) 0x17-0x17.7 (1)
    |                                               |                |      content{}: 0x18-0x1d.7 (6)
    |                                               |                |        x{}: 0x18-0x1d.7 (6)
0x10|                        05                     |        .       |          n: 5 (valid) 0x18-0x18.7 (1)
    |                                               |                |          x[0:5]: 0x19-0x1d.7 (5)
0x10|                           01                  |         .      |            [0]: 1 x (valid) 0x19-0x19.7 (1)
0x10|                              00               |          .     |            [1]: 0 x (valid) 0x1a-0x1a.7 (1)
0x10|                                 00            |           .    |            [2]: 0 x (valid) 0x1b-0x1b.7 (1)
0x10|                                    01         |            .   |            [3]: 1 x (valid) 0x1c-0x1c.7 (1)
0x10|                                       02      |             .  |            [4]: 2 x (valid) 0x1d-0x1d.7 (1)
    |                                               |                |    [2]{}: section 0x1e-0x48.7 (43)
0x10|                                          0a   |              . |      id: "code_section" (10) 0x1e-0x1e.7 (1)
0x10|                                             29|               )|      size: 41 (valid) 0x1f-0x1f.7 (1)
    |                                               |                |      content{}: 0x20-0x48.7 (41)
    |                                               |                |        code{}: 0x20-0x48.7 (41)
0x20|05                                             |.               |          n: 5 (valid) 0x20-0x20.7 (1)
    |                                               |                |          x[0:5]: 0x21-0x48.7 (40)
    |                                               |                |            [0]{}: code 0x21-0x2c.7 (12)
0x20|   0b                                          | .              |              size: 11 (valid) 0x21-0x21.7 (1)
    |                                               |                |              code{}: 0x22-0x2c.7 (11)
    |                                               |                |                t{}: 0x22-0x22.7 (1)
0x20|      00                                       |  .             |                  n: 0 (valid) 0x22-0x22.7 (1)
    |                                               |                |                  x[0:0]: 0x23-NA (0)
    |                                               |                |                e[0:2]: 0x23-0x2c.7 (10)
    |                                               |                |                  [0]{}: in 0x23-0x2b.7 (9)
0x20|         44                                    |   D            |                    opcode: "f64.const" (0x44) 0x23-0x23.7 (1)
0x20|            00 00 00 00 00 00 00 00            |    ........    |                    z: 0 0x24-0x2b.7 (8)
    |                                               |                |                  [1]{}: in 0x2c-0x2c.7 (1)
0x20|                                    0b         |            .   |                    opcode: "end" (0xb) 0x2c-0x2c.7 (1)
    |                                               |                |            [1]{}: code 0x2d-0x2f.7 (3)
0x20|                                       02      |             .  |              size: 2 (valid) 0x2d-0x2d.7 (1)
    |                                               |                |              code{}: 0x2e-0x2f.7 (2)
    |                                               |                |                t{}: 0x2e-0x2e.7 (1)
0x20|                                          00   |              . |                  n: 0 (valid) 0x2e-0x2e.7 (1)
    |                                               |                |                  x[0:0]: 0x2f-NA (0)
    |                                               |                |                e[0:1]: 0x2f-0x2f.7 (1)
    |                                               |                |                  [0]{}: in 0x2f-0x2f.7 (1)
0x20|                                             0b|               .|                    opcode: "end" (0xb) 0x2f-0x2f.7 (1)
    |                                               |                |            [2]{}: code 0x30-0x32.7 (3)
0x30|02                                             |.               |              size: 2 (valid) 0x30-0x30.7 (1)
    |                                               |                |              code{}: 0x31-0x32.7 (2)
    |                                               |                |                t{}: 0x31-0x31.7 (1)
0x30|   00                                          | .              |                  n: 0 (valid) 0x31-0x31.7 (1)
    |                                               |                |                  x[0:0]: 0x32-NA (0)
    |                                               |                |                e[0:1]: 0x32-0x32.7 (1)
    |                                               |                |                  [0]{}: in 0x32-0x32.7 (1)
0x30|      0b                                       |  .             |                    opcode: "end" (0xb) 0x32-0x32.7 (1)
    |                                               |                |            [3]{}: code 0x33-0x3e.7 (12)
0x30|         0b                                    |   .            |              size: 11 (valid) 0x33-0x33.7 (1)
    |                                               |                |              code{}: 0x34-0x3e.7 (11)
    |                                               |                |                t{}: 0x34-0x34.7 (1)
0x30|            00                                 |    .           |                  n: 0 (valid) 0x34-0x34.7 (1)
    |                                               |                |                  x[0:0]: 0x35-NA (0)
    |                                               |                |                e[0:2]: 0x35-0x3e.7 (10)
    |                                               |                |                  [0]{}: in 0x35-0x3d.7 (9)
0x30|               44                              |     D          |                    opcode: "f64.const" (0x44) 0x35-0x35.7 (1)
0x30|                  00 00 00 00 00 00 00 00      |      ........  |                    z: 0 0x36-0x3d.7 (8)
    |                                               |                |                  [1]{}: in 0x3e-0x3e.7 (1)
0x30|                                          0b   |              . |                    opcode: "end" (0xb) 0x3e-0x3e.7 (1)
    |                                               |                |            [4]{}: code 0x3f-0x48.7 (10)
0x30|                                             09|               .|              size: 9 (valid) 0x3f-0x3f.7 (1)
    |                                               |                |              code{}: 0x40-0x48.7 (9)
    |                                               |                |                t{}: 0x40-0x40.7 (1)
0x40|00                                             |.               |                  n: 0 (valid) 0x40-0x40.7 (1)
    |                                               |                |                  x[0:0]: 0x41-NA (0)
    |                                               |                |                e[0:5]: 0x41-0x48.7 (8)
    |                                               |                |                  [0]{}: in 0x41-0x42.7 (2)
0x40|   41                                          | A              |                    opcode: "i32.const" (0x41) 0x41-0x41.7 (1)
0x40|      00                                       |  .             |                    n: 0 (valid) 0x42-0x42.7 (1)
    |                                               |                |                  [1]{}: in 0x43-0x44.7 (2)
0x40|         10                                    |   .            |                    opcode: "call" (0x10) 0x43-0x43.7 (1)
0x40|            02                                 |    .           |                    x: 2 (valid) 0x44-0x44.7 (1)
    |                                               |                |                  [2]{}: in 0x45-0x46.7 (2)
0x40|               10                              |     .          |                    opcode: "call" (0x10) 0x45-0x45.7 (1)
0x40|                  03                           |      .         |                    x: 3 (valid) 0x46-0x46.7 (1)
    |                                               |                |                  [3]{}: in 0x47-0x47.7 (1)
0x40|                     1a                        |       .        |                    opcode: "drop" (0x1a) 0x47-0x47.7 (1)
    |                                               |                |                  [4]{}: in 0x48-0x48.7 (1)
0x40|                        0b|                    |        .|      |                    opcode: "end" (0xb) 0x48-0x48.7 (1)
