$ fq -d wasm dv func-2.wasm
    |00 01 02 03 04 05 06 07 08 09 0a 0b 0c 0d 0e 0f|0123456789abcdef|.{}: func-2.wasm (wasm) 0x0-0x4d (77)
0x00|00 61 73 6d                                    |.asm            |  magic: raw bits (valid) 0x0-0x4 (4)
0x00|            01 00 00 00                        |    ....        |  version: 1 0x4-0x8 (4)
    |                                               |                |  sections[0:4]: 0x8-0x4d (69)
    |                                               |                |    [0]{}: section 0x8-0x14 (12)
0x00|                        01                     |        .       |      id: "type_section" (1) 0x8-0x9 (1)
0x00|                           0a                  |         .      |      size: 10 (valid) 0x9-0xa (1)
    |                                               |                |      content{}: 0xa-0x14 (10)
    |                                               |                |        ft{}: 0xa-0x14 (10)
0x00|                              02               |          .     |          n: 2 (valid) 0xa-0xb (1)
    |                                               |                |          x[0:2]: 0xb-0x14 (9)
    |                                               |                |            [0]{}: ft 0xb-0xf (4)
0x00|                                 60            |           `    |              tag: 0x60 (valid) 0xb-0xc (1)
    |                                               |                |              rt1{}: 0xc-0xd (1)
0x00|                                    00         |            .   |                n: 0 (valid) 0xc-0xd (1)
    |                                               |                |                x[0:0]: 0xd-0xd (0)
    |                                               |                |              rt2{}: 0xd-0xf (2)
0x00|                                       01      |             .  |                n: 1 (valid) 0xd-0xe (1)
    |                                               |                |                x[0:1]: 0xe-0xf (1)
0x00|                                          7f   |              . |                  [0]: "i32" (0x7f) t 0xe-0xf (1)
    |                                               |                |            [1]{}: ft 0xf-0x14 (5)
0x00|                                             60|               `|              tag: 0x60 (valid) 0xf-0x10 (1)
    |                                               |                |              rt1{}: 0x10-0x12 (2)
0x10|01                                             |.               |                n: 1 (valid) 0x10-0x11 (1)
    |                                               |                |                x[0:1]: 0x11-0x12 (1)
0x10|   7f                                          | .              |                  [0]: "i32" (0x7f) t 0x11-0x12 (1)
    |                                               |                |              rt2{}: 0x12-0x14 (2)
0x10|      01                                       |  .             |                n: 1 (valid) 0x12-0x13 (1)
    |                                               |                |                x[0:1]: 0x13-0x14 (1)
0x10|         7f                                    |   .            |                  [0]: "i32" (0x7f) t 0x13-0x14 (1)
    |                                               |                |    [1]{}: section 0x14-0x1b (7)
0x10|            03                                 |    .           |      id: "function_section" (3) 0x14-0x15 (1)
0x10|               05                              |     .          |      size: 5 (valid) 0x15-0x16 (1)
    |                                               |                |      content{}: 0x16-0x1b (5)
    |                                               |                |        x{}: 0x16-0x1b (5)
0x10|                  04                           |      .         |          n: 4 (valid) 0x16-0x17 (1)
    |                                               |                |          x[0:4]: 0x17-0x1b (4)
0x10|                     01                        |       .        |            [0]: 1 x (valid) 0x17-0x18 (1)
0x10|                        01                     |        .       |            [1]: 1 x (valid) 0x18-0x19 (1)
0x10|                           01                  |         .      |            [2]: 1 x (valid) 0x19-0x1a (1)
0x10|                              00               |          .     |            [3]: 0 x (valid) 0x1a-0x1b (1)
    |                                               |                |    [2]{}: section 0x1b-0x2a (15)
0x10|                                 07            |           .    |      id: "export_section" (7) 0x1b-0x1c (1)
0x10|                                    0d         |            .   |      size: 13 (valid) 0x1c-0x1d (1)
    |                                               |                |      content{}: 0x1d-0x2a (13)
    |                                               |                |        ex{}: 0x1d-0x2a (13)
0x10|                                       03      |             .  |          n: 3 (valid) 0x1d-0x1e (1)
    |                                               |                |          x[0:3]: 0x1e-0x2a (12)
    |                                               |                |            [0]{}: ex 0x1e-0x22 (4)
    |                                               |                |              nm{}: 0x1e-0x20 (2)
0x10|                                          01   |              . |                n: 1 (valid) 0x1e-0x1f (1)
0x10|                                             66|               f|                b: "f" 0x1f-0x20 (1)
    |                                               |                |              d{}: 0x20-0x22 (2)
0x20|00                                             |.               |                tag: "funcidx" (0x0) 0x20-0x21 (1)
0x20|   00                                          | .              |                x: 0 (valid) 0x21-0x22 (1)
    |                                               |                |            [1]{}: ex 0x22-0x26 (4)
    |                                               |                |              nm{}: 0x22-0x24 (2)
0x20|      01                                       |  .             |                n: 1 (valid) 0x22-0x23 (1)
0x20|         67                                    |   g            |                b: "g" 0x23-0x24 (1)
    |                                               |                |              d{}: 0x24-0x26 (2)
0x20|            00                                 |    .           |                tag: "funcidx" (0x0) 0x24-0x25 (1)
0x20|               02                              |     .          |                x: 2 (valid) 0x25-0x26 (1)
    |                                               |                |            [2]{}: ex 0x26-0x2a (4)
    |                                               |                |              nm{}: 0x26-0x28 (2)
0x20|                  01                           |      .         |                n: 1 (valid) 0x26-0x27 (1)
0x20|                     70                        |       p        |                b: "p" 0x27-0x28 (1)
    |                                               |                |              d{}: 0x28-0x2a (2)
0x20|                        00                     |        .       |                tag: "funcidx" (0x0) 0x28-0x29 (1)
0x20|                           03                  |         .      |                x: 3 (valid) 0x29-0x2a (1)
    |                                               |                |    [3]{}: section 0x2a-0x4d (35)
0x20|                              0a               |          .     |      id: "code_section" (10) 0x2a-0x2b (1)
0x20|                                 21            |           !    |      size: 33 (valid) 0x2b-0x2c (1)
    |                                               |                |      content{}: 0x2c-0x4d (33)
    |                                               |                |        code{}: 0x2c-0x4d (33)
0x20|                                    04         |            .   |          n: 4 (valid) 0x2c-0x2d (1)
    |                                               |                |          x[0:4]: 0x2d-0x4d (32)
    |                                               |                |            [0]{}: code 0x2d-0x34 (7)
0x20|                                       06      |             .  |              size: 6 (valid) 0x2d-0x2e (1)
    |                                               |                |              code{}: 0x2e-0x34 (6)
    |                                               |                |                t{}: 0x2e-0x31 (3)
0x20|                                          01   |              . |                  n: 1 (valid) 0x2e-0x2f (1)
    |                                               |                |                  x[0:1]: 0x2f-0x31 (2)
    |                                               |                |                    [0]{}: t 0x2f-0x31 (2)
0x20|                                             01|               .|                      n: 1 (valid) 0x2f-0x30 (1)
0x30|7f                                             |.               |                      t: "i32" (0x7f) 0x30-0x31 (1)
    |                                               |                |                e[0:2]: 0x31-0x34 (3)
    |                                               |                |                  [0]{}: in 0x31-0x33 (2)
0x30|   20                                          |                |                    opcode: "local.get" (0x20) 0x31-0x32 (1)
0x30|      01                                       |  .             |                    x: 1 (valid) 0x32-0x33 (1)
    |                                               |                |                  [1]{}: in 0x33-0x34 (1)
0x30|         0b                                    |   .            |                    opcode: "end" (0xb) 0x33-0x34 (1)
    |                                               |                |            [1]{}: code 0x34-0x3b (7)
0x30|            06                                 |    .           |              size: 6 (valid) 0x34-0x35 (1)
    |                                               |                |              code{}: 0x35-0x3b (6)
    |                                               |                |                t{}: 0x35-0x38 (3)
0x30|               01                              |     .          |                  n: 1 (valid) 0x35-0x36 (1)
    |                                               |                |                  x[0:1]: 0x36-0x38 (2)
    |                                               |                |                    [0]{}: t 0x36-0x38 (2)
0x30|                  01                           |      .         |                      n: 1 (valid) 0x36-0x37 (1)
0x30|                     7f                        |       .        |                      t: "i32" (0x7f) 0x37-0x38 (1)
    |                                               |                |                e[0:2]: 0x38-0x3b (3)
    |                                               |                |                  [0]{}: in 0x38-0x3a (2)
0x30|                        20                     |                |                    opcode: "local.get" (0x20) 0x38-0x39 (1)
0x30|                           01                  |         .      |                    x: 1 (valid) 0x39-0x3a (1)
    |                                               |                |                  [1]{}: in 0x3a-0x3b (1)
0x30|                              0b               |          .     |                    opcode: "end" (0xb) 0x3a-0x3b (1)
    |                                               |                |            [2]{}: code 0x3b-0x42 (7)
0x30|                                 06            |           .    |              size: 6 (valid) 0x3b-0x3c (1)
    |                                               |                |              code{}: 0x3c-0x42 (6)
    |                                               |                |                t{}: 0x3c-0x3d (1)
0x30|                                    00         |            .   |                  n: 0 (valid) 0x3c-0x3d (1)
    |                                               |                |                  x[0:0]: 0x3d-0x3d (0)
    |                                               |                |                e[0:3]: 0x3d-0x42 (5)
    |                                               |                |                  [0]{}: in 0x3d-0x3f (2)
0x30|                                       20      |                |                    opcode: "local.get" (0x20) 0x3d-0x3e (1)
0x30|                                          00   |              . |                    x: 0 (valid) 0x3e-0x3f (1)
    |                                               |                |                  [1]{}: in 0x3f-0x41 (2)
0x30|                                             10|               .|                    opcode: "call" (0x10) 0x3f-0x40 (1)
0x40|01                                             |.               |                    x: 1 (valid) 0x40-0x41 (1)
    |                                               |                |                  [2]{}: in 0x41-0x42 (1)
0x40|   0b                                          | .              |                    opcode: "end" (0xb) 0x41-0x42 (1)
    |                                               |                |            [3]{}: code 0x42-0x4d (11)
0x40|      0a                                       |  .             |              size: 10 (valid) 0x42-0x43 (1)
    |                                               |                |              code{}: 0x43-0x4d (10)
    |                                               |                |                t{}: 0x43-0x46 (3)
0x40|         01                                    |   .            |                  n: 1 (valid) 0x43-0x44 (1)
    |                                               |                |                  x[0:1]: 0x44-0x46 (2)
    |                                               |                |                    [0]{}: t 0x44-0x46 (2)
0x40|            01                                 |    .           |                      n: 1 (valid) 0x44-0x45 (1)
0x40|               7f                              |     .          |                      t: "i32" (0x7f) 0x45-0x46 (1)
    |                                               |                |                e[0:4]: 0x46-0x4d (7)
    |                                               |                |                  [0]{}: in 0x46-0x48 (2)
0x40|                  41                           |      A         |                    opcode: "i32.const" (0x41) 0x46-0x47 (1)
0x40|                     2a                        |       *        |                    n: 42 (valid) 0x47-0x48 (1)
    |                                               |                |                  [1]{}: in 0x48-0x4a (2)
0x40|                        21                     |        !       |                    opcode: "local.set" (0x21) 0x48-0x49 (1)
0x40|                           00                  |         .      |                    x: 0 (valid) 0x49-0x4a (1)
    |                                               |                |                  [2]{}: in 0x4a-0x4c (2)
0x40|                              20               |                |                    opcode: "local.get" (0x20) 0x4a-0x4b (1)
0x40|                                 00            |           .    |                    x: 0 (valid) 0x4b-0x4c (1)
    |                                               |                |                  [3]{}: in 0x4c-0x4d (1)
0x40|                                    0b|        |            .|  |                    opcode: "end" (0xb) 0x4c-0x4d (1)
