$ fq -d wasm dv global-0.wasm
     |00 01 02 03 04 05 06 07 08 09 0a 0b 0c 0d 0e 0f|0123456789abcdef|.{}: global-0.wasm (wasm) 0x0-0x57b (1403)
0x000|00 61 73 6d                                    |.asm            |  magic: raw bits (valid) 0x0-0x4 (4)
0x000|            01 00 00 00                        |    ....        |  version: 1 0x4-0x8 (4)
     |                                               |                |  sections[0:9]: 0x8-0x57b (1395)
     |                                               |                |    [0]{}: section 0x8-0x41 (57)
0x000|                        01                     |        .       |      id: "type_section" (1) 0x8-0x9 (1)
0x000|                           37                  |         7      |      size: 55 (valid) 0x9-0xa (1)
     |                                               |                |      content{}: 0xa-0x41 (55)
     |                                               |                |        ft{}: 0xa-0x41 (55)
0x000|                              0d               |          .     |          n: 13 (valid) 0xa-0xb (1)
     |                                               |                |          x[0:13]: 0xb-0x41 (54)
     |                                               |                |            [0]{}: ft 0xb-0x11 (6)
0x000|                                 60            |           `    |              tag: 0x60 (valid) 0xb-0xc (1)
     |                                               |                |              rt1{}: 0xc-0xf (3)
0x000|                                    02         |            .   |                n: 2 (valid) 0xc-0xd (1)
     |                                               |                |                x[0:2]: 0xd-0xf (2)
0x000|                                       7f      |             .  |                  [0]: "i32" (0x7f) t 0xd-0xe (1)
0x000|                                          7f   |              . |                  [1]: "i32" (0x7f) t 0xe-0xf (1)
     |                                               |                |              rt2{}: 0xf-0x11 (2)
0x000|                                             01|               .|                n: 1 (valid) 0xf-0x10 (1)
     |                                               |                |                x[0:1]: 0x10-0x11 (1)
0x010|7f                                             |.               |                  [0]: "i32" (0x7f) t 0x10-0x11 (1)
     |                                               |                |            [1]{}: ft 0x11-0x15 (4)
0x010|   60                                          | `              |              tag: 0x60 (valid) 0x11-0x12 (1)
     |                                               |                |              rt1{}: 0x12-0x13 (1)
0x010|      00                                       |  .             |                n: 0 (valid) 0x12-0x13 (1)
     |                                               |                |                x[0:0]: 0x13-0x13 (0)
     |                                               |                |              rt2{}: 0x13-0x15 (2)
0x010|         01                                    |   .            |                n: 1 (valid) 0x13-0x14 (1)
     |                                               |                |                x[0:1]: 0x14-0x15 (1)
0x010|            7f                                 |    .           |                  [0]: "i32" (0x7f) t 0x14-0x15 (1)
     |                                               |                |            [2]{}: ft 0x15-0x19 (4)
0x010|               60                              |     `          |              tag: 0x60 (valid) 0x15-0x16 (1)
     |                                               |                |              rt1{}: 0x16-0x17 (1)
0x010|                  00                           |      .         |                n: 0 (valid) 0x16-0x17 (1)
     |                                               |                |                x[0:0]: 0x17-0x17 (0)
     |                                               |                |              rt2{}: 0x17-0x19 (2)
0x010|                     01                        |       .        |                n: 1 (valid) 0x17-0x18 (1)
     |                                               |                |                x[0:1]: 0x18-0x19 (1)
0x010|                        7e                     |        ~       |                  [0]: "i64" (0x7e) t 0x18-0x19 (1)
     |                                               |                |            [3]{}: ft 0x19-0x1d (4)
0x010|                           60                  |         `      |              tag: 0x60 (valid) 0x19-0x1a (1)
     |                                               |                |              rt1{}: 0x1a-0x1b (1)
0x010|                              00               |          .     |                n: 0 (valid) 0x1a-0x1b (1)
     |                                               |                |                x[0:0]: 0x1b-0x1b (0)
     |                                               |                |              rt2{}: 0x1b-0x1d (2)
0x010|                                 01            |           .    |                n: 1 (valid) 0x1b-0x1c (1)
     |                                               |                |                x[0:1]: 0x1c-0x1d (1)
0x010|                                    6f         |            o   |                  [0]: "externref" (0x6f) t 0x1c-0x1d (1)
     |                                               |                |            [4]{}: ft 0x1d-0x21 (4)
0x010|                                       60      |             `  |              tag: 0x60 (valid) 0x1d-0x1e (1)
     |                                               |                |              rt1{}: 0x1e-0x20 (2)
0x010|                                          01   |              . |                n: 1 (valid) 0x1e-0x1f (1)
     |                                               |                |                x[0:1]: 0x1f-0x20 (1)
0x010|                                             7f|               .|                  [0]: "i32" (0x7f) t 0x1f-0x20 (1)
     |                                               |                |              rt2{}: 0x20-0x21 (1)
0x020|00                                             |.               |                n: 0 (valid) 0x20-0x21 (1)
     |                                               |                |                x[0:0]: 0x21-0x21 (0)
     |                                               |                |            [5]{}: ft 0x21-0x25 (4)
0x020|   60                                          | `              |              tag: 0x60 (valid) 0x21-0x22 (1)
     |                                               |                |              rt1{}: 0x22-0x24 (2)
0x020|      01                                       |  .             |                n: 1 (valid) 0x22-0x23 (1)
     |                                               |                |                x[0:1]: 0x23-0x24 (1)
0x020|         7e                                    |   ~            |                  [0]: "i64" (0x7e) t 0x23-0x24 (1)
     |                                               |                |              rt2{}: 0x24-0x25 (1)
0x020|            00                                 |    .           |                n: 0 (valid) 0x24-0x25 (1)
     |                                               |                |                x[0:0]: 0x25-0x25 (0)
     |                                               |                |            [6]{}: ft 0x25-0x29 (4)
0x020|               60                              |     `          |              tag: 0x60 (valid) 0x25-0x26 (1)
     |                                               |                |              rt1{}: 0x26-0x28 (2)
0x020|                  01                           |      .         |                n: 1 (valid) 0x26-0x27 (1)
     |                                               |                |                x[0:1]: 0x27-0x28 (1)
0x020|                     6f                        |       o        |                  [0]: "externref" (0x6f) t 0x27-0x28 (1)
     |                                               |                |              rt2{}: 0x28-0x29 (1)
0x020|                        00                     |        .       |                n: 0 (valid) 0x28-0x29 (1)
     |                                               |                |                x[0:0]: 0x29-0x29 (0)
     |                                               |                |            [7]{}: ft 0x29-0x2d (4)
0x020|                           60                  |         `      |              tag: 0x60 (valid) 0x29-0x2a (1)
     |                                               |                |              rt1{}: 0x2a-0x2b (1)
0x020|                              00               |          .     |                n: 0 (valid) 0x2a-0x2b (1)
     |                                               |                |                x[0:0]: 0x2b-0x2b (0)
     |                                               |                |              rt2{}: 0x2b-0x2d (2)
0x020|                                 01            |           .    |                n: 1 (valid) 0x2b-0x2c (1)
     |                                               |                |                x[0:1]: 0x2c-0x2d (1)
0x020|                                    7d         |            }   |                  [0]: "f32" (0x7d) t 0x2c-0x2d (1)
     |                                               |                |            [8]{}: ft 0x2d-0x31 (4)
0x020|                                       60      |             `  |              tag: 0x60 (valid) 0x2d-0x2e (1)
     |                                               |                |              rt1{}: 0x2e-0x2f (1)
0x020|                                          00   |              . |                n: 0 (valid) 0x2e-0x2f (1)
     |                                               |                |                x[0:0]: 0x2f-0x2f (0)
     |                                               |                |              rt2{}: 0x2f-0x31 (2)
0x020|                                             01|               .|                n: 1 (valid) 0x2f-0x30 (1)
     |                                               |                |                x[0:1]: 0x30-0x31 (1)
0x030|7c                                             ||               |                  [0]: "f64" (0x7c) t 0x30-0x31 (1)
     |                                               |                |            [9]{}: ft 0x31-0x35 (4)
0x030|   60                                          | `              |              tag: 0x60 (valid) 0x31-0x32 (1)
     |                                               |                |              rt1{}: 0x32-0x34 (2)
0x030|      01                                       |  .             |                n: 1 (valid) 0x32-0x33 (1)
     |                                               |                |                x[0:1]: 0x33-0x34 (1)
0x030|         7d                                    |   }            |                  [0]: "f32" (0x7d) t 0x33-0x34 (1)
     |                                               |                |              rt2{}: 0x34-0x35 (1)
0x030|            00                                 |    .           |                n: 0 (valid) 0x34-0x35 (1)
     |                                               |                |                x[0:0]: 0x35-0x35 (0)
     |                                               |                |            [10]{}: ft 0x35-0x39 (4)
0x030|               60                              |     `          |              tag: 0x60 (valid) 0x35-0x36 (1)
     |                                               |                |              rt1{}: 0x36-0x38 (2)
0x030|                  01                           |      .         |                n: 1 (valid) 0x36-0x37 (1)
     |                                               |                |                x[0:1]: 0x37-0x38 (1)
0x030|                     7c                        |       |        |                  [0]: "f64" (0x7c) t 0x37-0x38 (1)
     |                                               |                |              rt2{}: 0x38-0x39 (1)
0x030|                        00                     |        .       |                n: 0 (valid) 0x38-0x39 (1)
     |                                               |                |                x[0:0]: 0x39-0x39 (0)
     |                                               |                |            [11]{}: ft 0x39-0x3c (3)
0x030|                           60                  |         `      |              tag: 0x60 (valid) 0x39-0x3a (1)
     |                                               |                |              rt1{}: 0x3a-0x3b (1)
0x030|                              00               |          .     |                n: 0 (valid) 0x3a-0x3b (1)
     |                                               |                |                x[0:0]: 0x3b-0x3b (0)
     |                                               |                |              rt2{}: 0x3b-0x3c (1)
0x030|                                 00            |           .    |                n: 0 (valid) 0x3b-0x3c (1)
     |                                               |                |                x[0:0]: 0x3c-0x3c (0)
     |                                               |                |            [12]{}: ft 0x3c-0x41 (5)
0x030|                                    60         |            `   |              tag: 0x60 (valid) 0x3c-0x3d (1)
     |                                               |                |              rt1{}: 0x3d-0x3f (2)
0x030|                                       01      |             .  |                n: 1 (valid) 0x3d-0x3e (1)
     |                                               |                |                x[0:1]: 0x3e-0x3f (1)
0x030|                                          7f   |              . |                  [0]: "i32" (0x7f) t 0x3e-0x3f (1)
     |                                               |                |              rt2{}: 0x3f-0x41 (2)
0x030|                                             01|               .|                n: 1 (valid) 0x3f-0x40 (1)
     |                                               |                |                x[0:1]: 0x40-0x41 (1)
0x040|7f                                             |.               |                  [0]: "i32" (0x7f) t 0x40-0x41 (1)
     |                                               |                |    [1]{}: section 0x41-0x72 (49)
0x040|   02                                          | .              |      id: "import_section" (2) 0x41-0x42 (1)
0x040|      2f                                       |  /             |      size: 47 (valid) 0x42-0x43 (1)
     |                                               |                |      content{}: 0x43-0x72 (47)
     |                                               |                |        im{}: 0x43-0x72 (47)
0x040|         02                                    |   .            |          n: 2 (valid) 0x43-0x44 (1)
     |                                               |                |          x[0:2]: 0x44-0x72 (46)
     |                                               |                |            [0]{}: im 0x44-0x5b (23)
     |                                               |                |              mod{}: 0x44-0x4d (9)
0x040|            08                                 |    .           |                n: 8 (valid) 0x44-0x45 (1)
0x040|               73 70 65 63 74 65 73 74         |     spectest   |                b: "spectest" 0x45-0x4d (8)
     |                                               |                |              nm{}: 0x4d-0x58 (11)
0x040|                                       0a      |             .  |                n: 10 (valid) 0x4d-0x4e (1)
0x040|                                          67 6c|              gl|                b: "global_i32" 0x4e-0x58 (10)
0x050|6f 62 61 6c 5f 69 33 32                        |obal_i32        |
     |                                               |                |              d{}: 0x58-0x5b (3)
0x050|                        03                     |        .       |                tag: "global" (0x3) 0x58-0x59 (1)
     |                                               |                |                gt{}: 0x59-0x5b (2)
0x050|                           7f                  |         .      |                  t: "i32" (0x7f) 0x59-0x5a (1)
0x050|                              00               |          .     |                  m: "const" (0) 0x5a-0x5b (1)
     |                                               |                |            [1]{}: im 0x5b-0x72 (23)
     |                                               |                |              mod{}: 0x5b-0x64 (9)
0x050|                                 08            |           .    |                n: 8 (valid) 0x5b-0x5c (1)
0x050|                                    73 70 65 63|            spec|                b: "spectest" 0x5c-0x64 (8)
0x060|74 65 73 74                                    |test            |
     |                                               |                |              nm{}: 0x64-0x6f (11)
0x060|            0a                                 |    .           |                n: 10 (valid) 0x64-0x65 (1)
0x060|               67 6c 6f 62 61 6c 5f 69 36 34   |     global_i64 |                b: "global_i64" 0x65-0x6f (10)
     |                                               |                |              d{}: 0x6f-0x72 (3)
0x060|                                             03|               .|                tag: "global" (0x3) 0x6f-0x70 (1)
     |                                               |                |                gt{}: 0x70-0x72 (2)
0x070|7e                                             |~               |                  t: "i64" (0x7e) 0x70-0x71 (1)
0x070|   00                                          | .              |                  m: "const" (0) 0x71-0x72 (1)
     |                                               |                |    [2]{}: section 0x72-0xa7 (53)
0x070|      03                                       |  .             |      id: "function_section" (3) 0x72-0x73 (1)
0x070|         33                                    |   3            |      size: 51 (valid) 0x73-0x74 (1)
     |                                               |                |      content{}: 0x74-0xa7 (51)
     |                                               |                |        x{}: 0x74-0xa7 (51)
0x070|            32                                 |    2           |          n: 50 (valid) 0x74-0x75 (1)
     |                                               |                |          x[0:50]: 0x75-0xa7 (50)
0x070|               01                              |     .          |            [0]: 1 x (valid) 0x75-0x76 (1)
0x070|                  02                           |      .         |            [1]: 2 x (valid) 0x76-0x77 (1)
0x070|                     03                        |       .        |            [2]: 3 x (valid) 0x77-0x78 (1)
0x070|                        03                     |        .       |            [3]: 3 x (valid) 0x78-0x79 (1)
0x070|                           01                  |         .      |            [4]: 1 x (valid) 0x79-0x7a (1)
0x070|                              02               |          .     |            [5]: 2 x (valid) 0x7a-0x7b (1)
0x070|                                 01            |           .    |            [6]: 1 x (valid) 0x7b-0x7c (1)
0x070|                                    02         |            .   |            [7]: 2 x (valid) 0x7c-0x7d (1)
0x070|                                       04      |             .  |            [8]: 4 x (valid) 0x7d-0x7e (1)
0x070|                                          05   |              . |            [9]: 5 x (valid) 0x7e-0x7f (1)
0x070|                                             06|               .|            [10]: 6 x (valid) 0x7f-0x80 (1)
0x080|07                                             |.               |            [11]: 7 x (valid) 0x80-0x81 (1)
0x080|   08                                          | .              |            [12]: 8 x (valid) 0x81-0x82 (1)
0x080|      07                                       |  .             |            [13]: 7 x (valid) 0x82-0x83 (1)
0x080|         08                                    |   .            |            [14]: 8 x (valid) 0x83-0x84 (1)
0x080|            09                                 |    .           |            [15]: 9 x (valid) 0x84-0x85 (1)
0x080|               0a                              |     .          |            [16]: 10 x (valid) 0x85-0x86 (1)
0x080|                  0b                           |      .         |            [17]: 11 x (valid) 0x86-0x87 (1)
0x080|                     01                        |       .        |            [18]: 1 x (valid) 0x87-0x88 (1)
0x080|                        01                     |        .       |            [19]: 1 x (valid) 0x88-0x89 (1)
0x080|                           01                  |         .      |            [20]: 1 x (valid) 0x89-0x8a (1)
0x080|                              01               |          .     |            [21]: 1 x (valid) 0x8a-0x8b (1)
0x080|                                 01            |           .    |            [22]: 1 x (valid) 0x8b-0x8c (1)
0x080|                                    01         |            .   |            [23]: 1 x (valid) 0x8c-0x8d (1)
0x080|                                       01      |             .  |            [24]: 1 x (valid) 0x8d-0x8e (1)
0x080|                                          01   |              . |            [25]: 1 x (valid) 0x8e-0x8f (1)
0x080|                                             01|               .|            [26]: 1 x (valid) 0x8f-0x90 (1)
0x090|01                                             |.               |            [27]: 1 x (valid) 0x90-0x91 (1)
0x090|   01                                          | .              |            [28]: 1 x (valid) 0x91-0x92 (1)
0x090|      01                                       |  .             |            [29]: 1 x (valid) 0x92-0x93 (1)
0x090|         01                                    |   .            |            [30]: 1 x (valid) 0x93-0x94 (1)
0x090|            00                                 |    .           |            [31]: 0 x (valid) 0x94-0x95 (1)
0x090|               01                              |     .          |            [32]: 1 x (valid) 0x95-0x96 (1)
0x090|                  01                           |      .         |            [33]: 1 x (valid) 0x96-0x97 (1)
0x090|                     01                        |       .        |            [34]: 1 x (valid) 0x97-0x98 (1)
0x090|                        0b                     |        .       |            [35]: 11 x (valid) 0x98-0x99 (1)
0x090|                           0b                  |         .      |            [36]: 11 x (valid) 0x99-0x9a (1)
0x090|                              01               |          .     |            [37]: 1 x (valid) 0x9a-0x9b (1)
0x090|                                 01            |           .    |            [38]: 1 x (valid) 0x9b-0x9c (1)
0x090|                                    0c         |            .   |            [39]: 12 x (valid) 0x9c-0x9d (1)
0x090|                                       01      |             .  |            [40]: 1 x (valid) 0x9d-0x9e (1)
0x090|                                          01   |              . |            [41]: 1 x (valid) 0x9e-0x9f (1)
0x090|                                             0b|               .|            [42]: 11 x (valid) 0x9f-0xa0 (1)
0x0a0|01                                             |.               |            [43]: 1 x (valid) 0xa0-0xa1 (1)
0x0a0|   0c                                          | .              |            [44]: 12 x (valid) 0xa1-0xa2 (1)
0x0a0|      0c                                       |  .             |            [45]: 12 x (valid) 0xa2-0xa3 (1)
0x0a0|         01                                    |   .            |            [46]: 1 x (valid) 0xa3-0xa4 (1)
0x0a0|            01                                 |    .           |            [47]: 1 x (valid) 0xa4-0xa5 (1)
0x0a0|               01                              |     .          |            [48]: 1 x (valid) 0xa5-0xa6 (1)
0x0a0|                  01                           |      .         |            [49]: 1 x (valid) 0xa6-0xa7 (1)
     |                                               |                |    [3]{}: section 0xa7-0xae (7)
0x0a0|                     04                        |       .        |      id: "table_section" (4) 0xa7-0xa8 (1)
0x0a0|                        05                     |        .       |      size: 5 (valid) 0xa8-0xa9 (1)
     |                                               |                |      content{}: 0xa9-0xae (5)
     |                                               |                |        tab{}: 0xa9-0xae (5)
0x0a0|                           01                  |         .      |          n: 1 (valid) 0xa9-0xaa (1)
     |                                               |                |          x[0:1]: 0xaa-0xae (4)
     |                                               |                |            [0]{}: tab 0xaa-0xae (4)
0x0a0|                              70               |          p     |              et: "funcref" (112) 0xaa-0xab (1)
     |                                               |                |              lim{}: 0xab-0xae (3)
0x0a0|                                 01            |           .    |                tag: 0x1 0xab-0xac (1)
0x0a0|                                    01         |            .   |                n: 1 (valid) 0xac-0xad (1)
0x0a0|                                       01      |             .  |                m: 1 (valid) 0xad-0xae (1)
     |                                               |                |    [4]{}: section 0xae-0xb3 (5)
0x0a0|                                          05   |              . |      id: "memory_section" (5) 0xae-0xaf (1)
0x0a0|                                             03|               .|      size: 3 (valid) 0xaf-0xb0 (1)
     |                                               |                |      content{}: 0xb0-0xb3 (3)
     |                                               |                |        mem{}: 0xb0-0xb3 (3)
0x0b0|01                                             |.               |          n: 1 (valid) 0xb0-0xb1 (1)
     |                                               |                |          x[0:1]: 0xb1-0xb3 (2)
     |                                               |                |            [0]{}: mem 0xb1-0xb3 (2)
     |                                               |                |              lim{}: 0xb1-0xb3 (2)
0x0b0|   00                                          | .              |                tag: 0x0 0xb1-0xb2 (1)
0x0b0|      01                                       |  .             |                n: 1 (valid) 0xb2-0xb3 (1)
     |                                               |                |    [5]{}: section 0xb3-0x10b (88)
0x0b0|         06                                    |   .            |      id: "global_section" (6) 0xb3-0xb4 (1)
0x0b0|            56                                 |    V           |      size: 86 (valid) 0xb4-0xb5 (1)
     |                                               |                |      content{}: 0xb5-0x10b (86)
     |                                               |                |        glob{}: 0xb5-0x10b (86)
0x0b0|               0d                              |     .          |          n: 13 (valid) 0xb5-0xb6 (1)
     |                                               |                |          x[0:13]: 0xb6-0x10b (85)
     |                                               |                |            [0]{}: glob 0xb6-0xbb (5)
     |                                               |                |              gt{}: 0xb6-0xb8 (2)
0x0b0|                  7f                           |      .         |                t: "i32" (0x7f) 0xb6-0xb7 (1)
0x0b0|                     00                        |       .        |                m: "const" (0) 0xb7-0xb8 (1)
     |                                               |                |              e[0:2]: 0xb8-0xbb (3)
     |                                               |                |                [0]{}: in 0xb8-0xba (2)
0x0b0|                        41                     |        A       |                  opcode: "i32.const" (0x41) 0xb8-0xb9 (1)
0x0b0|                           7e                  |         ~      |                  n: -2 (valid) 0xb9-0xba (1)
     |                                               |                |                [1]{}: in 0xba-0xbb (1)
0x0b0|                              0b               |          .     |                  opcode: "end" (0xb) 0xba-0xbb (1)
     |                                               |                |            [1]{}: glob 0xbb-0xc3 (8)
     |                                               |                |              gt{}: 0xbb-0xbd (2)
0x0b0|                                 7d            |           }    |                t: "f32" (0x7d) 0xbb-0xbc (1)
0x0b0|                                    00         |            .   |                m: "const" (0) 0xbc-0xbd (1)
     |                                               |                |              e[0:2]: 0xbd-0xc3 (6)
     |                                               |                |                [0]{}: in 0xbd-0xc2 (5)
0x0b0|                                       43      |             C  |                  opcode: "f32.const" (0x43) 0xbd-0xbe (1)
0x0b0|                                          00 00|              ..|                  z: -3 0xbe-0xc2 (4)
0x0c0|40 c0                                          |@.              |
     |                                               |                |                [1]{}: in 0xc2-0xc3 (1)
0x0c0|      0b                                       |  .             |                  opcode: "end" (0xb) 0xc2-0xc3 (1)
     |                                               |                |            [2]{}: glob 0xc3-0xcf (12)
     |                                               |                |              gt{}: 0xc3-0xc5 (2)
0x0c0|         7c                                    |   |            |                t: "f64" (0x7c) 0xc3-0xc4 (1)
0x0c0|            00                                 |    .           |                m: "const" (0) 0xc4-0xc5 (1)
     |                                               |                |              e[0:2]: 0xc5-0xcf (10)
     |                                               |                |                [0]{}: in 0xc5-0xce (9)
0x0c0|               44                              |     D          |                  opcode: "f64.const" (0x44) 0xc5-0xc6 (1)
0x0c0|                  00 00 00 00 00 00 10 c0      |      ........  |                  z: -4 0xc6-0xce (8)
     |                                               |                |                [1]{}: in 0xce-0xcf (1)
0x0c0|                                          0b   |              . |                  opcode: "end" (0xb) 0xce-0xcf (1)
     |                                               |                |            [3]{}: glob 0xcf-0xd4 (5)
     |                                               |                |              gt{}: 0xcf-0xd1 (2)
0x0c0|                                             7e|               ~|                t: "i64" (0x7e) 0xcf-0xd0 (1)
0x0d0|00                                             |.               |                m: "const" (0) 0xd0-0xd1 (1)
     |                                               |                |              e[0:2]: 0xd1-0xd4 (3)
     |                                               |                |                [0]{}: in 0xd1-0xd3 (2)
0x0d0|   42                                          | B              |                  opcode: "i64.const" (0x42) 0xd1-0xd2 (1)
0x0d0|      7b                                       |  {             |                  n: -5 0xd2-0xd3 (1)
     |                                               |                |                [1]{}: in 0xd3-0xd4 (1)
0x0d0|         0b                                    |   .            |                  opcode: "end" (0xb) 0xd3-0xd4 (1)
     |                                               |                |            [4]{}: glob 0xd4-0xd9 (5)
     |                                               |                |              gt{}: 0xd4-0xd6 (2)
0x0d0|            7f                                 |    .           |                t: "i32" (0x7f) 0xd4-0xd5 (1)
0x0d0|               01                              |     .          |                m: "var" (1) 0xd5-0xd6 (1)
     |                                               |                |              e[0:2]: 0xd6-0xd9 (3)
     |                                               |                |                [0]{}: in 0xd6-0xd8 (2)
0x0d0|                  41                           |      A         |                  opcode: "i32.const" (0x41) 0xd6-0xd7 (1)
0x0d0|                     74                        |       t        |                  n: -12 (valid) 0xd7-0xd8 (1)
     |                                               |                |                [1]{}: in 0xd8-0xd9 (1)
0x0d0|                        0b                     |        .       |                  opcode: "end" (0xb) 0xd8-0xd9 (1)
     |                                               |                |            [5]{}: glob 0xd9-0xe1 (8)
     |                                               |                |              gt{}: 0xd9-0xdb (2)
0x0d0|                           7d                  |         }      |                t: "f32" (0x7d) 0xd9-0xda (1)
0x0d0|                              01               |          .     |                m: "var" (1) 0xda-0xdb (1)
     |                                               |                |              e[0:2]: 0xdb-0xe1 (6)
     |                                               |                |                [0]{}: in 0xdb-0xe0 (5)
0x0d0|                                 43            |           C    |                  opcode: "f32.const" (0x43) 0xdb-0xdc (1)
0x0d0|                                    00 00 50 c1|            ..P.|                  z: -13 0xdc-0xe0 (4)
     |                                               |                |                [1]{}: in 0xe0-0xe1 (1)
0x0e0|0b                                             |.               |                  opcode: "end" (0xb) 0xe0-0xe1 (1)
     |                                               |                |            [6]{}: glob 0xe1-0xed (12)
     |                                               |                |              gt{}: 0xe1-0xe3 (2)
0x0e0|   7c                                          | |              |                t: "f64" (0x7c) 0xe1-0xe2 (1)
0x0e0|      01                                       |  .             |                m: "var" (1) 0xe2-0xe3 (1)
     |                                               |                |              e[0:2]: 0xe3-0xed (10)
     |                                               |                |                [0]{}: in 0xe3-0xec (9)
0x0e0|         44                                    |   D            |                  opcode: "f64.const" (0x44) 0xe3-0xe4 (1)
0x0e0|            00 00 00 00 00 00 2c c0            |    ......,.    |                  z: -14 0xe4-0xec (8)
     |                                               |                |                [1]{}: in 0xec-0xed (1)
0x0e0|                                    0b         |            .   |                  opcode: "end" (0xb) 0xec-0xed (1)
     |                                               |                |            [7]{}: glob 0xed-0xf2 (5)
     |                                               |                |              gt{}: 0xed-0xef (2)
0x0e0|                                       7e      |             ~  |                t: "i64" (0x7e) 0xed-0xee (1)
0x0e0|                                          01   |              . |                m: "var" (1) 0xee-0xef (1)
     |                                               |                |              e[0:2]: 0xef-0xf2 (3)
     |                                               |                |                [0]{}: in 0xef-0xf1 (2)
0x0e0|                                             42|               B|                  opcode: "i64.const" (0x42) 0xef-0xf0 (1)
0x0f0|71                                             |q               |                  n: -15 0xf0-0xf1 (1)
     |                                               |                |                [1]{}: in 0xf1-0xf2 (1)
0x0f0|   0b                                          | .              |                  opcode: "end" (0xb) 0xf1-0xf2 (1)
     |                                               |                |            [8]{}: glob 0xf2-0xf7 (5)
     |                                               |                |              gt{}: 0xf2-0xf4 (2)
0x0f0|      7f                                       |  .             |                t: "i32" (0x7f) 0xf2-0xf3 (1)
0x0f0|         00                                    |   .            |                m: "const" (0) 0xf3-0xf4 (1)
     |                                               |                |              e[0:2]: 0xf4-0xf7 (3)
     |                                               |                |                [0]{}: in 0xf4-0xf6 (2)
0x0f0|            23                                 |    #           |                  opcode: "global.get" (0x23) 0xf4-0xf5 (1)
0x0f0|               00                              |     .          |                  x: 0 (valid) 0xf5-0xf6 (1)
     |                                               |                |                [1]{}: in 0xf6-0xf7 (1)
0x0f0|                  0b                           |      .         |                  opcode: "end" (0xb) 0xf6-0xf7 (1)
     |                                               |                |            [9]{}: glob 0xf7-0xfc (5)
     |                                               |                |              gt{}: 0xf7-0xf9 (2)
0x0f0|                     7e                        |       ~        |                t: "i64" (0x7e) 0xf7-0xf8 (1)
0x0f0|                        00                     |        .       |                m: "const" (0) 0xf8-0xf9 (1)
     |                                               |                |              e[0:2]: 0xf9-0xfc (3)
     |                                               |                |                [0]{}: in 0xf9-0xfb (2)
0x0f0|                           23                  |         #      |                  opcode: "global.get" (0x23) 0xf9-0xfa (1)
0x0f0|                              01               |          .     |                  x: 1 (valid) 0xfa-0xfb (1)
     |                                               |                |                [1]{}: in 0xfb-0xfc (1)
0x0f0|                                 0b            |           .    |                  opcode: "end" (0xb) 0xfb-0xfc (1)
     |                                               |                |            [10]{}: glob 0xfc-0x101 (5)
     |                                               |                |              gt{}: 0xfc-0xfe (2)
0x0f0|                                    6f         |            o   |                t: "externref" (0x6f) 0xfc-0xfd (1)
0x0f0|                                       00      |             .  |                m: "const" (0) 0xfd-0xfe (1)
     |                                               |                |              e[0:2]: 0xfe-0x101 (3)
     |                                               |                |                [0]{}: in 0xfe-0x100 (2)
0x0f0|                                          d0   |              . |                  opcode: "ref.null" (0xd0) 0xfe-0xff (1)
0x0f0|                                             6f|               o|                  t: "externref" (111) 0xff-0x100 (1)
     |                                               |                |                [1]{}: in 0x100-0x101 (1)
0x100|0b                                             |.               |                  opcode: "end" (0xb) 0x100-0x101 (1)
     |                                               |                |            [11]{}: glob 0x101-0x106 (5)
     |                                               |                |              gt{}: 0x101-0x103 (2)
0x100|   6f                                          | o              |                t: "externref" (0x6f) 0x101-0x102 (1)
0x100|      01                                       |  .             |                m: "var" (1) 0x102-0x103 (1)
     |                                               |                |              e[0:2]: 0x103-0x106 (3)
     |                                               |                |                [0]{}: in 0x103-0x105 (2)
0x100|         d0                                    |   .            |                  opcode: "ref.null" (0xd0) 0x103-0x104 (1)
0x100|            6f                                 |    o           |                  t: "externref" (111) 0x104-0x105 (1)
     |                                               |                |                [1]{}: in 0x105-0x106 (1)
0x100|               0b                              |     .          |                  opcode: "end" (0xb) 0x105-0x106 (1)
     |                                               |                |            [12]{}: glob 0x106-0x10b (5)
     |                                               |                |              gt{}: 0x106-0x108 (2)
0x100|                  70                           |      p         |                t: "funcref" (0x70) 0x106-0x107 (1)
0x100|                     00                        |       .        |                m: "const" (0) 0x107-0x108 (1)
     |                                               |                |              e[0:2]: 0x108-0x10b (3)
     |                                               |                |                [0]{}: in 0x108-0x10a (2)
0x100|                        d0                     |        .       |                  opcode: "ref.null" (0xd0) 0x108-0x109 (1)
0x100|                           70                  |         p      |                  t: "funcref" (112) 0x109-0x10a (1)
     |                                               |                |                [1]{}: in 0x10a-0x10b (1)
0x100|                              0b               |          .     |                  opcode: "end" (0xb) 0x10a-0x10b (1)
     |                                               |                |    [6]{}: section 0x10b-0x3bf (692)
0x100|                                 07            |           .    |      id: "export_section" (7) 0x10b-0x10c (1)
0x100|                                    b1 05      |            ..  |      size: 689 (valid) 0x10c-0x10e (2)
     |                                               |                |      content{}: 0x10e-0x3bf (689)
     |                                               |                |        ex{}: 0x10e-0x3bf (689)
0x100|                                          2f   |              / |          n: 47 (valid) 0x10e-0x10f (1)
     |                                               |                |          x[0:47]: 0x10f-0x3bf (688)
     |                                               |                |            [0]{}: ex 0x10f-0x117 (8)
     |                                               |                |              nm{}: 0x10f-0x115 (6)
0x100|                                             05|               .|                n: 5 (valid) 0x10f-0x110 (1)
0x110|67 65 74 2d 61                                 |get-a           |                b: "get-a" 0x110-0x115 (5)
     |                                               |                |              d{}: 0x115-0x117 (2)
0x110|               00                              |     .          |                tag: "funcidx" (0x0) 0x115-0x116 (1)
0x110|                  00                           |      .         |                x: 0 (valid) 0x116-0x117 (1)
     |                                               |                |            [1]{}: ex 0x117-0x11f (8)
     |                                               |                |              nm{}: 0x117-0x11d (6)
0x110|                     05                        |       .        |                n: 5 (valid) 0x117-0x118 (1)
0x110|                        67 65 74 2d 62         |        get-b   |                b: "get-b" 0x118-0x11d (5)
     |                                               |                |              d{}: 0x11d-0x11f (2)
0x110|                                       00      |             .  |                tag: "funcidx" (0x0) 0x11d-0x11e (1)
0x110|                                          01   |              . |                x: 1 (valid) 0x11e-0x11f (1)
     |                                               |                |            [2]{}: ex 0x11f-0x127 (8)
     |                                               |                |              nm{}: 0x11f-0x125 (6)
0x110|                                             05|               .|                n: 5 (valid) 0x11f-0x120 (1)
0x120|67 65 74 2d 72                                 |get-r           |                b: "get-r" 0x120-0x125 (5)
     |                                               |                |              d{}: 0x125-0x127 (2)
0x120|               00                              |     .          |                tag: "funcidx" (0x0) 0x125-0x126 (1)
0x120|                  02                           |      .         |                x: 2 (valid) 0x126-0x127 (1)
     |                                               |                |            [3]{}: ex 0x127-0x130 (9)
     |                                               |                |              nm{}: 0x127-0x12e (7)
0x120|                     06                        |       .        |                n: 6 (valid) 0x127-0x128 (1)
0x120|                        67 65 74 2d 6d 72      |        get-mr  |                b: "get-mr" 0x128-0x12e (6)
     |                                               |                |              d{}: 0x12e-0x130 (2)
0x120|                                          00   |              . |                tag: "funcidx" (0x0) 0x12e-0x12f (1)
0x120|                                             03|               .|                x: 3 (valid) 0x12f-0x130 (1)
     |                                               |                |            [4]{}: ex 0x130-0x138 (8)
     |                                               |                |              nm{}: 0x130-0x136 (6)
0x130|05                                             |.               |                n: 5 (valid) 0x130-0x131 (1)
0x130|   67 65 74 2d 78                              | get-x          |                b: "get-x" 0x131-0x136 (5)
     |                                               |                |              d{}: 0x136-0x138 (2)
0x130|                  00                           |      .         |                tag: "funcidx" (0x0) 0x136-0x137 (1)
0x130|                     04                        |       .        |                x: 4 (valid) 0x137-0x138 (1)
     |                                               |                |            [5]{}: ex 0x138-0x140 (8)
     |                                               |                |              nm{}: 0x138-0x13e (6)
0x130|                        05                     |        .       |                n: 5 (valid) 0x138-0x139 (1)
0x130|                           67 65 74 2d 79      |         get-y  |                b: "get-y" 0x139-0x13e (5)
     |                                               |                |              d{}: 0x13e-0x140 (2)
0x130|                                          00   |              . |                tag: "funcidx" (0x0) 0x13e-0x13f (1)
0x130|                                             05|               .|                x: 5 (valid) 0x13f-0x140 (1)
     |                                               |                |            [6]{}: ex 0x140-0x149 (9)
     |                                               |                |              nm{}: 0x140-0x147 (7)
0x140|06                                             |.               |                n: 6 (valid) 0x140-0x141 (1)
0x140|   67 65 74 2d 7a 31                           | get-z1         |                b: "get-z1" 0x141-0x147 (6)
     |                                               |                |              d{}: 0x147-0x149 (2)
0x140|                     00                        |       .        |                tag: "funcidx" (0x0) 0x147-0x148 (1)
0x140|                        06                     |        .       |                x: 6 (valid) 0x148-0x149 (1)
     |                                               |                |            [7]{}: ex 0x149-0x152 (9)
     |                                               |                |              nm{}: 0x149-0x150 (7)
0x140|                           06                  |         .      |                n: 6 (valid) 0x149-0x14a (1)
0x140|                              67 65 74 2d 7a 32|          get-z2|                b: "get-z2" 0x14a-0x150 (6)
     |                                               |                |              d{}: 0x150-0x152 (2)
0x150|00                                             |.               |                tag: "funcidx" (0x0) 0x150-0x151 (1)
0x150|   07                                          | .              |                x: 7 (valid) 0x151-0x152 (1)
     |                                               |                |            [8]{}: ex 0x152-0x15a (8)
     |                                               |                |              nm{}: 0x152-0x158 (6)
0x150|      05                                       |  .             |                n: 5 (valid) 0x152-0x153 (1)
0x150|         73 65 74 2d 78                        |   set-x        |                b: "set-x" 0x153-0x158 (5)
     |                                               |                |              d{}: 0x158-0x15a (2)
0x150|                        00                     |        .       |                tag: "funcidx" (0x0) 0x158-0x159 (1)
0x150|                           08                  |         .      |                x: 8 (valid) 0x159-0x15a (1)
     |                                               |                |            [9]{}: ex 0x15a-0x162 (8)
     |                                               |                |              nm{}: 0x15a-0x160 (6)
0x150|                              05               |          .     |                n: 5 (valid) 0x15a-0x15b (1)
0x150|                                 73 65 74 2d 79|           set-y|                b: "set-y" 0x15b-0x160 (5)
     |                                               |                |              d{}: 0x160-0x162 (2)
0x160|00                                             |.               |                tag: "funcidx" (0x0) 0x160-0x161 (1)
0x160|   09                                          | .              |                x: 9 (valid) 0x161-0x162 (1)
     |                                               |                |            [10]{}: ex 0x162-0x16b (9)
     |                                               |                |              nm{}: 0x162-0x169 (7)
0x160|      06                                       |  .             |                n: 6 (valid) 0x162-0x163 (1)
0x160|         73 65 74 2d 6d 72                     |   set-mr       |                b: "set-mr" 0x163-0x169 (6)
     |                                               |                |              d{}: 0x169-0x16b (2)
0x160|                           00                  |         .      |                tag: "funcidx" (0x0) 0x169-0x16a (1)
0x160|                              0a               |          .     |                x: 10 (valid) 0x16a-0x16b (1)
     |                                               |                |            [11]{}: ex 0x16b-0x173 (8)
     |                                               |                |              nm{}: 0x16b-0x171 (6)
0x160|                                 05            |           .    |                n: 5 (valid) 0x16b-0x16c (1)
0x160|                                    67 65 74 2d|            get-|                b: "get-3" 0x16c-0x171 (5)
0x170|33                                             |3               |
     |                                               |                |              d{}: 0x171-0x173 (2)
0x170|   00                                          | .              |                tag: "funcidx" (0x0) 0x171-0x172 (1)
0x170|      0b                                       |  .             |                x: 11 (valid) 0x172-0x173 (1)
     |                                               |                |            [12]{}: ex 0x173-0x17b (8)
     |                                               |                |              nm{}: 0x173-0x179 (6)
0x170|         05                                    |   .            |                n: 5 (valid) 0x173-0x174 (1)
0x170|            67 65 74 2d 34                     |    get-4       |                b: "get-4" 0x174-0x179 (5)
     |                                               |                |              d{}: 0x179-0x17b (2)
0x170|                           00                  |         .      |                tag: "funcidx" (0x0) 0x179-0x17a (1)
0x170|                              0c               |          .     |                x: 12 (valid) 0x17a-0x17b (1)
     |                                               |                |            [13]{}: ex 0x17b-0x183 (8)
     |                                               |                |              nm{}: 0x17b-0x181 (6)
0x170|                                 05            |           .    |                n: 5 (valid) 0x17b-0x17c (1)
0x170|                                    67 65 74 2d|            get-|                b: "get-7" 0x17c-0x181 (5)
0x180|37                                             |7               |
     |                                               |                |              d{}: 0x181-0x183 (2)
0x180|   00                                          | .              |                tag: "funcidx" (0x0) 0x181-0x182 (1)
0x180|      0d                                       |  .             |                x: 13 (valid) 0x182-0x183 (1)
     |                                               |                |            [14]{}: ex 0x183-0x18b (8)
     |                                               |                |              nm{}: 0x183-0x189 (6)
0x180|         05                                    |   .            |                n: 5 (valid) 0x183-0x184 (1)
0x180|            67 65 74 2d 38                     |    get-8       |                b: "get-8" 0x184-0x189 (5)
     |                                               |                |              d{}: 0x189-0x18b (2)
0x180|                           00                  |         .      |                tag: "funcidx" (0x0) 0x189-0x18a (1)
0x180|                              0e               |          .     |                x: 14 (valid) 0x18a-0x18b (1)
     |                                               |                |            [15]{}: ex 0x18b-0x193 (8)
     |                                               |                |              nm{}: 0x18b-0x191 (6)
0x180|                                 05            |           .    |                n: 5 (valid) 0x18b-0x18c (1)
0x180|                                    73 65 74 2d|            set-|                b: "set-7" 0x18c-0x191 (5)
0x190|37                                             |7               |
     |                                               |                |              d{}: 0x191-0x193 (2)
0x190|   00                                          | .              |                tag: "funcidx" (0x0) 0x191-0x192 (1)
0x190|      0f                                       |  .             |                x: 15 (valid) 0x192-0x193 (1)
     |                                               |                |            [16]{}: ex 0x193-0x19b (8)
     |                                               |                |              nm{}: 0x193-0x199 (6)
0x190|         05                                    |   .            |                n: 5 (valid) 0x193-0x194 (1)
0x190|            73 65 74 2d 38                     |    set-8       |                b: "set-8" 0x194-0x199 (5)
     |                                               |                |              d{}: 0x199-0x19b (2)
0x190|                           00                  |         .      |                tag: "funcidx" (0x0) 0x199-0x19a (1)
0x190|                              10               |          .     |                x: 16 (valid) 0x19a-0x19b (1)
     |                                               |                |            [17]{}: ex 0x19b-0x1ad (18)
     |                                               |                |              nm{}: 0x19b-0x1ab (16)
0x190|                                 0f            |           .    |                n: 15 (valid) 0x19b-0x19c (1)
0x190|                                    61 73 2d 73|            as-s|                b: "as-select-first" 0x19c-0x1ab (15)
0x1a0|65 6c 65 63 74 2d 66 69 72 73 74               |elect-first     |
     |                                               |                |              d{}: 0x1ab-0x1ad (2)
0x1a0|                                 00            |           .    |                tag: "funcidx" (0x0) 0x1ab-0x1ac (1)
0x1a0|                                    12         |            .   |                x: 18 (valid) 0x1ac-0x1ad (1)
     |                                               |                |            [18]{}: ex 0x1ad-0x1bd (16)
     |                                               |                |              nm{}: 0x1ad-0x1bb (14)
0x1a0|                                       0d      |             .  |                n: 13 (valid) 0x1ad-0x1ae (1)
0x1a0|                                          61 73|              as|                b: "as-select-mid" 0x1ae-0x1bb (13)
0x1b0|2d 73 65 6c 65 63 74 2d 6d 69 64               |-select-mid     |
     |                                               |                |              d{}: 0x1bb-0x1bd (2)
0x1b0|                                 00            |           .    |                tag: "funcidx" (0x0) 0x1bb-0x1bc (1)
0x1b0|                                    13         |            .   |                x: 19 (valid) 0x1bc-0x1bd (1)
     |                                               |                |            [19]{}: ex 0x1bd-0x1ce (17)
     |                                               |                |              nm{}: 0x1bd-0x1cc (15)
0x1b0|                                       0e      |             .  |                n: 14 (valid) 0x1bd-0x1be (1)
0x1b0|                                          61 73|              as|                b: "as-select-last" 0x1be-0x1cc (14)
0x1c0|2d 73 65 6c 65 63 74 2d 6c 61 73 74            |-select-last    |
     |                                               |                |              d{}: 0x1cc-0x1ce (2)
0x1c0|                                    00         |            .   |                tag: "funcidx" (0x0) 0x1cc-0x1cd (1)
0x1c0|                                       14      |             .  |                x: 20 (valid) 0x1cd-0x1ce (1)
     |                                               |                |            [20]{}: ex 0x1ce-0x1de (16)
     |                                               |                |              nm{}: 0x1ce-0x1dc (14)
0x1c0|                                          0d   |              . |                n: 13 (valid) 0x1ce-0x1cf (1)
0x1c0|                                             61|               a|                b: "as-loop-first" 0x1cf-0x1dc (13)
0x1d0|73 2d 6c 6f 6f 70 2d 66 69 72 73 74            |s-loop-first    |
     |                                               |                |              d{}: 0x1dc-0x1de (2)
0x1d0|                                    00         |            .   |                tag: "funcidx" (0x0) 0x1dc-0x1dd (1)
0x1d0|                                       15      |             .  |                x: 21 (valid) 0x1dd-0x1de (1)
     |                                               |                |            [21]{}: ex 0x1de-0x1ec (14)
     |                                               |                |              nm{}: 0x1de-0x1ea (12)
0x1d0|                                          0b   |              . |                n: 11 (valid) 0x1de-0x1df (1)
0x1d0|                                             61|               a|                b: "as-loop-mid" 0x1df-0x1ea (11)
0x1e0|73 2d 6c 6f 6f 70 2d 6d 69 64                  |s-loop-mid      |
     |                                               |                |              d{}: 0x1ea-0x1ec (2)
0x1e0|                              00               |          .     |                tag: "funcidx" (0x0) 0x1ea-0x1eb (1)
0x1e0|                                 16            |           .    |                x: 22 (valid) 0x1eb-0x1ec (1)
     |                                               |                |            [22]{}: ex 0x1ec-0x1fb (15)
     |                                               |                |              nm{}: 0x1ec-0x1f9 (13)
0x1e0|                                    0c         |            .   |                n: 12 (valid) 0x1ec-0x1ed (1)
0x1e0|                                       61 73 2d|             as-|                b: "as-loop-last" 0x1ed-0x1f9 (12)
0x1f0|6c 6f 6f 70 2d 6c 61 73 74                     |loop-last       |
     |                                               |                |              d{}: 0x1f9-0x1fb (2)
0x1f0|                           00                  |         .      |                tag: "funcidx" (0x0) 0x1f9-0x1fa (1)
0x1f0|                              17               |          .     |                x: 23 (valid) 0x1fa-0x1fb (1)
     |                                               |                |            [23]{}: ex 0x1fb-0x20d (18)
     |                                               |                |              nm{}: 0x1fb-0x20b (16)
0x1f0|                                 0f            |           .    |                n: 15 (valid) 0x1fb-0x1fc (1)
0x1f0|                                    61 73 2d 69|            as-i|                b: "as-if-condition" 0x1fc-0x20b (15)
0x200|66 2d 63 6f 6e 64 69 74 69 6f 6e               |f-condition     |
     |                                               |                |              d{}: 0x20b-0x20d (2)
0x200|                                 00            |           .    |                tag: "funcidx" (0x0) 0x20b-0x20c (1)
0x200|                                    18         |            .   |                x: 24 (valid) 0x20c-0x20d (1)
     |                                               |                |            [24]{}: ex 0x20d-0x21a (13)
     |                                               |                |              nm{}: 0x20d-0x218 (11)
0x200|                                       0a      |             .  |                n: 10 (valid) 0x20d-0x20e (1)
0x200|                                          61 73|              as|                b: "as-if-then" 0x20e-0x218 (10)
0x210|2d 69 66 2d 74 68 65 6e                        |-if-then        |
     |                                               |                |              d{}: 0x218-0x21a (2)
0x210|                        00                     |        .       |                tag: "funcidx" (0x0) 0x218-0x219 (1)
0x210|                           19                  |         .      |                x: 25 (valid) 0x219-0x21a (1)
     |                                               |                |            [25]{}: ex 0x21a-0x227 (13)
     |                                               |                |              nm{}: 0x21a-0x225 (11)
0x210|                              0a               |          .     |                n: 10 (valid) 0x21a-0x21b (1)
0x210|                                 61 73 2d 69 66|           as-if|                b: "as-if-else" 0x21b-0x225 (10)
0x220|2d 65 6c 73 65                                 |-else           |
     |                                               |                |              d{}: 0x225-0x227 (2)
0x220|               00                              |     .          |                tag: "funcidx" (0x0) 0x225-0x226 (1)
0x220|                  1a                           |      .         |                x: 26 (valid) 0x226-0x227 (1)
     |                                               |                |            [26]{}: ex 0x227-0x238 (17)
     |                                               |                |              nm{}: 0x227-0x236 (15)
0x220|                     0e                        |       .        |                n: 14 (valid) 0x227-0x228 (1)
0x220|                        61 73 2d 62 72 5f 69 66|        as-br_if|                b: "as-br_if-first" 0x228-0x236 (14)
0x230|2d 66 69 72 73 74                              |-first          |
     |                                               |                |              d{}: 0x236-0x238 (2)
0x230|                  00                           |      .         |                tag: "funcidx" (0x0) 0x236-0x237 (1)
0x230|                     1b                        |       .        |                x: 27 (valid) 0x237-0x238 (1)
     |                                               |                |            [27]{}: ex 0x238-0x248 (16)
     |                                               |                |              nm{}: 0x238-0x246 (14)
0x230|                        0d                     |        .       |                n: 13 (valid) 0x238-0x239 (1)
0x230|                           61 73 2d 62 72 5f 69|         as-br_i|                b: "as-br_if-last" 0x239-0x246 (13)
0x240|66 2d 6c 61 73 74                              |f-last          |
     |                                               |                |              d{}: 0x246-0x248 (2)
0x240|                  00                           |      .         |                tag: "funcidx" (0x0) 0x246-0x247 (1)
0x240|                     1c                        |       .        |                x: 28 (valid) 0x247-0x248 (1)
     |                                               |                |            [28]{}: ex 0x248-0x25c (20)
     |                                               |                |              nm{}: 0x248-0x25a (18)
0x240|                        11                     |        .       |                n: 17 (valid) 0x248-0x249 (1)
0x240|                           61 73 2d 62 72 5f 74|         as-br_t|                b: "as-br_table-first" 0x249-0x25a (17)
0x250|61 62 6c 65 2d 66 69 72 73 74                  |able-first      |
     |                                               |                |              d{}: 0x25a-0x25c (2)
0x250|                              00               |          .     |                tag: "funcidx" (0x0) 0x25a-0x25b (1)
0x250|                                 1d            |           .    |                x: 29 (valid) 0x25b-0x25c (1)
     |                                               |                |            [29]{}: ex 0x25c-0x26f (19)
     |                                               |                |              nm{}: 0x25c-0x26d (17)
0x250|                                    10         |            .   |                n: 16 (valid) 0x25c-0x25d (1)
0x250|                                       61 73 2d|             as-|                b: "as-br_table-last" 0x25d-0x26d (16)
0x260|62 72 5f 74 61 62 6c 65 2d 6c 61 73 74         |br_table-last   |
     |                                               |                |              d{}: 0x26d-0x26f (2)
0x260|                                       00      |             .  |                tag: "funcidx" (0x0) 0x26d-0x26e (1)
0x260|                                          1e   |              . |                x: 30 (valid) 0x26e-0x26f (1)
     |                                               |                |            [30]{}: ex 0x26f-0x288 (25)
     |                                               |                |              nm{}: 0x26f-0x286 (23)
0x260|                                             16|               .|                n: 22 (valid) 0x26f-0x270 (1)
0x270|61 73 2d 63 61 6c 6c 5f 69 6e 64 69 72 65 63 74|as-call_indirect|                b: "as-call_indirect-first" 0x270-0x286 (22)
0x280|2d 66 69 72 73 74                              |-first          |
     |                                               |                |              d{}: 0x286-0x288 (2)
0x280|                  00                           |      .         |                tag: "funcidx" (0x0) 0x286-0x287 (1)
0x280|                     20                        |                |                x: 32 (valid) 0x287-0x288 (1)
     |                                               |                |            [31]{}: ex 0x288-0x29f (23)
     |                                               |                |              nm{}: 0x288-0x29d (21)
0x280|                        14                     |        .       |                n: 20 (valid) 0x288-0x289 (1)
0x280|                           61 73 2d 63 61 6c 6c|         as-call|                b: "as-call_indirect-mid" 0x289-0x29d (20)
0x290|5f 69 6e 64 69 72 65 63 74 2d 6d 69 64         |_indirect-mid   |
     |                                               |                |              d{}: 0x29d-0x29f (2)
0x290|                                       00      |             .  |                tag: "funcidx" (0x0) 0x29d-0x29e (1)
0x290|                                          21   |              ! |                x: 33 (valid) 0x29e-0x29f (1)
     |                                               |                |            [32]{}: ex 0x29f-0x2b7 (24)
     |                                               |                |              nm{}: 0x29f-0x2b5 (22)
0x290|                                             15|               .|                n: 21 (valid) 0x29f-0x2a0 (1)
0x2a0|61 73 2d 63 61 6c 6c 5f 69 6e 64 69 72 65 63 74|as-call_indirect|                b: "as-call_indirect-last" 0x2a0-0x2b5 (21)
0x2b0|2d 6c 61 73 74                                 |-last           |
     |                                               |                |              d{}: 0x2b5-0x2b7 (2)
0x2b0|               00                              |     .          |                tag: "funcidx" (0x0) 0x2b5-0x2b6 (1)
0x2b0|                  22                           |      "         |                x: 34 (valid) 0x2b6-0x2b7 (1)
     |                                               |                |            [33]{}: ex 0x2b7-0x2c8 (17)
     |                                               |                |              nm{}: 0x2b7-0x2c6 (15)
0x2b0|                     0e                        |       .        |                n: 14 (valid) 0x2b7-0x2b8 (1)
0x2b0|                        61 73 2d 73 74 6f 72 65|        as-store|                b: "as-store-first" 0x2b8-0x2c6 (14)
0x2c0|2d 66 69 72 73 74                              |-first          |
     |                                               |                |              d{}: 0x2c6-0x2c8 (2)
0x2c0|                  00                           |      .         |                tag: "funcidx" (0x0) 0x2c6-0x2c7 (1)
0x2c0|                     23                        |       #        |                x: 35 (valid) 0x2c7-0x2c8 (1)
     |                                               |                |            [34]{}: ex 0x2c8-0x2d8 (16)
     |                                               |                |              nm{}: 0x2c8-0x2d6 (14)
0x2c0|                        0d                     |        .       |                n: 13 (valid) 0x2c8-0x2c9 (1)
0x2c0|                           61 73 2d 73 74 6f 72|         as-stor|                b: "as-store-last" 0x2c9-0x2d6 (13)
0x2d0|65 2d 6c 61 73 74                              |e-last          |
     |                                               |                |              d{}: 0x2d6-0x2d8 (2)
0x2d0|                  00                           |      .         |                tag: "funcidx" (0x0) 0x2d6-0x2d7 (1)
0x2d0|                     24                        |       $        |                x: 36 (valid) 0x2d7-0x2d8 (1)
     |                                               |                |            [35]{}: ex 0x2d8-0x2ea (18)
     |                                               |                |              nm{}: 0x2d8-0x2e8 (16)
0x2d0|                        0f                     |        .       |                n: 15 (valid) 0x2d8-0x2d9 (1)
0x2d0|                           61 73 2d 6c 6f 61 64|         as-load|                b: "as-load-operand" 0x2d9-0x2e8 (15)
0x2e0|2d 6f 70 65 72 61 6e 64                        |-operand        |
     |                                               |                |              d{}: 0x2e8-0x2ea (2)
0x2e0|                        00                     |        .       |                tag: "funcidx" (0x0) 0x2e8-0x2e9 (1)
0x2e0|                           25                  |         %      |                x: 37 (valid) 0x2e9-0x2ea (1)
     |                                               |                |            [36]{}: ex 0x2ea-0x301 (23)
     |                                               |                |              nm{}: 0x2ea-0x2ff (21)
0x2e0|                              14               |          .     |                n: 20 (valid) 0x2ea-0x2eb (1)
0x2e0|                                 61 73 2d 6d 65|           as-me|                b: "as-memory.grow-value" 0x2eb-0x2ff (20)
0x2f0|6d 6f 72 79 2e 67 72 6f 77 2d 76 61 6c 75 65   |mory.grow-value |
     |                                               |                |              d{}: 0x2ff-0x301 (2)
0x2f0|                                             00|               .|                tag: "funcidx" (0x0) 0x2ff-0x300 (1)
0x300|26                                             |&               |                x: 38 (valid) 0x300-0x301 (1)
     |                                               |                |            [37]{}: ex 0x301-0x311 (16)
     |                                               |                |              nm{}: 0x301-0x30f (14)
0x300|   0d                                          | .              |                n: 13 (valid) 0x301-0x302 (1)
0x300|      61 73 2d 63 61 6c 6c 2d 76 61 6c 75 65   |  as-call-value |                b: "as-call-value" 0x302-0x30f (13)
     |                                               |                |              d{}: 0x30f-0x311 (2)
0x300|                                             00|               .|                tag: "funcidx" (0x0) 0x30f-0x310 (1)
0x310|28                                             |(               |                x: 40 (valid) 0x310-0x311 (1)
     |                                               |                |            [38]{}: ex 0x311-0x323 (18)
     |                                               |                |              nm{}: 0x311-0x321 (16)
0x310|   0f                                          | .              |                n: 15 (valid) 0x311-0x312 (1)
0x310|      61 73 2d 72 65 74 75 72 6e 2d 76 61 6c 75|  as-return-valu|                b: "as-return-value" 0x312-0x321 (15)
0x320|65                                             |e               |
     |                                               |                |              d{}: 0x321-0x323 (2)
0x320|   00                                          | .              |                tag: "funcidx" (0x0) 0x321-0x322 (1)
0x320|      29                                       |  )             |                x: 41 (valid) 0x322-0x323 (1)
     |                                               |                |            [39]{}: ex 0x323-0x335 (18)
     |                                               |                |              nm{}: 0x323-0x333 (16)
0x320|         0f                                    |   .            |                n: 15 (valid) 0x323-0x324 (1)
0x320|            61 73 2d 64 72 6f 70 2d 6f 70 65 72|    as-drop-oper|                b: "as-drop-operand" 0x324-0x333 (15)
0x330|61 6e 64                                       |and             |
     |                                               |                |              d{}: 0x333-0x335 (2)
0x330|         00                                    |   .            |                tag: "funcidx" (0x0) 0x333-0x334 (1)
0x330|            2a                                 |    *           |                x: 42 (valid) 0x334-0x335 (1)
     |                                               |                |            [40]{}: ex 0x335-0x343 (14)
     |                                               |                |              nm{}: 0x335-0x341 (12)
0x330|               0b                              |     .          |                n: 11 (valid) 0x335-0x336 (1)
0x330|                  61 73 2d 62 72 2d 76 61 6c 75|      as-br-valu|                b: "as-br-value" 0x336-0x341 (11)
0x340|65                                             |e               |
     |                                               |                |              d{}: 0x341-0x343 (2)
0x340|   00                                          | .              |                tag: "funcidx" (0x0) 0x341-0x342 (1)
0x340|      2b                                       |  +             |                x: 43 (valid) 0x342-0x343 (1)
     |                                               |                |            [41]{}: ex 0x343-0x358 (21)
     |                                               |                |              nm{}: 0x343-0x356 (19)
0x340|         12                                    |   .            |                n: 18 (valid) 0x343-0x344 (1)
0x340|            61 73 2d 6c 6f 63 61 6c 2e 73 65 74|    as-local.set|                b: "as-local.set-value" 0x344-0x356 (18)
0x350|2d 76 61 6c 75 65                              |-value          |
     |                                               |                |              d{}: 0x356-0x358 (2)
0x350|                  00                           |      .         |                tag: "funcidx" (0x0) 0x356-0x357 (1)
0x350|                     2c                        |       ,        |                x: 44 (valid) 0x357-0x358 (1)
     |                                               |                |            [42]{}: ex 0x358-0x36d (21)
     |                                               |                |              nm{}: 0x358-0x36b (19)
0x350|                        12                     |        .       |                n: 18 (valid) 0x358-0x359 (1)
0x350|                           61 73 2d 6c 6f 63 61|         as-loca|                b: "as-local.tee-value" 0x359-0x36b (18)
0x360|6c 2e 74 65 65 2d 76 61 6c 75 65               |l.tee-value     |
     |                                               |                |              d{}: 0x36b-0x36d (2)
0x360|                                 00            |           .    |                tag: "funcidx" (0x0) 0x36b-0x36c (1)
0x360|                                    2d         |            -   |                x: 45 (valid) 0x36c-0x36d (1)
     |                                               |                |            [43]{}: ex 0x36d-0x383 (22)
     |                                               |                |              nm{}: 0x36d-0x381 (20)
0x360|                                       13      |             .  |                n: 19 (valid) 0x36d-0x36e (1)
0x360|                                          61 73|              as|                b: "as-global.set-value" 0x36e-0x381 (19)
0x370|2d 67 6c 6f 62 61 6c 2e 73 65 74 2d 76 61 6c 75|-global.set-valu|
0x380|65                                             |e               |
     |                                               |                |              d{}: 0x381-0x383 (2)
0x380|   00                                          | .              |                tag: "funcidx" (0x0) 0x381-0x382 (1)
0x380|      2e                                       |  .             |                x: 46 (valid) 0x382-0x383 (1)
     |                                               |                |            [44]{}: ex 0x383-0x396 (19)
     |                                               |                |              nm{}: 0x383-0x394 (17)
0x380|         10                                    |   .            |                n: 16 (valid) 0x383-0x384 (1)
0x380|            61 73 2d 75 6e 61 72 79 2d 6f 70 65|    as-unary-ope|                b: "as-unary-operand" 0x384-0x394 (16)
0x390|72 61 6e 64                                    |rand            |
     |                                               |                |              d{}: 0x394-0x396 (2)
0x390|            00                                 |    .           |                tag: "funcidx" (0x0) 0x394-0x395 (1)
0x390|               2f                              |     /          |                x: 47 (valid) 0x395-0x396 (1)
     |                                               |                |            [45]{}: ex 0x396-0x3aa (20)
     |                                               |                |              nm{}: 0x396-0x3a8 (18)
0x390|                  11                           |      .         |                n: 17 (valid) 0x396-0x397 (1)
0x390|                     61 73 2d 62 69 6e 61 72 79|       as-binary|                b: "as-binary-operand" 0x397-0x3a8 (17)
0x3a0|2d 6f 70 65 72 61 6e 64                        |-operand        |
     |                                               |                |              d{}: 0x3a8-0x3aa (2)
0x3a0|                        00                     |        .       |                tag: "funcidx" (0x0) 0x3a8-0x3a9 (1)
0x3a0|                           30                  |         0      |                x: 48 (valid) 0x3a9-0x3aa (1)
     |                                               |                |            [46]{}: ex 0x3aa-0x3bf (21)
     |                                               |                |              nm{}: 0x3aa-0x3bd (19)
0x3a0|                              12               |          .     |                n: 18 (valid) 0x3aa-0x3ab (1)
0x3a0|                                 61 73 2d 63 6f|           as-co|                b: "as-compare-operand" 0x3ab-0x3bd (18)
0x3b0|6d 70 61 72 65 2d 6f 70 65 72 61 6e 64         |mpare-operand   |
     |                                               |                |              d{}: 0x3bd-0x3bf (2)
0x3b0|                                       00      |             .  |                tag: "funcidx" (0x0) 0x3bd-0x3be (1)
0x3b0|                                          31   |              1 |                x: 49 (valid) 0x3be-0x3bf (1)
     |                                               |                |    [7]{}: section 0x3bf-0x3c8 (9)
0x3b0|                                             09|               .|      id: "element_section" (9) 0x3bf-0x3c0 (1)
0x3c0|07                                             |.               |      size: 7 (valid) 0x3c0-0x3c1 (1)
     |                                               |                |      element{}: 0x3c1-0x3c8 (7)
     |                                               |                |        seg{}: 0x3c1-0x3c8 (7)
0x3c0|   01                                          | .              |          n: 1 (valid) 0x3c1-0x3c2 (1)
     |                                               |                |          x[0:1]: 0x3c2-0x3c8 (6)
     |                                               |                |            [0]{}: seg 0x3c2-0x3c8 (6)
0x3c0|      00                                       |  .             |              tag: 0 (valid) 0x3c2-0x3c3 (1)
     |                                               |                |              e[0:2]: 0x3c3-0x3c6 (3)
     |                                               |                |                [0]{}: in 0x3c3-0x3c5 (2)
0x3c0|         41                                    |   A            |                  opcode: "i32.const" (0x41) 0x3c3-0x3c4 (1)
0x3c0|            00                                 |    .           |                  n: 0 (valid) 0x3c4-0x3c5 (1)
     |                                               |                |                [1]{}: in 0x3c5-0x3c6 (1)
0x3c0|               0b                              |     .          |                  opcode: "end" (0xb) 0x3c5-0x3c6 (1)
     |                                               |                |              y{}: 0x3c6-0x3c8 (2)
0x3c0|                  01                           |      .         |                n: 1 (valid) 0x3c6-0x3c7 (1)
     |                                               |                |                x[0:1]: 0x3c7-0x3c8 (1)
0x3c0|                     1f                        |       .        |                  [0]: 31 y (valid) 0x3c7-0x3c8 (1)
     |                                               |                |    [8]{}: section 0x3c8-0x57b (435)
0x3c0|                        0a                     |        .       |      id: "code_section" (10) 0x3c8-0x3c9 (1)
0x3c0|                           b0 03               |         ..     |      size: 432 (valid) 0x3c9-0x3cb (2)
     |                                               |                |      content{}: 0x3cb-0x57b (432)
     |                                               |                |        code{}: 0x3cb-0x57b (432)
0x3c0|                                 32            |           2    |          n: 50 (valid) 0x3cb-0x3cc (1)
     |                                               |                |          x[0:50]: 0x3cc-0x57b (431)
     |                                               |                |            [0]{}: code 0x3cc-0x3d1 (5)
0x3c0|                                    04         |            .   |              size: 4 (valid) 0x3cc-0x3cd (1)
     |                                               |                |              code{}: 0x3cd-0x3d1 (4)
     |                                               |                |                t{}: 0x3cd-0x3ce (1)
0x3c0|                                       00      |             .  |                  n: 0 (valid) 0x3cd-0x3ce (1)
     |                                               |                |                  x[0:0]: 0x3ce-0x3ce (0)
     |                                               |                |                e[0:2]: 0x3ce-0x3d1 (3)
     |                                               |                |                  [0]{}: in 0x3ce-0x3d0 (2)
0x3c0|                                          23   |              # |                    opcode: "global.get" (0x23) 0x3ce-0x3cf (1)
0x3c0|                                             02|               .|                    x: 2 (valid) 0x3cf-0x3d0 (1)
     |                                               |                |                  [1]{}: in 0x3d0-0x3d1 (1)
0x3d0|0b                                             |.               |                    opcode: "end" (0xb) 0x3d0-0x3d1 (1)
     |                                               |                |            [1]{}: code 0x3d1-0x3d6 (5)
0x3d0|   04                                          | .              |              size: 4 (valid) 0x3d1-0x3d2 (1)
     |                                               |                |              code{}: 0x3d2-0x3d6 (4)
     |                                               |                |                t{}: 0x3d2-0x3d3 (1)
0x3d0|      00                                       |  .             |                  n: 0 (valid) 0x3d2-0x3d3 (1)
     |                                               |                |                  x[0:0]: 0x3d3-0x3d3 (0)
     |                                               |                |                e[0:2]: 0x3d3-0x3d6 (3)
     |                                               |                |                  [0]{}: in 0x3d3-0x3d5 (2)
0x3d0|         23                                    |   #            |                    opcode: "global.get" (0x23) 0x3d3-0x3d4 (1)
0x3d0|            05                                 |    .           |                    x: 5 (valid) 0x3d4-0x3d5 (1)
     |                                               |                |                  [1]{}: in 0x3d5-0x3d6 (1)
0x3d0|               0b                              |     .          |                    opcode: "end" (0xb) 0x3d5-0x3d6 (1)
     |                                               |                |            [2]{}: code 0x3d6-0x3db (5)
0x3d0|                  04                           |      .         |              size: 4 (valid) 0x3d6-0x3d7 (1)
     |                                               |                |              code{}: 0x3d7-0x3db (4)
     |                                               |                |                t{}: 0x3d7-0x3d8 (1)
0x3d0|                     00                        |       .        |                  n: 0 (valid) 0x3d7-0x3d8 (1)
     |                                               |                |                  x[0:0]: 0x3d8-0x3d8 (0)
     |                                               |                |                e[0:2]: 0x3d8-0x3db (3)
     |                                               |                |                  [0]{}: in 0x3d8-0x3da (2)
0x3d0|                        23                     |        #       |                    opcode: "global.get" (0x23) 0x3d8-0x3d9 (1)
0x3d0|                           0c                  |         .      |                    x: 12 (valid) 0x3d9-0x3da (1)
     |                                               |                |                  [1]{}: in 0x3da-0x3db (1)
0x3d0|                              0b               |          .     |                    opcode: "end" (0xb) 0x3da-0x3db (1)
     |                                               |                |            [3]{}: code 0x3db-0x3e0 (5)
0x3d0|                                 04            |           .    |              size: 4 (valid) 0x3db-0x3dc (1)
     |                                               |                |              code{}: 0x3dc-0x3e0 (4)
     |                                               |                |                t{}: 0x3dc-0x3dd (1)
0x3d0|                                    00         |            .   |                  n: 0 (valid) 0x3dc-0x3dd (1)
     |                                               |                |                  x[0:0]: 0x3dd-0x3dd (0)
     |                                               |                |                e[0:2]: 0x3dd-0x3e0 (3)
     |                                               |                |                  [0]{}: in 0x3dd-0x3df (2)
0x3d0|                                       23      |             #  |                    opcode: "global.get" (0x23) 0x3dd-0x3de (1)
0x3d0|                                          0d   |              . |                    x: 13 (valid) 0x3de-0x3df (1)
     |                                               |                |                  [1]{}: in 0x3df-0x3e0 (1)
0x3d0|                                             0b|               .|                    opcode: "end" (0xb) 0x3df-0x3e0 (1)
     |                                               |                |            [4]{}: code 0x3e0-0x3e5 (5)
0x3e0|04                                             |.               |              size: 4 (valid) 0x3e0-0x3e1 (1)
     |                                               |                |              code{}: 0x3e1-0x3e5 (4)
     |                                               |                |                t{}: 0x3e1-0x3e2 (1)
0x3e0|   00                                          | .              |                  n: 0 (valid) 0x3e1-0x3e2 (1)
     |                                               |                |                  x[0:0]: 0x3e2-0x3e2 (0)
     |                                               |                |                e[0:2]: 0x3e2-0x3e5 (3)
     |                                               |                |                  [0]{}: in 0x3e2-0x3e4 (2)
0x3e0|      23                                       |  #             |                    opcode: "global.get" (0x23) 0x3e2-0x3e3 (1)
0x3e0|         06                                    |   .            |                    x: 6 (valid) 0x3e3-0x3e4 (1)
     |                                               |                |                  [1]{}: in 0x3e4-0x3e5 (1)
0x3e0|            0b                                 |    .           |                    opcode: "end" (0xb) 0x3e4-0x3e5 (1)
     |                                               |                |            [5]{}: code 0x3e5-0x3ea (5)
0x3e0|               04                              |     .          |              size: 4 (valid) 0x3e5-0x3e6 (1)
     |                                               |                |              code{}: 0x3e6-0x3ea (4)
     |                                               |                |                t{}: 0x3e6-0x3e7 (1)
0x3e0|                  00                           |      .         |                  n: 0 (valid) 0x3e6-0x3e7 (1)
     |                                               |                |                  x[0:0]: 0x3e7-0x3e7 (0)
     |                                               |                |                e[0:2]: 0x3e7-0x3ea (3)
     |                                               |                |                  [0]{}: in 0x3e7-0x3e9 (2)
0x3e0|                     23                        |       #        |                    opcode: "global.get" (0x23) 0x3e7-0x3e8 (1)
0x3e0|                        09                     |        .       |                    x: 9 (valid) 0x3e8-0x3e9 (1)
     |                                               |                |                  [1]{}: in 0x3e9-0x3ea (1)
0x3e0|                           0b                  |         .      |                    opcode: "end" (0xb) 0x3e9-0x3ea (1)
     |                                               |                |            [6]{}: code 0x3ea-0x3ef (5)
0x3e0|                              04               |          .     |              size: 4 (valid) 0x3ea-0x3eb (1)
     |                                               |                |              code{}: 0x3eb-0x3ef (4)
     |                                               |                |                t{}: 0x3eb-0x3ec (1)
0x3e0|                                 00            |           .    |                  n: 0 (valid) 0x3eb-0x3ec (1)
     |                                               |                |                  x[0:0]: 0x3ec-0x3ec (0)
     |                                               |                |                e[0:2]: 0x3ec-0x3ef (3)
     |                                               |                |                  [0]{}: in 0x3ec-0x3ee (2)
0x3e0|                                    23         |            #   |                    opcode: "global.get" (0x23) 0x3ec-0x3ed (1)
0x3e0|                                       0a      |             .  |                    x: 10 (valid) 0x3ed-0x3ee (1)
     |                                               |                |                  [1]{}: in 0x3ee-0x3ef (1)
0x3e0|                                          0b   |              . |                    opcode: "end" (0xb) 0x3ee-0x3ef (1)
     |                                               |                |            [7]{}: code 0x3ef-0x3f4 (5)
0x3e0|                                             04|               .|              size: 4 (valid) 0x3ef-0x3f0 (1)
     |                                               |                |              code{}: 0x3f0-0x3f4 (4)
     |                                               |                |                t{}: 0x3f0-0x3f1 (1)
0x3f0|00                                             |.               |                  n: 0 (valid) 0x3f0-0x3f1 (1)
     |                                               |                |                  x[0:0]: 0x3f1-0x3f1 (0)
     |                                               |                |                e[0:2]: 0x3f1-0x3f4 (3)
     |                                               |                |                  [0]{}: in 0x3f1-0x3f3 (2)
0x3f0|   23                                          | #              |                    opcode: "global.get" (0x23) 0x3f1-0x3f2 (1)
0x3f0|      0b                                       |  .             |                    x: 11 (valid) 0x3f2-0x3f3 (1)
     |                                               |                |                  [1]{}: in 0x3f3-0x3f4 (1)
0x3f0|         0b                                    |   .            |                    opcode: "end" (0xb) 0x3f3-0x3f4 (1)
     |                                               |                |            [8]{}: code 0x3f4-0x3fb (7)
0x3f0|            06                                 |    .           |              size: 6 (valid) 0x3f4-0x3f5 (1)
     |                                               |                |              code{}: 0x3f5-0x3fb (6)
     |                                               |                |                t{}: 0x3f5-0x3f6 (1)
0x3f0|               00                              |     .          |                  n: 0 (valid) 0x3f5-0x3f6 (1)
     |                                               |                |                  x[0:0]: 0x3f6-0x3f6 (0)
     |                                               |                |                e[0:3]: 0x3f6-0x3fb (5)
     |                                               |                |                  [0]{}: in 0x3f6-0x3f8 (2)
0x3f0|                  20                           |                |                    opcode: "local.get" (0x20) 0x3f6-0x3f7 (1)
0x3f0|                     00                        |       .        |                    x: 0 (valid) 0x3f7-0x3f8 (1)
     |                                               |                |                  [1]{}: in 0x3f8-0x3fa (2)
0x3f0|                        24                     |        $       |                    opcode: "global.set" (0x24) 0x3f8-0x3f9 (1)
0x3f0|                           06                  |         .      |                    x: 6 (valid) 0x3f9-0x3fa (1)
     |                                               |                |                  [2]{}: in 0x3fa-0x3fb (1)
0x3f0|                              0b               |          .     |                    opcode: "end" (0xb) 0x3fa-0x3fb (1)
     |                                               |                |            [9]{}: code 0x3fb-0x402 (7)
0x3f0|                                 06            |           .    |              size: 6 (valid) 0x3fb-0x3fc (1)
     |                                               |                |              code{}: 0x3fc-0x402 (6)
     |                                               |                |                t{}: 0x3fc-0x3fd (1)
0x3f0|                                    00         |            .   |                  n: 0 (valid) 0x3fc-0x3fd (1)
     |                                               |                |                  x[0:0]: 0x3fd-0x3fd (0)
     |                                               |                |                e[0:3]: 0x3fd-0x402 (5)
     |                                               |                |                  [0]{}: in 0x3fd-0x3ff (2)
0x3f0|                                       20      |                |                    opcode: "local.get" (0x20) 0x3fd-0x3fe (1)
0x3f0|                                          00   |              . |                    x: 0 (valid) 0x3fe-0x3ff (1)
     |                                               |                |                  [1]{}: in 0x3ff-0x401 (2)
0x3f0|                                             24|               $|                    opcode: "global.set" (0x24) 0x3ff-0x400 (1)
0x400|09                                             |.               |                    x: 9 (valid) 0x400-0x401 (1)
     |                                               |                |                  [2]{}: in 0x401-0x402 (1)
0x400|   0b                                          | .              |                    opcode: "end" (0xb) 0x401-0x402 (1)
     |                                               |                |            [10]{}: code 0x402-0x409 (7)
0x400|      06                                       |  .             |              size: 6 (valid) 0x402-0x403 (1)
     |                                               |                |              code{}: 0x403-0x409 (6)
     |                                               |                |                t{}: 0x403-0x404 (1)
0x400|         00                                    |   .            |                  n: 0 (valid) 0x403-0x404 (1)
     |                                               |                |                  x[0:0]: 0x404-0x404 (0)
     |                                               |                |                e[0:3]: 0x404-0x409 (5)
     |                                               |                |                  [0]{}: in 0x404-0x406 (2)
0x400|            20                                 |                |                    opcode: "local.get" (0x20) 0x404-0x405 (1)
0x400|               00                              |     .          |                    x: 0 (valid) 0x405-0x406 (1)
     |                                               |                |                  [1]{}: in 0x406-0x408 (2)
0x400|                  24                           |      $         |                    opcode: "global.set" (0x24) 0x406-0x407 (1)
0x400|                     0d                        |       .        |                    x: 13 (valid) 0x407-0x408 (1)
     |                                               |                |                  [2]{}: in 0x408-0x409 (1)
0x400|                        0b                     |        .       |                    opcode: "end" (0xb) 0x408-0x409 (1)
     |                                               |                |            [11]{}: code 0x409-0x40e (5)
0x400|                           04                  |         .      |              size: 4 (valid) 0x409-0x40a (1)
     |                                               |                |              code{}: 0x40a-0x40e (4)
     |                                               |                |                t{}: 0x40a-0x40b (1)
0x400|                              00               |          .     |                  n: 0 (valid) 0x40a-0x40b (1)
     |                                               |                |                  x[0:0]: 0x40b-0x40b (0)
     |                                               |                |                e[0:2]: 0x40b-0x40e (3)
     |                                               |                |                  [0]{}: in 0x40b-0x40d (2)
0x400|                                 23            |           #    |                    opcode: "global.get" (0x23) 0x40b-0x40c (1)
0x400|                                    03         |            .   |                    x: 3 (valid) 0x40c-0x40d (1)
     |                                               |                |                  [1]{}: in 0x40d-0x40e (1)
0x400|                                       0b      |             .  |                    opcode: "end" (0xb) 0x40d-0x40e (1)
     |                                               |                |            [12]{}: code 0x40e-0x413 (5)
0x400|                                          04   |              . |              size: 4 (valid) 0x40e-0x40f (1)
     |                                               |                |              code{}: 0x40f-0x413 (4)
     |                                               |                |                t{}: 0x40f-0x410 (1)
0x400|                                             00|               .|                  n: 0 (valid) 0x40f-0x410 (1)
     |                                               |                |                  x[0:0]: 0x410-0x410 (0)
     |                                               |                |                e[0:2]: 0x410-0x413 (3)
     |                                               |                |                  [0]{}: in 0x410-0x412 (2)
0x410|23                                             |#               |                    opcode: "global.get" (0x23) 0x410-0x411 (1)
0x410|   04                                          | .              |                    x: 4 (valid) 0x411-0x412 (1)
     |                                               |                |                  [1]{}: in 0x412-0x413 (1)
0x410|      0b                                       |  .             |                    opcode: "end" (0xb) 0x412-0x413 (1)
     |                                               |                |            [13]{}: code 0x413-0x418 (5)
0x410|         04                                    |   .            |              size: 4 (valid) 0x413-0x414 (1)
     |                                               |                |              code{}: 0x414-0x418 (4)
     |                                               |                |                t{}: 0x414-0x415 (1)
0x410|            00                                 |    .           |                  n: 0 (valid) 0x414-0x415 (1)
     |                                               |                |                  x[0:0]: 0x415-0x415 (0)
     |                                               |                |                e[0:2]: 0x415-0x418 (3)
     |                                               |                |                  [0]{}: in 0x415-0x417 (2)
0x410|               23                              |     #          |                    opcode: "global.get" (0x23) 0x415-0x416 (1)
0x410|                  07                           |      .         |                    x: 7 (valid) 0x416-0x417 (1)
     |                                               |                |                  [1]{}: in 0x417-0x418 (1)
0x410|                     0b                        |       .        |                    opcode: "end" (0xb) 0x417-0x418 (1)
     |                                               |                |            [14]{}: code 0x418-0x41d (5)
0x410|                        04                     |        .       |              size: 4 (valid) 0x418-0x419 (1)
     |                                               |                |              code{}: 0x419-0x41d (4)
     |                                               |                |                t{}: 0x419-0x41a (1)
0x410|                           00                  |         .      |                  n: 0 (valid) 0x419-0x41a (1)
     |                                               |                |                  x[0:0]: 0x41a-0x41a (0)
     |                                               |                |                e[0:2]: 0x41a-0x41d (3)
     |                                               |                |                  [0]{}: in 0x41a-0x41c (2)
0x410|                              23               |          #     |                    opcode: "global.get" (0x23) 0x41a-0x41b (1)
0x410|                                 08            |           .    |                    x: 8 (valid) 0x41b-0x41c (1)
     |                                               |                |                  [1]{}: in 0x41c-0x41d (1)
0x410|                                    0b         |            .   |                    opcode: "end" (0xb) 0x41c-0x41d (1)
     |                                               |                |            [15]{}: code 0x41d-0x424 (7)
0x410|                                       06      |             .  |              size: 6 (valid) 0x41d-0x41e (1)
     |                                               |                |              code{}: 0x41e-0x424 (6)
     |                                               |                |                t{}: 0x41e-0x41f (1)
0x410|                                          00   |              . |                  n: 0 (valid) 0x41e-0x41f (1)
     |                                               |                |                  x[0:0]: 0x41f-0x41f (0)
     |                                               |                |                e[0:3]: 0x41f-0x424 (5)
     |                                               |                |                  [0]{}: in 0x41f-0x421 (2)
0x410|                                             20|                |                    opcode: "local.get" (0x20) 0x41f-0x420 (1)
0x420|00                                             |.               |                    x: 0 (valid) 0x420-0x421 (1)
     |                                               |                |                  [1]{}: in 0x421-0x423 (2)
0x420|   24                                          | $              |                    opcode: "global.set" (0x24) 0x421-0x422 (1)
0x420|      07                                       |  .             |                    x: 7 (valid) 0x422-0x423 (1)
     |                                               |                |                  [2]{}: in 0x423-0x424 (1)
0x420|         0b                                    |   .            |                    opcode: "end" (0xb) 0x423-0x424 (1)
     |                                               |                |            [16]{}: code 0x424-0x42b (7)
0x420|            06                                 |    .           |              size: 6 (valid) 0x424-0x425 (1)
     |                                               |                |              code{}: 0x425-0x42b (6)
     |                                               |                |                t{}: 0x425-0x426 (1)
0x420|               00                              |     .          |                  n: 0 (valid) 0x425-0x426 (1)
     |                                               |                |                  x[0:0]: 0x426-0x426 (0)
     |                                               |                |                e[0:3]: 0x426-0x42b (5)
     |                                               |                |                  [0]{}: in 0x426-0x428 (2)
0x420|                  20                           |                |                    opcode: "local.get" (0x20) 0x426-0x427 (1)
0x420|                     00                        |       .        |                    x: 0 (valid) 0x427-0x428 (1)
     |                                               |                |                  [1]{}: in 0x428-0x42a (2)
0x420|                        24                     |        $       |                    opcode: "global.set" (0x24) 0x428-0x429 (1)
0x420|                           08                  |         .      |                    x: 8 (valid) 0x429-0x42a (1)
     |                                               |                |                  [2]{}: in 0x42a-0x42b (1)
0x420|                              0b               |          .     |                    opcode: "end" (0xb) 0x42a-0x42b (1)
     |                                               |                |            [17]{}: code 0x42b-0x42e (3)
0x420|                                 02            |           .    |              size: 2 (valid) 0x42b-0x42c (1)
     |                                               |                |              code{}: 0x42c-0x42e (2)
     |                                               |                |                t{}: 0x42c-0x42d (1)
0x420|                                    00         |            .   |                  n: 0 (valid) 0x42c-0x42d (1)
     |                                               |                |                  x[0:0]: 0x42d-0x42d (0)
     |                                               |                |                e[0:1]: 0x42d-0x42e (1)
     |                                               |                |                  [0]{}: in 0x42d-0x42e (1)
0x420|                                       0b      |             .  |                    opcode: "end" (0xb) 0x42d-0x42e (1)
     |                                               |                |            [18]{}: code 0x42e-0x438 (10)
0x420|                                          09   |              . |              size: 9 (valid) 0x42e-0x42f (1)
     |                                               |                |              code{}: 0x42f-0x438 (9)
     |                                               |                |                t{}: 0x42f-0x430 (1)
0x420|                                             00|               .|                  n: 0 (valid) 0x42f-0x430 (1)
     |                                               |                |                  x[0:0]: 0x430-0x430 (0)
     |                                               |                |                e[0:5]: 0x430-0x438 (8)
     |                                               |                |                  [0]{}: in 0x430-0x432 (2)
0x430|23                                             |#               |                    opcode: "global.get" (0x23) 0x430-0x431 (1)
0x430|   06                                          | .              |                    x: 6 (valid) 0x431-0x432 (1)
     |                                               |                |                  [1]{}: in 0x432-0x434 (2)
0x430|      41                                       |  A             |                    opcode: "i32.const" (0x41) 0x432-0x433 (1)
0x430|         02                                    |   .            |                    n: 2 (valid) 0x433-0x434 (1)
     |                                               |                |                  [2]{}: in 0x434-0x436 (2)
0x430|            41                                 |    A           |                    opcode: "i32.const" (0x41) 0x434-0x435 (1)
0x430|               03                              |     .          |                    n: 3 (valid) 0x435-0x436 (1)
     |                                               |                |                  [3]{}: in 0x436-0x437 (1)
0x430|                  1b                           |      .         |                    opcode: "select" (0x1b) 0x436-0x437 (1)
     |                                               |                |                  [4]{}: in 0x437-0x438 (1)
0x430|                     0b                        |       .        |                    opcode: "end" (0xb) 0x437-0x438 (1)
     |                                               |                |            [19]{}: code 0x438-0x442 (10)
0x430|                        09                     |        .       |              size: 9 (valid) 0x438-0x439 (1)
     |                                               |                |              code{}: 0x439-0x442 (9)
     |                                               |                |                t{}: 0x439-0x43a (1)
0x430|                           00                  |         .      |                  n: 0 (valid) 0x439-0x43a (1)
     |                                               |                |                  x[0:0]: 0x43a-0x43a (0)
     |                                               |                |                e[0:5]: 0x43a-0x442 (8)
     |                                               |                |                  [0]{}: in 0x43a-0x43c (2)
0x430|                              41               |          A     |                    opcode: "i32.const" (0x41) 0x43a-0x43b (1)
0x430|                                 02            |           .    |                    n: 2 (valid) 0x43b-0x43c (1)
     |                                               |                |                  [1]{}: in 0x43c-0x43e (2)
0x430|                                    23         |            #   |                    opcode: "global.get" (0x23) 0x43c-0x43d (1)
0x430|                                       06      |             .  |                    x: 6 (valid) 0x43d-0x43e (1)
     |                                               |                |                  [2]{}: in 0x43e-0x440 (2)
0x430|                                          41   |              A |                    opcode: "i32.const" (0x41) 0x43e-0x43f (1)
0x430|                                             03|               .|                    n: 3 (valid) 0x43f-0x440 (1)
     |                                               |                |                  [3]{}: in 0x440-0x441 (1)
0x440|1b                                             |.               |                    opcode: "select" (0x1b) 0x440-0x441 (1)
     |                                               |                |                  [4]{}: in 0x441-0x442 (1)
0x440|   0b                                          | .              |                    opcode: "end" (0xb) 0x441-0x442 (1)
     |                                               |                |            [20]{}: code 0x442-0x44c (10)
0x440|      09                                       |  .             |              size: 9 (valid) 0x442-0x443 (1)
     |                                               |                |              code{}: 0x443-0x44c (9)
     |                                               |                |                t{}: 0x443-0x444 (1)
0x440|         00                                    |   .            |                  n: 0 (valid) 0x443-0x444 (1)
     |                                               |                |                  x[0:0]: 0x444-0x444 (0)
     |                                               |                |                e[0:5]: 0x444-0x44c (8)
     |                                               |                |                  [0]{}: in 0x444-0x446 (2)
0x440|            41                                 |    A           |                    opcode: "i32.const" (0x41) 0x444-0x445 (1)
0x440|               02                              |     .          |                    n: 2 (valid) 0x445-0x446 (1)
     |                                               |                |                  [1]{}: in 0x446-0x448 (2)
0x440|                  41                           |      A         |                    opcode: "i32.const" (0x41) 0x446-0x447 (1)
0x440|                     03                        |       .        |                    n: 3 (valid) 0x447-0x448 (1)
     |                                               |                |                  [2]{}: in 0x448-0x44a (2)
0x440|                        23                     |        #       |                    opcode: "global.get" (0x23) 0x448-0x449 (1)
0x440|                           06                  |         .      |                    x: 6 (valid) 0x449-0x44a (1)
     |                                               |                |                  [3]{}: in 0x44a-0x44b (1)
0x440|                              1b               |          .     |                    opcode: "select" (0x1b) 0x44a-0x44b (1)
     |                                               |                |                  [4]{}: in 0x44b-0x44c (1)
0x440|                                 0b            |           .    |                    opcode: "end" (0xb) 0x44b-0x44c (1)
     |                                               |                |            [21]{}: code 0x44c-0x458 (12)
0x440|                                    0b         |            .   |              size: 11 (valid) 0x44c-0x44d (1)
     |                                               |                |              code{}: 0x44d-0x458 (11)
     |                                               |                |                t{}: 0x44d-0x44e (1)
0x440|                                       00      |             .  |                  n: 0 (valid) 0x44d-0x44e (1)
     |                                               |                |                  x[0:0]: 0x44e-0x44e (0)
     |                                               |                |                e[0:2]: 0x44e-0x458 (10)
     |                                               |                |                  [0]{}: in 0x44e-0x457 (9)
0x440|                                          03   |              . |                    opcode: "loop" (0x3) 0x44e-0x44f (1)
0x440|                                             7f|               .|                    bt: "i32" (127) 0x44f-0x450 (1)
     |                                               |                |                    instructions[0:3]: 0x450-0x456 (6)
     |                                               |                |                      [0]{}: instr 0x450-0x452 (2)
0x450|23                                             |#               |                        opcode: "global.get" (0x23) 0x450-0x451 (1)
0x450|   06                                          | .              |                        x: 6 (valid) 0x451-0x452 (1)
     |                                               |                |                      [1]{}: instr 0x452-0x454 (2)
0x450|      10                                       |  .             |                        opcode: "call" (0x10) 0x452-0x453 (1)
0x450|         11                                    |   .            |                        x: 17 (valid) 0x453-0x454 (1)
     |                                               |                |                      [2]{}: instr 0x454-0x456 (2)
0x450|            10                                 |    .           |                        opcode: "call" (0x10) 0x454-0x455 (1)
0x450|               11                              |     .          |                        x: 17 (valid) 0x455-0x456 (1)
0x450|                  0b                           |      .         |                    end: 0xb (valid) 0x456-0x457 (1)
     |                                               |                |                  [1]{}: in 0x457-0x458 (1)
0x450|                     0b                        |       .        |                    opcode: "end" (0xb) 0x457-0x458 (1)
     |                                               |                |            [22]{}: code 0x458-0x464 (12)
0x450|                        0b                     |        .       |              size: 11 (valid) 0x458-0x459 (1)
     |                                               |                |              code{}: 0x459-0x464 (11)
     |                                               |                |                t{}: 0x459-0x45a (1)
0x450|                           00                  |         .      |                  n: 0 (valid) 0x459-0x45a (1)
     |                                               |                |                  x[0:0]: 0x45a-0x45a (0)
     |                                               |                |                e[0:2]: 0x45a-0x464 (10)
     |                                               |                |                  [0]{}: in 0x45a-0x463 (9)
0x450|                              03               |          .     |                    opcode: "loop" (0x3) 0x45a-0x45b (1)
0x450|                                 7f            |           .    |                    bt: "i32" (127) 0x45b-0x45c (1)
     |                                               |                |                    instructions[0:3]: 0x45c-0x462 (6)
     |                                               |                |                      [0]{}: instr 0x45c-0x45e (2)
0x450|                                    10         |            .   |                        opcode: "call" (0x10) 0x45c-0x45d (1)
0x450|                                       11      |             .  |                        x: 17 (valid) 0x45d-0x45e (1)
     |                                               |                |                      [1]{}: instr 0x45e-0x460 (2)
0x450|                                          23   |              # |                        opcode: "global.get" (0x23) 0x45e-0x45f (1)
0x450|                                             06|               .|                        x: 6 (valid) 0x45f-0x460 (1)
     |                                               |                |                      [2]{}: instr 0x460-0x462 (2)
0x460|10                                             |.               |                        opcode: "call" (0x10) 0x460-0x461 (1)
0x460|   11                                          | .              |                        x: 17 (valid) 0x461-0x462 (1)
0x460|      0b                                       |  .             |                    end: 0xb (valid) 0x462-0x463 (1)
     |                                               |                |                  [1]{}: in 0x463-0x464 (1)
0x460|         0b                                    |   .            |                    opcode: "end" (0xb) 0x463-0x464 (1)
     |                                               |                |            [23]{}: code 0x464-0x470 (12)
0x460|            0b                                 |    .           |              size: 11 (valid) 0x464-0x465 (1)
     |                                               |                |              code{}: 0x465-0x470 (11)
     |                                               |                |                t{}: 0x465-0x466 (1)
0x460|               00                              |     .          |                  n: 0 (valid) 0x465-0x466 (1)
     |                                               |                |                  x[0:0]: 0x466-0x466 (0)
     |                                               |                |                e[0:2]: 0x466-0x470 (10)
     |                                               |                |                  [0]{}: in 0x466-0x46f (9)
0x460|                  03                           |      .         |                    opcode: "loop" (0x3) 0x466-0x467 (1)
0x460|                     7f                        |       .        |                    bt: "i32" (127) 0x467-0x468 (1)
     |                                               |                |                    instructions[0:3]: 0x468-0x46e (6)
     |                                               |                |                      [0]{}: instr 0x468-0x46a (2)
0x460|                        10                     |        .       |                        opcode: "call" (0x10) 0x468-0x469 (1)
0x460|                           11                  |         .      |                        x: 17 (valid) 0x469-0x46a (1)
     |                                               |                |                      [1]{}: instr 0x46a-0x46c (2)
0x460|                              10               |          .     |                        opcode: "call" (0x10) 0x46a-0x46b (1)
0x460|                                 11            |           .    |                        x: 17 (valid) 0x46b-0x46c (1)
     |                                               |                |                      [2]{}: instr 0x46c-0x46e (2)
0x460|                                    23         |            #   |                        opcode: "global.get" (0x23) 0x46c-0x46d (1)
0x460|                                       06      |             .  |                        x: 6 (valid) 0x46d-0x46e (1)
0x460|                                          0b   |              . |                    end: 0xb (valid) 0x46e-0x46f (1)
     |                                               |                |                  [1]{}: in 0x46f-0x470 (1)
0x460|                                             0b|               .|                    opcode: "end" (0xb) 0x46f-0x470 (1)
     |                                               |                |            [24]{}: code 0x470-0x481 (17)
0x470|10                                             |.               |              size: 16 (valid) 0x470-0x471 (1)
     |                                               |                |              code{}: 0x471-0x481 (16)
     |                                               |                |                t{}: 0x471-0x472 (1)
0x470|   00                                          | .              |                  n: 0 (valid) 0x471-0x472 (1)
     |                                               |                |                  x[0:0]: 0x472-0x472 (0)
     |                                               |                |                e[0:3]: 0x472-0x481 (15)
     |                                               |                |                  [0]{}: in 0x472-0x474 (2)
0x470|      23                                       |  #             |                    opcode: "global.get" (0x23) 0x472-0x473 (1)
0x470|         06                                    |   .            |                    x: 6 (valid) 0x473-0x474 (1)
     |                                               |                |                  [1]{}: in 0x474-0x480 (12)
0x470|            04                                 |    .           |                    opcode: "if" (0x4) 0x474-0x475 (1)
0x470|               7f                              |     .          |                    bt: "i32" (127) 0x475-0x476 (1)
     |                                               |                |                    in1[0:2]: 0x476-0x47a (4)
     |                                               |                |                      [0]{}: instr 0x476-0x478 (2)
0x470|                  10                           |      .         |                        opcode: "call" (0x10) 0x476-0x477 (1)
0x470|                     11                        |       .        |                        x: 17 (valid) 0x477-0x478 (1)
     |                                               |                |                      [1]{}: instr 0x478-0x47a (2)
0x470|                        41                     |        A       |                        opcode: "i32.const" (0x41) 0x478-0x479 (1)
0x470|                           02                  |         .      |                        n: 2 (valid) 0x479-0x47a (1)
0x470|                              05               |          .     |                    else: 0x5 (valid) 0x47a-0x47b (1)
     |                                               |                |                    in2[0:2]: 0x47b-0x47f (4)
     |                                               |                |                      [0]{}: instr 0x47b-0x47d (2)
0x470|                                 10            |           .    |                        opcode: "call" (0x10) 0x47b-0x47c (1)
0x470|                                    11         |            .   |                        x: 17 (valid) 0x47c-0x47d (1)
     |                                               |                |                      [1]{}: instr 0x47d-0x47f (2)
0x470|                                       41      |             A  |                        opcode: "i32.const" (0x41) 0x47d-0x47e (1)
0x470|                                          03   |              . |                        n: 3 (valid) 0x47e-0x47f (1)
0x470|                                             0b|               .|                    end: 0xb (valid) 0x47f-0x480 (1)
     |                                               |                |                  [2]{}: in 0x480-0x481 (1)
0x480|0b                                             |.               |                    opcode: "end" (0xb) 0x480-0x481 (1)
     |                                               |                |            [25]{}: code 0x481-0x48e (13)
0x480|   0c                                          | .              |              size: 12 (valid) 0x481-0x482 (1)
     |                                               |                |              code{}: 0x482-0x48e (12)
     |                                               |                |                t{}: 0x482-0x483 (1)
0x480|      00                                       |  .             |                  n: 0 (valid) 0x482-0x483 (1)
     |                                               |                |                  x[0:0]: 0x483-0x483 (0)
     |                                               |                |                e[0:3]: 0x483-0x48e (11)
     |                                               |                |                  [0]{}: in 0x483-0x485 (2)
0x480|         41                                    |   A            |                    opcode: "i32.const" (0x41) 0x483-0x484 (1)
0x480|            01                                 |    .           |                    n: 1 (valid) 0x484-0x485 (1)
     |                                               |                |                  [1]{}: in 0x485-0x48d (8)
0x480|               04                              |     .          |                    opcode: "if" (0x4) 0x485-0x486 (1)
0x480|                  7f                           |      .         |                    bt: "i32" (127) 0x486-0x487 (1)
     |                                               |                |                    in1[0:1]: 0x487-0x489 (2)
     |                                               |                |                      [0]{}: instr 0x487-0x489 (2)
0x480|                     23                        |       #        |                        opcode: "global.get" (0x23) 0x487-0x488 (1)
0x480|                        06                     |        .       |                        x: 6 (valid) 0x488-0x489 (1)
0x480|                           05                  |         .      |                    else: 0x5 (valid) 0x489-0x48a (1)
     |                                               |                |                    in2[0:1]: 0x48a-0x48c (2)
     |                                               |                |                      [0]{}: instr 0x48a-0x48c (2)
0x480|                              41               |          A     |                        opcode: "i32.const" (0x41) 0x48a-0x48b (1)
0x480|                                 02            |           .    |                        n: 2 (valid) 0x48b-0x48c (1)
0x480|                                    0b         |            .   |                    end: 0xb (valid) 0x48c-0x48d (1)
     |                                               |                |                  [2]{}: in 0x48d-0x48e (1)
0x480|                                       0b      |             .  |                    opcode: "end" (0xb) 0x48d-0x48e (1)
     |                                               |                |            [26]{}: code 0x48e-0x49b (13)
0x480|                                          0c   |              . |              size: 12 (valid) 0x48e-0x48f (1)
     |                                               |                |              code{}: 0x48f-0x49b (12)
     |                                               |                |                t{}: 0x48f-0x490 (1)
0x480|                                             00|               .|                  n: 0 (valid) 0x48f-0x490 (1)
     |                                               |                |                  x[0:0]: 0x490-0x490 (0)
     |                                               |                |                e[0:3]: 0x490-0x49b (11)
     |                                               |                |                  [0]{}: in 0x490-0x492 (2)
0x490|41                                             |A               |                    opcode: "i32.const" (0x41) 0x490-0x491 (1)
0x490|   00                                          | .              |                    n: 0 (valid) 0x491-0x492 (1)
     |                                               |                |                  [1]{}: in 0x492-0x49a (8)
0x490|      04                                       |  .             |                    opcode: "if" (0x4) 0x492-0x493 (1)
0x490|         7f                                    |   .            |                    bt: "i32" (127) 0x493-0x494 (1)
     |                                               |                |                    in1[0:1]: 0x494-0x496 (2)
     |                                               |                |                      [0]{}: instr 0x494-0x496 (2)
0x490|            41                                 |    A           |                        opcode: "i32.const" (0x41) 0x494-0x495 (1)
0x490|               02                              |     .          |                        n: 2 (valid) 0x495-0x496 (1)
0x490|                  05                           |      .         |                    else: 0x5 (valid) 0x496-0x497 (1)
     |                                               |                |                    in2[0:1]: 0x497-0x499 (2)
     |                                               |                |                      [0]{}: instr 0x497-0x499 (2)
0x490|                     23                        |       #        |                        opcode: "global.get" (0x23) 0x497-0x498 (1)
0x490|                        06                     |        .       |                        x: 6 (valid) 0x498-0x499 (1)
0x490|                           0b                  |         .      |                    end: 0xb (valid) 0x499-0x49a (1)
     |                                               |                |                  [2]{}: in 0x49a-0x49b (1)
0x490|                              0b               |          .     |                    opcode: "end" (0xb) 0x49a-0x49b (1)
     |                                               |                |            [27]{}: code 0x49b-0x4aa (15)
0x490|                                 0e            |           .    |              size: 14 (valid) 0x49b-0x49c (1)
     |                                               |                |              code{}: 0x49c-0x4aa (14)
     |                                               |                |                t{}: 0x49c-0x49d (1)
0x490|                                    00         |            .   |                  n: 0 (valid) 0x49c-0x49d (1)
     |                                               |                |                  x[0:0]: 0x49d-0x49d (0)
     |                                               |                |                e[0:2]: 0x49d-0x4aa (13)
     |                                               |                |                  [0]{}: in 0x49d-0x4a9 (12)
0x490|                                       02      |             .  |                    opcode: "block" (0x2) 0x49d-0x49e (1)
0x490|                                          7f   |              . |                    bt: "i32" (127) 0x49e-0x49f (1)
     |                                               |                |                    instructions[0:5]: 0x49f-0x4a8 (9)
     |                                               |                |                      [0]{}: instr 0x49f-0x4a1 (2)
0x490|                                             23|               #|                        opcode: "global.get" (0x23) 0x49f-0x4a0 (1)
0x4a0|06                                             |.               |                        x: 6 (valid) 0x4a0-0x4a1 (1)
     |                                               |                |                      [1]{}: instr 0x4a1-0x4a3 (2)
0x4a0|   41                                          | A              |                        opcode: "i32.const" (0x41) 0x4a1-0x4a2 (1)
0x4a0|      02                                       |  .             |                        n: 2 (valid) 0x4a2-0x4a3 (1)
     |                                               |                |                      [2]{}: instr 0x4a3-0x4a5 (2)
0x4a0|         0d                                    |   .            |                        opcode: "br_if" (0xd) 0x4a3-0x4a4 (1)
0x4a0|            00                                 |    .           |                        l: 0 (valid) 0x4a4-0x4a5 (1)
     |                                               |                |                      [3]{}: instr 0x4a5-0x4a7 (2)
0x4a0|               41                              |     A          |                        opcode: "i32.const" (0x41) 0x4a5-0x4a6 (1)
0x4a0|                  03                           |      .         |                        n: 3 (valid) 0x4a6-0x4a7 (1)
     |                                               |                |                      [4]{}: instr 0x4a7-0x4a8 (1)
0x4a0|                     0f                        |       .        |                        opcode: "return" (0xf) 0x4a7-0x4a8 (1)
0x4a0|                        0b                     |        .       |                    end: 0xb (valid) 0x4a8-0x4a9 (1)
     |                                               |                |                  [1]{}: in 0x4a9-0x4aa (1)
0x4a0|                           0b                  |         .      |                    opcode: "end" (0xb) 0x4a9-0x4aa (1)
     |                                               |                |            [28]{}: code 0x4aa-0x4b9 (15)
0x4a0|                              0e               |          .     |              size: 14 (valid) 0x4aa-0x4ab (1)
     |                                               |                |              code{}: 0x4ab-0x4b9 (14)
     |                                               |                |                t{}: 0x4ab-0x4ac (1)
0x4a0|                                 00            |           .    |                  n: 0 (valid) 0x4ab-0x4ac (1)
     |                                               |                |                  x[0:0]: 0x4ac-0x4ac (0)
     |                                               |                |                e[0:2]: 0x4ac-0x4b9 (13)
     |                                               |                |                  [0]{}: in 0x4ac-0x4b8 (12)
0x4a0|                                    02         |            .   |                    opcode: "block" (0x2) 0x4ac-0x4ad (1)
0x4a0|                                       7f      |             .  |                    bt: "i32" (127) 0x4ad-0x4ae (1)
     |                                               |                |                    instructions[0:5]: 0x4ae-0x4b7 (9)
     |                                               |                |                      [0]{}: instr 0x4ae-0x4b0 (2)
0x4a0|                                          41   |              A |                        opcode: "i32.const" (0x41) 0x4ae-0x4af (1)
0x4a0|                                             02|               .|                        n: 2 (valid) 0x4af-0x4b0 (1)
     |                                               |                |                      [1]{}: instr 0x4b0-0x4b2 (2)
0x4b0|23                                             |#               |                        opcode: "global.get" (0x23) 0x4b0-0x4b1 (1)
0x4b0|   06                                          | .              |                        x: 6 (valid) 0x4b1-0x4b2 (1)
     |                                               |                |                      [2]{}: instr 0x4b2-0x4b4 (2)
0x4b0|      0d                                       |  .             |                        opcode: "br_if" (0xd) 0x4b2-0x4b3 (1)
0x4b0|         00                                    |   .            |                        l: 0 (valid) 0x4b3-0x4b4 (1)
     |                                               |                |                      [3]{}: instr 0x4b4-0x4b6 (2)
0x4b0|            41                                 |    A           |                        opcode: "i32.const" (0x41) 0x4b4-0x4b5 (1)
0x4b0|               03                              |     .          |                        n: 3 (valid) 0x4b5-0x4b6 (1)
     |                                               |                |                      [4]{}: instr 0x4b6-0x4b7 (1)
0x4b0|                  0f                           |      .         |                        opcode: "return" (0xf) 0x4b6-0x4b7 (1)
0x4b0|                     0b                        |       .        |                    end: 0xb (valid) 0x4b7-0x4b8 (1)
     |                                               |                |                  [1]{}: in 0x4b8-0x4b9 (1)
0x4b0|                        0b                     |        .       |                    opcode: "end" (0xb) 0x4b8-0x4b9 (1)
     |                                               |                |            [29]{}: code 0x4b9-0x4c7 (14)
0x4b0|                           0d                  |         .      |              size: 13 (valid) 0x4b9-0x4ba (1)
     |                                               |                |              code{}: 0x4ba-0x4c7 (13)
     |                                               |                |                t{}: 0x4ba-0x4bb (1)
0x4b0|                              00               |          .     |                  n: 0 (valid) 0x4ba-0x4bb (1)
     |                                               |                |                  x[0:0]: 0x4bb-0x4bb (0)
     |                                               |                |                e[0:2]: 0x4bb-0x4c7 (12)
     |                                               |                |                  [0]{}: in 0x4bb-0x4c6 (11)
0x4b0|                                 02            |           .    |                    opcode: "block" (0x2) 0x4bb-0x4bc (1)
0x4b0|                                    7f         |            .   |                    bt: "i32" (127) 0x4bc-0x4bd (1)
     |                                               |                |                    instructions[0:3]: 0x4bd-0x4c5 (8)
     |                                               |                |                      [0]{}: instr 0x4bd-0x4bf (2)
0x4b0|                                       23      |             #  |                        opcode: "global.get" (0x23) 0x4bd-0x4be (1)
0x4b0|                                          06   |              . |                        x: 6 (valid) 0x4be-0x4bf (1)
     |                                               |                |                      [1]{}: instr 0x4bf-0x4c1 (2)
0x4b0|                                             41|               A|                        opcode: "i32.const" (0x41) 0x4bf-0x4c0 (1)
0x4c0|02                                             |.               |                        n: 2 (valid) 0x4c0-0x4c1 (1)
     |                                               |                |                      [2]{}: instr 0x4c1-0x4c5 (4)
0x4c0|   0e                                          | .              |                        opcode: "br_table" (0xe) 0x4c1-0x4c2 (1)
     |                                               |                |                        l{}: 0x4c2-0x4c4 (2)
0x4c0|      01                                       |  .             |                          n: 1 (valid) 0x4c2-0x4c3 (1)
     |                                               |                |                          x[0:1]: 0x4c3-0x4c4 (1)
0x4c0|         00                                    |   .            |                            [0]: 0 l (valid) 0x4c3-0x4c4 (1)
0x4c0|            00                                 |    .           |                        lN: 0 (valid) 0x4c4-0x4c5 (1)
0x4c0|               0b                              |     .          |                    end: 0xb (valid) 0x4c5-0x4c6 (1)
     |                                               |                |                  [1]{}: in 0x4c6-0x4c7 (1)
0x4c0|                  0b                           |      .         |                    opcode: "end" (0xb) 0x4c6-0x4c7 (1)
     |                                               |                |            [30]{}: code 0x4c7-0x4d5 (14)
0x4c0|                     0d                        |       .        |              size: 13 (valid) 0x4c7-0x4c8 (1)
     |                                               |                |              code{}: 0x4c8-0x4d5 (13)
     |                                               |                |                t{}: 0x4c8-0x4c9 (1)
0x4c0|                        00                     |        .       |                  n: 0 (valid) 0x4c8-0x4c9 (1)
     |                                               |                |                  x[0:0]: 0x4c9-0x4c9 (0)
     |                                               |                |                e[0:2]: 0x4c9-0x4d5 (12)
     |                                               |                |                  [0]{}: in 0x4c9-0x4d4 (11)
0x4c0|                           02                  |         .      |                    opcode: "block" (0x2) 0x4c9-0x4ca (1)
0x4c0|                              7f               |          .     |                    bt: "i32" (127) 0x4ca-0x4cb (1)
     |                                               |                |                    instructions[0:3]: 0x4cb-0x4d3 (8)
     |                                               |                |                      [0]{}: instr 0x4cb-0x4cd (2)
0x4c0|                                 41            |           A    |                        opcode: "i32.const" (0x41) 0x4cb-0x4cc (1)
0x4c0|                                    02         |            .   |                        n: 2 (valid) 0x4cc-0x4cd (1)
     |                                               |                |                      [1]{}: instr 0x4cd-0x4cf (2)
0x4c0|                                       23      |             #  |                        opcode: "global.get" (0x23) 0x4cd-0x4ce (1)
0x4c0|                                          06   |              . |                        x: 6 (valid) 0x4ce-0x4cf (1)
     |                                               |                |                      [2]{}: instr 0x4cf-0x4d3 (4)
0x4c0|                                             0e|               .|                        opcode: "br_table" (0xe) 0x4cf-0x4d0 (1)
     |                                               |                |                        l{}: 0x4d0-0x4d2 (2)
0x4d0|01                                             |.               |                          n: 1 (valid) 0x4d0-0x4d1 (1)
     |                                               |                |                          x[0:1]: 0x4d1-0x4d2 (1)
0x4d0|   00                                          | .              |                            [0]: 0 l (valid) 0x4d1-0x4d2 (1)
0x4d0|      00                                       |  .             |                        lN: 0 (valid) 0x4d2-0x4d3 (1)
0x4d0|         0b                                    |   .            |                    end: 0xb (valid) 0x4d3-0x4d4 (1)
     |                                               |                |                  [1]{}: in 0x4d4-0x4d5 (1)
0x4d0|            0b                                 |    .           |                    opcode: "end" (0xb) 0x4d4-0x4d5 (1)
     |                                               |                |            [31]{}: code 0x4d5-0x4da (5)
0x4d0|               04                              |     .          |              size: 4 (valid) 0x4d5-0x4d6 (1)
     |                                               |                |              code{}: 0x4d6-0x4da (4)
     |                                               |                |                t{}: 0x4d6-0x4d7 (1)
0x4d0|                  00                           |      .         |                  n: 0 (valid) 0x4d6-0x4d7 (1)
     |                                               |                |                  x[0:0]: 0x4d7-0x4d7 (0)
     |                                               |                |                e[0:2]: 0x4d7-0x4da (3)
     |                                               |                |                  [0]{}: in 0x4d7-0x4d9 (2)
0x4d0|                     20                        |                |                    opcode: "local.get" (0x20) 0x4d7-0x4d8 (1)
0x4d0|                        00                     |        .       |                    x: 0 (valid) 0x4d8-0x4d9 (1)
     |                                               |                |                  [1]{}: in 0x4d9-0x4da (1)
0x4d0|                           0b                  |         .      |                    opcode: "end" (0xb) 0x4d9-0x4da (1)
     |                                               |                |            [32]{}: code 0x4da-0x4e9 (15)
0x4d0|                              0e               |          .     |              size: 14 (valid) 0x4da-0x4db (1)
     |                                               |                |              code{}: 0x4db-0x4e9 (14)
     |                                               |                |                t{}: 0x4db-0x4dc (1)
0x4d0|                                 00            |           .    |                  n: 0 (valid) 0x4db-0x4dc (1)
     |                                               |                |                  x[0:0]: 0x4dc-0x4dc (0)
     |                                               |                |                e[0:2]: 0x4dc-0x4e9 (13)
     |                                               |                |                  [0]{}: in 0x4dc-0x4e8 (12)
0x4d0|                                    02         |            .   |                    opcode: "block" (0x2) 0x4dc-0x4dd (1)
0x4d0|                                       7f      |             .  |                    bt: "i32" (127) 0x4dd-0x4de (1)
     |                                               |                |                    instructions[0:4]: 0x4de-0x4e7 (9)
     |                                               |                |                      [0]{}: instr 0x4de-0x4e0 (2)
0x4d0|                                          23   |              # |                        opcode: "global.get" (0x23) 0x4de-0x4df (1)
0x4d0|                                             06|               .|                        x: 6 (valid) 0x4df-0x4e0 (1)
     |                                               |                |                      [1]{}: instr 0x4e0-0x4e2 (2)
0x4e0|41                                             |A               |                        opcode: "i32.const" (0x41) 0x4e0-0x4e1 (1)
0x4e0|   02                                          | .              |                        n: 2 (valid) 0x4e1-0x4e2 (1)
     |                                               |                |                      [2]{}: instr 0x4e2-0x4e4 (2)
0x4e0|      41                                       |  A             |                        opcode: "i32.const" (0x41) 0x4e2-0x4e3 (1)
0x4e0|         00                                    |   .            |                        n: 0 (valid) 0x4e3-0x4e4 (1)
     |                                               |                |                      [3]{}: instr 0x4e4-0x4e7 (3)
0x4e0|            11                                 |    .           |                        opcode: "call_indirect" (0x11) 0x4e4-0x4e5 (1)
0x4e0|               00                              |     .          |                        y: 0 (valid) 0x4e5-0x4e6 (1)
0x4e0|                  00                           |      .         |                        x: 0 (valid) 0x4e6-0x4e7 (1)
0x4e0|                     0b                        |       .        |                    end: 0xb (valid) 0x4e7-0x4e8 (1)
     |                                               |                |                  [1]{}: in 0x4e8-0x4e9 (1)
0x4e0|                        0b                     |        .       |                    opcode: "end" (0xb) 0x4e8-0x4e9 (1)
     |                                               |                |            [33]{}: code 0x4e9-0x4f8 (15)
0x4e0|                           0e                  |         .      |              size: 14 (valid) 0x4e9-0x4ea (1)
     |                                               |                |              code{}: 0x4ea-0x4f8 (14)
     |                                               |                |                t{}: 0x4ea-0x4eb (1)
0x4e0|                              00               |          .     |                  n: 0 (valid) 0x4ea-0x4eb (1)
     |                                               |                |                  x[0:0]: 0x4eb-0x4eb (0)
     |                                               |                |                e[0:2]: 0x4eb-0x4f8 (13)
     |                                               |                |                  [0]{}: in 0x4eb-0x4f7 (12)
0x4e0|                                 02            |           .    |                    opcode: "block" (0x2) 0x4eb-0x4ec (1)
0x4e0|                                    7f         |            .   |                    bt: "i32" (127) 0x4ec-0x4ed (1)
     |                                               |                |                    instructions[0:4]: 0x4ed-0x4f6 (9)
     |                                               |                |                      [0]{}: instr 0x4ed-0x4ef (2)
0x4e0|                                       41      |             A  |                        opcode: "i32.const" (0x41) 0x4ed-0x4ee (1)
0x4e0|                                          02   |              . |                        n: 2 (valid) 0x4ee-0x4ef (1)
     |                                               |                |                      [1]{}: instr 0x4ef-0x4f1 (2)
0x4e0|                                             23|               #|                        opcode: "global.get" (0x23) 0x4ef-0x4f0 (1)
0x4f0|06                                             |.               |                        x: 6 (valid) 0x4f0-0x4f1 (1)
     |                                               |                |                      [2]{}: instr 0x4f1-0x4f3 (2)
0x4f0|   41                                          | A              |                        opcode: "i32.const" (0x41) 0x4f1-0x4f2 (1)
0x4f0|      00                                       |  .             |                        n: 0 (valid) 0x4f2-0x4f3 (1)
     |                                               |                |                      [3]{}: instr 0x4f3-0x4f6 (3)
0x4f0|         11                                    |   .            |                        opcode: "call_indirect" (0x11) 0x4f3-0x4f4 (1)
0x4f0|            00                                 |    .           |                        y: 0 (valid) 0x4f4-0x4f5 (1)
0x4f0|               00                              |     .          |                        x: 0 (valid) 0x4f5-0x4f6 (1)
0x4f0|                  0b                           |      .         |                    end: 0xb (valid) 0x4f6-0x4f7 (1)
     |                                               |                |                  [1]{}: in 0x4f7-0x4f8 (1)
0x4f0|                     0b                        |       .        |                    opcode: "end" (0xb) 0x4f7-0x4f8 (1)
     |                                               |                |            [34]{}: code 0x4f8-0x507 (15)
0x4f0|                        0e                     |        .       |              size: 14 (valid) 0x4f8-0x4f9 (1)
     |                                               |                |              code{}: 0x4f9-0x507 (14)
     |                                               |                |                t{}: 0x4f9-0x4fa (1)
0x4f0|                           00                  |         .      |                  n: 0 (valid) 0x4f9-0x4fa (1)
     |                                               |                |                  x[0:0]: 0x4fa-0x4fa (0)
     |                                               |                |                e[0:2]: 0x4fa-0x507 (13)
     |                                               |                |                  [0]{}: in 0x4fa-0x506 (12)
0x4f0|                              02               |          .     |                    opcode: "block" (0x2) 0x4fa-0x4fb (1)
0x4f0|                                 7f            |           .    |                    bt: "i32" (127) 0x4fb-0x4fc (1)
     |                                               |                |                    instructions[0:4]: 0x4fc-0x505 (9)
     |                                               |                |                      [0]{}: instr 0x4fc-0x4fe (2)
0x4f0|                                    41         |            A   |                        opcode: "i32.const" (0x41) 0x4fc-0x4fd (1)
0x4f0|                                       02      |             .  |                        n: 2 (valid) 0x4fd-0x4fe (1)
     |                                               |                |                      [1]{}: instr 0x4fe-0x500 (2)
0x4f0|                                          41   |              A |                        opcode: "i32.const" (0x41) 0x4fe-0x4ff (1)
0x4f0|                                             00|               .|                        n: 0 (valid) 0x4ff-0x500 (1)
     |                                               |                |                      [2]{}: instr 0x500-0x502 (2)
0x500|23                                             |#               |                        opcode: "global.get" (0x23) 0x500-0x501 (1)
0x500|   06                                          | .              |                        x: 6 (valid) 0x501-0x502 (1)
     |                                               |                |                      [3]{}: instr 0x502-0x505 (3)
0x500|      11                                       |  .             |                        opcode: "call_indirect" (0x11) 0x502-0x503 (1)
0x500|         00                                    |   .            |                        y: 0 (valid) 0x503-0x504 (1)
0x500|            00                                 |    .           |                        x: 0 (valid) 0x504-0x505 (1)
0x500|               0b                              |     .          |                    end: 0xb (valid) 0x505-0x506 (1)
     |                                               |                |                  [1]{}: in 0x506-0x507 (1)
0x500|                  0b                           |      .         |                    opcode: "end" (0xb) 0x506-0x507 (1)
     |                                               |                |            [35]{}: code 0x507-0x511 (10)
0x500|                     09                        |       .        |              size: 9 (valid) 0x507-0x508 (1)
     |                                               |                |              code{}: 0x508-0x511 (9)
     |                                               |                |                t{}: 0x508-0x509 (1)
0x500|                        00                     |        .       |                  n: 0 (valid) 0x508-0x509 (1)
     |                                               |                |                  x[0:0]: 0x509-0x509 (0)
     |                                               |                |                e[0:4]: 0x509-0x511 (8)
     |                                               |                |                  [0]{}: in 0x509-0x50b (2)
0x500|                           23                  |         #      |                    opcode: "global.get" (0x23) 0x509-0x50a (1)
0x500|                              06               |          .     |                    x: 6 (valid) 0x50a-0x50b (1)
     |                                               |                |                  [1]{}: in 0x50b-0x50d (2)
0x500|                                 41            |           A    |                    opcode: "i32.const" (0x41) 0x50b-0x50c (1)
0x500|                                    01         |            .   |                    n: 1 (valid) 0x50c-0x50d (1)
     |                                               |                |                  [2]{}: in 0x50d-0x510 (3)
0x500|                                       36      |             6  |                    opcode: "i32.store" (0x36) 0x50d-0x50e (1)
     |                                               |                |                    m{}: 0x50e-0x510 (2)
0x500|                                          02   |              . |                      a: 2 (valid) 0x50e-0x50f (1)
0x500|                                             00|               .|                      o: 0 (valid) 0x50f-0x510 (1)
     |                                               |                |                  [3]{}: in 0x510-0x511 (1)
0x510|0b                                             |.               |                    opcode: "end" (0xb) 0x510-0x511 (1)
     |                                               |                |            [36]{}: code 0x511-0x51b (10)
0x510|   09                                          | .              |              size: 9 (valid) 0x511-0x512 (1)
     |                                               |                |              code{}: 0x512-0x51b (9)
     |                                               |                |                t{}: 0x512-0x513 (1)
0x510|      00                                       |  .             |                  n: 0 (valid) 0x512-0x513 (1)
     |                                               |                |                  x[0:0]: 0x513-0x513 (0)
     |                                               |                |                e[0:4]: 0x513-0x51b (8)
     |                                               |                |                  [0]{}: in 0x513-0x515 (2)
0x510|         41                                    |   A            |                    opcode: "i32.const" (0x41) 0x513-0x514 (1)
0x510|            00                                 |    .           |                    n: 0 (valid) 0x514-0x515 (1)
     |                                               |                |                  [1]{}: in 0x515-0x517 (2)
0x510|               23                              |     #          |                    opcode: "global.get" (0x23) 0x515-0x516 (1)
0x510|                  06                           |      .         |                    x: 6 (valid) 0x516-0x517 (1)
     |                                               |                |                  [2]{}: in 0x517-0x51a (3)
0x510|                     36                        |       6        |                    opcode: "i32.store" (0x36) 0x517-0x518 (1)
     |                                               |                |                    m{}: 0x518-0x51a (2)
0x510|                        02                     |        .       |                      a: 2 (valid) 0x518-0x519 (1)
0x510|                           00                  |         .      |                      o: 0 (valid) 0x519-0x51a (1)
     |                                               |                |                  [3]{}: in 0x51a-0x51b (1)
0x510|                              0b               |          .     |                    opcode: "end" (0xb) 0x51a-0x51b (1)
     |                                               |                |            [37]{}: code 0x51b-0x523 (8)
0x510|                                 07            |           .    |              size: 7 (valid) 0x51b-0x51c (1)
     |                                               |                |              code{}: 0x51c-0x523 (7)
     |                                               |                |                t{}: 0x51c-0x51d (1)
0x510|                                    00         |            .   |                  n: 0 (valid) 0x51c-0x51d (1)
     |                                               |                |                  x[0:0]: 0x51d-0x51d (0)
     |                                               |                |                e[0:3]: 0x51d-0x523 (6)
     |                                               |                |                  [0]{}: in 0x51d-0x51f (2)
0x510|                                       23      |             #  |                    opcode: "global.get" (0x23) 0x51d-0x51e (1)
0x510|                                          06   |              . |                    x: 6 (valid) 0x51e-0x51f (1)
     |                                               |                |                  [1]{}: in 0x51f-0x522 (3)
0x510|                                             28|               (|                    opcode: "i32.load" (0x28) 0x51f-0x520 (1)
     |                                               |                |                    m{}: 0x520-0x522 (2)
0x520|02                                             |.               |                      a: 2 (valid) 0x520-0x521 (1)
0x520|   00                                          | .              |                      o: 0 (valid) 0x521-0x522 (1)
     |                                               |                |                  [2]{}: in 0x522-0x523 (1)
0x520|      0b                                       |  .             |                    opcode: "end" (0xb) 0x522-0x523 (1)
     |                                               |                |            [38]{}: code 0x523-0x52a (7)
0x520|         06                                    |   .            |              size: 6 (valid) 0x523-0x524 (1)
     |                                               |                |              code{}: 0x524-0x52a (6)
     |                                               |                |                t{}: 0x524-0x525 (1)
0x520|            00                                 |    .           |                  n: 0 (valid) 0x524-0x525 (1)
     |                                               |                |                  x[0:0]: 0x525-0x525 (0)
     |                                               |                |                e[0:3]: 0x525-0x52a (5)
     |                                               |                |                  [0]{}: in 0x525-0x527 (2)
0x520|               23                              |     #          |                    opcode: "global.get" (0x23) 0x525-0x526 (1)
0x520|                  06                           |      .         |                    x: 6 (valid) 0x526-0x527 (1)
     |                                               |                |                  [1]{}: in 0x527-0x529 (2)
0x520|                     40                        |       @        |                    opcode: "memory.grow" (0x40) 0x527-0x528 (1)
0x520|                        00                     |        .       |                    reserved: 0x0 (valid) 0x528-0x529 (1)
     |                                               |                |                  [2]{}: in 0x529-0x52a (1)
0x520|                           0b                  |         .      |                    opcode: "end" (0xb) 0x529-0x52a (1)
     |                                               |                |            [39]{}: code 0x52a-0x52f (5)
0x520|                              04               |          .     |              size: 4 (valid) 0x52a-0x52b (1)
     |                                               |                |              code{}: 0x52b-0x52f (4)
     |                                               |                |                t{}: 0x52b-0x52c (1)
0x520|                                 00            |           .    |                  n: 0 (valid) 0x52b-0x52c (1)
     |                                               |                |                  x[0:0]: 0x52c-0x52c (0)
     |                                               |                |                e[0:2]: 0x52c-0x52f (3)
     |                                               |                |                  [0]{}: in 0x52c-0x52e (2)
0x520|                                    20         |                |                    opcode: "local.get" (0x20) 0x52c-0x52d (1)
0x520|                                       00      |             .  |                    x: 0 (valid) 0x52d-0x52e (1)
     |                                               |                |                  [1]{}: in 0x52e-0x52f (1)
0x520|                                          0b   |              . |                    opcode: "end" (0xb) 0x52e-0x52f (1)
     |                                               |                |            [40]{}: code 0x52f-0x536 (7)
0x520|                                             06|               .|              size: 6 (valid) 0x52f-0x530 (1)
     |                                               |                |              code{}: 0x530-0x536 (6)
     |                                               |                |                t{}: 0x530-0x531 (1)
0x530|00                                             |.               |                  n: 0 (valid) 0x530-0x531 (1)
     |                                               |                |                  x[0:0]: 0x531-0x531 (0)
     |                                               |                |                e[0:3]: 0x531-0x536 (5)
     |                                               |                |                  [0]{}: in 0x531-0x533 (2)
0x530|   23                                          | #              |                    opcode: "global.get" (0x23) 0x531-0x532 (1)
0x530|      06                                       |  .             |                    x: 6 (valid) 0x532-0x533 (1)
     |                                               |                |                  [1]{}: in 0x533-0x535 (2)
0x530|         10                                    |   .            |                    opcode: "call" (0x10) 0x533-0x534 (1)
0x530|            27                                 |    '           |                    x: 39 (valid) 0x534-0x535 (1)
     |                                               |                |                  [2]{}: in 0x535-0x536 (1)
0x530|               0b                              |     .          |                    opcode: "end" (0xb) 0x535-0x536 (1)
     |                                               |                |            [41]{}: code 0x536-0x53c (6)
0x530|                  05                           |      .         |              size: 5 (valid) 0x536-0x537 (1)
     |                                               |                |              code{}: 0x537-0x53c (5)
     |                                               |                |                t{}: 0x537-0x538 (1)
0x530|                     00                        |       .        |                  n: 0 (valid) 0x537-0x538 (1)
     |                                               |                |                  x[0:0]: 0x538-0x538 (0)
     |                                               |                |                e[0:3]: 0x538-0x53c (4)
     |                                               |                |                  [0]{}: in 0x538-0x53a (2)
0x530|                        23                     |        #       |                    opcode: "global.get" (0x23) 0x538-0x539 (1)
0x530|                           06                  |         .      |                    x: 6 (valid) 0x539-0x53a (1)
     |                                               |                |                  [1]{}: in 0x53a-0x53b (1)
0x530|                              0f               |          .     |                    opcode: "return" (0xf) 0x53a-0x53b (1)
     |                                               |                |                  [2]{}: in 0x53b-0x53c (1)
0x530|                                 0b            |           .    |                    opcode: "end" (0xb) 0x53b-0x53c (1)
     |                                               |                |            [42]{}: code 0x53c-0x542 (6)
0x530|                                    05         |            .   |              size: 5 (valid) 0x53c-0x53d (1)
     |                                               |                |              code{}: 0x53d-0x542 (5)
     |                                               |                |                t{}: 0x53d-0x53e (1)
0x530|                                       00      |             .  |                  n: 0 (valid) 0x53d-0x53e (1)
     |                                               |                |                  x[0:0]: 0x53e-0x53e (0)
     |                                               |                |                e[0:3]: 0x53e-0x542 (4)
     |                                               |                |                  [0]{}: in 0x53e-0x540 (2)
0x530|                                          23   |              # |                    opcode: "global.get" (0x23) 0x53e-0x53f (1)
0x530|                                             06|               .|                    x: 6 (valid) 0x53f-0x540 (1)
     |                                               |                |                  [1]{}: in 0x540-0x541 (1)
0x540|1a                                             |.               |                    opcode: "drop" (0x1a) 0x540-0x541 (1)
     |                                               |                |                  [2]{}: in 0x541-0x542 (1)
0x540|   0b                                          | .              |                    opcode: "end" (0xb) 0x541-0x542 (1)
     |                                               |                |            [43]{}: code 0x542-0x54c (10)
0x540|      09                                       |  .             |              size: 9 (valid) 0x542-0x543 (1)
     |                                               |                |              code{}: 0x543-0x54c (9)
     |                                               |                |                t{}: 0x543-0x544 (1)
0x540|         00                                    |   .            |                  n: 0 (valid) 0x543-0x544 (1)
     |                                               |                |                  x[0:0]: 0x544-0x544 (0)
     |                                               |                |                e[0:2]: 0x544-0x54c (8)
     |                                               |                |                  [0]{}: in 0x544-0x54b (7)
0x540|            02                                 |    .           |                    opcode: "block" (0x2) 0x544-0x545 (1)
0x540|               7f                              |     .          |                    bt: "i32" (127) 0x545-0x546 (1)
     |                                               |                |                    instructions[0:2]: 0x546-0x54a (4)
     |                                               |                |                      [0]{}: instr 0x546-0x548 (2)
0x540|                  23                           |      #         |                        opcode: "global.get" (0x23) 0x546-0x547 (1)
0x540|                     06                        |       .        |                        x: 6 (valid) 0x547-0x548 (1)
     |                                               |                |                      [1]{}: instr 0x548-0x54a (2)
0x540|                        0c                     |        .       |                        opcode: "br" (0xc) 0x548-0x549 (1)
0x540|                           00                  |         .      |                        l: 0 (valid) 0x549-0x54a (1)
0x540|                              0b               |          .     |                    end: 0xb (valid) 0x54a-0x54b (1)
     |                                               |                |                  [1]{}: in 0x54b-0x54c (1)
0x540|                                 0b            |           .    |                    opcode: "end" (0xb) 0x54b-0x54c (1)
     |                                               |                |            [44]{}: code 0x54c-0x555 (9)
0x540|                                    08         |            .   |              size: 8 (valid) 0x54c-0x54d (1)
     |                                               |                |              code{}: 0x54d-0x555 (8)
     |                                               |                |                t{}: 0x54d-0x54e (1)
0x540|                                       00      |             .  |                  n: 0 (valid) 0x54d-0x54e (1)
     |                                               |                |                  x[0:0]: 0x54e-0x54e (0)
     |                                               |                |                e[0:4]: 0x54e-0x555 (7)
     |                                               |                |                  [0]{}: in 0x54e-0x550 (2)
0x540|                                          23   |              # |                    opcode: "global.get" (0x23) 0x54e-0x54f (1)
0x540|                                             06|               .|                    x: 6 (valid) 0x54f-0x550 (1)
     |                                               |                |                  [1]{}: in 0x550-0x552 (2)
0x550|21                                             |!               |                    opcode: "local.set" (0x21) 0x550-0x551 (1)
0x550|   00                                          | .              |                    x: 0 (valid) 0x551-0x552 (1)
     |                                               |                |                  [2]{}: in 0x552-0x554 (2)
0x550|      20                                       |                |                    opcode: "local.get" (0x20) 0x552-0x553 (1)
0x550|         00                                    |   .            |                    x: 0 (valid) 0x553-0x554 (1)
     |                                               |                |                  [3]{}: in 0x554-0x555 (1)
0x550|            0b                                 |    .           |                    opcode: "end" (0xb) 0x554-0x555 (1)
     |                                               |                |            [45]{}: code 0x555-0x55c (7)
0x550|               06                              |     .          |              size: 6 (valid) 0x555-0x556 (1)
     |                                               |                |              code{}: 0x556-0x55c (6)
     |                                               |                |                t{}: 0x556-0x557 (1)
0x550|                  00                           |      .         |                  n: 0 (valid) 0x556-0x557 (1)
     |                                               |                |                  x[0:0]: 0x557-0x557 (0)
     |                                               |                |                e[0:3]: 0x557-0x55c (5)
     |                                               |                |                  [0]{}: in 0x557-0x559 (2)
0x550|                     23                        |       #        |                    opcode: "global.get" (0x23) 0x557-0x558 (1)
0x550|                        06                     |        .       |                    x: 6 (valid) 0x558-0x559 (1)
     |                                               |                |                  [1]{}: in 0x559-0x55b (2)
0x550|                           22                  |         "      |                    opcode: "local.tee" (0x22) 0x559-0x55a (1)
0x550|                              00               |          .     |                    x: 0 (valid) 0x55a-0x55b (1)
     |                                               |                |                  [2]{}: in 0x55b-0x55c (1)
0x550|                                 0b            |           .    |                    opcode: "end" (0xb) 0x55b-0x55c (1)
     |                                               |                |            [46]{}: code 0x55c-0x565 (9)
0x550|                                    08         |            .   |              size: 8 (valid) 0x55c-0x55d (1)
     |                                               |                |              code{}: 0x55d-0x565 (8)
     |                                               |                |                t{}: 0x55d-0x55e (1)
0x550|                                       00      |             .  |                  n: 0 (valid) 0x55d-0x55e (1)
     |                                               |                |                  x[0:0]: 0x55e-0x55e (0)
     |                                               |                |                e[0:4]: 0x55e-0x565 (7)
     |                                               |                |                  [0]{}: in 0x55e-0x560 (2)
0x550|                                          23   |              # |                    opcode: "global.get" (0x23) 0x55e-0x55f (1)
0x550|                                             06|               .|                    x: 6 (valid) 0x55f-0x560 (1)
     |                                               |                |                  [1]{}: in 0x560-0x562 (2)
0x560|24                                             |$               |                    opcode: "global.set" (0x24) 0x560-0x561 (1)
0x560|   06                                          | .              |                    x: 6 (valid) 0x561-0x562 (1)
     |                                               |                |                  [2]{}: in 0x562-0x564 (2)
0x560|      23                                       |  #             |                    opcode: "global.get" (0x23) 0x562-0x563 (1)
0x560|         06                                    |   .            |                    x: 6 (valid) 0x563-0x564 (1)
     |                                               |                |                  [3]{}: in 0x564-0x565 (1)
0x560|            0b                                 |    .           |                    opcode: "end" (0xb) 0x564-0x565 (1)
     |                                               |                |            [47]{}: code 0x565-0x56b (6)
0x560|               05                              |     .          |              size: 5 (valid) 0x565-0x566 (1)
     |                                               |                |              code{}: 0x566-0x56b (5)
     |                                               |                |                t{}: 0x566-0x567 (1)
0x560|                  00                           |      .         |                  n: 0 (valid) 0x566-0x567 (1)
     |                                               |                |                  x[0:0]: 0x567-0x567 (0)
     |                                               |                |                e[0:3]: 0x567-0x56b (4)
     |                                               |                |                  [0]{}: in 0x567-0x569 (2)
0x560|                     23                        |       #        |                    opcode: "global.get" (0x23) 0x567-0x568 (1)
0x560|                        06                     |        .       |                    x: 6 (valid) 0x568-0x569 (1)
     |                                               |                |                  [1]{}: in 0x569-0x56a (1)
0x560|                           45                  |         E      |                    opcode: "32.eqz" (0x45) 0x569-0x56a (1)
     |                                               |                |                  [2]{}: in 0x56a-0x56b (1)
0x560|                              0b               |          .     |                    opcode: "end" (0xb) 0x56a-0x56b (1)
     |                                               |                |            [48]{}: code 0x56b-0x573 (8)
0x560|                                 07            |           .    |              size: 7 (valid) 0x56b-0x56c (1)
     |                                               |                |              code{}: 0x56c-0x573 (7)
     |                                               |                |                t{}: 0x56c-0x56d (1)
0x560|                                    00         |            .   |                  n: 0 (valid) 0x56c-0x56d (1)
     |                                               |                |                  x[0:0]: 0x56d-0x56d (0)
     |                                               |                |                e[0:4]: 0x56d-0x573 (6)
     |                                               |                |                  [0]{}: in 0x56d-0x56f (2)
0x560|                                       23      |             #  |                    opcode: "global.get" (0x23) 0x56d-0x56e (1)
0x560|                                          06   |              . |                    x: 6 (valid) 0x56e-0x56f (1)
     |                                               |                |                  [1]{}: in 0x56f-0x571 (2)
0x560|                                             23|               #|                    opcode: "global.get" (0x23) 0x56f-0x570 (1)
0x570|06                                             |.               |                    x: 6 (valid) 0x570-0x571 (1)
     |                                               |                |                  [2]{}: in 0x571-0x572 (1)
0x570|   6c                                          | l              |                    opcode: "i32.mul" (0x6c) 0x571-0x572 (1)
     |                                               |                |                  [3]{}: in 0x572-0x573 (1)
0x570|      0b                                       |  .             |                    opcode: "end" (0xb) 0x572-0x573 (1)
     |                                               |                |            [49]{}: code 0x573-0x57b (8)
0x570|         07                                    |   .            |              size: 7 (valid) 0x573-0x574 (1)
     |                                               |                |              code{}: 0x574-0x57b (7)
     |                                               |                |                t{}: 0x574-0x575 (1)
0x570|            00                                 |    .           |                  n: 0 (valid) 0x574-0x575 (1)
     |                                               |                |                  x[0:0]: 0x575-0x575 (0)
     |                                               |                |                e[0:4]: 0x575-0x57b (6)
     |                                               |                |                  [0]{}: in 0x575-0x577 (2)
0x570|               23                              |     #          |                    opcode: "global.get" (0x23) 0x575-0x576 (1)
0x570|                  00                           |      .         |                    x: 0 (valid) 0x576-0x577 (1)
     |                                               |                |                  [1]{}: in 0x577-0x579 (2)
0x570|                     41                        |       A        |                    opcode: "i32.const" (0x41) 0x577-0x578 (1)
0x570|                        01                     |        .       |                    n: 1 (valid) 0x578-0x579 (1)
     |                                               |                |                  [2]{}: in 0x579-0x57a (1)
0x570|                           4b                  |         K      |                    opcode: "i32.gt_u" (0x4b) 0x579-0x57a (1)
     |                                               |                |                  [3]{}: in 0x57a-0x57b (1)
0x570|                              0b|              |          .|    |                    opcode: "end" (0xb) 0x57a-0x57b (1)
