$ fq -d wasm dv global-3.wasm
    |00 01 02 03 04 05 06 07 08 09 0a 0b 0c 0d 0e 0f|0123456789abcdef|.{}: global-3.wasm (wasm) 0x0-0x22 (34)
0x00|00 61 73 6d                                    |.asm            |  magic: raw bits (valid) 0x0-0x4 (4)
0x00|            01 00 00 00                        |    ....        |  version: 1 0x4-0x8 (4)
    |                                               |                |  sections[0:1]: 0x8-0x22 (26)
    |                                               |                |    [0]{}: section 0x8-0x22 (26)
0x00|                        02                     |        .       |      id: "import_section" (2) 0x8-0x9 (1)
0x00|                           18                  |         .      |      size: 24 (valid) 0x9-0xa (1)
    |                                               |                |      content{}: 0xa-0x22 (24)
    |                                               |                |        im{}: 0xa-0x22 (24)
0x00|                              01               |          .     |          n: 1 (valid) 0xa-0xb (1)
    |                                               |                |          x[0:1]: 0xb-0x22 (23)
    |                                               |                |            [0]{}: im 0xb-0x22 (23)
    |                                               |                |              mod{}: 0xb-0x14 (9)
0x00|                                 08            |           .    |                n: 8 (valid) 0xb-0xc (1)
0x00|                                    73 70 65 63|            spec|                b: "spectest" 0xc-0x14 (8)
0x10|74 65 73 74                                    |test            |
    |                                               |                |              nm{}: 0x14-0x1f (11)
0x10|            0a                                 |    .           |                n: 10 (valid) 0x14-0x15 (1)
0x10|               67 6c 6f 62 61 6c 5f 69 33 32   |     global_i32 |                b: "global_i32" 0x15-0x1f (10)
    |                                               |                |              d{}: 0x1f-0x22 (3)
0x10|                                             03|               .|                tag: "global" (0x3) 0x1f-0x20 (1)
    |                                               |                |                gt{}: 0x20-0x22 (2)
0x20|7f                                             |.               |                  t: "i32" (0x7f) 0x20-0x21 (1)
0x20|   00|                                         | .|             |                  m: "const" (0) 0x21-0x22 (1)
