$ fq -d wasm dv global-1.wasm
    |00 01 02 03 04 05 06 07 08 09 0a 0b 0c 0d 0e 0f|0123456789abcdef|.{}: global-1.wasm (wasm) 0x0-0x1a (26)
0x00|00 61 73 6d                                    |.asm            |  magic: raw bits (valid) 0x0-0x4 (4)
0x00|            01 00 00 00                        |    ....        |  version: 1 0x4-0x8 (4)
    |                                               |                |  sections[0:2]: 0x8-0x1a (18)
    |                                               |                |    [0]{}: section 0x8-0x13 (11)
0x00|                        06                     |        .       |      id: "global_section" (6) 0x8-0x9 (1)
0x00|                           09                  |         .      |      size: 9 (valid) 0x9-0xa (1)
    |                                               |                |      content{}: 0xa-0x13 (9)
    |                                               |                |        glob{}: 0xa-0x13 (9)
0x00|                              01               |          .     |          n: 1 (valid) 0xa-0xb (1)
    |                                               |                |          x[0:1]: 0xb-0x13 (8)
    |                                               |                |            [0]{}: glob 0xb-0x13 (8)
    |                                               |                |              gt{}: 0xb-0xd (2)
0x00|                                 7d            |           }    |                t: "f32" (0x7d) 0xb-0xc (1)
0x00|                                    01         |            .   |                m: "var" (1) 0xc-0xd (1)
    |                                               |                |              e[0:2]: 0xd-0x13 (6)
    |                                               |                |                [0]{}: in 0xd-0x12 (5)
0x00|                                       43      |             C  |                  opcode: "f32.const" (0x43) 0xd-0xe (1)
0x00|                                          00 00|              ..|                  z: 0 0xe-0x12 (4)
0x10|00 00                                          |..              |
    |                                               |                |                [1]{}: in 0x12-0x13 (1)
0x10|      0b                                       |  .             |                  opcode: "end" (0xb) 0x12-0x13 (1)
    |                                               |                |    [1]{}: section 0x13-0x1a (7)
0x10|         07                                    |   .            |      id: "export_section" (7) 0x13-0x14 (1)
0x10|            05                                 |    .           |      size: 5 (valid) 0x14-0x15 (1)
    |                                               |                |      content{}: 0x15-0x1a (5)
    |                                               |                |        ex{}: 0x15-0x1a (5)
0x10|               01                              |     .          |          n: 1 (valid) 0x15-0x16 (1)
    |                                               |                |          x[0:1]: 0x16-0x1a (4)
    |                                               |                |            [0]{}: ex 0x16-0x1a (4)
    |                                               |                |              nm{}: 0x16-0x18 (2)
0x10|                  01                           |      .         |                n: 1 (valid) 0x16-0x17 (1)
0x10|                     61                        |       a        |                b: "a" 0x17-0x18 (1)
    |                                               |                |              d{}: 0x18-0x1a (2)
0x10|                        03                     |        .       |                tag: "globalidx" (0x3) 0x18-0x19 (1)
0x10|                           00|                 |         .|     |                x: 0 (valid) 0x19-0x1a (1)
