$ fq -d wasm dv global-0.wasm
     |00 01 02 03 04 05 06 07 08 09 0a 0b 0c 0d 0e 0f|0123456789abcdef|.{}: global-0.wasm (wasm) 0x0-0x57a.7 (1403)
0x000|00 61 73 6d                                    |.asm            |  magic: raw bits (valid) 0x0-0x3.7 (4)
0x000|            01 00 00 00                        |    ....        |  version: 1 0x4-0x7.7 (4)
     |                                               |                |  sections[0:9]: 0x8-0x57a.7 (1395)
     |                                               |                |    [0]{}: section 0x8-0x40.7 (57)
0x000|                        01                     |        .       |      id: "type section" (1) 0x8-0x8.7 (1)
0x000|                           37                  |         7      |      size: 55 0x9-0x9.7 (1)
     |                                               |                |      content{}: 0xa-0x40.7 (55)
     |                                               |                |        ft{}: 0xa-0x40.7 (55)
0x000|                              0d               |          .     |          n: 13 0xa-0xa.7 (1)
     |                                               |                |          x[0:13]: 0xb-0x40.7 (54)
     |                                               |                |            [0]{}: ft 0xb-0x10.7 (6)
0x000|                                 60            |           `    |              tag: 0x60 (valid) 0xb-0xb.7 (1)
     |                                               |                |              rt1{}: 0xc-0xe.7 (3)
0x000|                                    02         |            .   |                n: 2 0xc-0xc.7 (1)
     |                                               |                |                x[0:2]: 0xd-0xe.7 (2)
0x000|                                       7f      |             .  |                  [0]: "i32" (0x7f) t 0xd-0xd.7 (1)
0x000|                                          7f   |              . |                  [1]: "i32" (0x7f) t 0xe-0xe.7 (1)
     |                                               |                |              rt2{}: 0xf-0x10.7 (2)
0x000|                                             01|               .|                n: 1 0xf-0xf.7 (1)
     |                                               |                |                x[0:1]: 0x10-0x10.7 (1)
0x010|7f                                             |.               |                  [0]: "i32" (0x7f) t 0x10-0x10.7 (1)
     |                                               |                |            [1]{}: ft 0x11-0x14.7 (4)
0x010|   60                                          | `              |              tag: 0x60 (valid) 0x11-0x11.7 (1)
     |                                               |                |              rt1{}: 0x12-0x12.7 (1)
0x010|      00                                       |  .             |                n: 0 0x12-0x12.7 (1)
     |                                               |                |                x[0:0]: 0x13-NA (0)
     |                                               |                |              rt2{}: 0x13-0x14.7 (2)
0x010|         01                                    |   .            |                n: 1 0x13-0x13.7 (1)
     |                                               |                |                x[0:1]: 0x14-0x14.7 (1)
0x010|            7f                                 |    .           |                  [0]: "i32" (0x7f) t 0x14-0x14.7 (1)
     |                                               |                |            [2]{}: ft 0x15-0x18.7 (4)
0x010|               60                              |     `          |              tag: 0x60 (valid) 0x15-0x15.7 (1)
     |                                               |                |              rt1{}: 0x16-0x16.7 (1)
0x010|                  00                           |      .         |                n: 0 0x16-0x16.7 (1)
     |                                               |                |                x[0:0]: 0x17-NA (0)
     |                                               |                |              rt2{}: 0x17-0x18.7 (2)
0x010|                     01                        |       .        |                n: 1 0x17-0x17.7 (1)
     |                                               |                |                x[0:1]: 0x18-0x18.7 (1)
0x010|                        7e                     |        ~       |                  [0]: "i64" (0x7e) t 0x18-0x18.7 (1)
     |                                               |                |            [3]{}: ft 0x19-0x1c.7 (4)
0x010|                           60                  |         `      |              tag: 0x60 (valid) 0x19-0x19.7 (1)
     |                                               |                |              rt1{}: 0x1a-0x1a.7 (1)
0x010|                              00               |          .     |                n: 0 0x1a-0x1a.7 (1)
     |                                               |                |                x[0:0]: 0x1b-NA (0)
     |                                               |                |              rt2{}: 0x1b-0x1c.7 (2)
0x010|                                 01            |           .    |                n: 1 0x1b-0x1b.7 (1)
     |                                               |                |                x[0:1]: 0x1c-0x1c.7 (1)
0x010|                                    6f         |            o   |                  [0]: "externref" (0x6f) t 0x1c-0x1c.7 (1)
     |                                               |                |            [4]{}: ft 0x1d-0x20.7 (4)
0x010|                                       60      |             `  |              tag: 0x60 (valid) 0x1d-0x1d.7 (1)
     |                                               |                |              rt1{}: 0x1e-0x1f.7 (2)
0x010|                                          01   |              . |                n: 1 0x1e-0x1e.7 (1)
     |                                               |                |                x[0:1]: 0x1f-0x1f.7 (1)
0x010|                                             7f|               .|                  [0]: "i32" (0x7f) t 0x1f-0x1f.7 (1)
     |                                               |                |              rt2{}: 0x20-0x20.7 (1)
0x020|00                                             |.               |                n: 0 0x20-0x20.7 (1)
     |                                               |                |                x[0:0]: 0x21-NA (0)
     |                                               |                |            [5]{}: ft 0x21-0x24.7 (4)
0x020|   60                                          | `              |              tag: 0x60 (valid) 0x21-0x21.7 (1)
     |                                               |                |              rt1{}: 0x22-0x23.7 (2)
0x020|      01                                       |  .             |                n: 1 0x22-0x22.7 (1)
     |                                               |                |                x[0:1]: 0x23-0x23.7 (1)
0x020|         7e                                    |   ~            |                  [0]: "i64" (0x7e) t 0x23-0x23.7 (1)
     |                                               |                |              rt2{}: 0x24-0x24.7 (1)
0x020|            00                                 |    .           |                n: 0 0x24-0x24.7 (1)
     |                                               |                |                x[0:0]: 0x25-NA (0)
     |                                               |                |            [6]{}: ft 0x25-0x28.7 (4)
0x020|               60                              |     `          |              tag: 0x60 (valid) 0x25-0x25.7 (1)
     |                                               |                |              rt1{}: 0x26-0x27.7 (2)
0x020|                  01                           |      .         |                n: 1 0x26-0x26.7 (1)
     |                                               |                |                x[0:1]: 0x27-0x27.7 (1)
0x020|                     6f                        |       o        |                  [0]: "externref" (0x6f) t 0x27-0x27.7 (1)
     |                                               |                |              rt2{}: 0x28-0x28.7 (1)
0x020|                        00                     |        .       |                n: 0 0x28-0x28.7 (1)
     |                                               |                |                x[0:0]: 0x29-NA (0)
     |                                               |                |            [7]{}: ft 0x29-0x2c.7 (4)
0x020|                           60                  |         `      |              tag: 0x60 (valid) 0x29-0x29.7 (1)
     |                                               |                |              rt1{}: 0x2a-0x2a.7 (1)
0x020|                              00               |          .     |                n: 0 0x2a-0x2a.7 (1)
     |                                               |                |                x[0:0]: 0x2b-NA (0)
     |                                               |                |              rt2{}: 0x2b-0x2c.7 (2)
0x020|                                 01            |           .    |                n: 1 0x2b-0x2b.7 (1)
     |                                               |                |                x[0:1]: 0x2c-0x2c.7 (1)
0x020|                                    7d         |            }   |                  [0]: "f32" (0x7d) t 0x2c-0x2c.7 (1)
     |                                               |                |            [8]{}: ft 0x2d-0x30.7 (4)
0x020|                                       60      |             `  |              tag: 0x60 (valid) 0x2d-0x2d.7 (1)
     |                                               |                |              rt1{}: 0x2e-0x2e.7 (1)
0x020|                                          00   |              . |                n: 0 0x2e-0x2e.7 (1)
     |                                               |                |                x[0:0]: 0x2f-NA (0)
     |                                               |                |              rt2{}: 0x2f-0x30.7 (2)
0x020|                                             01|               .|                n: 1 0x2f-0x2f.7 (1)
     |                                               |                |                x[0:1]: 0x30-0x30.7 (1)
0x030|7c                                             ||               |                  [0]: "f64" (0x7c) t 0x30-0x30.7 (1)
     |                                               |                |            [9]{}: ft 0x31-0x34.7 (4)
0x030|   60                                          | `              |              tag: 0x60 (valid) 0x31-0x31.7 (1)
     |                                               |                |              rt1{}: 0x32-0x33.7 (2)
0x030|      01                                       |  .             |                n: 1 0x32-0x32.7 (1)
     |                                               |                |                x[0:1]: 0x33-0x33.7 (1)
0x030|         7d                                    |   }            |                  [0]: "f32" (0x7d) t 0x33-0x33.7 (1)
     |                                               |                |              rt2{}: 0x34-0x34.7 (1)
0x030|            00                                 |    .           |                n: 0 0x34-0x34.7 (1)
     |                                               |                |                x[0:0]: 0x35-NA (0)
     |                                               |                |            [10]{}: ft 0x35-0x38.7 (4)
0x030|               60                              |     `          |              tag: 0x60 (valid) 0x35-0x35.7 (1)
     |                                               |                |              rt1{}: 0x36-0x37.7 (2)
0x030|                  01                           |      .         |                n: 1 0x36-0x36.7 (1)
     |                                               |                |                x[0:1]: 0x37-0x37.7 (1)
0x030|                     7c                        |       |        |                  [0]: "f64" (0x7c) t 0x37-0x37.7 (1)
     |                                               |                |              rt2{}: 0x38-0x38.7 (1)
0x030|                        00                     |        .       |                n: 0 0x38-0x38.7 (1)
     |                                               |                |                x[0:0]: 0x39-NA (0)
     |                                               |                |            [11]{}: ft 0x39-0x3b.7 (3)
0x030|                           60                  |         `      |              tag: 0x60 (valid) 0x39-0x39.7 (1)
     |                                               |                |              rt1{}: 0x3a-0x3a.7 (1)
0x030|                              00               |          .     |                n: 0 0x3a-0x3a.7 (1)
     |                                               |                |                x[0:0]: 0x3b-NA (0)
     |                                               |                |              rt2{}: 0x3b-0x3b.7 (1)
0x030|                                 00            |           .    |                n: 0 0x3b-0x3b.7 (1)
     |                                               |                |                x[0:0]: 0x3c-NA (0)
     |                                               |                |            [12]{}: ft 0x3c-0x40.7 (5)
0x030|                                    60         |            `   |              tag: 0x60 (valid) 0x3c-0x3c.7 (1)
     |                                               |                |              rt1{}: 0x3d-0x3e.7 (2)
0x030|                                       01      |             .  |                n: 1 0x3d-0x3d.7 (1)
     |                                               |                |                x[0:1]: 0x3e-0x3e.7 (1)
0x030|                                          7f   |              . |                  [0]: "i32" (0x7f) t 0x3e-0x3e.7 (1)
     |                                               |                |              rt2{}: 0x3f-0x40.7 (2)
0x030|                                             01|               .|                n: 1 0x3f-0x3f.7 (1)
     |                                               |                |                x[0:1]: 0x40-0x40.7 (1)
0x040|7f                                             |.               |                  [0]: "i32" (0x7f) t 0x40-0x40.7 (1)
     |                                               |                |    [1]{}: section 0x41-0x71.7 (49)
0x040|   02                                          | .              |      id: "import section" (2) 0x41-0x41.7 (1)
0x040|      2f                                       |  /             |      size: 47 0x42-0x42.7 (1)
     |                                               |                |      content{}: 0x43-0x71.7 (47)
     |                                               |                |        im{}: 0x43-0x71.7 (47)
0x040|         02                                    |   .            |          n: 2 0x43-0x43.7 (1)
     |                                               |                |          x[0:2]: 0x44-0x71.7 (46)
     |                                               |                |            [0]{}: im 0x44-0x5a.7 (23)
     |                                               |                |              mod{}: 0x44-0x4c.7 (9)
0x040|            08                                 |    .           |                n: 8 0x44-0x44.7 (1)
0x040|               73 70 65 63 74 65 73 74         |     spectest   |                b: "spectest" 0x45-0x4c.7 (8)
     |                                               |                |              nm{}: 0x4d-0x57.7 (11)
0x040|                                       0a      |             .  |                n: 10 0x4d-0x4d.7 (1)
0x040|                                          67 6c|              gl|                b: "global_i32" 0x4e-0x57.7 (10)
0x050|6f 62 61 6c 5f 69 33 32                        |obal_i32        |
     |                                               |                |              d{}: 0x58-0x5a.7 (3)
0x050|                        03                     |        .       |                tag: "global" (0x3) 0x58-0x58.7 (1)
     |                                               |                |                gt{}: 0x59-0x5a.7 (2)
0x050|                           7f                  |         .      |                  t: "i32" (0x7f) 0x59-0x59.7 (1)
0x050|                              00               |          .     |                  m: "const" (0) 0x5a-0x5a.7 (1)
     |                                               |                |            [1]{}: im 0x5b-0x71.7 (23)
     |                                               |                |              mod{}: 0x5b-0x63.7 (9)
0x050|                                 08            |           .    |                n: 8 0x5b-0x5b.7 (1)
0x050|                                    73 70 65 63|            spec|                b: "spectest" 0x5c-0x63.7 (8)
0x060|74 65 73 74                                    |test            |
     |                                               |                |              nm{}: 0x64-0x6e.7 (11)
0x060|            0a                                 |    .           |                n: 10 0x64-0x64.7 (1)
0x060|               67 6c 6f 62 61 6c 5f 69 36 34   |     global_i64 |                b: "global_i64" 0x65-0x6e.7 (10)
     |                                               |                |              d{}: 0x6f-0x71.7 (3)
0x060|                                             03|               .|                tag: "global" (0x3) 0x6f-0x6f.7 (1)
     |                                               |                |                gt{}: 0x70-0x71.7 (2)
0x070|7e                                             |~               |                  t: "i64" (0x7e) 0x70-0x70.7 (1)
0x070|   00                                          | .              |                  m: "const" (0) 0x71-0x71.7 (1)
     |                                               |                |    [2]{}: section 0x72-0xa6.7 (53)
0x070|      03                                       |  .             |      id: "function section" (3) 0x72-0x72.7 (1)
0x070|         33                                    |   3            |      size: 51 0x73-0x73.7 (1)
     |                                               |                |      content{}: 0x74-0xa6.7 (51)
     |                                               |                |        x{}: 0x74-0xa6.7 (51)
0x070|            32                                 |    2           |          n: 50 0x74-0x74.7 (1)
     |                                               |                |          x[0:50]: 0x75-0xa6.7 (50)
0x070|               01                              |     .          |            [0]: 1 x 0x75-0x75.7 (1)
0x070|                  02                           |      .         |            [1]: 2 x 0x76-0x76.7 (1)
0x070|                     03                        |       .        |            [2]: 3 x 0x77-0x77.7 (1)
0x070|                        03                     |        .       |            [3]: 3 x 0x78-0x78.7 (1)
0x070|                           01                  |         .      |            [4]: 1 x 0x79-0x79.7 (1)
0x070|                              02               |          .     |            [5]: 2 x 0x7a-0x7a.7 (1)
0x070|                                 01            |           .    |            [6]: 1 x 0x7b-0x7b.7 (1)
0x070|                                    02         |            .   |            [7]: 2 x 0x7c-0x7c.7 (1)
0x070|                                       04      |             .  |            [8]: 4 x 0x7d-0x7d.7 (1)
0x070|                                          05   |              . |            [9]: 5 x 0x7e-0x7e.7 (1)
0x070|                                             06|               .|            [10]: 6 x 0x7f-0x7f.7 (1)
0x080|07                                             |.               |            [11]: 7 x 0x80-0x80.7 (1)
0x080|   08                                          | .              |            [12]: 8 x 0x81-0x81.7 (1)
0x080|      07                                       |  .             |            [13]: 7 x 0x82-0x82.7 (1)
0x080|         08                                    |   .            |            [14]: 8 x 0x83-0x83.7 (1)
0x080|            09                                 |    .           |            [15]: 9 x 0x84-0x84.7 (1)
0x080|               0a                              |     .          |            [16]: 10 x 0x85-0x85.7 (1)
0x080|                  0b                           |      .         |            [17]: 11 x 0x86-0x86.7 (1)
0x080|                     01                        |       .        |            [18]: 1 x 0x87-0x87.7 (1)
0x080|                        01                     |        .       |            [19]: 1 x 0x88-0x88.7 (1)
0x080|                           01                  |         .      |            [20]: 1 x 0x89-0x89.7 (1)
0x080|                              01               |          .     |            [21]: 1 x 0x8a-0x8a.7 (1)
0x080|                                 01            |           .    |            [22]: 1 x 0x8b-0x8b.7 (1)
0x080|                                    01         |            .   |            [23]: 1 x 0x8c-0x8c.7 (1)
0x080|                                       01      |             .  |            [24]: 1 x 0x8d-0x8d.7 (1)
0x080|                                          01   |              . |            [25]: 1 x 0x8e-0x8e.7 (1)
0x080|                                             01|               .|            [26]: 1 x 0x8f-0x8f.7 (1)
0x090|01                                             |.               |            [27]: 1 x 0x90-0x90.7 (1)
0x090|   01                                          | .              |            [28]: 1 x 0x91-0x91.7 (1)
0x090|      01                                       |  .             |            [29]: 1 x 0x92-0x92.7 (1)
0x090|         01                                    |   .            |            [30]: 1 x 0x93-0x93.7 (1)
0x090|            00                                 |    .           |            [31]: 0 x 0x94-0x94.7 (1)
0x090|               01                              |     .          |            [32]: 1 x 0x95-0x95.7 (1)
0x090|                  01                           |      .         |            [33]: 1 x 0x96-0x96.7 (1)
0x090|                     01                        |       .        |            [34]: 1 x 0x97-0x97.7 (1)
0x090|                        0b                     |        .       |            [35]: 11 x 0x98-0x98.7 (1)
0x090|                           0b                  |         .      |            [36]: 11 x 0x99-0x99.7 (1)
0x090|                              01               |          .     |            [37]: 1 x 0x9a-0x9a.7 (1)
0x090|                                 01            |           .    |            [38]: 1 x 0x9b-0x9b.7 (1)
0x090|                                    0c         |            .   |            [39]: 12 x 0x9c-0x9c.7 (1)
0x090|                                       01      |             .  |            [40]: 1 x 0x9d-0x9d.7 (1)
0x090|                                          01   |              . |            [41]: 1 x 0x9e-0x9e.7 (1)
0x090|                                             0b|               .|            [42]: 11 x 0x9f-0x9f.7 (1)
0x0a0|01                                             |.               |            [43]: 1 x 0xa0-0xa0.7 (1)
0x0a0|   0c                                          | .              |            [44]: 12 x 0xa1-0xa1.7 (1)
0x0a0|      0c                                       |  .             |            [45]: 12 x 0xa2-0xa2.7 (1)
0x0a0|         01                                    |   .            |            [46]: 1 x 0xa3-0xa3.7 (1)
0x0a0|            01                                 |    .           |            [47]: 1 x 0xa4-0xa4.7 (1)
0x0a0|               01                              |     .          |            [48]: 1 x 0xa5-0xa5.7 (1)
0x0a0|                  01                           |      .         |            [49]: 1 x 0xa6-0xa6.7 (1)
     |                                               |                |    [3]{}: section 0xa7-0xad.7 (7)
0x0a0|                     04                        |       .        |      id: "table section" (4) 0xa7-0xa7.7 (1)
0x0a0|                        05                     |        .       |      size: 5 0xa8-0xa8.7 (1)
     |                                               |                |      content{}: 0xa9-0xad.7 (5)
     |                                               |                |        tab{}: 0xa9-0xad.7 (5)
0x0a0|                           01                  |         .      |          n: 1 0xa9-0xa9.7 (1)
     |                                               |                |          x[0:1]: 0xaa-0xad.7 (4)
     |                                               |                |            [0]{}: tab 0xaa-0xad.7 (4)
0x0a0|                              70               |          p     |              et: "funcref" (112) 0xaa-0xaa.7 (1)
     |                                               |                |              lim{}: 0xab-0xad.7 (3)
0x0a0|                                 01            |           .    |                tag: 0x1 0xab-0xab.7 (1)
0x0a0|                                    01         |            .   |                n: 1 0xac-0xac.7 (1)
0x0a0|                                       01      |             .  |                m: 1 0xad-0xad.7 (1)
     |                                               |                |    [4]{}: section 0xae-0xb2.7 (5)
0x0a0|                                          05   |              . |      id: "memory section" (5) 0xae-0xae.7 (1)
0x0a0|                                             03|               .|      size: 3 0xaf-0xaf.7 (1)
     |                                               |                |      content{}: 0xb0-0xb2.7 (3)
     |                                               |                |        mem{}: 0xb0-0xb2.7 (3)
0x0b0|01                                             |.               |          n: 1 0xb0-0xb0.7 (1)
     |                                               |                |          x[0:1]: 0xb1-0xb2.7 (2)
     |                                               |                |            [0]{}: mem 0xb1-0xb2.7 (2)
     |                                               |                |              lim{}: 0xb1-0xb2.7 (2)
0x0b0|   00                                          | .              |                tag: 0x0 0xb1-0xb1.7 (1)
0x0b0|      01                                       |  .             |                n: 1 0xb2-0xb2.7 (1)
     |                                               |                |    [5]{}: section 0xb3-0x10a.7 (88)
0x0b0|         06                                    |   .            |      id: "global section" (6) 0xb3-0xb3.7 (1)
0x0b0|            56                                 |    V           |      size: 86 0xb4-0xb4.7 (1)
     |                                               |                |      content{}: 0xb5-0x10a.7 (86)
     |                                               |                |        glob{}: 0xb5-0x10a.7 (86)
0x0b0|               0d                              |     .          |          n: 13 0xb5-0xb5.7 (1)
     |                                               |                |          x[0:13]: 0xb6-0x10a.7 (85)
     |                                               |                |            [0]{}: glob 0xb6-0xba.7 (5)
     |                                               |                |              gt{}: 0xb6-0xb7.7 (2)
0x0b0|                  7f                           |      .         |                t: "i32" (0x7f) 0xb6-0xb6.7 (1)
0x0b0|                     00                        |       .        |                m: "const" (0) 0xb7-0xb7.7 (1)
     |                                               |                |              e[0:2]: 0xb8-0xba.7 (3)
     |                                               |                |                [0]{}: in 0xb8-0xb9.7 (2)
0x0b0|                        41                     |        A       |                  i32.const: 0x41 (valid) 0xb8-0xb8.7 (1)
0x0b0|                           7e                  |         ~      |                  n: -2 0xb9-0xb9.7 (1)
     |                                               |                |                [1]{}: in 0xba-0xba.7 (1)
0x0b0|                              0b               |          .     |                  end: 0xb (valid) 0xba-0xba.7 (1)
     |                                               |                |            [1]{}: glob 0xbb-0xc2.7 (8)
     |                                               |                |              gt{}: 0xbb-0xbc.7 (2)
0x0b0|                                 7d            |           }    |                t: "f32" (0x7d) 0xbb-0xbb.7 (1)
0x0b0|                                    00         |            .   |                m: "const" (0) 0xbc-0xbc.7 (1)
     |                                               |                |              e[0:2]: 0xbd-0xc2.7 (6)
     |                                               |                |                [0]{}: in 0xbd-0xc1.7 (5)
0x0b0|                                       43      |             C  |                  f32.const: 0x43 (valid) 0xbd-0xbd.7 (1)
0x0b0|                                          00 00|              ..|                  z: -3 0xbe-0xc1.7 (4)
0x0c0|40 c0                                          |@.              |
     |                                               |                |                [1]{}: in 0xc2-0xc2.7 (1)
0x0c0|      0b                                       |  .             |                  end: 0xb (valid) 0xc2-0xc2.7 (1)
     |                                               |                |            [2]{}: glob 0xc3-0xce.7 (12)
     |                                               |                |              gt{}: 0xc3-0xc4.7 (2)
0x0c0|         7c                                    |   |            |                t: "f64" (0x7c) 0xc3-0xc3.7 (1)
0x0c0|            00                                 |    .           |                m: "const" (0) 0xc4-0xc4.7 (1)
     |                                               |                |              e[0:2]: 0xc5-0xce.7 (10)
     |                                               |                |                [0]{}: in 0xc5-0xcd.7 (9)
0x0c0|               44                              |     D          |                  f64.const: 0x44 (valid) 0xc5-0xc5.7 (1)
0x0c0|                  00 00 00 00 00 00 10 c0      |      ........  |                  z: -4 0xc6-0xcd.7 (8)
     |                                               |                |                [1]{}: in 0xce-0xce.7 (1)
0x0c0|                                          0b   |              . |                  end: 0xb (valid) 0xce-0xce.7 (1)
     |                                               |                |            [3]{}: glob 0xcf-0xd3.7 (5)
     |                                               |                |              gt{}: 0xcf-0xd0.7 (2)
0x0c0|                                             7e|               ~|                t: "i64" (0x7e) 0xcf-0xcf.7 (1)
0x0d0|00                                             |.               |                m: "const" (0) 0xd0-0xd0.7 (1)
     |                                               |                |              e[0:2]: 0xd1-0xd3.7 (3)
     |                                               |                |                [0]{}: in 0xd1-0xd2.7 (2)
0x0d0|   42                                          | B              |                  i64.const: 0x42 (valid) 0xd1-0xd1.7 (1)
0x0d0|      7b                                       |  {             |                  n: -5 0xd2-0xd2.7 (1)
     |                                               |                |                [1]{}: in 0xd3-0xd3.7 (1)
0x0d0|         0b                                    |   .            |                  end: 0xb (valid) 0xd3-0xd3.7 (1)
     |                                               |                |            [4]{}: glob 0xd4-0xd8.7 (5)
     |                                               |                |              gt{}: 0xd4-0xd5.7 (2)
0x0d0|            7f                                 |    .           |                t: "i32" (0x7f) 0xd4-0xd4.7 (1)
0x0d0|               01                              |     .          |                m: "var" (1) 0xd5-0xd5.7 (1)
     |                                               |                |              e[0:2]: 0xd6-0xd8.7 (3)
     |                                               |                |                [0]{}: in 0xd6-0xd7.7 (2)
0x0d0|                  41                           |      A         |                  i32.const: 0x41 (valid) 0xd6-0xd6.7 (1)
0x0d0|                     74                        |       t        |                  n: -12 0xd7-0xd7.7 (1)
     |                                               |                |                [1]{}: in 0xd8-0xd8.7 (1)
0x0d0|                        0b                     |        .       |                  end: 0xb (valid) 0xd8-0xd8.7 (1)
     |                                               |                |            [5]{}: glob 0xd9-0xe0.7 (8)
     |                                               |                |              gt{}: 0xd9-0xda.7 (2)
0x0d0|                           7d                  |         }      |                t: "f32" (0x7d) 0xd9-0xd9.7 (1)
0x0d0|                              01               |          .     |                m: "var" (1) 0xda-0xda.7 (1)
     |                                               |                |              e[0:2]: 0xdb-0xe0.7 (6)
     |                                               |                |                [0]{}: in 0xdb-0xdf.7 (5)
0x0d0|                                 43            |           C    |                  f32.const: 0x43 (valid) 0xdb-0xdb.7 (1)
0x0d0|                                    00 00 50 c1|            ..P.|                  z: -13 0xdc-0xdf.7 (4)
     |                                               |                |                [1]{}: in 0xe0-0xe0.7 (1)
0x0e0|0b                                             |.               |                  end: 0xb (valid) 0xe0-0xe0.7 (1)
     |                                               |                |            [6]{}: glob 0xe1-0xec.7 (12)
     |                                               |                |              gt{}: 0xe1-0xe2.7 (2)
0x0e0|   7c                                          | |              |                t: "f64" (0x7c) 0xe1-0xe1.7 (1)
0x0e0|      01                                       |  .             |                m: "var" (1) 0xe2-0xe2.7 (1)
     |                                               |                |              e[0:2]: 0xe3-0xec.7 (10)
     |                                               |                |                [0]{}: in 0xe3-0xeb.7 (9)
0x0e0|         44                                    |   D            |                  f64.const: 0x44 (valid) 0xe3-0xe3.7 (1)
0x0e0|            00 00 00 00 00 00 2c c0            |    ......,.    |                  z: -14 0xe4-0xeb.7 (8)
     |                                               |                |                [1]{}: in 0xec-0xec.7 (1)
0x0e0|                                    0b         |            .   |                  end: 0xb (valid) 0xec-0xec.7 (1)
     |                                               |                |            [7]{}: glob 0xed-0xf1.7 (5)
     |                                               |                |              gt{}: 0xed-0xee.7 (2)
0x0e0|                                       7e      |             ~  |                t: "i64" (0x7e) 0xed-0xed.7 (1)
0x0e0|                                          01   |              . |                m: "var" (1) 0xee-0xee.7 (1)
     |                                               |                |              e[0:2]: 0xef-0xf1.7 (3)
     |                                               |                |                [0]{}: in 0xef-0xf0.7 (2)
0x0e0|                                             42|               B|                  i64.const: 0x42 (valid) 0xef-0xef.7 (1)
0x0f0|71                                             |q               |                  n: -15 0xf0-0xf0.7 (1)
     |                                               |                |                [1]{}: in 0xf1-0xf1.7 (1)
0x0f0|   0b                                          | .              |                  end: 0xb (valid) 0xf1-0xf1.7 (1)
     |                                               |                |            [8]{}: glob 0xf2-0xf6.7 (5)
     |                                               |                |              gt{}: 0xf2-0xf3.7 (2)
0x0f0|      7f                                       |  .             |                t: "i32" (0x7f) 0xf2-0xf2.7 (1)
0x0f0|         00                                    |   .            |                m: "const" (0) 0xf3-0xf3.7 (1)
     |                                               |                |              e[0:2]: 0xf4-0xf6.7 (3)
     |                                               |                |                [0]{}: in 0xf4-0xf5.7 (2)
0x0f0|            23                                 |    #           |                  global.get: 0x23 (valid) 0xf4-0xf4.7 (1)
0x0f0|               00                              |     .          |                  x: 0 0xf5-0xf5.7 (1)
     |                                               |                |                [1]{}: in 0xf6-0xf6.7 (1)
0x0f0|                  0b                           |      .         |                  end: 0xb (valid) 0xf6-0xf6.7 (1)
     |                                               |                |            [9]{}: glob 0xf7-0xfb.7 (5)
     |                                               |                |              gt{}: 0xf7-0xf8.7 (2)
0x0f0|                     7e                        |       ~        |                t: "i64" (0x7e) 0xf7-0xf7.7 (1)
0x0f0|                        00                     |        .       |                m: "const" (0) 0xf8-0xf8.7 (1)
     |                                               |                |              e[0:2]: 0xf9-0xfb.7 (3)
     |                                               |                |                [0]{}: in 0xf9-0xfa.7 (2)
0x0f0|                           23                  |         #      |                  global.get: 0x23 (valid) 0xf9-0xf9.7 (1)
0x0f0|                              01               |          .     |                  x: 1 0xfa-0xfa.7 (1)
     |                                               |                |                [1]{}: in 0xfb-0xfb.7 (1)
0x0f0|                                 0b            |           .    |                  end: 0xb (valid) 0xfb-0xfb.7 (1)
     |                                               |                |            [10]{}: glob 0xfc-0x100.7 (5)
     |                                               |                |              gt{}: 0xfc-0xfd.7 (2)
0x0f0|                                    6f         |            o   |                t: "externref" (0x6f) 0xfc-0xfc.7 (1)
0x0f0|                                       00      |             .  |                m: "const" (0) 0xfd-0xfd.7 (1)
     |                                               |                |              e[0:2]: 0xfe-0x100.7 (3)
     |                                               |                |                [0]{}: in 0xfe-0xff.7 (2)
0x0f0|                                          d0   |              . |                  ref.null: 0xd0 (valid) 0xfe-0xfe.7 (1)
0x0f0|                                             6f|               o|                  t: "externref" (111) 0xff-0xff.7 (1)
     |                                               |                |                [1]{}: in 0x100-0x100.7 (1)
0x100|0b                                             |.               |                  end: 0xb (valid) 0x100-0x100.7 (1)
     |                                               |                |            [11]{}: glob 0x101-0x105.7 (5)
     |                                               |                |              gt{}: 0x101-0x102.7 (2)
0x100|   6f                                          | o              |                t: "externref" (0x6f) 0x101-0x101.7 (1)
0x100|      01                                       |  .             |                m: "var" (1) 0x102-0x102.7 (1)
     |                                               |                |              e[0:2]: 0x103-0x105.7 (3)
     |                                               |                |                [0]{}: in 0x103-0x104.7 (2)
0x100|         d0                                    |   .            |                  ref.null: 0xd0 (valid) 0x103-0x103.7 (1)
0x100|            6f                                 |    o           |                  t: "externref" (111) 0x104-0x104.7 (1)
     |                                               |                |                [1]{}: in 0x105-0x105.7 (1)
0x100|               0b                              |     .          |                  end: 0xb (valid) 0x105-0x105.7 (1)
     |                                               |                |            [12]{}: glob 0x106-0x10a.7 (5)
     |                                               |                |              gt{}: 0x106-0x107.7 (2)
0x100|                  70                           |      p         |                t: "funcref" (0x70) 0x106-0x106.7 (1)
0x100|                     00                        |       .        |                m: "const" (0) 0x107-0x107.7 (1)
     |                                               |                |              e[0:2]: 0x108-0x10a.7 (3)
     |                                               |                |                [0]{}: in 0x108-0x109.7 (2)
0x100|                        d0                     |        .       |                  ref.null: 0xd0 (valid) 0x108-0x108.7 (1)
0x100|                           70                  |         p      |                  t: "funcref" (112) 0x109-0x109.7 (1)
     |                                               |                |                [1]{}: in 0x10a-0x10a.7 (1)
0x100|                              0b               |          .     |                  end: 0xb (valid) 0x10a-0x10a.7 (1)
     |                                               |                |    [6]{}: section 0x10b-0x3be.7 (692)
0x100|                                 07            |           .    |      id: "export section" (7) 0x10b-0x10b.7 (1)
0x100|                                    b1 05      |            ..  |      size: 689 0x10c-0x10d.7 (2)
     |                                               |                |      content{}: 0x10e-0x3be.7 (689)
     |                                               |                |        ex{}: 0x10e-0x3be.7 (689)
0x100|                                          2f   |              / |          n: 47 0x10e-0x10e.7 (1)
     |                                               |                |          x[0:47]: 0x10f-0x3be.7 (688)
     |                                               |                |            [0]{}: ex 0x10f-0x116.7 (8)
     |                                               |                |              nm{}: 0x10f-0x114.7 (6)
0x100|                                             05|               .|                n: 5 0x10f-0x10f.7 (1)
0x110|67 65 74 2d 61                                 |get-a           |                b: "get-a" 0x110-0x114.7 (5)
     |                                               |                |              d{}: 0x115-0x116.7 (2)
0x110|               00                              |     .          |                tag: "funcidx" (0x0) 0x115-0x115.7 (1)
0x110|                  00                           |      .         |                x: 0 0x116-0x116.7 (1)
     |                                               |                |            [1]{}: ex 0x117-0x11e.7 (8)
     |                                               |                |              nm{}: 0x117-0x11c.7 (6)
0x110|                     05                        |       .        |                n: 5 0x117-0x117.7 (1)
0x110|                        67 65 74 2d 62         |        get-b   |                b: "get-b" 0x118-0x11c.7 (5)
     |                                               |                |              d{}: 0x11d-0x11e.7 (2)
0x110|                                       00      |             .  |                tag: "funcidx" (0x0) 0x11d-0x11d.7 (1)
0x110|                                          01   |              . |                x: 1 0x11e-0x11e.7 (1)
     |                                               |                |            [2]{}: ex 0x11f-0x126.7 (8)
     |                                               |                |              nm{}: 0x11f-0x124.7 (6)
0x110|                                             05|               .|                n: 5 0x11f-0x11f.7 (1)
0x120|67 65 74 2d 72                                 |get-r           |                b: "get-r" 0x120-0x124.7 (5)
     |                                               |                |              d{}: 0x125-0x126.7 (2)
0x120|               00                              |     .          |                tag: "funcidx" (0x0) 0x125-0x125.7 (1)
0x120|                  02                           |      .         |                x: 2 0x126-0x126.7 (1)
     |                                               |                |            [3]{}: ex 0x127-0x12f.7 (9)
     |                                               |                |              nm{}: 0x127-0x12d.7 (7)
0x120|                     06                        |       .        |                n: 6 0x127-0x127.7 (1)
0x120|                        67 65 74 2d 6d 72      |        get-mr  |                b: "get-mr" 0x128-0x12d.7 (6)
     |                                               |                |              d{}: 0x12e-0x12f.7 (2)
0x120|                                          00   |              . |                tag: "funcidx" (0x0) 0x12e-0x12e.7 (1)
0x120|                                             03|               .|                x: 3 0x12f-0x12f.7 (1)
     |                                               |                |            [4]{}: ex 0x130-0x137.7 (8)
     |                                               |                |              nm{}: 0x130-0x135.7 (6)
0x130|05                                             |.               |                n: 5 0x130-0x130.7 (1)
0x130|   67 65 74 2d 78                              | get-x          |                b: "get-x" 0x131-0x135.7 (5)
     |                                               |                |              d{}: 0x136-0x137.7 (2)
0x130|                  00                           |      .         |                tag: "funcidx" (0x0) 0x136-0x136.7 (1)
0x130|                     04                        |       .        |                x: 4 0x137-0x137.7 (1)
     |                                               |                |            [5]{}: ex 0x138-0x13f.7 (8)
     |                                               |                |              nm{}: 0x138-0x13d.7 (6)
0x130|                        05                     |        .       |                n: 5 0x138-0x138.7 (1)
0x130|                           67 65 74 2d 79      |         get-y  |                b: "get-y" 0x139-0x13d.7 (5)
     |                                               |                |              d{}: 0x13e-0x13f.7 (2)
0x130|                                          00   |              . |                tag: "funcidx" (0x0) 0x13e-0x13e.7 (1)
0x130|                                             05|               .|                x: 5 0x13f-0x13f.7 (1)
     |                                               |                |            [6]{}: ex 0x140-0x148.7 (9)
     |                                               |                |              nm{}: 0x140-0x146.7 (7)
0x140|06                                             |.               |                n: 6 0x140-0x140.7 (1)
0x140|   67 65 74 2d 7a 31                           | get-z1         |                b: "get-z1" 0x141-0x146.7 (6)
     |                                               |                |              d{}: 0x147-0x148.7 (2)
0x140|                     00                        |       .        |                tag: "funcidx" (0x0) 0x147-0x147.7 (1)
0x140|                        06                     |        .       |                x: 6 0x148-0x148.7 (1)
     |                                               |                |            [7]{}: ex 0x149-0x151.7 (9)
     |                                               |                |              nm{}: 0x149-0x14f.7 (7)
0x140|                           06                  |         .      |                n: 6 0x149-0x149.7 (1)
0x140|                              67 65 74 2d 7a 32|          get-z2|                b: "get-z2" 0x14a-0x14f.7 (6)
     |                                               |                |              d{}: 0x150-0x151.7 (2)
0x150|00                                             |.               |                tag: "funcidx" (0x0) 0x150-0x150.7 (1)
0x150|   07                                          | .              |                x: 7 0x151-0x151.7 (1)
     |                                               |                |            [8]{}: ex 0x152-0x159.7 (8)
     |                                               |                |              nm{}: 0x152-0x157.7 (6)
0x150|      05                                       |  .             |                n: 5 0x152-0x152.7 (1)
0x150|         73 65 74 2d 78                        |   set-x        |                b: "set-x" 0x153-0x157.7 (5)
     |                                               |                |              d{}: 0x158-0x159.7 (2)
0x150|                        00                     |        .       |                tag: "funcidx" (0x0) 0x158-0x158.7 (1)
0x150|                           08                  |         .      |                x: 8 0x159-0x159.7 (1)
     |                                               |                |            [9]{}: ex 0x15a-0x161.7 (8)
     |                                               |                |              nm{}: 0x15a-0x15f.7 (6)
0x150|                              05               |          .     |                n: 5 0x15a-0x15a.7 (1)
0x150|                                 73 65 74 2d 79|           set-y|                b: "set-y" 0x15b-0x15f.7 (5)
     |                                               |                |              d{}: 0x160-0x161.7 (2)
0x160|00                                             |.               |                tag: "funcidx" (0x0) 0x160-0x160.7 (1)
0x160|   09                                          | .              |                x: 9 0x161-0x161.7 (1)
     |                                               |                |            [10]{}: ex 0x162-0x16a.7 (9)
     |                                               |                |              nm{}: 0x162-0x168.7 (7)
0x160|      06                                       |  .             |                n: 6 0x162-0x162.7 (1)
0x160|         73 65 74 2d 6d 72                     |   set-mr       |                b: "set-mr" 0x163-0x168.7 (6)
     |                                               |                |              d{}: 0x169-0x16a.7 (2)
0x160|                           00                  |         .      |                tag: "funcidx" (0x0) 0x169-0x169.7 (1)
0x160|                              0a               |          .     |                x: 10 0x16a-0x16a.7 (1)
     |                                               |                |            [11]{}: ex 0x16b-0x172.7 (8)
     |                                               |                |              nm{}: 0x16b-0x170.7 (6)
0x160|                                 05            |           .    |                n: 5 0x16b-0x16b.7 (1)
0x160|                                    67 65 74 2d|            get-|                b: "get-3" 0x16c-0x170.7 (5)
0x170|33                                             |3               |
     |                                               |                |              d{}: 0x171-0x172.7 (2)
0x170|   00                                          | .              |                tag: "funcidx" (0x0) 0x171-0x171.7 (1)
0x170|      0b                                       |  .             |                x: 11 0x172-0x172.7 (1)
     |                                               |                |            [12]{}: ex 0x173-0x17a.7 (8)
     |                                               |                |              nm{}: 0x173-0x178.7 (6)
0x170|         05                                    |   .            |                n: 5 0x173-0x173.7 (1)
0x170|            67 65 74 2d 34                     |    get-4       |                b: "get-4" 0x174-0x178.7 (5)
     |                                               |                |              d{}: 0x179-0x17a.7 (2)
0x170|                           00                  |         .      |                tag: "funcidx" (0x0) 0x179-0x179.7 (1)
0x170|                              0c               |          .     |                x: 12 0x17a-0x17a.7 (1)
     |                                               |                |            [13]{}: ex 0x17b-0x182.7 (8)
     |                                               |                |              nm{}: 0x17b-0x180.7 (6)
0x170|                                 05            |           .    |                n: 5 0x17b-0x17b.7 (1)
0x170|                                    67 65 74 2d|            get-|                b: "get-7" 0x17c-0x180.7 (5)
0x180|37                                             |7               |
     |                                               |                |              d{}: 0x181-0x182.7 (2)
0x180|   00                                          | .              |                tag: "funcidx" (0x0) 0x181-0x181.7 (1)
0x180|      0d                                       |  .             |                x: 13 0x182-0x182.7 (1)
     |                                               |                |            [14]{}: ex 0x183-0x18a.7 (8)
     |                                               |                |              nm{}: 0x183-0x188.7 (6)
0x180|         05                                    |   .            |                n: 5 0x183-0x183.7 (1)
0x180|            67 65 74 2d 38                     |    get-8       |                b: "get-8" 0x184-0x188.7 (5)
     |                                               |                |              d{}: 0x189-0x18a.7 (2)
0x180|                           00                  |         .      |                tag: "funcidx" (0x0) 0x189-0x189.7 (1)
0x180|                              0e               |          .     |                x: 14 0x18a-0x18a.7 (1)
     |                                               |                |            [15]{}: ex 0x18b-0x192.7 (8)
     |                                               |                |              nm{}: 0x18b-0x190.7 (6)
0x180|                                 05            |           .    |                n: 5 0x18b-0x18b.7 (1)
0x180|                                    73 65 74 2d|            set-|                b: "set-7" 0x18c-0x190.7 (5)
0x190|37                                             |7               |
     |                                               |                |              d{}: 0x191-0x192.7 (2)
0x190|   00                                          | .              |                tag: "funcidx" (0x0) 0x191-0x191.7 (1)
0x190|      0f                                       |  .             |                x: 15 0x192-0x192.7 (1)
     |                                               |                |            [16]{}: ex 0x193-0x19a.7 (8)
     |                                               |                |              nm{}: 0x193-0x198.7 (6)
0x190|         05                                    |   .            |                n: 5 0x193-0x193.7 (1)
0x190|            73 65 74 2d 38                     |    set-8       |                b: "set-8" 0x194-0x198.7 (5)
     |                                               |                |              d{}: 0x199-0x19a.7 (2)
0x190|                           00                  |         .      |                tag: "funcidx" (0x0) 0x199-0x199.7 (1)
0x190|                              10               |          .     |                x: 16 0x19a-0x19a.7 (1)
     |                                               |                |            [17]{}: ex 0x19b-0x1ac.7 (18)
     |                                               |                |              nm{}: 0x19b-0x1aa.7 (16)
0x190|                                 0f            |           .    |                n: 15 0x19b-0x19b.7 (1)
0x190|                                    61 73 2d 73|            as-s|                b: "as-select-first" 0x19c-0x1aa.7 (15)
0x1a0|65 6c 65 63 74 2d 66 69 72 73 74               |elect-first     |
     |                                               |                |              d{}: 0x1ab-0x1ac.7 (2)
0x1a0|                                 00            |           .    |                tag: "funcidx" (0x0) 0x1ab-0x1ab.7 (1)
0x1a0|                                    12         |            .   |                x: 18 0x1ac-0x1ac.7 (1)
     |                                               |                |            [18]{}: ex 0x1ad-0x1bc.7 (16)
     |                                               |                |              nm{}: 0x1ad-0x1ba.7 (14)
0x1a0|                                       0d      |             .  |                n: 13 0x1ad-0x1ad.7 (1)
0x1a0|                                          61 73|              as|                b: "as-select-mid" 0x1ae-0x1ba.7 (13)
0x1b0|2d 73 65 6c 65 63 74 2d 6d 69 64               |-select-mid     |
     |                                               |                |              d{}: 0x1bb-0x1bc.7 (2)
0x1b0|                                 00            |           .    |                tag: "funcidx" (0x0) 0x1bb-0x1bb.7 (1)
0x1b0|                                    13         |            .   |                x: 19 0x1bc-0x1bc.7 (1)
     |                                               |                |            [19]{}: ex 0x1bd-0x1cd.7 (17)
     |                                               |                |              nm{}: 0x1bd-0x1cb.7 (15)
0x1b0|                                       0e      |             .  |                n: 14 0x1bd-0x1bd.7 (1)
0x1b0|                                          61 73|              as|                b: "as-select-last" 0x1be-0x1cb.7 (14)
0x1c0|2d 73 65 6c 65 63 74 2d 6c 61 73 74            |-select-last    |
     |                                               |                |              d{}: 0x1cc-0x1cd.7 (2)
0x1c0|                                    00         |            .   |                tag: "funcidx" (0x0) 0x1cc-0x1cc.7 (1)
0x1c0|                                       14      |             .  |                x: 20 0x1cd-0x1cd.7 (1)
     |                                               |                |            [20]{}: ex 0x1ce-0x1dd.7 (16)
     |                                               |                |              nm{}: 0x1ce-0x1db.7 (14)
0x1c0|                                          0d   |              . |                n: 13 0x1ce-0x1ce.7 (1)
0x1c0|                                             61|               a|                b: "as-loop-first" 0x1cf-0x1db.7 (13)
0x1d0|73 2d 6c 6f 6f 70 2d 66 69 72 73 74            |s-loop-first    |
     |                                               |                |              d{}: 0x1dc-0x1dd.7 (2)
0x1d0|                                    00         |            .   |                tag: "funcidx" (0x0) 0x1dc-0x1dc.7 (1)
0x1d0|                                       15      |             .  |                x: 21 0x1dd-0x1dd.7 (1)
     |                                               |                |            [21]{}: ex 0x1de-0x1eb.7 (14)
     |                                               |                |              nm{}: 0x1de-0x1e9.7 (12)
0x1d0|                                          0b   |              . |                n: 11 0x1de-0x1de.7 (1)
0x1d0|                                             61|               a|                b: "as-loop-mid" 0x1df-0x1e9.7 (11)
0x1e0|73 2d 6c 6f 6f 70 2d 6d 69 64                  |s-loop-mid      |
     |                                               |                |              d{}: 0x1ea-0x1eb.7 (2)
0x1e0|                              00               |          .     |                tag: "funcidx" (0x0) 0x1ea-0x1ea.7 (1)
0x1e0|                                 16            |           .    |                x: 22 0x1eb-0x1eb.7 (1)
     |                                               |                |            [22]{}: ex 0x1ec-0x1fa.7 (15)
     |                                               |                |              nm{}: 0x1ec-0x1f8.7 (13)
0x1e0|                                    0c         |            .   |                n: 12 0x1ec-0x1ec.7 (1)
0x1e0|                                       61 73 2d|             as-|                b: "as-loop-last" 0x1ed-0x1f8.7 (12)
0x1f0|6c 6f 6f 70 2d 6c 61 73 74                     |loop-last       |
     |                                               |                |              d{}: 0x1f9-0x1fa.7 (2)
0x1f0|                           00                  |         .      |                tag: "funcidx" (0x0) 0x1f9-0x1f9.7 (1)
0x1f0|                              17               |          .     |                x: 23 0x1fa-0x1fa.7 (1)
     |                                               |                |            [23]{}: ex 0x1fb-0x20c.7 (18)
     |                                               |                |              nm{}: 0x1fb-0x20a.7 (16)
0x1f0|                                 0f            |           .    |                n: 15 0x1fb-0x1fb.7 (1)
0x1f0|                                    61 73 2d 69|            as-i|                b: "as-if-condition" 0x1fc-0x20a.7 (15)
0x200|66 2d 63 6f 6e 64 69 74 69 6f 6e               |f-condition     |
     |                                               |                |              d{}: 0x20b-0x20c.7 (2)
0x200|                                 00            |           .    |                tag: "funcidx" (0x0) 0x20b-0x20b.7 (1)
0x200|                                    18         |            .   |                x: 24 0x20c-0x20c.7 (1)
     |                                               |                |            [24]{}: ex 0x20d-0x219.7 (13)
     |                                               |                |              nm{}: 0x20d-0x217.7 (11)
0x200|                                       0a      |             .  |                n: 10 0x20d-0x20d.7 (1)
0x200|                                          61 73|              as|                b: "as-if-then" 0x20e-0x217.7 (10)
0x210|2d 69 66 2d 74 68 65 6e                        |-if-then        |
     |                                               |                |              d{}: 0x218-0x219.7 (2)
0x210|                        00                     |        .       |                tag: "funcidx" (0x0) 0x218-0x218.7 (1)
0x210|                           19                  |         .      |                x: 25 0x219-0x219.7 (1)
     |                                               |                |            [25]{}: ex 0x21a-0x226.7 (13)
     |                                               |                |              nm{}: 0x21a-0x224.7 (11)
0x210|                              0a               |          .     |                n: 10 0x21a-0x21a.7 (1)
0x210|                                 61 73 2d 69 66|           as-if|                b: "as-if-else" 0x21b-0x224.7 (10)
0x220|2d 65 6c 73 65                                 |-else           |
     |                                               |                |              d{}: 0x225-0x226.7 (2)
0x220|               00                              |     .          |                tag: "funcidx" (0x0) 0x225-0x225.7 (1)
0x220|                  1a                           |      .         |                x: 26 0x226-0x226.7 (1)
     |                                               |                |            [26]{}: ex 0x227-0x237.7 (17)
     |                                               |                |              nm{}: 0x227-0x235.7 (15)
0x220|                     0e                        |       .        |                n: 14 0x227-0x227.7 (1)
0x220|                        61 73 2d 62 72 5f 69 66|        as-br_if|                b: "as-br_if-first" 0x228-0x235.7 (14)
0x230|2d 66 69 72 73 74                              |-first          |
     |                                               |                |              d{}: 0x236-0x237.7 (2)
0x230|                  00                           |      .         |                tag: "funcidx" (0x0) 0x236-0x236.7 (1)
0x230|                     1b                        |       .        |                x: 27 0x237-0x237.7 (1)
     |                                               |                |            [27]{}: ex 0x238-0x247.7 (16)
     |                                               |                |              nm{}: 0x238-0x245.7 (14)
0x230|                        0d                     |        .       |                n: 13 0x238-0x238.7 (1)
0x230|                           61 73 2d 62 72 5f 69|         as-br_i|                b: "as-br_if-last" 0x239-0x245.7 (13)
0x240|66 2d 6c 61 73 74                              |f-last          |
     |                                               |                |              d{}: 0x246-0x247.7 (2)
0x240|                  00                           |      .         |                tag: "funcidx" (0x0) 0x246-0x246.7 (1)
0x240|                     1c                        |       .        |                x: 28 0x247-0x247.7 (1)
     |                                               |                |            [28]{}: ex 0x248-0x25b.7 (20)
     |                                               |                |              nm{}: 0x248-0x259.7 (18)
0x240|                        11                     |        .       |                n: 17 0x248-0x248.7 (1)
0x240|                           61 73 2d 62 72 5f 74|         as-br_t|                b: "as-br_table-first" 0x249-0x259.7 (17)
0x250|61 62 6c 65 2d 66 69 72 73 74                  |able-first      |
     |                                               |                |              d{}: 0x25a-0x25b.7 (2)
0x250|                              00               |          .     |                tag: "funcidx" (0x0) 0x25a-0x25a.7 (1)
0x250|                                 1d            |           .    |                x: 29 0x25b-0x25b.7 (1)
     |                                               |                |            [29]{}: ex 0x25c-0x26e.7 (19)
     |                                               |                |              nm{}: 0x25c-0x26c.7 (17)
0x250|                                    10         |            .   |                n: 16 0x25c-0x25c.7 (1)
0x250|                                       61 73 2d|             as-|                b: "as-br_table-last" 0x25d-0x26c.7 (16)
0x260|62 72 5f 74 61 62 6c 65 2d 6c 61 73 74         |br_table-last   |
     |                                               |                |              d{}: 0x26d-0x26e.7 (2)
0x260|                                       00      |             .  |                tag: "funcidx" (0x0) 0x26d-0x26d.7 (1)
0x260|                                          1e   |              . |                x: 30 0x26e-0x26e.7 (1)
     |                                               |                |            [30]{}: ex 0x26f-0x287.7 (25)
     |                                               |                |              nm{}: 0x26f-0x285.7 (23)
0x260|                                             16|               .|                n: 22 0x26f-0x26f.7 (1)
0x270|61 73 2d 63 61 6c 6c 5f 69 6e 64 69 72 65 63 74|as-call_indirect|                b: "as-call_indirect-first" 0x270-0x285.7 (22)
0x280|2d 66 69 72 73 74                              |-first          |
     |                                               |                |              d{}: 0x286-0x287.7 (2)
0x280|                  00                           |      .         |                tag: "funcidx" (0x0) 0x286-0x286.7 (1)
0x280|                     20                        |                |                x: 32 0x287-0x287.7 (1)
     |                                               |                |            [31]{}: ex 0x288-0x29e.7 (23)
     |                                               |                |              nm{}: 0x288-0x29c.7 (21)
0x280|                        14                     |        .       |                n: 20 0x288-0x288.7 (1)
0x280|                           61 73 2d 63 61 6c 6c|         as-call|                b: "as-call_indirect-mid" 0x289-0x29c.7 (20)
0x290|5f 69 6e 64 69 72 65 63 74 2d 6d 69 64         |_indirect-mid   |
     |                                               |                |              d{}: 0x29d-0x29e.7 (2)
0x290|                                       00      |             .  |                tag: "funcidx" (0x0) 0x29d-0x29d.7 (1)
0x290|                                          21   |              ! |                x: 33 0x29e-0x29e.7 (1)
     |                                               |                |            [32]{}: ex 0x29f-0x2b6.7 (24)
     |                                               |                |              nm{}: 0x29f-0x2b4.7 (22)
0x290|                                             15|               .|                n: 21 0x29f-0x29f.7 (1)
0x2a0|61 73 2d 63 61 6c 6c 5f 69 6e 64 69 72 65 63 74|as-call_indirect|                b: "as-call_indirect-last" 0x2a0-0x2b4.7 (21)
0x2b0|2d 6c 61 73 74                                 |-last           |
     |                                               |                |              d{}: 0x2b5-0x2b6.7 (2)
0x2b0|               00                              |     .          |                tag: "funcidx" (0x0) 0x2b5-0x2b5.7 (1)
0x2b0|                  22                           |      "         |                x: 34 0x2b6-0x2b6.7 (1)
     |                                               |                |            [33]{}: ex 0x2b7-0x2c7.7 (17)
     |                                               |                |              nm{}: 0x2b7-0x2c5.7 (15)
0x2b0|                     0e                        |       .        |                n: 14 0x2b7-0x2b7.7 (1)
0x2b0|                        61 73 2d 73 74 6f 72 65|        as-store|                b: "as-store-first" 0x2b8-0x2c5.7 (14)
0x2c0|2d 66 69 72 73 74                              |-first          |
     |                                               |                |              d{}: 0x2c6-0x2c7.7 (2)
0x2c0|                  00                           |      .         |                tag: "funcidx" (0x0) 0x2c6-0x2c6.7 (1)
0x2c0|                     23                        |       #        |                x: 35 0x2c7-0x2c7.7 (1)
     |                                               |                |            [34]{}: ex 0x2c8-0x2d7.7 (16)
     |                                               |                |              nm{}: 0x2c8-0x2d5.7 (14)
0x2c0|                        0d                     |        .       |                n: 13 0x2c8-0x2c8.7 (1)
0x2c0|                           61 73 2d 73 74 6f 72|         as-stor|                b: "as-store-last" 0x2c9-0x2d5.7 (13)
0x2d0|65 2d 6c 61 73 74                              |e-last          |
     |                                               |                |              d{}: 0x2d6-0x2d7.7 (2)
0x2d0|                  00                           |      .         |                tag: "funcidx" (0x0) 0x2d6-0x2d6.7 (1)
0x2d0|                     24                        |       $        |                x: 36 0x2d7-0x2d7.7 (1)
     |                                               |                |            [35]{}: ex 0x2d8-0x2e9.7 (18)
     |                                               |                |              nm{}: 0x2d8-0x2e7.7 (16)
0x2d0|                        0f                     |        .       |                n: 15 0x2d8-0x2d8.7 (1)
0x2d0|                           61 73 2d 6c 6f 61 64|         as-load|                b: "as-load-operand" 0x2d9-0x2e7.7 (15)
0x2e0|2d 6f 70 65 72 61 6e 64                        |-operand        |
     |                                               |                |              d{}: 0x2e8-0x2e9.7 (2)
0x2e0|                        00                     |        .       |                tag: "funcidx" (0x0) 0x2e8-0x2e8.7 (1)
0x2e0|                           25                  |         %      |                x: 37 0x2e9-0x2e9.7 (1)
     |                                               |                |            [36]{}: ex 0x2ea-0x300.7 (23)
     |                                               |                |              nm{}: 0x2ea-0x2fe.7 (21)
0x2e0|                              14               |          .     |                n: 20 0x2ea-0x2ea.7 (1)
0x2e0|                                 61 73 2d 6d 65|           as-me|                b: "as-memory.grow-value" 0x2eb-0x2fe.7 (20)
0x2f0|6d 6f 72 79 2e 67 72 6f 77 2d 76 61 6c 75 65   |mory.grow-value |
     |                                               |                |              d{}: 0x2ff-0x300.7 (2)
0x2f0|                                             00|               .|                tag: "funcidx" (0x0) 0x2ff-0x2ff.7 (1)
0x300|26                                             |&               |                x: 38 0x300-0x300.7 (1)
     |                                               |                |            [37]{}: ex 0x301-0x310.7 (16)
     |                                               |                |              nm{}: 0x301-0x30e.7 (14)
0x300|   0d                                          | .              |                n: 13 0x301-0x301.7 (1)
0x300|      61 73 2d 63 61 6c 6c 2d 76 61 6c 75 65   |  as-call-value |                b: "as-call-value" 0x302-0x30e.7 (13)
     |                                               |                |              d{}: 0x30f-0x310.7 (2)
0x300|                                             00|               .|                tag: "funcidx" (0x0) 0x30f-0x30f.7 (1)
0x310|28                                             |(               |                x: 40 0x310-0x310.7 (1)
     |                                               |                |            [38]{}: ex 0x311-0x322.7 (18)
     |                                               |                |              nm{}: 0x311-0x320.7 (16)
0x310|   0f                                          | .              |                n: 15 0x311-0x311.7 (1)
0x310|      61 73 2d 72 65 74 75 72 6e 2d 76 61 6c 75|  as-return-valu|                b: "as-return-value" 0x312-0x320.7 (15)
0x320|65                                             |e               |
     |                                               |                |              d{}: 0x321-0x322.7 (2)
0x320|   00                                          | .              |                tag: "funcidx" (0x0) 0x321-0x321.7 (1)
0x320|      29                                       |  )             |                x: 41 0x322-0x322.7 (1)
     |                                               |                |            [39]{}: ex 0x323-0x334.7 (18)
     |                                               |                |              nm{}: 0x323-0x332.7 (16)
0x320|         0f                                    |   .            |                n: 15 0x323-0x323.7 (1)
0x320|            61 73 2d 64 72 6f 70 2d 6f 70 65 72|    as-drop-oper|                b: "as-drop-operand" 0x324-0x332.7 (15)
0x330|61 6e 64                                       |and             |
     |                                               |                |              d{}: 0x333-0x334.7 (2)
0x330|         00                                    |   .            |                tag: "funcidx" (0x0) 0x333-0x333.7 (1)
0x330|            2a                                 |    *           |                x: 42 0x334-0x334.7 (1)
     |                                               |                |            [40]{}: ex 0x335-0x342.7 (14)
     |                                               |                |              nm{}: 0x335-0x340.7 (12)
0x330|               0b                              |     .          |                n: 11 0x335-0x335.7 (1)
0x330|                  61 73 2d 62 72 2d 76 61 6c 75|      as-br-valu|                b: "as-br-value" 0x336-0x340.7 (11)
0x340|65                                             |e               |
     |                                               |                |              d{}: 0x341-0x342.7 (2)
0x340|   00                                          | .              |                tag: "funcidx" (0x0) 0x341-0x341.7 (1)
0x340|      2b                                       |  +             |                x: 43 0x342-0x342.7 (1)
     |                                               |                |            [41]{}: ex 0x343-0x357.7 (21)
     |                                               |                |              nm{}: 0x343-0x355.7 (19)
0x340|         12                                    |   .            |                n: 18 0x343-0x343.7 (1)
0x340|            61 73 2d 6c 6f 63 61 6c 2e 73 65 74|    as-local.set|                b: "as-local.set-value" 0x344-0x355.7 (18)
0x350|2d 76 61 6c 75 65                              |-value          |
     |                                               |                |              d{}: 0x356-0x357.7 (2)
0x350|                  00                           |      .         |                tag: "funcidx" (0x0) 0x356-0x356.7 (1)
0x350|                     2c                        |       ,        |                x: 44 0x357-0x357.7 (1)
     |                                               |                |            [42]{}: ex 0x358-0x36c.7 (21)
     |                                               |                |              nm{}: 0x358-0x36a.7 (19)
0x350|                        12                     |        .       |                n: 18 0x358-0x358.7 (1)
0x350|                           61 73 2d 6c 6f 63 61|         as-loca|                b: "as-local.tee-value" 0x359-0x36a.7 (18)
0x360|6c 2e 74 65 65 2d 76 61 6c 75 65               |l.tee-value     |
     |                                               |                |              d{}: 0x36b-0x36c.7 (2)
0x360|                                 00            |           .    |                tag: "funcidx" (0x0) 0x36b-0x36b.7 (1)
0x360|                                    2d         |            -   |                x: 45 0x36c-0x36c.7 (1)
     |                                               |                |            [43]{}: ex 0x36d-0x382.7 (22)
     |                                               |                |              nm{}: 0x36d-0x380.7 (20)
0x360|                                       13      |             .  |                n: 19 0x36d-0x36d.7 (1)
0x360|                                          61 73|              as|                b: "as-global.set-value" 0x36e-0x380.7 (19)
0x370|2d 67 6c 6f 62 61 6c 2e 73 65 74 2d 76 61 6c 75|-global.set-valu|
0x380|65                                             |e               |
     |                                               |                |              d{}: 0x381-0x382.7 (2)
0x380|   00                                          | .              |                tag: "funcidx" (0x0) 0x381-0x381.7 (1)
0x380|      2e                                       |  .             |                x: 46 0x382-0x382.7 (1)
     |                                               |                |            [44]{}: ex 0x383-0x395.7 (19)
     |                                               |                |              nm{}: 0x383-0x393.7 (17)
0x380|         10                                    |   .            |                n: 16 0x383-0x383.7 (1)
0x380|            61 73 2d 75 6e 61 72 79 2d 6f 70 65|    as-unary-ope|                b: "as-unary-operand" 0x384-0x393.7 (16)
0x390|72 61 6e 64                                    |rand            |
     |                                               |                |              d{}: 0x394-0x395.7 (2)
0x390|            00                                 |    .           |                tag: "funcidx" (0x0) 0x394-0x394.7 (1)
0x390|               2f                              |     /          |                x: 47 0x395-0x395.7 (1)
     |                                               |                |            [45]{}: ex 0x396-0x3a9.7 (20)
     |                                               |                |              nm{}: 0x396-0x3a7.7 (18)
0x390|                  11                           |      .         |                n: 17 0x396-0x396.7 (1)
0x390|                     61 73 2d 62 69 6e 61 72 79|       as-binary|                b: "as-binary-operand" 0x397-0x3a7.7 (17)
0x3a0|2d 6f 70 65 72 61 6e 64                        |-operand        |
     |                                               |                |              d{}: 0x3a8-0x3a9.7 (2)
0x3a0|                        00                     |        .       |                tag: "funcidx" (0x0) 0x3a8-0x3a8.7 (1)
0x3a0|                           30                  |         0      |                x: 48 0x3a9-0x3a9.7 (1)
     |                                               |                |            [46]{}: ex 0x3aa-0x3be.7 (21)
     |                                               |                |              nm{}: 0x3aa-0x3bc.7 (19)
0x3a0|                              12               |          .     |                n: 18 0x3aa-0x3aa.7 (1)
0x3a0|                                 61 73 2d 63 6f|           as-co|                b: "as-compare-operand" 0x3ab-0x3bc.7 (18)
0x3b0|6d 70 61 72 65 2d 6f 70 65 72 61 6e 64         |mpare-operand   |
     |                                               |                |              d{}: 0x3bd-0x3be.7 (2)
0x3b0|                                       00      |             .  |                tag: "funcidx" (0x0) 0x3bd-0x3bd.7 (1)
0x3b0|                                          31   |              1 |                x: 49 0x3be-0x3be.7 (1)
     |                                               |                |    [7]{}: section 0x3bf-0x3c7.7 (9)
0x3b0|                                             09|               .|      id: "element section" (9) 0x3bf-0x3bf.7 (1)
0x3c0|07                                             |.               |      size: 7 0x3c0-0x3c0.7 (1)
     |                                               |                |      element{}: 0x3c1-0x3c7.7 (7)
     |                                               |                |        seg{}: 0x3c1-0x3c7.7 (7)
0x3c0|   01                                          | .              |          n: 1 0x3c1-0x3c1.7 (1)
     |                                               |                |          x[0:1]: 0x3c2-0x3c7.7 (6)
     |                                               |                |            [0]{}: seg 0x3c2-0x3c7.7 (6)
0x3c0|      00                                       |  .             |              tag: 0 0x3c2-0x3c2.7 (1)
     |                                               |                |              e[0:2]: 0x3c3-0x3c5.7 (3)
     |                                               |                |                [0]{}: in 0x3c3-0x3c4.7 (2)
0x3c0|         41                                    |   A            |                  i32.const: 0x41 (valid) 0x3c3-0x3c3.7 (1)
0x3c0|            00                                 |    .           |                  n: 0 0x3c4-0x3c4.7 (1)
     |                                               |                |                [1]{}: in 0x3c5-0x3c5.7 (1)
0x3c0|               0b                              |     .          |                  end: 0xb (valid) 0x3c5-0x3c5.7 (1)
     |                                               |                |              y{}: 0x3c6-0x3c7.7 (2)
0x3c0|                  01                           |      .         |                n: 1 0x3c6-0x3c6.7 (1)
     |                                               |                |                x[0:1]: 0x3c7-0x3c7.7 (1)
0x3c0|                     1f                        |       .        |                  [0]: 31 y 0x3c7-0x3c7.7 (1)
     |                                               |                |    [8]{}: section 0x3c8-0x57a.7 (435)
0x3c0|                        0a                     |        .       |      id: "code section" (10) 0x3c8-0x3c8.7 (1)
0x3c0|                           b0 03               |         ..     |      size: 432 0x3c9-0x3ca.7 (2)
     |                                               |                |      content{}: 0x3cb-0x57a.7 (432)
     |                                               |                |        code{}: 0x3cb-0x57a.7 (432)
0x3c0|                                 32            |           2    |          n: 50 0x3cb-0x3cb.7 (1)
     |                                               |                |          x[0:50]: 0x3cc-0x57a.7 (431)
     |                                               |                |            [0]{}: code 0x3cc-0x3d0.7 (5)
0x3c0|                                    04         |            .   |              size: 4 0x3cc-0x3cc.7 (1)
     |                                               |                |              code{}: 0x3cd-0x3d0.7 (4)
     |                                               |                |                t{}: 0x3cd-0x3cd.7 (1)
0x3c0|                                       00      |             .  |                  n: 0 0x3cd-0x3cd.7 (1)
     |                                               |                |                  x[0:0]: 0x3ce-NA (0)
     |                                               |                |                e[0:2]: 0x3ce-0x3d0.7 (3)
     |                                               |                |                  [0]{}: in 0x3ce-0x3cf.7 (2)
0x3c0|                                          23   |              # |                    global.get: 0x23 (valid) 0x3ce-0x3ce.7 (1)
0x3c0|                                             02|               .|                    x: 2 0x3cf-0x3cf.7 (1)
     |                                               |                |                  [1]{}: in 0x3d0-0x3d0.7 (1)
0x3d0|0b                                             |.               |                    end: 0xb (valid) 0x3d0-0x3d0.7 (1)
     |                                               |                |            [1]{}: code 0x3d1-0x3d5.7 (5)
0x3d0|   04                                          | .              |              size: 4 0x3d1-0x3d1.7 (1)
     |                                               |                |              code{}: 0x3d2-0x3d5.7 (4)
     |                                               |                |                t{}: 0x3d2-0x3d2.7 (1)
0x3d0|      00                                       |  .             |                  n: 0 0x3d2-0x3d2.7 (1)
     |                                               |                |                  x[0:0]: 0x3d3-NA (0)
     |                                               |                |                e[0:2]: 0x3d3-0x3d5.7 (3)
     |                                               |                |                  [0]{}: in 0x3d3-0x3d4.7 (2)
0x3d0|         23                                    |   #            |                    global.get: 0x23 (valid) 0x3d3-0x3d3.7 (1)
0x3d0|            05                                 |    .           |                    x: 5 0x3d4-0x3d4.7 (1)
     |                                               |                |                  [1]{}: in 0x3d5-0x3d5.7 (1)
0x3d0|               0b                              |     .          |                    end: 0xb (valid) 0x3d5-0x3d5.7 (1)
     |                                               |                |            [2]{}: code 0x3d6-0x3da.7 (5)
0x3d0|                  04                           |      .         |              size: 4 0x3d6-0x3d6.7 (1)
     |                                               |                |              code{}: 0x3d7-0x3da.7 (4)
     |                                               |                |                t{}: 0x3d7-0x3d7.7 (1)
0x3d0|                     00                        |       .        |                  n: 0 0x3d7-0x3d7.7 (1)
     |                                               |                |                  x[0:0]: 0x3d8-NA (0)
     |                                               |                |                e[0:2]: 0x3d8-0x3da.7 (3)
     |                                               |                |                  [0]{}: in 0x3d8-0x3d9.7 (2)
0x3d0|                        23                     |        #       |                    global.get: 0x23 (valid) 0x3d8-0x3d8.7 (1)
0x3d0|                           0c                  |         .      |                    x: 12 0x3d9-0x3d9.7 (1)
     |                                               |                |                  [1]{}: in 0x3da-0x3da.7 (1)
0x3d0|                              0b               |          .     |                    end: 0xb (valid) 0x3da-0x3da.7 (1)
     |                                               |                |            [3]{}: code 0x3db-0x3df.7 (5)
0x3d0|                                 04            |           .    |              size: 4 0x3db-0x3db.7 (1)
     |                                               |                |              code{}: 0x3dc-0x3df.7 (4)
     |                                               |                |                t{}: 0x3dc-0x3dc.7 (1)
0x3d0|                                    00         |            .   |                  n: 0 0x3dc-0x3dc.7 (1)
     |                                               |                |                  x[0:0]: 0x3dd-NA (0)
     |                                               |                |                e[0:2]: 0x3dd-0x3df.7 (3)
     |                                               |                |                  [0]{}: in 0x3dd-0x3de.7 (2)
0x3d0|                                       23      |             #  |                    global.get: 0x23 (valid) 0x3dd-0x3dd.7 (1)
0x3d0|                                          0d   |              . |                    x: 13 0x3de-0x3de.7 (1)
     |                                               |                |                  [1]{}: in 0x3df-0x3df.7 (1)
0x3d0|                                             0b|               .|                    end: 0xb (valid) 0x3df-0x3df.7 (1)
     |                                               |                |            [4]{}: code 0x3e0-0x3e4.7 (5)
0x3e0|04                                             |.               |              size: 4 0x3e0-0x3e0.7 (1)
     |                                               |                |              code{}: 0x3e1-0x3e4.7 (4)
     |                                               |                |                t{}: 0x3e1-0x3e1.7 (1)
0x3e0|   00                                          | .              |                  n: 0 0x3e1-0x3e1.7 (1)
     |                                               |                |                  x[0:0]: 0x3e2-NA (0)
     |                                               |                |                e[0:2]: 0x3e2-0x3e4.7 (3)
     |                                               |                |                  [0]{}: in 0x3e2-0x3e3.7 (2)
0x3e0|      23                                       |  #             |                    global.get: 0x23 (valid) 0x3e2-0x3e2.7 (1)
0x3e0|         06                                    |   .            |                    x: 6 0x3e3-0x3e3.7 (1)
     |                                               |                |                  [1]{}: in 0x3e4-0x3e4.7 (1)
0x3e0|            0b                                 |    .           |                    end: 0xb (valid) 0x3e4-0x3e4.7 (1)
     |                                               |                |            [5]{}: code 0x3e5-0x3e9.7 (5)
0x3e0|               04                              |     .          |              size: 4 0x3e5-0x3e5.7 (1)
     |                                               |                |              code{}: 0x3e6-0x3e9.7 (4)
     |                                               |                |                t{}: 0x3e6-0x3e6.7 (1)
0x3e0|                  00                           |      .         |                  n: 0 0x3e6-0x3e6.7 (1)
     |                                               |                |                  x[0:0]: 0x3e7-NA (0)
     |                                               |                |                e[0:2]: 0x3e7-0x3e9.7 (3)
     |                                               |                |                  [0]{}: in 0x3e7-0x3e8.7 (2)
0x3e0|                     23                        |       #        |                    global.get: 0x23 (valid) 0x3e7-0x3e7.7 (1)
0x3e0|                        09                     |        .       |                    x: 9 0x3e8-0x3e8.7 (1)
     |                                               |                |                  [1]{}: in 0x3e9-0x3e9.7 (1)
0x3e0|                           0b                  |         .      |                    end: 0xb (valid) 0x3e9-0x3e9.7 (1)
     |                                               |                |            [6]{}: code 0x3ea-0x3ee.7 (5)
0x3e0|                              04               |          .     |              size: 4 0x3ea-0x3ea.7 (1)
     |                                               |                |              code{}: 0x3eb-0x3ee.7 (4)
     |                                               |                |                t{}: 0x3eb-0x3eb.7 (1)
0x3e0|                                 00            |           .    |                  n: 0 0x3eb-0x3eb.7 (1)
     |                                               |                |                  x[0:0]: 0x3ec-NA (0)
     |                                               |                |                e[0:2]: 0x3ec-0x3ee.7 (3)
     |                                               |                |                  [0]{}: in 0x3ec-0x3ed.7 (2)
0x3e0|                                    23         |            #   |                    global.get: 0x23 (valid) 0x3ec-0x3ec.7 (1)
0x3e0|                                       0a      |             .  |                    x: 10 0x3ed-0x3ed.7 (1)
     |                                               |                |                  [1]{}: in 0x3ee-0x3ee.7 (1)
0x3e0|                                          0b   |              . |                    end: 0xb (valid) 0x3ee-0x3ee.7 (1)
     |                                               |                |            [7]{}: code 0x3ef-0x3f3.7 (5)
0x3e0|                                             04|               .|              size: 4 0x3ef-0x3ef.7 (1)
     |                                               |                |              code{}: 0x3f0-0x3f3.7 (4)
     |                                               |                |                t{}: 0x3f0-0x3f0.7 (1)
0x3f0|00                                             |.               |                  n: 0 0x3f0-0x3f0.7 (1)
     |                                               |                |                  x[0:0]: 0x3f1-NA (0)
     |                                               |                |                e[0:2]: 0x3f1-0x3f3.7 (3)
     |                                               |                |                  [0]{}: in 0x3f1-0x3f2.7 (2)
0x3f0|   23                                          | #              |                    global.get: 0x23 (valid) 0x3f1-0x3f1.7 (1)
0x3f0|      0b                                       |  .             |                    x: 11 0x3f2-0x3f2.7 (1)
     |                                               |                |                  [1]{}: in 0x3f3-0x3f3.7 (1)
0x3f0|         0b                                    |   .            |                    end: 0xb (valid) 0x3f3-0x3f3.7 (1)
     |                                               |                |            [8]{}: code 0x3f4-0x3fa.7 (7)
0x3f0|            06                                 |    .           |              size: 6 0x3f4-0x3f4.7 (1)
     |                                               |                |              code{}: 0x3f5-0x3fa.7 (6)
     |                                               |                |                t{}: 0x3f5-0x3f5.7 (1)
0x3f0|               00                              |     .          |                  n: 0 0x3f5-0x3f5.7 (1)
     |                                               |                |                  x[0:0]: 0x3f6-NA (0)
     |                                               |                |                e[0:3]: 0x3f6-0x3fa.7 (5)
     |                                               |                |                  [0]{}: in 0x3f6-0x3f7.7 (2)
0x3f0|                  20                           |                |                    local.get: 0x20 (valid) 0x3f6-0x3f6.7 (1)
0x3f0|                     00                        |       .        |                    x: 0 0x3f7-0x3f7.7 (1)
     |                                               |                |                  [1]{}: in 0x3f8-0x3f9.7 (2)
0x3f0|                        24                     |        $       |                    global.set: 0x24 (valid) 0x3f8-0x3f8.7 (1)
0x3f0|                           06                  |         .      |                    x: 6 0x3f9-0x3f9.7 (1)
     |                                               |                |                  [2]{}: in 0x3fa-0x3fa.7 (1)
0x3f0|                              0b               |          .     |                    end: 0xb (valid) 0x3fa-0x3fa.7 (1)
     |                                               |                |            [9]{}: code 0x3fb-0x401.7 (7)
0x3f0|                                 06            |           .    |              size: 6 0x3fb-0x3fb.7 (1)
     |                                               |                |              code{}: 0x3fc-0x401.7 (6)
     |                                               |                |                t{}: 0x3fc-0x3fc.7 (1)
0x3f0|                                    00         |            .   |                  n: 0 0x3fc-0x3fc.7 (1)
     |                                               |                |                  x[0:0]: 0x3fd-NA (0)
     |                                               |                |                e[0:3]: 0x3fd-0x401.7 (5)
     |                                               |                |                  [0]{}: in 0x3fd-0x3fe.7 (2)
0x3f0|                                       20      |                |                    local.get: 0x20 (valid) 0x3fd-0x3fd.7 (1)
0x3f0|                                          00   |              . |                    x: 0 0x3fe-0x3fe.7 (1)
     |                                               |                |                  [1]{}: in 0x3ff-0x400.7 (2)
0x3f0|                                             24|               $|                    global.set: 0x24 (valid) 0x3ff-0x3ff.7 (1)
0x400|09                                             |.               |                    x: 9 0x400-0x400.7 (1)
     |                                               |                |                  [2]{}: in 0x401-0x401.7 (1)
0x400|   0b                                          | .              |                    end: 0xb (valid) 0x401-0x401.7 (1)
     |                                               |                |            [10]{}: code 0x402-0x408.7 (7)
0x400|      06                                       |  .             |              size: 6 0x402-0x402.7 (1)
     |                                               |                |              code{}: 0x403-0x408.7 (6)
     |                                               |                |                t{}: 0x403-0x403.7 (1)
0x400|         00                                    |   .            |                  n: 0 0x403-0x403.7 (1)
     |                                               |                |                  x[0:0]: 0x404-NA (0)
     |                                               |                |                e[0:3]: 0x404-0x408.7 (5)
     |                                               |                |                  [0]{}: in 0x404-0x405.7 (2)
0x400|            20                                 |                |                    local.get: 0x20 (valid) 0x404-0x404.7 (1)
0x400|               00                              |     .          |                    x: 0 0x405-0x405.7 (1)
     |                                               |                |                  [1]{}: in 0x406-0x407.7 (2)
0x400|                  24                           |      $         |                    global.set: 0x24 (valid) 0x406-0x406.7 (1)
0x400|                     0d                        |       .        |                    x: 13 0x407-0x407.7 (1)
     |                                               |                |                  [2]{}: in 0x408-0x408.7 (1)
0x400|                        0b                     |        .       |                    end: 0xb (valid) 0x408-0x408.7 (1)
     |                                               |                |            [11]{}: code 0x409-0x40d.7 (5)
0x400|                           04                  |         .      |              size: 4 0x409-0x409.7 (1)
     |                                               |                |              code{}: 0x40a-0x40d.7 (4)
     |                                               |                |                t{}: 0x40a-0x40a.7 (1)
0x400|                              00               |          .     |                  n: 0 0x40a-0x40a.7 (1)
     |                                               |                |                  x[0:0]: 0x40b-NA (0)
     |                                               |                |                e[0:2]: 0x40b-0x40d.7 (3)
     |                                               |                |                  [0]{}: in 0x40b-0x40c.7 (2)
0x400|                                 23            |           #    |                    global.get: 0x23 (valid) 0x40b-0x40b.7 (1)
0x400|                                    03         |            .   |                    x: 3 0x40c-0x40c.7 (1)
     |                                               |                |                  [1]{}: in 0x40d-0x40d.7 (1)
0x400|                                       0b      |             .  |                    end: 0xb (valid) 0x40d-0x40d.7 (1)
     |                                               |                |            [12]{}: code 0x40e-0x412.7 (5)
0x400|                                          04   |              . |              size: 4 0x40e-0x40e.7 (1)
     |                                               |                |              code{}: 0x40f-0x412.7 (4)
     |                                               |                |                t{}: 0x40f-0x40f.7 (1)
0x400|                                             00|               .|                  n: 0 0x40f-0x40f.7 (1)
     |                                               |                |                  x[0:0]: 0x410-NA (0)
     |                                               |                |                e[0:2]: 0x410-0x412.7 (3)
     |                                               |                |                  [0]{}: in 0x410-0x411.7 (2)
0x410|23                                             |#               |                    global.get: 0x23 (valid) 0x410-0x410.7 (1)
0x410|   04                                          | .              |                    x: 4 0x411-0x411.7 (1)
     |                                               |                |                  [1]{}: in 0x412-0x412.7 (1)
0x410|      0b                                       |  .             |                    end: 0xb (valid) 0x412-0x412.7 (1)
     |                                               |                |            [13]{}: code 0x413-0x417.7 (5)
0x410|         04                                    |   .            |              size: 4 0x413-0x413.7 (1)
     |                                               |                |              code{}: 0x414-0x417.7 (4)
     |                                               |                |                t{}: 0x414-0x414.7 (1)
0x410|            00                                 |    .           |                  n: 0 0x414-0x414.7 (1)
     |                                               |                |                  x[0:0]: 0x415-NA (0)
     |                                               |                |                e[0:2]: 0x415-0x417.7 (3)
     |                                               |                |                  [0]{}: in 0x415-0x416.7 (2)
0x410|               23                              |     #          |                    global.get: 0x23 (valid) 0x415-0x415.7 (1)
0x410|                  07                           |      .         |                    x: 7 0x416-0x416.7 (1)
     |                                               |                |                  [1]{}: in 0x417-0x417.7 (1)
0x410|                     0b                        |       .        |                    end: 0xb (valid) 0x417-0x417.7 (1)
     |                                               |                |            [14]{}: code 0x418-0x41c.7 (5)
0x410|                        04                     |        .       |              size: 4 0x418-0x418.7 (1)
     |                                               |                |              code{}: 0x419-0x41c.7 (4)
     |                                               |                |                t{}: 0x419-0x419.7 (1)
0x410|                           00                  |         .      |                  n: 0 0x419-0x419.7 (1)
     |                                               |                |                  x[0:0]: 0x41a-NA (0)
     |                                               |                |                e[0:2]: 0x41a-0x41c.7 (3)
     |                                               |                |                  [0]{}: in 0x41a-0x41b.7 (2)
0x410|                              23               |          #     |                    global.get: 0x23 (valid) 0x41a-0x41a.7 (1)
0x410|                                 08            |           .    |                    x: 8 0x41b-0x41b.7 (1)
     |                                               |                |                  [1]{}: in 0x41c-0x41c.7 (1)
0x410|                                    0b         |            .   |                    end: 0xb (valid) 0x41c-0x41c.7 (1)
     |                                               |                |            [15]{}: code 0x41d-0x423.7 (7)
0x410|                                       06      |             .  |              size: 6 0x41d-0x41d.7 (1)
     |                                               |                |              code{}: 0x41e-0x423.7 (6)
     |                                               |                |                t{}: 0x41e-0x41e.7 (1)
0x410|                                          00   |              . |                  n: 0 0x41e-0x41e.7 (1)
     |                                               |                |                  x[0:0]: 0x41f-NA (0)
     |                                               |                |                e[0:3]: 0x41f-0x423.7 (5)
     |                                               |                |                  [0]{}: in 0x41f-0x420.7 (2)
0x410|                                             20|                |                    local.get: 0x20 (valid) 0x41f-0x41f.7 (1)
0x420|00                                             |.               |                    x: 0 0x420-0x420.7 (1)
     |                                               |                |                  [1]{}: in 0x421-0x422.7 (2)
0x420|   24                                          | $              |                    global.set: 0x24 (valid) 0x421-0x421.7 (1)
0x420|      07                                       |  .             |                    x: 7 0x422-0x422.7 (1)
     |                                               |                |                  [2]{}: in 0x423-0x423.7 (1)
0x420|         0b                                    |   .            |                    end: 0xb (valid) 0x423-0x423.7 (1)
     |                                               |                |            [16]{}: code 0x424-0x42a.7 (7)
0x420|            06                                 |    .           |              size: 6 0x424-0x424.7 (1)
     |                                               |                |              code{}: 0x425-0x42a.7 (6)
     |                                               |                |                t{}: 0x425-0x425.7 (1)
0x420|               00                              |     .          |                  n: 0 0x425-0x425.7 (1)
     |                                               |                |                  x[0:0]: 0x426-NA (0)
     |                                               |                |                e[0:3]: 0x426-0x42a.7 (5)
     |                                               |                |                  [0]{}: in 0x426-0x427.7 (2)
0x420|                  20                           |                |                    local.get: 0x20 (valid) 0x426-0x426.7 (1)
0x420|                     00                        |       .        |                    x: 0 0x427-0x427.7 (1)
     |                                               |                |                  [1]{}: in 0x428-0x429.7 (2)
0x420|                        24                     |        $       |                    global.set: 0x24 (valid) 0x428-0x428.7 (1)
0x420|                           08                  |         .      |                    x: 8 0x429-0x429.7 (1)
     |                                               |                |                  [2]{}: in 0x42a-0x42a.7 (1)
0x420|                              0b               |          .     |                    end: 0xb (valid) 0x42a-0x42a.7 (1)
     |                                               |                |            [17]{}: code 0x42b-0x42d.7 (3)
0x420|                                 02            |           .    |              size: 2 0x42b-0x42b.7 (1)
     |                                               |                |              code{}: 0x42c-0x42d.7 (2)
     |                                               |                |                t{}: 0x42c-0x42c.7 (1)
0x420|                                    00         |            .   |                  n: 0 0x42c-0x42c.7 (1)
     |                                               |                |                  x[0:0]: 0x42d-NA (0)
     |                                               |                |                e[0:1]: 0x42d-0x42d.7 (1)
     |                                               |                |                  [0]{}: in 0x42d-0x42d.7 (1)
0x420|                                       0b      |             .  |                    end: 0xb (valid) 0x42d-0x42d.7 (1)
     |                                               |                |            [18]{}: code 0x42e-0x437.7 (10)
0x420|                                          09   |              . |              size: 9 0x42e-0x42e.7 (1)
     |                                               |                |              code{}: 0x42f-0x437.7 (9)
     |                                               |                |                t{}: 0x42f-0x42f.7 (1)
0x420|                                             00|               .|                  n: 0 0x42f-0x42f.7 (1)
     |                                               |                |                  x[0:0]: 0x430-NA (0)
     |                                               |                |                e[0:5]: 0x430-0x437.7 (8)
     |                                               |                |                  [0]{}: in 0x430-0x431.7 (2)
0x430|23                                             |#               |                    global.get: 0x23 (valid) 0x430-0x430.7 (1)
0x430|   06                                          | .              |                    x: 6 0x431-0x431.7 (1)
     |                                               |                |                  [1]{}: in 0x432-0x433.7 (2)
0x430|      41                                       |  A             |                    i32.const: 0x41 (valid) 0x432-0x432.7 (1)
0x430|         02                                    |   .            |                    n: 2 0x433-0x433.7 (1)
     |                                               |                |                  [2]{}: in 0x434-0x435.7 (2)
0x430|            41                                 |    A           |                    i32.const: 0x41 (valid) 0x434-0x434.7 (1)
0x430|               03                              |     .          |                    n: 3 0x435-0x435.7 (1)
     |                                               |                |                  [3]{}: in 0x436-0x436.7 (1)
0x430|                  1b                           |      .         |                    select: 0x1b (valid) 0x436-0x436.7 (1)
     |                                               |                |                  [4]{}: in 0x437-0x437.7 (1)
0x430|                     0b                        |       .        |                    end: 0xb (valid) 0x437-0x437.7 (1)
     |                                               |                |            [19]{}: code 0x438-0x441.7 (10)
0x430|                        09                     |        .       |              size: 9 0x438-0x438.7 (1)
     |                                               |                |              code{}: 0x439-0x441.7 (9)
     |                                               |                |                t{}: 0x439-0x439.7 (1)
0x430|                           00                  |         .      |                  n: 0 0x439-0x439.7 (1)
     |                                               |                |                  x[0:0]: 0x43a-NA (0)
     |                                               |                |                e[0:5]: 0x43a-0x441.7 (8)
     |                                               |                |                  [0]{}: in 0x43a-0x43b.7 (2)
0x430|                              41               |          A     |                    i32.const: 0x41 (valid) 0x43a-0x43a.7 (1)
0x430|                                 02            |           .    |                    n: 2 0x43b-0x43b.7 (1)
     |                                               |                |                  [1]{}: in 0x43c-0x43d.7 (2)
0x430|                                    23         |            #   |                    global.get: 0x23 (valid) 0x43c-0x43c.7 (1)
0x430|                                       06      |             .  |                    x: 6 0x43d-0x43d.7 (1)
     |                                               |                |                  [2]{}: in 0x43e-0x43f.7 (2)
0x430|                                          41   |              A |                    i32.const: 0x41 (valid) 0x43e-0x43e.7 (1)
0x430|                                             03|               .|                    n: 3 0x43f-0x43f.7 (1)
     |                                               |                |                  [3]{}: in 0x440-0x440.7 (1)
0x440|1b                                             |.               |                    select: 0x1b (valid) 0x440-0x440.7 (1)
     |                                               |                |                  [4]{}: in 0x441-0x441.7 (1)
0x440|   0b                                          | .              |                    end: 0xb (valid) 0x441-0x441.7 (1)
     |                                               |                |            [20]{}: code 0x442-0x44b.7 (10)
0x440|      09                                       |  .             |              size: 9 0x442-0x442.7 (1)
     |                                               |                |              code{}: 0x443-0x44b.7 (9)
     |                                               |                |                t{}: 0x443-0x443.7 (1)
0x440|         00                                    |   .            |                  n: 0 0x443-0x443.7 (1)
     |                                               |                |                  x[0:0]: 0x444-NA (0)
     |                                               |                |                e[0:5]: 0x444-0x44b.7 (8)
     |                                               |                |                  [0]{}: in 0x444-0x445.7 (2)
0x440|            41                                 |    A           |                    i32.const: 0x41 (valid) 0x444-0x444.7 (1)
0x440|               02                              |     .          |                    n: 2 0x445-0x445.7 (1)
     |                                               |                |                  [1]{}: in 0x446-0x447.7 (2)
0x440|                  41                           |      A         |                    i32.const: 0x41 (valid) 0x446-0x446.7 (1)
0x440|                     03                        |       .        |                    n: 3 0x447-0x447.7 (1)
     |                                               |                |                  [2]{}: in 0x448-0x449.7 (2)
0x440|                        23                     |        #       |                    global.get: 0x23 (valid) 0x448-0x448.7 (1)
0x440|                           06                  |         .      |                    x: 6 0x449-0x449.7 (1)
     |                                               |                |                  [3]{}: in 0x44a-0x44a.7 (1)
0x440|                              1b               |          .     |                    select: 0x1b (valid) 0x44a-0x44a.7 (1)
     |                                               |                |                  [4]{}: in 0x44b-0x44b.7 (1)
0x440|                                 0b            |           .    |                    end: 0xb (valid) 0x44b-0x44b.7 (1)
     |                                               |                |            [21]{}: code 0x44c-0x457.7 (12)
0x440|                                    0b         |            .   |              size: 11 0x44c-0x44c.7 (1)
     |                                               |                |              code{}: 0x44d-0x457.7 (11)
     |                                               |                |                t{}: 0x44d-0x44d.7 (1)
0x440|                                       00      |             .  |                  n: 0 0x44d-0x44d.7 (1)
     |                                               |                |                  x[0:0]: 0x44e-NA (0)
     |                                               |                |                e[0:2]: 0x44e-0x457.7 (10)
     |                                               |                |                  [0]{}: in 0x44e-0x456.7 (9)
0x440|                                          03   |              . |                    loop: 0x3 (valid) 0x44e-0x44e.7 (1)
0x440|                                             7f|               .|                    bt: "i32" (127) 0x44f-0x44f.7 (1)
     |                                               |                |                    instructions[0:3]: 0x450-0x455.7 (6)
     |                                               |                |                      [0]{}: instr 0x450-0x451.7 (2)
0x450|23                                             |#               |                        global.get: 0x23 (valid) 0x450-0x450.7 (1)
0x450|   06                                          | .              |                        x: 6 0x451-0x451.7 (1)
     |                                               |                |                      [1]{}: instr 0x452-0x453.7 (2)
0x450|      10                                       |  .             |                        call: 0x10 (valid) 0x452-0x452.7 (1)
0x450|         11                                    |   .            |                        x: 17 0x453-0x453.7 (1)
     |                                               |                |                      [2]{}: instr 0x454-0x455.7 (2)
0x450|            10                                 |    .           |                        call: 0x10 (valid) 0x454-0x454.7 (1)
0x450|               11                              |     .          |                        x: 17 0x455-0x455.7 (1)
0x450|                  0b                           |      .         |                    end: 11 (valid) 0x456-0x456.7 (1)
     |                                               |                |                  [1]{}: in 0x457-0x457.7 (1)
0x450|                     0b                        |       .        |                    end: 0xb (valid) 0x457-0x457.7 (1)
     |                                               |                |            [22]{}: code 0x458-0x463.7 (12)
0x450|                        0b                     |        .       |              size: 11 0x458-0x458.7 (1)
     |                                               |                |              code{}: 0x459-0x463.7 (11)
     |                                               |                |                t{}: 0x459-0x459.7 (1)
0x450|                           00                  |         .      |                  n: 0 0x459-0x459.7 (1)
     |                                               |                |                  x[0:0]: 0x45a-NA (0)
     |                                               |                |                e[0:2]: 0x45a-0x463.7 (10)
     |                                               |                |                  [0]{}: in 0x45a-0x462.7 (9)
0x450|                              03               |          .     |                    loop: 0x3 (valid) 0x45a-0x45a.7 (1)
0x450|                                 7f            |           .    |                    bt: "i32" (127) 0x45b-0x45b.7 (1)
     |                                               |                |                    instructions[0:3]: 0x45c-0x461.7 (6)
     |                                               |                |                      [0]{}: instr 0x45c-0x45d.7 (2)
0x450|                                    10         |            .   |                        call: 0x10 (valid) 0x45c-0x45c.7 (1)
0x450|                                       11      |             .  |                        x: 17 0x45d-0x45d.7 (1)
     |                                               |                |                      [1]{}: instr 0x45e-0x45f.7 (2)
0x450|                                          23   |              # |                        global.get: 0x23 (valid) 0x45e-0x45e.7 (1)
0x450|                                             06|               .|                        x: 6 0x45f-0x45f.7 (1)
     |                                               |                |                      [2]{}: instr 0x460-0x461.7 (2)
0x460|10                                             |.               |                        call: 0x10 (valid) 0x460-0x460.7 (1)
0x460|   11                                          | .              |                        x: 17 0x461-0x461.7 (1)
0x460|      0b                                       |  .             |                    end: 11 (valid) 0x462-0x462.7 (1)
     |                                               |                |                  [1]{}: in 0x463-0x463.7 (1)
0x460|         0b                                    |   .            |                    end: 0xb (valid) 0x463-0x463.7 (1)
     |                                               |                |            [23]{}: code 0x464-0x46f.7 (12)
0x460|            0b                                 |    .           |              size: 11 0x464-0x464.7 (1)
     |                                               |                |              code{}: 0x465-0x46f.7 (11)
     |                                               |                |                t{}: 0x465-0x465.7 (1)
0x460|               00                              |     .          |                  n: 0 0x465-0x465.7 (1)
     |                                               |                |                  x[0:0]: 0x466-NA (0)
     |                                               |                |                e[0:2]: 0x466-0x46f.7 (10)
     |                                               |                |                  [0]{}: in 0x466-0x46e.7 (9)
0x460|                  03                           |      .         |                    loop: 0x3 (valid) 0x466-0x466.7 (1)
0x460|                     7f                        |       .        |                    bt: "i32" (127) 0x467-0x467.7 (1)
     |                                               |                |                    instructions[0:3]: 0x468-0x46d.7 (6)
     |                                               |                |                      [0]{}: instr 0x468-0x469.7 (2)
0x460|                        10                     |        .       |                        call: 0x10 (valid) 0x468-0x468.7 (1)
0x460|                           11                  |         .      |                        x: 17 0x469-0x469.7 (1)
     |                                               |                |                      [1]{}: instr 0x46a-0x46b.7 (2)
0x460|                              10               |          .     |                        call: 0x10 (valid) 0x46a-0x46a.7 (1)
0x460|                                 11            |           .    |                        x: 17 0x46b-0x46b.7 (1)
     |                                               |                |                      [2]{}: instr 0x46c-0x46d.7 (2)
0x460|                                    23         |            #   |                        global.get: 0x23 (valid) 0x46c-0x46c.7 (1)
0x460|                                       06      |             .  |                        x: 6 0x46d-0x46d.7 (1)
0x460|                                          0b   |              . |                    end: 11 (valid) 0x46e-0x46e.7 (1)
     |                                               |                |                  [1]{}: in 0x46f-0x46f.7 (1)
0x460|                                             0b|               .|                    end: 0xb (valid) 0x46f-0x46f.7 (1)
     |                                               |                |            [24]{}: code 0x470-0x480.7 (17)
0x470|10                                             |.               |              size: 16 0x470-0x470.7 (1)
     |                                               |                |              code{}: 0x471-0x480.7 (16)
     |                                               |                |                t{}: 0x471-0x471.7 (1)
0x470|   00                                          | .              |                  n: 0 0x471-0x471.7 (1)
     |                                               |                |                  x[0:0]: 0x472-NA (0)
     |                                               |                |                e[0:3]: 0x472-0x480.7 (15)
     |                                               |                |                  [0]{}: in 0x472-0x473.7 (2)
0x470|      23                                       |  #             |                    global.get: 0x23 (valid) 0x472-0x472.7 (1)
0x470|         06                                    |   .            |                    x: 6 0x473-0x473.7 (1)
     |                                               |                |                  [1]{}: in 0x474-0x47f.7 (12)
0x470|            04                                 |    .           |                    if: 0x4 (valid) 0x474-0x474.7 (1)
0x470|               7f                              |     .          |                    bt: "i32" (127) 0x475-0x475.7 (1)
     |                                               |                |                    in1[0:2]: 0x476-0x479.7 (4)
     |                                               |                |                      [0]{}: instr 0x476-0x477.7 (2)
0x470|                  10                           |      .         |                        call: 0x10 (valid) 0x476-0x476.7 (1)
0x470|                     11                        |       .        |                        x: 17 0x477-0x477.7 (1)
     |                                               |                |                      [1]{}: instr 0x478-0x479.7 (2)
0x470|                        41                     |        A       |                        i32.const: 0x41 (valid) 0x478-0x478.7 (1)
0x470|                           02                  |         .      |                        n: 2 0x479-0x479.7 (1)
0x470|                              05               |          .     |                    else: 0x5 (valid) 0x47a-0x47a.7 (1)
     |                                               |                |                    in2[0:2]: 0x47b-0x47e.7 (4)
     |                                               |                |                      [0]{}: instr 0x47b-0x47c.7 (2)
0x470|                                 10            |           .    |                        call: 0x10 (valid) 0x47b-0x47b.7 (1)
0x470|                                    11         |            .   |                        x: 17 0x47c-0x47c.7 (1)
     |                                               |                |                      [1]{}: instr 0x47d-0x47e.7 (2)
0x470|                                       41      |             A  |                        i32.const: 0x41 (valid) 0x47d-0x47d.7 (1)
0x470|                                          03   |              . |                        n: 3 0x47e-0x47e.7 (1)
0x470|                                             0b|               .|                    end: 11 (valid) 0x47f-0x47f.7 (1)
     |                                               |                |                  [2]{}: in 0x480-0x480.7 (1)
0x480|0b                                             |.               |                    end: 0xb (valid) 0x480-0x480.7 (1)
     |                                               |                |            [25]{}: code 0x481-0x48d.7 (13)
0x480|   0c                                          | .              |              size: 12 0x481-0x481.7 (1)
     |                                               |                |              code{}: 0x482-0x48d.7 (12)
     |                                               |                |                t{}: 0x482-0x482.7 (1)
0x480|      00                                       |  .             |                  n: 0 0x482-0x482.7 (1)
     |                                               |                |                  x[0:0]: 0x483-NA (0)
     |                                               |                |                e[0:3]: 0x483-0x48d.7 (11)
     |                                               |                |                  [0]{}: in 0x483-0x484.7 (2)
0x480|         41                                    |   A            |                    i32.const: 0x41 (valid) 0x483-0x483.7 (1)
0x480|            01                                 |    .           |                    n: 1 0x484-0x484.7 (1)
     |                                               |                |                  [1]{}: in 0x485-0x48c.7 (8)
0x480|               04                              |     .          |                    if: 0x4 (valid) 0x485-0x485.7 (1)
0x480|                  7f                           |      .         |                    bt: "i32" (127) 0x486-0x486.7 (1)
     |                                               |                |                    in1[0:1]: 0x487-0x488.7 (2)
     |                                               |                |                      [0]{}: instr 0x487-0x488.7 (2)
0x480|                     23                        |       #        |                        global.get: 0x23 (valid) 0x487-0x487.7 (1)
0x480|                        06                     |        .       |                        x: 6 0x488-0x488.7 (1)
0x480|                           05                  |         .      |                    else: 0x5 (valid) 0x489-0x489.7 (1)
     |                                               |                |                    in2[0:1]: 0x48a-0x48b.7 (2)
     |                                               |                |                      [0]{}: instr 0x48a-0x48b.7 (2)
0x480|                              41               |          A     |                        i32.const: 0x41 (valid) 0x48a-0x48a.7 (1)
0x480|                                 02            |           .    |                        n: 2 0x48b-0x48b.7 (1)
0x480|                                    0b         |            .   |                    end: 11 (valid) 0x48c-0x48c.7 (1)
     |                                               |                |                  [2]{}: in 0x48d-0x48d.7 (1)
0x480|                                       0b      |             .  |                    end: 0xb (valid) 0x48d-0x48d.7 (1)
     |                                               |                |            [26]{}: code 0x48e-0x49a.7 (13)
0x480|                                          0c   |              . |              size: 12 0x48e-0x48e.7 (1)
     |                                               |                |              code{}: 0x48f-0x49a.7 (12)
     |                                               |                |                t{}: 0x48f-0x48f.7 (1)
0x480|                                             00|               .|                  n: 0 0x48f-0x48f.7 (1)
     |                                               |                |                  x[0:0]: 0x490-NA (0)
     |                                               |                |                e[0:3]: 0x490-0x49a.7 (11)
     |                                               |                |                  [0]{}: in 0x490-0x491.7 (2)
0x490|41                                             |A               |                    i32.const: 0x41 (valid) 0x490-0x490.7 (1)
0x490|   00                                          | .              |                    n: 0 0x491-0x491.7 (1)
     |                                               |                |                  [1]{}: in 0x492-0x499.7 (8)
0x490|      04                                       |  .             |                    if: 0x4 (valid) 0x492-0x492.7 (1)
0x490|         7f                                    |   .            |                    bt: "i32" (127) 0x493-0x493.7 (1)
     |                                               |                |                    in1[0:1]: 0x494-0x495.7 (2)
     |                                               |                |                      [0]{}: instr 0x494-0x495.7 (2)
0x490|            41                                 |    A           |                        i32.const: 0x41 (valid) 0x494-0x494.7 (1)
0x490|               02                              |     .          |                        n: 2 0x495-0x495.7 (1)
0x490|                  05                           |      .         |                    else: 0x5 (valid) 0x496-0x496.7 (1)
     |                                               |                |                    in2[0:1]: 0x497-0x498.7 (2)
     |                                               |                |                      [0]{}: instr 0x497-0x498.7 (2)
0x490|                     23                        |       #        |                        global.get: 0x23 (valid) 0x497-0x497.7 (1)
0x490|                        06                     |        .       |                        x: 6 0x498-0x498.7 (1)
0x490|                           0b                  |         .      |                    end: 11 (valid) 0x499-0x499.7 (1)
     |                                               |                |                  [2]{}: in 0x49a-0x49a.7 (1)
0x490|                              0b               |          .     |                    end: 0xb (valid) 0x49a-0x49a.7 (1)
     |                                               |                |            [27]{}: code 0x49b-0x4a9.7 (15)
0x490|                                 0e            |           .    |              size: 14 0x49b-0x49b.7 (1)
     |                                               |                |              code{}: 0x49c-0x4a9.7 (14)
     |                                               |                |                t{}: 0x49c-0x49c.7 (1)
0x490|                                    00         |            .   |                  n: 0 0x49c-0x49c.7 (1)
     |                                               |                |                  x[0:0]: 0x49d-NA (0)
     |                                               |                |                e[0:2]: 0x49d-0x4a9.7 (13)
     |                                               |                |                  [0]{}: in 0x49d-0x4a8.7 (12)
0x490|                                       02      |             .  |                    block: 0x2 (valid) 0x49d-0x49d.7 (1)
0x490|                                          7f   |              . |                    bt: "i32" (127) 0x49e-0x49e.7 (1)
     |                                               |                |                    instructions[0:5]: 0x49f-0x4a7.7 (9)
     |                                               |                |                      [0]{}: instr 0x49f-0x4a0.7 (2)
0x490|                                             23|               #|                        global.get: 0x23 (valid) 0x49f-0x49f.7 (1)
0x4a0|06                                             |.               |                        x: 6 0x4a0-0x4a0.7 (1)
     |                                               |                |                      [1]{}: instr 0x4a1-0x4a2.7 (2)
0x4a0|   41                                          | A              |                        i32.const: 0x41 (valid) 0x4a1-0x4a1.7 (1)
0x4a0|      02                                       |  .             |                        n: 2 0x4a2-0x4a2.7 (1)
     |                                               |                |                      [2]{}: instr 0x4a3-0x4a4.7 (2)
0x4a0|         0d                                    |   .            |                        br_if: 0xd (valid) 0x4a3-0x4a3.7 (1)
0x4a0|            00                                 |    .           |                        l: 0 0x4a4-0x4a4.7 (1)
     |                                               |                |                      [3]{}: instr 0x4a5-0x4a6.7 (2)
0x4a0|               41                              |     A          |                        i32.const: 0x41 (valid) 0x4a5-0x4a5.7 (1)
0x4a0|                  03                           |      .         |                        n: 3 0x4a6-0x4a6.7 (1)
     |                                               |                |                      [4]{}: instr 0x4a7-0x4a7.7 (1)
0x4a0|                     0f                        |       .        |                        return: 0xf (valid) 0x4a7-0x4a7.7 (1)
0x4a0|                        0b                     |        .       |                    end: 11 (valid) 0x4a8-0x4a8.7 (1)
     |                                               |                |                  [1]{}: in 0x4a9-0x4a9.7 (1)
0x4a0|                           0b                  |         .      |                    end: 0xb (valid) 0x4a9-0x4a9.7 (1)
     |                                               |                |            [28]{}: code 0x4aa-0x4b8.7 (15)
0x4a0|                              0e               |          .     |              size: 14 0x4aa-0x4aa.7 (1)
     |                                               |                |              code{}: 0x4ab-0x4b8.7 (14)
     |                                               |                |                t{}: 0x4ab-0x4ab.7 (1)
0x4a0|                                 00            |           .    |                  n: 0 0x4ab-0x4ab.7 (1)
     |                                               |                |                  x[0:0]: 0x4ac-NA (0)
     |                                               |                |                e[0:2]: 0x4ac-0x4b8.7 (13)
     |                                               |                |                  [0]{}: in 0x4ac-0x4b7.7 (12)
0x4a0|                                    02         |            .   |                    block: 0x2 (valid) 0x4ac-0x4ac.7 (1)
0x4a0|                                       7f      |             .  |                    bt: "i32" (127) 0x4ad-0x4ad.7 (1)
     |                                               |                |                    instructions[0:5]: 0x4ae-0x4b6.7 (9)
     |                                               |                |                      [0]{}: instr 0x4ae-0x4af.7 (2)
0x4a0|                                          41   |              A |                        i32.const: 0x41 (valid) 0x4ae-0x4ae.7 (1)
0x4a0|                                             02|               .|                        n: 2 0x4af-0x4af.7 (1)
     |                                               |                |                      [1]{}: instr 0x4b0-0x4b1.7 (2)
0x4b0|23                                             |#               |                        global.get: 0x23 (valid) 0x4b0-0x4b0.7 (1)
0x4b0|   06                                          | .              |                        x: 6 0x4b1-0x4b1.7 (1)
     |                                               |                |                      [2]{}: instr 0x4b2-0x4b3.7 (2)
0x4b0|      0d                                       |  .             |                        br_if: 0xd (valid) 0x4b2-0x4b2.7 (1)
0x4b0|         00                                    |   .            |                        l: 0 0x4b3-0x4b3.7 (1)
     |                                               |                |                      [3]{}: instr 0x4b4-0x4b5.7 (2)
0x4b0|            41                                 |    A           |                        i32.const: 0x41 (valid) 0x4b4-0x4b4.7 (1)
0x4b0|               03                              |     .          |                        n: 3 0x4b5-0x4b5.7 (1)
     |                                               |                |                      [4]{}: instr 0x4b6-0x4b6.7 (1)
0x4b0|                  0f                           |      .         |                        return: 0xf (valid) 0x4b6-0x4b6.7 (1)
0x4b0|                     0b                        |       .        |                    end: 11 (valid) 0x4b7-0x4b7.7 (1)
     |                                               |                |                  [1]{}: in 0x4b8-0x4b8.7 (1)
0x4b0|                        0b                     |        .       |                    end: 0xb (valid) 0x4b8-0x4b8.7 (1)
     |                                               |                |            [29]{}: code 0x4b9-0x4c6.7 (14)
0x4b0|                           0d                  |         .      |              size: 13 0x4b9-0x4b9.7 (1)
     |                                               |                |              code{}: 0x4ba-0x4c6.7 (13)
     |                                               |                |                t{}: 0x4ba-0x4ba.7 (1)
0x4b0|                              00               |          .     |                  n: 0 0x4ba-0x4ba.7 (1)
     |                                               |                |                  x[0:0]: 0x4bb-NA (0)
     |                                               |                |                e[0:2]: 0x4bb-0x4c6.7 (12)
     |                                               |                |                  [0]{}: in 0x4bb-0x4c5.7 (11)
0x4b0|                                 02            |           .    |                    block: 0x2 (valid) 0x4bb-0x4bb.7 (1)
0x4b0|                                    7f         |            .   |                    bt: "i32" (127) 0x4bc-0x4bc.7 (1)
     |                                               |                |                    instructions[0:3]: 0x4bd-0x4c4.7 (8)
     |                                               |                |                      [0]{}: instr 0x4bd-0x4be.7 (2)
0x4b0|                                       23      |             #  |                        global.get: 0x23 (valid) 0x4bd-0x4bd.7 (1)
0x4b0|                                          06   |              . |                        x: 6 0x4be-0x4be.7 (1)
     |                                               |                |                      [1]{}: instr 0x4bf-0x4c0.7 (2)
0x4b0|                                             41|               A|                        i32.const: 0x41 (valid) 0x4bf-0x4bf.7 (1)
0x4c0|02                                             |.               |                        n: 2 0x4c0-0x4c0.7 (1)
     |                                               |                |                      [2]{}: instr 0x4c1-0x4c4.7 (4)
0x4c0|   0e                                          | .              |                        br_table: 0xe (valid) 0x4c1-0x4c1.7 (1)
     |                                               |                |                        l{}: 0x4c2-0x4c3.7 (2)
0x4c0|      01                                       |  .             |                          n: 1 0x4c2-0x4c2.7 (1)
     |                                               |                |                          x[0:1]: 0x4c3-0x4c3.7 (1)
0x4c0|         00                                    |   .            |                            [0]: 0 l 0x4c3-0x4c3.7 (1)
0x4c0|            00                                 |    .           |                        lN: 0 0x4c4-0x4c4.7 (1)
0x4c0|               0b                              |     .          |                    end: 11 (valid) 0x4c5-0x4c5.7 (1)
     |                                               |                |                  [1]{}: in 0x4c6-0x4c6.7 (1)
0x4c0|                  0b                           |      .         |                    end: 0xb (valid) 0x4c6-0x4c6.7 (1)
     |                                               |                |            [30]{}: code 0x4c7-0x4d4.7 (14)
0x4c0|                     0d                        |       .        |              size: 13 0x4c7-0x4c7.7 (1)
     |                                               |                |              code{}: 0x4c8-0x4d4.7 (13)
     |                                               |                |                t{}: 0x4c8-0x4c8.7 (1)
0x4c0|                        00                     |        .       |                  n: 0 0x4c8-0x4c8.7 (1)
     |                                               |                |                  x[0:0]: 0x4c9-NA (0)
     |                                               |                |                e[0:2]: 0x4c9-0x4d4.7 (12)
     |                                               |                |                  [0]{}: in 0x4c9-0x4d3.7 (11)
0x4c0|                           02                  |         .      |                    block: 0x2 (valid) 0x4c9-0x4c9.7 (1)
0x4c0|                              7f               |          .     |                    bt: "i32" (127) 0x4ca-0x4ca.7 (1)
     |                                               |                |                    instructions[0:3]: 0x4cb-0x4d2.7 (8)
     |                                               |                |                      [0]{}: instr 0x4cb-0x4cc.7 (2)
0x4c0|                                 41            |           A    |                        i32.const: 0x41 (valid) 0x4cb-0x4cb.7 (1)
0x4c0|                                    02         |            .   |                        n: 2 0x4cc-0x4cc.7 (1)
     |                                               |                |                      [1]{}: instr 0x4cd-0x4ce.7 (2)
0x4c0|                                       23      |             #  |                        global.get: 0x23 (valid) 0x4cd-0x4cd.7 (1)
0x4c0|                                          06   |              . |                        x: 6 0x4ce-0x4ce.7 (1)
     |                                               |                |                      [2]{}: instr 0x4cf-0x4d2.7 (4)
0x4c0|                                             0e|               .|                        br_table: 0xe (valid) 0x4cf-0x4cf.7 (1)
     |                                               |                |                        l{}: 0x4d0-0x4d1.7 (2)
0x4d0|01                                             |.               |                          n: 1 0x4d0-0x4d0.7 (1)
     |                                               |                |                          x[0:1]: 0x4d1-0x4d1.7 (1)
0x4d0|   00                                          | .              |                            [0]: 0 l 0x4d1-0x4d1.7 (1)
0x4d0|      00                                       |  .             |                        lN: 0 0x4d2-0x4d2.7 (1)
0x4d0|         0b                                    |   .            |                    end: 11 (valid) 0x4d3-0x4d3.7 (1)
     |                                               |                |                  [1]{}: in 0x4d4-0x4d4.7 (1)
0x4d0|            0b                                 |    .           |                    end: 0xb (valid) 0x4d4-0x4d4.7 (1)
     |                                               |                |            [31]{}: code 0x4d5-0x4d9.7 (5)
0x4d0|               04                              |     .          |              size: 4 0x4d5-0x4d5.7 (1)
     |                                               |                |              code{}: 0x4d6-0x4d9.7 (4)
     |                                               |                |                t{}: 0x4d6-0x4d6.7 (1)
0x4d0|                  00                           |      .         |                  n: 0 0x4d6-0x4d6.7 (1)
     |                                               |                |                  x[0:0]: 0x4d7-NA (0)
     |                                               |                |                e[0:2]: 0x4d7-0x4d9.7 (3)
     |                                               |                |                  [0]{}: in 0x4d7-0x4d8.7 (2)
0x4d0|                     20                        |                |                    local.get: 0x20 (valid) 0x4d7-0x4d7.7 (1)
0x4d0|                        00                     |        .       |                    x: 0 0x4d8-0x4d8.7 (1)
     |                                               |                |                  [1]{}: in 0x4d9-0x4d9.7 (1)
0x4d0|                           0b                  |         .      |                    end: 0xb (valid) 0x4d9-0x4d9.7 (1)
     |                                               |                |            [32]{}: code 0x4da-0x4e8.7 (15)
0x4d0|                              0e               |          .     |              size: 14 0x4da-0x4da.7 (1)
     |                                               |                |              code{}: 0x4db-0x4e8.7 (14)
     |                                               |                |                t{}: 0x4db-0x4db.7 (1)
0x4d0|                                 00            |           .    |                  n: 0 0x4db-0x4db.7 (1)
     |                                               |                |                  x[0:0]: 0x4dc-NA (0)
     |                                               |                |                e[0:2]: 0x4dc-0x4e8.7 (13)
     |                                               |                |                  [0]{}: in 0x4dc-0x4e7.7 (12)
0x4d0|                                    02         |            .   |                    block: 0x2 (valid) 0x4dc-0x4dc.7 (1)
0x4d0|                                       7f      |             .  |                    bt: "i32" (127) 0x4dd-0x4dd.7 (1)
     |                                               |                |                    instructions[0:4]: 0x4de-0x4e6.7 (9)
     |                                               |                |                      [0]{}: instr 0x4de-0x4df.7 (2)
0x4d0|                                          23   |              # |                        global.get: 0x23 (valid) 0x4de-0x4de.7 (1)
0x4d0|                                             06|               .|                        x: 6 0x4df-0x4df.7 (1)
     |                                               |                |                      [1]{}: instr 0x4e0-0x4e1.7 (2)
0x4e0|41                                             |A               |                        i32.const: 0x41 (valid) 0x4e0-0x4e0.7 (1)
0x4e0|   02                                          | .              |                        n: 2 0x4e1-0x4e1.7 (1)
     |                                               |                |                      [2]{}: instr 0x4e2-0x4e3.7 (2)
0x4e0|      41                                       |  A             |                        i32.const: 0x41 (valid) 0x4e2-0x4e2.7 (1)
0x4e0|         00                                    |   .            |                        n: 0 0x4e3-0x4e3.7 (1)
     |                                               |                |                      [3]{}: instr 0x4e4-0x4e6.7 (3)
0x4e0|            11                                 |    .           |                        call: 0x11 (valid) 0x4e4-0x4e4.7 (1)
0x4e0|               00                              |     .          |                        y: 0 0x4e5-0x4e5.7 (1)
0x4e0|                  00                           |      .         |                        x: 0 0x4e6-0x4e6.7 (1)
0x4e0|                     0b                        |       .        |                    end: 11 (valid) 0x4e7-0x4e7.7 (1)
     |                                               |                |                  [1]{}: in 0x4e8-0x4e8.7 (1)
0x4e0|                        0b                     |        .       |                    end: 0xb (valid) 0x4e8-0x4e8.7 (1)
     |                                               |                |            [33]{}: code 0x4e9-0x4f7.7 (15)
0x4e0|                           0e                  |         .      |              size: 14 0x4e9-0x4e9.7 (1)
     |                                               |                |              code{}: 0x4ea-0x4f7.7 (14)
     |                                               |                |                t{}: 0x4ea-0x4ea.7 (1)
0x4e0|                              00               |          .     |                  n: 0 0x4ea-0x4ea.7 (1)
     |                                               |                |                  x[0:0]: 0x4eb-NA (0)
     |                                               |                |                e[0:2]: 0x4eb-0x4f7.7 (13)
     |                                               |                |                  [0]{}: in 0x4eb-0x4f6.7 (12)
0x4e0|                                 02            |           .    |                    block: 0x2 (valid) 0x4eb-0x4eb.7 (1)
0x4e0|                                    7f         |            .   |                    bt: "i32" (127) 0x4ec-0x4ec.7 (1)
     |                                               |                |                    instructions[0:4]: 0x4ed-0x4f5.7 (9)
     |                                               |                |                      [0]{}: instr 0x4ed-0x4ee.7 (2)
0x4e0|                                       41      |             A  |                        i32.const: 0x41 (valid) 0x4ed-0x4ed.7 (1)
0x4e0|                                          02   |              . |                        n: 2 0x4ee-0x4ee.7 (1)
     |                                               |                |                      [1]{}: instr 0x4ef-0x4f0.7 (2)
0x4e0|                                             23|               #|                        global.get: 0x23 (valid) 0x4ef-0x4ef.7 (1)
0x4f0|06                                             |.               |                        x: 6 0x4f0-0x4f0.7 (1)
     |                                               |                |                      [2]{}: instr 0x4f1-0x4f2.7 (2)
0x4f0|   41                                          | A              |                        i32.const: 0x41 (valid) 0x4f1-0x4f1.7 (1)
0x4f0|      00                                       |  .             |                        n: 0 0x4f2-0x4f2.7 (1)
     |                                               |                |                      [3]{}: instr 0x4f3-0x4f5.7 (3)
0x4f0|         11                                    |   .            |                        call: 0x11 (valid) 0x4f3-0x4f3.7 (1)
0x4f0|            00                                 |    .           |                        y: 0 0x4f4-0x4f4.7 (1)
0x4f0|               00                              |     .          |                        x: 0 0x4f5-0x4f5.7 (1)
0x4f0|                  0b                           |      .         |                    end: 11 (valid) 0x4f6-0x4f6.7 (1)
     |                                               |                |                  [1]{}: in 0x4f7-0x4f7.7 (1)
0x4f0|                     0b                        |       .        |                    end: 0xb (valid) 0x4f7-0x4f7.7 (1)
     |                                               |                |            [34]{}: code 0x4f8-0x506.7 (15)
0x4f0|                        0e                     |        .       |              size: 14 0x4f8-0x4f8.7 (1)
     |                                               |                |              code{}: 0x4f9-0x506.7 (14)
     |                                               |                |                t{}: 0x4f9-0x4f9.7 (1)
0x4f0|                           00                  |         .      |                  n: 0 0x4f9-0x4f9.7 (1)
     |                                               |                |                  x[0:0]: 0x4fa-NA (0)
     |                                               |                |                e[0:2]: 0x4fa-0x506.7 (13)
     |                                               |                |                  [0]{}: in 0x4fa-0x505.7 (12)
0x4f0|                              02               |          .     |                    block: 0x2 (valid) 0x4fa-0x4fa.7 (1)
0x4f0|                                 7f            |           .    |                    bt: "i32" (127) 0x4fb-0x4fb.7 (1)
     |                                               |                |                    instructions[0:4]: 0x4fc-0x504.7 (9)
     |                                               |                |                      [0]{}: instr 0x4fc-0x4fd.7 (2)
0x4f0|                                    41         |            A   |                        i32.const: 0x41 (valid) 0x4fc-0x4fc.7 (1)
0x4f0|                                       02      |             .  |                        n: 2 0x4fd-0x4fd.7 (1)
     |                                               |                |                      [1]{}: instr 0x4fe-0x4ff.7 (2)
0x4f0|                                          41   |              A |                        i32.const: 0x41 (valid) 0x4fe-0x4fe.7 (1)
0x4f0|                                             00|               .|                        n: 0 0x4ff-0x4ff.7 (1)
     |                                               |                |                      [2]{}: instr 0x500-0x501.7 (2)
0x500|23                                             |#               |                        global.get: 0x23 (valid) 0x500-0x500.7 (1)
0x500|   06                                          | .              |                        x: 6 0x501-0x501.7 (1)
     |                                               |                |                      [3]{}: instr 0x502-0x504.7 (3)
0x500|      11                                       |  .             |                        call: 0x11 (valid) 0x502-0x502.7 (1)
0x500|         00                                    |   .            |                        y: 0 0x503-0x503.7 (1)
0x500|            00                                 |    .           |                        x: 0 0x504-0x504.7 (1)
0x500|               0b                              |     .          |                    end: 11 (valid) 0x505-0x505.7 (1)
     |                                               |                |                  [1]{}: in 0x506-0x506.7 (1)
0x500|                  0b                           |      .         |                    end: 0xb (valid) 0x506-0x506.7 (1)
     |                                               |                |            [35]{}: code 0x507-0x510.7 (10)
0x500|                     09                        |       .        |              size: 9 0x507-0x507.7 (1)
     |                                               |                |              code{}: 0x508-0x510.7 (9)
     |                                               |                |                t{}: 0x508-0x508.7 (1)
0x500|                        00                     |        .       |                  n: 0 0x508-0x508.7 (1)
     |                                               |                |                  x[0:0]: 0x509-NA (0)
     |                                               |                |                e[0:4]: 0x509-0x510.7 (8)
     |                                               |                |                  [0]{}: in 0x509-0x50a.7 (2)
0x500|                           23                  |         #      |                    global.get: 0x23 (valid) 0x509-0x509.7 (1)
0x500|                              06               |          .     |                    x: 6 0x50a-0x50a.7 (1)
     |                                               |                |                  [1]{}: in 0x50b-0x50c.7 (2)
0x500|                                 41            |           A    |                    i32.const: 0x41 (valid) 0x50b-0x50b.7 (1)
0x500|                                    01         |            .   |                    n: 1 0x50c-0x50c.7 (1)
     |                                               |                |                  [2]{}: in 0x50d-0x50f.7 (3)
0x500|                                       36      |             6  |                    i32.store: 0x36 (valid) 0x50d-0x50d.7 (1)
     |                                               |                |                    m{}: 0x50e-0x50f.7 (2)
0x500|                                          02   |              . |                      a: 2 0x50e-0x50e.7 (1)
0x500|                                             00|               .|                      o: 0 0x50f-0x50f.7 (1)
     |                                               |                |                  [3]{}: in 0x510-0x510.7 (1)
0x510|0b                                             |.               |                    end: 0xb (valid) 0x510-0x510.7 (1)
     |                                               |                |            [36]{}: code 0x511-0x51a.7 (10)
0x510|   09                                          | .              |              size: 9 0x511-0x511.7 (1)
     |                                               |                |              code{}: 0x512-0x51a.7 (9)
     |                                               |                |                t{}: 0x512-0x512.7 (1)
0x510|      00                                       |  .             |                  n: 0 0x512-0x512.7 (1)
     |                                               |                |                  x[0:0]: 0x513-NA (0)
     |                                               |                |                e[0:4]: 0x513-0x51a.7 (8)
     |                                               |                |                  [0]{}: in 0x513-0x514.7 (2)
0x510|         41                                    |   A            |                    i32.const: 0x41 (valid) 0x513-0x513.7 (1)
0x510|            00                                 |    .           |                    n: 0 0x514-0x514.7 (1)
     |                                               |                |                  [1]{}: in 0x515-0x516.7 (2)
0x510|               23                              |     #          |                    global.get: 0x23 (valid) 0x515-0x515.7 (1)
0x510|                  06                           |      .         |                    x: 6 0x516-0x516.7 (1)
     |                                               |                |                  [2]{}: in 0x517-0x519.7 (3)
0x510|                     36                        |       6        |                    i32.store: 0x36 (valid) 0x517-0x517.7 (1)
     |                                               |                |                    m{}: 0x518-0x519.7 (2)
0x510|                        02                     |        .       |                      a: 2 0x518-0x518.7 (1)
0x510|                           00                  |         .      |                      o: 0 0x519-0x519.7 (1)
     |                                               |                |                  [3]{}: in 0x51a-0x51a.7 (1)
0x510|                              0b               |          .     |                    end: 0xb (valid) 0x51a-0x51a.7 (1)
     |                                               |                |            [37]{}: code 0x51b-0x522.7 (8)
0x510|                                 07            |           .    |              size: 7 0x51b-0x51b.7 (1)
     |                                               |                |              code{}: 0x51c-0x522.7 (7)
     |                                               |                |                t{}: 0x51c-0x51c.7 (1)
0x510|                                    00         |            .   |                  n: 0 0x51c-0x51c.7 (1)
     |                                               |                |                  x[0:0]: 0x51d-NA (0)
     |                                               |                |                e[0:3]: 0x51d-0x522.7 (6)
     |                                               |                |                  [0]{}: in 0x51d-0x51e.7 (2)
0x510|                                       23      |             #  |                    global.get: 0x23 (valid) 0x51d-0x51d.7 (1)
0x510|                                          06   |              . |                    x: 6 0x51e-0x51e.7 (1)
     |                                               |                |                  [1]{}: in 0x51f-0x521.7 (3)
0x510|                                             28|               (|                    i32.load: 0x28 (valid) 0x51f-0x51f.7 (1)
     |                                               |                |                    m{}: 0x520-0x521.7 (2)
0x520|02                                             |.               |                      a: 2 0x520-0x520.7 (1)
0x520|   00                                          | .              |                      o: 0 0x521-0x521.7 (1)
     |                                               |                |                  [2]{}: in 0x522-0x522.7 (1)
0x520|      0b                                       |  .             |                    end: 0xb (valid) 0x522-0x522.7 (1)
     |                                               |                |            [38]{}: code 0x523-0x529.7 (7)
0x520|         06                                    |   .            |              size: 6 0x523-0x523.7 (1)
     |                                               |                |              code{}: 0x524-0x529.7 (6)
     |                                               |                |                t{}: 0x524-0x524.7 (1)
0x520|            00                                 |    .           |                  n: 0 0x524-0x524.7 (1)
     |                                               |                |                  x[0:0]: 0x525-NA (0)
     |                                               |                |                e[0:3]: 0x525-0x529.7 (5)
     |                                               |                |                  [0]{}: in 0x525-0x526.7 (2)
0x520|               23                              |     #          |                    global.get: 0x23 (valid) 0x525-0x525.7 (1)
0x520|                  06                           |      .         |                    x: 6 0x526-0x526.7 (1)
     |                                               |                |                  [1]{}: in 0x527-0x528.7 (2)
0x520|                     40                        |       @        |                    memory.grow: 0x40 (valid) 0x527-0x527.7 (1)
0x520|                        00                     |        .       |                    reserved: 0x0 (valid) 0x528-0x528.7 (1)
     |                                               |                |                  [2]{}: in 0x529-0x529.7 (1)
0x520|                           0b                  |         .      |                    end: 0xb (valid) 0x529-0x529.7 (1)
     |                                               |                |            [39]{}: code 0x52a-0x52e.7 (5)
0x520|                              04               |          .     |              size: 4 0x52a-0x52a.7 (1)
     |                                               |                |              code{}: 0x52b-0x52e.7 (4)
     |                                               |                |                t{}: 0x52b-0x52b.7 (1)
0x520|                                 00            |           .    |                  n: 0 0x52b-0x52b.7 (1)
     |                                               |                |                  x[0:0]: 0x52c-NA (0)
     |                                               |                |                e[0:2]: 0x52c-0x52e.7 (3)
     |                                               |                |                  [0]{}: in 0x52c-0x52d.7 (2)
0x520|                                    20         |                |                    local.get: 0x20 (valid) 0x52c-0x52c.7 (1)
0x520|                                       00      |             .  |                    x: 0 0x52d-0x52d.7 (1)
     |                                               |                |                  [1]{}: in 0x52e-0x52e.7 (1)
0x520|                                          0b   |              . |                    end: 0xb (valid) 0x52e-0x52e.7 (1)
     |                                               |                |            [40]{}: code 0x52f-0x535.7 (7)
0x520|                                             06|               .|              size: 6 0x52f-0x52f.7 (1)
     |                                               |                |              code{}: 0x530-0x535.7 (6)
     |                                               |                |                t{}: 0x530-0x530.7 (1)
0x530|00                                             |.               |                  n: 0 0x530-0x530.7 (1)
     |                                               |                |                  x[0:0]: 0x531-NA (0)
     |                                               |                |                e[0:3]: 0x531-0x535.7 (5)
     |                                               |                |                  [0]{}: in 0x531-0x532.7 (2)
0x530|   23                                          | #              |                    global.get: 0x23 (valid) 0x531-0x531.7 (1)
0x530|      06                                       |  .             |                    x: 6 0x532-0x532.7 (1)
     |                                               |                |                  [1]{}: in 0x533-0x534.7 (2)
0x530|         10                                    |   .            |                    call: 0x10 (valid) 0x533-0x533.7 (1)
0x530|            27                                 |    '           |                    x: 39 0x534-0x534.7 (1)
     |                                               |                |                  [2]{}: in 0x535-0x535.7 (1)
0x530|               0b                              |     .          |                    end: 0xb (valid) 0x535-0x535.7 (1)
     |                                               |                |            [41]{}: code 0x536-0x53b.7 (6)
0x530|                  05                           |      .         |              size: 5 0x536-0x536.7 (1)
     |                                               |                |              code{}: 0x537-0x53b.7 (5)
     |                                               |                |                t{}: 0x537-0x537.7 (1)
0x530|                     00                        |       .        |                  n: 0 0x537-0x537.7 (1)
     |                                               |                |                  x[0:0]: 0x538-NA (0)
     |                                               |                |                e[0:3]: 0x538-0x53b.7 (4)
     |                                               |                |                  [0]{}: in 0x538-0x539.7 (2)
0x530|                        23                     |        #       |                    global.get: 0x23 (valid) 0x538-0x538.7 (1)
0x530|                           06                  |         .      |                    x: 6 0x539-0x539.7 (1)
     |                                               |                |                  [1]{}: in 0x53a-0x53a.7 (1)
0x530|                              0f               |          .     |                    return: 0xf (valid) 0x53a-0x53a.7 (1)
     |                                               |                |                  [2]{}: in 0x53b-0x53b.7 (1)
0x530|                                 0b            |           .    |                    end: 0xb (valid) 0x53b-0x53b.7 (1)
     |                                               |                |            [42]{}: code 0x53c-0x541.7 (6)
0x530|                                    05         |            .   |              size: 5 0x53c-0x53c.7 (1)
     |                                               |                |              code{}: 0x53d-0x541.7 (5)
     |                                               |                |                t{}: 0x53d-0x53d.7 (1)
0x530|                                       00      |             .  |                  n: 0 0x53d-0x53d.7 (1)
     |                                               |                |                  x[0:0]: 0x53e-NA (0)
     |                                               |                |                e[0:3]: 0x53e-0x541.7 (4)
     |                                               |                |                  [0]{}: in 0x53e-0x53f.7 (2)
0x530|                                          23   |              # |                    global.get: 0x23 (valid) 0x53e-0x53e.7 (1)
0x530|                                             06|               .|                    x: 6 0x53f-0x53f.7 (1)
     |                                               |                |                  [1]{}: in 0x540-0x540.7 (1)
0x540|1a                                             |.               |                    drop: 0x1a (valid) 0x540-0x540.7 (1)
     |                                               |                |                  [2]{}: in 0x541-0x541.7 (1)
0x540|   0b                                          | .              |                    end: 0xb (valid) 0x541-0x541.7 (1)
     |                                               |                |            [43]{}: code 0x542-0x54b.7 (10)
0x540|      09                                       |  .             |              size: 9 0x542-0x542.7 (1)
     |                                               |                |              code{}: 0x543-0x54b.7 (9)
     |                                               |                |                t{}: 0x543-0x543.7 (1)
0x540|         00                                    |   .            |                  n: 0 0x543-0x543.7 (1)
     |                                               |                |                  x[0:0]: 0x544-NA (0)
     |                                               |                |                e[0:2]: 0x544-0x54b.7 (8)
     |                                               |                |                  [0]{}: in 0x544-0x54a.7 (7)
0x540|            02                                 |    .           |                    block: 0x2 (valid) 0x544-0x544.7 (1)
0x540|               7f                              |     .          |                    bt: "i32" (127) 0x545-0x545.7 (1)
     |                                               |                |                    instructions[0:2]: 0x546-0x549.7 (4)
     |                                               |                |                      [0]{}: instr 0x546-0x547.7 (2)
0x540|                  23                           |      #         |                        global.get: 0x23 (valid) 0x546-0x546.7 (1)
0x540|                     06                        |       .        |                        x: 6 0x547-0x547.7 (1)
     |                                               |                |                      [1]{}: instr 0x548-0x549.7 (2)
0x540|                        0c                     |        .       |                        br: 0xc (valid) 0x548-0x548.7 (1)
0x540|                           00                  |         .      |                        l: 0 0x549-0x549.7 (1)
0x540|                              0b               |          .     |                    end: 11 (valid) 0x54a-0x54a.7 (1)
     |                                               |                |                  [1]{}: in 0x54b-0x54b.7 (1)
0x540|                                 0b            |           .    |                    end: 0xb (valid) 0x54b-0x54b.7 (1)
     |                                               |                |            [44]{}: code 0x54c-0x554.7 (9)
0x540|                                    08         |            .   |              size: 8 0x54c-0x54c.7 (1)
     |                                               |                |              code{}: 0x54d-0x554.7 (8)
     |                                               |                |                t{}: 0x54d-0x54d.7 (1)
0x540|                                       00      |             .  |                  n: 0 0x54d-0x54d.7 (1)
     |                                               |                |                  x[0:0]: 0x54e-NA (0)
     |                                               |                |                e[0:4]: 0x54e-0x554.7 (7)
     |                                               |                |                  [0]{}: in 0x54e-0x54f.7 (2)
0x540|                                          23   |              # |                    global.get: 0x23 (valid) 0x54e-0x54e.7 (1)
0x540|                                             06|               .|                    x: 6 0x54f-0x54f.7 (1)
     |                                               |                |                  [1]{}: in 0x550-0x551.7 (2)
0x550|21                                             |!               |                    local.set: 0x21 (valid) 0x550-0x550.7 (1)
0x550|   00                                          | .              |                    x: 0 0x551-0x551.7 (1)
     |                                               |                |                  [2]{}: in 0x552-0x553.7 (2)
0x550|      20                                       |                |                    local.get: 0x20 (valid) 0x552-0x552.7 (1)
0x550|         00                                    |   .            |                    x: 0 0x553-0x553.7 (1)
     |                                               |                |                  [3]{}: in 0x554-0x554.7 (1)
0x550|            0b                                 |    .           |                    end: 0xb (valid) 0x554-0x554.7 (1)
     |                                               |                |            [45]{}: code 0x555-0x55b.7 (7)
0x550|               06                              |     .          |              size: 6 0x555-0x555.7 (1)
     |                                               |                |              code{}: 0x556-0x55b.7 (6)
     |                                               |                |                t{}: 0x556-0x556.7 (1)
0x550|                  00                           |      .         |                  n: 0 0x556-0x556.7 (1)
     |                                               |                |                  x[0:0]: 0x557-NA (0)
     |                                               |                |                e[0:3]: 0x557-0x55b.7 (5)
     |                                               |                |                  [0]{}: in 0x557-0x558.7 (2)
0x550|                     23                        |       #        |                    global.get: 0x23 (valid) 0x557-0x557.7 (1)
0x550|                        06                     |        .       |                    x: 6 0x558-0x558.7 (1)
     |                                               |                |                  [1]{}: in 0x559-0x55a.7 (2)
0x550|                           22                  |         "      |                    local.tee: 0x22 (valid) 0x559-0x559.7 (1)
0x550|                              00               |          .     |                    x: 0 0x55a-0x55a.7 (1)
     |                                               |                |                  [2]{}: in 0x55b-0x55b.7 (1)
0x550|                                 0b            |           .    |                    end: 0xb (valid) 0x55b-0x55b.7 (1)
     |                                               |                |            [46]{}: code 0x55c-0x564.7 (9)
0x550|                                    08         |            .   |              size: 8 0x55c-0x55c.7 (1)
     |                                               |                |              code{}: 0x55d-0x564.7 (8)
     |                                               |                |                t{}: 0x55d-0x55d.7 (1)
0x550|                                       00      |             .  |                  n: 0 0x55d-0x55d.7 (1)
     |                                               |                |                  x[0:0]: 0x55e-NA (0)
     |                                               |                |                e[0:4]: 0x55e-0x564.7 (7)
     |                                               |                |                  [0]{}: in 0x55e-0x55f.7 (2)
0x550|                                          23   |              # |                    global.get: 0x23 (valid) 0x55e-0x55e.7 (1)
0x550|                                             06|               .|                    x: 6 0x55f-0x55f.7 (1)
     |                                               |                |                  [1]{}: in 0x560-0x561.7 (2)
0x560|24                                             |$               |                    global.set: 0x24 (valid) 0x560-0x560.7 (1)
0x560|   06                                          | .              |                    x: 6 0x561-0x561.7 (1)
     |                                               |                |                  [2]{}: in 0x562-0x563.7 (2)
0x560|      23                                       |  #             |                    global.get: 0x23 (valid) 0x562-0x562.7 (1)
0x560|         06                                    |   .            |                    x: 6 0x563-0x563.7 (1)
     |                                               |                |                  [3]{}: in 0x564-0x564.7 (1)
0x560|            0b                                 |    .           |                    end: 0xb (valid) 0x564-0x564.7 (1)
     |                                               |                |            [47]{}: code 0x565-0x56a.7 (6)
0x560|               05                              |     .          |              size: 5 0x565-0x565.7 (1)
     |                                               |                |              code{}: 0x566-0x56a.7 (5)
     |                                               |                |                t{}: 0x566-0x566.7 (1)
0x560|                  00                           |      .         |                  n: 0 0x566-0x566.7 (1)
     |                                               |                |                  x[0:0]: 0x567-NA (0)
     |                                               |                |                e[0:3]: 0x567-0x56a.7 (4)
     |                                               |                |                  [0]{}: in 0x567-0x568.7 (2)
0x560|                     23                        |       #        |                    global.get: 0x23 (valid) 0x567-0x567.7 (1)
0x560|                        06                     |        .       |                    x: 6 0x568-0x568.7 (1)
     |                                               |                |                  [1]{}: in 0x569-0x569.7 (1)
0x560|                           45                  |         E      |                    i32.eqz: 0x45 (valid) 0x569-0x569.7 (1)
     |                                               |                |                  [2]{}: in 0x56a-0x56a.7 (1)
0x560|                              0b               |          .     |                    end: 0xb (valid) 0x56a-0x56a.7 (1)
     |                                               |                |            [48]{}: code 0x56b-0x572.7 (8)
0x560|                                 07            |           .    |              size: 7 0x56b-0x56b.7 (1)
     |                                               |                |              code{}: 0x56c-0x572.7 (7)
     |                                               |                |                t{}: 0x56c-0x56c.7 (1)
0x560|                                    00         |            .   |                  n: 0 0x56c-0x56c.7 (1)
     |                                               |                |                  x[0:0]: 0x56d-NA (0)
     |                                               |                |                e[0:4]: 0x56d-0x572.7 (6)
     |                                               |                |                  [0]{}: in 0x56d-0x56e.7 (2)
0x560|                                       23      |             #  |                    global.get: 0x23 (valid) 0x56d-0x56d.7 (1)
0x560|                                          06   |              . |                    x: 6 0x56e-0x56e.7 (1)
     |                                               |                |                  [1]{}: in 0x56f-0x570.7 (2)
0x560|                                             23|               #|                    global.get: 0x23 (valid) 0x56f-0x56f.7 (1)
0x570|06                                             |.               |                    x: 6 0x570-0x570.7 (1)
     |                                               |                |                  [2]{}: in 0x571-0x571.7 (1)
0x570|   6c                                          | l              |                    i32.mul: 0x6c (valid) 0x571-0x571.7 (1)
     |                                               |                |                  [3]{}: in 0x572-0x572.7 (1)
0x570|      0b                                       |  .             |                    end: 0xb (valid) 0x572-0x572.7 (1)
     |                                               |                |            [49]{}: code 0x573-0x57a.7 (8)
0x570|         07                                    |   .            |              size: 7 0x573-0x573.7 (1)
     |                                               |                |              code{}: 0x574-0x57a.7 (7)
     |                                               |                |                t{}: 0x574-0x574.7 (1)
0x570|            00                                 |    .           |                  n: 0 0x574-0x574.7 (1)
     |                                               |                |                  x[0:0]: 0x575-NA (0)
     |                                               |                |                e[0:4]: 0x575-0x57a.7 (6)
     |                                               |                |                  [0]{}: in 0x575-0x576.7 (2)
0x570|               23                              |     #          |                    global.get: 0x23 (valid) 0x575-0x575.7 (1)
0x570|                  00                           |      .         |                    x: 0 0x576-0x576.7 (1)
     |                                               |                |                  [1]{}: in 0x577-0x578.7 (2)
0x570|                     41                        |       A        |                    i32.const: 0x41 (valid) 0x577-0x577.7 (1)
0x570|                        01                     |        .       |                    n: 1 0x578-0x578.7 (1)
     |                                               |                |                  [2]{}: in 0x579-0x579.7 (1)
0x570|                           4b                  |         K      |                    i32.gt_u: 0x4b (valid) 0x579-0x579.7 (1)
     |                                               |                |                  [3]{}: in 0x57a-0x57a.7 (1)
0x570|                              0b|              |          .|    |                    end: 0xb (valid) 0x57a-0x57a.7 (1)
