$ fq -d wasm dv i32-0.wasm
     |00 01 02 03 04 05 06 07 08 09 0a 0b 0c 0d 0e 0f|0123456789abcdef|.{}: i32-0.wasm (wasm) 0x0-0x208.7 (521)
0x000|00 61 73 6d                                    |.asm            |  magic: raw bits (valid) 0x0-0x3.7 (4)
0x000|            01 00 00 00                        |    ....        |  version: 1 0x4-0x7.7 (4)
     |                                               |                |  sections[0:4]: 0x8-0x208.7 (513)
     |                                               |                |    [0]{}: section 0x8-0x15.7 (14)
0x000|                        01                     |        .       |      id: "type section" (1) 0x8-0x8.7 (1)
0x000|                           0c                  |         .      |      size: 12 0x9-0x9.7 (1)
     |                                               |                |      content{}: 0xa-0x15.7 (12)
     |                                               |                |        ft{}: 0xa-0x15.7 (12)
0x000|                              02               |          .     |          n: 2 0xa-0xa.7 (1)
     |                                               |                |          x[0:2]: 0xb-0x15.7 (11)
     |                                               |                |            [0]{}: ft 0xb-0x10.7 (6)
0x000|                                 60            |           `    |              tag: 0x60 (valid) 0xb-0xb.7 (1)
     |                                               |                |              rt1{}: 0xc-0xe.7 (3)
0x000|                                    02         |            .   |                n: 2 0xc-0xc.7 (1)
     |                                               |                |                x[0:2]: 0xd-0xe.7 (2)
0x000|                                       7f      |             .  |                  [0]: "i32" (0x7f) t 0xd-0xd.7 (1)
0x000|                                          7f   |              . |                  [1]: "i32" (0x7f) t 0xe-0xe.7 (1)
     |                                               |                |              rt2{}: 0xf-0x10.7 (2)
0x000|                                             01|               .|                n: 1 0xf-0xf.7 (1)
     |                                               |                |                x[0:1]: 0x10-0x10.7 (1)
0x010|7f                                             |.               |                  [0]: "i32" (0x7f) t 0x10-0x10.7 (1)
     |                                               |                |            [1]{}: ft 0x11-0x15.7 (5)
0x010|   60                                          | `              |              tag: 0x60 (valid) 0x11-0x11.7 (1)
     |                                               |                |              rt1{}: 0x12-0x13.7 (2)
0x010|      01                                       |  .             |                n: 1 0x12-0x12.7 (1)
     |                                               |                |                x[0:1]: 0x13-0x13.7 (1)
0x010|         7f                                    |   .            |                  [0]: "i32" (0x7f) t 0x13-0x13.7 (1)
     |                                               |                |              rt2{}: 0x14-0x15.7 (2)
0x010|            01                                 |    .           |                n: 1 0x14-0x14.7 (1)
     |                                               |                |                x[0:1]: 0x15-0x15.7 (1)
0x010|               7f                              |     .          |                  [0]: "i32" (0x7f) t 0x15-0x15.7 (1)
     |                                               |                |    [1]{}: section 0x16-0x37.7 (34)
0x010|                  03                           |      .         |      id: "function section" (3) 0x16-0x16.7 (1)
0x010|                     20                        |                |      size: 32 0x17-0x17.7 (1)
     |                                               |                |      content{}: 0x18-0x37.7 (32)
     |                                               |                |        x{}: 0x18-0x37.7 (32)
0x010|                        1f                     |        .       |          n: 31 0x18-0x18.7 (1)
     |                                               |                |          x[0:31]: 0x19-0x37.7 (31)
0x010|                           00                  |         .      |            [0]: 0 x 0x19-0x19.7 (1)
0x010|                              00               |          .     |            [1]: 0 x 0x1a-0x1a.7 (1)
0x010|                                 00            |           .    |            [2]: 0 x 0x1b-0x1b.7 (1)
0x010|                                    00         |            .   |            [3]: 0 x 0x1c-0x1c.7 (1)
0x010|                                       00      |             .  |            [4]: 0 x 0x1d-0x1d.7 (1)
0x010|                                          00   |              . |            [5]: 0 x 0x1e-0x1e.7 (1)
0x010|                                             00|               .|            [6]: 0 x 0x1f-0x1f.7 (1)
0x020|00                                             |.               |            [7]: 0 x 0x20-0x20.7 (1)
0x020|   00                                          | .              |            [8]: 0 x 0x21-0x21.7 (1)
0x020|      00                                       |  .             |            [9]: 0 x 0x22-0x22.7 (1)
0x020|         00                                    |   .            |            [10]: 0 x 0x23-0x23.7 (1)
0x020|            00                                 |    .           |            [11]: 0 x 0x24-0x24.7 (1)
0x020|               00                              |     .          |            [12]: 0 x 0x25-0x25.7 (1)
0x020|                  00                           |      .         |            [13]: 0 x 0x26-0x26.7 (1)
0x020|                     00                        |       .        |            [14]: 0 x 0x27-0x27.7 (1)
0x020|                        01                     |        .       |            [15]: 1 x 0x28-0x28.7 (1)
0x020|                           01                  |         .      |            [16]: 1 x 0x29-0x29.7 (1)
0x020|                              01               |          .     |            [17]: 1 x 0x2a-0x2a.7 (1)
0x020|                                 01            |           .    |            [18]: 1 x 0x2b-0x2b.7 (1)
0x020|                                    01         |            .   |            [19]: 1 x 0x2c-0x2c.7 (1)
0x020|                                       01      |             .  |            [20]: 1 x 0x2d-0x2d.7 (1)
0x020|                                          00   |              . |            [21]: 0 x 0x2e-0x2e.7 (1)
0x020|                                             00|               .|            [22]: 0 x 0x2f-0x2f.7 (1)
0x030|00                                             |.               |            [23]: 0 x 0x30-0x30.7 (1)
0x030|   00                                          | .              |            [24]: 0 x 0x31-0x31.7 (1)
0x030|      00                                       |  .             |            [25]: 0 x 0x32-0x32.7 (1)
0x030|         00                                    |   .            |            [26]: 0 x 0x33-0x33.7 (1)
0x030|            00                                 |    .           |            [27]: 0 x 0x34-0x34.7 (1)
0x030|               00                              |     .          |            [28]: 0 x 0x35-0x35.7 (1)
0x030|                  00                           |      .         |            [29]: 0 x 0x36-0x36.7 (1)
0x030|                     00                        |       .        |            [30]: 0 x 0x37-0x37.7 (1)
     |                                               |                |    [2]{}: section 0x38-0x118.7 (225)
0x030|                        07                     |        .       |      id: "export section" (7) 0x38-0x38.7 (1)
0x030|                           de 01               |         ..     |      size: 222 0x39-0x3a.7 (2)
     |                                               |                |      content{}: 0x3b-0x118.7 (222)
     |                                               |                |        ex{}: 0x3b-0x118.7 (222)
0x030|                                 1f            |           .    |          n: 31 0x3b-0x3b.7 (1)
     |                                               |                |          x[0:31]: 0x3c-0x118.7 (221)
     |                                               |                |            [0]{}: ex 0x3c-0x41.7 (6)
     |                                               |                |              nm{}: 0x3c-0x3f.7 (4)
0x030|                                    03         |            .   |                n: 3 0x3c-0x3c.7 (1)
0x030|                                       61 64 64|             add|                b: "add" 0x3d-0x3f.7 (3)
     |                                               |                |              d{}: 0x40-0x41.7 (2)
0x040|00                                             |.               |                tag: "funcidx" (0x0) 0x40-0x40.7 (1)
0x040|   00                                          | .              |                x: 0 0x41-0x41.7 (1)
     |                                               |                |            [1]{}: ex 0x42-0x47.7 (6)
     |                                               |                |              nm{}: 0x42-0x45.7 (4)
0x040|      03                                       |  .             |                n: 3 0x42-0x42.7 (1)
0x040|         73 75 62                              |   sub          |                b: "sub" 0x43-0x45.7 (3)
     |                                               |                |              d{}: 0x46-0x47.7 (2)
0x040|                  00                           |      .         |                tag: "funcidx" (0x0) 0x46-0x46.7 (1)
0x040|                     01                        |       .        |                x: 1 0x47-0x47.7 (1)
     |                                               |                |            [2]{}: ex 0x48-0x4d.7 (6)
     |                                               |                |              nm{}: 0x48-0x4b.7 (4)
0x040|                        03                     |        .       |                n: 3 0x48-0x48.7 (1)
0x040|                           6d 75 6c            |         mul    |                b: "mul" 0x49-0x4b.7 (3)
     |                                               |                |              d{}: 0x4c-0x4d.7 (2)
0x040|                                    00         |            .   |                tag: "funcidx" (0x0) 0x4c-0x4c.7 (1)
0x040|                                       02      |             .  |                x: 2 0x4d-0x4d.7 (1)
     |                                               |                |            [3]{}: ex 0x4e-0x55.7 (8)
     |                                               |                |              nm{}: 0x4e-0x53.7 (6)
0x040|                                          05   |              . |                n: 5 0x4e-0x4e.7 (1)
0x040|                                             64|               d|                b: "div_s" 0x4f-0x53.7 (5)
0x050|69 76 5f 73                                    |iv_s            |
     |                                               |                |              d{}: 0x54-0x55.7 (2)
0x050|            00                                 |    .           |                tag: "funcidx" (0x0) 0x54-0x54.7 (1)
0x050|               03                              |     .          |                x: 3 0x55-0x55.7 (1)
     |                                               |                |            [4]{}: ex 0x56-0x5d.7 (8)
     |                                               |                |              nm{}: 0x56-0x5b.7 (6)
0x050|                  05                           |      .         |                n: 5 0x56-0x56.7 (1)
0x050|                     64 69 76 5f 75            |       div_u    |                b: "div_u" 0x57-0x5b.7 (5)
     |                                               |                |              d{}: 0x5c-0x5d.7 (2)
0x050|                                    00         |            .   |                tag: "funcidx" (0x0) 0x5c-0x5c.7 (1)
0x050|                                       04      |             .  |                x: 4 0x5d-0x5d.7 (1)
     |                                               |                |            [5]{}: ex 0x5e-0x65.7 (8)
     |                                               |                |              nm{}: 0x5e-0x63.7 (6)
0x050|                                          05   |              . |                n: 5 0x5e-0x5e.7 (1)
0x050|                                             72|               r|                b: "rem_s" 0x5f-0x63.7 (5)
0x060|65 6d 5f 73                                    |em_s            |
     |                                               |                |              d{}: 0x64-0x65.7 (2)
0x060|            00                                 |    .           |                tag: "funcidx" (0x0) 0x64-0x64.7 (1)
0x060|               05                              |     .          |                x: 5 0x65-0x65.7 (1)
     |                                               |                |            [6]{}: ex 0x66-0x6d.7 (8)
     |                                               |                |              nm{}: 0x66-0x6b.7 (6)
0x060|                  05                           |      .         |                n: 5 0x66-0x66.7 (1)
0x060|                     72 65 6d 5f 75            |       rem_u    |                b: "rem_u" 0x67-0x6b.7 (5)
     |                                               |                |              d{}: 0x6c-0x6d.7 (2)
0x060|                                    00         |            .   |                tag: "funcidx" (0x0) 0x6c-0x6c.7 (1)
0x060|                                       06      |             .  |                x: 6 0x6d-0x6d.7 (1)
     |                                               |                |            [7]{}: ex 0x6e-0x73.7 (6)
     |                                               |                |              nm{}: 0x6e-0x71.7 (4)
0x060|                                          03   |              . |                n: 3 0x6e-0x6e.7 (1)
0x060|                                             61|               a|                b: "and" 0x6f-0x71.7 (3)
0x070|6e 64                                          |nd              |
     |                                               |                |              d{}: 0x72-0x73.7 (2)
0x070|      00                                       |  .             |                tag: "funcidx" (0x0) 0x72-0x72.7 (1)
0x070|         07                                    |   .            |                x: 7 0x73-0x73.7 (1)
     |                                               |                |            [8]{}: ex 0x74-0x78.7 (5)
     |                                               |                |              nm{}: 0x74-0x76.7 (3)
0x070|            02                                 |    .           |                n: 2 0x74-0x74.7 (1)
0x070|               6f 72                           |     or         |                b: "or" 0x75-0x76.7 (2)
     |                                               |                |              d{}: 0x77-0x78.7 (2)
0x070|                     00                        |       .        |                tag: "funcidx" (0x0) 0x77-0x77.7 (1)
0x070|                        08                     |        .       |                x: 8 0x78-0x78.7 (1)
     |                                               |                |            [9]{}: ex 0x79-0x7e.7 (6)
     |                                               |                |              nm{}: 0x79-0x7c.7 (4)
0x070|                           03                  |         .      |                n: 3 0x79-0x79.7 (1)
0x070|                              78 6f 72         |          xor   |                b: "xor" 0x7a-0x7c.7 (3)
     |                                               |                |              d{}: 0x7d-0x7e.7 (2)
0x070|                                       00      |             .  |                tag: "funcidx" (0x0) 0x7d-0x7d.7 (1)
0x070|                                          09   |              . |                x: 9 0x7e-0x7e.7 (1)
     |                                               |                |            [10]{}: ex 0x7f-0x84.7 (6)
     |                                               |                |              nm{}: 0x7f-0x82.7 (4)
0x070|                                             03|               .|                n: 3 0x7f-0x7f.7 (1)
0x080|73 68 6c                                       |shl             |                b: "shl" 0x80-0x82.7 (3)
     |                                               |                |              d{}: 0x83-0x84.7 (2)
0x080|         00                                    |   .            |                tag: "funcidx" (0x0) 0x83-0x83.7 (1)
0x080|            0a                                 |    .           |                x: 10 0x84-0x84.7 (1)
     |                                               |                |            [11]{}: ex 0x85-0x8c.7 (8)
     |                                               |                |              nm{}: 0x85-0x8a.7 (6)
0x080|               05                              |     .          |                n: 5 0x85-0x85.7 (1)
0x080|                  73 68 72 5f 73               |      shr_s     |                b: "shr_s" 0x86-0x8a.7 (5)
     |                                               |                |              d{}: 0x8b-0x8c.7 (2)
0x080|                                 00            |           .    |                tag: "funcidx" (0x0) 0x8b-0x8b.7 (1)
0x080|                                    0b         |            .   |                x: 11 0x8c-0x8c.7 (1)
     |                                               |                |            [12]{}: ex 0x8d-0x94.7 (8)
     |                                               |                |              nm{}: 0x8d-0x92.7 (6)
0x080|                                       05      |             .  |                n: 5 0x8d-0x8d.7 (1)
0x080|                                          73 68|              sh|                b: "shr_u" 0x8e-0x92.7 (5)
0x090|72 5f 75                                       |r_u             |
     |                                               |                |              d{}: 0x93-0x94.7 (2)
0x090|         00                                    |   .            |                tag: "funcidx" (0x0) 0x93-0x93.7 (1)
0x090|            0c                                 |    .           |                x: 12 0x94-0x94.7 (1)
     |                                               |                |            [13]{}: ex 0x95-0x9b.7 (7)
     |                                               |                |              nm{}: 0x95-0x99.7 (5)
0x090|               04                              |     .          |                n: 4 0x95-0x95.7 (1)
0x090|                  72 6f 74 6c                  |      rotl      |                b: "rotl" 0x96-0x99.7 (4)
     |                                               |                |              d{}: 0x9a-0x9b.7 (2)
0x090|                              00               |          .     |                tag: "funcidx" (0x0) 0x9a-0x9a.7 (1)
0x090|                                 0d            |           .    |                x: 13 0x9b-0x9b.7 (1)
     |                                               |                |            [14]{}: ex 0x9c-0xa2.7 (7)
     |                                               |                |              nm{}: 0x9c-0xa0.7 (5)
0x090|                                    04         |            .   |                n: 4 0x9c-0x9c.7 (1)
0x090|                                       72 6f 74|             rot|                b: "rotr" 0x9d-0xa0.7 (4)
0x0a0|72                                             |r               |
     |                                               |                |              d{}: 0xa1-0xa2.7 (2)
0x0a0|   00                                          | .              |                tag: "funcidx" (0x0) 0xa1-0xa1.7 (1)
0x0a0|      0e                                       |  .             |                x: 14 0xa2-0xa2.7 (1)
     |                                               |                |            [15]{}: ex 0xa3-0xa8.7 (6)
     |                                               |                |              nm{}: 0xa3-0xa6.7 (4)
0x0a0|         03                                    |   .            |                n: 3 0xa3-0xa3.7 (1)
0x0a0|            63 6c 7a                           |    clz         |                b: "clz" 0xa4-0xa6.7 (3)
     |                                               |                |              d{}: 0xa7-0xa8.7 (2)
0x0a0|                     00                        |       .        |                tag: "funcidx" (0x0) 0xa7-0xa7.7 (1)
0x0a0|                        0f                     |        .       |                x: 15 0xa8-0xa8.7 (1)
     |                                               |                |            [16]{}: ex 0xa9-0xae.7 (6)
     |                                               |                |              nm{}: 0xa9-0xac.7 (4)
0x0a0|                           03                  |         .      |                n: 3 0xa9-0xa9.7 (1)
0x0a0|                              63 74 7a         |          ctz   |                b: "ctz" 0xaa-0xac.7 (3)
     |                                               |                |              d{}: 0xad-0xae.7 (2)
0x0a0|                                       00      |             .  |                tag: "funcidx" (0x0) 0xad-0xad.7 (1)
0x0a0|                                          10   |              . |                x: 16 0xae-0xae.7 (1)
     |                                               |                |            [17]{}: ex 0xaf-0xb7.7 (9)
     |                                               |                |              nm{}: 0xaf-0xb5.7 (7)
0x0a0|                                             06|               .|                n: 6 0xaf-0xaf.7 (1)
0x0b0|70 6f 70 63 6e 74                              |popcnt          |                b: "popcnt" 0xb0-0xb5.7 (6)
     |                                               |                |              d{}: 0xb6-0xb7.7 (2)
0x0b0|                  00                           |      .         |                tag: "funcidx" (0x0) 0xb6-0xb6.7 (1)
0x0b0|                     11                        |       .        |                x: 17 0xb7-0xb7.7 (1)
     |                                               |                |            [18]{}: ex 0xb8-0xc3.7 (12)
     |                                               |                |              nm{}: 0xb8-0xc1.7 (10)
0x0b0|                        09                     |        .       |                n: 9 0xb8-0xb8.7 (1)
0x0b0|                           65 78 74 65 6e 64 38|         extend8|                b: "extend8_s" 0xb9-0xc1.7 (9)
0x0c0|5f 73                                          |_s              |
     |                                               |                |              d{}: 0xc2-0xc3.7 (2)
0x0c0|      00                                       |  .             |                tag: "funcidx" (0x0) 0xc2-0xc2.7 (1)
0x0c0|         12                                    |   .            |                x: 18 0xc3-0xc3.7 (1)
     |                                               |                |            [19]{}: ex 0xc4-0xd0.7 (13)
     |                                               |                |              nm{}: 0xc4-0xce.7 (11)
0x0c0|            0a                                 |    .           |                n: 10 0xc4-0xc4.7 (1)
0x0c0|               65 78 74 65 6e 64 31 36 5f 73   |     extend16_s |                b: "extend16_s" 0xc5-0xce.7 (10)
     |                                               |                |              d{}: 0xcf-0xd0.7 (2)
0x0c0|                                             00|               .|                tag: "funcidx" (0x0) 0xcf-0xcf.7 (1)
0x0d0|13                                             |.               |                x: 19 0xd0-0xd0.7 (1)
     |                                               |                |            [20]{}: ex 0xd1-0xd6.7 (6)
     |                                               |                |              nm{}: 0xd1-0xd4.7 (4)
0x0d0|   03                                          | .              |                n: 3 0xd1-0xd1.7 (1)
0x0d0|      65 71 7a                                 |  eqz           |                b: "eqz" 0xd2-0xd4.7 (3)
     |                                               |                |              d{}: 0xd5-0xd6.7 (2)
0x0d0|               00                              |     .          |                tag: "funcidx" (0x0) 0xd5-0xd5.7 (1)
0x0d0|                  14                           |      .         |                x: 20 0xd6-0xd6.7 (1)
     |                                               |                |            [21]{}: ex 0xd7-0xdb.7 (5)
     |                                               |                |              nm{}: 0xd7-0xd9.7 (3)
0x0d0|                     02                        |       .        |                n: 2 0xd7-0xd7.7 (1)
0x0d0|                        65 71                  |        eq      |                b: "eq" 0xd8-0xd9.7 (2)
     |                                               |                |              d{}: 0xda-0xdb.7 (2)
0x0d0|                              00               |          .     |                tag: "funcidx" (0x0) 0xda-0xda.7 (1)
0x0d0|                                 15            |           .    |                x: 21 0xdb-0xdb.7 (1)
     |                                               |                |            [22]{}: ex 0xdc-0xe0.7 (5)
     |                                               |                |              nm{}: 0xdc-0xde.7 (3)
0x0d0|                                    02         |            .   |                n: 2 0xdc-0xdc.7 (1)
0x0d0|                                       6e 65   |             ne |                b: "ne" 0xdd-0xde.7 (2)
     |                                               |                |              d{}: 0xdf-0xe0.7 (2)
0x0d0|                                             00|               .|                tag: "funcidx" (0x0) 0xdf-0xdf.7 (1)
0x0e0|16                                             |.               |                x: 22 0xe0-0xe0.7 (1)
     |                                               |                |            [23]{}: ex 0xe1-0xe7.7 (7)
     |                                               |                |              nm{}: 0xe1-0xe5.7 (5)
0x0e0|   04                                          | .              |                n: 4 0xe1-0xe1.7 (1)
0x0e0|      6c 74 5f 73                              |  lt_s          |                b: "lt_s" 0xe2-0xe5.7 (4)
     |                                               |                |              d{}: 0xe6-0xe7.7 (2)
0x0e0|                  00                           |      .         |                tag: "funcidx" (0x0) 0xe6-0xe6.7 (1)
0x0e0|                     17                        |       .        |                x: 23 0xe7-0xe7.7 (1)
     |                                               |                |            [24]{}: ex 0xe8-0xee.7 (7)
     |                                               |                |              nm{}: 0xe8-0xec.7 (5)
0x0e0|                        04                     |        .       |                n: 4 0xe8-0xe8.7 (1)
0x0e0|                           6c 74 5f 75         |         lt_u   |                b: "lt_u" 0xe9-0xec.7 (4)
     |                                               |                |              d{}: 0xed-0xee.7 (2)
0x0e0|                                       00      |             .  |                tag: "funcidx" (0x0) 0xed-0xed.7 (1)
0x0e0|                                          18   |              . |                x: 24 0xee-0xee.7 (1)
     |                                               |                |            [25]{}: ex 0xef-0xf5.7 (7)
     |                                               |                |              nm{}: 0xef-0xf3.7 (5)
0x0e0|                                             04|               .|                n: 4 0xef-0xef.7 (1)
0x0f0|6c 65 5f 73                                    |le_s            |                b: "le_s" 0xf0-0xf3.7 (4)
     |                                               |                |              d{}: 0xf4-0xf5.7 (2)
0x0f0|            00                                 |    .           |                tag: "funcidx" (0x0) 0xf4-0xf4.7 (1)
0x0f0|               19                              |     .          |                x: 25 0xf5-0xf5.7 (1)
     |                                               |                |            [26]{}: ex 0xf6-0xfc.7 (7)
     |                                               |                |              nm{}: 0xf6-0xfa.7 (5)
0x0f0|                  04                           |      .         |                n: 4 0xf6-0xf6.7 (1)
0x0f0|                     6c 65 5f 75               |       le_u     |                b: "le_u" 0xf7-0xfa.7 (4)
     |                                               |                |              d{}: 0xfb-0xfc.7 (2)
0x0f0|                                 00            |           .    |                tag: "funcidx" (0x0) 0xfb-0xfb.7 (1)
0x0f0|                                    1a         |            .   |                x: 26 0xfc-0xfc.7 (1)
     |                                               |                |            [27]{}: ex 0xfd-0x103.7 (7)
     |                                               |                |              nm{}: 0xfd-0x101.7 (5)
0x0f0|                                       04      |             .  |                n: 4 0xfd-0xfd.7 (1)
0x0f0|                                          67 74|              gt|                b: "gt_s" 0xfe-0x101.7 (4)
0x100|5f 73                                          |_s              |
     |                                               |                |              d{}: 0x102-0x103.7 (2)
0x100|      00                                       |  .             |                tag: "funcidx" (0x0) 0x102-0x102.7 (1)
0x100|         1b                                    |   .            |                x: 27 0x103-0x103.7 (1)
     |                                               |                |            [28]{}: ex 0x104-0x10a.7 (7)
     |                                               |                |              nm{}: 0x104-0x108.7 (5)
0x100|            04                                 |    .           |                n: 4 0x104-0x104.7 (1)
0x100|               67 74 5f 75                     |     gt_u       |                b: "gt_u" 0x105-0x108.7 (4)
     |                                               |                |              d{}: 0x109-0x10a.7 (2)
0x100|                           00                  |         .      |                tag: "funcidx" (0x0) 0x109-0x109.7 (1)
0x100|                              1c               |          .     |                x: 28 0x10a-0x10a.7 (1)
     |                                               |                |            [29]{}: ex 0x10b-0x111.7 (7)
     |                                               |                |              nm{}: 0x10b-0x10f.7 (5)
0x100|                                 04            |           .    |                n: 4 0x10b-0x10b.7 (1)
0x100|                                    67 65 5f 73|            ge_s|                b: "ge_s" 0x10c-0x10f.7 (4)
     |                                               |                |              d{}: 0x110-0x111.7 (2)
0x110|00                                             |.               |                tag: "funcidx" (0x0) 0x110-0x110.7 (1)
0x110|   1d                                          | .              |                x: 29 0x111-0x111.7 (1)
     |                                               |                |            [30]{}: ex 0x112-0x118.7 (7)
     |                                               |                |              nm{}: 0x112-0x116.7 (5)
0x110|      04                                       |  .             |                n: 4 0x112-0x112.7 (1)
0x110|         67 65 5f 75                           |   ge_u         |                b: "ge_u" 0x113-0x116.7 (4)
     |                                               |                |              d{}: 0x117-0x118.7 (2)
0x110|                     00                        |       .        |                tag: "funcidx" (0x0) 0x117-0x117.7 (1)
0x110|                        1e                     |        .       |                x: 30 0x118-0x118.7 (1)
     |                                               |                |    [3]{}: section 0x119-0x208.7 (240)
0x110|                           0a                  |         .      |      id: "code section" (10) 0x119-0x119.7 (1)
0x110|                              ed 01            |          ..    |      size: 237 0x11a-0x11b.7 (2)
     |                                               |                |      content{}: 0x11c-0x208.7 (237)
     |                                               |                |        code{}: 0x11c-0x208.7 (237)
0x110|                                    1f         |            .   |          n: 31 0x11c-0x11c.7 (1)
     |                                               |                |          x[0:31]: 0x11d-0x208.7 (236)
     |                                               |                |            [0]{}: code 0x11d-0x124.7 (8)
0x110|                                       07      |             .  |              size: 7 0x11d-0x11d.7 (1)
     |                                               |                |              code{}: 0x11e-0x124.7 (7)
     |                                               |                |                t{}: 0x11e-0x11e.7 (1)
0x110|                                          00   |              . |                  n: 0 0x11e-0x11e.7 (1)
     |                                               |                |                  x[0:0]: 0x11f-NA (0)
     |                                               |                |                e[0:4]: 0x11f-0x124.7 (6)
     |                                               |                |                  [0]{}: in 0x11f-0x120.7 (2)
0x110|                                             20|                |                    local.get: 0x20 (valid) 0x11f-0x11f.7 (1)
0x120|00                                             |.               |                    x: 0 0x120-0x120.7 (1)
     |                                               |                |                  [1]{}: in 0x121-0x122.7 (2)
0x120|   20                                          |                |                    local.get: 0x20 (valid) 0x121-0x121.7 (1)
0x120|      01                                       |  .             |                    x: 1 0x122-0x122.7 (1)
     |                                               |                |                  [2]{}: in 0x123-0x123.7 (1)
0x120|         6a                                    |   j            |                    i32.add: 0x6a (valid) 0x123-0x123.7 (1)
     |                                               |                |                  [3]{}: in 0x124-0x124.7 (1)
0x120|            0b                                 |    .           |                    end: 0xb (valid) 0x124-0x124.7 (1)
     |                                               |                |            [1]{}: code 0x125-0x12c.7 (8)
0x120|               07                              |     .          |              size: 7 0x125-0x125.7 (1)
     |                                               |                |              code{}: 0x126-0x12c.7 (7)
     |                                               |                |                t{}: 0x126-0x126.7 (1)
0x120|                  00                           |      .         |                  n: 0 0x126-0x126.7 (1)
     |                                               |                |                  x[0:0]: 0x127-NA (0)
     |                                               |                |                e[0:4]: 0x127-0x12c.7 (6)
     |                                               |                |                  [0]{}: in 0x127-0x128.7 (2)
0x120|                     20                        |                |                    local.get: 0x20 (valid) 0x127-0x127.7 (1)
0x120|                        00                     |        .       |                    x: 0 0x128-0x128.7 (1)
     |                                               |                |                  [1]{}: in 0x129-0x12a.7 (2)
0x120|                           20                  |                |                    local.get: 0x20 (valid) 0x129-0x129.7 (1)
0x120|                              01               |          .     |                    x: 1 0x12a-0x12a.7 (1)
     |                                               |                |                  [2]{}: in 0x12b-0x12b.7 (1)
0x120|                                 6b            |           k    |                    i32.sub: 0x6b (valid) 0x12b-0x12b.7 (1)
     |                                               |                |                  [3]{}: in 0x12c-0x12c.7 (1)
0x120|                                    0b         |            .   |                    end: 0xb (valid) 0x12c-0x12c.7 (1)
     |                                               |                |            [2]{}: code 0x12d-0x134.7 (8)
0x120|                                       07      |             .  |              size: 7 0x12d-0x12d.7 (1)
     |                                               |                |              code{}: 0x12e-0x134.7 (7)
     |                                               |                |                t{}: 0x12e-0x12e.7 (1)
0x120|                                          00   |              . |                  n: 0 0x12e-0x12e.7 (1)
     |                                               |                |                  x[0:0]: 0x12f-NA (0)
     |                                               |                |                e[0:4]: 0x12f-0x134.7 (6)
     |                                               |                |                  [0]{}: in 0x12f-0x130.7 (2)
0x120|                                             20|                |                    local.get: 0x20 (valid) 0x12f-0x12f.7 (1)
0x130|00                                             |.               |                    x: 0 0x130-0x130.7 (1)
     |                                               |                |                  [1]{}: in 0x131-0x132.7 (2)
0x130|   20                                          |                |                    local.get: 0x20 (valid) 0x131-0x131.7 (1)
0x130|      01                                       |  .             |                    x: 1 0x132-0x132.7 (1)
     |                                               |                |                  [2]{}: in 0x133-0x133.7 (1)
0x130|         6c                                    |   l            |                    i32.mul: 0x6c (valid) 0x133-0x133.7 (1)
     |                                               |                |                  [3]{}: in 0x134-0x134.7 (1)
0x130|            0b                                 |    .           |                    end: 0xb (valid) 0x134-0x134.7 (1)
     |                                               |                |            [3]{}: code 0x135-0x13c.7 (8)
0x130|               07                              |     .          |              size: 7 0x135-0x135.7 (1)
     |                                               |                |              code{}: 0x136-0x13c.7 (7)
     |                                               |                |                t{}: 0x136-0x136.7 (1)
0x130|                  00                           |      .         |                  n: 0 0x136-0x136.7 (1)
     |                                               |                |                  x[0:0]: 0x137-NA (0)
     |                                               |                |                e[0:4]: 0x137-0x13c.7 (6)
     |                                               |                |                  [0]{}: in 0x137-0x138.7 (2)
0x130|                     20                        |                |                    local.get: 0x20 (valid) 0x137-0x137.7 (1)
0x130|                        00                     |        .       |                    x: 0 0x138-0x138.7 (1)
     |                                               |                |                  [1]{}: in 0x139-0x13a.7 (2)
0x130|                           20                  |                |                    local.get: 0x20 (valid) 0x139-0x139.7 (1)
0x130|                              01               |          .     |                    x: 1 0x13a-0x13a.7 (1)
     |                                               |                |                  [2]{}: in 0x13b-0x13b.7 (1)
0x130|                                 6d            |           m    |                    i32.div_s: 0x6d (valid) 0x13b-0x13b.7 (1)
     |                                               |                |                  [3]{}: in 0x13c-0x13c.7 (1)
0x130|                                    0b         |            .   |                    end: 0xb (valid) 0x13c-0x13c.7 (1)
     |                                               |                |            [4]{}: code 0x13d-0x144.7 (8)
0x130|                                       07      |             .  |              size: 7 0x13d-0x13d.7 (1)
     |                                               |                |              code{}: 0x13e-0x144.7 (7)
     |                                               |                |                t{}: 0x13e-0x13e.7 (1)
0x130|                                          00   |              . |                  n: 0 0x13e-0x13e.7 (1)
     |                                               |                |                  x[0:0]: 0x13f-NA (0)
     |                                               |                |                e[0:4]: 0x13f-0x144.7 (6)
     |                                               |                |                  [0]{}: in 0x13f-0x140.7 (2)
0x130|                                             20|                |                    local.get: 0x20 (valid) 0x13f-0x13f.7 (1)
0x140|00                                             |.               |                    x: 0 0x140-0x140.7 (1)
     |                                               |                |                  [1]{}: in 0x141-0x142.7 (2)
0x140|   20                                          |                |                    local.get: 0x20 (valid) 0x141-0x141.7 (1)
0x140|      01                                       |  .             |                    x: 1 0x142-0x142.7 (1)
     |                                               |                |                  [2]{}: in 0x143-0x143.7 (1)
0x140|         6e                                    |   n            |                    i32.div_u: 0x6e (valid) 0x143-0x143.7 (1)
     |                                               |                |                  [3]{}: in 0x144-0x144.7 (1)
0x140|            0b                                 |    .           |                    end: 0xb (valid) 0x144-0x144.7 (1)
     |                                               |                |            [5]{}: code 0x145-0x14c.7 (8)
0x140|               07                              |     .          |              size: 7 0x145-0x145.7 (1)
     |                                               |                |              code{}: 0x146-0x14c.7 (7)
     |                                               |                |                t{}: 0x146-0x146.7 (1)
0x140|                  00                           |      .         |                  n: 0 0x146-0x146.7 (1)
     |                                               |                |                  x[0:0]: 0x147-NA (0)
     |                                               |                |                e[0:4]: 0x147-0x14c.7 (6)
     |                                               |                |                  [0]{}: in 0x147-0x148.7 (2)
0x140|                     20                        |                |                    local.get: 0x20 (valid) 0x147-0x147.7 (1)
0x140|                        00                     |        .       |                    x: 0 0x148-0x148.7 (1)
     |                                               |                |                  [1]{}: in 0x149-0x14a.7 (2)
0x140|                           20                  |                |                    local.get: 0x20 (valid) 0x149-0x149.7 (1)
0x140|                              01               |          .     |                    x: 1 0x14a-0x14a.7 (1)
     |                                               |                |                  [2]{}: in 0x14b-0x14b.7 (1)
0x140|                                 6f            |           o    |                    i32.rem_s: 0x6f (valid) 0x14b-0x14b.7 (1)
     |                                               |                |                  [3]{}: in 0x14c-0x14c.7 (1)
0x140|                                    0b         |            .   |                    end: 0xb (valid) 0x14c-0x14c.7 (1)
     |                                               |                |            [6]{}: code 0x14d-0x154.7 (8)
0x140|                                       07      |             .  |              size: 7 0x14d-0x14d.7 (1)
     |                                               |                |              code{}: 0x14e-0x154.7 (7)
     |                                               |                |                t{}: 0x14e-0x14e.7 (1)
0x140|                                          00   |              . |                  n: 0 0x14e-0x14e.7 (1)
     |                                               |                |                  x[0:0]: 0x14f-NA (0)
     |                                               |                |                e[0:4]: 0x14f-0x154.7 (6)
     |                                               |                |                  [0]{}: in 0x14f-0x150.7 (2)
0x140|                                             20|                |                    local.get: 0x20 (valid) 0x14f-0x14f.7 (1)
0x150|00                                             |.               |                    x: 0 0x150-0x150.7 (1)
     |                                               |                |                  [1]{}: in 0x151-0x152.7 (2)
0x150|   20                                          |                |                    local.get: 0x20 (valid) 0x151-0x151.7 (1)
0x150|      01                                       |  .             |                    x: 1 0x152-0x152.7 (1)
     |                                               |                |                  [2]{}: in 0x153-0x153.7 (1)
0x150|         70                                    |   p            |                    i32.rem_u: 0x70 (valid) 0x153-0x153.7 (1)
     |                                               |                |                  [3]{}: in 0x154-0x154.7 (1)
0x150|            0b                                 |    .           |                    end: 0xb (valid) 0x154-0x154.7 (1)
     |                                               |                |            [7]{}: code 0x155-0x15c.7 (8)
0x150|               07                              |     .          |              size: 7 0x155-0x155.7 (1)
     |                                               |                |              code{}: 0x156-0x15c.7 (7)
     |                                               |                |                t{}: 0x156-0x156.7 (1)
0x150|                  00                           |      .         |                  n: 0 0x156-0x156.7 (1)
     |                                               |                |                  x[0:0]: 0x157-NA (0)
     |                                               |                |                e[0:4]: 0x157-0x15c.7 (6)
     |                                               |                |                  [0]{}: in 0x157-0x158.7 (2)
0x150|                     20                        |                |                    local.get: 0x20 (valid) 0x157-0x157.7 (1)
0x150|                        00                     |        .       |                    x: 0 0x158-0x158.7 (1)
     |                                               |                |                  [1]{}: in 0x159-0x15a.7 (2)
0x150|                           20                  |                |                    local.get: 0x20 (valid) 0x159-0x159.7 (1)
0x150|                              01               |          .     |                    x: 1 0x15a-0x15a.7 (1)
     |                                               |                |                  [2]{}: in 0x15b-0x15b.7 (1)
0x150|                                 71            |           q    |                    i32.and: 0x71 (valid) 0x15b-0x15b.7 (1)
     |                                               |                |                  [3]{}: in 0x15c-0x15c.7 (1)
0x150|                                    0b         |            .   |                    end: 0xb (valid) 0x15c-0x15c.7 (1)
     |                                               |                |            [8]{}: code 0x15d-0x164.7 (8)
0x150|                                       07      |             .  |              size: 7 0x15d-0x15d.7 (1)
     |                                               |                |              code{}: 0x15e-0x164.7 (7)
     |                                               |                |                t{}: 0x15e-0x15e.7 (1)
0x150|                                          00   |              . |                  n: 0 0x15e-0x15e.7 (1)
     |                                               |                |                  x[0:0]: 0x15f-NA (0)
     |                                               |                |                e[0:4]: 0x15f-0x164.7 (6)
     |                                               |                |                  [0]{}: in 0x15f-0x160.7 (2)
0x150|                                             20|                |                    local.get: 0x20 (valid) 0x15f-0x15f.7 (1)
0x160|00                                             |.               |                    x: 0 0x160-0x160.7 (1)
     |                                               |                |                  [1]{}: in 0x161-0x162.7 (2)
0x160|   20                                          |                |                    local.get: 0x20 (valid) 0x161-0x161.7 (1)
0x160|      01                                       |  .             |                    x: 1 0x162-0x162.7 (1)
     |                                               |                |                  [2]{}: in 0x163-0x163.7 (1)
0x160|         72                                    |   r            |                    i32.or: 0x72 (valid) 0x163-0x163.7 (1)
     |                                               |                |                  [3]{}: in 0x164-0x164.7 (1)
0x160|            0b                                 |    .           |                    end: 0xb (valid) 0x164-0x164.7 (1)
     |                                               |                |            [9]{}: code 0x165-0x16c.7 (8)
0x160|               07                              |     .          |              size: 7 0x165-0x165.7 (1)
     |                                               |                |              code{}: 0x166-0x16c.7 (7)
     |                                               |                |                t{}: 0x166-0x166.7 (1)
0x160|                  00                           |      .         |                  n: 0 0x166-0x166.7 (1)
     |                                               |                |                  x[0:0]: 0x167-NA (0)
     |                                               |                |                e[0:4]: 0x167-0x16c.7 (6)
     |                                               |                |                  [0]{}: in 0x167-0x168.7 (2)
0x160|                     20                        |                |                    local.get: 0x20 (valid) 0x167-0x167.7 (1)
0x160|                        00                     |        .       |                    x: 0 0x168-0x168.7 (1)
     |                                               |                |                  [1]{}: in 0x169-0x16a.7 (2)
0x160|                           20                  |                |                    local.get: 0x20 (valid) 0x169-0x169.7 (1)
0x160|                              01               |          .     |                    x: 1 0x16a-0x16a.7 (1)
     |                                               |                |                  [2]{}: in 0x16b-0x16b.7 (1)
0x160|                                 73            |           s    |                    i32.xor: 0x73 (valid) 0x16b-0x16b.7 (1)
     |                                               |                |                  [3]{}: in 0x16c-0x16c.7 (1)
0x160|                                    0b         |            .   |                    end: 0xb (valid) 0x16c-0x16c.7 (1)
     |                                               |                |            [10]{}: code 0x16d-0x174.7 (8)
0x160|                                       07      |             .  |              size: 7 0x16d-0x16d.7 (1)
     |                                               |                |              code{}: 0x16e-0x174.7 (7)
     |                                               |                |                t{}: 0x16e-0x16e.7 (1)
0x160|                                          00   |              . |                  n: 0 0x16e-0x16e.7 (1)
     |                                               |                |                  x[0:0]: 0x16f-NA (0)
     |                                               |                |                e[0:4]: 0x16f-0x174.7 (6)
     |                                               |                |                  [0]{}: in 0x16f-0x170.7 (2)
0x160|                                             20|                |                    local.get: 0x20 (valid) 0x16f-0x16f.7 (1)
0x170|00                                             |.               |                    x: 0 0x170-0x170.7 (1)
     |                                               |                |                  [1]{}: in 0x171-0x172.7 (2)
0x170|   20                                          |                |                    local.get: 0x20 (valid) 0x171-0x171.7 (1)
0x170|      01                                       |  .             |                    x: 1 0x172-0x172.7 (1)
     |                                               |                |                  [2]{}: in 0x173-0x173.7 (1)
0x170|         74                                    |   t            |                    i32.shl: 0x74 (valid) 0x173-0x173.7 (1)
     |                                               |                |                  [3]{}: in 0x174-0x174.7 (1)
0x170|            0b                                 |    .           |                    end: 0xb (valid) 0x174-0x174.7 (1)
     |                                               |                |            [11]{}: code 0x175-0x17c.7 (8)
0x170|               07                              |     .          |              size: 7 0x175-0x175.7 (1)
     |                                               |                |              code{}: 0x176-0x17c.7 (7)
     |                                               |                |                t{}: 0x176-0x176.7 (1)
0x170|                  00                           |      .         |                  n: 0 0x176-0x176.7 (1)
     |                                               |                |                  x[0:0]: 0x177-NA (0)
     |                                               |                |                e[0:4]: 0x177-0x17c.7 (6)
     |                                               |                |                  [0]{}: in 0x177-0x178.7 (2)
0x170|                     20                        |                |                    local.get: 0x20 (valid) 0x177-0x177.7 (1)
0x170|                        00                     |        .       |                    x: 0 0x178-0x178.7 (1)
     |                                               |                |                  [1]{}: in 0x179-0x17a.7 (2)
0x170|                           20                  |                |                    local.get: 0x20 (valid) 0x179-0x179.7 (1)
0x170|                              01               |          .     |                    x: 1 0x17a-0x17a.7 (1)
     |                                               |                |                  [2]{}: in 0x17b-0x17b.7 (1)
0x170|                                 75            |           u    |                    i32.shr_s: 0x75 (valid) 0x17b-0x17b.7 (1)
     |                                               |                |                  [3]{}: in 0x17c-0x17c.7 (1)
0x170|                                    0b         |            .   |                    end: 0xb (valid) 0x17c-0x17c.7 (1)
     |                                               |                |            [12]{}: code 0x17d-0x184.7 (8)
0x170|                                       07      |             .  |              size: 7 0x17d-0x17d.7 (1)
     |                                               |                |              code{}: 0x17e-0x184.7 (7)
     |                                               |                |                t{}: 0x17e-0x17e.7 (1)
0x170|                                          00   |              . |                  n: 0 0x17e-0x17e.7 (1)
     |                                               |                |                  x[0:0]: 0x17f-NA (0)
     |                                               |                |                e[0:4]: 0x17f-0x184.7 (6)
     |                                               |                |                  [0]{}: in 0x17f-0x180.7 (2)
0x170|                                             20|                |                    local.get: 0x20 (valid) 0x17f-0x17f.7 (1)
0x180|00                                             |.               |                    x: 0 0x180-0x180.7 (1)
     |                                               |                |                  [1]{}: in 0x181-0x182.7 (2)
0x180|   20                                          |                |                    local.get: 0x20 (valid) 0x181-0x181.7 (1)
0x180|      01                                       |  .             |                    x: 1 0x182-0x182.7 (1)
     |                                               |                |                  [2]{}: in 0x183-0x183.7 (1)
0x180|         76                                    |   v            |                    i32.shr_u: 0x76 (valid) 0x183-0x183.7 (1)
     |                                               |                |                  [3]{}: in 0x184-0x184.7 (1)
0x180|            0b                                 |    .           |                    end: 0xb (valid) 0x184-0x184.7 (1)
     |                                               |                |            [13]{}: code 0x185-0x18c.7 (8)
0x180|               07                              |     .          |              size: 7 0x185-0x185.7 (1)
     |                                               |                |              code{}: 0x186-0x18c.7 (7)
     |                                               |                |                t{}: 0x186-0x186.7 (1)
0x180|                  00                           |      .         |                  n: 0 0x186-0x186.7 (1)
     |                                               |                |                  x[0:0]: 0x187-NA (0)
     |                                               |                |                e[0:4]: 0x187-0x18c.7 (6)
     |                                               |                |                  [0]{}: in 0x187-0x188.7 (2)
0x180|                     20                        |                |                    local.get: 0x20 (valid) 0x187-0x187.7 (1)
0x180|                        00                     |        .       |                    x: 0 0x188-0x188.7 (1)
     |                                               |                |                  [1]{}: in 0x189-0x18a.7 (2)
0x180|                           20                  |                |                    local.get: 0x20 (valid) 0x189-0x189.7 (1)
0x180|                              01               |          .     |                    x: 1 0x18a-0x18a.7 (1)
     |                                               |                |                  [2]{}: in 0x18b-0x18b.7 (1)
0x180|                                 77            |           w    |                    i32.rotl: 0x77 (valid) 0x18b-0x18b.7 (1)
     |                                               |                |                  [3]{}: in 0x18c-0x18c.7 (1)
0x180|                                    0b         |            .   |                    end: 0xb (valid) 0x18c-0x18c.7 (1)
     |                                               |                |            [14]{}: code 0x18d-0x194.7 (8)
0x180|                                       07      |             .  |              size: 7 0x18d-0x18d.7 (1)
     |                                               |                |              code{}: 0x18e-0x194.7 (7)
     |                                               |                |                t{}: 0x18e-0x18e.7 (1)
0x180|                                          00   |              . |                  n: 0 0x18e-0x18e.7 (1)
     |                                               |                |                  x[0:0]: 0x18f-NA (0)
     |                                               |                |                e[0:4]: 0x18f-0x194.7 (6)
     |                                               |                |                  [0]{}: in 0x18f-0x190.7 (2)
0x180|                                             20|                |                    local.get: 0x20 (valid) 0x18f-0x18f.7 (1)
0x190|00                                             |.               |                    x: 0 0x190-0x190.7 (1)
     |                                               |                |                  [1]{}: in 0x191-0x192.7 (2)
0x190|   20                                          |                |                    local.get: 0x20 (valid) 0x191-0x191.7 (1)
0x190|      01                                       |  .             |                    x: 1 0x192-0x192.7 (1)
     |                                               |                |                  [2]{}: in 0x193-0x193.7 (1)
0x190|         78                                    |   x            |                    i32.rotr: 0x78 (valid) 0x193-0x193.7 (1)
     |                                               |                |                  [3]{}: in 0x194-0x194.7 (1)
0x190|            0b                                 |    .           |                    end: 0xb (valid) 0x194-0x194.7 (1)
     |                                               |                |            [15]{}: code 0x195-0x19a.7 (6)
0x190|               05                              |     .          |              size: 5 0x195-0x195.7 (1)
     |                                               |                |              code{}: 0x196-0x19a.7 (5)
     |                                               |                |                t{}: 0x196-0x196.7 (1)
0x190|                  00                           |      .         |                  n: 0 0x196-0x196.7 (1)
     |                                               |                |                  x[0:0]: 0x197-NA (0)
     |                                               |                |                e[0:3]: 0x197-0x19a.7 (4)
     |                                               |                |                  [0]{}: in 0x197-0x198.7 (2)
0x190|                     20                        |                |                    local.get: 0x20 (valid) 0x197-0x197.7 (1)
0x190|                        00                     |        .       |                    x: 0 0x198-0x198.7 (1)
     |                                               |                |                  [1]{}: in 0x199-0x199.7 (1)
0x190|                           67                  |         g      |                    i32.clz: 0x67 (valid) 0x199-0x199.7 (1)
     |                                               |                |                  [2]{}: in 0x19a-0x19a.7 (1)
0x190|                              0b               |          .     |                    end: 0xb (valid) 0x19a-0x19a.7 (1)
     |                                               |                |            [16]{}: code 0x19b-0x1a0.7 (6)
0x190|                                 05            |           .    |              size: 5 0x19b-0x19b.7 (1)
     |                                               |                |              code{}: 0x19c-0x1a0.7 (5)
     |                                               |                |                t{}: 0x19c-0x19c.7 (1)
0x190|                                    00         |            .   |                  n: 0 0x19c-0x19c.7 (1)
     |                                               |                |                  x[0:0]: 0x19d-NA (0)
     |                                               |                |                e[0:3]: 0x19d-0x1a0.7 (4)
     |                                               |                |                  [0]{}: in 0x19d-0x19e.7 (2)
0x190|                                       20      |                |                    local.get: 0x20 (valid) 0x19d-0x19d.7 (1)
0x190|                                          00   |              . |                    x: 0 0x19e-0x19e.7 (1)
     |                                               |                |                  [1]{}: in 0x19f-0x19f.7 (1)
0x190|                                             68|               h|                    i32.ctz: 0x68 (valid) 0x19f-0x19f.7 (1)
     |                                               |                |                  [2]{}: in 0x1a0-0x1a0.7 (1)
0x1a0|0b                                             |.               |                    end: 0xb (valid) 0x1a0-0x1a0.7 (1)
     |                                               |                |            [17]{}: code 0x1a1-0x1a6.7 (6)
0x1a0|   05                                          | .              |              size: 5 0x1a1-0x1a1.7 (1)
     |                                               |                |              code{}: 0x1a2-0x1a6.7 (5)
     |                                               |                |                t{}: 0x1a2-0x1a2.7 (1)
0x1a0|      00                                       |  .             |                  n: 0 0x1a2-0x1a2.7 (1)
     |                                               |                |                  x[0:0]: 0x1a3-NA (0)
     |                                               |                |                e[0:3]: 0x1a3-0x1a6.7 (4)
     |                                               |                |                  [0]{}: in 0x1a3-0x1a4.7 (2)
0x1a0|         20                                    |                |                    local.get: 0x20 (valid) 0x1a3-0x1a3.7 (1)
0x1a0|            00                                 |    .           |                    x: 0 0x1a4-0x1a4.7 (1)
     |                                               |                |                  [1]{}: in 0x1a5-0x1a5.7 (1)
0x1a0|               69                              |     i          |                    i32.popcnt: 0x69 (valid) 0x1a5-0x1a5.7 (1)
     |                                               |                |                  [2]{}: in 0x1a6-0x1a6.7 (1)
0x1a0|                  0b                           |      .         |                    end: 0xb (valid) 0x1a6-0x1a6.7 (1)
     |                                               |                |            [18]{}: code 0x1a7-0x1ac.7 (6)
0x1a0|                     05                        |       .        |              size: 5 0x1a7-0x1a7.7 (1)
     |                                               |                |              code{}: 0x1a8-0x1ac.7 (5)
     |                                               |                |                t{}: 0x1a8-0x1a8.7 (1)
0x1a0|                        00                     |        .       |                  n: 0 0x1a8-0x1a8.7 (1)
     |                                               |                |                  x[0:0]: 0x1a9-NA (0)
     |                                               |                |                e[0:3]: 0x1a9-0x1ac.7 (4)
     |                                               |                |                  [0]{}: in 0x1a9-0x1aa.7 (2)
0x1a0|                           20                  |                |                    local.get: 0x20 (valid) 0x1a9-0x1a9.7 (1)
0x1a0|                              00               |          .     |                    x: 0 0x1aa-0x1aa.7 (1)
     |                                               |                |                  [1]{}: in 0x1ab-0x1ab.7 (1)
0x1a0|                                 c0            |           .    |                    i32.extend8_s: 0xc0 (valid) 0x1ab-0x1ab.7 (1)
     |                                               |                |                  [2]{}: in 0x1ac-0x1ac.7 (1)
0x1a0|                                    0b         |            .   |                    end: 0xb (valid) 0x1ac-0x1ac.7 (1)
     |                                               |                |            [19]{}: code 0x1ad-0x1b2.7 (6)
0x1a0|                                       05      |             .  |              size: 5 0x1ad-0x1ad.7 (1)
     |                                               |                |              code{}: 0x1ae-0x1b2.7 (5)
     |                                               |                |                t{}: 0x1ae-0x1ae.7 (1)
0x1a0|                                          00   |              . |                  n: 0 0x1ae-0x1ae.7 (1)
     |                                               |                |                  x[0:0]: 0x1af-NA (0)
     |                                               |                |                e[0:3]: 0x1af-0x1b2.7 (4)
     |                                               |                |                  [0]{}: in 0x1af-0x1b0.7 (2)
0x1a0|                                             20|                |                    local.get: 0x20 (valid) 0x1af-0x1af.7 (1)
0x1b0|00                                             |.               |                    x: 0 0x1b0-0x1b0.7 (1)
     |                                               |                |                  [1]{}: in 0x1b1-0x1b1.7 (1)
0x1b0|   c1                                          | .              |                    i32.extend16_s: 0xc1 (valid) 0x1b1-0x1b1.7 (1)
     |                                               |                |                  [2]{}: in 0x1b2-0x1b2.7 (1)
0x1b0|      0b                                       |  .             |                    end: 0xb (valid) 0x1b2-0x1b2.7 (1)
     |                                               |                |            [20]{}: code 0x1b3-0x1b8.7 (6)
0x1b0|         05                                    |   .            |              size: 5 0x1b3-0x1b3.7 (1)
     |                                               |                |              code{}: 0x1b4-0x1b8.7 (5)
     |                                               |                |                t{}: 0x1b4-0x1b4.7 (1)
0x1b0|            00                                 |    .           |                  n: 0 0x1b4-0x1b4.7 (1)
     |                                               |                |                  x[0:0]: 0x1b5-NA (0)
     |                                               |                |                e[0:3]: 0x1b5-0x1b8.7 (4)
     |                                               |                |                  [0]{}: in 0x1b5-0x1b6.7 (2)
0x1b0|               20                              |                |                    local.get: 0x20 (valid) 0x1b5-0x1b5.7 (1)
0x1b0|                  00                           |      .         |                    x: 0 0x1b6-0x1b6.7 (1)
     |                                               |                |                  [1]{}: in 0x1b7-0x1b7.7 (1)
0x1b0|                     45                        |       E        |                    i32.eqz: 0x45 (valid) 0x1b7-0x1b7.7 (1)
     |                                               |                |                  [2]{}: in 0x1b8-0x1b8.7 (1)
0x1b0|                        0b                     |        .       |                    end: 0xb (valid) 0x1b8-0x1b8.7 (1)
     |                                               |                |            [21]{}: code 0x1b9-0x1c0.7 (8)
0x1b0|                           07                  |         .      |              size: 7 0x1b9-0x1b9.7 (1)
     |                                               |                |              code{}: 0x1ba-0x1c0.7 (7)
     |                                               |                |                t{}: 0x1ba-0x1ba.7 (1)
0x1b0|                              00               |          .     |                  n: 0 0x1ba-0x1ba.7 (1)
     |                                               |                |                  x[0:0]: 0x1bb-NA (0)
     |                                               |                |                e[0:4]: 0x1bb-0x1c0.7 (6)
     |                                               |                |                  [0]{}: in 0x1bb-0x1bc.7 (2)
0x1b0|                                 20            |                |                    local.get: 0x20 (valid) 0x1bb-0x1bb.7 (1)
0x1b0|                                    00         |            .   |                    x: 0 0x1bc-0x1bc.7 (1)
     |                                               |                |                  [1]{}: in 0x1bd-0x1be.7 (2)
0x1b0|                                       20      |                |                    local.get: 0x20 (valid) 0x1bd-0x1bd.7 (1)
0x1b0|                                          01   |              . |                    x: 1 0x1be-0x1be.7 (1)
     |                                               |                |                  [2]{}: in 0x1bf-0x1bf.7 (1)
0x1b0|                                             46|               F|                    i32.eq: 0x46 (valid) 0x1bf-0x1bf.7 (1)
     |                                               |                |                  [3]{}: in 0x1c0-0x1c0.7 (1)
0x1c0|0b                                             |.               |                    end: 0xb (valid) 0x1c0-0x1c0.7 (1)
     |                                               |                |            [22]{}: code 0x1c1-0x1c8.7 (8)
0x1c0|   07                                          | .              |              size: 7 0x1c1-0x1c1.7 (1)
     |                                               |                |              code{}: 0x1c2-0x1c8.7 (7)
     |                                               |                |                t{}: 0x1c2-0x1c2.7 (1)
0x1c0|      00                                       |  .             |                  n: 0 0x1c2-0x1c2.7 (1)
     |                                               |                |                  x[0:0]: 0x1c3-NA (0)
     |                                               |                |                e[0:4]: 0x1c3-0x1c8.7 (6)
     |                                               |                |                  [0]{}: in 0x1c3-0x1c4.7 (2)
0x1c0|         20                                    |                |                    local.get: 0x20 (valid) 0x1c3-0x1c3.7 (1)
0x1c0|            00                                 |    .           |                    x: 0 0x1c4-0x1c4.7 (1)
     |                                               |                |                  [1]{}: in 0x1c5-0x1c6.7 (2)
0x1c0|               20                              |                |                    local.get: 0x20 (valid) 0x1c5-0x1c5.7 (1)
0x1c0|                  01                           |      .         |                    x: 1 0x1c6-0x1c6.7 (1)
     |                                               |                |                  [2]{}: in 0x1c7-0x1c7.7 (1)
0x1c0|                     47                        |       G        |                    i32.ne: 0x47 (valid) 0x1c7-0x1c7.7 (1)
     |                                               |                |                  [3]{}: in 0x1c8-0x1c8.7 (1)
0x1c0|                        0b                     |        .       |                    end: 0xb (valid) 0x1c8-0x1c8.7 (1)
     |                                               |                |            [23]{}: code 0x1c9-0x1d0.7 (8)
0x1c0|                           07                  |         .      |              size: 7 0x1c9-0x1c9.7 (1)
     |                                               |                |              code{}: 0x1ca-0x1d0.7 (7)
     |                                               |                |                t{}: 0x1ca-0x1ca.7 (1)
0x1c0|                              00               |          .     |                  n: 0 0x1ca-0x1ca.7 (1)
     |                                               |                |                  x[0:0]: 0x1cb-NA (0)
     |                                               |                |                e[0:4]: 0x1cb-0x1d0.7 (6)
     |                                               |                |                  [0]{}: in 0x1cb-0x1cc.7 (2)
0x1c0|                                 20            |                |                    local.get: 0x20 (valid) 0x1cb-0x1cb.7 (1)
0x1c0|                                    00         |            .   |                    x: 0 0x1cc-0x1cc.7 (1)
     |                                               |                |                  [1]{}: in 0x1cd-0x1ce.7 (2)
0x1c0|                                       20      |                |                    local.get: 0x20 (valid) 0x1cd-0x1cd.7 (1)
0x1c0|                                          01   |              . |                    x: 1 0x1ce-0x1ce.7 (1)
     |                                               |                |                  [2]{}: in 0x1cf-0x1cf.7 (1)
0x1c0|                                             48|               H|                    i32.lt_s: 0x48 (valid) 0x1cf-0x1cf.7 (1)
     |                                               |                |                  [3]{}: in 0x1d0-0x1d0.7 (1)
0x1d0|0b                                             |.               |                    end: 0xb (valid) 0x1d0-0x1d0.7 (1)
     |                                               |                |            [24]{}: code 0x1d1-0x1d8.7 (8)
0x1d0|   07                                          | .              |              size: 7 0x1d1-0x1d1.7 (1)
     |                                               |                |              code{}: 0x1d2-0x1d8.7 (7)
     |                                               |                |                t{}: 0x1d2-0x1d2.7 (1)
0x1d0|      00                                       |  .             |                  n: 0 0x1d2-0x1d2.7 (1)
     |                                               |                |                  x[0:0]: 0x1d3-NA (0)
     |                                               |                |                e[0:4]: 0x1d3-0x1d8.7 (6)
     |                                               |                |                  [0]{}: in 0x1d3-0x1d4.7 (2)
0x1d0|         20                                    |                |                    local.get: 0x20 (valid) 0x1d3-0x1d3.7 (1)
0x1d0|            00                                 |    .           |                    x: 0 0x1d4-0x1d4.7 (1)
     |                                               |                |                  [1]{}: in 0x1d5-0x1d6.7 (2)
0x1d0|               20                              |                |                    local.get: 0x20 (valid) 0x1d5-0x1d5.7 (1)
0x1d0|                  01                           |      .         |                    x: 1 0x1d6-0x1d6.7 (1)
     |                                               |                |                  [2]{}: in 0x1d7-0x1d7.7 (1)
0x1d0|                     49                        |       I        |                    i32.lt_u: 0x49 (valid) 0x1d7-0x1d7.7 (1)
     |                                               |                |                  [3]{}: in 0x1d8-0x1d8.7 (1)
0x1d0|                        0b                     |        .       |                    end: 0xb (valid) 0x1d8-0x1d8.7 (1)
     |                                               |                |            [25]{}: code 0x1d9-0x1e0.7 (8)
0x1d0|                           07                  |         .      |              size: 7 0x1d9-0x1d9.7 (1)
     |                                               |                |              code{}: 0x1da-0x1e0.7 (7)
     |                                               |                |                t{}: 0x1da-0x1da.7 (1)
0x1d0|                              00               |          .     |                  n: 0 0x1da-0x1da.7 (1)
     |                                               |                |                  x[0:0]: 0x1db-NA (0)
     |                                               |                |                e[0:4]: 0x1db-0x1e0.7 (6)
     |                                               |                |                  [0]{}: in 0x1db-0x1dc.7 (2)
0x1d0|                                 20            |                |                    local.get: 0x20 (valid) 0x1db-0x1db.7 (1)
0x1d0|                                    00         |            .   |                    x: 0 0x1dc-0x1dc.7 (1)
     |                                               |                |                  [1]{}: in 0x1dd-0x1de.7 (2)
0x1d0|                                       20      |                |                    local.get: 0x20 (valid) 0x1dd-0x1dd.7 (1)
0x1d0|                                          01   |              . |                    x: 1 0x1de-0x1de.7 (1)
     |                                               |                |                  [2]{}: in 0x1df-0x1df.7 (1)
0x1d0|                                             4c|               L|                    i32.le_s: 0x4c (valid) 0x1df-0x1df.7 (1)
     |                                               |                |                  [3]{}: in 0x1e0-0x1e0.7 (1)
0x1e0|0b                                             |.               |                    end: 0xb (valid) 0x1e0-0x1e0.7 (1)
     |                                               |                |            [26]{}: code 0x1e1-0x1e8.7 (8)
0x1e0|   07                                          | .              |              size: 7 0x1e1-0x1e1.7 (1)
     |                                               |                |              code{}: 0x1e2-0x1e8.7 (7)
     |                                               |                |                t{}: 0x1e2-0x1e2.7 (1)
0x1e0|      00                                       |  .             |                  n: 0 0x1e2-0x1e2.7 (1)
     |                                               |                |                  x[0:0]: 0x1e3-NA (0)
     |                                               |                |                e[0:4]: 0x1e3-0x1e8.7 (6)
     |                                               |                |                  [0]{}: in 0x1e3-0x1e4.7 (2)
0x1e0|         20                                    |                |                    local.get: 0x20 (valid) 0x1e3-0x1e3.7 (1)
0x1e0|            00                                 |    .           |                    x: 0 0x1e4-0x1e4.7 (1)
     |                                               |                |                  [1]{}: in 0x1e5-0x1e6.7 (2)
0x1e0|               20                              |                |                    local.get: 0x20 (valid) 0x1e5-0x1e5.7 (1)
0x1e0|                  01                           |      .         |                    x: 1 0x1e6-0x1e6.7 (1)
     |                                               |                |                  [2]{}: in 0x1e7-0x1e7.7 (1)
0x1e0|                     4d                        |       M        |                    i32.le_u: 0x4d (valid) 0x1e7-0x1e7.7 (1)
     |                                               |                |                  [3]{}: in 0x1e8-0x1e8.7 (1)
0x1e0|                        0b                     |        .       |                    end: 0xb (valid) 0x1e8-0x1e8.7 (1)
     |                                               |                |            [27]{}: code 0x1e9-0x1f0.7 (8)
0x1e0|                           07                  |         .      |              size: 7 0x1e9-0x1e9.7 (1)
     |                                               |                |              code{}: 0x1ea-0x1f0.7 (7)
     |                                               |                |                t{}: 0x1ea-0x1ea.7 (1)
0x1e0|                              00               |          .     |                  n: 0 0x1ea-0x1ea.7 (1)
     |                                               |                |                  x[0:0]: 0x1eb-NA (0)
     |                                               |                |                e[0:4]: 0x1eb-0x1f0.7 (6)
     |                                               |                |                  [0]{}: in 0x1eb-0x1ec.7 (2)
0x1e0|                                 20            |                |                    local.get: 0x20 (valid) 0x1eb-0x1eb.7 (1)
0x1e0|                                    00         |            .   |                    x: 0 0x1ec-0x1ec.7 (1)
     |                                               |                |                  [1]{}: in 0x1ed-0x1ee.7 (2)
0x1e0|                                       20      |                |                    local.get: 0x20 (valid) 0x1ed-0x1ed.7 (1)
0x1e0|                                          01   |              . |                    x: 1 0x1ee-0x1ee.7 (1)
     |                                               |                |                  [2]{}: in 0x1ef-0x1ef.7 (1)
0x1e0|                                             4a|               J|                    i32.gt_s: 0x4a (valid) 0x1ef-0x1ef.7 (1)
     |                                               |                |                  [3]{}: in 0x1f0-0x1f0.7 (1)
0x1f0|0b                                             |.               |                    end: 0xb (valid) 0x1f0-0x1f0.7 (1)
     |                                               |                |            [28]{}: code 0x1f1-0x1f8.7 (8)
0x1f0|   07                                          | .              |              size: 7 0x1f1-0x1f1.7 (1)
     |                                               |                |              code{}: 0x1f2-0x1f8.7 (7)
     |                                               |                |                t{}: 0x1f2-0x1f2.7 (1)
0x1f0|      00                                       |  .             |                  n: 0 0x1f2-0x1f2.7 (1)
     |                                               |                |                  x[0:0]: 0x1f3-NA (0)
     |                                               |                |                e[0:4]: 0x1f3-0x1f8.7 (6)
     |                                               |                |                  [0]{}: in 0x1f3-0x1f4.7 (2)
0x1f0|         20                                    |                |                    local.get: 0x20 (valid) 0x1f3-0x1f3.7 (1)
0x1f0|            00                                 |    .           |                    x: 0 0x1f4-0x1f4.7 (1)
     |                                               |                |                  [1]{}: in 0x1f5-0x1f6.7 (2)
0x1f0|               20                              |                |                    local.get: 0x20 (valid) 0x1f5-0x1f5.7 (1)
0x1f0|                  01                           |      .         |                    x: 1 0x1f6-0x1f6.7 (1)
     |                                               |                |                  [2]{}: in 0x1f7-0x1f7.7 (1)
0x1f0|                     4b                        |       K        |                    i32.gt_u: 0x4b (valid) 0x1f7-0x1f7.7 (1)
     |                                               |                |                  [3]{}: in 0x1f8-0x1f8.7 (1)
0x1f0|                        0b                     |        .       |                    end: 0xb (valid) 0x1f8-0x1f8.7 (1)
     |                                               |                |            [29]{}: code 0x1f9-0x200.7 (8)
0x1f0|                           07                  |         .      |              size: 7 0x1f9-0x1f9.7 (1)
     |                                               |                |              code{}: 0x1fa-0x200.7 (7)
     |                                               |                |                t{}: 0x1fa-0x1fa.7 (1)
0x1f0|                              00               |          .     |                  n: 0 0x1fa-0x1fa.7 (1)
     |                                               |                |                  x[0:0]: 0x1fb-NA (0)
     |                                               |                |                e[0:4]: 0x1fb-0x200.7 (6)
     |                                               |                |                  [0]{}: in 0x1fb-0x1fc.7 (2)
0x1f0|                                 20            |                |                    local.get: 0x20 (valid) 0x1fb-0x1fb.7 (1)
0x1f0|                                    00         |            .   |                    x: 0 0x1fc-0x1fc.7 (1)
     |                                               |                |                  [1]{}: in 0x1fd-0x1fe.7 (2)
0x1f0|                                       20      |                |                    local.get: 0x20 (valid) 0x1fd-0x1fd.7 (1)
0x1f0|                                          01   |              . |                    x: 1 0x1fe-0x1fe.7 (1)
     |                                               |                |                  [2]{}: in 0x1ff-0x1ff.7 (1)
0x1f0|                                             4e|               N|                    i32.ge_s: 0x4e (valid) 0x1ff-0x1ff.7 (1)
     |                                               |                |                  [3]{}: in 0x200-0x200.7 (1)
0x200|0b                                             |.               |                    end: 0xb (valid) 0x200-0x200.7 (1)
     |                                               |                |            [30]{}: code 0x201-0x208.7 (8)
0x200|   07                                          | .              |              size: 7 0x201-0x201.7 (1)
     |                                               |                |              code{}: 0x202-0x208.7 (7)
     |                                               |                |                t{}: 0x202-0x202.7 (1)
0x200|      00                                       |  .             |                  n: 0 0x202-0x202.7 (1)
     |                                               |                |                  x[0:0]: 0x203-NA (0)
     |                                               |                |                e[0:4]: 0x203-0x208.7 (6)
     |                                               |                |                  [0]{}: in 0x203-0x204.7 (2)
0x200|         20                                    |                |                    local.get: 0x20 (valid) 0x203-0x203.7 (1)
0x200|            00                                 |    .           |                    x: 0 0x204-0x204.7 (1)
     |                                               |                |                  [1]{}: in 0x205-0x206.7 (2)
0x200|               20                              |                |                    local.get: 0x20 (valid) 0x205-0x205.7 (1)
0x200|                  01                           |      .         |                    x: 1 0x206-0x206.7 (1)
     |                                               |                |                  [2]{}: in 0x207-0x207.7 (1)
0x200|                     4f                        |       O        |                    i32.ge_u: 0x4f (valid) 0x207-0x207.7 (1)
     |                                               |                |                  [3]{}: in 0x208-0x208.7 (1)
0x200|                        0b|                    |        .|      |                    end: 0xb (valid) 0x208-0x208.7 (1)
