$ fq -d wasm dv i32-0.wasm
     |00 01 02 03 04 05 06 07 08 09 0a 0b 0c 0d 0e 0f|0123456789abcdef|.{}: i32-0.wasm (wasm) 0x0-0x209 (521)
0x000|00 61 73 6d                                    |.asm            |  magic: raw bits (valid) 0x0-0x4 (4)
0x000|            01 00 00 00                        |    ....        |  version: 1 0x4-0x8 (4)
     |                                               |                |  sections[0:4]: 0x8-0x209 (513)
     |                                               |                |    [0]{}: section 0x8-0x16 (14)
0x000|                        01                     |        .       |      id: "type_section" (1) 0x8-0x9 (1)
0x000|                           0c                  |         .      |      size: 12 (valid) 0x9-0xa (1)
     |                                               |                |      content{}: 0xa-0x16 (12)
     |                                               |                |        ft{}: 0xa-0x16 (12)
0x000|                              02               |          .     |          n: 2 (valid) 0xa-0xb (1)
     |                                               |                |          x[0:2]: 0xb-0x16 (11)
     |                                               |                |            [0]{}: ft 0xb-0x11 (6)
0x000|                                 60            |           `    |              tag: 0x60 (valid) 0xb-0xc (1)
     |                                               |                |              rt1{}: 0xc-0xf (3)
0x000|                                    02         |            .   |                n: 2 (valid) 0xc-0xd (1)
     |                                               |                |                x[0:2]: 0xd-0xf (2)
0x000|                                       7f      |             .  |                  [0]: "i32" (0x7f) t 0xd-0xe (1)
0x000|                                          7f   |              . |                  [1]: "i32" (0x7f) t 0xe-0xf (1)
     |                                               |                |              rt2{}: 0xf-0x11 (2)
0x000|                                             01|               .|                n: 1 (valid) 0xf-0x10 (1)
     |                                               |                |                x[0:1]: 0x10-0x11 (1)
0x010|7f                                             |.               |                  [0]: "i32" (0x7f) t 0x10-0x11 (1)
     |                                               |                |            [1]{}: ft 0x11-0x16 (5)
0x010|   60                                          | `              |              tag: 0x60 (valid) 0x11-0x12 (1)
     |                                               |                |              rt1{}: 0x12-0x14 (2)
0x010|      01                                       |  .             |                n: 1 (valid) 0x12-0x13 (1)
     |                                               |                |                x[0:1]: 0x13-0x14 (1)
0x010|         7f                                    |   .            |                  [0]: "i32" (0x7f) t 0x13-0x14 (1)
     |                                               |                |              rt2{}: 0x14-0x16 (2)
0x010|            01                                 |    .           |                n: 1 (valid) 0x14-0x15 (1)
     |                                               |                |                x[0:1]: 0x15-0x16 (1)
0x010|               7f                              |     .          |                  [0]: "i32" (0x7f) t 0x15-0x16 (1)
     |                                               |                |    [1]{}: section 0x16-0x38 (34)
0x010|                  03                           |      .         |      id: "function_section" (3) 0x16-0x17 (1)
0x010|                     20                        |                |      size: 32 (valid) 0x17-0x18 (1)
     |                                               |                |      content{}: 0x18-0x38 (32)
     |                                               |                |        x{}: 0x18-0x38 (32)
0x010|                        1f                     |        .       |          n: 31 (valid) 0x18-0x19 (1)
     |                                               |                |          x[0:31]: 0x19-0x38 (31)
0x010|                           00                  |         .      |            [0]: 0 x (valid) 0x19-0x1a (1)
0x010|                              00               |          .     |            [1]: 0 x (valid) 0x1a-0x1b (1)
0x010|                                 00            |           .    |            [2]: 0 x (valid) 0x1b-0x1c (1)
0x010|                                    00         |            .   |            [3]: 0 x (valid) 0x1c-0x1d (1)
0x010|                                       00      |             .  |            [4]: 0 x (valid) 0x1d-0x1e (1)
0x010|                                          00   |              . |            [5]: 0 x (valid) 0x1e-0x1f (1)
0x010|                                             00|               .|            [6]: 0 x (valid) 0x1f-0x20 (1)
0x020|00                                             |.               |            [7]: 0 x (valid) 0x20-0x21 (1)
0x020|   00                                          | .              |            [8]: 0 x (valid) 0x21-0x22 (1)
0x020|      00                                       |  .             |            [9]: 0 x (valid) 0x22-0x23 (1)
0x020|         00                                    |   .            |            [10]: 0 x (valid) 0x23-0x24 (1)
0x020|            00                                 |    .           |            [11]: 0 x (valid) 0x24-0x25 (1)
0x020|               00                              |     .          |            [12]: 0 x (valid) 0x25-0x26 (1)
0x020|                  00                           |      .         |            [13]: 0 x (valid) 0x26-0x27 (1)
0x020|                     00                        |       .        |            [14]: 0 x (valid) 0x27-0x28 (1)
0x020|                        01                     |        .       |            [15]: 1 x (valid) 0x28-0x29 (1)
0x020|                           01                  |         .      |            [16]: 1 x (valid) 0x29-0x2a (1)
0x020|                              01               |          .     |            [17]: 1 x (valid) 0x2a-0x2b (1)
0x020|                                 01            |           .    |            [18]: 1 x (valid) 0x2b-0x2c (1)
0x020|                                    01         |            .   |            [19]: 1 x (valid) 0x2c-0x2d (1)
0x020|                                       01      |             .  |            [20]: 1 x (valid) 0x2d-0x2e (1)
0x020|                                          00   |              . |            [21]: 0 x (valid) 0x2e-0x2f (1)
0x020|                                             00|               .|            [22]: 0 x (valid) 0x2f-0x30 (1)
0x030|00                                             |.               |            [23]: 0 x (valid) 0x30-0x31 (1)
0x030|   00                                          | .              |            [24]: 0 x (valid) 0x31-0x32 (1)
0x030|      00                                       |  .             |            [25]: 0 x (valid) 0x32-0x33 (1)
0x030|         00                                    |   .            |            [26]: 0 x (valid) 0x33-0x34 (1)
0x030|            00                                 |    .           |            [27]: 0 x (valid) 0x34-0x35 (1)
0x030|               00                              |     .          |            [28]: 0 x (valid) 0x35-0x36 (1)
0x030|                  00                           |      .         |            [29]: 0 x (valid) 0x36-0x37 (1)
0x030|                     00                        |       .        |            [30]: 0 x (valid) 0x37-0x38 (1)
     |                                               |                |    [2]{}: section 0x38-0x119 (225)
0x030|                        07                     |        .       |      id: "export_section" (7) 0x38-0x39 (1)
0x030|                           de 01               |         ..     |      size: 222 (valid) 0x39-0x3b (2)
     |                                               |                |      content{}: 0x3b-0x119 (222)
     |                                               |                |        ex{}: 0x3b-0x119 (222)
0x030|                                 1f            |           .    |          n: 31 (valid) 0x3b-0x3c (1)
     |                                               |                |          x[0:31]: 0x3c-0x119 (221)
     |                                               |                |            [0]{}: ex 0x3c-0x42 (6)
     |                                               |                |              nm{}: 0x3c-0x40 (4)
0x030|                                    03         |            .   |                n: 3 (valid) 0x3c-0x3d (1)
0x030|                                       61 64 64|             add|                b: "add" 0x3d-0x40 (3)
     |                                               |                |              d{}: 0x40-0x42 (2)
0x040|00                                             |.               |                tag: "funcidx" (0x0) 0x40-0x41 (1)
0x040|   00                                          | .              |                x: 0 (valid) 0x41-0x42 (1)
     |                                               |                |            [1]{}: ex 0x42-0x48 (6)
     |                                               |                |              nm{}: 0x42-0x46 (4)
0x040|      03                                       |  .             |                n: 3 (valid) 0x42-0x43 (1)
0x040|         73 75 62                              |   sub          |                b: "sub" 0x43-0x46 (3)
     |                                               |                |              d{}: 0x46-0x48 (2)
0x040|                  00                           |      .         |                tag: "funcidx" (0x0) 0x46-0x47 (1)
0x040|                     01                        |       .        |                x: 1 (valid) 0x47-0x48 (1)
     |                                               |                |            [2]{}: ex 0x48-0x4e (6)
     |                                               |                |              nm{}: 0x48-0x4c (4)
0x040|                        03                     |        .       |                n: 3 (valid) 0x48-0x49 (1)
0x040|                           6d 75 6c            |         mul    |                b: "mul" 0x49-0x4c (3)
     |                                               |                |              d{}: 0x4c-0x4e (2)
0x040|                                    00         |            .   |                tag: "funcidx" (0x0) 0x4c-0x4d (1)
0x040|                                       02      |             .  |                x: 2 (valid) 0x4d-0x4e (1)
     |                                               |                |            [3]{}: ex 0x4e-0x56 (8)
     |                                               |                |              nm{}: 0x4e-0x54 (6)
0x040|                                          05   |              . |                n: 5 (valid) 0x4e-0x4f (1)
0x040|                                             64|               d|                b: "div_s" 0x4f-0x54 (5)
0x050|69 76 5f 73                                    |iv_s            |
     |                                               |                |              d{}: 0x54-0x56 (2)
0x050|            00                                 |    .           |                tag: "funcidx" (0x0) 0x54-0x55 (1)
0x050|               03                              |     .          |                x: 3 (valid) 0x55-0x56 (1)
     |                                               |                |            [4]{}: ex 0x56-0x5e (8)
     |                                               |                |              nm{}: 0x56-0x5c (6)
0x050|                  05                           |      .         |                n: 5 (valid) 0x56-0x57 (1)
0x050|                     64 69 76 5f 75            |       div_u    |                b: "div_u" 0x57-0x5c (5)
     |                                               |                |              d{}: 0x5c-0x5e (2)
0x050|                                    00         |            .   |                tag: "funcidx" (0x0) 0x5c-0x5d (1)
0x050|                                       04      |             .  |                x: 4 (valid) 0x5d-0x5e (1)
     |                                               |                |            [5]{}: ex 0x5e-0x66 (8)
     |                                               |                |              nm{}: 0x5e-0x64 (6)
0x050|                                          05   |              . |                n: 5 (valid) 0x5e-0x5f (1)
0x050|                                             72|               r|                b: "rem_s" 0x5f-0x64 (5)
0x060|65 6d 5f 73                                    |em_s            |
     |                                               |                |              d{}: 0x64-0x66 (2)
0x060|            00                                 |    .           |                tag: "funcidx" (0x0) 0x64-0x65 (1)
0x060|               05                              |     .          |                x: 5 (valid) 0x65-0x66 (1)
     |                                               |                |            [6]{}: ex 0x66-0x6e (8)
     |                                               |                |              nm{}: 0x66-0x6c (6)
0x060|                  05                           |      .         |                n: 5 (valid) 0x66-0x67 (1)
0x060|                     72 65 6d 5f 75            |       rem_u    |                b: "rem_u" 0x67-0x6c (5)
     |                                               |                |              d{}: 0x6c-0x6e (2)
0x060|                                    00         |            .   |                tag: "funcidx" (0x0) 0x6c-0x6d (1)
0x060|                                       06      |             .  |                x: 6 (valid) 0x6d-0x6e (1)
     |                                               |                |            [7]{}: ex 0x6e-0x74 (6)
     |                                               |                |              nm{}: 0x6e-0x72 (4)
0x060|                                          03   |              . |                n: 3 (valid) 0x6e-0x6f (1)
0x060|                                             61|               a|                b: "and" 0x6f-0x72 (3)
0x070|6e 64                                          |nd              |
     |                                               |                |              d{}: 0x72-0x74 (2)
0x070|      00                                       |  .             |                tag: "funcidx" (0x0) 0x72-0x73 (1)
0x070|         07                                    |   .            |                x: 7 (valid) 0x73-0x74 (1)
     |                                               |                |            [8]{}: ex 0x74-0x79 (5)
     |                                               |                |              nm{}: 0x74-0x77 (3)
0x070|            02                                 |    .           |                n: 2 (valid) 0x74-0x75 (1)
0x070|               6f 72                           |     or         |                b: "or" 0x75-0x77 (2)
     |                                               |                |              d{}: 0x77-0x79 (2)
0x070|                     00                        |       .        |                tag: "funcidx" (0x0) 0x77-0x78 (1)
0x070|                        08                     |        .       |                x: 8 (valid) 0x78-0x79 (1)
     |                                               |                |            [9]{}: ex 0x79-0x7f (6)
     |                                               |                |              nm{}: 0x79-0x7d (4)
0x070|                           03                  |         .      |                n: 3 (valid) 0x79-0x7a (1)
0x070|                              78 6f 72         |          xor   |                b: "xor" 0x7a-0x7d (3)
     |                                               |                |              d{}: 0x7d-0x7f (2)
0x070|                                       00      |             .  |                tag: "funcidx" (0x0) 0x7d-0x7e (1)
0x070|                                          09   |              . |                x: 9 (valid) 0x7e-0x7f (1)
     |                                               |                |            [10]{}: ex 0x7f-0x85 (6)
     |                                               |                |              nm{}: 0x7f-0x83 (4)
0x070|                                             03|               .|                n: 3 (valid) 0x7f-0x80 (1)
0x080|73 68 6c                                       |shl             |                b: "shl" 0x80-0x83 (3)
     |                                               |                |              d{}: 0x83-0x85 (2)
0x080|         00                                    |   .            |                tag: "funcidx" (0x0) 0x83-0x84 (1)
0x080|            0a                                 |    .           |                x: 10 (valid) 0x84-0x85 (1)
     |                                               |                |            [11]{}: ex 0x85-0x8d (8)
     |                                               |                |              nm{}: 0x85-0x8b (6)
0x080|               05                              |     .          |                n: 5 (valid) 0x85-0x86 (1)
0x080|                  73 68 72 5f 73               |      shr_s     |                b: "shr_s" 0x86-0x8b (5)
     |                                               |                |              d{}: 0x8b-0x8d (2)
0x080|                                 00            |           .    |                tag: "funcidx" (0x0) 0x8b-0x8c (1)
0x080|                                    0b         |            .   |                x: 11 (valid) 0x8c-0x8d (1)
     |                                               |                |            [12]{}: ex 0x8d-0x95 (8)
     |                                               |                |              nm{}: 0x8d-0x93 (6)
0x080|                                       05      |             .  |                n: 5 (valid) 0x8d-0x8e (1)
0x080|                                          73 68|              sh|                b: "shr_u" 0x8e-0x93 (5)
0x090|72 5f 75                                       |r_u             |
     |                                               |                |              d{}: 0x93-0x95 (2)
0x090|         00                                    |   .            |                tag: "funcidx" (0x0) 0x93-0x94 (1)
0x090|            0c                                 |    .           |                x: 12 (valid) 0x94-0x95 (1)
     |                                               |                |            [13]{}: ex 0x95-0x9c (7)
     |                                               |                |              nm{}: 0x95-0x9a (5)
0x090|               04                              |     .          |                n: 4 (valid) 0x95-0x96 (1)
0x090|                  72 6f 74 6c                  |      rotl      |                b: "rotl" 0x96-0x9a (4)
     |                                               |                |              d{}: 0x9a-0x9c (2)
0x090|                              00               |          .     |                tag: "funcidx" (0x0) 0x9a-0x9b (1)
0x090|                                 0d            |           .    |                x: 13 (valid) 0x9b-0x9c (1)
     |                                               |                |            [14]{}: ex 0x9c-0xa3 (7)
     |                                               |                |              nm{}: 0x9c-0xa1 (5)
0x090|                                    04         |            .   |                n: 4 (valid) 0x9c-0x9d (1)
0x090|                                       72 6f 74|             rot|                b: "rotr" 0x9d-0xa1 (4)
0x0a0|72                                             |r               |
     |                                               |                |              d{}: 0xa1-0xa3 (2)
0x0a0|   00                                          | .              |                tag: "funcidx" (0x0) 0xa1-0xa2 (1)
0x0a0|      0e                                       |  .             |                x: 14 (valid) 0xa2-0xa3 (1)
     |                                               |                |            [15]{}: ex 0xa3-0xa9 (6)
     |                                               |                |              nm{}: 0xa3-0xa7 (4)
0x0a0|         03                                    |   .            |                n: 3 (valid) 0xa3-0xa4 (1)
0x0a0|            63 6c 7a                           |    clz         |                b: "clz" 0xa4-0xa7 (3)
     |                                               |                |              d{}: 0xa7-0xa9 (2)
0x0a0|                     00                        |       .        |                tag: "funcidx" (0x0) 0xa7-0xa8 (1)
0x0a0|                        0f                     |        .       |                x: 15 (valid) 0xa8-0xa9 (1)
     |                                               |                |            [16]{}: ex 0xa9-0xaf (6)
     |                                               |                |              nm{}: 0xa9-0xad (4)
0x0a0|                           03                  |         .      |                n: 3 (valid) 0xa9-0xaa (1)
0x0a0|                              63 74 7a         |          ctz   |                b: "ctz" 0xaa-0xad (3)
     |                                               |                |              d{}: 0xad-0xaf (2)
0x0a0|                                       00      |             .  |                tag: "funcidx" (0x0) 0xad-0xae (1)
0x0a0|                                          10   |              . |                x: 16 (valid) 0xae-0xaf (1)
     |                                               |                |            [17]{}: ex 0xaf-0xb8 (9)
     |                                               |                |              nm{}: 0xaf-0xb6 (7)
0x0a0|                                             06|               .|                n: 6 (valid) 0xaf-0xb0 (1)
0x0b0|70 6f 70 63 6e 74                              |popcnt          |                b: "popcnt" 0xb0-0xb6 (6)
     |                                               |                |              d{}: 0xb6-0xb8 (2)
0x0b0|                  00                           |      .         |                tag: "funcidx" (0x0) 0xb6-0xb7 (1)
0x0b0|                     11                        |       .        |                x: 17 (valid) 0xb7-0xb8 (1)
     |                                               |                |            [18]{}: ex 0xb8-0xc4 (12)
     |                                               |                |              nm{}: 0xb8-0xc2 (10)
0x0b0|                        09                     |        .       |                n: 9 (valid) 0xb8-0xb9 (1)
0x0b0|                           65 78 74 65 6e 64 38|         extend8|                b: "extend8_s" 0xb9-0xc2 (9)
0x0c0|5f 73                                          |_s              |
     |                                               |                |              d{}: 0xc2-0xc4 (2)
0x0c0|      00                                       |  .             |                tag: "funcidx" (0x0) 0xc2-0xc3 (1)
0x0c0|         12                                    |   .            |                x: 18 (valid) 0xc3-0xc4 (1)
     |                                               |                |            [19]{}: ex 0xc4-0xd1 (13)
     |                                               |                |              nm{}: 0xc4-0xcf (11)
0x0c0|            0a                                 |    .           |                n: 10 (valid) 0xc4-0xc5 (1)
0x0c0|               65 78 74 65 6e 64 31 36 5f 73   |     extend16_s |                b: "extend16_s" 0xc5-0xcf (10)
     |                                               |                |              d{}: 0xcf-0xd1 (2)
0x0c0|                                             00|               .|                tag: "funcidx" (0x0) 0xcf-0xd0 (1)
0x0d0|13                                             |.               |                x: 19 (valid) 0xd0-0xd1 (1)
     |                                               |                |            [20]{}: ex 0xd1-0xd7 (6)
     |                                               |                |              nm{}: 0xd1-0xd5 (4)
0x0d0|   03                                          | .              |                n: 3 (valid) 0xd1-0xd2 (1)
0x0d0|      65 71 7a                                 |  eqz           |                b: "eqz" 0xd2-0xd5 (3)
     |                                               |                |              d{}: 0xd5-0xd7 (2)
0x0d0|               00                              |     .          |                tag: "funcidx" (0x0) 0xd5-0xd6 (1)
0x0d0|                  14                           |      .         |                x: 20 (valid) 0xd6-0xd7 (1)
     |                                               |                |            [21]{}: ex 0xd7-0xdc (5)
     |                                               |                |              nm{}: 0xd7-0xda (3)
0x0d0|                     02                        |       .        |                n: 2 (valid) 0xd7-0xd8 (1)
0x0d0|                        65 71                  |        eq      |                b: "eq" 0xd8-0xda (2)
     |                                               |                |              d{}: 0xda-0xdc (2)
0x0d0|                              00               |          .     |                tag: "funcidx" (0x0) 0xda-0xdb (1)
0x0d0|                                 15            |           .    |                x: 21 (valid) 0xdb-0xdc (1)
     |                                               |                |            [22]{}: ex 0xdc-0xe1 (5)
     |                                               |                |              nm{}: 0xdc-0xdf (3)
0x0d0|                                    02         |            .   |                n: 2 (valid) 0xdc-0xdd (1)
0x0d0|                                       6e 65   |             ne |                b: "ne" 0xdd-0xdf (2)
     |                                               |                |              d{}: 0xdf-0xe1 (2)
0x0d0|                                             00|               .|                tag: "funcidx" (0x0) 0xdf-0xe0 (1)
0x0e0|16                                             |.               |                x: 22 (valid) 0xe0-0xe1 (1)
     |                                               |                |            [23]{}: ex 0xe1-0xe8 (7)
     |                                               |                |              nm{}: 0xe1-0xe6 (5)
0x0e0|   04                                          | .              |                n: 4 (valid) 0xe1-0xe2 (1)
0x0e0|      6c 74 5f 73                              |  lt_s          |                b: "lt_s" 0xe2-0xe6 (4)
     |                                               |                |              d{}: 0xe6-0xe8 (2)
0x0e0|                  00                           |      .         |                tag: "funcidx" (0x0) 0xe6-0xe7 (1)
0x0e0|                     17                        |       .        |                x: 23 (valid) 0xe7-0xe8 (1)
     |                                               |                |            [24]{}: ex 0xe8-0xef (7)
     |                                               |                |              nm{}: 0xe8-0xed (5)
0x0e0|                        04                     |        .       |                n: 4 (valid) 0xe8-0xe9 (1)
0x0e0|                           6c 74 5f 75         |         lt_u   |                b: "lt_u" 0xe9-0xed (4)
     |                                               |                |              d{}: 0xed-0xef (2)
0x0e0|                                       00      |             .  |                tag: "funcidx" (0x0) 0xed-0xee (1)
0x0e0|                                          18   |              . |                x: 24 (valid) 0xee-0xef (1)
     |                                               |                |            [25]{}: ex 0xef-0xf6 (7)
     |                                               |                |              nm{}: 0xef-0xf4 (5)
0x0e0|                                             04|               .|                n: 4 (valid) 0xef-0xf0 (1)
0x0f0|6c 65 5f 73                                    |le_s            |                b: "le_s" 0xf0-0xf4 (4)
     |                                               |                |              d{}: 0xf4-0xf6 (2)
0x0f0|            00                                 |    .           |                tag: "funcidx" (0x0) 0xf4-0xf5 (1)
0x0f0|               19                              |     .          |                x: 25 (valid) 0xf5-0xf6 (1)
     |                                               |                |            [26]{}: ex 0xf6-0xfd (7)
     |                                               |                |              nm{}: 0xf6-0xfb (5)
0x0f0|                  04                           |      .         |                n: 4 (valid) 0xf6-0xf7 (1)
0x0f0|                     6c 65 5f 75               |       le_u     |                b: "le_u" 0xf7-0xfb (4)
     |                                               |                |              d{}: 0xfb-0xfd (2)
0x0f0|                                 00            |           .    |                tag: "funcidx" (0x0) 0xfb-0xfc (1)
0x0f0|                                    1a         |            .   |                x: 26 (valid) 0xfc-0xfd (1)
     |                                               |                |            [27]{}: ex 0xfd-0x104 (7)
     |                                               |                |              nm{}: 0xfd-0x102 (5)
0x0f0|                                       04      |             .  |                n: 4 (valid) 0xfd-0xfe (1)
0x0f0|                                          67 74|              gt|                b: "gt_s" 0xfe-0x102 (4)
0x100|5f 73                                          |_s              |
     |                                               |                |              d{}: 0x102-0x104 (2)
0x100|      00                                       |  .             |                tag: "funcidx" (0x0) 0x102-0x103 (1)
0x100|         1b                                    |   .            |                x: 27 (valid) 0x103-0x104 (1)
     |                                               |                |            [28]{}: ex 0x104-0x10b (7)
     |                                               |                |              nm{}: 0x104-0x109 (5)
0x100|            04                                 |    .           |                n: 4 (valid) 0x104-0x105 (1)
0x100|               67 74 5f 75                     |     gt_u       |                b: "gt_u" 0x105-0x109 (4)
     |                                               |                |              d{}: 0x109-0x10b (2)
0x100|                           00                  |         .      |                tag: "funcidx" (0x0) 0x109-0x10a (1)
0x100|                              1c               |          .     |                x: 28 (valid) 0x10a-0x10b (1)
     |                                               |                |            [29]{}: ex 0x10b-0x112 (7)
     |                                               |                |              nm{}: 0x10b-0x110 (5)
0x100|                                 04            |           .    |                n: 4 (valid) 0x10b-0x10c (1)
0x100|                                    67 65 5f 73|            ge_s|                b: "ge_s" 0x10c-0x110 (4)
     |                                               |                |              d{}: 0x110-0x112 (2)
0x110|00                                             |.               |                tag: "funcidx" (0x0) 0x110-0x111 (1)
0x110|   1d                                          | .              |                x: 29 (valid) 0x111-0x112 (1)
     |                                               |                |            [30]{}: ex 0x112-0x119 (7)
     |                                               |                |              nm{}: 0x112-0x117 (5)
0x110|      04                                       |  .             |                n: 4 (valid) 0x112-0x113 (1)
0x110|         67 65 5f 75                           |   ge_u         |                b: "ge_u" 0x113-0x117 (4)
     |                                               |                |              d{}: 0x117-0x119 (2)
0x110|                     00                        |       .        |                tag: "funcidx" (0x0) 0x117-0x118 (1)
0x110|                        1e                     |        .       |                x: 30 (valid) 0x118-0x119 (1)
     |                                               |                |    [3]{}: section 0x119-0x209 (240)
0x110|                           0a                  |         .      |      id: "code_section" (10) 0x119-0x11a (1)
0x110|                              ed 01            |          ..    |      size: 237 (valid) 0x11a-0x11c (2)
     |                                               |                |      content{}: 0x11c-0x209 (237)
     |                                               |                |        code{}: 0x11c-0x209 (237)
0x110|                                    1f         |            .   |          n: 31 (valid) 0x11c-0x11d (1)
     |                                               |                |          x[0:31]: 0x11d-0x209 (236)
     |                                               |                |            [0]{}: code 0x11d-0x125 (8)
0x110|                                       07      |             .  |              size: 7 (valid) 0x11d-0x11e (1)
     |                                               |                |              code{}: 0x11e-0x125 (7)
     |                                               |                |                t{}: 0x11e-0x11f (1)
0x110|                                          00   |              . |                  n: 0 (valid) 0x11e-0x11f (1)
     |                                               |                |                  x[0:0]: 0x11f-0x11f (0)
     |                                               |                |                e[0:4]: 0x11f-0x125 (6)
     |                                               |                |                  [0]{}: in 0x11f-0x121 (2)
0x110|                                             20|                |                    opcode: "local.get" (0x20) 0x11f-0x120 (1)
0x120|00                                             |.               |                    x: 0 (valid) 0x120-0x121 (1)
     |                                               |                |                  [1]{}: in 0x121-0x123 (2)
0x120|   20                                          |                |                    opcode: "local.get" (0x20) 0x121-0x122 (1)
0x120|      01                                       |  .             |                    x: 1 (valid) 0x122-0x123 (1)
     |                                               |                |                  [2]{}: in 0x123-0x124 (1)
0x120|         6a                                    |   j            |                    opcode: "i32.add" (0x6a) 0x123-0x124 (1)
     |                                               |                |                  [3]{}: in 0x124-0x125 (1)
0x120|            0b                                 |    .           |                    opcode: "end" (0xb) 0x124-0x125 (1)
     |                                               |                |            [1]{}: code 0x125-0x12d (8)
0x120|               07                              |     .          |              size: 7 (valid) 0x125-0x126 (1)
     |                                               |                |              code{}: 0x126-0x12d (7)
     |                                               |                |                t{}: 0x126-0x127 (1)
0x120|                  00                           |      .         |                  n: 0 (valid) 0x126-0x127 (1)
     |                                               |                |                  x[0:0]: 0x127-0x127 (0)
     |                                               |                |                e[0:4]: 0x127-0x12d (6)
     |                                               |                |                  [0]{}: in 0x127-0x129 (2)
0x120|                     20                        |                |                    opcode: "local.get" (0x20) 0x127-0x128 (1)
0x120|                        00                     |        .       |                    x: 0 (valid) 0x128-0x129 (1)
     |                                               |                |                  [1]{}: in 0x129-0x12b (2)
0x120|                           20                  |                |                    opcode: "local.get" (0x20) 0x129-0x12a (1)
0x120|                              01               |          .     |                    x: 1 (valid) 0x12a-0x12b (1)
     |                                               |                |                  [2]{}: in 0x12b-0x12c (1)
0x120|                                 6b            |           k    |                    opcode: "i32.sub" (0x6b) 0x12b-0x12c (1)
     |                                               |                |                  [3]{}: in 0x12c-0x12d (1)
0x120|                                    0b         |            .   |                    opcode: "end" (0xb) 0x12c-0x12d (1)
     |                                               |                |            [2]{}: code 0x12d-0x135 (8)
0x120|                                       07      |             .  |              size: 7 (valid) 0x12d-0x12e (1)
     |                                               |                |              code{}: 0x12e-0x135 (7)
     |                                               |                |                t{}: 0x12e-0x12f (1)
0x120|                                          00   |              . |                  n: 0 (valid) 0x12e-0x12f (1)
     |                                               |                |                  x[0:0]: 0x12f-0x12f (0)
     |                                               |                |                e[0:4]: 0x12f-0x135 (6)
     |                                               |                |                  [0]{}: in 0x12f-0x131 (2)
0x120|                                             20|                |                    opcode: "local.get" (0x20) 0x12f-0x130 (1)
0x130|00                                             |.               |                    x: 0 (valid) 0x130-0x131 (1)
     |                                               |                |                  [1]{}: in 0x131-0x133 (2)
0x130|   20                                          |                |                    opcode: "local.get" (0x20) 0x131-0x132 (1)
0x130|      01                                       |  .             |                    x: 1 (valid) 0x132-0x133 (1)
     |                                               |                |                  [2]{}: in 0x133-0x134 (1)
0x130|         6c                                    |   l            |                    opcode: "i32.mul" (0x6c) 0x133-0x134 (1)
     |                                               |                |                  [3]{}: in 0x134-0x135 (1)
0x130|            0b                                 |    .           |                    opcode: "end" (0xb) 0x134-0x135 (1)
     |                                               |                |            [3]{}: code 0x135-0x13d (8)
0x130|               07                              |     .          |              size: 7 (valid) 0x135-0x136 (1)
     |                                               |                |              code{}: 0x136-0x13d (7)
     |                                               |                |                t{}: 0x136-0x137 (1)
0x130|                  00                           |      .         |                  n: 0 (valid) 0x136-0x137 (1)
     |                                               |                |                  x[0:0]: 0x137-0x137 (0)
     |                                               |                |                e[0:4]: 0x137-0x13d (6)
     |                                               |                |                  [0]{}: in 0x137-0x139 (2)
0x130|                     20                        |                |                    opcode: "local.get" (0x20) 0x137-0x138 (1)
0x130|                        00                     |        .       |                    x: 0 (valid) 0x138-0x139 (1)
     |                                               |                |                  [1]{}: in 0x139-0x13b (2)
0x130|                           20                  |                |                    opcode: "local.get" (0x20) 0x139-0x13a (1)
0x130|                              01               |          .     |                    x: 1 (valid) 0x13a-0x13b (1)
     |                                               |                |                  [2]{}: in 0x13b-0x13c (1)
0x130|                                 6d            |           m    |                    opcode: "i32.div_s" (0x6d) 0x13b-0x13c (1)
     |                                               |                |                  [3]{}: in 0x13c-0x13d (1)
0x130|                                    0b         |            .   |                    opcode: "end" (0xb) 0x13c-0x13d (1)
     |                                               |                |            [4]{}: code 0x13d-0x145 (8)
0x130|                                       07      |             .  |              size: 7 (valid) 0x13d-0x13e (1)
     |                                               |                |              code{}: 0x13e-0x145 (7)
     |                                               |                |                t{}: 0x13e-0x13f (1)
0x130|                                          00   |              . |                  n: 0 (valid) 0x13e-0x13f (1)
     |                                               |                |                  x[0:0]: 0x13f-0x13f (0)
     |                                               |                |                e[0:4]: 0x13f-0x145 (6)
     |                                               |                |                  [0]{}: in 0x13f-0x141 (2)
0x130|                                             20|                |                    opcode: "local.get" (0x20) 0x13f-0x140 (1)
0x140|00                                             |.               |                    x: 0 (valid) 0x140-0x141 (1)
     |                                               |                |                  [1]{}: in 0x141-0x143 (2)
0x140|   20                                          |                |                    opcode: "local.get" (0x20) 0x141-0x142 (1)
0x140|      01                                       |  .             |                    x: 1 (valid) 0x142-0x143 (1)
     |                                               |                |                  [2]{}: in 0x143-0x144 (1)
0x140|         6e                                    |   n            |                    opcode: "i32.div_u" (0x6e) 0x143-0x144 (1)
     |                                               |                |                  [3]{}: in 0x144-0x145 (1)
0x140|            0b                                 |    .           |                    opcode: "end" (0xb) 0x144-0x145 (1)
     |                                               |                |            [5]{}: code 0x145-0x14d (8)
0x140|               07                              |     .          |              size: 7 (valid) 0x145-0x146 (1)
     |                                               |                |              code{}: 0x146-0x14d (7)
     |                                               |                |                t{}: 0x146-0x147 (1)
0x140|                  00                           |      .         |                  n: 0 (valid) 0x146-0x147 (1)
     |                                               |                |                  x[0:0]: 0x147-0x147 (0)
     |                                               |                |                e[0:4]: 0x147-0x14d (6)
     |                                               |                |                  [0]{}: in 0x147-0x149 (2)
0x140|                     20                        |                |                    opcode: "local.get" (0x20) 0x147-0x148 (1)
0x140|                        00                     |        .       |                    x: 0 (valid) 0x148-0x149 (1)
     |                                               |                |                  [1]{}: in 0x149-0x14b (2)
0x140|                           20                  |                |                    opcode: "local.get" (0x20) 0x149-0x14a (1)
0x140|                              01               |          .     |                    x: 1 (valid) 0x14a-0x14b (1)
     |                                               |                |                  [2]{}: in 0x14b-0x14c (1)
0x140|                                 6f            |           o    |                    opcode: "i32.rem_s" (0x6f) 0x14b-0x14c (1)
     |                                               |                |                  [3]{}: in 0x14c-0x14d (1)
0x140|                                    0b         |            .   |                    opcode: "end" (0xb) 0x14c-0x14d (1)
     |                                               |                |            [6]{}: code 0x14d-0x155 (8)
0x140|                                       07      |             .  |              size: 7 (valid) 0x14d-0x14e (1)
     |                                               |                |              code{}: 0x14e-0x155 (7)
     |                                               |                |                t{}: 0x14e-0x14f (1)
0x140|                                          00   |              . |                  n: 0 (valid) 0x14e-0x14f (1)
     |                                               |                |                  x[0:0]: 0x14f-0x14f (0)
     |                                               |                |                e[0:4]: 0x14f-0x155 (6)
     |                                               |                |                  [0]{}: in 0x14f-0x151 (2)
0x140|                                             20|                |                    opcode: "local.get" (0x20) 0x14f-0x150 (1)
0x150|00                                             |.               |                    x: 0 (valid) 0x150-0x151 (1)
     |                                               |                |                  [1]{}: in 0x151-0x153 (2)
0x150|   20                                          |                |                    opcode: "local.get" (0x20) 0x151-0x152 (1)
0x150|      01                                       |  .             |                    x: 1 (valid) 0x152-0x153 (1)
     |                                               |                |                  [2]{}: in 0x153-0x154 (1)
0x150|         70                                    |   p            |                    opcode: "i32.rem_u" (0x70) 0x153-0x154 (1)
     |                                               |                |                  [3]{}: in 0x154-0x155 (1)
0x150|            0b                                 |    .           |                    opcode: "end" (0xb) 0x154-0x155 (1)
     |                                               |                |            [7]{}: code 0x155-0x15d (8)
0x150|               07                              |     .          |              size: 7 (valid) 0x155-0x156 (1)
     |                                               |                |              code{}: 0x156-0x15d (7)
     |                                               |                |                t{}: 0x156-0x157 (1)
0x150|                  00                           |      .         |                  n: 0 (valid) 0x156-0x157 (1)
     |                                               |                |                  x[0:0]: 0x157-0x157 (0)
     |                                               |                |                e[0:4]: 0x157-0x15d (6)
     |                                               |                |                  [0]{}: in 0x157-0x159 (2)
0x150|                     20                        |                |                    opcode: "local.get" (0x20) 0x157-0x158 (1)
0x150|                        00                     |        .       |                    x: 0 (valid) 0x158-0x159 (1)
     |                                               |                |                  [1]{}: in 0x159-0x15b (2)
0x150|                           20                  |                |                    opcode: "local.get" (0x20) 0x159-0x15a (1)
0x150|                              01               |          .     |                    x: 1 (valid) 0x15a-0x15b (1)
     |                                               |                |                  [2]{}: in 0x15b-0x15c (1)
0x150|                                 71            |           q    |                    opcode: "i32.and" (0x71) 0x15b-0x15c (1)
     |                                               |                |                  [3]{}: in 0x15c-0x15d (1)
0x150|                                    0b         |            .   |                    opcode: "end" (0xb) 0x15c-0x15d (1)
     |                                               |                |            [8]{}: code 0x15d-0x165 (8)
0x150|                                       07      |             .  |              size: 7 (valid) 0x15d-0x15e (1)
     |                                               |                |              code{}: 0x15e-0x165 (7)
     |                                               |                |                t{}: 0x15e-0x15f (1)
0x150|                                          00   |              . |                  n: 0 (valid) 0x15e-0x15f (1)
     |                                               |                |                  x[0:0]: 0x15f-0x15f (0)
     |                                               |                |                e[0:4]: 0x15f-0x165 (6)
     |                                               |                |                  [0]{}: in 0x15f-0x161 (2)
0x150|                                             20|                |                    opcode: "local.get" (0x20) 0x15f-0x160 (1)
0x160|00                                             |.               |                    x: 0 (valid) 0x160-0x161 (1)
     |                                               |                |                  [1]{}: in 0x161-0x163 (2)
0x160|   20                                          |                |                    opcode: "local.get" (0x20) 0x161-0x162 (1)
0x160|      01                                       |  .             |                    x: 1 (valid) 0x162-0x163 (1)
     |                                               |                |                  [2]{}: in 0x163-0x164 (1)
0x160|         72                                    |   r            |                    opcode: "i32.or" (0x72) 0x163-0x164 (1)
     |                                               |                |                  [3]{}: in 0x164-0x165 (1)
0x160|            0b                                 |    .           |                    opcode: "end" (0xb) 0x164-0x165 (1)
     |                                               |                |            [9]{}: code 0x165-0x16d (8)
0x160|               07                              |     .          |              size: 7 (valid) 0x165-0x166 (1)
     |                                               |                |              code{}: 0x166-0x16d (7)
     |                                               |                |                t{}: 0x166-0x167 (1)
0x160|                  00                           |      .         |                  n: 0 (valid) 0x166-0x167 (1)
     |                                               |                |                  x[0:0]: 0x167-0x167 (0)
     |                                               |                |                e[0:4]: 0x167-0x16d (6)
     |                                               |                |                  [0]{}: in 0x167-0x169 (2)
0x160|                     20                        |                |                    opcode: "local.get" (0x20) 0x167-0x168 (1)
0x160|                        00                     |        .       |                    x: 0 (valid) 0x168-0x169 (1)
     |                                               |                |                  [1]{}: in 0x169-0x16b (2)
0x160|                           20                  |                |                    opcode: "local.get" (0x20) 0x169-0x16a (1)
0x160|                              01               |          .     |                    x: 1 (valid) 0x16a-0x16b (1)
     |                                               |                |                  [2]{}: in 0x16b-0x16c (1)
0x160|                                 73            |           s    |                    opcode: "i32.xor" (0x73) 0x16b-0x16c (1)
     |                                               |                |                  [3]{}: in 0x16c-0x16d (1)
0x160|                                    0b         |            .   |                    opcode: "end" (0xb) 0x16c-0x16d (1)
     |                                               |                |            [10]{}: code 0x16d-0x175 (8)
0x160|                                       07      |             .  |              size: 7 (valid) 0x16d-0x16e (1)
     |                                               |                |              code{}: 0x16e-0x175 (7)
     |                                               |                |                t{}: 0x16e-0x16f (1)
0x160|                                          00   |              . |                  n: 0 (valid) 0x16e-0x16f (1)
     |                                               |                |                  x[0:0]: 0x16f-0x16f (0)
     |                                               |                |                e[0:4]: 0x16f-0x175 (6)
     |                                               |                |                  [0]{}: in 0x16f-0x171 (2)
0x160|                                             20|                |                    opcode: "local.get" (0x20) 0x16f-0x170 (1)
0x170|00                                             |.               |                    x: 0 (valid) 0x170-0x171 (1)
     |                                               |                |                  [1]{}: in 0x171-0x173 (2)
0x170|   20                                          |                |                    opcode: "local.get" (0x20) 0x171-0x172 (1)
0x170|      01                                       |  .             |                    x: 1 (valid) 0x172-0x173 (1)
     |                                               |                |                  [2]{}: in 0x173-0x174 (1)
0x170|         74                                    |   t            |                    opcode: "i32.shl" (0x74) 0x173-0x174 (1)
     |                                               |                |                  [3]{}: in 0x174-0x175 (1)
0x170|            0b                                 |    .           |                    opcode: "end" (0xb) 0x174-0x175 (1)
     |                                               |                |            [11]{}: code 0x175-0x17d (8)
0x170|               07                              |     .          |              size: 7 (valid) 0x175-0x176 (1)
     |                                               |                |              code{}: 0x176-0x17d (7)
     |                                               |                |                t{}: 0x176-0x177 (1)
0x170|                  00                           |      .         |                  n: 0 (valid) 0x176-0x177 (1)
     |                                               |                |                  x[0:0]: 0x177-0x177 (0)
     |                                               |                |                e[0:4]: 0x177-0x17d (6)
     |                                               |                |                  [0]{}: in 0x177-0x179 (2)
0x170|                     20                        |                |                    opcode: "local.get" (0x20) 0x177-0x178 (1)
0x170|                        00                     |        .       |                    x: 0 (valid) 0x178-0x179 (1)
     |                                               |                |                  [1]{}: in 0x179-0x17b (2)
0x170|                           20                  |                |                    opcode: "local.get" (0x20) 0x179-0x17a (1)
0x170|                              01               |          .     |                    x: 1 (valid) 0x17a-0x17b (1)
     |                                               |                |                  [2]{}: in 0x17b-0x17c (1)
0x170|                                 75            |           u    |                    opcode: "i32.shr_s" (0x75) 0x17b-0x17c (1)
     |                                               |                |                  [3]{}: in 0x17c-0x17d (1)
0x170|                                    0b         |            .   |                    opcode: "end" (0xb) 0x17c-0x17d (1)
     |                                               |                |            [12]{}: code 0x17d-0x185 (8)
0x170|                                       07      |             .  |              size: 7 (valid) 0x17d-0x17e (1)
     |                                               |                |              code{}: 0x17e-0x185 (7)
     |                                               |                |                t{}: 0x17e-0x17f (1)
0x170|                                          00   |              . |                  n: 0 (valid) 0x17e-0x17f (1)
     |                                               |                |                  x[0:0]: 0x17f-0x17f (0)
     |                                               |                |                e[0:4]: 0x17f-0x185 (6)
     |                                               |                |                  [0]{}: in 0x17f-0x181 (2)
0x170|                                             20|                |                    opcode: "local.get" (0x20) 0x17f-0x180 (1)
0x180|00                                             |.               |                    x: 0 (valid) 0x180-0x181 (1)
     |                                               |                |                  [1]{}: in 0x181-0x183 (2)
0x180|   20                                          |                |                    opcode: "local.get" (0x20) 0x181-0x182 (1)
0x180|      01                                       |  .             |                    x: 1 (valid) 0x182-0x183 (1)
     |                                               |                |                  [2]{}: in 0x183-0x184 (1)
0x180|         76                                    |   v            |                    opcode: "i32.shr_u" (0x76) 0x183-0x184 (1)
     |                                               |                |                  [3]{}: in 0x184-0x185 (1)
0x180|            0b                                 |    .           |                    opcode: "end" (0xb) 0x184-0x185 (1)
     |                                               |                |            [13]{}: code 0x185-0x18d (8)
0x180|               07                              |     .          |              size: 7 (valid) 0x185-0x186 (1)
     |                                               |                |              code{}: 0x186-0x18d (7)
     |                                               |                |                t{}: 0x186-0x187 (1)
0x180|                  00                           |      .         |                  n: 0 (valid) 0x186-0x187 (1)
     |                                               |                |                  x[0:0]: 0x187-0x187 (0)
     |                                               |                |                e[0:4]: 0x187-0x18d (6)
     |                                               |                |                  [0]{}: in 0x187-0x189 (2)
0x180|                     20                        |                |                    opcode: "local.get" (0x20) 0x187-0x188 (1)
0x180|                        00                     |        .       |                    x: 0 (valid) 0x188-0x189 (1)
     |                                               |                |                  [1]{}: in 0x189-0x18b (2)
0x180|                           20                  |                |                    opcode: "local.get" (0x20) 0x189-0x18a (1)
0x180|                              01               |          .     |                    x: 1 (valid) 0x18a-0x18b (1)
     |                                               |                |                  [2]{}: in 0x18b-0x18c (1)
0x180|                                 77            |           w    |                    opcode: "i32.rotl" (0x77) 0x18b-0x18c (1)
     |                                               |                |                  [3]{}: in 0x18c-0x18d (1)
0x180|                                    0b         |            .   |                    opcode: "end" (0xb) 0x18c-0x18d (1)
     |                                               |                |            [14]{}: code 0x18d-0x195 (8)
0x180|                                       07      |             .  |              size: 7 (valid) 0x18d-0x18e (1)
     |                                               |                |              code{}: 0x18e-0x195 (7)
     |                                               |                |                t{}: 0x18e-0x18f (1)
0x180|                                          00   |              . |                  n: 0 (valid) 0x18e-0x18f (1)
     |                                               |                |                  x[0:0]: 0x18f-0x18f (0)
     |                                               |                |                e[0:4]: 0x18f-0x195 (6)
     |                                               |                |                  [0]{}: in 0x18f-0x191 (2)
0x180|                                             20|                |                    opcode: "local.get" (0x20) 0x18f-0x190 (1)
0x190|00                                             |.               |                    x: 0 (valid) 0x190-0x191 (1)
     |                                               |                |                  [1]{}: in 0x191-0x193 (2)
0x190|   20                                          |                |                    opcode: "local.get" (0x20) 0x191-0x192 (1)
0x190|      01                                       |  .             |                    x: 1 (valid) 0x192-0x193 (1)
     |                                               |                |                  [2]{}: in 0x193-0x194 (1)
0x190|         78                                    |   x            |                    opcode: "i32.rotr" (0x78) 0x193-0x194 (1)
     |                                               |                |                  [3]{}: in 0x194-0x195 (1)
0x190|            0b                                 |    .           |                    opcode: "end" (0xb) 0x194-0x195 (1)
     |                                               |                |            [15]{}: code 0x195-0x19b (6)
0x190|               05                              |     .          |              size: 5 (valid) 0x195-0x196 (1)
     |                                               |                |              code{}: 0x196-0x19b (5)
     |                                               |                |                t{}: 0x196-0x197 (1)
0x190|                  00                           |      .         |                  n: 0 (valid) 0x196-0x197 (1)
     |                                               |                |                  x[0:0]: 0x197-0x197 (0)
     |                                               |                |                e[0:3]: 0x197-0x19b (4)
     |                                               |                |                  [0]{}: in 0x197-0x199 (2)
0x190|                     20                        |                |                    opcode: "local.get" (0x20) 0x197-0x198 (1)
0x190|                        00                     |        .       |                    x: 0 (valid) 0x198-0x199 (1)
     |                                               |                |                  [1]{}: in 0x199-0x19a (1)
0x190|                           67                  |         g      |                    opcode: "i32.clz" (0x67) 0x199-0x19a (1)
     |                                               |                |                  [2]{}: in 0x19a-0x19b (1)
0x190|                              0b               |          .     |                    opcode: "end" (0xb) 0x19a-0x19b (1)
     |                                               |                |            [16]{}: code 0x19b-0x1a1 (6)
0x190|                                 05            |           .    |              size: 5 (valid) 0x19b-0x19c (1)
     |                                               |                |              code{}: 0x19c-0x1a1 (5)
     |                                               |                |                t{}: 0x19c-0x19d (1)
0x190|                                    00         |            .   |                  n: 0 (valid) 0x19c-0x19d (1)
     |                                               |                |                  x[0:0]: 0x19d-0x19d (0)
     |                                               |                |                e[0:3]: 0x19d-0x1a1 (4)
     |                                               |                |                  [0]{}: in 0x19d-0x19f (2)
0x190|                                       20      |                |                    opcode: "local.get" (0x20) 0x19d-0x19e (1)
0x190|                                          00   |              . |                    x: 0 (valid) 0x19e-0x19f (1)
     |                                               |                |                  [1]{}: in 0x19f-0x1a0 (1)
0x190|                                             68|               h|                    opcode: "i32.ctz" (0x68) 0x19f-0x1a0 (1)
     |                                               |                |                  [2]{}: in 0x1a0-0x1a1 (1)
0x1a0|0b                                             |.               |                    opcode: "end" (0xb) 0x1a0-0x1a1 (1)
     |                                               |                |            [17]{}: code 0x1a1-0x1a7 (6)
0x1a0|   05                                          | .              |              size: 5 (valid) 0x1a1-0x1a2 (1)
     |                                               |                |              code{}: 0x1a2-0x1a7 (5)
     |                                               |                |                t{}: 0x1a2-0x1a3 (1)
0x1a0|      00                                       |  .             |                  n: 0 (valid) 0x1a2-0x1a3 (1)
     |                                               |                |                  x[0:0]: 0x1a3-0x1a3 (0)
     |                                               |                |                e[0:3]: 0x1a3-0x1a7 (4)
     |                                               |                |                  [0]{}: in 0x1a3-0x1a5 (2)
0x1a0|         20                                    |                |                    opcode: "local.get" (0x20) 0x1a3-0x1a4 (1)
0x1a0|            00                                 |    .           |                    x: 0 (valid) 0x1a4-0x1a5 (1)
     |                                               |                |                  [1]{}: in 0x1a5-0x1a6 (1)
0x1a0|               69                              |     i          |                    opcode: "i32.popcnt" (0x69) 0x1a5-0x1a6 (1)
     |                                               |                |                  [2]{}: in 0x1a6-0x1a7 (1)
0x1a0|                  0b                           |      .         |                    opcode: "end" (0xb) 0x1a6-0x1a7 (1)
     |                                               |                |            [18]{}: code 0x1a7-0x1ad (6)
0x1a0|                     05                        |       .        |              size: 5 (valid) 0x1a7-0x1a8 (1)
     |                                               |                |              code{}: 0x1a8-0x1ad (5)
     |                                               |                |                t{}: 0x1a8-0x1a9 (1)
0x1a0|                        00                     |        .       |                  n: 0 (valid) 0x1a8-0x1a9 (1)
     |                                               |                |                  x[0:0]: 0x1a9-0x1a9 (0)
     |                                               |                |                e[0:3]: 0x1a9-0x1ad (4)
     |                                               |                |                  [0]{}: in 0x1a9-0x1ab (2)
0x1a0|                           20                  |                |                    opcode: "local.get" (0x20) 0x1a9-0x1aa (1)
0x1a0|                              00               |          .     |                    x: 0 (valid) 0x1aa-0x1ab (1)
     |                                               |                |                  [1]{}: in 0x1ab-0x1ac (1)
0x1a0|                                 c0            |           .    |                    opcode: "i32.extend8_s" (0xc0) 0x1ab-0x1ac (1)
     |                                               |                |                  [2]{}: in 0x1ac-0x1ad (1)
0x1a0|                                    0b         |            .   |                    opcode: "end" (0xb) 0x1ac-0x1ad (1)
     |                                               |                |            [19]{}: code 0x1ad-0x1b3 (6)
0x1a0|                                       05      |             .  |              size: 5 (valid) 0x1ad-0x1ae (1)
     |                                               |                |              code{}: 0x1ae-0x1b3 (5)
     |                                               |                |                t{}: 0x1ae-0x1af (1)
0x1a0|                                          00   |              . |                  n: 0 (valid) 0x1ae-0x1af (1)
     |                                               |                |                  x[0:0]: 0x1af-0x1af (0)
     |                                               |                |                e[0:3]: 0x1af-0x1b3 (4)
     |                                               |                |                  [0]{}: in 0x1af-0x1b1 (2)
0x1a0|                                             20|                |                    opcode: "local.get" (0x20) 0x1af-0x1b0 (1)
0x1b0|00                                             |.               |                    x: 0 (valid) 0x1b0-0x1b1 (1)
     |                                               |                |                  [1]{}: in 0x1b1-0x1b2 (1)
0x1b0|   c1                                          | .              |                    opcode: "i32.extend16_s" (0xc1) 0x1b1-0x1b2 (1)
     |                                               |                |                  [2]{}: in 0x1b2-0x1b3 (1)
0x1b0|      0b                                       |  .             |                    opcode: "end" (0xb) 0x1b2-0x1b3 (1)
     |                                               |                |            [20]{}: code 0x1b3-0x1b9 (6)
0x1b0|         05                                    |   .            |              size: 5 (valid) 0x1b3-0x1b4 (1)
     |                                               |                |              code{}: 0x1b4-0x1b9 (5)
     |                                               |                |                t{}: 0x1b4-0x1b5 (1)
0x1b0|            00                                 |    .           |                  n: 0 (valid) 0x1b4-0x1b5 (1)
     |                                               |                |                  x[0:0]: 0x1b5-0x1b5 (0)
     |                                               |                |                e[0:3]: 0x1b5-0x1b9 (4)
     |                                               |                |                  [0]{}: in 0x1b5-0x1b7 (2)
0x1b0|               20                              |                |                    opcode: "local.get" (0x20) 0x1b5-0x1b6 (1)
0x1b0|                  00                           |      .         |                    x: 0 (valid) 0x1b6-0x1b7 (1)
     |                                               |                |                  [1]{}: in 0x1b7-0x1b8 (1)
0x1b0|                     45                        |       E        |                    opcode: "32.eqz" (0x45) 0x1b7-0x1b8 (1)
     |                                               |                |                  [2]{}: in 0x1b8-0x1b9 (1)
0x1b0|                        0b                     |        .       |                    opcode: "end" (0xb) 0x1b8-0x1b9 (1)
     |                                               |                |            [21]{}: code 0x1b9-0x1c1 (8)
0x1b0|                           07                  |         .      |              size: 7 (valid) 0x1b9-0x1ba (1)
     |                                               |                |              code{}: 0x1ba-0x1c1 (7)
     |                                               |                |                t{}: 0x1ba-0x1bb (1)
0x1b0|                              00               |          .     |                  n: 0 (valid) 0x1ba-0x1bb (1)
     |                                               |                |                  x[0:0]: 0x1bb-0x1bb (0)
     |                                               |                |                e[0:4]: 0x1bb-0x1c1 (6)
     |                                               |                |                  [0]{}: in 0x1bb-0x1bd (2)
0x1b0|                                 20            |                |                    opcode: "local.get" (0x20) 0x1bb-0x1bc (1)
0x1b0|                                    00         |            .   |                    x: 0 (valid) 0x1bc-0x1bd (1)
     |                                               |                |                  [1]{}: in 0x1bd-0x1bf (2)
0x1b0|                                       20      |                |                    opcode: "local.get" (0x20) 0x1bd-0x1be (1)
0x1b0|                                          01   |              . |                    x: 1 (valid) 0x1be-0x1bf (1)
     |                                               |                |                  [2]{}: in 0x1bf-0x1c0 (1)
0x1b0|                                             46|               F|                    opcode: "i32.eq" (0x46) 0x1bf-0x1c0 (1)
     |                                               |                |                  [3]{}: in 0x1c0-0x1c1 (1)
0x1c0|0b                                             |.               |                    opcode: "end" (0xb) 0x1c0-0x1c1 (1)
     |                                               |                |            [22]{}: code 0x1c1-0x1c9 (8)
0x1c0|   07                                          | .              |              size: 7 (valid) 0x1c1-0x1c2 (1)
     |                                               |                |              code{}: 0x1c2-0x1c9 (7)
     |                                               |                |                t{}: 0x1c2-0x1c3 (1)
0x1c0|      00                                       |  .             |                  n: 0 (valid) 0x1c2-0x1c3 (1)
     |                                               |                |                  x[0:0]: 0x1c3-0x1c3 (0)
     |                                               |                |                e[0:4]: 0x1c3-0x1c9 (6)
     |                                               |                |                  [0]{}: in 0x1c3-0x1c5 (2)
0x1c0|         20                                    |                |                    opcode: "local.get" (0x20) 0x1c3-0x1c4 (1)
0x1c0|            00                                 |    .           |                    x: 0 (valid) 0x1c4-0x1c5 (1)
     |                                               |                |                  [1]{}: in 0x1c5-0x1c7 (2)
0x1c0|               20                              |                |                    opcode: "local.get" (0x20) 0x1c5-0x1c6 (1)
0x1c0|                  01                           |      .         |                    x: 1 (valid) 0x1c6-0x1c7 (1)
     |                                               |                |                  [2]{}: in 0x1c7-0x1c8 (1)
0x1c0|                     47                        |       G        |                    opcode: "i32.ne" (0x47) 0x1c7-0x1c8 (1)
     |                                               |                |                  [3]{}: in 0x1c8-0x1c9 (1)
0x1c0|                        0b                     |        .       |                    opcode: "end" (0xb) 0x1c8-0x1c9 (1)
     |                                               |                |            [23]{}: code 0x1c9-0x1d1 (8)
0x1c0|                           07                  |         .      |              size: 7 (valid) 0x1c9-0x1ca (1)
     |                                               |                |              code{}: 0x1ca-0x1d1 (7)
     |                                               |                |                t{}: 0x1ca-0x1cb (1)
0x1c0|                              00               |          .     |                  n: 0 (valid) 0x1ca-0x1cb (1)
     |                                               |                |                  x[0:0]: 0x1cb-0x1cb (0)
     |                                               |                |                e[0:4]: 0x1cb-0x1d1 (6)
     |                                               |                |                  [0]{}: in 0x1cb-0x1cd (2)
0x1c0|                                 20            |                |                    opcode: "local.get" (0x20) 0x1cb-0x1cc (1)
0x1c0|                                    00         |            .   |                    x: 0 (valid) 0x1cc-0x1cd (1)
     |                                               |                |                  [1]{}: in 0x1cd-0x1cf (2)
0x1c0|                                       20      |                |                    opcode: "local.get" (0x20) 0x1cd-0x1ce (1)
0x1c0|                                          01   |              . |                    x: 1 (valid) 0x1ce-0x1cf (1)
     |                                               |                |                  [2]{}: in 0x1cf-0x1d0 (1)
0x1c0|                                             48|               H|                    opcode: "i32.lt_s" (0x48) 0x1cf-0x1d0 (1)
     |                                               |                |                  [3]{}: in 0x1d0-0x1d1 (1)
0x1d0|0b                                             |.               |                    opcode: "end" (0xb) 0x1d0-0x1d1 (1)
     |                                               |                |            [24]{}: code 0x1d1-0x1d9 (8)
0x1d0|   07                                          | .              |              size: 7 (valid) 0x1d1-0x1d2 (1)
     |                                               |                |              code{}: 0x1d2-0x1d9 (7)
     |                                               |                |                t{}: 0x1d2-0x1d3 (1)
0x1d0|      00                                       |  .             |                  n: 0 (valid) 0x1d2-0x1d3 (1)
     |                                               |                |                  x[0:0]: 0x1d3-0x1d3 (0)
     |                                               |                |                e[0:4]: 0x1d3-0x1d9 (6)
     |                                               |                |                  [0]{}: in 0x1d3-0x1d5 (2)
0x1d0|         20                                    |                |                    opcode: "local.get" (0x20) 0x1d3-0x1d4 (1)
0x1d0|            00                                 |    .           |                    x: 0 (valid) 0x1d4-0x1d5 (1)
     |                                               |                |                  [1]{}: in 0x1d5-0x1d7 (2)
0x1d0|               20                              |                |                    opcode: "local.get" (0x20) 0x1d5-0x1d6 (1)
0x1d0|                  01                           |      .         |                    x: 1 (valid) 0x1d6-0x1d7 (1)
     |                                               |                |                  [2]{}: in 0x1d7-0x1d8 (1)
0x1d0|                     49                        |       I        |                    opcode: "i32.lt_u" (0x49) 0x1d7-0x1d8 (1)
     |                                               |                |                  [3]{}: in 0x1d8-0x1d9 (1)
0x1d0|                        0b                     |        .       |                    opcode: "end" (0xb) 0x1d8-0x1d9 (1)
     |                                               |                |            [25]{}: code 0x1d9-0x1e1 (8)
0x1d0|                           07                  |         .      |              size: 7 (valid) 0x1d9-0x1da (1)
     |                                               |                |              code{}: 0x1da-0x1e1 (7)
     |                                               |                |                t{}: 0x1da-0x1db (1)
0x1d0|                              00               |          .     |                  n: 0 (valid) 0x1da-0x1db (1)
     |                                               |                |                  x[0:0]: 0x1db-0x1db (0)
     |                                               |                |                e[0:4]: 0x1db-0x1e1 (6)
     |                                               |                |                  [0]{}: in 0x1db-0x1dd (2)
0x1d0|                                 20            |                |                    opcode: "local.get" (0x20) 0x1db-0x1dc (1)
0x1d0|                                    00         |            .   |                    x: 0 (valid) 0x1dc-0x1dd (1)
     |                                               |                |                  [1]{}: in 0x1dd-0x1df (2)
0x1d0|                                       20      |                |                    opcode: "local.get" (0x20) 0x1dd-0x1de (1)
0x1d0|                                          01   |              . |                    x: 1 (valid) 0x1de-0x1df (1)
     |                                               |                |                  [2]{}: in 0x1df-0x1e0 (1)
0x1d0|                                             4c|               L|                    opcode: "i32.le_s" (0x4c) 0x1df-0x1e0 (1)
     |                                               |                |                  [3]{}: in 0x1e0-0x1e1 (1)
0x1e0|0b                                             |.               |                    opcode: "end" (0xb) 0x1e0-0x1e1 (1)
     |                                               |                |            [26]{}: code 0x1e1-0x1e9 (8)
0x1e0|   07                                          | .              |              size: 7 (valid) 0x1e1-0x1e2 (1)
     |                                               |                |              code{}: 0x1e2-0x1e9 (7)
     |                                               |                |                t{}: 0x1e2-0x1e3 (1)
0x1e0|      00                                       |  .             |                  n: 0 (valid) 0x1e2-0x1e3 (1)
     |                                               |                |                  x[0:0]: 0x1e3-0x1e3 (0)
     |                                               |                |                e[0:4]: 0x1e3-0x1e9 (6)
     |                                               |                |                  [0]{}: in 0x1e3-0x1e5 (2)
0x1e0|         20                                    |                |                    opcode: "local.get" (0x20) 0x1e3-0x1e4 (1)
0x1e0|            00                                 |    .           |                    x: 0 (valid) 0x1e4-0x1e5 (1)
     |                                               |                |                  [1]{}: in 0x1e5-0x1e7 (2)
0x1e0|               20                              |                |                    opcode: "local.get" (0x20) 0x1e5-0x1e6 (1)
0x1e0|                  01                           |      .         |                    x: 1 (valid) 0x1e6-0x1e7 (1)
     |                                               |                |                  [2]{}: in 0x1e7-0x1e8 (1)
0x1e0|                     4d                        |       M        |                    opcode: "i32.le_u" (0x4d) 0x1e7-0x1e8 (1)
     |                                               |                |                  [3]{}: in 0x1e8-0x1e9 (1)
0x1e0|                        0b                     |        .       |                    opcode: "end" (0xb) 0x1e8-0x1e9 (1)
     |                                               |                |            [27]{}: code 0x1e9-0x1f1 (8)
0x1e0|                           07                  |         .      |              size: 7 (valid) 0x1e9-0x1ea (1)
     |                                               |                |              code{}: 0x1ea-0x1f1 (7)
     |                                               |                |                t{}: 0x1ea-0x1eb (1)
0x1e0|                              00               |          .     |                  n: 0 (valid) 0x1ea-0x1eb (1)
     |                                               |                |                  x[0:0]: 0x1eb-0x1eb (0)
     |                                               |                |                e[0:4]: 0x1eb-0x1f1 (6)
     |                                               |                |                  [0]{}: in 0x1eb-0x1ed (2)
0x1e0|                                 20            |                |                    opcode: "local.get" (0x20) 0x1eb-0x1ec (1)
0x1e0|                                    00         |            .   |                    x: 0 (valid) 0x1ec-0x1ed (1)
     |                                               |                |                  [1]{}: in 0x1ed-0x1ef (2)
0x1e0|                                       20      |                |                    opcode: "local.get" (0x20) 0x1ed-0x1ee (1)
0x1e0|                                          01   |              . |                    x: 1 (valid) 0x1ee-0x1ef (1)
     |                                               |                |                  [2]{}: in 0x1ef-0x1f0 (1)
0x1e0|                                             4a|               J|                    opcode: "i32.gt_s" (0x4a) 0x1ef-0x1f0 (1)
     |                                               |                |                  [3]{}: in 0x1f0-0x1f1 (1)
0x1f0|0b                                             |.               |                    opcode: "end" (0xb) 0x1f0-0x1f1 (1)
     |                                               |                |            [28]{}: code 0x1f1-0x1f9 (8)
0x1f0|   07                                          | .              |              size: 7 (valid) 0x1f1-0x1f2 (1)
     |                                               |                |              code{}: 0x1f2-0x1f9 (7)
     |                                               |                |                t{}: 0x1f2-0x1f3 (1)
0x1f0|      00                                       |  .             |                  n: 0 (valid) 0x1f2-0x1f3 (1)
     |                                               |                |                  x[0:0]: 0x1f3-0x1f3 (0)
     |                                               |                |                e[0:4]: 0x1f3-0x1f9 (6)
     |                                               |                |                  [0]{}: in 0x1f3-0x1f5 (2)
0x1f0|         20                                    |                |                    opcode: "local.get" (0x20) 0x1f3-0x1f4 (1)
0x1f0|            00                                 |    .           |                    x: 0 (valid) 0x1f4-0x1f5 (1)
     |                                               |                |                  [1]{}: in 0x1f5-0x1f7 (2)
0x1f0|               20                              |                |                    opcode: "local.get" (0x20) 0x1f5-0x1f6 (1)
0x1f0|                  01                           |      .         |                    x: 1 (valid) 0x1f6-0x1f7 (1)
     |                                               |                |                  [2]{}: in 0x1f7-0x1f8 (1)
0x1f0|                     4b                        |       K        |                    opcode: "i32.gt_u" (0x4b) 0x1f7-0x1f8 (1)
     |                                               |                |                  [3]{}: in 0x1f8-0x1f9 (1)
0x1f0|                        0b                     |        .       |                    opcode: "end" (0xb) 0x1f8-0x1f9 (1)
     |                                               |                |            [29]{}: code 0x1f9-0x201 (8)
0x1f0|                           07                  |         .      |              size: 7 (valid) 0x1f9-0x1fa (1)
     |                                               |                |              code{}: 0x1fa-0x201 (7)
     |                                               |                |                t{}: 0x1fa-0x1fb (1)
0x1f0|                              00               |          .     |                  n: 0 (valid) 0x1fa-0x1fb (1)
     |                                               |                |                  x[0:0]: 0x1fb-0x1fb (0)
     |                                               |                |                e[0:4]: 0x1fb-0x201 (6)
     |                                               |                |                  [0]{}: in 0x1fb-0x1fd (2)
0x1f0|                                 20            |                |                    opcode: "local.get" (0x20) 0x1fb-0x1fc (1)
0x1f0|                                    00         |            .   |                    x: 0 (valid) 0x1fc-0x1fd (1)
     |                                               |                |                  [1]{}: in 0x1fd-0x1ff (2)
0x1f0|                                       20      |                |                    opcode: "local.get" (0x20) 0x1fd-0x1fe (1)
0x1f0|                                          01   |              . |                    x: 1 (valid) 0x1fe-0x1ff (1)
     |                                               |                |                  [2]{}: in 0x1ff-0x200 (1)
0x1f0|                                             4e|               N|                    opcode: "i32.ge_s" (0x4e) 0x1ff-0x200 (1)
     |                                               |                |                  [3]{}: in 0x200-0x201 (1)
0x200|0b                                             |.               |                    opcode: "end" (0xb) 0x200-0x201 (1)
     |                                               |                |            [30]{}: code 0x201-0x209 (8)
0x200|   07                                          | .              |              size: 7 (valid) 0x201-0x202 (1)
     |                                               |                |              code{}: 0x202-0x209 (7)
     |                                               |                |                t{}: 0x202-0x203 (1)
0x200|      00                                       |  .             |                  n: 0 (valid) 0x202-0x203 (1)
     |                                               |                |                  x[0:0]: 0x203-0x203 (0)
     |                                               |                |                e[0:4]: 0x203-0x209 (6)
     |                                               |                |                  [0]{}: in 0x203-0x205 (2)
0x200|         20                                    |                |                    opcode: "local.get" (0x20) 0x203-0x204 (1)
0x200|            00                                 |    .           |                    x: 0 (valid) 0x204-0x205 (1)
     |                                               |                |                  [1]{}: in 0x205-0x207 (2)
0x200|               20                              |                |                    opcode: "local.get" (0x20) 0x205-0x206 (1)
0x200|                  01                           |      .         |                    x: 1 (valid) 0x206-0x207 (1)
     |                                               |                |                  [2]{}: in 0x207-0x208 (1)
0x200|                     4f                        |       O        |                    opcode: "i32.ge_u" (0x4f) 0x207-0x208 (1)
     |                                               |                |                  [3]{}: in 0x208-0x209 (1)
0x200|                        0b|                    |        .|      |                    opcode: "end" (0xb) 0x208-0x209 (1)
