$ fq -d wasm dv i64-0.wasm
     |00 01 02 03 04 05 06 07 08 09 0a 0b 0c 0d 0e 0f|0123456789abcdef|.{}: i64-0.wasm (wasm) 0x0-0x228 (552)
0x000|00 61 73 6d                                    |.asm            |  magic: raw bits (valid) 0x0-0x4 (4)
0x000|            01 00 00 00                        |    ....        |  version: 1 0x4-0x8 (4)
     |                                               |                |  sections[0:4]: 0x8-0x228 (544)
     |                                               |                |    [0]{}: section 0x8-0x21 (25)
0x000|                        01                     |        .       |      id: "type_section" (1) 0x8-0x9 (1)
0x000|                           17                  |         .      |      size: 23 (valid) 0x9-0xa (1)
     |                                               |                |      content{}: 0xa-0x21 (23)
     |                                               |                |        ft{}: 0xa-0x21 (23)
0x000|                              04               |          .     |          n: 4 (valid) 0xa-0xb (1)
     |                                               |                |          x[0:4]: 0xb-0x21 (22)
     |                                               |                |            [0]{}: ft 0xb-0x11 (6)
0x000|                                 60            |           `    |              tag: 0x60 (valid) 0xb-0xc (1)
     |                                               |                |              rt1{}: 0xc-0xf (3)
0x000|                                    02         |            .   |                n: 2 (valid) 0xc-0xd (1)
     |                                               |                |                x[0:2]: 0xd-0xf (2)
0x000|                                       7e      |             ~  |                  [0]: "i64" (0x7e) t 0xd-0xe (1)
0x000|                                          7e   |              ~ |                  [1]: "i64" (0x7e) t 0xe-0xf (1)
     |                                               |                |              rt2{}: 0xf-0x11 (2)
0x000|                                             01|               .|                n: 1 (valid) 0xf-0x10 (1)
     |                                               |                |                x[0:1]: 0x10-0x11 (1)
0x010|7e                                             |~               |                  [0]: "i64" (0x7e) t 0x10-0x11 (1)
     |                                               |                |            [1]{}: ft 0x11-0x16 (5)
0x010|   60                                          | `              |              tag: 0x60 (valid) 0x11-0x12 (1)
     |                                               |                |              rt1{}: 0x12-0x14 (2)
0x010|      01                                       |  .             |                n: 1 (valid) 0x12-0x13 (1)
     |                                               |                |                x[0:1]: 0x13-0x14 (1)
0x010|         7e                                    |   ~            |                  [0]: "i64" (0x7e) t 0x13-0x14 (1)
     |                                               |                |              rt2{}: 0x14-0x16 (2)
0x010|            01                                 |    .           |                n: 1 (valid) 0x14-0x15 (1)
     |                                               |                |                x[0:1]: 0x15-0x16 (1)
0x010|               7e                              |     ~          |                  [0]: "i64" (0x7e) t 0x15-0x16 (1)
     |                                               |                |            [2]{}: ft 0x16-0x1b (5)
0x010|                  60                           |      `         |              tag: 0x60 (valid) 0x16-0x17 (1)
     |                                               |                |              rt1{}: 0x17-0x19 (2)
0x010|                     01                        |       .        |                n: 1 (valid) 0x17-0x18 (1)
     |                                               |                |                x[0:1]: 0x18-0x19 (1)
0x010|                        7e                     |        ~       |                  [0]: "i64" (0x7e) t 0x18-0x19 (1)
     |                                               |                |              rt2{}: 0x19-0x1b (2)
0x010|                           01                  |         .      |                n: 1 (valid) 0x19-0x1a (1)
     |                                               |                |                x[0:1]: 0x1a-0x1b (1)
0x010|                              7f               |          .     |                  [0]: "i32" (0x7f) t 0x1a-0x1b (1)
     |                                               |                |            [3]{}: ft 0x1b-0x21 (6)
0x010|                                 60            |           `    |              tag: 0x60 (valid) 0x1b-0x1c (1)
     |                                               |                |              rt1{}: 0x1c-0x1f (3)
0x010|                                    02         |            .   |                n: 2 (valid) 0x1c-0x1d (1)
     |                                               |                |                x[0:2]: 0x1d-0x1f (2)
0x010|                                       7e      |             ~  |                  [0]: "i64" (0x7e) t 0x1d-0x1e (1)
0x010|                                          7e   |              ~ |                  [1]: "i64" (0x7e) t 0x1e-0x1f (1)
     |                                               |                |              rt2{}: 0x1f-0x21 (2)
0x010|                                             01|               .|                n: 1 (valid) 0x1f-0x20 (1)
     |                                               |                |                x[0:1]: 0x20-0x21 (1)
0x020|7f                                             |.               |                  [0]: "i32" (0x7f) t 0x20-0x21 (1)
     |                                               |                |    [1]{}: section 0x21-0x44 (35)
0x020|   03                                          | .              |      id: "function_section" (3) 0x21-0x22 (1)
0x020|      21                                       |  !             |      size: 33 (valid) 0x22-0x23 (1)
     |                                               |                |      content{}: 0x23-0x44 (33)
     |                                               |                |        x{}: 0x23-0x44 (33)
0x020|         20                                    |                |          n: 32 (valid) 0x23-0x24 (1)
     |                                               |                |          x[0:32]: 0x24-0x44 (32)
0x020|            00                                 |    .           |            [0]: 0 x (valid) 0x24-0x25 (1)
0x020|               00                              |     .          |            [1]: 0 x (valid) 0x25-0x26 (1)
0x020|                  00                           |      .         |            [2]: 0 x (valid) 0x26-0x27 (1)
0x020|                     00                        |       .        |            [3]: 0 x (valid) 0x27-0x28 (1)
0x020|                        00                     |        .       |            [4]: 0 x (valid) 0x28-0x29 (1)
0x020|                           00                  |         .      |            [5]: 0 x (valid) 0x29-0x2a (1)
0x020|                              00               |          .     |            [6]: 0 x (valid) 0x2a-0x2b (1)
0x020|                                 00            |           .    |            [7]: 0 x (valid) 0x2b-0x2c (1)
0x020|                                    00         |            .   |            [8]: 0 x (valid) 0x2c-0x2d (1)
0x020|                                       00      |             .  |            [9]: 0 x (valid) 0x2d-0x2e (1)
0x020|                                          00   |              . |            [10]: 0 x (valid) 0x2e-0x2f (1)
0x020|                                             00|               .|            [11]: 0 x (valid) 0x2f-0x30 (1)
0x030|00                                             |.               |            [12]: 0 x (valid) 0x30-0x31 (1)
0x030|   00                                          | .              |            [13]: 0 x (valid) 0x31-0x32 (1)
0x030|      00                                       |  .             |            [14]: 0 x (valid) 0x32-0x33 (1)
0x030|         01                                    |   .            |            [15]: 1 x (valid) 0x33-0x34 (1)
0x030|            01                                 |    .           |            [16]: 1 x (valid) 0x34-0x35 (1)
0x030|               01                              |     .          |            [17]: 1 x (valid) 0x35-0x36 (1)
0x030|                  01                           |      .         |            [18]: 1 x (valid) 0x36-0x37 (1)
0x030|                     01                        |       .        |            [19]: 1 x (valid) 0x37-0x38 (1)
0x030|                        01                     |        .       |            [20]: 1 x (valid) 0x38-0x39 (1)
0x030|                           02                  |         .      |            [21]: 2 x (valid) 0x39-0x3a (1)
0x030|                              03               |          .     |            [22]: 3 x (valid) 0x3a-0x3b (1)
0x030|                                 03            |           .    |            [23]: 3 x (valid) 0x3b-0x3c (1)
0x030|                                    03         |            .   |            [24]: 3 x (valid) 0x3c-0x3d (1)
0x030|                                       03      |             .  |            [25]: 3 x (valid) 0x3d-0x3e (1)
0x030|                                          03   |              . |            [26]: 3 x (valid) 0x3e-0x3f (1)
0x030|                                             03|               .|            [27]: 3 x (valid) 0x3f-0x40 (1)
0x040|03                                             |.               |            [28]: 3 x (valid) 0x40-0x41 (1)
0x040|   03                                          | .              |            [29]: 3 x (valid) 0x41-0x42 (1)
0x040|      03                                       |  .             |            [30]: 3 x (valid) 0x42-0x43 (1)
0x040|         03                                    |   .            |            [31]: 3 x (valid) 0x43-0x44 (1)
     |                                               |                |    [2]{}: section 0x44-0x132 (238)
0x040|            07                                 |    .           |      id: "export_section" (7) 0x44-0x45 (1)
0x040|               eb 01                           |     ..         |      size: 235 (valid) 0x45-0x47 (2)
     |                                               |                |      content{}: 0x47-0x132 (235)
     |                                               |                |        ex{}: 0x47-0x132 (235)
0x040|                     20                        |                |          n: 32 (valid) 0x47-0x48 (1)
     |                                               |                |          x[0:32]: 0x48-0x132 (234)
     |                                               |                |            [0]{}: ex 0x48-0x4e (6)
     |                                               |                |              nm{}: 0x48-0x4c (4)
0x040|                        03                     |        .       |                n: 3 (valid) 0x48-0x49 (1)
0x040|                           61 64 64            |         add    |                b: "add" 0x49-0x4c (3)
     |                                               |                |              d{}: 0x4c-0x4e (2)
0x040|                                    00         |            .   |                tag: "funcidx" (0x0) 0x4c-0x4d (1)
0x040|                                       00      |             .  |                x: 0 (valid) 0x4d-0x4e (1)
     |                                               |                |            [1]{}: ex 0x4e-0x54 (6)
     |                                               |                |              nm{}: 0x4e-0x52 (4)
0x040|                                          03   |              . |                n: 3 (valid) 0x4e-0x4f (1)
0x040|                                             73|               s|                b: "sub" 0x4f-0x52 (3)
0x050|75 62                                          |ub              |
     |                                               |                |              d{}: 0x52-0x54 (2)
0x050|      00                                       |  .             |                tag: "funcidx" (0x0) 0x52-0x53 (1)
0x050|         01                                    |   .            |                x: 1 (valid) 0x53-0x54 (1)
     |                                               |                |            [2]{}: ex 0x54-0x5a (6)
     |                                               |                |              nm{}: 0x54-0x58 (4)
0x050|            03                                 |    .           |                n: 3 (valid) 0x54-0x55 (1)
0x050|               6d 75 6c                        |     mul        |                b: "mul" 0x55-0x58 (3)
     |                                               |                |              d{}: 0x58-0x5a (2)
0x050|                        00                     |        .       |                tag: "funcidx" (0x0) 0x58-0x59 (1)
0x050|                           02                  |         .      |                x: 2 (valid) 0x59-0x5a (1)
     |                                               |                |            [3]{}: ex 0x5a-0x62 (8)
     |                                               |                |              nm{}: 0x5a-0x60 (6)
0x050|                              05               |          .     |                n: 5 (valid) 0x5a-0x5b (1)
0x050|                                 64 69 76 5f 73|           div_s|                b: "div_s" 0x5b-0x60 (5)
     |                                               |                |              d{}: 0x60-0x62 (2)
0x060|00                                             |.               |                tag: "funcidx" (0x0) 0x60-0x61 (1)
0x060|   03                                          | .              |                x: 3 (valid) 0x61-0x62 (1)
     |                                               |                |            [4]{}: ex 0x62-0x6a (8)
     |                                               |                |              nm{}: 0x62-0x68 (6)
0x060|      05                                       |  .             |                n: 5 (valid) 0x62-0x63 (1)
0x060|         64 69 76 5f 75                        |   div_u        |                b: "div_u" 0x63-0x68 (5)
     |                                               |                |              d{}: 0x68-0x6a (2)
0x060|                        00                     |        .       |                tag: "funcidx" (0x0) 0x68-0x69 (1)
0x060|                           04                  |         .      |                x: 4 (valid) 0x69-0x6a (1)
     |                                               |                |            [5]{}: ex 0x6a-0x72 (8)
     |                                               |                |              nm{}: 0x6a-0x70 (6)
0x060|                              05               |          .     |                n: 5 (valid) 0x6a-0x6b (1)
0x060|                                 72 65 6d 5f 73|           rem_s|                b: "rem_s" 0x6b-0x70 (5)
     |                                               |                |              d{}: 0x70-0x72 (2)
0x070|00                                             |.               |                tag: "funcidx" (0x0) 0x70-0x71 (1)
0x070|   05                                          | .              |                x: 5 (valid) 0x71-0x72 (1)
     |                                               |                |            [6]{}: ex 0x72-0x7a (8)
     |                                               |                |              nm{}: 0x72-0x78 (6)
0x070|      05                                       |  .             |                n: 5 (valid) 0x72-0x73 (1)
0x070|         72 65 6d 5f 75                        |   rem_u        |                b: "rem_u" 0x73-0x78 (5)
     |                                               |                |              d{}: 0x78-0x7a (2)
0x070|                        00                     |        .       |                tag: "funcidx" (0x0) 0x78-0x79 (1)
0x070|                           06                  |         .      |                x: 6 (valid) 0x79-0x7a (1)
     |                                               |                |            [7]{}: ex 0x7a-0x80 (6)
     |                                               |                |              nm{}: 0x7a-0x7e (4)
0x070|                              03               |          .     |                n: 3 (valid) 0x7a-0x7b (1)
0x070|                                 61 6e 64      |           and  |                b: "and" 0x7b-0x7e (3)
     |                                               |                |              d{}: 0x7e-0x80 (2)
0x070|                                          00   |              . |                tag: "funcidx" (0x0) 0x7e-0x7f (1)
0x070|                                             07|               .|                x: 7 (valid) 0x7f-0x80 (1)
     |                                               |                |            [8]{}: ex 0x80-0x85 (5)
     |                                               |                |              nm{}: 0x80-0x83 (3)
0x080|02                                             |.               |                n: 2 (valid) 0x80-0x81 (1)
0x080|   6f 72                                       | or             |                b: "or" 0x81-0x83 (2)
     |                                               |                |              d{}: 0x83-0x85 (2)
0x080|         00                                    |   .            |                tag: "funcidx" (0x0) 0x83-0x84 (1)
0x080|            08                                 |    .           |                x: 8 (valid) 0x84-0x85 (1)
     |                                               |                |            [9]{}: ex 0x85-0x8b (6)
     |                                               |                |              nm{}: 0x85-0x89 (4)
0x080|               03                              |     .          |                n: 3 (valid) 0x85-0x86 (1)
0x080|                  78 6f 72                     |      xor       |                b: "xor" 0x86-0x89 (3)
     |                                               |                |              d{}: 0x89-0x8b (2)
0x080|                           00                  |         .      |                tag: "funcidx" (0x0) 0x89-0x8a (1)
0x080|                              09               |          .     |                x: 9 (valid) 0x8a-0x8b (1)
     |                                               |                |            [10]{}: ex 0x8b-0x91 (6)
     |                                               |                |              nm{}: 0x8b-0x8f (4)
0x080|                                 03            |           .    |                n: 3 (valid) 0x8b-0x8c (1)
0x080|                                    73 68 6c   |            shl |                b: "shl" 0x8c-0x8f (3)
     |                                               |                |              d{}: 0x8f-0x91 (2)
0x080|                                             00|               .|                tag: "funcidx" (0x0) 0x8f-0x90 (1)
0x090|0a                                             |.               |                x: 10 (valid) 0x90-0x91 (1)
     |                                               |                |            [11]{}: ex 0x91-0x99 (8)
     |                                               |                |              nm{}: 0x91-0x97 (6)
0x090|   05                                          | .              |                n: 5 (valid) 0x91-0x92 (1)
0x090|      73 68 72 5f 73                           |  shr_s         |                b: "shr_s" 0x92-0x97 (5)
     |                                               |                |              d{}: 0x97-0x99 (2)
0x090|                     00                        |       .        |                tag: "funcidx" (0x0) 0x97-0x98 (1)
0x090|                        0b                     |        .       |                x: 11 (valid) 0x98-0x99 (1)
     |                                               |                |            [12]{}: ex 0x99-0xa1 (8)
     |                                               |                |              nm{}: 0x99-0x9f (6)
0x090|                           05                  |         .      |                n: 5 (valid) 0x99-0x9a (1)
0x090|                              73 68 72 5f 75   |          shr_u |                b: "shr_u" 0x9a-0x9f (5)
     |                                               |                |              d{}: 0x9f-0xa1 (2)
0x090|                                             00|               .|                tag: "funcidx" (0x0) 0x9f-0xa0 (1)
0x0a0|0c                                             |.               |                x: 12 (valid) 0xa0-0xa1 (1)
     |                                               |                |            [13]{}: ex 0xa1-0xa8 (7)
     |                                               |                |              nm{}: 0xa1-0xa6 (5)
0x0a0|   04                                          | .              |                n: 4 (valid) 0xa1-0xa2 (1)
0x0a0|      72 6f 74 6c                              |  rotl          |                b: "rotl" 0xa2-0xa6 (4)
     |                                               |                |              d{}: 0xa6-0xa8 (2)
0x0a0|                  00                           |      .         |                tag: "funcidx" (0x0) 0xa6-0xa7 (1)
0x0a0|                     0d                        |       .        |                x: 13 (valid) 0xa7-0xa8 (1)
     |                                               |                |            [14]{}: ex 0xa8-0xaf (7)
     |                                               |                |              nm{}: 0xa8-0xad (5)
0x0a0|                        04                     |        .       |                n: 4 (valid) 0xa8-0xa9 (1)
0x0a0|                           72 6f 74 72         |         rotr   |                b: "rotr" 0xa9-0xad (4)
     |                                               |                |              d{}: 0xad-0xaf (2)
0x0a0|                                       00      |             .  |                tag: "funcidx" (0x0) 0xad-0xae (1)
0x0a0|                                          0e   |              . |                x: 14 (valid) 0xae-0xaf (1)
     |                                               |                |            [15]{}: ex 0xaf-0xb5 (6)
     |                                               |                |              nm{}: 0xaf-0xb3 (4)
0x0a0|                                             03|               .|                n: 3 (valid) 0xaf-0xb0 (1)
0x0b0|63 6c 7a                                       |clz             |                b: "clz" 0xb0-0xb3 (3)
     |                                               |                |              d{}: 0xb3-0xb5 (2)
0x0b0|         00                                    |   .            |                tag: "funcidx" (0x0) 0xb3-0xb4 (1)
0x0b0|            0f                                 |    .           |                x: 15 (valid) 0xb4-0xb5 (1)
     |                                               |                |            [16]{}: ex 0xb5-0xbb (6)
     |                                               |                |              nm{}: 0xb5-0xb9 (4)
0x0b0|               03                              |     .          |                n: 3 (valid) 0xb5-0xb6 (1)
0x0b0|                  63 74 7a                     |      ctz       |                b: "ctz" 0xb6-0xb9 (3)
     |                                               |                |              d{}: 0xb9-0xbb (2)
0x0b0|                           00                  |         .      |                tag: "funcidx" (0x0) 0xb9-0xba (1)
0x0b0|                              10               |          .     |                x: 16 (valid) 0xba-0xbb (1)
     |                                               |                |            [17]{}: ex 0xbb-0xc4 (9)
     |                                               |                |              nm{}: 0xbb-0xc2 (7)
0x0b0|                                 06            |           .    |                n: 6 (valid) 0xbb-0xbc (1)
0x0b0|                                    70 6f 70 63|            popc|                b: "popcnt" 0xbc-0xc2 (6)
0x0c0|6e 74                                          |nt              |
     |                                               |                |              d{}: 0xc2-0xc4 (2)
0x0c0|      00                                       |  .             |                tag: "funcidx" (0x0) 0xc2-0xc3 (1)
0x0c0|         11                                    |   .            |                x: 17 (valid) 0xc3-0xc4 (1)
     |                                               |                |            [18]{}: ex 0xc4-0xd0 (12)
     |                                               |                |              nm{}: 0xc4-0xce (10)
0x0c0|            09                                 |    .           |                n: 9 (valid) 0xc4-0xc5 (1)
0x0c0|               65 78 74 65 6e 64 38 5f 73      |     extend8_s  |                b: "extend8_s" 0xc5-0xce (9)
     |                                               |                |              d{}: 0xce-0xd0 (2)
0x0c0|                                          00   |              . |                tag: "funcidx" (0x0) 0xce-0xcf (1)
0x0c0|                                             12|               .|                x: 18 (valid) 0xcf-0xd0 (1)
     |                                               |                |            [19]{}: ex 0xd0-0xdd (13)
     |                                               |                |              nm{}: 0xd0-0xdb (11)
0x0d0|0a                                             |.               |                n: 10 (valid) 0xd0-0xd1 (1)
0x0d0|   65 78 74 65 6e 64 31 36 5f 73               | extend16_s     |                b: "extend16_s" 0xd1-0xdb (10)
     |                                               |                |              d{}: 0xdb-0xdd (2)
0x0d0|                                 00            |           .    |                tag: "funcidx" (0x0) 0xdb-0xdc (1)
0x0d0|                                    13         |            .   |                x: 19 (valid) 0xdc-0xdd (1)
     |                                               |                |            [20]{}: ex 0xdd-0xea (13)
     |                                               |                |              nm{}: 0xdd-0xe8 (11)
0x0d0|                                       0a      |             .  |                n: 10 (valid) 0xdd-0xde (1)
0x0d0|                                          65 78|              ex|                b: "extend32_s" 0xde-0xe8 (10)
0x0e0|74 65 6e 64 33 32 5f 73                        |tend32_s        |
     |                                               |                |              d{}: 0xe8-0xea (2)
0x0e0|                        00                     |        .       |                tag: "funcidx" (0x0) 0xe8-0xe9 (1)
0x0e0|                           14                  |         .      |                x: 20 (valid) 0xe9-0xea (1)
     |                                               |                |            [21]{}: ex 0xea-0xf0 (6)
     |                                               |                |              nm{}: 0xea-0xee (4)
0x0e0|                              03               |          .     |                n: 3 (valid) 0xea-0xeb (1)
0x0e0|                                 65 71 7a      |           eqz  |                b: "eqz" 0xeb-0xee (3)
     |                                               |                |              d{}: 0xee-0xf0 (2)
0x0e0|                                          00   |              . |                tag: "funcidx" (0x0) 0xee-0xef (1)
0x0e0|                                             15|               .|                x: 21 (valid) 0xef-0xf0 (1)
     |                                               |                |            [22]{}: ex 0xf0-0xf5 (5)
     |                                               |                |              nm{}: 0xf0-0xf3 (3)
0x0f0|02                                             |.               |                n: 2 (valid) 0xf0-0xf1 (1)
0x0f0|   65 71                                       | eq             |                b: "eq" 0xf1-0xf3 (2)
     |                                               |                |              d{}: 0xf3-0xf5 (2)
0x0f0|         00                                    |   .            |                tag: "funcidx" (0x0) 0xf3-0xf4 (1)
0x0f0|            16                                 |    .           |                x: 22 (valid) 0xf4-0xf5 (1)
     |                                               |                |            [23]{}: ex 0xf5-0xfa (5)
     |                                               |                |              nm{}: 0xf5-0xf8 (3)
0x0f0|               02                              |     .          |                n: 2 (valid) 0xf5-0xf6 (1)
0x0f0|                  6e 65                        |      ne        |                b: "ne" 0xf6-0xf8 (2)
     |                                               |                |              d{}: 0xf8-0xfa (2)
0x0f0|                        00                     |        .       |                tag: "funcidx" (0x0) 0xf8-0xf9 (1)
0x0f0|                           17                  |         .      |                x: 23 (valid) 0xf9-0xfa (1)
     |                                               |                |            [24]{}: ex 0xfa-0x101 (7)
     |                                               |                |              nm{}: 0xfa-0xff (5)
0x0f0|                              04               |          .     |                n: 4 (valid) 0xfa-0xfb (1)
0x0f0|                                 6c 74 5f 73   |           lt_s |                b: "lt_s" 0xfb-0xff (4)
     |                                               |                |              d{}: 0xff-0x101 (2)
0x0f0|                                             00|               .|                tag: "funcidx" (0x0) 0xff-0x100 (1)
0x100|18                                             |.               |                x: 24 (valid) 0x100-0x101 (1)
     |                                               |                |            [25]{}: ex 0x101-0x108 (7)
     |                                               |                |              nm{}: 0x101-0x106 (5)
0x100|   04                                          | .              |                n: 4 (valid) 0x101-0x102 (1)
0x100|      6c 74 5f 75                              |  lt_u          |                b: "lt_u" 0x102-0x106 (4)
     |                                               |                |              d{}: 0x106-0x108 (2)
0x100|                  00                           |      .         |                tag: "funcidx" (0x0) 0x106-0x107 (1)
0x100|                     19                        |       .        |                x: 25 (valid) 0x107-0x108 (1)
     |                                               |                |            [26]{}: ex 0x108-0x10f (7)
     |                                               |                |              nm{}: 0x108-0x10d (5)
0x100|                        04                     |        .       |                n: 4 (valid) 0x108-0x109 (1)
0x100|                           6c 65 5f 73         |         le_s   |                b: "le_s" 0x109-0x10d (4)
     |                                               |                |              d{}: 0x10d-0x10f (2)
0x100|                                       00      |             .  |                tag: "funcidx" (0x0) 0x10d-0x10e (1)
0x100|                                          1a   |              . |                x: 26 (valid) 0x10e-0x10f (1)
     |                                               |                |            [27]{}: ex 0x10f-0x116 (7)
     |                                               |                |              nm{}: 0x10f-0x114 (5)
0x100|                                             04|               .|                n: 4 (valid) 0x10f-0x110 (1)
0x110|6c 65 5f 75                                    |le_u            |                b: "le_u" 0x110-0x114 (4)
     |                                               |                |              d{}: 0x114-0x116 (2)
0x110|            00                                 |    .           |                tag: "funcidx" (0x0) 0x114-0x115 (1)
0x110|               1b                              |     .          |                x: 27 (valid) 0x115-0x116 (1)
     |                                               |                |            [28]{}: ex 0x116-0x11d (7)
     |                                               |                |              nm{}: 0x116-0x11b (5)
0x110|                  04                           |      .         |                n: 4 (valid) 0x116-0x117 (1)
0x110|                     67 74 5f 73               |       gt_s     |                b: "gt_s" 0x117-0x11b (4)
     |                                               |                |              d{}: 0x11b-0x11d (2)
0x110|                                 00            |           .    |                tag: "funcidx" (0x0) 0x11b-0x11c (1)
0x110|                                    1c         |            .   |                x: 28 (valid) 0x11c-0x11d (1)
     |                                               |                |            [29]{}: ex 0x11d-0x124 (7)
     |                                               |                |              nm{}: 0x11d-0x122 (5)
0x110|                                       04      |             .  |                n: 4 (valid) 0x11d-0x11e (1)
0x110|                                          67 74|              gt|                b: "gt_u" 0x11e-0x122 (4)
0x120|5f 75                                          |_u              |
     |                                               |                |              d{}: 0x122-0x124 (2)
0x120|      00                                       |  .             |                tag: "funcidx" (0x0) 0x122-0x123 (1)
0x120|         1d                                    |   .            |                x: 29 (valid) 0x123-0x124 (1)
     |                                               |                |            [30]{}: ex 0x124-0x12b (7)
     |                                               |                |              nm{}: 0x124-0x129 (5)
0x120|            04                                 |    .           |                n: 4 (valid) 0x124-0x125 (1)
0x120|               67 65 5f 73                     |     ge_s       |                b: "ge_s" 0x125-0x129 (4)
     |                                               |                |              d{}: 0x129-0x12b (2)
0x120|                           00                  |         .      |                tag: "funcidx" (0x0) 0x129-0x12a (1)
0x120|                              1e               |          .     |                x: 30 (valid) 0x12a-0x12b (1)
     |                                               |                |            [31]{}: ex 0x12b-0x132 (7)
     |                                               |                |              nm{}: 0x12b-0x130 (5)
0x120|                                 04            |           .    |                n: 4 (valid) 0x12b-0x12c (1)
0x120|                                    67 65 5f 75|            ge_u|                b: "ge_u" 0x12c-0x130 (4)
     |                                               |                |              d{}: 0x130-0x132 (2)
0x130|00                                             |.               |                tag: "funcidx" (0x0) 0x130-0x131 (1)
0x130|   1f                                          | .              |                x: 31 (valid) 0x131-0x132 (1)
     |                                               |                |    [3]{}: section 0x132-0x228 (246)
0x130|      0a                                       |  .             |      id: "code_section" (10) 0x132-0x133 (1)
0x130|         f3 01                                 |   ..           |      size: 243 (valid) 0x133-0x135 (2)
     |                                               |                |      content{}: 0x135-0x228 (243)
     |                                               |                |        code{}: 0x135-0x228 (243)
0x130|               20                              |                |          n: 32 (valid) 0x135-0x136 (1)
     |                                               |                |          x[0:32]: 0x136-0x228 (242)
     |                                               |                |            [0]{}: code 0x136-0x13e (8)
0x130|                  07                           |      .         |              size: 7 (valid) 0x136-0x137 (1)
     |                                               |                |              code{}: 0x137-0x13e (7)
     |                                               |                |                t{}: 0x137-0x138 (1)
0x130|                     00                        |       .        |                  n: 0 (valid) 0x137-0x138 (1)
     |                                               |                |                  x[0:0]: 0x138-0x138 (0)
     |                                               |                |                e[0:4]: 0x138-0x13e (6)
     |                                               |                |                  [0]{}: in 0x138-0x13a (2)
0x130|                        20                     |                |                    opcode: "local.get" (0x20) 0x138-0x139 (1)
0x130|                           00                  |         .      |                    x: 0 (valid) 0x139-0x13a (1)
     |                                               |                |                  [1]{}: in 0x13a-0x13c (2)
0x130|                              20               |                |                    opcode: "local.get" (0x20) 0x13a-0x13b (1)
0x130|                                 01            |           .    |                    x: 1 (valid) 0x13b-0x13c (1)
     |                                               |                |                  [2]{}: in 0x13c-0x13d (1)
0x130|                                    7c         |            |   |                    opcode: "i64.add" (0x7c) 0x13c-0x13d (1)
     |                                               |                |                  [3]{}: in 0x13d-0x13e (1)
0x130|                                       0b      |             .  |                    opcode: "end" (0xb) 0x13d-0x13e (1)
     |                                               |                |            [1]{}: code 0x13e-0x146 (8)
0x130|                                          07   |              . |              size: 7 (valid) 0x13e-0x13f (1)
     |                                               |                |              code{}: 0x13f-0x146 (7)
     |                                               |                |                t{}: 0x13f-0x140 (1)
0x130|                                             00|               .|                  n: 0 (valid) 0x13f-0x140 (1)
     |                                               |                |                  x[0:0]: 0x140-0x140 (0)
     |                                               |                |                e[0:4]: 0x140-0x146 (6)
     |                                               |                |                  [0]{}: in 0x140-0x142 (2)
0x140|20                                             |                |                    opcode: "local.get" (0x20) 0x140-0x141 (1)
0x140|   00                                          | .              |                    x: 0 (valid) 0x141-0x142 (1)
     |                                               |                |                  [1]{}: in 0x142-0x144 (2)
0x140|      20                                       |                |                    opcode: "local.get" (0x20) 0x142-0x143 (1)
0x140|         01                                    |   .            |                    x: 1 (valid) 0x143-0x144 (1)
     |                                               |                |                  [2]{}: in 0x144-0x145 (1)
0x140|            7d                                 |    }           |                    opcode: "i64.sub" (0x7d) 0x144-0x145 (1)
     |                                               |                |                  [3]{}: in 0x145-0x146 (1)
0x140|               0b                              |     .          |                    opcode: "end" (0xb) 0x145-0x146 (1)
     |                                               |                |            [2]{}: code 0x146-0x14e (8)
0x140|                  07                           |      .         |              size: 7 (valid) 0x146-0x147 (1)
     |                                               |                |              code{}: 0x147-0x14e (7)
     |                                               |                |                t{}: 0x147-0x148 (1)
0x140|                     00                        |       .        |                  n: 0 (valid) 0x147-0x148 (1)
     |                                               |                |                  x[0:0]: 0x148-0x148 (0)
     |                                               |                |                e[0:4]: 0x148-0x14e (6)
     |                                               |                |                  [0]{}: in 0x148-0x14a (2)
0x140|                        20                     |                |                    opcode: "local.get" (0x20) 0x148-0x149 (1)
0x140|                           00                  |         .      |                    x: 0 (valid) 0x149-0x14a (1)
     |                                               |                |                  [1]{}: in 0x14a-0x14c (2)
0x140|                              20               |                |                    opcode: "local.get" (0x20) 0x14a-0x14b (1)
0x140|                                 01            |           .    |                    x: 1 (valid) 0x14b-0x14c (1)
     |                                               |                |                  [2]{}: in 0x14c-0x14d (1)
0x140|                                    7e         |            ~   |                    opcode: "i64.mul" (0x7e) 0x14c-0x14d (1)
     |                                               |                |                  [3]{}: in 0x14d-0x14e (1)
0x140|                                       0b      |             .  |                    opcode: "end" (0xb) 0x14d-0x14e (1)
     |                                               |                |            [3]{}: code 0x14e-0x156 (8)
0x140|                                          07   |              . |              size: 7 (valid) 0x14e-0x14f (1)
     |                                               |                |              code{}: 0x14f-0x156 (7)
     |                                               |                |                t{}: 0x14f-0x150 (1)
0x140|                                             00|               .|                  n: 0 (valid) 0x14f-0x150 (1)
     |                                               |                |                  x[0:0]: 0x150-0x150 (0)
     |                                               |                |                e[0:4]: 0x150-0x156 (6)
     |                                               |                |                  [0]{}: in 0x150-0x152 (2)
0x150|20                                             |                |                    opcode: "local.get" (0x20) 0x150-0x151 (1)
0x150|   00                                          | .              |                    x: 0 (valid) 0x151-0x152 (1)
     |                                               |                |                  [1]{}: in 0x152-0x154 (2)
0x150|      20                                       |                |                    opcode: "local.get" (0x20) 0x152-0x153 (1)
0x150|         01                                    |   .            |                    x: 1 (valid) 0x153-0x154 (1)
     |                                               |                |                  [2]{}: in 0x154-0x155 (1)
0x150|            7f                                 |    .           |                    opcode: "i64.div_s" (0x7f) 0x154-0x155 (1)
     |                                               |                |                  [3]{}: in 0x155-0x156 (1)
0x150|               0b                              |     .          |                    opcode: "end" (0xb) 0x155-0x156 (1)
     |                                               |                |            [4]{}: code 0x156-0x15e (8)
0x150|                  07                           |      .         |              size: 7 (valid) 0x156-0x157 (1)
     |                                               |                |              code{}: 0x157-0x15e (7)
     |                                               |                |                t{}: 0x157-0x158 (1)
0x150|                     00                        |       .        |                  n: 0 (valid) 0x157-0x158 (1)
     |                                               |                |                  x[0:0]: 0x158-0x158 (0)
     |                                               |                |                e[0:4]: 0x158-0x15e (6)
     |                                               |                |                  [0]{}: in 0x158-0x15a (2)
0x150|                        20                     |                |                    opcode: "local.get" (0x20) 0x158-0x159 (1)
0x150|                           00                  |         .      |                    x: 0 (valid) 0x159-0x15a (1)
     |                                               |                |                  [1]{}: in 0x15a-0x15c (2)
0x150|                              20               |                |                    opcode: "local.get" (0x20) 0x15a-0x15b (1)
0x150|                                 01            |           .    |                    x: 1 (valid) 0x15b-0x15c (1)
     |                                               |                |                  [2]{}: in 0x15c-0x15d (1)
0x150|                                    80         |            .   |                    opcode: "i64.div_u" (0x80) 0x15c-0x15d (1)
     |                                               |                |                  [3]{}: in 0x15d-0x15e (1)
0x150|                                       0b      |             .  |                    opcode: "end" (0xb) 0x15d-0x15e (1)
     |                                               |                |            [5]{}: code 0x15e-0x166 (8)
0x150|                                          07   |              . |              size: 7 (valid) 0x15e-0x15f (1)
     |                                               |                |              code{}: 0x15f-0x166 (7)
     |                                               |                |                t{}: 0x15f-0x160 (1)
0x150|                                             00|               .|                  n: 0 (valid) 0x15f-0x160 (1)
     |                                               |                |                  x[0:0]: 0x160-0x160 (0)
     |                                               |                |                e[0:4]: 0x160-0x166 (6)
     |                                               |                |                  [0]{}: in 0x160-0x162 (2)
0x160|20                                             |                |                    opcode: "local.get" (0x20) 0x160-0x161 (1)
0x160|   00                                          | .              |                    x: 0 (valid) 0x161-0x162 (1)
     |                                               |                |                  [1]{}: in 0x162-0x164 (2)
0x160|      20                                       |                |                    opcode: "local.get" (0x20) 0x162-0x163 (1)
0x160|         01                                    |   .            |                    x: 1 (valid) 0x163-0x164 (1)
     |                                               |                |                  [2]{}: in 0x164-0x165 (1)
0x160|            81                                 |    .           |                    opcode: "i64.rem_s" (0x81) 0x164-0x165 (1)
     |                                               |                |                  [3]{}: in 0x165-0x166 (1)
0x160|               0b                              |     .          |                    opcode: "end" (0xb) 0x165-0x166 (1)
     |                                               |                |            [6]{}: code 0x166-0x16e (8)
0x160|                  07                           |      .         |              size: 7 (valid) 0x166-0x167 (1)
     |                                               |                |              code{}: 0x167-0x16e (7)
     |                                               |                |                t{}: 0x167-0x168 (1)
0x160|                     00                        |       .        |                  n: 0 (valid) 0x167-0x168 (1)
     |                                               |                |                  x[0:0]: 0x168-0x168 (0)
     |                                               |                |                e[0:4]: 0x168-0x16e (6)
     |                                               |                |                  [0]{}: in 0x168-0x16a (2)
0x160|                        20                     |                |                    opcode: "local.get" (0x20) 0x168-0x169 (1)
0x160|                           00                  |         .      |                    x: 0 (valid) 0x169-0x16a (1)
     |                                               |                |                  [1]{}: in 0x16a-0x16c (2)
0x160|                              20               |                |                    opcode: "local.get" (0x20) 0x16a-0x16b (1)
0x160|                                 01            |           .    |                    x: 1 (valid) 0x16b-0x16c (1)
     |                                               |                |                  [2]{}: in 0x16c-0x16d (1)
0x160|                                    82         |            .   |                    opcode: "i64.rem_u" (0x82) 0x16c-0x16d (1)
     |                                               |                |                  [3]{}: in 0x16d-0x16e (1)
0x160|                                       0b      |             .  |                    opcode: "end" (0xb) 0x16d-0x16e (1)
     |                                               |                |            [7]{}: code 0x16e-0x176 (8)
0x160|                                          07   |              . |              size: 7 (valid) 0x16e-0x16f (1)
     |                                               |                |              code{}: 0x16f-0x176 (7)
     |                                               |                |                t{}: 0x16f-0x170 (1)
0x160|                                             00|               .|                  n: 0 (valid) 0x16f-0x170 (1)
     |                                               |                |                  x[0:0]: 0x170-0x170 (0)
     |                                               |                |                e[0:4]: 0x170-0x176 (6)
     |                                               |                |                  [0]{}: in 0x170-0x172 (2)
0x170|20                                             |                |                    opcode: "local.get" (0x20) 0x170-0x171 (1)
0x170|   00                                          | .              |                    x: 0 (valid) 0x171-0x172 (1)
     |                                               |                |                  [1]{}: in 0x172-0x174 (2)
0x170|      20                                       |                |                    opcode: "local.get" (0x20) 0x172-0x173 (1)
0x170|         01                                    |   .            |                    x: 1 (valid) 0x173-0x174 (1)
     |                                               |                |                  [2]{}: in 0x174-0x175 (1)
0x170|            83                                 |    .           |                    opcode: "i64.and" (0x83) 0x174-0x175 (1)
     |                                               |                |                  [3]{}: in 0x175-0x176 (1)
0x170|               0b                              |     .          |                    opcode: "end" (0xb) 0x175-0x176 (1)
     |                                               |                |            [8]{}: code 0x176-0x17e (8)
0x170|                  07                           |      .         |              size: 7 (valid) 0x176-0x177 (1)
     |                                               |                |              code{}: 0x177-0x17e (7)
     |                                               |                |                t{}: 0x177-0x178 (1)
0x170|                     00                        |       .        |                  n: 0 (valid) 0x177-0x178 (1)
     |                                               |                |                  x[0:0]: 0x178-0x178 (0)
     |                                               |                |                e[0:4]: 0x178-0x17e (6)
     |                                               |                |                  [0]{}: in 0x178-0x17a (2)
0x170|                        20                     |                |                    opcode: "local.get" (0x20) 0x178-0x179 (1)
0x170|                           00                  |         .      |                    x: 0 (valid) 0x179-0x17a (1)
     |                                               |                |                  [1]{}: in 0x17a-0x17c (2)
0x170|                              20               |                |                    opcode: "local.get" (0x20) 0x17a-0x17b (1)
0x170|                                 01            |           .    |                    x: 1 (valid) 0x17b-0x17c (1)
     |                                               |                |                  [2]{}: in 0x17c-0x17d (1)
0x170|                                    84         |            .   |                    opcode: "i64.or" (0x84) 0x17c-0x17d (1)
     |                                               |                |                  [3]{}: in 0x17d-0x17e (1)
0x170|                                       0b      |             .  |                    opcode: "end" (0xb) 0x17d-0x17e (1)
     |                                               |                |            [9]{}: code 0x17e-0x186 (8)
0x170|                                          07   |              . |              size: 7 (valid) 0x17e-0x17f (1)
     |                                               |                |              code{}: 0x17f-0x186 (7)
     |                                               |                |                t{}: 0x17f-0x180 (1)
0x170|                                             00|               .|                  n: 0 (valid) 0x17f-0x180 (1)
     |                                               |                |                  x[0:0]: 0x180-0x180 (0)
     |                                               |                |                e[0:4]: 0x180-0x186 (6)
     |                                               |                |                  [0]{}: in 0x180-0x182 (2)
0x180|20                                             |                |                    opcode: "local.get" (0x20) 0x180-0x181 (1)
0x180|   00                                          | .              |                    x: 0 (valid) 0x181-0x182 (1)
     |                                               |                |                  [1]{}: in 0x182-0x184 (2)
0x180|      20                                       |                |                    opcode: "local.get" (0x20) 0x182-0x183 (1)
0x180|         01                                    |   .            |                    x: 1 (valid) 0x183-0x184 (1)
     |                                               |                |                  [2]{}: in 0x184-0x185 (1)
0x180|            85                                 |    .           |                    opcode: "i64.xor" (0x85) 0x184-0x185 (1)
     |                                               |                |                  [3]{}: in 0x185-0x186 (1)
0x180|               0b                              |     .          |                    opcode: "end" (0xb) 0x185-0x186 (1)
     |                                               |                |            [10]{}: code 0x186-0x18e (8)
0x180|                  07                           |      .         |              size: 7 (valid) 0x186-0x187 (1)
     |                                               |                |              code{}: 0x187-0x18e (7)
     |                                               |                |                t{}: 0x187-0x188 (1)
0x180|                     00                        |       .        |                  n: 0 (valid) 0x187-0x188 (1)
     |                                               |                |                  x[0:0]: 0x188-0x188 (0)
     |                                               |                |                e[0:4]: 0x188-0x18e (6)
     |                                               |                |                  [0]{}: in 0x188-0x18a (2)
0x180|                        20                     |                |                    opcode: "local.get" (0x20) 0x188-0x189 (1)
0x180|                           00                  |         .      |                    x: 0 (valid) 0x189-0x18a (1)
     |                                               |                |                  [1]{}: in 0x18a-0x18c (2)
0x180|                              20               |                |                    opcode: "local.get" (0x20) 0x18a-0x18b (1)
0x180|                                 01            |           .    |                    x: 1 (valid) 0x18b-0x18c (1)
     |                                               |                |                  [2]{}: in 0x18c-0x18d (1)
0x180|                                    86         |            .   |                    opcode: "i64.shl" (0x86) 0x18c-0x18d (1)
     |                                               |                |                  [3]{}: in 0x18d-0x18e (1)
0x180|                                       0b      |             .  |                    opcode: "end" (0xb) 0x18d-0x18e (1)
     |                                               |                |            [11]{}: code 0x18e-0x196 (8)
0x180|                                          07   |              . |              size: 7 (valid) 0x18e-0x18f (1)
     |                                               |                |              code{}: 0x18f-0x196 (7)
     |                                               |                |                t{}: 0x18f-0x190 (1)
0x180|                                             00|               .|                  n: 0 (valid) 0x18f-0x190 (1)
     |                                               |                |                  x[0:0]: 0x190-0x190 (0)
     |                                               |                |                e[0:4]: 0x190-0x196 (6)
     |                                               |                |                  [0]{}: in 0x190-0x192 (2)
0x190|20                                             |                |                    opcode: "local.get" (0x20) 0x190-0x191 (1)
0x190|   00                                          | .              |                    x: 0 (valid) 0x191-0x192 (1)
     |                                               |                |                  [1]{}: in 0x192-0x194 (2)
0x190|      20                                       |                |                    opcode: "local.get" (0x20) 0x192-0x193 (1)
0x190|         01                                    |   .            |                    x: 1 (valid) 0x193-0x194 (1)
     |                                               |                |                  [2]{}: in 0x194-0x195 (1)
0x190|            87                                 |    .           |                    opcode: "i64.shr_s" (0x87) 0x194-0x195 (1)
     |                                               |                |                  [3]{}: in 0x195-0x196 (1)
0x190|               0b                              |     .          |                    opcode: "end" (0xb) 0x195-0x196 (1)
     |                                               |                |            [12]{}: code 0x196-0x19e (8)
0x190|                  07                           |      .         |              size: 7 (valid) 0x196-0x197 (1)
     |                                               |                |              code{}: 0x197-0x19e (7)
     |                                               |                |                t{}: 0x197-0x198 (1)
0x190|                     00                        |       .        |                  n: 0 (valid) 0x197-0x198 (1)
     |                                               |                |                  x[0:0]: 0x198-0x198 (0)
     |                                               |                |                e[0:4]: 0x198-0x19e (6)
     |                                               |                |                  [0]{}: in 0x198-0x19a (2)
0x190|                        20                     |                |                    opcode: "local.get" (0x20) 0x198-0x199 (1)
0x190|                           00                  |         .      |                    x: 0 (valid) 0x199-0x19a (1)
     |                                               |                |                  [1]{}: in 0x19a-0x19c (2)
0x190|                              20               |                |                    opcode: "local.get" (0x20) 0x19a-0x19b (1)
0x190|                                 01            |           .    |                    x: 1 (valid) 0x19b-0x19c (1)
     |                                               |                |                  [2]{}: in 0x19c-0x19d (1)
0x190|                                    88         |            .   |                    opcode: "i64.shr_u" (0x88) 0x19c-0x19d (1)
     |                                               |                |                  [3]{}: in 0x19d-0x19e (1)
0x190|                                       0b      |             .  |                    opcode: "end" (0xb) 0x19d-0x19e (1)
     |                                               |                |            [13]{}: code 0x19e-0x1a6 (8)
0x190|                                          07   |              . |              size: 7 (valid) 0x19e-0x19f (1)
     |                                               |                |              code{}: 0x19f-0x1a6 (7)
     |                                               |                |                t{}: 0x19f-0x1a0 (1)
0x190|                                             00|               .|                  n: 0 (valid) 0x19f-0x1a0 (1)
     |                                               |                |                  x[0:0]: 0x1a0-0x1a0 (0)
     |                                               |                |                e[0:4]: 0x1a0-0x1a6 (6)
     |                                               |                |                  [0]{}: in 0x1a0-0x1a2 (2)
0x1a0|20                                             |                |                    opcode: "local.get" (0x20) 0x1a0-0x1a1 (1)
0x1a0|   00                                          | .              |                    x: 0 (valid) 0x1a1-0x1a2 (1)
     |                                               |                |                  [1]{}: in 0x1a2-0x1a4 (2)
0x1a0|      20                                       |                |                    opcode: "local.get" (0x20) 0x1a2-0x1a3 (1)
0x1a0|         01                                    |   .            |                    x: 1 (valid) 0x1a3-0x1a4 (1)
     |                                               |                |                  [2]{}: in 0x1a4-0x1a5 (1)
0x1a0|            89                                 |    .           |                    opcode: "i64.rotl" (0x89) 0x1a4-0x1a5 (1)
     |                                               |                |                  [3]{}: in 0x1a5-0x1a6 (1)
0x1a0|               0b                              |     .          |                    opcode: "end" (0xb) 0x1a5-0x1a6 (1)
     |                                               |                |            [14]{}: code 0x1a6-0x1ae (8)
0x1a0|                  07                           |      .         |              size: 7 (valid) 0x1a6-0x1a7 (1)
     |                                               |                |              code{}: 0x1a7-0x1ae (7)
     |                                               |                |                t{}: 0x1a7-0x1a8 (1)
0x1a0|                     00                        |       .        |                  n: 0 (valid) 0x1a7-0x1a8 (1)
     |                                               |                |                  x[0:0]: 0x1a8-0x1a8 (0)
     |                                               |                |                e[0:4]: 0x1a8-0x1ae (6)
     |                                               |                |                  [0]{}: in 0x1a8-0x1aa (2)
0x1a0|                        20                     |                |                    opcode: "local.get" (0x20) 0x1a8-0x1a9 (1)
0x1a0|                           00                  |         .      |                    x: 0 (valid) 0x1a9-0x1aa (1)
     |                                               |                |                  [1]{}: in 0x1aa-0x1ac (2)
0x1a0|                              20               |                |                    opcode: "local.get" (0x20) 0x1aa-0x1ab (1)
0x1a0|                                 01            |           .    |                    x: 1 (valid) 0x1ab-0x1ac (1)
     |                                               |                |                  [2]{}: in 0x1ac-0x1ad (1)
0x1a0|                                    8a         |            .   |                    opcode: "i64.rotr" (0x8a) 0x1ac-0x1ad (1)
     |                                               |                |                  [3]{}: in 0x1ad-0x1ae (1)
0x1a0|                                       0b      |             .  |                    opcode: "end" (0xb) 0x1ad-0x1ae (1)
     |                                               |                |            [15]{}: code 0x1ae-0x1b4 (6)
0x1a0|                                          05   |              . |              size: 5 (valid) 0x1ae-0x1af (1)
     |                                               |                |              code{}: 0x1af-0x1b4 (5)
     |                                               |                |                t{}: 0x1af-0x1b0 (1)
0x1a0|                                             00|               .|                  n: 0 (valid) 0x1af-0x1b0 (1)
     |                                               |                |                  x[0:0]: 0x1b0-0x1b0 (0)
     |                                               |                |                e[0:3]: 0x1b0-0x1b4 (4)
     |                                               |                |                  [0]{}: in 0x1b0-0x1b2 (2)
0x1b0|20                                             |                |                    opcode: "local.get" (0x20) 0x1b0-0x1b1 (1)
0x1b0|   00                                          | .              |                    x: 0 (valid) 0x1b1-0x1b2 (1)
     |                                               |                |                  [1]{}: in 0x1b2-0x1b3 (1)
0x1b0|      79                                       |  y             |                    opcode: "i64.clz" (0x79) 0x1b2-0x1b3 (1)
     |                                               |                |                  [2]{}: in 0x1b3-0x1b4 (1)
0x1b0|         0b                                    |   .            |                    opcode: "end" (0xb) 0x1b3-0x1b4 (1)
     |                                               |                |            [16]{}: code 0x1b4-0x1ba (6)
0x1b0|            05                                 |    .           |              size: 5 (valid) 0x1b4-0x1b5 (1)
     |                                               |                |              code{}: 0x1b5-0x1ba (5)
     |                                               |                |                t{}: 0x1b5-0x1b6 (1)
0x1b0|               00                              |     .          |                  n: 0 (valid) 0x1b5-0x1b6 (1)
     |                                               |                |                  x[0:0]: 0x1b6-0x1b6 (0)
     |                                               |                |                e[0:3]: 0x1b6-0x1ba (4)
     |                                               |                |                  [0]{}: in 0x1b6-0x1b8 (2)
0x1b0|                  20                           |                |                    opcode: "local.get" (0x20) 0x1b6-0x1b7 (1)
0x1b0|                     00                        |       .        |                    x: 0 (valid) 0x1b7-0x1b8 (1)
     |                                               |                |                  [1]{}: in 0x1b8-0x1b9 (1)
0x1b0|                        7a                     |        z       |                    opcode: "i64.ctz" (0x7a) 0x1b8-0x1b9 (1)
     |                                               |                |                  [2]{}: in 0x1b9-0x1ba (1)
0x1b0|                           0b                  |         .      |                    opcode: "end" (0xb) 0x1b9-0x1ba (1)
     |                                               |                |            [17]{}: code 0x1ba-0x1c0 (6)
0x1b0|                              05               |          .     |              size: 5 (valid) 0x1ba-0x1bb (1)
     |                                               |                |              code{}: 0x1bb-0x1c0 (5)
     |                                               |                |                t{}: 0x1bb-0x1bc (1)
0x1b0|                                 00            |           .    |                  n: 0 (valid) 0x1bb-0x1bc (1)
     |                                               |                |                  x[0:0]: 0x1bc-0x1bc (0)
     |                                               |                |                e[0:3]: 0x1bc-0x1c0 (4)
     |                                               |                |                  [0]{}: in 0x1bc-0x1be (2)
0x1b0|                                    20         |                |                    opcode: "local.get" (0x20) 0x1bc-0x1bd (1)
0x1b0|                                       00      |             .  |                    x: 0 (valid) 0x1bd-0x1be (1)
     |                                               |                |                  [1]{}: in 0x1be-0x1bf (1)
0x1b0|                                          7b   |              { |                    opcode: "i64.popcnt" (0x7b) 0x1be-0x1bf (1)
     |                                               |                |                  [2]{}: in 0x1bf-0x1c0 (1)
0x1b0|                                             0b|               .|                    opcode: "end" (0xb) 0x1bf-0x1c0 (1)
     |                                               |                |            [18]{}: code 0x1c0-0x1c6 (6)
0x1c0|05                                             |.               |              size: 5 (valid) 0x1c0-0x1c1 (1)
     |                                               |                |              code{}: 0x1c1-0x1c6 (5)
     |                                               |                |                t{}: 0x1c1-0x1c2 (1)
0x1c0|   00                                          | .              |                  n: 0 (valid) 0x1c1-0x1c2 (1)
     |                                               |                |                  x[0:0]: 0x1c2-0x1c2 (0)
     |                                               |                |                e[0:3]: 0x1c2-0x1c6 (4)
     |                                               |                |                  [0]{}: in 0x1c2-0x1c4 (2)
0x1c0|      20                                       |                |                    opcode: "local.get" (0x20) 0x1c2-0x1c3 (1)
0x1c0|         00                                    |   .            |                    x: 0 (valid) 0x1c3-0x1c4 (1)
     |                                               |                |                  [1]{}: in 0x1c4-0x1c5 (1)
0x1c0|            c2                                 |    .           |                    opcode: "i64.extend8_s" (0xc2) 0x1c4-0x1c5 (1)
     |                                               |                |                  [2]{}: in 0x1c5-0x1c6 (1)
0x1c0|               0b                              |     .          |                    opcode: "end" (0xb) 0x1c5-0x1c6 (1)
     |                                               |                |            [19]{}: code 0x1c6-0x1cc (6)
0x1c0|                  05                           |      .         |              size: 5 (valid) 0x1c6-0x1c7 (1)
     |                                               |                |              code{}: 0x1c7-0x1cc (5)
     |                                               |                |                t{}: 0x1c7-0x1c8 (1)
0x1c0|                     00                        |       .        |                  n: 0 (valid) 0x1c7-0x1c8 (1)
     |                                               |                |                  x[0:0]: 0x1c8-0x1c8 (0)
     |                                               |                |                e[0:3]: 0x1c8-0x1cc (4)
     |                                               |                |                  [0]{}: in 0x1c8-0x1ca (2)
0x1c0|                        20                     |                |                    opcode: "local.get" (0x20) 0x1c8-0x1c9 (1)
0x1c0|                           00                  |         .      |                    x: 0 (valid) 0x1c9-0x1ca (1)
     |                                               |                |                  [1]{}: in 0x1ca-0x1cb (1)
0x1c0|                              c3               |          .     |                    opcode: "i64.extend16_s" (0xc3) 0x1ca-0x1cb (1)
     |                                               |                |                  [2]{}: in 0x1cb-0x1cc (1)
0x1c0|                                 0b            |           .    |                    opcode: "end" (0xb) 0x1cb-0x1cc (1)
     |                                               |                |            [20]{}: code 0x1cc-0x1d2 (6)
0x1c0|                                    05         |            .   |              size: 5 (valid) 0x1cc-0x1cd (1)
     |                                               |                |              code{}: 0x1cd-0x1d2 (5)
     |                                               |                |                t{}: 0x1cd-0x1ce (1)
0x1c0|                                       00      |             .  |                  n: 0 (valid) 0x1cd-0x1ce (1)
     |                                               |                |                  x[0:0]: 0x1ce-0x1ce (0)
     |                                               |                |                e[0:3]: 0x1ce-0x1d2 (4)
     |                                               |                |                  [0]{}: in 0x1ce-0x1d0 (2)
0x1c0|                                          20   |                |                    opcode: "local.get" (0x20) 0x1ce-0x1cf (1)
0x1c0|                                             00|               .|                    x: 0 (valid) 0x1cf-0x1d0 (1)
     |                                               |                |                  [1]{}: in 0x1d0-0x1d1 (1)
0x1d0|c4                                             |.               |                    opcode: "i64.extend32_s" (0xc4) 0x1d0-0x1d1 (1)
     |                                               |                |                  [2]{}: in 0x1d1-0x1d2 (1)
0x1d0|   0b                                          | .              |                    opcode: "end" (0xb) 0x1d1-0x1d2 (1)
     |                                               |                |            [21]{}: code 0x1d2-0x1d8 (6)
0x1d0|      05                                       |  .             |              size: 5 (valid) 0x1d2-0x1d3 (1)
     |                                               |                |              code{}: 0x1d3-0x1d8 (5)
     |                                               |                |                t{}: 0x1d3-0x1d4 (1)
0x1d0|         00                                    |   .            |                  n: 0 (valid) 0x1d3-0x1d4 (1)
     |                                               |                |                  x[0:0]: 0x1d4-0x1d4 (0)
     |                                               |                |                e[0:3]: 0x1d4-0x1d8 (4)
     |                                               |                |                  [0]{}: in 0x1d4-0x1d6 (2)
0x1d0|            20                                 |                |                    opcode: "local.get" (0x20) 0x1d4-0x1d5 (1)
0x1d0|               00                              |     .          |                    x: 0 (valid) 0x1d5-0x1d6 (1)
     |                                               |                |                  [1]{}: in 0x1d6-0x1d7 (1)
0x1d0|                  50                           |      P         |                    opcode: "i64.eqz" (0x50) 0x1d6-0x1d7 (1)
     |                                               |                |                  [2]{}: in 0x1d7-0x1d8 (1)
0x1d0|                     0b                        |       .        |                    opcode: "end" (0xb) 0x1d7-0x1d8 (1)
     |                                               |                |            [22]{}: code 0x1d8-0x1e0 (8)
0x1d0|                        07                     |        .       |              size: 7 (valid) 0x1d8-0x1d9 (1)
     |                                               |                |              code{}: 0x1d9-0x1e0 (7)
     |                                               |                |                t{}: 0x1d9-0x1da (1)
0x1d0|                           00                  |         .      |                  n: 0 (valid) 0x1d9-0x1da (1)
     |                                               |                |                  x[0:0]: 0x1da-0x1da (0)
     |                                               |                |                e[0:4]: 0x1da-0x1e0 (6)
     |                                               |                |                  [0]{}: in 0x1da-0x1dc (2)
0x1d0|                              20               |                |                    opcode: "local.get" (0x20) 0x1da-0x1db (1)
0x1d0|                                 00            |           .    |                    x: 0 (valid) 0x1db-0x1dc (1)
     |                                               |                |                  [1]{}: in 0x1dc-0x1de (2)
0x1d0|                                    20         |                |                    opcode: "local.get" (0x20) 0x1dc-0x1dd (1)
0x1d0|                                       01      |             .  |                    x: 1 (valid) 0x1dd-0x1de (1)
     |                                               |                |                  [2]{}: in 0x1de-0x1df (1)
0x1d0|                                          51   |              Q |                    opcode: "i64.eq" (0x51) 0x1de-0x1df (1)
     |                                               |                |                  [3]{}: in 0x1df-0x1e0 (1)
0x1d0|                                             0b|               .|                    opcode: "end" (0xb) 0x1df-0x1e0 (1)
     |                                               |                |            [23]{}: code 0x1e0-0x1e8 (8)
0x1e0|07                                             |.               |              size: 7 (valid) 0x1e0-0x1e1 (1)
     |                                               |                |              code{}: 0x1e1-0x1e8 (7)
     |                                               |                |                t{}: 0x1e1-0x1e2 (1)
0x1e0|   00                                          | .              |                  n: 0 (valid) 0x1e1-0x1e2 (1)
     |                                               |                |                  x[0:0]: 0x1e2-0x1e2 (0)
     |                                               |                |                e[0:4]: 0x1e2-0x1e8 (6)
     |                                               |                |                  [0]{}: in 0x1e2-0x1e4 (2)
0x1e0|      20                                       |                |                    opcode: "local.get" (0x20) 0x1e2-0x1e3 (1)
0x1e0|         00                                    |   .            |                    x: 0 (valid) 0x1e3-0x1e4 (1)
     |                                               |                |                  [1]{}: in 0x1e4-0x1e6 (2)
0x1e0|            20                                 |                |                    opcode: "local.get" (0x20) 0x1e4-0x1e5 (1)
0x1e0|               01                              |     .          |                    x: 1 (valid) 0x1e5-0x1e6 (1)
     |                                               |                |                  [2]{}: in 0x1e6-0x1e7 (1)
0x1e0|                  52                           |      R         |                    opcode: "i64.ne" (0x52) 0x1e6-0x1e7 (1)
     |                                               |                |                  [3]{}: in 0x1e7-0x1e8 (1)
0x1e0|                     0b                        |       .        |                    opcode: "end" (0xb) 0x1e7-0x1e8 (1)
     |                                               |                |            [24]{}: code 0x1e8-0x1f0 (8)
0x1e0|                        07                     |        .       |              size: 7 (valid) 0x1e8-0x1e9 (1)
     |                                               |                |              code{}: 0x1e9-0x1f0 (7)
     |                                               |                |                t{}: 0x1e9-0x1ea (1)
0x1e0|                           00                  |         .      |                  n: 0 (valid) 0x1e9-0x1ea (1)
     |                                               |                |                  x[0:0]: 0x1ea-0x1ea (0)
     |                                               |                |                e[0:4]: 0x1ea-0x1f0 (6)
     |                                               |                |                  [0]{}: in 0x1ea-0x1ec (2)
0x1e0|                              20               |                |                    opcode: "local.get" (0x20) 0x1ea-0x1eb (1)
0x1e0|                                 00            |           .    |                    x: 0 (valid) 0x1eb-0x1ec (1)
     |                                               |                |                  [1]{}: in 0x1ec-0x1ee (2)
0x1e0|                                    20         |                |                    opcode: "local.get" (0x20) 0x1ec-0x1ed (1)
0x1e0|                                       01      |             .  |                    x: 1 (valid) 0x1ed-0x1ee (1)
     |                                               |                |                  [2]{}: in 0x1ee-0x1ef (1)
0x1e0|                                          53   |              S |                    opcode: "i64.lt_s" (0x53) 0x1ee-0x1ef (1)
     |                                               |                |                  [3]{}: in 0x1ef-0x1f0 (1)
0x1e0|                                             0b|               .|                    opcode: "end" (0xb) 0x1ef-0x1f0 (1)
     |                                               |                |            [25]{}: code 0x1f0-0x1f8 (8)
0x1f0|07                                             |.               |              size: 7 (valid) 0x1f0-0x1f1 (1)
     |                                               |                |              code{}: 0x1f1-0x1f8 (7)
     |                                               |                |                t{}: 0x1f1-0x1f2 (1)
0x1f0|   00                                          | .              |                  n: 0 (valid) 0x1f1-0x1f2 (1)
     |                                               |                |                  x[0:0]: 0x1f2-0x1f2 (0)
     |                                               |                |                e[0:4]: 0x1f2-0x1f8 (6)
     |                                               |                |                  [0]{}: in 0x1f2-0x1f4 (2)
0x1f0|      20                                       |                |                    opcode: "local.get" (0x20) 0x1f2-0x1f3 (1)
0x1f0|         00                                    |   .            |                    x: 0 (valid) 0x1f3-0x1f4 (1)
     |                                               |                |                  [1]{}: in 0x1f4-0x1f6 (2)
0x1f0|            20                                 |                |                    opcode: "local.get" (0x20) 0x1f4-0x1f5 (1)
0x1f0|               01                              |     .          |                    x: 1 (valid) 0x1f5-0x1f6 (1)
     |                                               |                |                  [2]{}: in 0x1f6-0x1f7 (1)
0x1f0|                  54                           |      T         |                    opcode: "i64.lt_u" (0x54) 0x1f6-0x1f7 (1)
     |                                               |                |                  [3]{}: in 0x1f7-0x1f8 (1)
0x1f0|                     0b                        |       .        |                    opcode: "end" (0xb) 0x1f7-0x1f8 (1)
     |                                               |                |            [26]{}: code 0x1f8-0x200 (8)
0x1f0|                        07                     |        .       |              size: 7 (valid) 0x1f8-0x1f9 (1)
     |                                               |                |              code{}: 0x1f9-0x200 (7)
     |                                               |                |                t{}: 0x1f9-0x1fa (1)
0x1f0|                           00                  |         .      |                  n: 0 (valid) 0x1f9-0x1fa (1)
     |                                               |                |                  x[0:0]: 0x1fa-0x1fa (0)
     |                                               |                |                e[0:4]: 0x1fa-0x200 (6)
     |                                               |                |                  [0]{}: in 0x1fa-0x1fc (2)
0x1f0|                              20               |                |                    opcode: "local.get" (0x20) 0x1fa-0x1fb (1)
0x1f0|                                 00            |           .    |                    x: 0 (valid) 0x1fb-0x1fc (1)
     |                                               |                |                  [1]{}: in 0x1fc-0x1fe (2)
0x1f0|                                    20         |                |                    opcode: "local.get" (0x20) 0x1fc-0x1fd (1)
0x1f0|                                       01      |             .  |                    x: 1 (valid) 0x1fd-0x1fe (1)
     |                                               |                |                  [2]{}: in 0x1fe-0x1ff (1)
0x1f0|                                          57   |              W |                    opcode: "i64.le_s" (0x57) 0x1fe-0x1ff (1)
     |                                               |                |                  [3]{}: in 0x1ff-0x200 (1)
0x1f0|                                             0b|               .|                    opcode: "end" (0xb) 0x1ff-0x200 (1)
     |                                               |                |            [27]{}: code 0x200-0x208 (8)
0x200|07                                             |.               |              size: 7 (valid) 0x200-0x201 (1)
     |                                               |                |              code{}: 0x201-0x208 (7)
     |                                               |                |                t{}: 0x201-0x202 (1)
0x200|   00                                          | .              |                  n: 0 (valid) 0x201-0x202 (1)
     |                                               |                |                  x[0:0]: 0x202-0x202 (0)
     |                                               |                |                e[0:4]: 0x202-0x208 (6)
     |                                               |                |                  [0]{}: in 0x202-0x204 (2)
0x200|      20                                       |                |                    opcode: "local.get" (0x20) 0x202-0x203 (1)
0x200|         00                                    |   .            |                    x: 0 (valid) 0x203-0x204 (1)
     |                                               |                |                  [1]{}: in 0x204-0x206 (2)
0x200|            20                                 |                |                    opcode: "local.get" (0x20) 0x204-0x205 (1)
0x200|               01                              |     .          |                    x: 1 (valid) 0x205-0x206 (1)
     |                                               |                |                  [2]{}: in 0x206-0x207 (1)
0x200|                  58                           |      X         |                    opcode: "i64.le_u" (0x58) 0x206-0x207 (1)
     |                                               |                |                  [3]{}: in 0x207-0x208 (1)
0x200|                     0b                        |       .        |                    opcode: "end" (0xb) 0x207-0x208 (1)
     |                                               |                |            [28]{}: code 0x208-0x210 (8)
0x200|                        07                     |        .       |              size: 7 (valid) 0x208-0x209 (1)
     |                                               |                |              code{}: 0x209-0x210 (7)
     |                                               |                |                t{}: 0x209-0x20a (1)
0x200|                           00                  |         .      |                  n: 0 (valid) 0x209-0x20a (1)
     |                                               |                |                  x[0:0]: 0x20a-0x20a (0)
     |                                               |                |                e[0:4]: 0x20a-0x210 (6)
     |                                               |                |                  [0]{}: in 0x20a-0x20c (2)
0x200|                              20               |                |                    opcode: "local.get" (0x20) 0x20a-0x20b (1)
0x200|                                 00            |           .    |                    x: 0 (valid) 0x20b-0x20c (1)
     |                                               |                |                  [1]{}: in 0x20c-0x20e (2)
0x200|                                    20         |                |                    opcode: "local.get" (0x20) 0x20c-0x20d (1)
0x200|                                       01      |             .  |                    x: 1 (valid) 0x20d-0x20e (1)
     |                                               |                |                  [2]{}: in 0x20e-0x20f (1)
0x200|                                          55   |              U |                    opcode: "i64.gt_s" (0x55) 0x20e-0x20f (1)
     |                                               |                |                  [3]{}: in 0x20f-0x210 (1)
0x200|                                             0b|               .|                    opcode: "end" (0xb) 0x20f-0x210 (1)
     |                                               |                |            [29]{}: code 0x210-0x218 (8)
0x210|07                                             |.               |              size: 7 (valid) 0x210-0x211 (1)
     |                                               |                |              code{}: 0x211-0x218 (7)
     |                                               |                |                t{}: 0x211-0x212 (1)
0x210|   00                                          | .              |                  n: 0 (valid) 0x211-0x212 (1)
     |                                               |                |                  x[0:0]: 0x212-0x212 (0)
     |                                               |                |                e[0:4]: 0x212-0x218 (6)
     |                                               |                |                  [0]{}: in 0x212-0x214 (2)
0x210|      20                                       |                |                    opcode: "local.get" (0x20) 0x212-0x213 (1)
0x210|         00                                    |   .            |                    x: 0 (valid) 0x213-0x214 (1)
     |                                               |                |                  [1]{}: in 0x214-0x216 (2)
0x210|            20                                 |                |                    opcode: "local.get" (0x20) 0x214-0x215 (1)
0x210|               01                              |     .          |                    x: 1 (valid) 0x215-0x216 (1)
     |                                               |                |                  [2]{}: in 0x216-0x217 (1)
0x210|                  56                           |      V         |                    opcode: "i64.gt_u" (0x56) 0x216-0x217 (1)
     |                                               |                |                  [3]{}: in 0x217-0x218 (1)
0x210|                     0b                        |       .        |                    opcode: "end" (0xb) 0x217-0x218 (1)
     |                                               |                |            [30]{}: code 0x218-0x220 (8)
0x210|                        07                     |        .       |              size: 7 (valid) 0x218-0x219 (1)
     |                                               |                |              code{}: 0x219-0x220 (7)
     |                                               |                |                t{}: 0x219-0x21a (1)
0x210|                           00                  |         .      |                  n: 0 (valid) 0x219-0x21a (1)
     |                                               |                |                  x[0:0]: 0x21a-0x21a (0)
     |                                               |                |                e[0:4]: 0x21a-0x220 (6)
     |                                               |                |                  [0]{}: in 0x21a-0x21c (2)
0x210|                              20               |                |                    opcode: "local.get" (0x20) 0x21a-0x21b (1)
0x210|                                 00            |           .    |                    x: 0 (valid) 0x21b-0x21c (1)
     |                                               |                |                  [1]{}: in 0x21c-0x21e (2)
0x210|                                    20         |                |                    opcode: "local.get" (0x20) 0x21c-0x21d (1)
0x210|                                       01      |             .  |                    x: 1 (valid) 0x21d-0x21e (1)
     |                                               |                |                  [2]{}: in 0x21e-0x21f (1)
0x210|                                          59   |              Y |                    opcode: "i64.ge_s" (0x59) 0x21e-0x21f (1)
     |                                               |                |                  [3]{}: in 0x21f-0x220 (1)
0x210|                                             0b|               .|                    opcode: "end" (0xb) 0x21f-0x220 (1)
     |                                               |                |            [31]{}: code 0x220-0x228 (8)
0x220|07                                             |.               |              size: 7 (valid) 0x220-0x221 (1)
     |                                               |                |              code{}: 0x221-0x228 (7)
     |                                               |                |                t{}: 0x221-0x222 (1)
0x220|   00                                          | .              |                  n: 0 (valid) 0x221-0x222 (1)
     |                                               |                |                  x[0:0]: 0x222-0x222 (0)
     |                                               |                |                e[0:4]: 0x222-0x228 (6)
     |                                               |                |                  [0]{}: in 0x222-0x224 (2)
0x220|      20                                       |                |                    opcode: "local.get" (0x20) 0x222-0x223 (1)
0x220|         00                                    |   .            |                    x: 0 (valid) 0x223-0x224 (1)
     |                                               |                |                  [1]{}: in 0x224-0x226 (2)
0x220|            20                                 |                |                    opcode: "local.get" (0x20) 0x224-0x225 (1)
0x220|               01                              |     .          |                    x: 1 (valid) 0x225-0x226 (1)
     |                                               |                |                  [2]{}: in 0x226-0x227 (1)
0x220|                  5a                           |      Z         |                    opcode: "i64.ge_u" (0x5a) 0x226-0x227 (1)
     |                                               |                |                  [3]{}: in 0x227-0x228 (1)
0x220|                     0b|                       |       .|       |                    opcode: "end" (0xb) 0x227-0x228 (1)
