$ fq -d wasm dv imports-4.wasm
    |00 01 02 03 04 05 06 07 08 09 0a 0b 0c 0d 0e 0f|0123456789abcdef|.{}: imports-4.wasm (wasm) 0x0-0x1d (29)
0x00|00 61 73 6d                                    |.asm            |  magic: raw bits (valid) 0x0-0x4 (4)
0x00|            01 00 00 00                        |    ....        |  version: 1 0x4-0x8 (4)
    |                                               |                |  sections[0:2]: 0x8-0x1d (21)
    |                                               |                |    [0]{}: section 0x8-0xe (6)
0x00|                        01                     |        .       |      id: "type_section" (1) 0x8-0x9 (1)
0x00|                           04                  |         .      |      size: 4 (valid) 0x9-0xa (1)
    |                                               |                |      content{}: 0xa-0xe (4)
    |                                               |                |        ft{}: 0xa-0xe (4)
0x00|                              01               |          .     |          n: 1 (valid) 0xa-0xb (1)
    |                                               |                |          x[0:1]: 0xb-0xe (3)
    |                                               |                |            [0]{}: ft 0xb-0xe (3)
0x00|                                 60            |           `    |              tag: 0x60 (valid) 0xb-0xc (1)
    |                                               |                |              rt1{}: 0xc-0xd (1)
0x00|                                    00         |            .   |                n: 0 (valid) 0xc-0xd (1)
    |                                               |                |                x[0:0]: 0xd-0xd (0)
    |                                               |                |              rt2{}: 0xd-0xe (1)
0x00|                                       00      |             .  |                n: 0 (valid) 0xd-0xe (1)
    |                                               |                |                x[0:0]: 0xe-0xe (0)
    |                                               |                |    [1]{}: section 0xe-0x1d (15)
0x00|                                          02   |              . |      id: "import_section" (2) 0xe-0xf (1)
0x00|                                             0d|               .|      size: 13 (valid) 0xf-0x10 (1)
    |                                               |                |      content{}: 0x10-0x1d (13)
    |                                               |                |        im{}: 0x10-0x1d (13)
0x10|01                                             |.               |          n: 1 (valid) 0x10-0x11 (1)
    |                                               |                |          x[0:1]: 0x11-0x1d (12)
    |                                               |                |            [0]{}: im 0x11-0x1d (12)
    |                                               |                |              mod{}: 0x11-0x16 (5)
0x10|   04                                          | .              |                n: 4 (valid) 0x11-0x12 (1)
0x10|      74 65 73 74                              |  test          |                b: "test" 0x12-0x16 (4)
    |                                               |                |              nm{}: 0x16-0x1b (5)
0x10|                  04                           |      .         |                n: 4 (valid) 0x16-0x17 (1)
0x10|                     66 75 6e 63               |       func     |                b: "func" 0x17-0x1b (4)
    |                                               |                |              d{}: 0x1b-0x1d (2)
0x10|                                 00            |           .    |                tag: "func" (0x0) 0x1b-0x1c (1)
0x10|                                    00|        |            .|  |                x: 0 (valid) 0x1c-0x1d (1)
