$ fq -d wasm dv imports-52.wasm
    |00 01 02 03 04 05 06 07 08 09 0a 0b 0c 0d 0e 0f|0123456789abcdef|.{}: imports-52.wasm (wasm) 0x0-0x48 (72)
0x00|00 61 73 6d                                    |.asm            |  magic: raw bits (valid) 0x0-0x4 (4)
0x00|            01 00 00 00                        |    ....        |  version: 1 0x4-0x8 (4)
    |                                               |                |  sections[0:5]: 0x8-0x48 (64)
    |                                               |                |    [0]{}: section 0x8-0xf (7)
0x00|                        01                     |        .       |      id: "type_section" (1) 0x8-0x9 (1)
0x00|                           05                  |         .      |      size: 5 (valid) 0x9-0xa (1)
    |                                               |                |      content{}: 0xa-0xf (5)
    |                                               |                |        ft{}: 0xa-0xf (5)
0x00|                              01               |          .     |          n: 1 (valid) 0xa-0xb (1)
    |                                               |                |          x[0:1]: 0xb-0xf (4)
    |                                               |                |            [0]{}: ft 0xb-0xf (4)
0x00|                                 60            |           `    |              tag: 0x60 (valid) 0xb-0xc (1)
    |                                               |                |              rt1{}: 0xc-0xd (1)
0x00|                                    00         |            .   |                n: 0 (valid) 0xc-0xd (1)
    |                                               |                |                x[0:0]: 0xd-0xd (0)
    |                                               |                |              rt2{}: 0xd-0xf (2)
0x00|                                       01      |             .  |                n: 1 (valid) 0xd-0xe (1)
    |                                               |                |                x[0:1]: 0xe-0xf (1)
0x00|                                          7f   |              . |                  [0]: "i32" (0x7f) t 0xe-0xf (1)
    |                                               |                |    [1]{}: section 0xf-0x32 (35)
0x00|                                             02|               .|      id: "import_section" (2) 0xf-0x10 (1)
0x10|21                                             |!               |      size: 33 (valid) 0x10-0x11 (1)
    |                                               |                |      content{}: 0x11-0x32 (33)
    |                                               |                |        im{}: 0x11-0x32 (33)
0x10|   01                                          | .              |          n: 1 (valid) 0x11-0x12 (1)
    |                                               |                |          x[0:1]: 0x12-0x32 (32)
    |                                               |                |            [0]{}: im 0x12-0x32 (32)
    |                                               |                |              mod{}: 0x12-0x28 (22)
0x10|      15                                       |  .             |                n: 21 (valid) 0x12-0x13 (1)
0x10|         67 72 6f 77 6e 2d 69 6d 70 6f 72 74 65|   grown-importe|                b: "grown-imported-memory" 0x13-0x28 (21)
0x20|64 2d 6d 65 6d 6f 72 79                        |d-memory        |
    |                                               |                |              nm{}: 0x28-0x2f (7)
0x20|                        06                     |        .       |                n: 6 (valid) 0x28-0x29 (1)
0x20|                           6d 65 6d 6f 72 79   |         memory |                b: "memory" 0x29-0x2f (6)
    |                                               |                |              d{}: 0x2f-0x32 (3)
0x20|                                             02|               .|                tag: "mem" (0x2) 0x2f-0x30 (1)
    |                                               |                |                mt{}: 0x30-0x32 (2)
    |                                               |                |                  lim{}: 0x30-0x32 (2)
0x30|00                                             |.               |                    tag: 0x0 0x30-0x31 (1)
0x30|   03                                          | .              |                    n: 3 (valid) 0x31-0x32 (1)
    |                                               |                |    [2]{}: section 0x32-0x36 (4)
0x30|      03                                       |  .             |      id: "function_section" (3) 0x32-0x33 (1)
0x30|         02                                    |   .            |      size: 2 (valid) 0x33-0x34 (1)
    |                                               |                |      content{}: 0x34-0x36 (2)
    |                                               |                |        x{}: 0x34-0x36 (2)
0x30|            01                                 |    .           |          n: 1 (valid) 0x34-0x35 (1)
    |                                               |                |          x[0:1]: 0x35-0x36 (1)
0x30|               00                              |     .          |            [0]: 0 x (valid) 0x35-0x36 (1)
    |                                               |                |    [3]{}: section 0x36-0x40 (10)
0x30|                  07                           |      .         |      id: "export_section" (7) 0x36-0x37 (1)
0x30|                     08                        |       .        |      size: 8 (valid) 0x37-0x38 (1)
    |                                               |                |      content{}: 0x38-0x40 (8)
    |                                               |                |        ex{}: 0x38-0x40 (8)
0x30|                        01                     |        .       |          n: 1 (valid) 0x38-0x39 (1)
    |                                               |                |          x[0:1]: 0x39-0x40 (7)
    |                                               |                |            [0]{}: ex 0x39-0x40 (7)
    |                                               |                |              nm{}: 0x39-0x3e (5)
0x30|                           04                  |         .      |                n: 4 (valid) 0x39-0x3a (1)
0x30|                              73 69 7a 65      |          size  |                b: "size" 0x3a-0x3e (4)
    |                                               |                |              d{}: 0x3e-0x40 (2)
0x30|                                          00   |              . |                tag: "funcidx" (0x0) 0x3e-0x3f (1)
0x30|                                             00|               .|                x: 0 (valid) 0x3f-0x40 (1)
    |                                               |                |    [4]{}: section 0x40-0x48 (8)
0x40|0a                                             |.               |      id: "code_section" (10) 0x40-0x41 (1)
0x40|   06                                          | .              |      size: 6 (valid) 0x41-0x42 (1)
    |                                               |                |      content{}: 0x42-0x48 (6)
    |                                               |                |        code{}: 0x42-0x48 (6)
0x40|      01                                       |  .             |          n: 1 (valid) 0x42-0x43 (1)
    |                                               |                |          x[0:1]: 0x43-0x48 (5)
    |                                               |                |            [0]{}: code 0x43-0x48 (5)
0x40|         04                                    |   .            |              size: 4 (valid) 0x43-0x44 (1)
    |                                               |                |              code{}: 0x44-0x48 (4)
    |                                               |                |                t{}: 0x44-0x45 (1)
0x40|            00                                 |    .           |                  n: 0 (valid) 0x44-0x45 (1)
    |                                               |                |                  x[0:0]: 0x45-0x45 (0)
    |                                               |                |                e[0:2]: 0x45-0x48 (3)
    |                                               |                |                  [0]{}: in 0x45-0x47 (2)
0x40|               3f                              |     ?          |                    opcode: "memory.size" (0x3f) 0x45-0x46 (1)
0x40|                  00                           |      .         |                    reserved: 0x0 (valid) 0x46-0x47 (1)
    |                                               |                |                  [1]{}: in 0x47-0x48 (1)
0x40|                     0b|                       |       .|       |                    opcode: "end" (0xb) 0x47-0x48 (1)
