$ fq -d wasm dv imports-36.wasm
    |00 01 02 03 04 05 06 07 08 09 0a 0b 0c 0d 0e 0f|0123456789abcdef|.{}: imports-36.wasm (wasm) 0x0-0x1f (31)
0x00|00 61 73 6d                                    |.asm            |  magic: raw bits (valid) 0x0-0x4 (4)
0x00|            01 00 00 00                        |    ....        |  version: 1 0x4-0x8 (4)
    |                                               |                |  sections[0:1]: 0x8-0x1f (23)
    |                                               |                |    [0]{}: section 0x8-0x1f (23)
0x00|                        02                     |        .       |      id: "import_section" (2) 0x8-0x9 (1)
0x00|                           15                  |         .      |      size: 21 (valid) 0x9-0xa (1)
    |                                               |                |      content{}: 0xa-0x1f (21)
    |                                               |                |        im{}: 0xa-0x1f (21)
0x00|                              01               |          .     |          n: 1 (valid) 0xa-0xb (1)
    |                                               |                |          x[0:1]: 0xb-0x1f (20)
    |                                               |                |            [0]{}: im 0xb-0x1f (20)
    |                                               |                |              mod{}: 0xb-0x14 (9)
0x00|                                 08            |           .    |                n: 8 (valid) 0xb-0xc (1)
0x00|                                    73 70 65 63|            spec|                b: "spectest" 0xc-0x14 (8)
0x10|74 65 73 74                                    |test            |
    |                                               |                |              nm{}: 0x14-0x1a (6)
0x10|            05                                 |    .           |                n: 5 (valid) 0x14-0x15 (1)
0x10|               74 61 62 6c 65                  |     table      |                b: "table" 0x15-0x1a (5)
    |                                               |                |              d{}: 0x1a-0x1f (5)
0x10|                              01               |          .     |                tag: "table" (0x1) 0x1a-0x1b (1)
    |                                               |                |                tt{}: 0x1b-0x1f (4)
0x10|                                 70            |           p    |                  et: "funcref" (112) 0x1b-0x1c (1)
    |                                               |                |                  lim{}: 0x1c-0x1f (3)
0x10|                                    01         |            .   |                    tag: 0x1 0x1c-0x1d (1)
0x10|                                       0a      |             .  |                    n: 10 (valid) 0x1d-0x1e (1)
0x10|                                          19|  |              .||                    m: 25 (valid) 0x1e-0x1f (1)
