$ fq -d wasm dv imports-17.wasm
    |00 01 02 03 04 05 06 07 08 09 0a 0b 0c 0d 0e 0f|0123456789abcdef|.{}: imports-17.wasm (wasm) 0x0-0x39.7 (58)
0x00|00 61 73 6d                                    |.asm            |  magic: raw bits (valid) 0x0-0x3.7 (4)
0x00|            01 00 00 00                        |    ....        |  version: 1 0x4-0x7.7 (4)
    |                                               |                |  sections[0:2]: 0x8-0x39.7 (50)
    |                                               |                |    [0]{}: section 0x8-0x30.7 (41)
0x00|                        02                     |        .       |      id: "import section" (2) 0x8-0x8.7 (1)
0x00|                           27                  |         '      |      size: 39 0x9-0x9.7 (1)
    |                                               |                |      content{}: 0xa-0x30.7 (39)
    |                                               |                |        im{}: 0xa-0x30.7 (39)
0x00|                              02               |          .     |          n: 2 0xa-0xa.7 (1)
    |                                               |                |          x[0:2]: 0xb-0x30.7 (38)
    |                                               |                |            [0]{}: im 0xb-0x1d.7 (19)
    |                                               |                |              mod{}: 0xb-0x13.7 (9)
0x00|                                 08            |           .    |                n: 8 0xb-0xb.7 (1)
0x00|                                    73 70 65 63|            spec|                b: "spectest" 0xc-0x13.7 (8)
0x10|74 65 73 74                                    |test            |
    |                                               |                |              nm{}: 0x14-0x19.7 (6)
0x10|            05                                 |    .           |                n: 5 0x14-0x14.7 (1)
0x10|               74 61 62 6c 65                  |     table      |                b: "table" 0x15-0x19.7 (5)
    |                                               |                |              d{}: 0x1a-0x1d.7 (4)
0x10|                              01               |          .     |                tag: "table" (0x1) 0x1a-0x1a.7 (1)
    |                                               |                |                tt{}: 0x1b-0x1d.7 (3)
0x10|                                 70            |           p    |                  et: "funcref" (112) 0x1b-0x1b.7 (1)
    |                                               |                |                  lim{}: 0x1c-0x1d.7 (2)
0x10|                                    00         |            .   |                    tag: 0x0 0x1c-0x1c.7 (1)
0x10|                                       00      |             .  |                    n: 0 0x1d-0x1d.7 (1)
    |                                               |                |            [1]{}: im 0x1e-0x30.7 (19)
    |                                               |                |              mod{}: 0x1e-0x26.7 (9)
0x10|                                          08   |              . |                n: 8 0x1e-0x1e.7 (1)
0x10|                                             73|               s|                b: "spectest" 0x1f-0x26.7 (8)
0x20|70 65 63 74 65 73 74                           |pectest         |
    |                                               |                |              nm{}: 0x27-0x2c.7 (6)
0x20|                     05                        |       .        |                n: 5 0x27-0x27.7 (1)
0x20|                        74 61 62 6c 65         |        table   |                b: "table" 0x28-0x2c.7 (5)
    |                                               |                |              d{}: 0x2d-0x30.7 (4)
0x20|                                       01      |             .  |                tag: "table" (0x1) 0x2d-0x2d.7 (1)
    |                                               |                |                tt{}: 0x2e-0x30.7 (3)
0x20|                                          70   |              p |                  et: "funcref" (112) 0x2e-0x2e.7 (1)
    |                                               |                |                  lim{}: 0x2f-0x30.7 (2)
0x20|                                             00|               .|                    tag: 0x0 0x2f-0x2f.7 (1)
0x30|00                                             |.               |                    n: 0 0x30-0x30.7 (1)
    |                                               |                |    [1]{}: section 0x31-0x39.7 (9)
0x30|   04                                          | .              |      id: "table section" (4) 0x31-0x31.7 (1)
0x30|      07                                       |  .             |      size: 7 0x32-0x32.7 (1)
    |                                               |                |      content{}: 0x33-0x39.7 (7)
    |                                               |                |        tab{}: 0x33-0x39.7 (7)
0x30|         02                                    |   .            |          n: 2 0x33-0x33.7 (1)
    |                                               |                |          x[0:2]: 0x34-0x39.7 (6)
    |                                               |                |            [0]{}: tab 0x34-0x36.7 (3)
0x30|            70                                 |    p           |              et: "funcref" (112) 0x34-0x34.7 (1)
    |                                               |                |              lim{}: 0x35-0x36.7 (2)
0x30|               00                              |     .          |                tag: 0x0 0x35-0x35.7 (1)
0x30|                  0a                           |      .         |                n: 10 0x36-0x36.7 (1)
    |                                               |                |            [1]{}: tab 0x37-0x39.7 (3)
0x30|                     70                        |       p        |              et: "funcref" (112) 0x37-0x37.7 (1)
    |                                               |                |              lim{}: 0x38-0x39.7 (2)
0x30|                        00                     |        .       |                tag: 0x0 0x38-0x38.7 (1)
0x30|                           0a|                 |         .|     |                n: 10 0x39-0x39.7 (1)
