$ fq -d wasm dv imports-41.wasm
    |00 01 02 03 04 05 06 07 08 09 0a 0b 0c 0d 0e 0f|0123456789abcdef|.{}: imports-41.wasm (wasm) 0x0-0x20 (32)
0x00|00 61 73 6d                                    |.asm            |  magic: raw bits (valid) 0x0-0x4 (4)
0x00|            01 00 00 00                        |    ....        |  version: 1 0x4-0x8 (4)
    |                                               |                |  sections[0:1]: 0x8-0x20 (24)
    |                                               |                |    [0]{}: section 0x8-0x20 (24)
0x00|                        02                     |        .       |      id: "import_section" (2) 0x8-0x9 (1)
0x00|                           16                  |         .      |      size: 22 (valid) 0x9-0xa (1)
    |                                               |                |      content{}: 0xa-0x20 (22)
    |                                               |                |        im{}: 0xa-0x20 (22)
0x00|                              01               |          .     |          n: 1 (valid) 0xa-0xb (1)
    |                                               |                |          x[0:1]: 0xb-0x20 (21)
    |                                               |                |            [0]{}: im 0xb-0x20 (21)
    |                                               |                |              mod{}: 0xb-0x10 (5)
0x00|                                 04            |           .    |                n: 4 (valid) 0xb-0xc (1)
0x00|                                    74 65 73 74|            test|                b: "test" 0xc-0x10 (4)
    |                                               |                |              nm{}: 0x10-0x1d (13)
0x10|0c                                             |.               |                n: 12 (valid) 0x10-0x11 (1)
0x10|   6d 65 6d 6f 72 79 2d 32 2d 69 6e 66         | memory-2-inf   |                b: "memory-2-inf" 0x11-0x1d (12)
    |                                               |                |              d{}: 0x1d-0x20 (3)
0x10|                                       02      |             .  |                tag: "mem" (0x2) 0x1d-0x1e (1)
    |                                               |                |                mt{}: 0x1e-0x20 (2)
    |                                               |                |                  lim{}: 0x1e-0x20 (2)
0x10|                                          00   |              . |                    tag: 0x0 0x1e-0x1f (1)
0x10|                                             01|               .|                    n: 1 (valid) 0x1f-0x20 (1)
