$ fq -d wasm dv imports-1.wasm
     |00 01 02 03 04 05 06 07 08 09 0a 0b 0c 0d 0e 0f|0123456789abcdef|.{}: imports-1.wasm (wasm) 0x0-0x237 (567)
0x000|00 61 73 6d                                    |.asm            |  magic: raw bits (valid) 0x0-0x4 (4)
0x000|            01 00 00 00                        |    ....        |  version: 1 0x4-0x8 (4)
     |                                               |                |  sections[0:7]: 0x8-0x237 (559)
     |                                               |                |    [0]{}: section 0x8-0x2e (38)
0x000|                        01                     |        .       |      id: "type_section" (1) 0x8-0x9 (1)
0x000|                           24                  |         $      |      size: 36 (valid) 0x9-0xa (1)
     |                                               |                |      content{}: 0xa-0x2e (36)
     |                                               |                |        ft{}: 0xa-0x2e (36)
0x000|                              08               |          .     |          n: 8 (valid) 0xa-0xb (1)
     |                                               |                |          x[0:8]: 0xb-0x2e (35)
     |                                               |                |            [0]{}: ft 0xb-0xf (4)
0x000|                                 60            |           `    |              tag: 0x60 (valid) 0xb-0xc (1)
     |                                               |                |              rt1{}: 0xc-0xe (2)
0x000|                                    01         |            .   |                n: 1 (valid) 0xc-0xd (1)
     |                                               |                |                x[0:1]: 0xd-0xe (1)
0x000|                                       7f      |             .  |                  [0]: "i32" (0x7f) t 0xd-0xe (1)
     |                                               |                |              rt2{}: 0xe-0xf (1)
0x000|                                          00   |              . |                n: 0 (valid) 0xe-0xf (1)
     |                                               |                |                x[0:0]: 0xf-0xf (0)
     |                                               |                |            [1]{}: ft 0xf-0x13 (4)
0x000|                                             60|               `|              tag: 0x60 (valid) 0xf-0x10 (1)
     |                                               |                |              rt1{}: 0x10-0x12 (2)
0x010|01                                             |.               |                n: 1 (valid) 0x10-0x11 (1)
     |                                               |                |                x[0:1]: 0x11-0x12 (1)
0x010|   7e                                          | ~              |                  [0]: "i64" (0x7e) t 0x11-0x12 (1)
     |                                               |                |              rt2{}: 0x12-0x13 (1)
0x010|      00                                       |  .             |                n: 0 (valid) 0x12-0x13 (1)
     |                                               |                |                x[0:0]: 0x13-0x13 (0)
     |                                               |                |            [2]{}: ft 0x13-0x17 (4)
0x010|         60                                    |   `            |              tag: 0x60 (valid) 0x13-0x14 (1)
     |                                               |                |              rt1{}: 0x14-0x16 (2)
0x010|            01                                 |    .           |                n: 1 (valid) 0x14-0x15 (1)
     |                                               |                |                x[0:1]: 0x15-0x16 (1)
0x010|               7d                              |     }          |                  [0]: "f32" (0x7d) t 0x15-0x16 (1)
     |                                               |                |              rt2{}: 0x16-0x17 (1)
0x010|                  00                           |      .         |                n: 0 (valid) 0x16-0x17 (1)
     |                                               |                |                x[0:0]: 0x17-0x17 (0)
     |                                               |                |            [3]{}: ft 0x17-0x1b (4)
0x010|                     60                        |       `        |              tag: 0x60 (valid) 0x17-0x18 (1)
     |                                               |                |              rt1{}: 0x18-0x1a (2)
0x010|                        01                     |        .       |                n: 1 (valid) 0x18-0x19 (1)
     |                                               |                |                x[0:1]: 0x19-0x1a (1)
0x010|                           7c                  |         |      |                  [0]: "f64" (0x7c) t 0x19-0x1a (1)
     |                                               |                |              rt2{}: 0x1a-0x1b (1)
0x010|                              00               |          .     |                n: 0 (valid) 0x1a-0x1b (1)
     |                                               |                |                x[0:0]: 0x1b-0x1b (0)
     |                                               |                |            [4]{}: ft 0x1b-0x1f (4)
0x010|                                 60            |           `    |              tag: 0x60 (valid) 0x1b-0x1c (1)
     |                                               |                |              rt1{}: 0x1c-0x1e (2)
0x010|                                    01         |            .   |                n: 1 (valid) 0x1c-0x1d (1)
     |                                               |                |                x[0:1]: 0x1d-0x1e (1)
0x010|                                       7f      |             .  |                  [0]: "i32" (0x7f) t 0x1d-0x1e (1)
     |                                               |                |              rt2{}: 0x1e-0x1f (1)
0x010|                                          00   |              . |                n: 0 (valid) 0x1e-0x1f (1)
     |                                               |                |                x[0:0]: 0x1f-0x1f (0)
     |                                               |                |            [5]{}: ft 0x1f-0x24 (5)
0x010|                                             60|               `|              tag: 0x60 (valid) 0x1f-0x20 (1)
     |                                               |                |              rt1{}: 0x20-0x23 (3)
0x020|02                                             |.               |                n: 2 (valid) 0x20-0x21 (1)
     |                                               |                |                x[0:2]: 0x21-0x23 (2)
0x020|   7f                                          | .              |                  [0]: "i32" (0x7f) t 0x21-0x22 (1)
0x020|      7d                                       |  }             |                  [1]: "f32" (0x7d) t 0x22-0x23 (1)
     |                                               |                |              rt2{}: 0x23-0x24 (1)
0x020|         00                                    |   .            |                n: 0 (valid) 0x23-0x24 (1)
     |                                               |                |                x[0:0]: 0x24-0x24 (0)
     |                                               |                |            [6]{}: ft 0x24-0x29 (5)
0x020|            60                                 |    `           |              tag: 0x60 (valid) 0x24-0x25 (1)
     |                                               |                |              rt1{}: 0x25-0x28 (3)
0x020|               02                              |     .          |                n: 2 (valid) 0x25-0x26 (1)
     |                                               |                |                x[0:2]: 0x26-0x28 (2)
0x020|                  7c                           |      |         |                  [0]: "f64" (0x7c) t 0x26-0x27 (1)
0x020|                     7c                        |       |        |                  [1]: "f64" (0x7c) t 0x27-0x28 (1)
     |                                               |                |              rt2{}: 0x28-0x29 (1)
0x020|                        00                     |        .       |                n: 0 (valid) 0x28-0x29 (1)
     |                                               |                |                x[0:0]: 0x29-0x29 (0)
     |                                               |                |            [7]{}: ft 0x29-0x2e (5)
0x020|                           60                  |         `      |              tag: 0x60 (valid) 0x29-0x2a (1)
     |                                               |                |              rt1{}: 0x2a-0x2c (2)
0x020|                              01               |          .     |                n: 1 (valid) 0x2a-0x2b (1)
     |                                               |                |                x[0:1]: 0x2b-0x2c (1)
0x020|                                 7e            |           ~    |                  [0]: "i64" (0x7e) t 0x2b-0x2c (1)
     |                                               |                |              rt2{}: 0x2c-0x2e (2)
0x020|                                    01         |            .   |                n: 1 (valid) 0x2c-0x2d (1)
     |                                               |                |                x[0:1]: 0x2d-0x2e (1)
0x020|                                       7e      |             ~  |                  [0]: "i64" (0x7e) t 0x2d-0x2e (1)
     |                                               |                |    [1]{}: section 0x2e-0x18a (348)
0x020|                                          02   |              . |      id: "import_section" (2) 0x2e-0x2f (1)
0x020|                                             d9|               .|      size: 345 (valid) 0x2f-0x31 (2)
0x030|02                                             |.               |
     |                                               |                |      content{}: 0x31-0x18a (345)
     |                                               |                |        im{}: 0x31-0x18a (345)
0x030|   10                                          | .              |          n: 16 (valid) 0x31-0x32 (1)
     |                                               |                |          x[0:16]: 0x32-0x18a (344)
     |                                               |                |            [0]{}: im 0x32-0x47 (21)
     |                                               |                |              mod{}: 0x32-0x3b (9)
0x030|      08                                       |  .             |                n: 8 (valid) 0x32-0x33 (1)
0x030|         73 70 65 63 74 65 73 74               |   spectest     |                b: "spectest" 0x33-0x3b (8)
     |                                               |                |              nm{}: 0x3b-0x45 (10)
0x030|                                 09            |           .    |                n: 9 (valid) 0x3b-0x3c (1)
0x030|                                    70 72 69 6e|            prin|                b: "print_i32" 0x3c-0x45 (9)
0x040|74 5f 69 33 32                                 |t_i32           |
     |                                               |                |              d{}: 0x45-0x47 (2)
0x040|               00                              |     .          |                tag: "func" (0x0) 0x45-0x46 (1)
0x040|                  00                           |      .         |                x: 0 (valid) 0x46-0x47 (1)
     |                                               |                |            [1]{}: im 0x47-0x5c (21)
     |                                               |                |              mod{}: 0x47-0x50 (9)
0x040|                     08                        |       .        |                n: 8 (valid) 0x47-0x48 (1)
0x040|                        73 70 65 63 74 65 73 74|        spectest|                b: "spectest" 0x48-0x50 (8)
     |                                               |                |              nm{}: 0x50-0x5a (10)
0x050|09                                             |.               |                n: 9 (valid) 0x50-0x51 (1)
0x050|   70 72 69 6e 74 5f 69 33 32                  | print_i32      |                b: "print_i32" 0x51-0x5a (9)
     |                                               |                |              d{}: 0x5a-0x5c (2)
0x050|                              00               |          .     |                tag: "func" (0x0) 0x5a-0x5b (1)
0x050|                                 00            |           .    |                x: 0 (valid) 0x5b-0x5c (1)
     |                                               |                |            [2]{}: im 0x5c-0x71 (21)
     |                                               |                |              mod{}: 0x5c-0x65 (9)
0x050|                                    08         |            .   |                n: 8 (valid) 0x5c-0x5d (1)
0x050|                                       73 70 65|             spe|                b: "spectest" 0x5d-0x65 (8)
0x060|63 74 65 73 74                                 |ctest           |
     |                                               |                |              nm{}: 0x65-0x6f (10)
0x060|               09                              |     .          |                n: 9 (valid) 0x65-0x66 (1)
0x060|                  70 72 69 6e 74 5f 66 33 32   |      print_f32 |                b: "print_f32" 0x66-0x6f (9)
     |                                               |                |              d{}: 0x6f-0x71 (2)
0x060|                                             00|               .|                tag: "func" (0x0) 0x6f-0x70 (1)
0x070|02                                             |.               |                x: 2 (valid) 0x70-0x71 (1)
     |                                               |                |            [3]{}: im 0x71-0x86 (21)
     |                                               |                |              mod{}: 0x71-0x7a (9)
0x070|   08                                          | .              |                n: 8 (valid) 0x71-0x72 (1)
0x070|      73 70 65 63 74 65 73 74                  |  spectest      |                b: "spectest" 0x72-0x7a (8)
     |                                               |                |              nm{}: 0x7a-0x84 (10)
0x070|                              09               |          .     |                n: 9 (valid) 0x7a-0x7b (1)
0x070|                                 70 72 69 6e 74|           print|                b: "print_f64" 0x7b-0x84 (9)
0x080|5f 66 36 34                                    |_f64            |
     |                                               |                |              d{}: 0x84-0x86 (2)
0x080|            00                                 |    .           |                tag: "func" (0x0) 0x84-0x85 (1)
0x080|               03                              |     .          |                x: 3 (valid) 0x85-0x86 (1)
     |                                               |                |            [4]{}: im 0x86-0x9f (25)
     |                                               |                |              mod{}: 0x86-0x8f (9)
0x080|                  08                           |      .         |                n: 8 (valid) 0x86-0x87 (1)
0x080|                     73 70 65 63 74 65 73 74   |       spectest |                b: "spectest" 0x87-0x8f (8)
     |                                               |                |              nm{}: 0x8f-0x9d (14)
0x080|                                             0d|               .|                n: 13 (valid) 0x8f-0x90 (1)
0x090|70 72 69 6e 74 5f 69 33 32 5f 66 33 32         |print_i32_f32   |                b: "print_i32_f32" 0x90-0x9d (13)
     |                                               |                |              d{}: 0x9d-0x9f (2)
0x090|                                       00      |             .  |                tag: "func" (0x0) 0x9d-0x9e (1)
0x090|                                          05   |              . |                x: 5 (valid) 0x9e-0x9f (1)
     |                                               |                |            [5]{}: im 0x9f-0xb8 (25)
     |                                               |                |              mod{}: 0x9f-0xa8 (9)
0x090|                                             08|               .|                n: 8 (valid) 0x9f-0xa0 (1)
0x0a0|73 70 65 63 74 65 73 74                        |spectest        |                b: "spectest" 0xa0-0xa8 (8)
     |                                               |                |              nm{}: 0xa8-0xb6 (14)
0x0a0|                        0d                     |        .       |                n: 13 (valid) 0xa8-0xa9 (1)
0x0a0|                           70 72 69 6e 74 5f 66|         print_f|                b: "print_f64_f64" 0xa9-0xb6 (13)
0x0b0|36 34 5f 66 36 34                              |64_f64          |
     |                                               |                |              d{}: 0xb6-0xb8 (2)
0x0b0|                  00                           |      .         |                tag: "func" (0x0) 0xb6-0xb7 (1)
0x0b0|                     06                        |       .        |                x: 6 (valid) 0xb7-0xb8 (1)
     |                                               |                |            [6]{}: im 0xb8-0xcd (21)
     |                                               |                |              mod{}: 0xb8-0xc1 (9)
0x0b0|                        08                     |        .       |                n: 8 (valid) 0xb8-0xb9 (1)
0x0b0|                           73 70 65 63 74 65 73|         spectes|                b: "spectest" 0xb9-0xc1 (8)
0x0c0|74                                             |t               |
     |                                               |                |              nm{}: 0xc1-0xcb (10)
0x0c0|   09                                          | .              |                n: 9 (valid) 0xc1-0xc2 (1)
0x0c0|      70 72 69 6e 74 5f 69 33 32               |  print_i32     |                b: "print_i32" 0xc2-0xcb (9)
     |                                               |                |              d{}: 0xcb-0xcd (2)
0x0c0|                                 00            |           .    |                tag: "func" (0x0) 0xcb-0xcc (1)
0x0c0|                                    00         |            .   |                x: 0 (valid) 0xcc-0xcd (1)
     |                                               |                |            [7]{}: im 0xcd-0xe2 (21)
     |                                               |                |              mod{}: 0xcd-0xd6 (9)
0x0c0|                                       08      |             .  |                n: 8 (valid) 0xcd-0xce (1)
0x0c0|                                          73 70|              sp|                b: "spectest" 0xce-0xd6 (8)
0x0d0|65 63 74 65 73 74                              |ectest          |
     |                                               |                |              nm{}: 0xd6-0xe0 (10)
0x0d0|                  09                           |      .         |                n: 9 (valid) 0xd6-0xd7 (1)
0x0d0|                     70 72 69 6e 74 5f 66 36 34|       print_f64|                b: "print_f64" 0xd7-0xe0 (9)
     |                                               |                |              d{}: 0xe0-0xe2 (2)
0x0e0|00                                             |.               |                tag: "func" (0x0) 0xe0-0xe1 (1)
0x0e0|   03                                          | .              |                x: 3 (valid) 0xe1-0xe2 (1)
     |                                               |                |            [8]{}: im 0xe2-0xf7 (21)
     |                                               |                |              mod{}: 0xe2-0xe7 (5)
0x0e0|      04                                       |  .             |                n: 4 (valid) 0xe2-0xe3 (1)
0x0e0|         74 65 73 74                           |   test         |                b: "test" 0xe3-0xe7 (4)
     |                                               |                |              nm{}: 0xe7-0xf5 (14)
0x0e0|                     0d                        |       .        |                n: 13 (valid) 0xe7-0xe8 (1)
0x0e0|                        66 75 6e 63 2d 69 36 34|        func-i64|                b: "func-i64->i64" 0xe8-0xf5 (13)
0x0f0|2d 3e 69 36 34                                 |->i64           |
     |                                               |                |              d{}: 0xf5-0xf7 (2)
0x0f0|               00                              |     .          |                tag: "func" (0x0) 0xf5-0xf6 (1)
0x0f0|                  07                           |      .         |                x: 7 (valid) 0xf6-0xf7 (1)
     |                                               |                |            [9]{}: im 0xf7-0x10c (21)
     |                                               |                |              mod{}: 0xf7-0x100 (9)
0x0f0|                     08                        |       .        |                n: 8 (valid) 0xf7-0xf8 (1)
0x0f0|                        73 70 65 63 74 65 73 74|        spectest|                b: "spectest" 0xf8-0x100 (8)
     |                                               |                |              nm{}: 0x100-0x10a (10)
0x100|09                                             |.               |                n: 9 (valid) 0x100-0x101 (1)
0x100|   70 72 69 6e 74 5f 69 33 32                  | print_i32      |                b: "print_i32" 0x101-0x10a (9)
     |                                               |                |              d{}: 0x10a-0x10c (2)
0x100|                              00               |          .     |                tag: "func" (0x0) 0x10a-0x10b (1)
0x100|                                 00            |           .    |                x: 0 (valid) 0x10b-0x10c (1)
     |                                               |                |            [10]{}: im 0x10c-0x121 (21)
     |                                               |                |              mod{}: 0x10c-0x115 (9)
0x100|                                    08         |            .   |                n: 8 (valid) 0x10c-0x10d (1)
0x100|                                       73 70 65|             spe|                b: "spectest" 0x10d-0x115 (8)
0x110|63 74 65 73 74                                 |ctest           |
     |                                               |                |              nm{}: 0x115-0x11f (10)
0x110|               09                              |     .          |                n: 9 (valid) 0x115-0x116 (1)
0x110|                  70 72 69 6e 74 5f 69 33 32   |      print_i32 |                b: "print_i32" 0x116-0x11f (9)
     |                                               |                |              d{}: 0x11f-0x121 (2)
0x110|                                             00|               .|                tag: "func" (0x0) 0x11f-0x120 (1)
0x120|00                                             |.               |                x: 0 (valid) 0x120-0x121 (1)
     |                                               |                |            [11]{}: im 0x121-0x136 (21)
     |                                               |                |              mod{}: 0x121-0x12a (9)
0x120|   08                                          | .              |                n: 8 (valid) 0x121-0x122 (1)
0x120|      73 70 65 63 74 65 73 74                  |  spectest      |                b: "spectest" 0x122-0x12a (8)
     |                                               |                |              nm{}: 0x12a-0x134 (10)
0x120|                              09               |          .     |                n: 9 (valid) 0x12a-0x12b (1)
0x120|                                 70 72 69 6e 74|           print|                b: "print_i32" 0x12b-0x134 (9)
0x130|5f 69 33 32                                    |_i32            |
     |                                               |                |              d{}: 0x134-0x136 (2)
0x130|            00                                 |    .           |                tag: "func" (0x0) 0x134-0x135 (1)
0x130|               00                              |     .          |                x: 0 (valid) 0x135-0x136 (1)
     |                                               |                |            [12]{}: im 0x136-0x14b (21)
     |                                               |                |              mod{}: 0x136-0x13f (9)
0x130|                  08                           |      .         |                n: 8 (valid) 0x136-0x137 (1)
0x130|                     73 70 65 63 74 65 73 74   |       spectest |                b: "spectest" 0x137-0x13f (8)
     |                                               |                |              nm{}: 0x13f-0x149 (10)
0x130|                                             09|               .|                n: 9 (valid) 0x13f-0x140 (1)
0x140|70 72 69 6e 74 5f 69 33 32                     |print_i32       |                b: "print_i32" 0x140-0x149 (9)
     |                                               |                |              d{}: 0x149-0x14b (2)
0x140|                           00                  |         .      |                tag: "func" (0x0) 0x149-0x14a (1)
0x140|                              00               |          .     |                x: 0 (valid) 0x14a-0x14b (1)
     |                                               |                |            [13]{}: im 0x14b-0x160 (21)
     |                                               |                |              mod{}: 0x14b-0x154 (9)
0x140|                                 08            |           .    |                n: 8 (valid) 0x14b-0x14c (1)
0x140|                                    73 70 65 63|            spec|                b: "spectest" 0x14c-0x154 (8)
0x150|74 65 73 74                                    |test            |
     |                                               |                |              nm{}: 0x154-0x15e (10)
0x150|            09                                 |    .           |                n: 9 (valid) 0x154-0x155 (1)
0x150|               70 72 69 6e 74 5f 69 33 32      |     print_i32  |                b: "print_i32" 0x155-0x15e (9)
     |                                               |                |              d{}: 0x15e-0x160 (2)
0x150|                                          00   |              . |                tag: "func" (0x0) 0x15e-0x15f (1)
0x150|                                             00|               .|                x: 0 (valid) 0x15f-0x160 (1)
     |                                               |                |            [14]{}: im 0x160-0x175 (21)
     |                                               |                |              mod{}: 0x160-0x169 (9)
0x160|08                                             |.               |                n: 8 (valid) 0x160-0x161 (1)
0x160|   73 70 65 63 74 65 73 74                     | spectest       |                b: "spectest" 0x161-0x169 (8)
     |                                               |                |              nm{}: 0x169-0x173 (10)
0x160|                           09                  |         .      |                n: 9 (valid) 0x169-0x16a (1)
0x160|                              70 72 69 6e 74 5f|          print_|                b: "print_i32" 0x16a-0x173 (9)
0x170|69 33 32                                       |i32             |
     |                                               |                |              d{}: 0x173-0x175 (2)
0x170|         00                                    |   .            |                tag: "func" (0x0) 0x173-0x174 (1)
0x170|            04                                 |    .           |                x: 4 (valid) 0x174-0x175 (1)
     |                                               |                |            [15]{}: im 0x175-0x18a (21)
     |                                               |                |              mod{}: 0x175-0x17e (9)
0x170|               08                              |     .          |                n: 8 (valid) 0x175-0x176 (1)
0x170|                  73 70 65 63 74 65 73 74      |      spectest  |                b: "spectest" 0x176-0x17e (8)
     |                                               |                |              nm{}: 0x17e-0x188 (10)
0x170|                                          09   |              . |                n: 9 (valid) 0x17e-0x17f (1)
0x170|                                             70|               p|                b: "print_i32" 0x17f-0x188 (9)
0x180|72 69 6e 74 5f 69 33 32                        |rint_i32        |
     |                                               |                |              d{}: 0x188-0x18a (2)
0x180|                        00                     |        .       |                tag: "func" (0x0) 0x188-0x189 (1)
0x180|                           04                  |         .      |                x: 4 (valid) 0x189-0x18a (1)
     |                                               |                |    [2]{}: section 0x18a-0x18f (5)
0x180|                              03               |          .     |      id: "function_section" (3) 0x18a-0x18b (1)
0x180|                                 03            |           .    |      size: 3 (valid) 0x18b-0x18c (1)
     |                                               |                |      content{}: 0x18c-0x18f (3)
     |                                               |                |        x{}: 0x18c-0x18f (3)
0x180|                                    02         |            .   |          n: 2 (valid) 0x18c-0x18d (1)
     |                                               |                |          x[0:2]: 0x18d-0x18f (2)
0x180|                                       00      |             .  |            [0]: 0 x (valid) 0x18d-0x18e (1)
0x180|                                          01   |              . |            [1]: 1 x (valid) 0x18e-0x18f (1)
     |                                               |                |    [3]{}: section 0x18f-0x196 (7)
0x180|                                             04|               .|      id: "table_section" (4) 0x18f-0x190 (1)
0x190|05                                             |.               |      size: 5 (valid) 0x190-0x191 (1)
     |                                               |                |      content{}: 0x191-0x196 (5)
     |                                               |                |        tab{}: 0x191-0x196 (5)
0x190|   01                                          | .              |          n: 1 (valid) 0x191-0x192 (1)
     |                                               |                |          x[0:1]: 0x192-0x196 (4)
     |                                               |                |            [0]{}: tab 0x192-0x196 (4)
0x190|      70                                       |  p             |              et: "funcref" (112) 0x192-0x193 (1)
     |                                               |                |              lim{}: 0x193-0x196 (3)
0x190|         01                                    |   .            |                tag: 0x1 0x193-0x194 (1)
0x190|            02                                 |    .           |                n: 2 (valid) 0x194-0x195 (1)
0x190|               02                              |     .          |                m: 2 (valid) 0x195-0x196 (1)
     |                                               |                |    [4]{}: section 0x196-0x1cb (53)
0x190|                  07                           |      .         |      id: "export_section" (7) 0x196-0x197 (1)
0x190|                     33                        |       3        |      size: 51 (valid) 0x197-0x198 (1)
     |                                               |                |      content{}: 0x198-0x1cb (51)
     |                                               |                |        ex{}: 0x198-0x1cb (51)
0x190|                        08                     |        .       |          n: 8 (valid) 0x198-0x199 (1)
     |                                               |                |          x[0:8]: 0x199-0x1cb (50)
     |                                               |                |            [0]{}: ex 0x199-0x19e (5)
     |                                               |                |              nm{}: 0x199-0x19c (3)
0x190|                           02                  |         .      |                n: 2 (valid) 0x199-0x19a (1)
0x190|                              70 31            |          p1    |                b: "p1" 0x19a-0x19c (2)
     |                                               |                |              d{}: 0x19c-0x19e (2)
0x190|                                    00         |            .   |                tag: "funcidx" (0x0) 0x19c-0x19d (1)
0x190|                                       09      |             .  |                x: 9 (valid) 0x19d-0x19e (1)
     |                                               |                |            [1]{}: ex 0x19e-0x1a3 (5)
     |                                               |                |              nm{}: 0x19e-0x1a1 (3)
0x190|                                          02   |              . |                n: 2 (valid) 0x19e-0x19f (1)
0x190|                                             70|               p|                b: "p2" 0x19f-0x1a1 (2)
0x1a0|32                                             |2               |
     |                                               |                |              d{}: 0x1a1-0x1a3 (2)
0x1a0|   00                                          | .              |                tag: "funcidx" (0x0) 0x1a1-0x1a2 (1)
0x1a0|      0a                                       |  .             |                x: 10 (valid) 0x1a2-0x1a3 (1)
     |                                               |                |            [2]{}: ex 0x1a3-0x1a8 (5)
     |                                               |                |              nm{}: 0x1a3-0x1a6 (3)
0x1a0|         02                                    |   .            |                n: 2 (valid) 0x1a3-0x1a4 (1)
0x1a0|            70 33                              |    p3          |                b: "p3" 0x1a4-0x1a6 (2)
     |                                               |                |              d{}: 0x1a6-0x1a8 (2)
0x1a0|                  00                           |      .         |                tag: "funcidx" (0x0) 0x1a6-0x1a7 (1)
0x1a0|                     0b                        |       .        |                x: 11 (valid) 0x1a7-0x1a8 (1)
     |                                               |                |            [3]{}: ex 0x1a8-0x1ad (5)
     |                                               |                |              nm{}: 0x1a8-0x1ab (3)
0x1a0|                        02                     |        .       |                n: 2 (valid) 0x1a8-0x1a9 (1)
0x1a0|                           70 34               |         p4     |                b: "p4" 0x1a9-0x1ab (2)
     |                                               |                |              d{}: 0x1ab-0x1ad (2)
0x1a0|                                 00            |           .    |                tag: "funcidx" (0x0) 0x1ab-0x1ac (1)
0x1a0|                                    0b         |            .   |                x: 11 (valid) 0x1ac-0x1ad (1)
     |                                               |                |            [4]{}: ex 0x1ad-0x1b2 (5)
     |                                               |                |              nm{}: 0x1ad-0x1b0 (3)
0x1a0|                                       02      |             .  |                n: 2 (valid) 0x1ad-0x1ae (1)
0x1a0|                                          70 35|              p5|                b: "p5" 0x1ae-0x1b0 (2)
     |                                               |                |              d{}: 0x1b0-0x1b2 (2)
0x1b0|00                                             |.               |                tag: "funcidx" (0x0) 0x1b0-0x1b1 (1)
0x1b0|   0c                                          | .              |                x: 12 (valid) 0x1b1-0x1b2 (1)
     |                                               |                |            [5]{}: ex 0x1b2-0x1b7 (5)
     |                                               |                |              nm{}: 0x1b2-0x1b5 (3)
0x1b0|      02                                       |  .             |                n: 2 (valid) 0x1b2-0x1b3 (1)
0x1b0|         70 36                                 |   p6           |                b: "p6" 0x1b3-0x1b5 (2)
     |                                               |                |              d{}: 0x1b5-0x1b7 (2)
0x1b0|               00                              |     .          |                tag: "funcidx" (0x0) 0x1b5-0x1b6 (1)
0x1b0|                  0d                           |      .         |                x: 13 (valid) 0x1b6-0x1b7 (1)
     |                                               |                |            [6]{}: ex 0x1b7-0x1c1 (10)
     |                                               |                |              nm{}: 0x1b7-0x1bf (8)
0x1b0|                     07                        |       .        |                n: 7 (valid) 0x1b7-0x1b8 (1)
0x1b0|                        70 72 69 6e 74 33 32   |        print32 |                b: "print32" 0x1b8-0x1bf (7)
     |                                               |                |              d{}: 0x1bf-0x1c1 (2)
0x1b0|                                             00|               .|                tag: "funcidx" (0x0) 0x1bf-0x1c0 (1)
0x1c0|10                                             |.               |                x: 16 (valid) 0x1c0-0x1c1 (1)
     |                                               |                |            [7]{}: ex 0x1c1-0x1cb (10)
     |                                               |                |              nm{}: 0x1c1-0x1c9 (8)
0x1c0|   07                                          | .              |                n: 7 (valid) 0x1c1-0x1c2 (1)
0x1c0|      70 72 69 6e 74 36 34                     |  print64       |                b: "print64" 0x1c2-0x1c9 (7)
     |                                               |                |              d{}: 0x1c9-0x1cb (2)
0x1c0|                           00                  |         .      |                tag: "funcidx" (0x0) 0x1c9-0x1ca (1)
0x1c0|                              11               |          .     |                x: 17 (valid) 0x1ca-0x1cb (1)
     |                                               |                |    [5]{}: section 0x1cb-0x1d5 (10)
0x1c0|                                 09            |           .    |      id: "element_section" (9) 0x1cb-0x1cc (1)
0x1c0|                                    08         |            .   |      size: 8 (valid) 0x1cc-0x1cd (1)
     |                                               |                |      element{}: 0x1cd-0x1d5 (8)
     |                                               |                |        seg{}: 0x1cd-0x1d5 (8)
0x1c0|                                       01      |             .  |          n: 1 (valid) 0x1cd-0x1ce (1)
     |                                               |                |          x[0:1]: 0x1ce-0x1d5 (7)
     |                                               |                |            [0]{}: seg 0x1ce-0x1d5 (7)
0x1c0|                                          00   |              . |              tag: 0 (valid) 0x1ce-0x1cf (1)
     |                                               |                |              e[0:2]: 0x1cf-0x1d2 (3)
     |                                               |                |                [0]{}: in 0x1cf-0x1d1 (2)
0x1c0|                                             41|               A|                  opcode: "i32.const" (0x41) 0x1cf-0x1d0 (1)
0x1d0|00                                             |.               |                  n: 0 (valid) 0x1d0-0x1d1 (1)
     |                                               |                |                [1]{}: in 0x1d1-0x1d2 (1)
0x1d0|   0b                                          | .              |                  opcode: "end" (0xb) 0x1d1-0x1d2 (1)
     |                                               |                |              y{}: 0x1d2-0x1d5 (3)
0x1d0|      02                                       |  .             |                n: 2 (valid) 0x1d2-0x1d3 (1)
     |                                               |                |                x[0:2]: 0x1d3-0x1d5 (2)
0x1d0|         01                                    |   .            |                  [0]: 1 y (valid) 0x1d3-0x1d4 (1)
0x1d0|            03                                 |    .           |                  [1]: 3 y (valid) 0x1d4-0x1d5 (1)
     |                                               |                |    [6]{}: section 0x1d5-0x237 (98)
0x1d0|               0a                              |     .          |      id: "code_section" (10) 0x1d5-0x1d6 (1)
0x1d0|                  60                           |      `         |      size: 96 (valid) 0x1d6-0x1d7 (1)
     |                                               |                |      content{}: 0x1d7-0x237 (96)
     |                                               |                |        code{}: 0x1d7-0x237 (96)
0x1d0|                     02                        |       .        |          n: 2 (valid) 0x1d7-0x1d8 (1)
     |                                               |                |          x[0:2]: 0x1d8-0x237 (95)
     |                                               |                |            [0]{}: code 0x1d8-0x205 (45)
0x1d0|                        2c                     |        ,       |              size: 44 (valid) 0x1d8-0x1d9 (1)
     |                                               |                |              code{}: 0x1d9-0x205 (44)
     |                                               |                |                t{}: 0x1d9-0x1dc (3)
0x1d0|                           01                  |         .      |                  n: 1 (valid) 0x1d9-0x1da (1)
     |                                               |                |                  x[0:1]: 0x1da-0x1dc (2)
     |                                               |                |                    [0]{}: t 0x1da-0x1dc (2)
0x1d0|                              01               |          .     |                      n: 1 (valid) 0x1da-0x1db (1)
0x1d0|                                 7d            |           }    |                      t: "f32" (0x7d) 0x1db-0x1dc (1)
     |                                               |                |                e[0:20]: 0x1dc-0x205 (41)
     |                                               |                |                  [0]{}: in 0x1dc-0x1de (2)
0x1d0|                                    20         |                |                    opcode: "local.get" (0x20) 0x1dc-0x1dd (1)
0x1d0|                                       00      |             .  |                    x: 0 (valid) 0x1dd-0x1de (1)
     |                                               |                |                  [1]{}: in 0x1de-0x1df (1)
0x1d0|                                          b2   |              . |                    opcode: "f32.convert_i32_s" (0xb2) 0x1de-0x1df (1)
     |                                               |                |                  [2]{}: in 0x1df-0x1e1 (2)
0x1d0|                                             21|               !|                    opcode: "local.set" (0x21) 0x1df-0x1e0 (1)
0x1e0|01                                             |.               |                    x: 1 (valid) 0x1e0-0x1e1 (1)
     |                                               |                |                  [3]{}: in 0x1e1-0x1e3 (2)
0x1e0|   20                                          |                |                    opcode: "local.get" (0x20) 0x1e1-0x1e2 (1)
0x1e0|      00                                       |  .             |                    x: 0 (valid) 0x1e2-0x1e3 (1)
     |                                               |                |                  [4]{}: in 0x1e3-0x1e5 (2)
0x1e0|         10                                    |   .            |                    opcode: "call" (0x10) 0x1e3-0x1e4 (1)
0x1e0|            00                                 |    .           |                    x: 0 (valid) 0x1e4-0x1e5 (1)
     |                                               |                |                  [5]{}: in 0x1e5-0x1e7 (2)
0x1e0|               20                              |                |                    opcode: "local.get" (0x20) 0x1e5-0x1e6 (1)
0x1e0|                  00                           |      .         |                    x: 0 (valid) 0x1e6-0x1e7 (1)
     |                                               |                |                  [6]{}: in 0x1e7-0x1e9 (2)
0x1e0|                     41                        |       A        |                    opcode: "i32.const" (0x41) 0x1e7-0x1e8 (1)
0x1e0|                        01                     |        .       |                    n: 1 (valid) 0x1e8-0x1e9 (1)
     |                                               |                |                  [7]{}: in 0x1e9-0x1ea (1)
0x1e0|                           6a                  |         j      |                    opcode: "i32.add" (0x6a) 0x1e9-0x1ea (1)
     |                                               |                |                  [8]{}: in 0x1ea-0x1ef (5)
0x1e0|                              43               |          C     |                    opcode: "f32.const" (0x43) 0x1ea-0x1eb (1)
0x1e0|                                 00 00 28 42   |           ..(B |                    z: 42 0x1eb-0x1ef (4)
     |                                               |                |                  [9]{}: in 0x1ef-0x1f1 (2)
0x1e0|                                             10|               .|                    opcode: "call" (0x10) 0x1ef-0x1f0 (1)
0x1f0|04                                             |.               |                    x: 4 (valid) 0x1f0-0x1f1 (1)
     |                                               |                |                  [10]{}: in 0x1f1-0x1f3 (2)
0x1f0|   20                                          |                |                    opcode: "local.get" (0x20) 0x1f1-0x1f2 (1)
0x1f0|      00                                       |  .             |                    x: 0 (valid) 0x1f2-0x1f3 (1)
     |                                               |                |                  [11]{}: in 0x1f3-0x1f5 (2)
0x1f0|         10                                    |   .            |                    opcode: "call" (0x10) 0x1f3-0x1f4 (1)
0x1f0|            01                                 |    .           |                    x: 1 (valid) 0x1f4-0x1f5 (1)
     |                                               |                |                  [12]{}: in 0x1f5-0x1f7 (2)
0x1f0|               20                              |                |                    opcode: "local.get" (0x20) 0x1f5-0x1f6 (1)
0x1f0|                  00                           |      .         |                    x: 0 (valid) 0x1f6-0x1f7 (1)
     |                                               |                |                  [13]{}: in 0x1f7-0x1f9 (2)
0x1f0|                     10                        |       .        |                    opcode: "call" (0x10) 0x1f7-0x1f8 (1)
0x1f0|                        06                     |        .       |                    x: 6 (valid) 0x1f8-0x1f9 (1)
     |                                               |                |                  [14]{}: in 0x1f9-0x1fb (2)
0x1f0|                           20                  |                |                    opcode: "local.get" (0x20) 0x1f9-0x1fa (1)
0x1f0|                              01               |          .     |                    x: 1 (valid) 0x1fa-0x1fb (1)
     |                                               |                |                  [15]{}: in 0x1fb-0x1fd (2)
0x1f0|                                 10            |           .    |                    opcode: "call" (0x10) 0x1fb-0x1fc (1)
0x1f0|                                    02         |            .   |                    x: 2 (valid) 0x1fc-0x1fd (1)
     |                                               |                |                  [16]{}: in 0x1fd-0x1ff (2)
0x1f0|                                       20      |                |                    opcode: "local.get" (0x20) 0x1fd-0x1fe (1)
0x1f0|                                          00   |              . |                    x: 0 (valid) 0x1fe-0x1ff (1)
     |                                               |                |                  [17]{}: in 0x1ff-0x201 (2)
0x1f0|                                             41|               A|                    opcode: "i32.const" (0x41) 0x1ff-0x200 (1)
0x200|00                                             |.               |                    n: 0 (valid) 0x200-0x201 (1)
     |                                               |                |                  [18]{}: in 0x201-0x204 (3)
0x200|   11                                          | .              |                    opcode: "call_indirect" (0x11) 0x201-0x202 (1)
0x200|      00                                       |  .             |                    y: 0 (valid) 0x202-0x203 (1)
0x200|         00                                    |   .            |                    x: 0 (valid) 0x203-0x204 (1)
     |                                               |                |                  [19]{}: in 0x204-0x205 (1)
0x200|            0b                                 |    .           |                    opcode: "end" (0xb) 0x204-0x205 (1)
     |                                               |                |            [1]{}: code 0x205-0x237 (50)
0x200|               31                              |     1          |              size: 49 (valid) 0x205-0x206 (1)
     |                                               |                |              code{}: 0x206-0x237 (49)
     |                                               |                |                t{}: 0x206-0x209 (3)
0x200|                  01                           |      .         |                  n: 1 (valid) 0x206-0x207 (1)
     |                                               |                |                  x[0:1]: 0x207-0x209 (2)
     |                                               |                |                    [0]{}: t 0x207-0x209 (2)
0x200|                     01                        |       .        |                      n: 1 (valid) 0x207-0x208 (1)
0x200|                        7c                     |        |       |                      t: "f64" (0x7c) 0x208-0x209 (1)
     |                                               |                |                e[0:17]: 0x209-0x237 (46)
     |                                               |                |                  [0]{}: in 0x209-0x20b (2)
0x200|                           20                  |                |                    opcode: "local.get" (0x20) 0x209-0x20a (1)
0x200|                              00               |          .     |                    x: 0 (valid) 0x20a-0x20b (1)
     |                                               |                |                  [1]{}: in 0x20b-0x20d (2)
0x200|                                 10            |           .    |                    opcode: "call" (0x10) 0x20b-0x20c (1)
0x200|                                    08         |            .   |                    x: 8 (valid) 0x20c-0x20d (1)
     |                                               |                |                  [2]{}: in 0x20d-0x20e (1)
0x200|                                       b9      |             .  |                    opcode: "f64.convert_i64_s" (0xb9) 0x20d-0x20e (1)
     |                                               |                |                  [3]{}: in 0x20e-0x210 (2)
0x200|                                          21   |              ! |                    opcode: "local.set" (0x21) 0x20e-0x20f (1)
0x200|                                             01|               .|                    x: 1 (valid) 0x20f-0x210 (1)
     |                                               |                |                  [4]{}: in 0x210-0x212 (2)
0x210|20                                             |                |                    opcode: "local.get" (0x20) 0x210-0x211 (1)
0x210|   01                                          | .              |                    x: 1 (valid) 0x211-0x212 (1)
     |                                               |                |                  [5]{}: in 0x212-0x21b (9)
0x210|      44                                       |  D             |                    opcode: "f64.const" (0x44) 0x212-0x213 (1)
0x210|         00 00 00 00 00 00 f0 3f               |   .......?     |                    z: 1 0x213-0x21b (8)
     |                                               |                |                  [6]{}: in 0x21b-0x21c (1)
0x210|                                 a0            |           .    |                    opcode: "f64.add" (0xa0) 0x21b-0x21c (1)
     |                                               |                |                  [7]{}: in 0x21c-0x225 (9)
0x210|                                    44         |            D   |                    opcode: "f64.const" (0x44) 0x21c-0x21d (1)
0x210|                                       00 00 00|             ...|                    z: 53 0x21d-0x225 (8)
0x220|00 00 80 4a 40                                 |...J@           |
     |                                               |                |                  [8]{}: in 0x225-0x227 (2)
0x220|               10                              |     .          |                    opcode: "call" (0x10) 0x225-0x226 (1)
0x220|                  05                           |      .         |                    x: 5 (valid) 0x226-0x227 (1)
     |                                               |                |                  [9]{}: in 0x227-0x229 (2)
0x220|                     20                        |                |                    opcode: "local.get" (0x20) 0x227-0x228 (1)
0x220|                        01                     |        .       |                    x: 1 (valid) 0x228-0x229 (1)
     |                                               |                |                  [10]{}: in 0x229-0x22b (2)
0x220|                           10                  |         .      |                    opcode: "call" (0x10) 0x229-0x22a (1)
0x220|                              03               |          .     |                    x: 3 (valid) 0x22a-0x22b (1)
     |                                               |                |                  [11]{}: in 0x22b-0x22d (2)
0x220|                                 20            |                |                    opcode: "local.get" (0x20) 0x22b-0x22c (1)
0x220|                                    01         |            .   |                    x: 1 (valid) 0x22c-0x22d (1)
     |                                               |                |                  [12]{}: in 0x22d-0x22f (2)
0x220|                                       10      |             .  |                    opcode: "call" (0x10) 0x22d-0x22e (1)
0x220|                                          07   |              . |                    x: 7 (valid) 0x22e-0x22f (1)
     |                                               |                |                  [13]{}: in 0x22f-0x231 (2)
0x220|                                             20|                |                    opcode: "local.get" (0x20) 0x22f-0x230 (1)
0x230|01                                             |.               |                    x: 1 (valid) 0x230-0x231 (1)
     |                                               |                |                  [14]{}: in 0x231-0x233 (2)
0x230|   41                                          | A              |                    opcode: "i32.const" (0x41) 0x231-0x232 (1)
0x230|      01                                       |  .             |                    n: 1 (valid) 0x232-0x233 (1)
     |                                               |                |                  [15]{}: in 0x233-0x236 (3)
0x230|         11                                    |   .            |                    opcode: "call_indirect" (0x11) 0x233-0x234 (1)
0x230|            03                                 |    .           |                    y: 3 (valid) 0x234-0x235 (1)
0x230|               00                              |     .          |                    x: 0 (valid) 0x235-0x236 (1)
     |                                               |                |                  [16]{}: in 0x236-0x237 (1)
0x230|                  0b|                          |      .|        |                    opcode: "end" (0xb) 0x236-0x237 (1)
