$ fq -d wasm dv imports-21.wasm
    |00 01 02 03 04 05 06 07 08 09 0a 0b 0c 0d 0e 0f|0123456789abcdef|.{}: imports-21.wasm (wasm) 0x0-0x1f.7 (32)
0x00|00 61 73 6d                                    |.asm            |  magic: raw bits (valid) 0x0-0x3.7 (4)
0x00|            01 00 00 00                        |    ....        |  version: 1 0x4-0x7.7 (4)
    |                                               |                |  sections[0:1]: 0x8-0x1f.7 (24)
    |                                               |                |    [0]{}: section 0x8-0x1f.7 (24)
0x00|                        02                     |        .       |      id: "import_section" (2) 0x8-0x8.7 (1)
0x00|                           16                  |         .      |      size: 22 (valid) 0x9-0x9.7 (1)
    |                                               |                |      content{}: 0xa-0x1f.7 (22)
    |                                               |                |        im{}: 0xa-0x1f.7 (22)
0x00|                              01               |          .     |          n: 1 (valid) 0xa-0xa.7 (1)
    |                                               |                |          x[0:1]: 0xb-0x1f.7 (21)
    |                                               |                |            [0]{}: im 0xb-0x1f.7 (21)
    |                                               |                |              mod{}: 0xb-0xf.7 (5)
0x00|                                 04            |           .    |                n: 4 (valid) 0xb-0xb.7 (1)
0x00|                                    74 65 73 74|            test|                b: "test" 0xc-0xf.7 (4)
    |                                               |                |              nm{}: 0x10-0x1b.7 (12)
0x10|0b                                             |.               |                n: 11 (valid) 0x10-0x10.7 (1)
0x10|   74 61 62 6c 65 2d 31 30 2d 32 30            | table-10-20    |                b: "table-10-20" 0x11-0x1b.7 (11)
    |                                               |                |              d{}: 0x1c-0x1f.7 (4)
0x10|                                    01         |            .   |                tag: "table" (0x1) 0x1c-0x1c.7 (1)
    |                                               |                |                tt{}: 0x1d-0x1f.7 (3)
0x10|                                       70      |             p  |                  et: "funcref" (112) 0x1d-0x1d.7 (1)
    |                                               |                |                  lim{}: 0x1e-0x1f.7 (2)
0x10|                                          00   |              . |                    tag: 0x0 0x1e-0x1e.7 (1)
0x10|                                             0a|               .|                    n: 10 (valid) 0x1f-0x1f.7 (1)
