$ fq -d wasm dv imports-5.wasm
    |00 01 02 03 04 05 06 07 08 09 0a 0b 0c 0d 0e 0f|0123456789abcdef|.{}: imports-5.wasm (wasm) 0x0-0x22 (34)
0x00|00 61 73 6d                                    |.asm            |  magic: raw bits (valid) 0x0-0x4 (4)
0x00|            01 00 00 00                        |    ....        |  version: 1 0x4-0x8 (4)
    |                                               |                |  sections[0:2]: 0x8-0x22 (26)
    |                                               |                |    [0]{}: section 0x8-0xf (7)
0x00|                        01                     |        .       |      id: "type_section" (1) 0x8-0x9 (1)
0x00|                           05                  |         .      |      size: 5 (valid) 0x9-0xa (1)
    |                                               |                |      content{}: 0xa-0xf (5)
    |                                               |                |        ft{}: 0xa-0xf (5)
0x00|                              01               |          .     |          n: 1 (valid) 0xa-0xb (1)
    |                                               |                |          x[0:1]: 0xb-0xf (4)
    |                                               |                |            [0]{}: ft 0xb-0xf (4)
0x00|                                 60            |           `    |              tag: 0x60 (valid) 0xb-0xc (1)
    |                                               |                |              rt1{}: 0xc-0xe (2)
0x00|                                    01         |            .   |                n: 1 (valid) 0xc-0xd (1)
    |                                               |                |                x[0:1]: 0xd-0xe (1)
0x00|                                       7f      |             .  |                  [0]: "i32" (0x7f) t 0xd-0xe (1)
    |                                               |                |              rt2{}: 0xe-0xf (1)
0x00|                                          00   |              . |                n: 0 (valid) 0xe-0xf (1)
    |                                               |                |                x[0:0]: 0xf-0xf (0)
    |                                               |                |    [1]{}: section 0xf-0x22 (19)
0x00|                                             02|               .|      id: "import_section" (2) 0xf-0x10 (1)
0x10|11                                             |.               |      size: 17 (valid) 0x10-0x11 (1)
    |                                               |                |      content{}: 0x11-0x22 (17)
    |                                               |                |        im{}: 0x11-0x22 (17)
0x10|   01                                          | .              |          n: 1 (valid) 0x11-0x12 (1)
    |                                               |                |          x[0:1]: 0x12-0x22 (16)
    |                                               |                |            [0]{}: im 0x12-0x22 (16)
    |                                               |                |              mod{}: 0x12-0x17 (5)
0x10|      04                                       |  .             |                n: 4 (valid) 0x12-0x13 (1)
0x10|         74 65 73 74                           |   test         |                b: "test" 0x13-0x17 (4)
    |                                               |                |              nm{}: 0x17-0x20 (9)
0x10|                     08                        |       .        |                n: 8 (valid) 0x17-0x18 (1)
0x10|                        66 75 6e 63 2d 69 33 32|        func-i32|                b: "func-i32" 0x18-0x20 (8)
    |                                               |                |              d{}: 0x20-0x22 (2)
0x20|00                                             |.               |                tag: "func" (0x0) 0x20-0x21 (1)
0x20|   00|                                         | .|             |                x: 0 (valid) 0x21-0x22 (1)
