$ fq -d wasm dv imports-14.wasm
    |00 01 02 03 04 05 06 07 08 09 0a 0b 0c 0d 0e 0f|0123456789abcdef|.{}: imports-14.wasm (wasm) 0x0-0x21.7 (34)
0x00|00 61 73 6d                                    |.asm            |  magic: raw bits (valid) 0x0-0x3.7 (4)
0x00|            01 00 00 00                        |    ....        |  version: 1 0x4-0x7.7 (4)
    |                                               |                |  sections[0:1]: 0x8-0x21.7 (26)
    |                                               |                |    [0]{}: section 0x8-0x21.7 (26)
0x00|                        02                     |        .       |      id: "import section" (2) 0x8-0x8.7 (1)
0x00|                           18                  |         .      |      size: 24 0x9-0x9.7 (1)
    |                                               |                |      content{}: 0xa-0x21.7 (24)
    |                                               |                |        im{}: 0xa-0x21.7 (24)
0x00|                              01               |          .     |          n: 1 0xa-0xa.7 (1)
    |                                               |                |          x[0:1]: 0xb-0x21.7 (23)
    |                                               |                |            [0]{}: im 0xb-0x21.7 (23)
    |                                               |                |              mod{}: 0xb-0xf.7 (5)
0x00|                                 04            |           .    |                n: 4 0xb-0xb.7 (1)
0x00|                                    74 65 73 74|            test|                b: "test" 0xc-0xf.7 (4)
    |                                               |                |              nm{}: 0x10-0x1e.7 (15)
0x10|0e                                             |.               |                n: 14 0x10-0x10.7 (1)
0x10|   67 6c 6f 62 61 6c 2d 6d 75 74 2d 69 36 34   | global-mut-i64 |                b: "global-mut-i64" 0x11-0x1e.7 (14)
    |                                               |                |              d{}: 0x1f-0x21.7 (3)
0x10|                                             03|               .|                tag: "global" (0x3) 0x1f-0x1f.7 (1)
    |                                               |                |                gt{}: 0x20-0x21.7 (2)
0x20|7e                                             |~               |                  t: "i64" (0x7e) 0x20-0x20.7 (1)
0x20|   01|                                         | .|             |                  m: "var" (1) 0x21-0x21.7 (1)
