$ fq -d wasm dv imports-0.wasm
     |00 01 02 03 04 05 06 07 08 09 0a 0b 0c 0d 0e 0f|0123456789abcdef|.{}: imports-0.wasm (wasm) 0x0-0x129.7 (298)
0x000|00 61 73 6d                                    |.asm            |  magic: raw bits (valid) 0x0-0x3.7 (4)
0x000|            01 00 00 00                        |    ....        |  version: 1 0x4-0x7.7 (4)
     |                                               |                |  sections[0:7]: 0x8-0x129.7 (290)
     |                                               |                |    [0]{}: section 0x8-0x27.7 (32)
0x000|                        01                     |        .       |      id: "type section" (1) 0x8-0x8.7 (1)
0x000|                           1e                  |         .      |      size: 30 0x9-0x9.7 (1)
     |                                               |                |      content{}: 0xa-0x27.7 (30)
     |                                               |                |        ft{}: 0xa-0x27.7 (30)
0x000|                              07               |          .     |          n: 7 0xa-0xa.7 (1)
     |                                               |                |          x[0:7]: 0xb-0x27.7 (29)
     |                                               |                |            [0]{}: ft 0xb-0xd.7 (3)
0x000|                                 60            |           `    |              tag: 0x60 (valid) 0xb-0xb.7 (1)
     |                                               |                |              rt1{}: 0xc-0xc.7 (1)
0x000|                                    00         |            .   |                n: 0 0xc-0xc.7 (1)
     |                                               |                |                x[0:0]: 0xd-NA (0)
     |                                               |                |              rt2{}: 0xd-0xd.7 (1)
0x000|                                       00      |             .  |                n: 0 0xd-0xd.7 (1)
     |                                               |                |                x[0:0]: 0xe-NA (0)
     |                                               |                |            [1]{}: ft 0xe-0x11.7 (4)
0x000|                                          60   |              ` |              tag: 0x60 (valid) 0xe-0xe.7 (1)
     |                                               |                |              rt1{}: 0xf-0x10.7 (2)
0x000|                                             01|               .|                n: 1 0xf-0xf.7 (1)
     |                                               |                |                x[0:1]: 0x10-0x10.7 (1)
0x010|7f                                             |.               |                  [0]: "i32" (0x7f) t 0x10-0x10.7 (1)
     |                                               |                |              rt2{}: 0x11-0x11.7 (1)
0x010|   00                                          | .              |                n: 0 0x11-0x11.7 (1)
     |                                               |                |                x[0:0]: 0x12-NA (0)
     |                                               |                |            [2]{}: ft 0x12-0x15.7 (4)
0x010|      60                                       |  `             |              tag: 0x60 (valid) 0x12-0x12.7 (1)
     |                                               |                |              rt1{}: 0x13-0x14.7 (2)
0x010|         01                                    |   .            |                n: 1 0x13-0x13.7 (1)
     |                                               |                |                x[0:1]: 0x14-0x14.7 (1)
0x010|            7d                                 |    }           |                  [0]: "f32" (0x7d) t 0x14-0x14.7 (1)
     |                                               |                |              rt2{}: 0x15-0x15.7 (1)
0x010|               00                              |     .          |                n: 0 0x15-0x15.7 (1)
     |                                               |                |                x[0:0]: 0x16-NA (0)
     |                                               |                |            [3]{}: ft 0x16-0x19.7 (4)
0x010|                  60                           |      `         |              tag: 0x60 (valid) 0x16-0x16.7 (1)
     |                                               |                |              rt1{}: 0x17-0x17.7 (1)
0x010|                     00                        |       .        |                n: 0 0x17-0x17.7 (1)
     |                                               |                |                x[0:0]: 0x18-NA (0)
     |                                               |                |              rt2{}: 0x18-0x19.7 (2)
0x010|                        01                     |        .       |                n: 1 0x18-0x18.7 (1)
     |                                               |                |                x[0:1]: 0x19-0x19.7 (1)
0x010|                           7f                  |         .      |                  [0]: "i32" (0x7f) t 0x19-0x19.7 (1)
     |                                               |                |            [4]{}: ft 0x1a-0x1d.7 (4)
0x010|                              60               |          `     |              tag: 0x60 (valid) 0x1a-0x1a.7 (1)
     |                                               |                |              rt1{}: 0x1b-0x1b.7 (1)
0x010|                                 00            |           .    |                n: 0 0x1b-0x1b.7 (1)
     |                                               |                |                x[0:0]: 0x1c-NA (0)
     |                                               |                |              rt2{}: 0x1c-0x1d.7 (2)
0x010|                                    01         |            .   |                n: 1 0x1c-0x1c.7 (1)
     |                                               |                |                x[0:1]: 0x1d-0x1d.7 (1)
0x010|                                       7d      |             }  |                  [0]: "f32" (0x7d) t 0x1d-0x1d.7 (1)
     |                                               |                |            [5]{}: ft 0x1e-0x22.7 (5)
0x010|                                          60   |              ` |              tag: 0x60 (valid) 0x1e-0x1e.7 (1)
     |                                               |                |              rt1{}: 0x1f-0x20.7 (2)
0x010|                                             01|               .|                n: 1 0x1f-0x1f.7 (1)
     |                                               |                |                x[0:1]: 0x20-0x20.7 (1)
0x020|7f                                             |.               |                  [0]: "i32" (0x7f) t 0x20-0x20.7 (1)
     |                                               |                |              rt2{}: 0x21-0x22.7 (2)
0x020|   01                                          | .              |                n: 1 0x21-0x21.7 (1)
     |                                               |                |                x[0:1]: 0x22-0x22.7 (1)
0x020|      7f                                       |  .             |                  [0]: "i32" (0x7f) t 0x22-0x22.7 (1)
     |                                               |                |            [6]{}: ft 0x23-0x27.7 (5)
0x020|         60                                    |   `            |              tag: 0x60 (valid) 0x23-0x23.7 (1)
     |                                               |                |              rt1{}: 0x24-0x25.7 (2)
0x020|            01                                 |    .           |                n: 1 0x24-0x24.7 (1)
     |                                               |                |                x[0:1]: 0x25-0x25.7 (1)
0x020|               7e                              |     ~          |                  [0]: "i64" (0x7e) t 0x25-0x25.7 (1)
     |                                               |                |              rt2{}: 0x26-0x27.7 (2)
0x020|                  01                           |      .         |                n: 1 0x26-0x26.7 (1)
     |                                               |                |                x[0:1]: 0x27-0x27.7 (1)
0x020|                     7e                        |       ~        |                  [0]: "i64" (0x7e) t 0x27-0x27.7 (1)
     |                                               |                |    [1]{}: section 0x28-0x31.7 (10)
0x020|                        03                     |        .       |      id: "function section" (3) 0x28-0x28.7 (1)
0x020|                           08                  |         .      |      size: 8 0x29-0x29.7 (1)
     |                                               |                |      content{}: 0x2a-0x31.7 (8)
     |                                               |                |        x{}: 0x2a-0x31.7 (8)
0x020|                              07               |          .     |          n: 7 0x2a-0x2a.7 (1)
     |                                               |                |          x[0:7]: 0x2b-0x31.7 (7)
0x020|                                 00            |           .    |            [0]: 0 x 0x2b-0x2b.7 (1)
0x020|                                    01         |            .   |            [1]: 1 x 0x2c-0x2c.7 (1)
0x020|                                       02      |             .  |            [2]: 2 x 0x2d-0x2d.7 (1)
0x020|                                          03   |              . |            [3]: 3 x 0x2e-0x2e.7 (1)
0x020|                                             04|               .|            [4]: 4 x 0x2f-0x2f.7 (1)
0x030|05                                             |.               |            [5]: 5 x 0x30-0x30.7 (1)
0x030|   06                                          | .              |            [6]: 6 x 0x31-0x31.7 (1)
     |                                               |                |    [2]{}: section 0x32-0x3b.7 (10)
0x030|      04                                       |  .             |      id: "table section" (4) 0x32-0x32.7 (1)
0x030|         08                                    |   .            |      size: 8 0x33-0x33.7 (1)
     |                                               |                |      content{}: 0x34-0x3b.7 (8)
     |                                               |                |        tab{}: 0x34-0x3b.7 (8)
0x030|            02                                 |    .           |          n: 2 0x34-0x34.7 (1)
     |                                               |                |          x[0:2]: 0x35-0x3b.7 (7)
     |                                               |                |            [0]{}: tab 0x35-0x37.7 (3)
0x030|               70                              |     p          |              et: "funcref" (112) 0x35-0x35.7 (1)
     |                                               |                |              lim{}: 0x36-0x37.7 (2)
0x030|                  00                           |      .         |                tag: 0x0 0x36-0x36.7 (1)
0x030|                     0a                        |       .        |                n: 10 0x37-0x37.7 (1)
     |                                               |                |            [1]{}: tab 0x38-0x3b.7 (4)
0x030|                        70                     |        p       |              et: "funcref" (112) 0x38-0x38.7 (1)
     |                                               |                |              lim{}: 0x39-0x3b.7 (3)
0x030|                           01                  |         .      |                tag: 0x1 0x39-0x39.7 (1)
0x030|                              0a               |          .     |                n: 10 0x3a-0x3a.7 (1)
0x030|                                 14            |           .    |                m: 20 0x3b-0x3b.7 (1)
     |                                               |                |    [3]{}: section 0x3c-0x40.7 (5)
0x030|                                    05         |            .   |      id: "memory section" (5) 0x3c-0x3c.7 (1)
0x030|                                       03      |             .  |      size: 3 0x3d-0x3d.7 (1)
     |                                               |                |      content{}: 0x3e-0x40.7 (3)
     |                                               |                |        mem{}: 0x3e-0x40.7 (3)
0x030|                                          01   |              . |          n: 1 0x3e-0x3e.7 (1)
     |                                               |                |          x[0:1]: 0x3f-0x40.7 (2)
     |                                               |                |            [0]{}: mem 0x3f-0x40.7 (2)
     |                                               |                |              lim{}: 0x3f-0x40.7 (2)
0x030|                                             00|               .|                tag: 0x0 0x3f-0x3f.7 (1)
0x040|02                                             |.               |                n: 2 0x40-0x40.7 (1)
     |                                               |                |    [4]{}: section 0x41-0x56.7 (22)
0x040|   06                                          | .              |      id: "global section" (6) 0x41-0x41.7 (1)
0x040|      14                                       |  .             |      size: 20 0x42-0x42.7 (1)
     |                                               |                |      content{}: 0x43-0x56.7 (20)
     |                                               |                |        glob{}: 0x43-0x56.7 (20)
0x040|         03                                    |   .            |          n: 3 0x43-0x43.7 (1)
     |                                               |                |          x[0:3]: 0x44-0x56.7 (19)
     |                                               |                |            [0]{}: glob 0x44-0x48.7 (5)
     |                                               |                |              gt{}: 0x44-0x45.7 (2)
0x040|            7f                                 |    .           |                t: "i32" (0x7f) 0x44-0x44.7 (1)
0x040|               00                              |     .          |                m: "const" (0) 0x45-0x45.7 (1)
     |                                               |                |              e[0:2]: 0x46-0x48.7 (3)
     |                                               |                |                [0]{}: in 0x46-0x47.7 (2)
0x040|                  41                           |      A         |                  i32.const: 0x41 (valid) 0x46-0x46.7 (1)
0x040|                     37                        |       7        |                  n: 55 0x47-0x47.7 (1)
     |                                               |                |                [1]{}: in 0x48-0x48.7 (1)
0x040|                        0b                     |        .       |                  end: 0xb (valid) 0x48-0x48.7 (1)
     |                                               |                |            [1]{}: glob 0x49-0x50.7 (8)
     |                                               |                |              gt{}: 0x49-0x4a.7 (2)
0x040|                           7d                  |         }      |                t: "f32" (0x7d) 0x49-0x49.7 (1)
0x040|                              00               |          .     |                m: "const" (0) 0x4a-0x4a.7 (1)
     |                                               |                |              e[0:2]: 0x4b-0x50.7 (6)
     |                                               |                |                [0]{}: in 0x4b-0x4f.7 (5)
0x040|                                 43            |           C    |                  f32.const: 0x43 (valid) 0x4b-0x4b.7 (1)
0x040|                                    00 00 30 42|            ..0B|                  z: 44 0x4c-0x4f.7 (4)
     |                                               |                |                [1]{}: in 0x50-0x50.7 (1)
0x050|0b                                             |.               |                  end: 0xb (valid) 0x50-0x50.7 (1)
     |                                               |                |            [2]{}: glob 0x51-0x56.7 (6)
     |                                               |                |              gt{}: 0x51-0x52.7 (2)
0x050|   7e                                          | ~              |                t: "i64" (0x7e) 0x51-0x51.7 (1)
0x050|      01                                       |  .             |                m: "var" (1) 0x52-0x52.7 (1)
     |                                               |                |              e[0:2]: 0x53-0x56.7 (4)
     |                                               |                |                [0]{}: in 0x53-0x55.7 (3)
0x050|         42                                    |   B            |                  i64.const: 0x42 (valid) 0x53-0x53.7 (1)
0x050|            c2 00                              |    ..          |                  n: 66 0x54-0x55.7 (2)
     |                                               |                |                [1]{}: in 0x56-0x56.7 (1)
0x050|                  0b                           |      .         |                  end: 0xb (valid) 0x56-0x56.7 (1)
     |                                               |                |    [5]{}: section 0x57-0x106.7 (176)
0x050|                     07                        |       .        |      id: "export section" (7) 0x57-0x57.7 (1)
0x050|                        ad 01                  |        ..      |      size: 173 0x58-0x59.7 (2)
     |                                               |                |      content{}: 0x5a-0x106.7 (173)
     |                                               |                |        ex{}: 0x5a-0x106.7 (173)
0x050|                              0d               |          .     |          n: 13 0x5a-0x5a.7 (1)
     |                                               |                |          x[0:13]: 0x5b-0x106.7 (172)
     |                                               |                |            [0]{}: ex 0x5b-0x61.7 (7)
     |                                               |                |              nm{}: 0x5b-0x5f.7 (5)
0x050|                                 04            |           .    |                n: 4 0x5b-0x5b.7 (1)
0x050|                                    66 75 6e 63|            func|                b: "func" 0x5c-0x5f.7 (4)
     |                                               |                |              d{}: 0x60-0x61.7 (2)
0x060|00                                             |.               |                tag: "funcidx" (0x0) 0x60-0x60.7 (1)
0x060|   00                                          | .              |                x: 0 0x61-0x61.7 (1)
     |                                               |                |            [1]{}: ex 0x62-0x6c.7 (11)
     |                                               |                |              nm{}: 0x62-0x6a.7 (9)
0x060|      08                                       |  .             |                n: 8 0x62-0x62.7 (1)
0x060|         66 75 6e 63 2d 69 33 32               |   func-i32     |                b: "func-i32" 0x63-0x6a.7 (8)
     |                                               |                |              d{}: 0x6b-0x6c.7 (2)
0x060|                                 00            |           .    |                tag: "funcidx" (0x0) 0x6b-0x6b.7 (1)
0x060|                                    01         |            .   |                x: 1 0x6c-0x6c.7 (1)
     |                                               |                |            [2]{}: ex 0x6d-0x77.7 (11)
     |                                               |                |              nm{}: 0x6d-0x75.7 (9)
0x060|                                       08      |             .  |                n: 8 0x6d-0x6d.7 (1)
0x060|                                          66 75|              fu|                b: "func-f32" 0x6e-0x75.7 (8)
0x070|6e 63 2d 66 33 32                              |nc-f32          |
     |                                               |                |              d{}: 0x76-0x77.7 (2)
0x070|                  00                           |      .         |                tag: "funcidx" (0x0) 0x76-0x76.7 (1)
0x070|                     02                        |       .        |                x: 2 0x77-0x77.7 (1)
     |                                               |                |            [3]{}: ex 0x78-0x83.7 (12)
     |                                               |                |              nm{}: 0x78-0x81.7 (10)
0x070|                        09                     |        .       |                n: 9 0x78-0x78.7 (1)
0x070|                           66 75 6e 63 2d 3e 69|         func->i|                b: "func->i32" 0x79-0x81.7 (9)
0x080|33 32                                          |32              |
     |                                               |                |              d{}: 0x82-0x83.7 (2)
0x080|      00                                       |  .             |                tag: "funcidx" (0x0) 0x82-0x82.7 (1)
0x080|         03                                    |   .            |                x: 3 0x83-0x83.7 (1)
     |                                               |                |            [4]{}: ex 0x84-0x8f.7 (12)
     |                                               |                |              nm{}: 0x84-0x8d.7 (10)
0x080|            09                                 |    .           |                n: 9 0x84-0x84.7 (1)
0x080|               66 75 6e 63 2d 3e 66 33 32      |     func->f32  |                b: "func->f32" 0x85-0x8d.7 (9)
     |                                               |                |              d{}: 0x8e-0x8f.7 (2)
0x080|                                          00   |              . |                tag: "funcidx" (0x0) 0x8e-0x8e.7 (1)
0x080|                                             04|               .|                x: 4 0x8f-0x8f.7 (1)
     |                                               |                |            [5]{}: ex 0x90-0x9f.7 (16)
     |                                               |                |              nm{}: 0x90-0x9d.7 (14)
0x090|0d                                             |.               |                n: 13 0x90-0x90.7 (1)
0x090|   66 75 6e 63 2d 69 33 32 2d 3e 69 33 32      | func-i32->i32  |                b: "func-i32->i32" 0x91-0x9d.7 (13)
     |                                               |                |              d{}: 0x9e-0x9f.7 (2)
0x090|                                          00   |              . |                tag: "funcidx" (0x0) 0x9e-0x9e.7 (1)
0x090|                                             05|               .|                x: 5 0x9f-0x9f.7 (1)
     |                                               |                |            [6]{}: ex 0xa0-0xaf.7 (16)
     |                                               |                |              nm{}: 0xa0-0xad.7 (14)
0x0a0|0d                                             |.               |                n: 13 0xa0-0xa0.7 (1)
0x0a0|   66 75 6e 63 2d 69 36 34 2d 3e 69 36 34      | func-i64->i64  |                b: "func-i64->i64" 0xa1-0xad.7 (13)
     |                                               |                |              d{}: 0xae-0xaf.7 (2)
0x0a0|                                          00   |              . |                tag: "funcidx" (0x0) 0xae-0xae.7 (1)
0x0a0|                                             06|               .|                x: 6 0xaf-0xaf.7 (1)
     |                                               |                |            [7]{}: ex 0xb0-0xbc.7 (13)
     |                                               |                |              nm{}: 0xb0-0xba.7 (11)
0x0b0|0a                                             |.               |                n: 10 0xb0-0xb0.7 (1)
0x0b0|   67 6c 6f 62 61 6c 2d 69 33 32               | global-i32     |                b: "global-i32" 0xb1-0xba.7 (10)
     |                                               |                |              d{}: 0xbb-0xbc.7 (2)
0x0b0|                                 03            |           .    |                tag: "globalidx" (0x3) 0xbb-0xbb.7 (1)
0x0b0|                                    00         |            .   |                x: 0 0xbc-0xbc.7 (1)
     |                                               |                |            [8]{}: ex 0xbd-0xc9.7 (13)
     |                                               |                |              nm{}: 0xbd-0xc7.7 (11)
0x0b0|                                       0a      |             .  |                n: 10 0xbd-0xbd.7 (1)
0x0b0|                                          67 6c|              gl|                b: "global-f32" 0xbe-0xc7.7 (10)
0x0c0|6f 62 61 6c 2d 66 33 32                        |obal-f32        |
     |                                               |                |              d{}: 0xc8-0xc9.7 (2)
0x0c0|                        03                     |        .       |                tag: "globalidx" (0x3) 0xc8-0xc8.7 (1)
0x0c0|                           01                  |         .      |                x: 1 0xc9-0xc9.7 (1)
     |                                               |                |            [9]{}: ex 0xca-0xda.7 (17)
     |                                               |                |              nm{}: 0xca-0xd8.7 (15)
0x0c0|                              0e               |          .     |                n: 14 0xca-0xca.7 (1)
0x0c0|                                 67 6c 6f 62 61|           globa|                b: "global-mut-i64" 0xcb-0xd8.7 (14)
0x0d0|6c 2d 6d 75 74 2d 69 36 34                     |l-mut-i64       |
     |                                               |                |              d{}: 0xd9-0xda.7 (2)
0x0d0|                           03                  |         .      |                tag: "globalidx" (0x3) 0xd9-0xd9.7 (1)
0x0d0|                              02               |          .     |                x: 2 0xda-0xda.7 (1)
     |                                               |                |            [10]{}: ex 0xdb-0xe9.7 (15)
     |                                               |                |              nm{}: 0xdb-0xe7.7 (13)
0x0d0|                                 0c            |           .    |                n: 12 0xdb-0xdb.7 (1)
0x0d0|                                    74 61 62 6c|            tabl|                b: "table-10-inf" 0xdc-0xe7.7 (12)
0x0e0|65 2d 31 30 2d 69 6e 66                        |e-10-inf        |
     |                                               |                |              d{}: 0xe8-0xe9.7 (2)
0x0e0|                        01                     |        .       |                tag: "tableidx" (0x1) 0xe8-0xe8.7 (1)
0x0e0|                           00                  |         .      |                x: 0 0xe9-0xe9.7 (1)
     |                                               |                |            [11]{}: ex 0xea-0xf7.7 (14)
     |                                               |                |              nm{}: 0xea-0xf5.7 (12)
0x0e0|                              0b               |          .     |                n: 11 0xea-0xea.7 (1)
0x0e0|                                 74 61 62 6c 65|           table|                b: "table-10-20" 0xeb-0xf5.7 (11)
0x0f0|2d 31 30 2d 32 30                              |-10-20          |
     |                                               |                |              d{}: 0xf6-0xf7.7 (2)
0x0f0|                  01                           |      .         |                tag: "tableidx" (0x1) 0xf6-0xf6.7 (1)
0x0f0|                     01                        |       .        |                x: 1 0xf7-0xf7.7 (1)
     |                                               |                |            [12]{}: ex 0xf8-0x106.7 (15)
     |                                               |                |              nm{}: 0xf8-0x104.7 (13)
0x0f0|                        0c                     |        .       |                n: 12 0xf8-0xf8.7 (1)
0x0f0|                           6d 65 6d 6f 72 79 2d|         memory-|                b: "memory-2-inf" 0xf9-0x104.7 (12)
0x100|32 2d 69 6e 66                                 |2-inf           |
     |                                               |                |              d{}: 0x105-0x106.7 (2)
0x100|               02                              |     .          |                tag: "memidx" (0x2) 0x105-0x105.7 (1)
0x100|                  00                           |      .         |                x: 0 0x106-0x106.7 (1)
     |                                               |                |    [6]{}: section 0x107-0x129.7 (35)
0x100|                     0a                        |       .        |      id: "code section" (10) 0x107-0x107.7 (1)
0x100|                        21                     |        !       |      size: 33 0x108-0x108.7 (1)
     |                                               |                |      content{}: 0x109-0x129.7 (33)
     |                                               |                |        code{}: 0x109-0x129.7 (33)
0x100|                           07                  |         .      |          n: 7 0x109-0x109.7 (1)
     |                                               |                |          x[0:7]: 0x10a-0x129.7 (32)
     |                                               |                |            [0]{}: code 0x10a-0x10c.7 (3)
0x100|                              02               |          .     |              size: 2 0x10a-0x10a.7 (1)
     |                                               |                |              code{}: 0x10b-0x10c.7 (2)
     |                                               |                |                t{}: 0x10b-0x10b.7 (1)
0x100|                                 00            |           .    |                  n: 0 0x10b-0x10b.7 (1)
     |                                               |                |                  x[0:0]: 0x10c-NA (0)
     |                                               |                |                e[0:1]: 0x10c-0x10c.7 (1)
     |                                               |                |                  [0]{}: in 0x10c-0x10c.7 (1)
0x100|                                    0b         |            .   |                    end: 0xb (valid) 0x10c-0x10c.7 (1)
     |                                               |                |            [1]{}: code 0x10d-0x10f.7 (3)
0x100|                                       02      |             .  |              size: 2 0x10d-0x10d.7 (1)
     |                                               |                |              code{}: 0x10e-0x10f.7 (2)
     |                                               |                |                t{}: 0x10e-0x10e.7 (1)
0x100|                                          00   |              . |                  n: 0 0x10e-0x10e.7 (1)
     |                                               |                |                  x[0:0]: 0x10f-NA (0)
     |                                               |                |                e[0:1]: 0x10f-0x10f.7 (1)
     |                                               |                |                  [0]{}: in 0x10f-0x10f.7 (1)
0x100|                                             0b|               .|                    end: 0xb (valid) 0x10f-0x10f.7 (1)
     |                                               |                |            [2]{}: code 0x110-0x112.7 (3)
0x110|02                                             |.               |              size: 2 0x110-0x110.7 (1)
     |                                               |                |              code{}: 0x111-0x112.7 (2)
     |                                               |                |                t{}: 0x111-0x111.7 (1)
0x110|   00                                          | .              |                  n: 0 0x111-0x111.7 (1)
     |                                               |                |                  x[0:0]: 0x112-NA (0)
     |                                               |                |                e[0:1]: 0x112-0x112.7 (1)
     |                                               |                |                  [0]{}: in 0x112-0x112.7 (1)
0x110|      0b                                       |  .             |                    end: 0xb (valid) 0x112-0x112.7 (1)
     |                                               |                |            [3]{}: code 0x113-0x117.7 (5)
0x110|         04                                    |   .            |              size: 4 0x113-0x113.7 (1)
     |                                               |                |              code{}: 0x114-0x117.7 (4)
     |                                               |                |                t{}: 0x114-0x114.7 (1)
0x110|            00                                 |    .           |                  n: 0 0x114-0x114.7 (1)
     |                                               |                |                  x[0:0]: 0x115-NA (0)
     |                                               |                |                e[0:2]: 0x115-0x117.7 (3)
     |                                               |                |                  [0]{}: in 0x115-0x116.7 (2)
0x110|               41                              |     A          |                    i32.const: 0x41 (valid) 0x115-0x115.7 (1)
0x110|                  16                           |      .         |                    n: 22 0x116-0x116.7 (1)
     |                                               |                |                  [1]{}: in 0x117-0x117.7 (1)
0x110|                     0b                        |       .        |                    end: 0xb (valid) 0x117-0x117.7 (1)
     |                                               |                |            [4]{}: code 0x118-0x11f.7 (8)
0x110|                        07                     |        .       |              size: 7 0x118-0x118.7 (1)
     |                                               |                |              code{}: 0x119-0x11f.7 (7)
     |                                               |                |                t{}: 0x119-0x119.7 (1)
0x110|                           00                  |         .      |                  n: 0 0x119-0x119.7 (1)
     |                                               |                |                  x[0:0]: 0x11a-NA (0)
     |                                               |                |                e[0:2]: 0x11a-0x11f.7 (6)
     |                                               |                |                  [0]{}: in 0x11a-0x11e.7 (5)
0x110|                              43               |          C     |                    f32.const: 0x43 (valid) 0x11a-0x11a.7 (1)
0x110|                                 00 00 30 41   |           ..0A |                    z: 11 0x11b-0x11e.7 (4)
     |                                               |                |                  [1]{}: in 0x11f-0x11f.7 (1)
0x110|                                             0b|               .|                    end: 0xb (valid) 0x11f-0x11f.7 (1)
     |                                               |                |            [5]{}: code 0x120-0x124.7 (5)
0x120|04                                             |.               |              size: 4 0x120-0x120.7 (1)
     |                                               |                |              code{}: 0x121-0x124.7 (4)
     |                                               |                |                t{}: 0x121-0x121.7 (1)
0x120|   00                                          | .              |                  n: 0 0x121-0x121.7 (1)
     |                                               |                |                  x[0:0]: 0x122-NA (0)
     |                                               |                |                e[0:2]: 0x122-0x124.7 (3)
     |                                               |                |                  [0]{}: in 0x122-0x123.7 (2)
0x120|      20                                       |                |                    local.get: 0x20 (valid) 0x122-0x122.7 (1)
0x120|         00                                    |   .            |                    x: 0 0x123-0x123.7 (1)
     |                                               |                |                  [1]{}: in 0x124-0x124.7 (1)
0x120|            0b                                 |    .           |                    end: 0xb (valid) 0x124-0x124.7 (1)
     |                                               |                |            [6]{}: code 0x125-0x129.7 (5)
0x120|               04                              |     .          |              size: 4 0x125-0x125.7 (1)
     |                                               |                |              code{}: 0x126-0x129.7 (4)
     |                                               |                |                t{}: 0x126-0x126.7 (1)
0x120|                  00                           |      .         |                  n: 0 0x126-0x126.7 (1)
     |                                               |                |                  x[0:0]: 0x127-NA (0)
     |                                               |                |                e[0:2]: 0x127-0x129.7 (3)
     |                                               |                |                  [0]{}: in 0x127-0x128.7 (2)
0x120|                     20                        |                |                    local.get: 0x20 (valid) 0x127-0x127.7 (1)
0x120|                        00                     |        .       |                    x: 0 0x128-0x128.7 (1)
     |                                               |                |                  [1]{}: in 0x129-0x129.7 (1)
0x120|                           0b|                 |         .|     |                    end: 0xb (valid) 0x129-0x129.7 (1)
