$ fq -d wasm dv imports-2.wasm
    |00 01 02 03 04 05 06 07 08 09 0a 0b 0c 0d 0e 0f|0123456789abcdef|.{}: imports-2.wasm (wasm) 0x0-0x44 (68)
0x00|00 61 73 6d                                    |.asm            |  magic: raw bits (valid) 0x0-0x4 (4)
0x00|            01 00 00 00                        |    ....        |  version: 1 0x4-0x8 (4)
    |                                               |                |  sections[0:5]: 0x8-0x44 (60)
    |                                               |                |    [0]{}: section 0x8-0xf (7)
0x00|                        01                     |        .       |      id: "type_section" (1) 0x8-0x9 (1)
0x00|                           05                  |         .      |      size: 5 (valid) 0x9-0xa (1)
    |                                               |                |      content{}: 0xa-0xf (5)
    |                                               |                |        ft{}: 0xa-0xf (5)
0x00|                              01               |          .     |          n: 1 (valid) 0xa-0xb (1)
    |                                               |                |          x[0:1]: 0xb-0xf (4)
    |                                               |                |            [0]{}: ft 0xb-0xf (4)
0x00|                                 60            |           `    |              tag: 0x60 (valid) 0xb-0xc (1)
    |                                               |                |              rt1{}: 0xc-0xe (2)
0x00|                                    01         |            .   |                n: 1 (valid) 0xc-0xd (1)
    |                                               |                |                x[0:1]: 0xd-0xe (1)
0x00|                                       7f      |             .  |                  [0]: "i32" (0x7f) t 0xd-0xe (1)
    |                                               |                |              rt2{}: 0xe-0xf (1)
0x00|                                          00   |              . |                n: 0 (valid) 0xe-0xf (1)
    |                                               |                |                x[0:0]: 0xf-0xf (0)
    |                                               |                |    [1]{}: section 0xf-0x27 (24)
0x00|                                             02|               .|      id: "import_section" (2) 0xf-0x10 (1)
0x10|16                                             |.               |      size: 22 (valid) 0x10-0x11 (1)
    |                                               |                |      content{}: 0x11-0x27 (22)
    |                                               |                |        im{}: 0x11-0x27 (22)
0x10|   01                                          | .              |          n: 1 (valid) 0x11-0x12 (1)
    |                                               |                |          x[0:1]: 0x12-0x27 (21)
    |                                               |                |            [0]{}: im 0x12-0x27 (21)
    |                                               |                |              mod{}: 0x12-0x1b (9)
0x10|      08                                       |  .             |                n: 8 (valid) 0x12-0x13 (1)
0x10|         73 70 65 63 74 65 73 74               |   spectest     |                b: "spectest" 0x13-0x1b (8)
    |                                               |                |              nm{}: 0x1b-0x25 (10)
0x10|                                 09            |           .    |                n: 9 (valid) 0x1b-0x1c (1)
0x10|                                    70 72 69 6e|            prin|                b: "print_i32" 0x1c-0x25 (9)
0x20|74 5f 69 33 32                                 |t_i32           |
    |                                               |                |              d{}: 0x25-0x27 (2)
0x20|               00                              |     .          |                tag: "func" (0x0) 0x25-0x26 (1)
0x20|                  00                           |      .         |                x: 0 (valid) 0x26-0x27 (1)
    |                                               |                |    [2]{}: section 0x27-0x2b (4)
0x20|                     03                        |       .        |      id: "function_section" (3) 0x27-0x28 (1)
0x20|                        02                     |        .       |      size: 2 (valid) 0x28-0x29 (1)
    |                                               |                |      content{}: 0x29-0x2b (2)
    |                                               |                |        x{}: 0x29-0x2b (2)
0x20|                           01                  |         .      |          n: 1 (valid) 0x29-0x2a (1)
    |                                               |                |          x[0:1]: 0x2a-0x2b (1)
0x20|                              00               |          .     |            [0]: 0 x (valid) 0x2a-0x2b (1)
    |                                               |                |    [3]{}: section 0x2b-0x3a (15)
0x20|                                 07            |           .    |      id: "export_section" (7) 0x2b-0x2c (1)
0x20|                                    0d         |            .   |      size: 13 (valid) 0x2c-0x2d (1)
    |                                               |                |      content{}: 0x2d-0x3a (13)
    |                                               |                |        ex{}: 0x2d-0x3a (13)
0x20|                                       01      |             .  |          n: 1 (valid) 0x2d-0x2e (1)
    |                                               |                |          x[0:1]: 0x2e-0x3a (12)
    |                                               |                |            [0]{}: ex 0x2e-0x3a (12)
    |                                               |                |              nm{}: 0x2e-0x38 (10)
0x20|                                          09   |              . |                n: 9 (valid) 0x2e-0x2f (1)
0x20|                                             70|               p|                b: "print_i32" 0x2f-0x38 (9)
0x30|72 69 6e 74 5f 69 33 32                        |rint_i32        |
    |                                               |                |              d{}: 0x38-0x3a (2)
0x30|                        00                     |        .       |                tag: "funcidx" (0x0) 0x38-0x39 (1)
0x30|                           01                  |         .      |                x: 1 (valid) 0x39-0x3a (1)
    |                                               |                |    [4]{}: section 0x3a-0x44 (10)
0x30|                              0a               |          .     |      id: "code_section" (10) 0x3a-0x3b (1)
0x30|                                 08            |           .    |      size: 8 (valid) 0x3b-0x3c (1)
    |                                               |                |      content{}: 0x3c-0x44 (8)
    |                                               |                |        code{}: 0x3c-0x44 (8)
0x30|                                    01         |            .   |          n: 1 (valid) 0x3c-0x3d (1)
    |                                               |                |          x[0:1]: 0x3d-0x44 (7)
    |                                               |                |            [0]{}: code 0x3d-0x44 (7)
0x30|                                       06      |             .  |              size: 6 (valid) 0x3d-0x3e (1)
    |                                               |                |              code{}: 0x3e-0x44 (6)
    |                                               |                |                t{}: 0x3e-0x3f (1)
0x30|                                          00   |              . |                  n: 0 (valid) 0x3e-0x3f (1)
    |                                               |                |                  x[0:0]: 0x3f-0x3f (0)
    |                                               |                |                e[0:3]: 0x3f-0x44 (5)
    |                                               |                |                  [0]{}: in 0x3f-0x41 (2)
0x30|                                             20|                |                    opcode: "local.get" (0x20) 0x3f-0x40 (1)
0x40|00                                             |.               |                    x: 0 (valid) 0x40-0x41 (1)
    |                                               |                |                  [1]{}: in 0x41-0x43 (2)
0x40|   10                                          | .              |                    opcode: "call" (0x10) 0x41-0x42 (1)
0x40|      00                                       |  .             |                    x: 0 (valid) 0x42-0x43 (1)
    |                                               |                |                  [2]{}: in 0x43-0x44 (1)
0x40|         0b|                                   |   .|           |                    opcode: "end" (0xb) 0x43-0x44 (1)
