$ fq -d wasm dv imports-0.wasm
     |00 01 02 03 04 05 06 07 08 09 0a 0b 0c 0d 0e 0f|0123456789abcdef|.{}: imports-0.wasm (wasm) 0x0-0x12a (298)
0x000|00 61 73 6d                                    |.asm            |  magic: raw bits (valid) 0x0-0x4 (4)
0x000|            01 00 00 00                        |    ....        |  version: 1 0x4-0x8 (4)
     |                                               |                |  sections[0:7]: 0x8-0x12a (290)
     |                                               |                |    [0]{}: section 0x8-0x28 (32)
0x000|                        01                     |        .       |      id: "type_section" (1) 0x8-0x9 (1)
0x000|                           1e                  |         .      |      size: 30 (valid) 0x9-0xa (1)
     |                                               |                |      content{}: 0xa-0x28 (30)
     |                                               |                |        ft{}: 0xa-0x28 (30)
0x000|                              07               |          .     |          n: 7 (valid) 0xa-0xb (1)
     |                                               |                |          x[0:7]: 0xb-0x28 (29)
     |                                               |                |            [0]{}: ft 0xb-0xe (3)
0x000|                                 60            |           `    |              tag: 0x60 (valid) 0xb-0xc (1)
     |                                               |                |              rt1{}: 0xc-0xd (1)
0x000|                                    00         |            .   |                n: 0 (valid) 0xc-0xd (1)
     |                                               |                |                x[0:0]: 0xd-0xd (0)
     |                                               |                |              rt2{}: 0xd-0xe (1)
0x000|                                       00      |             .  |                n: 0 (valid) 0xd-0xe (1)
     |                                               |                |                x[0:0]: 0xe-0xe (0)
     |                                               |                |            [1]{}: ft 0xe-0x12 (4)
0x000|                                          60   |              ` |              tag: 0x60 (valid) 0xe-0xf (1)
     |                                               |                |              rt1{}: 0xf-0x11 (2)
0x000|                                             01|               .|                n: 1 (valid) 0xf-0x10 (1)
     |                                               |                |                x[0:1]: 0x10-0x11 (1)
0x010|7f                                             |.               |                  [0]: "i32" (0x7f) t 0x10-0x11 (1)
     |                                               |                |              rt2{}: 0x11-0x12 (1)
0x010|   00                                          | .              |                n: 0 (valid) 0x11-0x12 (1)
     |                                               |                |                x[0:0]: 0x12-0x12 (0)
     |                                               |                |            [2]{}: ft 0x12-0x16 (4)
0x010|      60                                       |  `             |              tag: 0x60 (valid) 0x12-0x13 (1)
     |                                               |                |              rt1{}: 0x13-0x15 (2)
0x010|         01                                    |   .            |                n: 1 (valid) 0x13-0x14 (1)
     |                                               |                |                x[0:1]: 0x14-0x15 (1)
0x010|            7d                                 |    }           |                  [0]: "f32" (0x7d) t 0x14-0x15 (1)
     |                                               |                |              rt2{}: 0x15-0x16 (1)
0x010|               00                              |     .          |                n: 0 (valid) 0x15-0x16 (1)
     |                                               |                |                x[0:0]: 0x16-0x16 (0)
     |                                               |                |            [3]{}: ft 0x16-0x1a (4)
0x010|                  60                           |      `         |              tag: 0x60 (valid) 0x16-0x17 (1)
     |                                               |                |              rt1{}: 0x17-0x18 (1)
0x010|                     00                        |       .        |                n: 0 (valid) 0x17-0x18 (1)
     |                                               |                |                x[0:0]: 0x18-0x18 (0)
     |                                               |                |              rt2{}: 0x18-0x1a (2)
0x010|                        01                     |        .       |                n: 1 (valid) 0x18-0x19 (1)
     |                                               |                |                x[0:1]: 0x19-0x1a (1)
0x010|                           7f                  |         .      |                  [0]: "i32" (0x7f) t 0x19-0x1a (1)
     |                                               |                |            [4]{}: ft 0x1a-0x1e (4)
0x010|                              60               |          `     |              tag: 0x60 (valid) 0x1a-0x1b (1)
     |                                               |                |              rt1{}: 0x1b-0x1c (1)
0x010|                                 00            |           .    |                n: 0 (valid) 0x1b-0x1c (1)
     |                                               |                |                x[0:0]: 0x1c-0x1c (0)
     |                                               |                |              rt2{}: 0x1c-0x1e (2)
0x010|                                    01         |            .   |                n: 1 (valid) 0x1c-0x1d (1)
     |                                               |                |                x[0:1]: 0x1d-0x1e (1)
0x010|                                       7d      |             }  |                  [0]: "f32" (0x7d) t 0x1d-0x1e (1)
     |                                               |                |            [5]{}: ft 0x1e-0x23 (5)
0x010|                                          60   |              ` |              tag: 0x60 (valid) 0x1e-0x1f (1)
     |                                               |                |              rt1{}: 0x1f-0x21 (2)
0x010|                                             01|               .|                n: 1 (valid) 0x1f-0x20 (1)
     |                                               |                |                x[0:1]: 0x20-0x21 (1)
0x020|7f                                             |.               |                  [0]: "i32" (0x7f) t 0x20-0x21 (1)
     |                                               |                |              rt2{}: 0x21-0x23 (2)
0x020|   01                                          | .              |                n: 1 (valid) 0x21-0x22 (1)
     |                                               |                |                x[0:1]: 0x22-0x23 (1)
0x020|      7f                                       |  .             |                  [0]: "i32" (0x7f) t 0x22-0x23 (1)
     |                                               |                |            [6]{}: ft 0x23-0x28 (5)
0x020|         60                                    |   `            |              tag: 0x60 (valid) 0x23-0x24 (1)
     |                                               |                |              rt1{}: 0x24-0x26 (2)
0x020|            01                                 |    .           |                n: 1 (valid) 0x24-0x25 (1)
     |                                               |                |                x[0:1]: 0x25-0x26 (1)
0x020|               7e                              |     ~          |                  [0]: "i64" (0x7e) t 0x25-0x26 (1)
     |                                               |                |              rt2{}: 0x26-0x28 (2)
0x020|                  01                           |      .         |                n: 1 (valid) 0x26-0x27 (1)
     |                                               |                |                x[0:1]: 0x27-0x28 (1)
0x020|                     7e                        |       ~        |                  [0]: "i64" (0x7e) t 0x27-0x28 (1)
     |                                               |                |    [1]{}: section 0x28-0x32 (10)
0x020|                        03                     |        .       |      id: "function_section" (3) 0x28-0x29 (1)
0x020|                           08                  |         .      |      size: 8 (valid) 0x29-0x2a (1)
     |                                               |                |      content{}: 0x2a-0x32 (8)
     |                                               |                |        x{}: 0x2a-0x32 (8)
0x020|                              07               |          .     |          n: 7 (valid) 0x2a-0x2b (1)
     |                                               |                |          x[0:7]: 0x2b-0x32 (7)
0x020|                                 00            |           .    |            [0]: 0 x (valid) 0x2b-0x2c (1)
0x020|                                    01         |            .   |            [1]: 1 x (valid) 0x2c-0x2d (1)
0x020|                                       02      |             .  |            [2]: 2 x (valid) 0x2d-0x2e (1)
0x020|                                          03   |              . |            [3]: 3 x (valid) 0x2e-0x2f (1)
0x020|                                             04|               .|            [4]: 4 x (valid) 0x2f-0x30 (1)
0x030|05                                             |.               |            [5]: 5 x (valid) 0x30-0x31 (1)
0x030|   06                                          | .              |            [6]: 6 x (valid) 0x31-0x32 (1)
     |                                               |                |    [2]{}: section 0x32-0x3c (10)
0x030|      04                                       |  .             |      id: "table_section" (4) 0x32-0x33 (1)
0x030|         08                                    |   .            |      size: 8 (valid) 0x33-0x34 (1)
     |                                               |                |      content{}: 0x34-0x3c (8)
     |                                               |                |        tab{}: 0x34-0x3c (8)
0x030|            02                                 |    .           |          n: 2 (valid) 0x34-0x35 (1)
     |                                               |                |          x[0:2]: 0x35-0x3c (7)
     |                                               |                |            [0]{}: tab 0x35-0x38 (3)
0x030|               70                              |     p          |              et: "funcref" (112) 0x35-0x36 (1)
     |                                               |                |              lim{}: 0x36-0x38 (2)
0x030|                  00                           |      .         |                tag: 0x0 0x36-0x37 (1)
0x030|                     0a                        |       .        |                n: 10 (valid) 0x37-0x38 (1)
     |                                               |                |            [1]{}: tab 0x38-0x3c (4)
0x030|                        70                     |        p       |              et: "funcref" (112) 0x38-0x39 (1)
     |                                               |                |              lim{}: 0x39-0x3c (3)
0x030|                           01                  |         .      |                tag: 0x1 0x39-0x3a (1)
0x030|                              0a               |          .     |                n: 10 (valid) 0x3a-0x3b (1)
0x030|                                 14            |           .    |                m: 20 (valid) 0x3b-0x3c (1)
     |                                               |                |    [3]{}: section 0x3c-0x41 (5)
0x030|                                    05         |            .   |      id: "memory_section" (5) 0x3c-0x3d (1)
0x030|                                       03      |             .  |      size: 3 (valid) 0x3d-0x3e (1)
     |                                               |                |      content{}: 0x3e-0x41 (3)
     |                                               |                |        mem{}: 0x3e-0x41 (3)
0x030|                                          01   |              . |          n: 1 (valid) 0x3e-0x3f (1)
     |                                               |                |          x[0:1]: 0x3f-0x41 (2)
     |                                               |                |            [0]{}: mem 0x3f-0x41 (2)
     |                                               |                |              lim{}: 0x3f-0x41 (2)
0x030|                                             00|               .|                tag: 0x0 0x3f-0x40 (1)
0x040|02                                             |.               |                n: 2 (valid) 0x40-0x41 (1)
     |                                               |                |    [4]{}: section 0x41-0x57 (22)
0x040|   06                                          | .              |      id: "global_section" (6) 0x41-0x42 (1)
0x040|      14                                       |  .             |      size: 20 (valid) 0x42-0x43 (1)
     |                                               |                |      content{}: 0x43-0x57 (20)
     |                                               |                |        glob{}: 0x43-0x57 (20)
0x040|         03                                    |   .            |          n: 3 (valid) 0x43-0x44 (1)
     |                                               |                |          x[0:3]: 0x44-0x57 (19)
     |                                               |                |            [0]{}: glob 0x44-0x49 (5)
     |                                               |                |              gt{}: 0x44-0x46 (2)
0x040|            7f                                 |    .           |                t: "i32" (0x7f) 0x44-0x45 (1)
0x040|               00                              |     .          |                m: "const" (0) 0x45-0x46 (1)
     |                                               |                |              e[0:2]: 0x46-0x49 (3)
     |                                               |                |                [0]{}: in 0x46-0x48 (2)
0x040|                  41                           |      A         |                  opcode: "i32.const" (0x41) 0x46-0x47 (1)
0x040|                     37                        |       7        |                  n: 55 (valid) 0x47-0x48 (1)
     |                                               |                |                [1]{}: in 0x48-0x49 (1)
0x040|                        0b                     |        .       |                  opcode: "end" (0xb) 0x48-0x49 (1)
     |                                               |                |            [1]{}: glob 0x49-0x51 (8)
     |                                               |                |              gt{}: 0x49-0x4b (2)
0x040|                           7d                  |         }      |                t: "f32" (0x7d) 0x49-0x4a (1)
0x040|                              00               |          .     |                m: "const" (0) 0x4a-0x4b (1)
     |                                               |                |              e[0:2]: 0x4b-0x51 (6)
     |                                               |                |                [0]{}: in 0x4b-0x50 (5)
0x040|                                 43            |           C    |                  opcode: "f32.const" (0x43) 0x4b-0x4c (1)
0x040|                                    00 00 30 42|            ..0B|                  z: 44 0x4c-0x50 (4)
     |                                               |                |                [1]{}: in 0x50-0x51 (1)
0x050|0b                                             |.               |                  opcode: "end" (0xb) 0x50-0x51 (1)
     |                                               |                |            [2]{}: glob 0x51-0x57 (6)
     |                                               |                |              gt{}: 0x51-0x53 (2)
0x050|   7e                                          | ~              |                t: "i64" (0x7e) 0x51-0x52 (1)
0x050|      01                                       |  .             |                m: "var" (1) 0x52-0x53 (1)
     |                                               |                |              e[0:2]: 0x53-0x57 (4)
     |                                               |                |                [0]{}: in 0x53-0x56 (3)
0x050|         42                                    |   B            |                  opcode: "i64.const" (0x42) 0x53-0x54 (1)
0x050|            c2 00                              |    ..          |                  n: 66 0x54-0x56 (2)
     |                                               |                |                [1]{}: in 0x56-0x57 (1)
0x050|                  0b                           |      .         |                  opcode: "end" (0xb) 0x56-0x57 (1)
     |                                               |                |    [5]{}: section 0x57-0x107 (176)
0x050|                     07                        |       .        |      id: "export_section" (7) 0x57-0x58 (1)
0x050|                        ad 01                  |        ..      |      size: 173 (valid) 0x58-0x5a (2)
     |                                               |                |      content{}: 0x5a-0x107 (173)
     |                                               |                |        ex{}: 0x5a-0x107 (173)
0x050|                              0d               |          .     |          n: 13 (valid) 0x5a-0x5b (1)
     |                                               |                |          x[0:13]: 0x5b-0x107 (172)
     |                                               |                |            [0]{}: ex 0x5b-0x62 (7)
     |                                               |                |              nm{}: 0x5b-0x60 (5)
0x050|                                 04            |           .    |                n: 4 (valid) 0x5b-0x5c (1)
0x050|                                    66 75 6e 63|            func|                b: "func" 0x5c-0x60 (4)
     |                                               |                |              d{}: 0x60-0x62 (2)
0x060|00                                             |.               |                tag: "funcidx" (0x0) 0x60-0x61 (1)
0x060|   00                                          | .              |                x: 0 (valid) 0x61-0x62 (1)
     |                                               |                |            [1]{}: ex 0x62-0x6d (11)
     |                                               |                |              nm{}: 0x62-0x6b (9)
0x060|      08                                       |  .             |                n: 8 (valid) 0x62-0x63 (1)
0x060|         66 75 6e 63 2d 69 33 32               |   func-i32     |                b: "func-i32" 0x63-0x6b (8)
     |                                               |                |              d{}: 0x6b-0x6d (2)
0x060|                                 00            |           .    |                tag: "funcidx" (0x0) 0x6b-0x6c (1)
0x060|                                    01         |            .   |                x: 1 (valid) 0x6c-0x6d (1)
     |                                               |                |            [2]{}: ex 0x6d-0x78 (11)
     |                                               |                |              nm{}: 0x6d-0x76 (9)
0x060|                                       08      |             .  |                n: 8 (valid) 0x6d-0x6e (1)
0x060|                                          66 75|              fu|                b: "func-f32" 0x6e-0x76 (8)
0x070|6e 63 2d 66 33 32                              |nc-f32          |
     |                                               |                |              d{}: 0x76-0x78 (2)
0x070|                  00                           |      .         |                tag: "funcidx" (0x0) 0x76-0x77 (1)
0x070|                     02                        |       .        |                x: 2 (valid) 0x77-0x78 (1)
     |                                               |                |            [3]{}: ex 0x78-0x84 (12)
     |                                               |                |              nm{}: 0x78-0x82 (10)
0x070|                        09                     |        .       |                n: 9 (valid) 0x78-0x79 (1)
0x070|                           66 75 6e 63 2d 3e 69|         func->i|                b: "func->i32" 0x79-0x82 (9)
0x080|33 32                                          |32              |
     |                                               |                |              d{}: 0x82-0x84 (2)
0x080|      00                                       |  .             |                tag: "funcidx" (0x0) 0x82-0x83 (1)
0x080|         03                                    |   .            |                x: 3 (valid) 0x83-0x84 (1)
     |                                               |                |            [4]{}: ex 0x84-0x90 (12)
     |                                               |                |              nm{}: 0x84-0x8e (10)
0x080|            09                                 |    .           |                n: 9 (valid) 0x84-0x85 (1)
0x080|               66 75 6e 63 2d 3e 66 33 32      |     func->f32  |                b: "func->f32" 0x85-0x8e (9)
     |                                               |                |              d{}: 0x8e-0x90 (2)
0x080|                                          00   |              . |                tag: "funcidx" (0x0) 0x8e-0x8f (1)
0x080|                                             04|               .|                x: 4 (valid) 0x8f-0x90 (1)
     |                                               |                |            [5]{}: ex 0x90-0xa0 (16)
     |                                               |                |              nm{}: 0x90-0x9e (14)
0x090|0d                                             |.               |                n: 13 (valid) 0x90-0x91 (1)
0x090|   66 75 6e 63 2d 69 33 32 2d 3e 69 33 32      | func-i32->i32  |                b: "func-i32->i32" 0x91-0x9e (13)
     |                                               |                |              d{}: 0x9e-0xa0 (2)
0x090|                                          00   |              . |                tag: "funcidx" (0x0) 0x9e-0x9f (1)
0x090|                                             05|               .|                x: 5 (valid) 0x9f-0xa0 (1)
     |                                               |                |            [6]{}: ex 0xa0-0xb0 (16)
     |                                               |                |              nm{}: 0xa0-0xae (14)
0x0a0|0d                                             |.               |                n: 13 (valid) 0xa0-0xa1 (1)
0x0a0|   66 75 6e 63 2d 69 36 34 2d 3e 69 36 34      | func-i64->i64  |                b: "func-i64->i64" 0xa1-0xae (13)
     |                                               |                |              d{}: 0xae-0xb0 (2)
0x0a0|                                          00   |              . |                tag: "funcidx" (0x0) 0xae-0xaf (1)
0x0a0|                                             06|               .|                x: 6 (valid) 0xaf-0xb0 (1)
     |                                               |                |            [7]{}: ex 0xb0-0xbd (13)
     |                                               |                |              nm{}: 0xb0-0xbb (11)
0x0b0|0a                                             |.               |                n: 10 (valid) 0xb0-0xb1 (1)
0x0b0|   67 6c 6f 62 61 6c 2d 69 33 32               | global-i32     |                b: "global-i32" 0xb1-0xbb (10)
     |                                               |                |              d{}: 0xbb-0xbd (2)
0x0b0|                                 03            |           .    |                tag: "globalidx" (0x3) 0xbb-0xbc (1)
0x0b0|                                    00         |            .   |                x: 0 (valid) 0xbc-0xbd (1)
     |                                               |                |            [8]{}: ex 0xbd-0xca (13)
     |                                               |                |              nm{}: 0xbd-0xc8 (11)
0x0b0|                                       0a      |             .  |                n: 10 (valid) 0xbd-0xbe (1)
0x0b0|                                          67 6c|              gl|                b: "global-f32" 0xbe-0xc8 (10)
0x0c0|6f 62 61 6c 2d 66 33 32                        |obal-f32        |
     |                                               |                |              d{}: 0xc8-0xca (2)
0x0c0|                        03                     |        .       |                tag: "globalidx" (0x3) 0xc8-0xc9 (1)
0x0c0|                           01                  |         .      |                x: 1 (valid) 0xc9-0xca (1)
     |                                               |                |            [9]{}: ex 0xca-0xdb (17)
     |                                               |                |              nm{}: 0xca-0xd9 (15)
0x0c0|                              0e               |          .     |                n: 14 (valid) 0xca-0xcb (1)
0x0c0|                                 67 6c 6f 62 61|           globa|                b: "global-mut-i64" 0xcb-0xd9 (14)
0x0d0|6c 2d 6d 75 74 2d 69 36 34                     |l-mut-i64       |
     |                                               |                |              d{}: 0xd9-0xdb (2)
0x0d0|                           03                  |         .      |                tag: "globalidx" (0x3) 0xd9-0xda (1)
0x0d0|                              02               |          .     |                x: 2 (valid) 0xda-0xdb (1)
     |                                               |                |            [10]{}: ex 0xdb-0xea (15)
     |                                               |                |              nm{}: 0xdb-0xe8 (13)
0x0d0|                                 0c            |           .    |                n: 12 (valid) 0xdb-0xdc (1)
0x0d0|                                    74 61 62 6c|            tabl|                b: "table-10-inf" 0xdc-0xe8 (12)
0x0e0|65 2d 31 30 2d 69 6e 66                        |e-10-inf        |
     |                                               |                |              d{}: 0xe8-0xea (2)
0x0e0|                        01                     |        .       |                tag: "tableidx" (0x1) 0xe8-0xe9 (1)
0x0e0|                           00                  |         .      |                x: 0 (valid) 0xe9-0xea (1)
     |                                               |                |            [11]{}: ex 0xea-0xf8 (14)
     |                                               |                |              nm{}: 0xea-0xf6 (12)
0x0e0|                              0b               |          .     |                n: 11 (valid) 0xea-0xeb (1)
0x0e0|                                 74 61 62 6c 65|           table|                b: "table-10-20" 0xeb-0xf6 (11)
0x0f0|2d 31 30 2d 32 30                              |-10-20          |
     |                                               |                |              d{}: 0xf6-0xf8 (2)
0x0f0|                  01                           |      .         |                tag: "tableidx" (0x1) 0xf6-0xf7 (1)
0x0f0|                     01                        |       .        |                x: 1 (valid) 0xf7-0xf8 (1)
     |                                               |                |            [12]{}: ex 0xf8-0x107 (15)
     |                                               |                |              nm{}: 0xf8-0x105 (13)
0x0f0|                        0c                     |        .       |                n: 12 (valid) 0xf8-0xf9 (1)
0x0f0|                           6d 65 6d 6f 72 79 2d|         memory-|                b: "memory-2-inf" 0xf9-0x105 (12)
0x100|32 2d 69 6e 66                                 |2-inf           |
     |                                               |                |              d{}: 0x105-0x107 (2)
0x100|               02                              |     .          |                tag: "memidx" (0x2) 0x105-0x106 (1)
0x100|                  00                           |      .         |                x: 0 (valid) 0x106-0x107 (1)
     |                                               |                |    [6]{}: section 0x107-0x12a (35)
0x100|                     0a                        |       .        |      id: "code_section" (10) 0x107-0x108 (1)
0x100|                        21                     |        !       |      size: 33 (valid) 0x108-0x109 (1)
     |                                               |                |      content{}: 0x109-0x12a (33)
     |                                               |                |        code{}: 0x109-0x12a (33)
0x100|                           07                  |         .      |          n: 7 (valid) 0x109-0x10a (1)
     |                                               |                |          x[0:7]: 0x10a-0x12a (32)
     |                                               |                |            [0]{}: code 0x10a-0x10d (3)
0x100|                              02               |          .     |              size: 2 (valid) 0x10a-0x10b (1)
     |                                               |                |              code{}: 0x10b-0x10d (2)
     |                                               |                |                t{}: 0x10b-0x10c (1)
0x100|                                 00            |           .    |                  n: 0 (valid) 0x10b-0x10c (1)
     |                                               |                |                  x[0:0]: 0x10c-0x10c (0)
     |                                               |                |                e[0:1]: 0x10c-0x10d (1)
     |                                               |                |                  [0]{}: in 0x10c-0x10d (1)
0x100|                                    0b         |            .   |                    opcode: "end" (0xb) 0x10c-0x10d (1)
     |                                               |                |            [1]{}: code 0x10d-0x110 (3)
0x100|                                       02      |             .  |              size: 2 (valid) 0x10d-0x10e (1)
     |                                               |                |              code{}: 0x10e-0x110 (2)
     |                                               |                |                t{}: 0x10e-0x10f (1)
0x100|                                          00   |              . |                  n: 0 (valid) 0x10e-0x10f (1)
     |                                               |                |                  x[0:0]: 0x10f-0x10f (0)
     |                                               |                |                e[0:1]: 0x10f-0x110 (1)
     |                                               |                |                  [0]{}: in 0x10f-0x110 (1)
0x100|                                             0b|               .|                    opcode: "end" (0xb) 0x10f-0x110 (1)
     |                                               |                |            [2]{}: code 0x110-0x113 (3)
0x110|02                                             |.               |              size: 2 (valid) 0x110-0x111 (1)
     |                                               |                |              code{}: 0x111-0x113 (2)
     |                                               |                |                t{}: 0x111-0x112 (1)
0x110|   00                                          | .              |                  n: 0 (valid) 0x111-0x112 (1)
     |                                               |                |                  x[0:0]: 0x112-0x112 (0)
     |                                               |                |                e[0:1]: 0x112-0x113 (1)
     |                                               |                |                  [0]{}: in 0x112-0x113 (1)
0x110|      0b                                       |  .             |                    opcode: "end" (0xb) 0x112-0x113 (1)
     |                                               |                |            [3]{}: code 0x113-0x118 (5)
0x110|         04                                    |   .            |              size: 4 (valid) 0x113-0x114 (1)
     |                                               |                |              code{}: 0x114-0x118 (4)
     |                                               |                |                t{}: 0x114-0x115 (1)
0x110|            00                                 |    .           |                  n: 0 (valid) 0x114-0x115 (1)
     |                                               |                |                  x[0:0]: 0x115-0x115 (0)
     |                                               |                |                e[0:2]: 0x115-0x118 (3)
     |                                               |                |                  [0]{}: in 0x115-0x117 (2)
0x110|               41                              |     A          |                    opcode: "i32.const" (0x41) 0x115-0x116 (1)
0x110|                  16                           |      .         |                    n: 22 (valid) 0x116-0x117 (1)
     |                                               |                |                  [1]{}: in 0x117-0x118 (1)
0x110|                     0b                        |       .        |                    opcode: "end" (0xb) 0x117-0x118 (1)
     |                                               |                |            [4]{}: code 0x118-0x120 (8)
0x110|                        07                     |        .       |              size: 7 (valid) 0x118-0x119 (1)
     |                                               |                |              code{}: 0x119-0x120 (7)
     |                                               |                |                t{}: 0x119-0x11a (1)
0x110|                           00                  |         .      |                  n: 0 (valid) 0x119-0x11a (1)
     |                                               |                |                  x[0:0]: 0x11a-0x11a (0)
     |                                               |                |                e[0:2]: 0x11a-0x120 (6)
     |                                               |                |                  [0]{}: in 0x11a-0x11f (5)
0x110|                              43               |          C     |                    opcode: "f32.const" (0x43) 0x11a-0x11b (1)
0x110|                                 00 00 30 41   |           ..0A |                    z: 11 0x11b-0x11f (4)
     |                                               |                |                  [1]{}: in 0x11f-0x120 (1)
0x110|                                             0b|               .|                    opcode: "end" (0xb) 0x11f-0x120 (1)
     |                                               |                |            [5]{}: code 0x120-0x125 (5)
0x120|04                                             |.               |              size: 4 (valid) 0x120-0x121 (1)
     |                                               |                |              code{}: 0x121-0x125 (4)
     |                                               |                |                t{}: 0x121-0x122 (1)
0x120|   00                                          | .              |                  n: 0 (valid) 0x121-0x122 (1)
     |                                               |                |                  x[0:0]: 0x122-0x122 (0)
     |                                               |                |                e[0:2]: 0x122-0x125 (3)
     |                                               |                |                  [0]{}: in 0x122-0x124 (2)
0x120|      20                                       |                |                    opcode: "local.get" (0x20) 0x122-0x123 (1)
0x120|         00                                    |   .            |                    x: 0 (valid) 0x123-0x124 (1)
     |                                               |                |                  [1]{}: in 0x124-0x125 (1)
0x120|            0b                                 |    .           |                    opcode: "end" (0xb) 0x124-0x125 (1)
     |                                               |                |            [6]{}: code 0x125-0x12a (5)
0x120|               04                              |     .          |              size: 4 (valid) 0x125-0x126 (1)
     |                                               |                |              code{}: 0x126-0x12a (4)
     |                                               |                |                t{}: 0x126-0x127 (1)
0x120|                  00                           |      .         |                  n: 0 (valid) 0x126-0x127 (1)
     |                                               |                |                  x[0:0]: 0x127-0x127 (0)
     |                                               |                |                e[0:2]: 0x127-0x12a (3)
     |                                               |                |                  [0]{}: in 0x127-0x129 (2)
0x120|                     20                        |                |                    opcode: "local.get" (0x20) 0x127-0x128 (1)
0x120|                        00                     |        .       |                    x: 0 (valid) 0x128-0x129 (1)
     |                                               |                |                  [1]{}: in 0x129-0x12a (1)
0x120|                           0b|                 |         .|     |                    opcode: "end" (0xb) 0x129-0x12a (1)
