$ fq -d wasm dv imports-4.wasm
    |00 01 02 03 04 05 06 07 08 09 0a 0b 0c 0d 0e 0f|0123456789abcdef|.{}: imports-4.wasm (wasm) 0x0-0x1c.7 (29)
0x00|00 61 73 6d                                    |.asm            |  magic: raw bits (valid) 0x0-0x3.7 (4)
0x00|            01 00 00 00                        |    ....        |  version: 1 0x4-0x7.7 (4)
    |                                               |                |  sections[0:2]: 0x8-0x1c.7 (21)
    |                                               |                |    [0]{}: section 0x8-0xd.7 (6)
0x00|                        01                     |        .       |      id: "type section" (1) 0x8-0x8.7 (1)
0x00|                           04                  |         .      |      size: 4 0x9-0x9.7 (1)
    |                                               |                |      content{}: 0xa-0xd.7 (4)
    |                                               |                |        ft{}: 0xa-0xd.7 (4)
0x00|                              01               |          .     |          n: 1 0xa-0xa.7 (1)
    |                                               |                |          x[0:1]: 0xb-0xd.7 (3)
    |                                               |                |            [0]{}: ft 0xb-0xd.7 (3)
0x00|                                 60            |           `    |              tag: 0x60 (valid) 0xb-0xb.7 (1)
    |                                               |                |              rt1{}: 0xc-0xc.7 (1)
0x00|                                    00         |            .   |                n: 0 0xc-0xc.7 (1)
    |                                               |                |                x[0:0]: 0xd-NA (0)
    |                                               |                |              rt2{}: 0xd-0xd.7 (1)
0x00|                                       00      |             .  |                n: 0 0xd-0xd.7 (1)
    |                                               |                |                x[0:0]: 0xe-NA (0)
    |                                               |                |    [1]{}: section 0xe-0x1c.7 (15)
0x00|                                          02   |              . |      id: "import section" (2) 0xe-0xe.7 (1)
0x00|                                             0d|               .|      size: 13 0xf-0xf.7 (1)
    |                                               |                |      content{}: 0x10-0x1c.7 (13)
    |                                               |                |        im{}: 0x10-0x1c.7 (13)
0x10|01                                             |.               |          n: 1 0x10-0x10.7 (1)
    |                                               |                |          x[0:1]: 0x11-0x1c.7 (12)
    |                                               |                |            [0]{}: im 0x11-0x1c.7 (12)
    |                                               |                |              mod{}: 0x11-0x15.7 (5)
0x10|   04                                          | .              |                n: 4 0x11-0x11.7 (1)
0x10|      74 65 73 74                              |  test          |                b: "test" 0x12-0x15.7 (4)
    |                                               |                |              nm{}: 0x16-0x1a.7 (5)
0x10|                  04                           |      .         |                n: 4 0x16-0x16.7 (1)
0x10|                     66 75 6e 63               |       func     |                b: "func" 0x17-0x1a.7 (4)
    |                                               |                |              d{}: 0x1b-0x1c.7 (2)
0x10|                                 00            |           .    |                tag: "func" (0x0) 0x1b-0x1b.7 (1)
0x10|                                    00|        |            .|  |                x: 0 0x1c-0x1c.7 (1)
