$ fq -d wasm dv imports-11.wasm
    |00 01 02 03 04 05 06 07 08 09 0a 0b 0c 0d 0e 0f|0123456789abcdef|.{}: imports-11.wasm (wasm) 0x0-0xde (222)
0x00|00 61 73 6d                                    |.asm            |  magic: raw bits (valid) 0x0-0x4 (4)
0x00|            01 00 00 00                        |    ....        |  version: 1 0x4-0x8 (4)
    |                                               |                |  sections[0:5]: 0x8-0xde (214)
    |                                               |                |    [0]{}: section 0x8-0xf (7)
0x00|                        01                     |        .       |      id: "type_section" (1) 0x8-0x9 (1)
0x00|                           05                  |         .      |      size: 5 (valid) 0x9-0xa (1)
    |                                               |                |      content{}: 0xa-0xf (5)
    |                                               |                |        ft{}: 0xa-0xf (5)
0x00|                              01               |          .     |          n: 1 (valid) 0xa-0xb (1)
    |                                               |                |          x[0:1]: 0xb-0xf (4)
    |                                               |                |            [0]{}: ft 0xb-0xf (4)
0x00|                                 60            |           `    |              tag: 0x60 (valid) 0xb-0xc (1)
    |                                               |                |              rt1{}: 0xc-0xd (1)
0x00|                                    00         |            .   |                n: 0 (valid) 0xc-0xd (1)
    |                                               |                |                x[0:0]: 0xd-0xd (0)
    |                                               |                |              rt2{}: 0xd-0xf (2)
0x00|                                       01      |             .  |                n: 1 (valid) 0xd-0xe (1)
    |                                               |                |                x[0:1]: 0xe-0xf (1)
0x00|                                          7f   |              . |                  [0]: "i32" (0x7f) t 0xe-0xf (1)
    |                                               |                |    [1]{}: section 0xf-0x9d (142)
0x00|                                             02|               .|      id: "import_section" (2) 0xf-0x10 (1)
0x10|8b 01                                          |..              |      size: 139 (valid) 0x10-0x12 (2)
    |                                               |                |      content{}: 0x12-0x9d (139)
    |                                               |                |        im{}: 0x12-0x9d (139)
0x10|      06                                       |  .             |          n: 6 (valid) 0x12-0x13 (1)
    |                                               |                |          x[0:6]: 0x13-0x9d (138)
    |                                               |                |            [0]{}: im 0x13-0x2a (23)
    |                                               |                |              mod{}: 0x13-0x1c (9)
0x10|         08                                    |   .            |                n: 8 (valid) 0x13-0x14 (1)
0x10|            73 70 65 63 74 65 73 74            |    spectest    |                b: "spectest" 0x14-0x1c (8)
    |                                               |                |              nm{}: 0x1c-0x27 (11)
0x10|                                    0a         |            .   |                n: 10 (valid) 0x1c-0x1d (1)
0x10|                                       67 6c 6f|             glo|                b: "global_i32" 0x1d-0x27 (10)
0x20|62 61 6c 5f 69 33 32                           |bal_i32         |
    |                                               |                |              d{}: 0x27-0x2a (3)
0x20|                     03                        |       .        |                tag: "global" (0x3) 0x27-0x28 (1)
    |                                               |                |                gt{}: 0x28-0x2a (2)
0x20|                        7f                     |        .       |                  t: "i32" (0x7f) 0x28-0x29 (1)
0x20|                           00                  |         .      |                  m: "const" (0) 0x29-0x2a (1)
    |                                               |                |            [1]{}: im 0x2a-0x41 (23)
    |                                               |                |              mod{}: 0x2a-0x33 (9)
0x20|                              08               |          .     |                n: 8 (valid) 0x2a-0x2b (1)
0x20|                                 73 70 65 63 74|           spect|                b: "spectest" 0x2b-0x33 (8)
0x30|65 73 74                                       |est             |
    |                                               |                |              nm{}: 0x33-0x3e (11)
0x30|         0a                                    |   .            |                n: 10 (valid) 0x33-0x34 (1)
0x30|            67 6c 6f 62 61 6c 5f 69 33 32      |    global_i32  |                b: "global_i32" 0x34-0x3e (10)
    |                                               |                |              d{}: 0x3e-0x41 (3)
0x30|                                          03   |              . |                tag: "global" (0x3) 0x3e-0x3f (1)
    |                                               |                |                gt{}: 0x3f-0x41 (2)
0x30|                                             7f|               .|                  t: "i32" (0x7f) 0x3f-0x40 (1)
0x40|00                                             |.               |                  m: "const" (0) 0x40-0x41 (1)
    |                                               |                |            [2]{}: im 0x41-0x58 (23)
    |                                               |                |              mod{}: 0x41-0x4a (9)
0x40|   08                                          | .              |                n: 8 (valid) 0x41-0x42 (1)
0x40|      73 70 65 63 74 65 73 74                  |  spectest      |                b: "spectest" 0x42-0x4a (8)
    |                                               |                |              nm{}: 0x4a-0x55 (11)
0x40|                              0a               |          .     |                n: 10 (valid) 0x4a-0x4b (1)
0x40|                                 67 6c 6f 62 61|           globa|                b: "global_i32" 0x4b-0x55 (10)
0x50|6c 5f 69 33 32                                 |l_i32           |
    |                                               |                |              d{}: 0x55-0x58 (3)
0x50|               03                              |     .          |                tag: "global" (0x3) 0x55-0x56 (1)
    |                                               |                |                gt{}: 0x56-0x58 (2)
0x50|                  7f                           |      .         |                  t: "i32" (0x7f) 0x56-0x57 (1)
0x50|                     00                        |       .        |                  m: "const" (0) 0x57-0x58 (1)
    |                                               |                |            [3]{}: im 0x58-0x6f (23)
    |                                               |                |              mod{}: 0x58-0x61 (9)
0x50|                        08                     |        .       |                n: 8 (valid) 0x58-0x59 (1)
0x50|                           73 70 65 63 74 65 73|         spectes|                b: "spectest" 0x59-0x61 (8)
0x60|74                                             |t               |
    |                                               |                |              nm{}: 0x61-0x6c (11)
0x60|   0a                                          | .              |                n: 10 (valid) 0x61-0x62 (1)
0x60|      67 6c 6f 62 61 6c 5f 69 33 32            |  global_i32    |                b: "global_i32" 0x62-0x6c (10)
    |                                               |                |              d{}: 0x6c-0x6f (3)
0x60|                                    03         |            .   |                tag: "global" (0x3) 0x6c-0x6d (1)
    |                                               |                |                gt{}: 0x6d-0x6f (2)
0x60|                                       7f      |             .  |                  t: "i32" (0x7f) 0x6d-0x6e (1)
0x60|                                          00   |              . |                  m: "const" (0) 0x6e-0x6f (1)
    |                                               |                |            [4]{}: im 0x6f-0x86 (23)
    |                                               |                |              mod{}: 0x6f-0x78 (9)
0x60|                                             08|               .|                n: 8 (valid) 0x6f-0x70 (1)
0x70|73 70 65 63 74 65 73 74                        |spectest        |                b: "spectest" 0x70-0x78 (8)
    |                                               |                |              nm{}: 0x78-0x83 (11)
0x70|                        0a                     |        .       |                n: 10 (valid) 0x78-0x79 (1)
0x70|                           67 6c 6f 62 61 6c 5f|         global_|                b: "global_f32" 0x79-0x83 (10)
0x80|66 33 32                                       |f32             |
    |                                               |                |              d{}: 0x83-0x86 (3)
0x80|         03                                    |   .            |                tag: "global" (0x3) 0x83-0x84 (1)
    |                                               |                |                gt{}: 0x84-0x86 (2)
0x80|            7d                                 |    }           |                  t: "f32" (0x7d) 0x84-0x85 (1)
0x80|               00                              |     .          |                  m: "const" (0) 0x85-0x86 (1)
    |                                               |                |            [5]{}: im 0x86-0x9d (23)
    |                                               |                |              mod{}: 0x86-0x8f (9)
0x80|                  08                           |      .         |                n: 8 (valid) 0x86-0x87 (1)
0x80|                     73 70 65 63 74 65 73 74   |       spectest |                b: "spectest" 0x87-0x8f (8)
    |                                               |                |              nm{}: 0x8f-0x9a (11)
0x80|                                             0a|               .|                n: 10 (valid) 0x8f-0x90 (1)
0x90|67 6c 6f 62 61 6c 5f 66 36 34                  |global_f64      |                b: "global_f64" 0x90-0x9a (10)
    |                                               |                |              d{}: 0x9a-0x9d (3)
0x90|                              03               |          .     |                tag: "global" (0x3) 0x9a-0x9b (1)
    |                                               |                |                gt{}: 0x9b-0x9d (2)
0x90|                                 7c            |           |    |                  t: "f64" (0x7c) 0x9b-0x9c (1)
0x90|                                    00         |            .   |                  m: "const" (0) 0x9c-0x9d (1)
    |                                               |                |    [2]{}: section 0x9d-0xa4 (7)
0x90|                                       03      |             .  |      id: "function_section" (3) 0x9d-0x9e (1)
0x90|                                          05   |              . |      size: 5 (valid) 0x9e-0x9f (1)
    |                                               |                |      content{}: 0x9f-0xa4 (5)
    |                                               |                |        x{}: 0x9f-0xa4 (5)
0x90|                                             04|               .|          n: 4 (valid) 0x9f-0xa0 (1)
    |                                               |                |          x[0:4]: 0xa0-0xa4 (4)
0xa0|00                                             |.               |            [0]: 0 x (valid) 0xa0-0xa1 (1)
0xa0|   00                                          | .              |            [1]: 0 x (valid) 0xa1-0xa2 (1)
0xa0|      00                                       |  .             |            [2]: 0 x (valid) 0xa2-0xa3 (1)
0xa0|         00                                    |   .            |            [3]: 0 x (valid) 0xa3-0xa4 (1)
    |                                               |                |    [3]{}: section 0xa4-0xc7 (35)
0xa0|            07                                 |    .           |      id: "export_section" (7) 0xa4-0xa5 (1)
0xa0|               21                              |     !          |      size: 33 (valid) 0xa5-0xa6 (1)
    |                                               |                |      content{}: 0xa6-0xc7 (33)
    |                                               |                |        ex{}: 0xa6-0xc7 (33)
0xa0|                  04                           |      .         |          n: 4 (valid) 0xa6-0xa7 (1)
    |                                               |                |          x[0:4]: 0xa7-0xc7 (32)
    |                                               |                |            [0]{}: ex 0xa7-0xaf (8)
    |                                               |                |              nm{}: 0xa7-0xad (6)
0xa0|                     05                        |       .        |                n: 5 (valid) 0xa7-0xa8 (1)
0xa0|                        67 65 74 2d 30         |        get-0   |                b: "get-0" 0xa8-0xad (5)
    |                                               |                |              d{}: 0xad-0xaf (2)
0xa0|                                       00      |             .  |                tag: "funcidx" (0x0) 0xad-0xae (1)
0xa0|                                          00   |              . |                x: 0 (valid) 0xae-0xaf (1)
    |                                               |                |            [1]{}: ex 0xaf-0xb7 (8)
    |                                               |                |              nm{}: 0xaf-0xb5 (6)
0xa0|                                             05|               .|                n: 5 (valid) 0xaf-0xb0 (1)
0xb0|67 65 74 2d 31                                 |get-1           |                b: "get-1" 0xb0-0xb5 (5)
    |                                               |                |              d{}: 0xb5-0xb7 (2)
0xb0|               00                              |     .          |                tag: "funcidx" (0x0) 0xb5-0xb6 (1)
0xb0|                  01                           |      .         |                x: 1 (valid) 0xb6-0xb7 (1)
    |                                               |                |            [2]{}: ex 0xb7-0xbf (8)
    |                                               |                |              nm{}: 0xb7-0xbd (6)
0xb0|                     05                        |       .        |                n: 5 (valid) 0xb7-0xb8 (1)
0xb0|                        67 65 74 2d 78         |        get-x   |                b: "get-x" 0xb8-0xbd (5)
    |                                               |                |              d{}: 0xbd-0xbf (2)
0xb0|                                       00      |             .  |                tag: "funcidx" (0x0) 0xbd-0xbe (1)
0xb0|                                          02   |              . |                x: 2 (valid) 0xbe-0xbf (1)
    |                                               |                |            [3]{}: ex 0xbf-0xc7 (8)
    |                                               |                |              nm{}: 0xbf-0xc5 (6)
0xb0|                                             05|               .|                n: 5 (valid) 0xbf-0xc0 (1)
0xc0|67 65 74 2d 79                                 |get-y           |                b: "get-y" 0xc0-0xc5 (5)
    |                                               |                |              d{}: 0xc5-0xc7 (2)
0xc0|               00                              |     .          |                tag: "funcidx" (0x0) 0xc5-0xc6 (1)
0xc0|                  03                           |      .         |                x: 3 (valid) 0xc6-0xc7 (1)
    |                                               |                |    [4]{}: section 0xc7-0xde (23)
0xc0|                     0a                        |       .        |      id: "code_section" (10) 0xc7-0xc8 (1)
0xc0|                        15                     |        .       |      size: 21 (valid) 0xc8-0xc9 (1)
    |                                               |                |      content{}: 0xc9-0xde (21)
    |                                               |                |        code{}: 0xc9-0xde (21)
0xc0|                           04                  |         .      |          n: 4 (valid) 0xc9-0xca (1)
    |                                               |                |          x[0:4]: 0xca-0xde (20)
    |                                               |                |            [0]{}: code 0xca-0xcf (5)
0xc0|                              04               |          .     |              size: 4 (valid) 0xca-0xcb (1)
    |                                               |                |              code{}: 0xcb-0xcf (4)
    |                                               |                |                t{}: 0xcb-0xcc (1)
0xc0|                                 00            |           .    |                  n: 0 (valid) 0xcb-0xcc (1)
    |                                               |                |                  x[0:0]: 0xcc-0xcc (0)
    |                                               |                |                e[0:2]: 0xcc-0xcf (3)
    |                                               |                |                  [0]{}: in 0xcc-0xce (2)
0xc0|                                    23         |            #   |                    opcode: "global.get" (0x23) 0xcc-0xcd (1)
0xc0|                                       00      |             .  |                    x: 0 (valid) 0xcd-0xce (1)
    |                                               |                |                  [1]{}: in 0xce-0xcf (1)
0xc0|                                          0b   |              . |                    opcode: "end" (0xb) 0xce-0xcf (1)
    |                                               |                |            [1]{}: code 0xcf-0xd4 (5)
0xc0|                                             04|               .|              size: 4 (valid) 0xcf-0xd0 (1)
    |                                               |                |              code{}: 0xd0-0xd4 (4)
    |                                               |                |                t{}: 0xd0-0xd1 (1)
0xd0|00                                             |.               |                  n: 0 (valid) 0xd0-0xd1 (1)
    |                                               |                |                  x[0:0]: 0xd1-0xd1 (0)
    |                                               |                |                e[0:2]: 0xd1-0xd4 (3)
    |                                               |                |                  [0]{}: in 0xd1-0xd3 (2)
0xd0|   23                                          | #              |                    opcode: "global.get" (0x23) 0xd1-0xd2 (1)
0xd0|      01                                       |  .             |                    x: 1 (valid) 0xd2-0xd3 (1)
    |                                               |                |                  [1]{}: in 0xd3-0xd4 (1)
0xd0|         0b                                    |   .            |                    opcode: "end" (0xb) 0xd3-0xd4 (1)
    |                                               |                |            [2]{}: code 0xd4-0xd9 (5)
0xd0|            04                                 |    .           |              size: 4 (valid) 0xd4-0xd5 (1)
    |                                               |                |              code{}: 0xd5-0xd9 (4)
    |                                               |                |                t{}: 0xd5-0xd6 (1)
0xd0|               00                              |     .          |                  n: 0 (valid) 0xd5-0xd6 (1)
    |                                               |                |                  x[0:0]: 0xd6-0xd6 (0)
    |                                               |                |                e[0:2]: 0xd6-0xd9 (3)
    |                                               |                |                  [0]{}: in 0xd6-0xd8 (2)
0xd0|                  23                           |      #         |                    opcode: "global.get" (0x23) 0xd6-0xd7 (1)
0xd0|                     02                        |       .        |                    x: 2 (valid) 0xd7-0xd8 (1)
    |                                               |                |                  [1]{}: in 0xd8-0xd9 (1)
0xd0|                        0b                     |        .       |                    opcode: "end" (0xb) 0xd8-0xd9 (1)
    |                                               |                |            [3]{}: code 0xd9-0xde (5)
0xd0|                           04                  |         .      |              size: 4 (valid) 0xd9-0xda (1)
    |                                               |                |              code{}: 0xda-0xde (4)
    |                                               |                |                t{}: 0xda-0xdb (1)
0xd0|                              00               |          .     |                  n: 0 (valid) 0xda-0xdb (1)
    |                                               |                |                  x[0:0]: 0xdb-0xdb (0)
    |                                               |                |                e[0:2]: 0xdb-0xde (3)
    |                                               |                |                  [0]{}: in 0xdb-0xdd (2)
0xd0|                                 23            |           #    |                    opcode: "global.get" (0x23) 0xdb-0xdc (1)
0xd0|                                    03         |            .   |                    x: 3 (valid) 0xdc-0xdd (1)
    |                                               |                |                  [1]{}: in 0xdd-0xde (1)
0xd0|                                       0b|     |             .| |                    opcode: "end" (0xb) 0xdd-0xde (1)
