$ fq -d wasm dv imports-3.wasm
    |00 01 02 03 04 05 06 07 08 09 0a 0b 0c 0d 0e 0f|0123456789abcdef|.{}: imports-3.wasm (wasm) 0x0-0x4a.7 (75)
0x00|00 61 73 6d                                    |.asm            |  magic: raw bits (valid) 0x0-0x3.7 (4)
0x00|            01 00 00 00                        |    ....        |  version: 1 0x4-0x7.7 (4)
    |                                               |                |  sections[0:5]: 0x8-0x4a.7 (67)
    |                                               |                |    [0]{}: section 0x8-0x14.7 (13)
0x00|                        01                     |        .       |      id: "type_section" (1) 0x8-0x8.7 (1)
0x00|                           0b                  |         .      |      size: 11 (valid) 0x9-0x9.7 (1)
    |                                               |                |      content{}: 0xa-0x14.7 (11)
    |                                               |                |        ft{}: 0xa-0x14.7 (11)
0x00|                              02               |          .     |          n: 2 (valid) 0xa-0xa.7 (1)
    |                                               |                |          x[0:2]: 0xb-0x14.7 (10)
    |                                               |                |            [0]{}: ft 0xb-0xe.7 (4)
0x00|                                 60            |           `    |              tag: 0x60 (valid) 0xb-0xb.7 (1)
    |                                               |                |              rt1{}: 0xc-0xd.7 (2)
0x00|                                    01         |            .   |                n: 1 (valid) 0xc-0xc.7 (1)
    |                                               |                |                x[0:1]: 0xd-0xd.7 (1)
0x00|                                       7f      |             .  |                  [0]: "i32" (0x7f) t 0xd-0xd.7 (1)
    |                                               |                |              rt2{}: 0xe-0xe.7 (1)
0x00|                                          00   |              . |                n: 0 (valid) 0xe-0xe.7 (1)
    |                                               |                |                x[0:0]: 0xf-NA (0)
    |                                               |                |            [1]{}: ft 0xf-0x14.7 (6)
0x00|                                             60|               `|              tag: 0x60 (valid) 0xf-0xf.7 (1)
    |                                               |                |              rt1{}: 0x10-0x12.7 (3)
0x10|02                                             |.               |                n: 2 (valid) 0x10-0x10.7 (1)
    |                                               |                |                x[0:2]: 0x11-0x12.7 (2)
0x10|   7f                                          | .              |                  [0]: "i32" (0x7f) t 0x11-0x11.7 (1)
0x10|      7f                                       |  .             |                  [1]: "i32" (0x7f) t 0x12-0x12.7 (1)
    |                                               |                |              rt2{}: 0x13-0x14.7 (2)
0x10|         01                                    |   .            |                n: 1 (valid) 0x13-0x13.7 (1)
    |                                               |                |                x[0:1]: 0x14-0x14.7 (1)
0x10|            7f                                 |    .           |                  [0]: "i32" (0x7f) t 0x14-0x14.7 (1)
    |                                               |                |    [1]{}: section 0x15-0x2c.7 (24)
0x10|               02                              |     .          |      id: "import_section" (2) 0x15-0x15.7 (1)
0x10|                  16                           |      .         |      size: 22 (valid) 0x16-0x16.7 (1)
    |                                               |                |      content{}: 0x17-0x2c.7 (22)
    |                                               |                |        im{}: 0x17-0x2c.7 (22)
0x10|                     01                        |       .        |          n: 1 (valid) 0x17-0x17.7 (1)
    |                                               |                |          x[0:1]: 0x18-0x2c.7 (21)
    |                                               |                |            [0]{}: im 0x18-0x2c.7 (21)
    |                                               |                |              mod{}: 0x18-0x20.7 (9)
0x10|                        08                     |        .       |                n: 8 (valid) 0x18-0x18.7 (1)
0x10|                           73 70 65 63 74 65 73|         spectes|                b: "spectest" 0x19-0x20.7 (8)
0x20|74                                             |t               |
    |                                               |                |              nm{}: 0x21-0x2a.7 (10)
0x20|   09                                          | .              |                n: 9 (valid) 0x21-0x21.7 (1)
0x20|      70 72 69 6e 74 5f 69 33 32               |  print_i32     |                b: "print_i32" 0x22-0x2a.7 (9)
    |                                               |                |              d{}: 0x2b-0x2c.7 (2)
0x20|                                 00            |           .    |                tag: "func" (0x0) 0x2b-0x2b.7 (1)
0x20|                                    00         |            .   |                x: 0 (valid) 0x2c-0x2c.7 (1)
    |                                               |                |    [2]{}: section 0x2d-0x30.7 (4)
0x20|                                       03      |             .  |      id: "function_section" (3) 0x2d-0x2d.7 (1)
0x20|                                          02   |              . |      size: 2 (valid) 0x2e-0x2e.7 (1)
    |                                               |                |      content{}: 0x2f-0x30.7 (2)
    |                                               |                |        x{}: 0x2f-0x30.7 (2)
0x20|                                             01|               .|          n: 1 (valid) 0x2f-0x2f.7 (1)
    |                                               |                |          x[0:1]: 0x30-0x30.7 (1)
0x30|01                                             |.               |            [0]: 1 x (valid) 0x30-0x30.7 (1)
    |                                               |                |    [3]{}: section 0x31-0x3f.7 (15)
0x30|   07                                          | .              |      id: "export_section" (7) 0x31-0x31.7 (1)
0x30|      0d                                       |  .             |      size: 13 (valid) 0x32-0x32.7 (1)
    |                                               |                |      content{}: 0x33-0x3f.7 (13)
    |                                               |                |        ex{}: 0x33-0x3f.7 (13)
0x30|         01                                    |   .            |          n: 1 (valid) 0x33-0x33.7 (1)
    |                                               |                |          x[0:1]: 0x34-0x3f.7 (12)
    |                                               |                |            [0]{}: ex 0x34-0x3f.7 (12)
    |                                               |                |              nm{}: 0x34-0x3d.7 (10)
0x30|            09                                 |    .           |                n: 9 (valid) 0x34-0x34.7 (1)
0x30|               70 72 69 6e 74 5f 69 33 32      |     print_i32  |                b: "print_i32" 0x35-0x3d.7 (9)
    |                                               |                |              d{}: 0x3e-0x3f.7 (2)
0x30|                                          00   |              . |                tag: "funcidx" (0x0) 0x3e-0x3e.7 (1)
0x30|                                             01|               .|                x: 1 (valid) 0x3f-0x3f.7 (1)
    |                                               |                |    [4]{}: section 0x40-0x4a.7 (11)
0x40|0a                                             |.               |      id: "code_section" (10) 0x40-0x40.7 (1)
0x40|   09                                          | .              |      size: 9 (valid) 0x41-0x41.7 (1)
    |                                               |                |      content{}: 0x42-0x4a.7 (9)
    |                                               |                |        code{}: 0x42-0x4a.7 (9)
0x40|      01                                       |  .             |          n: 1 (valid) 0x42-0x42.7 (1)
    |                                               |                |          x[0:1]: 0x43-0x4a.7 (8)
    |                                               |                |            [0]{}: code 0x43-0x4a.7 (8)
0x40|         07                                    |   .            |              size: 7 (valid) 0x43-0x43.7 (1)
    |                                               |                |              code{}: 0x44-0x4a.7 (7)
    |                                               |                |                t{}: 0x44-0x44.7 (1)
0x40|            00                                 |    .           |                  n: 0 (valid) 0x44-0x44.7 (1)
    |                                               |                |                  x[0:0]: 0x45-NA (0)
    |                                               |                |                e[0:4]: 0x45-0x4a.7 (6)
    |                                               |                |                  [0]{}: in 0x45-0x46.7 (2)
0x40|               20                              |                |                    opcode: "local.get" (0x20) 0x45-0x45.7 (1)
0x40|                  00                           |      .         |                    x: 0 (valid) 0x46-0x46.7 (1)
    |                                               |                |                  [1]{}: in 0x47-0x48.7 (2)
0x40|                     20                        |                |                    opcode: "local.get" (0x20) 0x47-0x47.7 (1)
0x40|                        01                     |        .       |                    x: 1 (valid) 0x48-0x48.7 (1)
    |                                               |                |                  [2]{}: in 0x49-0x49.7 (1)
0x40|                           6a                  |         j      |                    opcode: "i32.add" (0x6a) 0x49-0x49.7 (1)
    |                                               |                |                  [3]{}: in 0x4a-0x4a.7 (1)
0x40|                              0b|              |          .|    |                    opcode: "end" (0xb) 0x4a-0x4a.7 (1)
