$ fq -d wasm dv imports-9.wasm
    |00 01 02 03 04 05 06 07 08 09 0a 0b 0c 0d 0e 0f|0123456789abcdef|.{}: imports-9.wasm (wasm) 0x0-0x28 (40)
0x00|00 61 73 6d                                    |.asm            |  magic: raw bits (valid) 0x0-0x4 (4)
0x00|            01 00 00 00                        |    ....        |  version: 1 0x4-0x8 (4)
    |                                               |                |  sections[0:2]: 0x8-0x28 (32)
    |                                               |                |    [0]{}: section 0x8-0x10 (8)
0x00|                        01                     |        .       |      id: "type_section" (1) 0x8-0x9 (1)
0x00|                           06                  |         .      |      size: 6 (valid) 0x9-0xa (1)
    |                                               |                |      content{}: 0xa-0x10 (6)
    |                                               |                |        ft{}: 0xa-0x10 (6)
0x00|                              01               |          .     |          n: 1 (valid) 0xa-0xb (1)
    |                                               |                |          x[0:1]: 0xb-0x10 (5)
    |                                               |                |            [0]{}: ft 0xb-0x10 (5)
0x00|                                 60            |           `    |              tag: 0x60 (valid) 0xb-0xc (1)
    |                                               |                |              rt1{}: 0xc-0xe (2)
0x00|                                    01         |            .   |                n: 1 (valid) 0xc-0xd (1)
    |                                               |                |                x[0:1]: 0xd-0xe (1)
0x00|                                       7f      |             .  |                  [0]: "i32" (0x7f) t 0xd-0xe (1)
    |                                               |                |              rt2{}: 0xe-0x10 (2)
0x00|                                          01   |              . |                n: 1 (valid) 0xe-0xf (1)
    |                                               |                |                x[0:1]: 0xf-0x10 (1)
0x00|                                             7f|               .|                  [0]: "i32" (0x7f) t 0xf-0x10 (1)
    |                                               |                |    [1]{}: section 0x10-0x28 (24)
0x10|02                                             |.               |      id: "import_section" (2) 0x10-0x11 (1)
0x10|   16                                          | .              |      size: 22 (valid) 0x11-0x12 (1)
    |                                               |                |      content{}: 0x12-0x28 (22)
    |                                               |                |        im{}: 0x12-0x28 (22)
0x10|      01                                       |  .             |          n: 1 (valid) 0x12-0x13 (1)
    |                                               |                |          x[0:1]: 0x13-0x28 (21)
    |                                               |                |            [0]{}: im 0x13-0x28 (21)
    |                                               |                |              mod{}: 0x13-0x18 (5)
0x10|         04                                    |   .            |                n: 4 (valid) 0x13-0x14 (1)
0x10|            74 65 73 74                        |    test        |                b: "test" 0x14-0x18 (4)
    |                                               |                |              nm{}: 0x18-0x26 (14)
0x10|                        0d                     |        .       |                n: 13 (valid) 0x18-0x19 (1)
0x10|                           66 75 6e 63 2d 69 33|         func-i3|                b: "func-i32->i32" 0x19-0x26 (13)
0x20|32 2d 3e 69 33 32                              |2->i32          |
    |                                               |                |              d{}: 0x26-0x28 (2)
0x20|                  00                           |      .         |                tag: "func" (0x0) 0x26-0x27 (1)
0x20|                     00|                       |       .|       |                x: 0 (valid) 0x27-0x28 (1)
