$ fq -d wasm dv imports-17.wasm
    |00 01 02 03 04 05 06 07 08 09 0a 0b 0c 0d 0e 0f|0123456789abcdef|.{}: imports-17.wasm (wasm) 0x0-0x3a (58)
0x00|00 61 73 6d                                    |.asm            |  magic: raw bits (valid) 0x0-0x4 (4)
0x00|            01 00 00 00                        |    ....        |  version: 1 0x4-0x8 (4)
    |                                               |                |  sections[0:2]: 0x8-0x3a (50)
    |                                               |                |    [0]{}: section 0x8-0x31 (41)
0x00|                        02                     |        .       |      id: "import_section" (2) 0x8-0x9 (1)
0x00|                           27                  |         '      |      size: 39 (valid) 0x9-0xa (1)
    |                                               |                |      content{}: 0xa-0x31 (39)
    |                                               |                |        im{}: 0xa-0x31 (39)
0x00|                              02               |          .     |          n: 2 (valid) 0xa-0xb (1)
    |                                               |                |          x[0:2]: 0xb-0x31 (38)
    |                                               |                |            [0]{}: im 0xb-0x1e (19)
    |                                               |                |              mod{}: 0xb-0x14 (9)
0x00|                                 08            |           .    |                n: 8 (valid) 0xb-0xc (1)
0x00|                                    73 70 65 63|            spec|                b: "spectest" 0xc-0x14 (8)
0x10|74 65 73 74                                    |test            |
    |                                               |                |              nm{}: 0x14-0x1a (6)
0x10|            05                                 |    .           |                n: 5 (valid) 0x14-0x15 (1)
0x10|               74 61 62 6c 65                  |     table      |                b: "table" 0x15-0x1a (5)
    |                                               |                |              d{}: 0x1a-0x1e (4)
0x10|                              01               |          .     |                tag: "table" (0x1) 0x1a-0x1b (1)
    |                                               |                |                tt{}: 0x1b-0x1e (3)
0x10|                                 70            |           p    |                  et: "funcref" (112) 0x1b-0x1c (1)
    |                                               |                |                  lim{}: 0x1c-0x1e (2)
0x10|                                    00         |            .   |                    tag: 0x0 0x1c-0x1d (1)
0x10|                                       00      |             .  |                    n: 0 (valid) 0x1d-0x1e (1)
    |                                               |                |            [1]{}: im 0x1e-0x31 (19)
    |                                               |                |              mod{}: 0x1e-0x27 (9)
0x10|                                          08   |              . |                n: 8 (valid) 0x1e-0x1f (1)
0x10|                                             73|               s|                b: "spectest" 0x1f-0x27 (8)
0x20|70 65 63 74 65 73 74                           |pectest         |
    |                                               |                |              nm{}: 0x27-0x2d (6)
0x20|                     05                        |       .        |                n: 5 (valid) 0x27-0x28 (1)
0x20|                        74 61 62 6c 65         |        table   |                b: "table" 0x28-0x2d (5)
    |                                               |                |              d{}: 0x2d-0x31 (4)
0x20|                                       01      |             .  |                tag: "table" (0x1) 0x2d-0x2e (1)
    |                                               |                |                tt{}: 0x2e-0x31 (3)
0x20|                                          70   |              p |                  et: "funcref" (112) 0x2e-0x2f (1)
    |                                               |                |                  lim{}: 0x2f-0x31 (2)
0x20|                                             00|               .|                    tag: 0x0 0x2f-0x30 (1)
0x30|00                                             |.               |                    n: 0 (valid) 0x30-0x31 (1)
    |                                               |                |    [1]{}: section 0x31-0x3a (9)
0x30|   04                                          | .              |      id: "table_section" (4) 0x31-0x32 (1)
0x30|      07                                       |  .             |      size: 7 (valid) 0x32-0x33 (1)
    |                                               |                |      content{}: 0x33-0x3a (7)
    |                                               |                |        tab{}: 0x33-0x3a (7)
0x30|         02                                    |   .            |          n: 2 (valid) 0x33-0x34 (1)
    |                                               |                |          x[0:2]: 0x34-0x3a (6)
    |                                               |                |            [0]{}: tab 0x34-0x37 (3)
0x30|            70                                 |    p           |              et: "funcref" (112) 0x34-0x35 (1)
    |                                               |                |              lim{}: 0x35-0x37 (2)
0x30|               00                              |     .          |                tag: 0x0 0x35-0x36 (1)
0x30|                  0a                           |      .         |                n: 10 (valid) 0x36-0x37 (1)
    |                                               |                |            [1]{}: tab 0x37-0x3a (3)
0x30|                     70                        |       p        |              et: "funcref" (112) 0x37-0x38 (1)
    |                                               |                |              lim{}: 0x38-0x3a (2)
0x30|                        00                     |        .       |                tag: 0x0 0x38-0x39 (1)
0x30|                           0a|                 |         .|     |                n: 10 (valid) 0x39-0x3a (1)
