$ fq -d wasm dv imports-10.wasm
    |00 01 02 03 04 05 06 07 08 09 0a 0b 0c 0d 0e 0f|0123456789abcdef|.{}: imports-10.wasm (wasm) 0x0-0x27.7 (40)
0x00|00 61 73 6d                                    |.asm            |  magic: raw bits (valid) 0x0-0x3.7 (4)
0x00|            01 00 00 00                        |    ....        |  version: 1 0x4-0x7.7 (4)
    |                                               |                |  sections[0:2]: 0x8-0x27.7 (32)
    |                                               |                |    [0]{}: section 0x8-0xf.7 (8)
0x00|                        01                     |        .       |      id: "type section" (1) 0x8-0x8.7 (1)
0x00|                           06                  |         .      |      size: 6 0x9-0x9.7 (1)
    |                                               |                |      content{}: 0xa-0xf.7 (6)
    |                                               |                |        ft{}: 0xa-0xf.7 (6)
0x00|                              01               |          .     |          n: 1 0xa-0xa.7 (1)
    |                                               |                |          x[0:1]: 0xb-0xf.7 (5)
    |                                               |                |            [0]{}: ft 0xb-0xf.7 (5)
0x00|                                 60            |           `    |              tag: 0x60 (valid) 0xb-0xb.7 (1)
    |                                               |                |              rt1{}: 0xc-0xd.7 (2)
0x00|                                    01         |            .   |                n: 1 0xc-0xc.7 (1)
    |                                               |                |                x[0:1]: 0xd-0xd.7 (1)
0x00|                                       7e      |             ~  |                  [0]: "i64" (0x7e) t 0xd-0xd.7 (1)
    |                                               |                |              rt2{}: 0xe-0xf.7 (2)
0x00|                                          01   |              . |                n: 1 0xe-0xe.7 (1)
    |                                               |                |                x[0:1]: 0xf-0xf.7 (1)
0x00|                                             7e|               ~|                  [0]: "i64" (0x7e) t 0xf-0xf.7 (1)
    |                                               |                |    [1]{}: section 0x10-0x27.7 (24)
0x10|02                                             |.               |      id: "import section" (2) 0x10-0x10.7 (1)
0x10|   16                                          | .              |      size: 22 0x11-0x11.7 (1)
    |                                               |                |      content{}: 0x12-0x27.7 (22)
    |                                               |                |        im{}: 0x12-0x27.7 (22)
0x10|      01                                       |  .             |          n: 1 0x12-0x12.7 (1)
    |                                               |                |          x[0:1]: 0x13-0x27.7 (21)
    |                                               |                |            [0]{}: im 0x13-0x27.7 (21)
    |                                               |                |              mod{}: 0x13-0x17.7 (5)
0x10|         04                                    |   .            |                n: 4 0x13-0x13.7 (1)
0x10|            74 65 73 74                        |    test        |                b: "test" 0x14-0x17.7 (4)
    |                                               |                |              nm{}: 0x18-0x25.7 (14)
0x10|                        0d                     |        .       |                n: 13 0x18-0x18.7 (1)
0x10|                           66 75 6e 63 2d 69 36|         func-i6|                b: "func-i64->i64" 0x19-0x25.7 (13)
0x20|34 2d 3e 69 36 34                              |4->i64          |
    |                                               |                |              d{}: 0x26-0x27.7 (2)
0x20|                  00                           |      .         |                tag: "func" (0x0) 0x26-0x26.7 (1)
0x20|                     00|                       |       .|       |                x: 0 0x27-0x27.7 (1)
