$ fq -d wasm dv imports-1.wasm
     |00 01 02 03 04 05 06 07 08 09 0a 0b 0c 0d 0e 0f|0123456789abcdef|.{}: imports-1.wasm (wasm) 0x0-0x236.7 (567)
0x000|00 61 73 6d                                    |.asm            |  magic: raw bits (valid) 0x0-0x3.7 (4)
0x000|            01 00 00 00                        |    ....        |  version: 1 0x4-0x7.7 (4)
     |                                               |                |  sections[0:7]: 0x8-0x236.7 (559)
     |                                               |                |    [0]{}: section 0x8-0x2d.7 (38)
0x000|                        01                     |        .       |      id: "type section" (1) 0x8-0x8.7 (1)
0x000|                           24                  |         $      |      size: 36 0x9-0x9.7 (1)
     |                                               |                |      content{}: 0xa-0x2d.7 (36)
     |                                               |                |        ft{}: 0xa-0x2d.7 (36)
0x000|                              08               |          .     |          n: 8 0xa-0xa.7 (1)
     |                                               |                |          x[0:8]: 0xb-0x2d.7 (35)
     |                                               |                |            [0]{}: ft 0xb-0xe.7 (4)
0x000|                                 60            |           `    |              tag: 0x60 (valid) 0xb-0xb.7 (1)
     |                                               |                |              rt1{}: 0xc-0xd.7 (2)
0x000|                                    01         |            .   |                n: 1 0xc-0xc.7 (1)
     |                                               |                |                x[0:1]: 0xd-0xd.7 (1)
0x000|                                       7f      |             .  |                  [0]: "i32" (0x7f) t 0xd-0xd.7 (1)
     |                                               |                |              rt2{}: 0xe-0xe.7 (1)
0x000|                                          00   |              . |                n: 0 0xe-0xe.7 (1)
     |                                               |                |                x[0:0]: 0xf-NA (0)
     |                                               |                |            [1]{}: ft 0xf-0x12.7 (4)
0x000|                                             60|               `|              tag: 0x60 (valid) 0xf-0xf.7 (1)
     |                                               |                |              rt1{}: 0x10-0x11.7 (2)
0x010|01                                             |.               |                n: 1 0x10-0x10.7 (1)
     |                                               |                |                x[0:1]: 0x11-0x11.7 (1)
0x010|   7e                                          | ~              |                  [0]: "i64" (0x7e) t 0x11-0x11.7 (1)
     |                                               |                |              rt2{}: 0x12-0x12.7 (1)
0x010|      00                                       |  .             |                n: 0 0x12-0x12.7 (1)
     |                                               |                |                x[0:0]: 0x13-NA (0)
     |                                               |                |            [2]{}: ft 0x13-0x16.7 (4)
0x010|         60                                    |   `            |              tag: 0x60 (valid) 0x13-0x13.7 (1)
     |                                               |                |              rt1{}: 0x14-0x15.7 (2)
0x010|            01                                 |    .           |                n: 1 0x14-0x14.7 (1)
     |                                               |                |                x[0:1]: 0x15-0x15.7 (1)
0x010|               7d                              |     }          |                  [0]: "f32" (0x7d) t 0x15-0x15.7 (1)
     |                                               |                |              rt2{}: 0x16-0x16.7 (1)
0x010|                  00                           |      .         |                n: 0 0x16-0x16.7 (1)
     |                                               |                |                x[0:0]: 0x17-NA (0)
     |                                               |                |            [3]{}: ft 0x17-0x1a.7 (4)
0x010|                     60                        |       `        |              tag: 0x60 (valid) 0x17-0x17.7 (1)
     |                                               |                |              rt1{}: 0x18-0x19.7 (2)
0x010|                        01                     |        .       |                n: 1 0x18-0x18.7 (1)
     |                                               |                |                x[0:1]: 0x19-0x19.7 (1)
0x010|                           7c                  |         |      |                  [0]: "f64" (0x7c) t 0x19-0x19.7 (1)
     |                                               |                |              rt2{}: 0x1a-0x1a.7 (1)
0x010|                              00               |          .     |                n: 0 0x1a-0x1a.7 (1)
     |                                               |                |                x[0:0]: 0x1b-NA (0)
     |                                               |                |            [4]{}: ft 0x1b-0x1e.7 (4)
0x010|                                 60            |           `    |              tag: 0x60 (valid) 0x1b-0x1b.7 (1)
     |                                               |                |              rt1{}: 0x1c-0x1d.7 (2)
0x010|                                    01         |            .   |                n: 1 0x1c-0x1c.7 (1)
     |                                               |                |                x[0:1]: 0x1d-0x1d.7 (1)
0x010|                                       7f      |             .  |                  [0]: "i32" (0x7f) t 0x1d-0x1d.7 (1)
     |                                               |                |              rt2{}: 0x1e-0x1e.7 (1)
0x010|                                          00   |              . |                n: 0 0x1e-0x1e.7 (1)
     |                                               |                |                x[0:0]: 0x1f-NA (0)
     |                                               |                |            [5]{}: ft 0x1f-0x23.7 (5)
0x010|                                             60|               `|              tag: 0x60 (valid) 0x1f-0x1f.7 (1)
     |                                               |                |              rt1{}: 0x20-0x22.7 (3)
0x020|02                                             |.               |                n: 2 0x20-0x20.7 (1)
     |                                               |                |                x[0:2]: 0x21-0x22.7 (2)
0x020|   7f                                          | .              |                  [0]: "i32" (0x7f) t 0x21-0x21.7 (1)
0x020|      7d                                       |  }             |                  [1]: "f32" (0x7d) t 0x22-0x22.7 (1)
     |                                               |                |              rt2{}: 0x23-0x23.7 (1)
0x020|         00                                    |   .            |                n: 0 0x23-0x23.7 (1)
     |                                               |                |                x[0:0]: 0x24-NA (0)
     |                                               |                |            [6]{}: ft 0x24-0x28.7 (5)
0x020|            60                                 |    `           |              tag: 0x60 (valid) 0x24-0x24.7 (1)
     |                                               |                |              rt1{}: 0x25-0x27.7 (3)
0x020|               02                              |     .          |                n: 2 0x25-0x25.7 (1)
     |                                               |                |                x[0:2]: 0x26-0x27.7 (2)
0x020|                  7c                           |      |         |                  [0]: "f64" (0x7c) t 0x26-0x26.7 (1)
0x020|                     7c                        |       |        |                  [1]: "f64" (0x7c) t 0x27-0x27.7 (1)
     |                                               |                |              rt2{}: 0x28-0x28.7 (1)
0x020|                        00                     |        .       |                n: 0 0x28-0x28.7 (1)
     |                                               |                |                x[0:0]: 0x29-NA (0)
     |                                               |                |            [7]{}: ft 0x29-0x2d.7 (5)
0x020|                           60                  |         `      |              tag: 0x60 (valid) 0x29-0x29.7 (1)
     |                                               |                |              rt1{}: 0x2a-0x2b.7 (2)
0x020|                              01               |          .     |                n: 1 0x2a-0x2a.7 (1)
     |                                               |                |                x[0:1]: 0x2b-0x2b.7 (1)
0x020|                                 7e            |           ~    |                  [0]: "i64" (0x7e) t 0x2b-0x2b.7 (1)
     |                                               |                |              rt2{}: 0x2c-0x2d.7 (2)
0x020|                                    01         |            .   |                n: 1 0x2c-0x2c.7 (1)
     |                                               |                |                x[0:1]: 0x2d-0x2d.7 (1)
0x020|                                       7e      |             ~  |                  [0]: "i64" (0x7e) t 0x2d-0x2d.7 (1)
     |                                               |                |    [1]{}: section 0x2e-0x189.7 (348)
0x020|                                          02   |              . |      id: "import section" (2) 0x2e-0x2e.7 (1)
0x020|                                             d9|               .|      size: 345 0x2f-0x30.7 (2)
0x030|02                                             |.               |
     |                                               |                |      content{}: 0x31-0x189.7 (345)
     |                                               |                |        im{}: 0x31-0x189.7 (345)
0x030|   10                                          | .              |          n: 16 0x31-0x31.7 (1)
     |                                               |                |          x[0:16]: 0x32-0x189.7 (344)
     |                                               |                |            [0]{}: im 0x32-0x46.7 (21)
     |                                               |                |              mod{}: 0x32-0x3a.7 (9)
0x030|      08                                       |  .             |                n: 8 0x32-0x32.7 (1)
0x030|         73 70 65 63 74 65 73 74               |   spectest     |                b: "spectest" 0x33-0x3a.7 (8)
     |                                               |                |              nm{}: 0x3b-0x44.7 (10)
0x030|                                 09            |           .    |                n: 9 0x3b-0x3b.7 (1)
0x030|                                    70 72 69 6e|            prin|                b: "print_i32" 0x3c-0x44.7 (9)
0x040|74 5f 69 33 32                                 |t_i32           |
     |                                               |                |              d{}: 0x45-0x46.7 (2)
0x040|               00                              |     .          |                tag: "func" (0x0) 0x45-0x45.7 (1)
0x040|                  00                           |      .         |                x: 0 0x46-0x46.7 (1)
     |                                               |                |            [1]{}: im 0x47-0x5b.7 (21)
     |                                               |                |              mod{}: 0x47-0x4f.7 (9)
0x040|                     08                        |       .        |                n: 8 0x47-0x47.7 (1)
0x040|                        73 70 65 63 74 65 73 74|        spectest|                b: "spectest" 0x48-0x4f.7 (8)
     |                                               |                |              nm{}: 0x50-0x59.7 (10)
0x050|09                                             |.               |                n: 9 0x50-0x50.7 (1)
0x050|   70 72 69 6e 74 5f 69 33 32                  | print_i32      |                b: "print_i32" 0x51-0x59.7 (9)
     |                                               |                |              d{}: 0x5a-0x5b.7 (2)
0x050|                              00               |          .     |                tag: "func" (0x0) 0x5a-0x5a.7 (1)
0x050|                                 00            |           .    |                x: 0 0x5b-0x5b.7 (1)
     |                                               |                |            [2]{}: im 0x5c-0x70.7 (21)
     |                                               |                |              mod{}: 0x5c-0x64.7 (9)
0x050|                                    08         |            .   |                n: 8 0x5c-0x5c.7 (1)
0x050|                                       73 70 65|             spe|                b: "spectest" 0x5d-0x64.7 (8)
0x060|63 74 65 73 74                                 |ctest           |
     |                                               |                |              nm{}: 0x65-0x6e.7 (10)
0x060|               09                              |     .          |                n: 9 0x65-0x65.7 (1)
0x060|                  70 72 69 6e 74 5f 66 33 32   |      print_f32 |                b: "print_f32" 0x66-0x6e.7 (9)
     |                                               |                |              d{}: 0x6f-0x70.7 (2)
0x060|                                             00|               .|                tag: "func" (0x0) 0x6f-0x6f.7 (1)
0x070|02                                             |.               |                x: 2 0x70-0x70.7 (1)
     |                                               |                |            [3]{}: im 0x71-0x85.7 (21)
     |                                               |                |              mod{}: 0x71-0x79.7 (9)
0x070|   08                                          | .              |                n: 8 0x71-0x71.7 (1)
0x070|      73 70 65 63 74 65 73 74                  |  spectest      |                b: "spectest" 0x72-0x79.7 (8)
     |                                               |                |              nm{}: 0x7a-0x83.7 (10)
0x070|                              09               |          .     |                n: 9 0x7a-0x7a.7 (1)
0x070|                                 70 72 69 6e 74|           print|                b: "print_f64" 0x7b-0x83.7 (9)
0x080|5f 66 36 34                                    |_f64            |
     |                                               |                |              d{}: 0x84-0x85.7 (2)
0x080|            00                                 |    .           |                tag: "func" (0x0) 0x84-0x84.7 (1)
0x080|               03                              |     .          |                x: 3 0x85-0x85.7 (1)
     |                                               |                |            [4]{}: im 0x86-0x9e.7 (25)
     |                                               |                |              mod{}: 0x86-0x8e.7 (9)
0x080|                  08                           |      .         |                n: 8 0x86-0x86.7 (1)
0x080|                     73 70 65 63 74 65 73 74   |       spectest |                b: "spectest" 0x87-0x8e.7 (8)
     |                                               |                |              nm{}: 0x8f-0x9c.7 (14)
0x080|                                             0d|               .|                n: 13 0x8f-0x8f.7 (1)
0x090|70 72 69 6e 74 5f 69 33 32 5f 66 33 32         |print_i32_f32   |                b: "print_i32_f32" 0x90-0x9c.7 (13)
     |                                               |                |              d{}: 0x9d-0x9e.7 (2)
0x090|                                       00      |             .  |                tag: "func" (0x0) 0x9d-0x9d.7 (1)
0x090|                                          05   |              . |                x: 5 0x9e-0x9e.7 (1)
     |                                               |                |            [5]{}: im 0x9f-0xb7.7 (25)
     |                                               |                |              mod{}: 0x9f-0xa7.7 (9)
0x090|                                             08|               .|                n: 8 0x9f-0x9f.7 (1)
0x0a0|73 70 65 63 74 65 73 74                        |spectest        |                b: "spectest" 0xa0-0xa7.7 (8)
     |                                               |                |              nm{}: 0xa8-0xb5.7 (14)
0x0a0|                        0d                     |        .       |                n: 13 0xa8-0xa8.7 (1)
0x0a0|                           70 72 69 6e 74 5f 66|         print_f|                b: "print_f64_f64" 0xa9-0xb5.7 (13)
0x0b0|36 34 5f 66 36 34                              |64_f64          |
     |                                               |                |              d{}: 0xb6-0xb7.7 (2)
0x0b0|                  00                           |      .         |                tag: "func" (0x0) 0xb6-0xb6.7 (1)
0x0b0|                     06                        |       .        |                x: 6 0xb7-0xb7.7 (1)
     |                                               |                |            [6]{}: im 0xb8-0xcc.7 (21)
     |                                               |                |              mod{}: 0xb8-0xc0.7 (9)
0x0b0|                        08                     |        .       |                n: 8 0xb8-0xb8.7 (1)
0x0b0|                           73 70 65 63 74 65 73|         spectes|                b: "spectest" 0xb9-0xc0.7 (8)
0x0c0|74                                             |t               |
     |                                               |                |              nm{}: 0xc1-0xca.7 (10)
0x0c0|   09                                          | .              |                n: 9 0xc1-0xc1.7 (1)
0x0c0|      70 72 69 6e 74 5f 69 33 32               |  print_i32     |                b: "print_i32" 0xc2-0xca.7 (9)
     |                                               |                |              d{}: 0xcb-0xcc.7 (2)
0x0c0|                                 00            |           .    |                tag: "func" (0x0) 0xcb-0xcb.7 (1)
0x0c0|                                    00         |            .   |                x: 0 0xcc-0xcc.7 (1)
     |                                               |                |            [7]{}: im 0xcd-0xe1.7 (21)
     |                                               |                |              mod{}: 0xcd-0xd5.7 (9)
0x0c0|                                       08      |             .  |                n: 8 0xcd-0xcd.7 (1)
0x0c0|                                          73 70|              sp|                b: "spectest" 0xce-0xd5.7 (8)
0x0d0|65 63 74 65 73 74                              |ectest          |
     |                                               |                |              nm{}: 0xd6-0xdf.7 (10)
0x0d0|                  09                           |      .         |                n: 9 0xd6-0xd6.7 (1)
0x0d0|                     70 72 69 6e 74 5f 66 36 34|       print_f64|                b: "print_f64" 0xd7-0xdf.7 (9)
     |                                               |                |              d{}: 0xe0-0xe1.7 (2)
0x0e0|00                                             |.               |                tag: "func" (0x0) 0xe0-0xe0.7 (1)
0x0e0|   03                                          | .              |                x: 3 0xe1-0xe1.7 (1)
     |                                               |                |            [8]{}: im 0xe2-0xf6.7 (21)
     |                                               |                |              mod{}: 0xe2-0xe6.7 (5)
0x0e0|      04                                       |  .             |                n: 4 0xe2-0xe2.7 (1)
0x0e0|         74 65 73 74                           |   test         |                b: "test" 0xe3-0xe6.7 (4)
     |                                               |                |              nm{}: 0xe7-0xf4.7 (14)
0x0e0|                     0d                        |       .        |                n: 13 0xe7-0xe7.7 (1)
0x0e0|                        66 75 6e 63 2d 69 36 34|        func-i64|                b: "func-i64->i64" 0xe8-0xf4.7 (13)
0x0f0|2d 3e 69 36 34                                 |->i64           |
     |                                               |                |              d{}: 0xf5-0xf6.7 (2)
0x0f0|               00                              |     .          |                tag: "func" (0x0) 0xf5-0xf5.7 (1)
0x0f0|                  07                           |      .         |                x: 7 0xf6-0xf6.7 (1)
     |                                               |                |            [9]{}: im 0xf7-0x10b.7 (21)
     |                                               |                |              mod{}: 0xf7-0xff.7 (9)
0x0f0|                     08                        |       .        |                n: 8 0xf7-0xf7.7 (1)
0x0f0|                        73 70 65 63 74 65 73 74|        spectest|                b: "spectest" 0xf8-0xff.7 (8)
     |                                               |                |              nm{}: 0x100-0x109.7 (10)
0x100|09                                             |.               |                n: 9 0x100-0x100.7 (1)
0x100|   70 72 69 6e 74 5f 69 33 32                  | print_i32      |                b: "print_i32" 0x101-0x109.7 (9)
     |                                               |                |              d{}: 0x10a-0x10b.7 (2)
0x100|                              00               |          .     |                tag: "func" (0x0) 0x10a-0x10a.7 (1)
0x100|                                 00            |           .    |                x: 0 0x10b-0x10b.7 (1)
     |                                               |                |            [10]{}: im 0x10c-0x120.7 (21)
     |                                               |                |              mod{}: 0x10c-0x114.7 (9)
0x100|                                    08         |            .   |                n: 8 0x10c-0x10c.7 (1)
0x100|                                       73 70 65|             spe|                b: "spectest" 0x10d-0x114.7 (8)
0x110|63 74 65 73 74                                 |ctest           |
     |                                               |                |              nm{}: 0x115-0x11e.7 (10)
0x110|               09                              |     .          |                n: 9 0x115-0x115.7 (1)
0x110|                  70 72 69 6e 74 5f 69 33 32   |      print_i32 |                b: "print_i32" 0x116-0x11e.7 (9)
     |                                               |                |              d{}: 0x11f-0x120.7 (2)
0x110|                                             00|               .|                tag: "func" (0x0) 0x11f-0x11f.7 (1)
0x120|00                                             |.               |                x: 0 0x120-0x120.7 (1)
     |                                               |                |            [11]{}: im 0x121-0x135.7 (21)
     |                                               |                |              mod{}: 0x121-0x129.7 (9)
0x120|   08                                          | .              |                n: 8 0x121-0x121.7 (1)
0x120|      73 70 65 63 74 65 73 74                  |  spectest      |                b: "spectest" 0x122-0x129.7 (8)
     |                                               |                |              nm{}: 0x12a-0x133.7 (10)
0x120|                              09               |          .     |                n: 9 0x12a-0x12a.7 (1)
0x120|                                 70 72 69 6e 74|           print|                b: "print_i32" 0x12b-0x133.7 (9)
0x130|5f 69 33 32                                    |_i32            |
     |                                               |                |              d{}: 0x134-0x135.7 (2)
0x130|            00                                 |    .           |                tag: "func" (0x0) 0x134-0x134.7 (1)
0x130|               00                              |     .          |                x: 0 0x135-0x135.7 (1)
     |                                               |                |            [12]{}: im 0x136-0x14a.7 (21)
     |                                               |                |              mod{}: 0x136-0x13e.7 (9)
0x130|                  08                           |      .         |                n: 8 0x136-0x136.7 (1)
0x130|                     73 70 65 63 74 65 73 74   |       spectest |                b: "spectest" 0x137-0x13e.7 (8)
     |                                               |                |              nm{}: 0x13f-0x148.7 (10)
0x130|                                             09|               .|                n: 9 0x13f-0x13f.7 (1)
0x140|70 72 69 6e 74 5f 69 33 32                     |print_i32       |                b: "print_i32" 0x140-0x148.7 (9)
     |                                               |                |              d{}: 0x149-0x14a.7 (2)
0x140|                           00                  |         .      |                tag: "func" (0x0) 0x149-0x149.7 (1)
0x140|                              00               |          .     |                x: 0 0x14a-0x14a.7 (1)
     |                                               |                |            [13]{}: im 0x14b-0x15f.7 (21)
     |                                               |                |              mod{}: 0x14b-0x153.7 (9)
0x140|                                 08            |           .    |                n: 8 0x14b-0x14b.7 (1)
0x140|                                    73 70 65 63|            spec|                b: "spectest" 0x14c-0x153.7 (8)
0x150|74 65 73 74                                    |test            |
     |                                               |                |              nm{}: 0x154-0x15d.7 (10)
0x150|            09                                 |    .           |                n: 9 0x154-0x154.7 (1)
0x150|               70 72 69 6e 74 5f 69 33 32      |     print_i32  |                b: "print_i32" 0x155-0x15d.7 (9)
     |                                               |                |              d{}: 0x15e-0x15f.7 (2)
0x150|                                          00   |              . |                tag: "func" (0x0) 0x15e-0x15e.7 (1)
0x150|                                             00|               .|                x: 0 0x15f-0x15f.7 (1)
     |                                               |                |            [14]{}: im 0x160-0x174.7 (21)
     |                                               |                |              mod{}: 0x160-0x168.7 (9)
0x160|08                                             |.               |                n: 8 0x160-0x160.7 (1)
0x160|   73 70 65 63 74 65 73 74                     | spectest       |                b: "spectest" 0x161-0x168.7 (8)
     |                                               |                |              nm{}: 0x169-0x172.7 (10)
0x160|                           09                  |         .      |                n: 9 0x169-0x169.7 (1)
0x160|                              70 72 69 6e 74 5f|          print_|                b: "print_i32" 0x16a-0x172.7 (9)
0x170|69 33 32                                       |i32             |
     |                                               |                |              d{}: 0x173-0x174.7 (2)
0x170|         00                                    |   .            |                tag: "func" (0x0) 0x173-0x173.7 (1)
0x170|            04                                 |    .           |                x: 4 0x174-0x174.7 (1)
     |                                               |                |            [15]{}: im 0x175-0x189.7 (21)
     |                                               |                |              mod{}: 0x175-0x17d.7 (9)
0x170|               08                              |     .          |                n: 8 0x175-0x175.7 (1)
0x170|                  73 70 65 63 74 65 73 74      |      spectest  |                b: "spectest" 0x176-0x17d.7 (8)
     |                                               |                |              nm{}: 0x17e-0x187.7 (10)
0x170|                                          09   |              . |                n: 9 0x17e-0x17e.7 (1)
0x170|                                             70|               p|                b: "print_i32" 0x17f-0x187.7 (9)
0x180|72 69 6e 74 5f 69 33 32                        |rint_i32        |
     |                                               |                |              d{}: 0x188-0x189.7 (2)
0x180|                        00                     |        .       |                tag: "func" (0x0) 0x188-0x188.7 (1)
0x180|                           04                  |         .      |                x: 4 0x189-0x189.7 (1)
     |                                               |                |    [2]{}: section 0x18a-0x18e.7 (5)
0x180|                              03               |          .     |      id: "function section" (3) 0x18a-0x18a.7 (1)
0x180|                                 03            |           .    |      size: 3 0x18b-0x18b.7 (1)
     |                                               |                |      content{}: 0x18c-0x18e.7 (3)
     |                                               |                |        x{}: 0x18c-0x18e.7 (3)
0x180|                                    02         |            .   |          n: 2 0x18c-0x18c.7 (1)
     |                                               |                |          x[0:2]: 0x18d-0x18e.7 (2)
0x180|                                       00      |             .  |            [0]: 0 x 0x18d-0x18d.7 (1)
0x180|                                          01   |              . |            [1]: 1 x 0x18e-0x18e.7 (1)
     |                                               |                |    [3]{}: section 0x18f-0x195.7 (7)
0x180|                                             04|               .|      id: "table section" (4) 0x18f-0x18f.7 (1)
0x190|05                                             |.               |      size: 5 0x190-0x190.7 (1)
     |                                               |                |      content{}: 0x191-0x195.7 (5)
     |                                               |                |        tab{}: 0x191-0x195.7 (5)
0x190|   01                                          | .              |          n: 1 0x191-0x191.7 (1)
     |                                               |                |          x[0:1]: 0x192-0x195.7 (4)
     |                                               |                |            [0]{}: tab 0x192-0x195.7 (4)
0x190|      70                                       |  p             |              et: "funcref" (112) 0x192-0x192.7 (1)
     |                                               |                |              lim{}: 0x193-0x195.7 (3)
0x190|         01                                    |   .            |                tag: 0x1 0x193-0x193.7 (1)
0x190|            02                                 |    .           |                n: 2 0x194-0x194.7 (1)
0x190|               02                              |     .          |                m: 2 0x195-0x195.7 (1)
     |                                               |                |    [4]{}: section 0x196-0x1ca.7 (53)
0x190|                  07                           |      .         |      id: "export section" (7) 0x196-0x196.7 (1)
0x190|                     33                        |       3        |      size: 51 0x197-0x197.7 (1)
     |                                               |                |      content{}: 0x198-0x1ca.7 (51)
     |                                               |                |        ex{}: 0x198-0x1ca.7 (51)
0x190|                        08                     |        .       |          n: 8 0x198-0x198.7 (1)
     |                                               |                |          x[0:8]: 0x199-0x1ca.7 (50)
     |                                               |                |            [0]{}: ex 0x199-0x19d.7 (5)
     |                                               |                |              nm{}: 0x199-0x19b.7 (3)
0x190|                           02                  |         .      |                n: 2 0x199-0x199.7 (1)
0x190|                              70 31            |          p1    |                b: "p1" 0x19a-0x19b.7 (2)
     |                                               |                |              d{}: 0x19c-0x19d.7 (2)
0x190|                                    00         |            .   |                tag: "funcidx" (0x0) 0x19c-0x19c.7 (1)
0x190|                                       09      |             .  |                x: 9 0x19d-0x19d.7 (1)
     |                                               |                |            [1]{}: ex 0x19e-0x1a2.7 (5)
     |                                               |                |              nm{}: 0x19e-0x1a0.7 (3)
0x190|                                          02   |              . |                n: 2 0x19e-0x19e.7 (1)
0x190|                                             70|               p|                b: "p2" 0x19f-0x1a0.7 (2)
0x1a0|32                                             |2               |
     |                                               |                |              d{}: 0x1a1-0x1a2.7 (2)
0x1a0|   00                                          | .              |                tag: "funcidx" (0x0) 0x1a1-0x1a1.7 (1)
0x1a0|      0a                                       |  .             |                x: 10 0x1a2-0x1a2.7 (1)
     |                                               |                |            [2]{}: ex 0x1a3-0x1a7.7 (5)
     |                                               |                |              nm{}: 0x1a3-0x1a5.7 (3)
0x1a0|         02                                    |   .            |                n: 2 0x1a3-0x1a3.7 (1)
0x1a0|            70 33                              |    p3          |                b: "p3" 0x1a4-0x1a5.7 (2)
     |                                               |                |              d{}: 0x1a6-0x1a7.7 (2)
0x1a0|                  00                           |      .         |                tag: "funcidx" (0x0) 0x1a6-0x1a6.7 (1)
0x1a0|                     0b                        |       .        |                x: 11 0x1a7-0x1a7.7 (1)
     |                                               |                |            [3]{}: ex 0x1a8-0x1ac.7 (5)
     |                                               |                |              nm{}: 0x1a8-0x1aa.7 (3)
0x1a0|                        02                     |        .       |                n: 2 0x1a8-0x1a8.7 (1)
0x1a0|                           70 34               |         p4     |                b: "p4" 0x1a9-0x1aa.7 (2)
     |                                               |                |              d{}: 0x1ab-0x1ac.7 (2)
0x1a0|                                 00            |           .    |                tag: "funcidx" (0x0) 0x1ab-0x1ab.7 (1)
0x1a0|                                    0b         |            .   |                x: 11 0x1ac-0x1ac.7 (1)
     |                                               |                |            [4]{}: ex 0x1ad-0x1b1.7 (5)
     |                                               |                |              nm{}: 0x1ad-0x1af.7 (3)
0x1a0|                                       02      |             .  |                n: 2 0x1ad-0x1ad.7 (1)
0x1a0|                                          70 35|              p5|                b: "p5" 0x1ae-0x1af.7 (2)
     |                                               |                |              d{}: 0x1b0-0x1b1.7 (2)
0x1b0|00                                             |.               |                tag: "funcidx" (0x0) 0x1b0-0x1b0.7 (1)
0x1b0|   0c                                          | .              |                x: 12 0x1b1-0x1b1.7 (1)
     |                                               |                |            [5]{}: ex 0x1b2-0x1b6.7 (5)
     |                                               |                |              nm{}: 0x1b2-0x1b4.7 (3)
0x1b0|      02                                       |  .             |                n: 2 0x1b2-0x1b2.7 (1)
0x1b0|         70 36                                 |   p6           |                b: "p6" 0x1b3-0x1b4.7 (2)
     |                                               |                |              d{}: 0x1b5-0x1b6.7 (2)
0x1b0|               00                              |     .          |                tag: "funcidx" (0x0) 0x1b5-0x1b5.7 (1)
0x1b0|                  0d                           |      .         |                x: 13 0x1b6-0x1b6.7 (1)
     |                                               |                |            [6]{}: ex 0x1b7-0x1c0.7 (10)
     |                                               |                |              nm{}: 0x1b7-0x1be.7 (8)
0x1b0|                     07                        |       .        |                n: 7 0x1b7-0x1b7.7 (1)
0x1b0|                        70 72 69 6e 74 33 32   |        print32 |                b: "print32" 0x1b8-0x1be.7 (7)
     |                                               |                |              d{}: 0x1bf-0x1c0.7 (2)
0x1b0|                                             00|               .|                tag: "funcidx" (0x0) 0x1bf-0x1bf.7 (1)
0x1c0|10                                             |.               |                x: 16 0x1c0-0x1c0.7 (1)
     |                                               |                |            [7]{}: ex 0x1c1-0x1ca.7 (10)
     |                                               |                |              nm{}: 0x1c1-0x1c8.7 (8)
0x1c0|   07                                          | .              |                n: 7 0x1c1-0x1c1.7 (1)
0x1c0|      70 72 69 6e 74 36 34                     |  print64       |                b: "print64" 0x1c2-0x1c8.7 (7)
     |                                               |                |              d{}: 0x1c9-0x1ca.7 (2)
0x1c0|                           00                  |         .      |                tag: "funcidx" (0x0) 0x1c9-0x1c9.7 (1)
0x1c0|                              11               |          .     |                x: 17 0x1ca-0x1ca.7 (1)
     |                                               |                |    [5]{}: section 0x1cb-0x1d4.7 (10)
0x1c0|                                 09            |           .    |      id: "element section" (9) 0x1cb-0x1cb.7 (1)
0x1c0|                                    08         |            .   |      size: 8 0x1cc-0x1cc.7 (1)
     |                                               |                |      element{}: 0x1cd-0x1d4.7 (8)
     |                                               |                |        seg{}: 0x1cd-0x1d4.7 (8)
0x1c0|                                       01      |             .  |          n: 1 0x1cd-0x1cd.7 (1)
     |                                               |                |          x[0:1]: 0x1ce-0x1d4.7 (7)
     |                                               |                |            [0]{}: seg 0x1ce-0x1d4.7 (7)
0x1c0|                                          00   |              . |              tag: 0 0x1ce-0x1ce.7 (1)
     |                                               |                |              e[0:2]: 0x1cf-0x1d1.7 (3)
     |                                               |                |                [0]{}: in 0x1cf-0x1d0.7 (2)
0x1c0|                                             41|               A|                  i32.const: 0x41 (valid) 0x1cf-0x1cf.7 (1)
0x1d0|00                                             |.               |                  n: 0 0x1d0-0x1d0.7 (1)
     |                                               |                |                [1]{}: in 0x1d1-0x1d1.7 (1)
0x1d0|   0b                                          | .              |                  end: 0xb (valid) 0x1d1-0x1d1.7 (1)
     |                                               |                |              y{}: 0x1d2-0x1d4.7 (3)
0x1d0|      02                                       |  .             |                n: 2 0x1d2-0x1d2.7 (1)
     |                                               |                |                x[0:2]: 0x1d3-0x1d4.7 (2)
0x1d0|         01                                    |   .            |                  [0]: 1 y 0x1d3-0x1d3.7 (1)
0x1d0|            03                                 |    .           |                  [1]: 3 y 0x1d4-0x1d4.7 (1)
     |                                               |                |    [6]{}: section 0x1d5-0x236.7 (98)
0x1d0|               0a                              |     .          |      id: "code section" (10) 0x1d5-0x1d5.7 (1)
0x1d0|                  60                           |      `         |      size: 96 0x1d6-0x1d6.7 (1)
     |                                               |                |      content{}: 0x1d7-0x236.7 (96)
     |                                               |                |        code{}: 0x1d7-0x236.7 (96)
0x1d0|                     02                        |       .        |          n: 2 0x1d7-0x1d7.7 (1)
     |                                               |                |          x[0:2]: 0x1d8-0x236.7 (95)
     |                                               |                |            [0]{}: code 0x1d8-0x204.7 (45)
0x1d0|                        2c                     |        ,       |              size: 44 0x1d8-0x1d8.7 (1)
     |                                               |                |              code{}: 0x1d9-0x204.7 (44)
     |                                               |                |                t{}: 0x1d9-0x1db.7 (3)
0x1d0|                           01                  |         .      |                  n: 1 0x1d9-0x1d9.7 (1)
     |                                               |                |                  x[0:1]: 0x1da-0x1db.7 (2)
     |                                               |                |                    [0]{}: t 0x1da-0x1db.7 (2)
0x1d0|                              01               |          .     |                      n: 1 0x1da-0x1da.7 (1)
0x1d0|                                 7d            |           }    |                      t: "f32" (0x7d) 0x1db-0x1db.7 (1)
     |                                               |                |                e[0:20]: 0x1dc-0x204.7 (41)
     |                                               |                |                  [0]{}: in 0x1dc-0x1dd.7 (2)
0x1d0|                                    20         |                |                    local.get: 0x20 (valid) 0x1dc-0x1dc.7 (1)
0x1d0|                                       00      |             .  |                    x: 0 0x1dd-0x1dd.7 (1)
     |                                               |                |                  [1]{}: in 0x1de-0x1de.7 (1)
0x1d0|                                          b2   |              . |                    f32.convert_i32_s: 0xb2 (valid) 0x1de-0x1de.7 (1)
     |                                               |                |                  [2]{}: in 0x1df-0x1e0.7 (2)
0x1d0|                                             21|               !|                    local.set: 0x21 (valid) 0x1df-0x1df.7 (1)
0x1e0|01                                             |.               |                    x: 1 0x1e0-0x1e0.7 (1)
     |                                               |                |                  [3]{}: in 0x1e1-0x1e2.7 (2)
0x1e0|   20                                          |                |                    local.get: 0x20 (valid) 0x1e1-0x1e1.7 (1)
0x1e0|      00                                       |  .             |                    x: 0 0x1e2-0x1e2.7 (1)
     |                                               |                |                  [4]{}: in 0x1e3-0x1e4.7 (2)
0x1e0|         10                                    |   .            |                    call: 0x10 (valid) 0x1e3-0x1e3.7 (1)
0x1e0|            00                                 |    .           |                    x: 0 0x1e4-0x1e4.7 (1)
     |                                               |                |                  [5]{}: in 0x1e5-0x1e6.7 (2)
0x1e0|               20                              |                |                    local.get: 0x20 (valid) 0x1e5-0x1e5.7 (1)
0x1e0|                  00                           |      .         |                    x: 0 0x1e6-0x1e6.7 (1)
     |                                               |                |                  [6]{}: in 0x1e7-0x1e8.7 (2)
0x1e0|                     41                        |       A        |                    i32.const: 0x41 (valid) 0x1e7-0x1e7.7 (1)
0x1e0|                        01                     |        .       |                    n: 1 0x1e8-0x1e8.7 (1)
     |                                               |                |                  [7]{}: in 0x1e9-0x1e9.7 (1)
0x1e0|                           6a                  |         j      |                    i32.add: 0x6a (valid) 0x1e9-0x1e9.7 (1)
     |                                               |                |                  [8]{}: in 0x1ea-0x1ee.7 (5)
0x1e0|                              43               |          C     |                    f32.const: 0x43 (valid) 0x1ea-0x1ea.7 (1)
0x1e0|                                 00 00 28 42   |           ..(B |                    z: 42 0x1eb-0x1ee.7 (4)
     |                                               |                |                  [9]{}: in 0x1ef-0x1f0.7 (2)
0x1e0|                                             10|               .|                    call: 0x10 (valid) 0x1ef-0x1ef.7 (1)
0x1f0|04                                             |.               |                    x: 4 0x1f0-0x1f0.7 (1)
     |                                               |                |                  [10]{}: in 0x1f1-0x1f2.7 (2)
0x1f0|   20                                          |                |                    local.get: 0x20 (valid) 0x1f1-0x1f1.7 (1)
0x1f0|      00                                       |  .             |                    x: 0 0x1f2-0x1f2.7 (1)
     |                                               |                |                  [11]{}: in 0x1f3-0x1f4.7 (2)
0x1f0|         10                                    |   .            |                    call: 0x10 (valid) 0x1f3-0x1f3.7 (1)
0x1f0|            01                                 |    .           |                    x: 1 0x1f4-0x1f4.7 (1)
     |                                               |                |                  [12]{}: in 0x1f5-0x1f6.7 (2)
0x1f0|               20                              |                |                    local.get: 0x20 (valid) 0x1f5-0x1f5.7 (1)
0x1f0|                  00                           |      .         |                    x: 0 0x1f6-0x1f6.7 (1)
     |                                               |                |                  [13]{}: in 0x1f7-0x1f8.7 (2)
0x1f0|                     10                        |       .        |                    call: 0x10 (valid) 0x1f7-0x1f7.7 (1)
0x1f0|                        06                     |        .       |                    x: 6 0x1f8-0x1f8.7 (1)
     |                                               |                |                  [14]{}: in 0x1f9-0x1fa.7 (2)
0x1f0|                           20                  |                |                    local.get: 0x20 (valid) 0x1f9-0x1f9.7 (1)
0x1f0|                              01               |          .     |                    x: 1 0x1fa-0x1fa.7 (1)
     |                                               |                |                  [15]{}: in 0x1fb-0x1fc.7 (2)
0x1f0|                                 10            |           .    |                    call: 0x10 (valid) 0x1fb-0x1fb.7 (1)
0x1f0|                                    02         |            .   |                    x: 2 0x1fc-0x1fc.7 (1)
     |                                               |                |                  [16]{}: in 0x1fd-0x1fe.7 (2)
0x1f0|                                       20      |                |                    local.get: 0x20 (valid) 0x1fd-0x1fd.7 (1)
0x1f0|                                          00   |              . |                    x: 0 0x1fe-0x1fe.7 (1)
     |                                               |                |                  [17]{}: in 0x1ff-0x200.7 (2)
0x1f0|                                             41|               A|                    i32.const: 0x41 (valid) 0x1ff-0x1ff.7 (1)
0x200|00                                             |.               |                    n: 0 0x200-0x200.7 (1)
     |                                               |                |                  [18]{}: in 0x201-0x203.7 (3)
0x200|   11                                          | .              |                    call: 0x11 (valid) 0x201-0x201.7 (1)
0x200|      00                                       |  .             |                    y: 0 0x202-0x202.7 (1)
0x200|         00                                    |   .            |                    x: 0 0x203-0x203.7 (1)
     |                                               |                |                  [19]{}: in 0x204-0x204.7 (1)
0x200|            0b                                 |    .           |                    end: 0xb (valid) 0x204-0x204.7 (1)
     |                                               |                |            [1]{}: code 0x205-0x236.7 (50)
0x200|               31                              |     1          |              size: 49 0x205-0x205.7 (1)
     |                                               |                |              code{}: 0x206-0x236.7 (49)
     |                                               |                |                t{}: 0x206-0x208.7 (3)
0x200|                  01                           |      .         |                  n: 1 0x206-0x206.7 (1)
     |                                               |                |                  x[0:1]: 0x207-0x208.7 (2)
     |                                               |                |                    [0]{}: t 0x207-0x208.7 (2)
0x200|                     01                        |       .        |                      n: 1 0x207-0x207.7 (1)
0x200|                        7c                     |        |       |                      t: "f64" (0x7c) 0x208-0x208.7 (1)
     |                                               |                |                e[0:17]: 0x209-0x236.7 (46)
     |                                               |                |                  [0]{}: in 0x209-0x20a.7 (2)
0x200|                           20                  |                |                    local.get: 0x20 (valid) 0x209-0x209.7 (1)
0x200|                              00               |          .     |                    x: 0 0x20a-0x20a.7 (1)
     |                                               |                |                  [1]{}: in 0x20b-0x20c.7 (2)
0x200|                                 10            |           .    |                    call: 0x10 (valid) 0x20b-0x20b.7 (1)
0x200|                                    08         |            .   |                    x: 8 0x20c-0x20c.7 (1)
     |                                               |                |                  [2]{}: in 0x20d-0x20d.7 (1)
0x200|                                       b9      |             .  |                    f64.convert_i64_s: 0xb9 (valid) 0x20d-0x20d.7 (1)
     |                                               |                |                  [3]{}: in 0x20e-0x20f.7 (2)
0x200|                                          21   |              ! |                    local.set: 0x21 (valid) 0x20e-0x20e.7 (1)
0x200|                                             01|               .|                    x: 1 0x20f-0x20f.7 (1)
     |                                               |                |                  [4]{}: in 0x210-0x211.7 (2)
0x210|20                                             |                |                    local.get: 0x20 (valid) 0x210-0x210.7 (1)
0x210|   01                                          | .              |                    x: 1 0x211-0x211.7 (1)
     |                                               |                |                  [5]{}: in 0x212-0x21a.7 (9)
0x210|      44                                       |  D             |                    f64.const: 0x44 (valid) 0x212-0x212.7 (1)
0x210|         00 00 00 00 00 00 f0 3f               |   .......?     |                    z: 1 0x213-0x21a.7 (8)
     |                                               |                |                  [6]{}: in 0x21b-0x21b.7 (1)
0x210|                                 a0            |           .    |                    f64.add: 0xa0 (valid) 0x21b-0x21b.7 (1)
     |                                               |                |                  [7]{}: in 0x21c-0x224.7 (9)
0x210|                                    44         |            D   |                    f64.const: 0x44 (valid) 0x21c-0x21c.7 (1)
0x210|                                       00 00 00|             ...|                    z: 53 0x21d-0x224.7 (8)
0x220|00 00 80 4a 40                                 |...J@           |
     |                                               |                |                  [8]{}: in 0x225-0x226.7 (2)
0x220|               10                              |     .          |                    call: 0x10 (valid) 0x225-0x225.7 (1)
0x220|                  05                           |      .         |                    x: 5 0x226-0x226.7 (1)
     |                                               |                |                  [9]{}: in 0x227-0x228.7 (2)
0x220|                     20                        |                |                    local.get: 0x20 (valid) 0x227-0x227.7 (1)
0x220|                        01                     |        .       |                    x: 1 0x228-0x228.7 (1)
     |                                               |                |                  [10]{}: in 0x229-0x22a.7 (2)
0x220|                           10                  |         .      |                    call: 0x10 (valid) 0x229-0x229.7 (1)
0x220|                              03               |          .     |                    x: 3 0x22a-0x22a.7 (1)
     |                                               |                |                  [11]{}: in 0x22b-0x22c.7 (2)
0x220|                                 20            |                |                    local.get: 0x20 (valid) 0x22b-0x22b.7 (1)
0x220|                                    01         |            .   |                    x: 1 0x22c-0x22c.7 (1)
     |                                               |                |                  [12]{}: in 0x22d-0x22e.7 (2)
0x220|                                       10      |             .  |                    call: 0x10 (valid) 0x22d-0x22d.7 (1)
0x220|                                          07   |              . |                    x: 7 0x22e-0x22e.7 (1)
     |                                               |                |                  [13]{}: in 0x22f-0x230.7 (2)
0x220|                                             20|                |                    local.get: 0x20 (valid) 0x22f-0x22f.7 (1)
0x230|01                                             |.               |                    x: 1 0x230-0x230.7 (1)
     |                                               |                |                  [14]{}: in 0x231-0x232.7 (2)
0x230|   41                                          | A              |                    i32.const: 0x41 (valid) 0x231-0x231.7 (1)
0x230|      01                                       |  .             |                    n: 1 0x232-0x232.7 (1)
     |                                               |                |                  [15]{}: in 0x233-0x235.7 (3)
0x230|         11                                    |   .            |                    call: 0x11 (valid) 0x233-0x233.7 (1)
0x230|            03                                 |    .           |                    y: 3 0x234-0x234.7 (1)
0x230|               00                              |     .          |                    x: 0 0x235-0x235.7 (1)
     |                                               |                |                  [16]{}: in 0x236-0x236.7 (1)
0x230|                  0b|                          |      .|        |                    end: 0xb (valid) 0x236-0x236.7 (1)
