$ fq -d wasm dv imports-50.wasm
    |00 01 02 03 04 05 06 07 08 09 0a 0b 0c 0d 0e 0f|0123456789abcdef|.{}: imports-50.wasm (wasm) 0x0-0x35 (53)
0x00|00 61 73 6d                                    |.asm            |  magic: raw bits (valid) 0x0-0x4 (4)
0x00|            01 00 00 00                        |    ....        |  version: 1 0x4-0x8 (4)
    |                                               |                |  sections[0:5]: 0x8-0x35 (45)
    |                                               |                |    [0]{}: section 0x8-0xf (7)
0x00|                        01                     |        .       |      id: "type_section" (1) 0x8-0x9 (1)
0x00|                           05                  |         .      |      size: 5 (valid) 0x9-0xa (1)
    |                                               |                |      content{}: 0xa-0xf (5)
    |                                               |                |        ft{}: 0xa-0xf (5)
0x00|                              01               |          .     |          n: 1 (valid) 0xa-0xb (1)
    |                                               |                |          x[0:1]: 0xb-0xf (4)
    |                                               |                |            [0]{}: ft 0xb-0xf (4)
0x00|                                 60            |           `    |              tag: 0x60 (valid) 0xb-0xc (1)
    |                                               |                |              rt1{}: 0xc-0xd (1)
0x00|                                    00         |            .   |                n: 0 (valid) 0xc-0xd (1)
    |                                               |                |                x[0:0]: 0xd-0xd (0)
    |                                               |                |              rt2{}: 0xd-0xf (2)
0x00|                                       01      |             .  |                n: 1 (valid) 0xd-0xe (1)
    |                                               |                |                x[0:1]: 0xe-0xf (1)
0x00|                                          7f   |              . |                  [0]: "i32" (0x7f) t 0xe-0xf (1)
    |                                               |                |    [1]{}: section 0xf-0x13 (4)
0x00|                                             03|               .|      id: "function_section" (3) 0xf-0x10 (1)
0x10|02                                             |.               |      size: 2 (valid) 0x10-0x11 (1)
    |                                               |                |      content{}: 0x11-0x13 (2)
    |                                               |                |        x{}: 0x11-0x13 (2)
0x10|   01                                          | .              |          n: 1 (valid) 0x11-0x12 (1)
    |                                               |                |          x[0:1]: 0x12-0x13 (1)
0x10|      00                                       |  .             |            [0]: 0 x (valid) 0x12-0x13 (1)
    |                                               |                |    [2]{}: section 0x13-0x18 (5)
0x10|         05                                    |   .            |      id: "memory_section" (5) 0x13-0x14 (1)
0x10|            03                                 |    .           |      size: 3 (valid) 0x14-0x15 (1)
    |                                               |                |      content{}: 0x15-0x18 (3)
    |                                               |                |        mem{}: 0x15-0x18 (3)
0x10|               01                              |     .          |          n: 1 (valid) 0x15-0x16 (1)
    |                                               |                |          x[0:1]: 0x16-0x18 (2)
    |                                               |                |            [0]{}: mem 0x16-0x18 (2)
    |                                               |                |              lim{}: 0x16-0x18 (2)
0x10|                  00                           |      .         |                tag: 0x0 0x16-0x17 (1)
0x10|                     01                        |       .        |                n: 1 (valid) 0x17-0x18 (1)
    |                                               |                |    [3]{}: section 0x18-0x2b (19)
0x10|                        07                     |        .       |      id: "export_section" (7) 0x18-0x19 (1)
0x10|                           11                  |         .      |      size: 17 (valid) 0x19-0x1a (1)
    |                                               |                |      content{}: 0x1a-0x2b (17)
    |                                               |                |        ex{}: 0x1a-0x2b (17)
0x10|                              02               |          .     |          n: 2 (valid) 0x1a-0x1b (1)
    |                                               |                |          x[0:2]: 0x1b-0x2b (16)
    |                                               |                |            [0]{}: ex 0x1b-0x24 (9)
    |                                               |                |              nm{}: 0x1b-0x22 (7)
0x10|                                 06            |           .    |                n: 6 (valid) 0x1b-0x1c (1)
0x10|                                    6d 65 6d 6f|            memo|                b: "memory" 0x1c-0x22 (6)
0x20|72 79                                          |ry              |
    |                                               |                |              d{}: 0x22-0x24 (2)
0x20|      02                                       |  .             |                tag: "memidx" (0x2) 0x22-0x23 (1)
0x20|         00                                    |   .            |                x: 0 (valid) 0x23-0x24 (1)
    |                                               |                |            [1]{}: ex 0x24-0x2b (7)
    |                                               |                |              nm{}: 0x24-0x29 (5)
0x20|            04                                 |    .           |                n: 4 (valid) 0x24-0x25 (1)
0x20|               67 72 6f 77                     |     grow       |                b: "grow" 0x25-0x29 (4)
    |                                               |                |              d{}: 0x29-0x2b (2)
0x20|                           00                  |         .      |                tag: "funcidx" (0x0) 0x29-0x2a (1)
0x20|                              00               |          .     |                x: 0 (valid) 0x2a-0x2b (1)
    |                                               |                |    [4]{}: section 0x2b-0x35 (10)
0x20|                                 0a            |           .    |      id: "code_section" (10) 0x2b-0x2c (1)
0x20|                                    08         |            .   |      size: 8 (valid) 0x2c-0x2d (1)
    |                                               |                |      content{}: 0x2d-0x35 (8)
    |                                               |                |        code{}: 0x2d-0x35 (8)
0x20|                                       01      |             .  |          n: 1 (valid) 0x2d-0x2e (1)
    |                                               |                |          x[0:1]: 0x2e-0x35 (7)
    |                                               |                |            [0]{}: code 0x2e-0x35 (7)
0x20|                                          06   |              . |              size: 6 (valid) 0x2e-0x2f (1)
    |                                               |                |              code{}: 0x2f-0x35 (6)
    |                                               |                |                t{}: 0x2f-0x30 (1)
0x20|                                             00|               .|                  n: 0 (valid) 0x2f-0x30 (1)
    |                                               |                |                  x[0:0]: 0x30-0x30 (0)
    |                                               |                |                e[0:3]: 0x30-0x35 (5)
    |                                               |                |                  [0]{}: in 0x30-0x32 (2)
0x30|41                                             |A               |                    opcode: "i32.const" (0x41) 0x30-0x31 (1)
0x30|   01                                          | .              |                    n: 1 (valid) 0x31-0x32 (1)
    |                                               |                |                  [1]{}: in 0x32-0x34 (2)
0x30|      40                                       |  @             |                    opcode: "memory.grow" (0x40) 0x32-0x33 (1)
0x30|         00                                    |   .            |                    reserved: 0x0 (valid) 0x33-0x34 (1)
    |                                               |                |                  [2]{}: in 0x34-0x35 (1)
0x30|            0b|                                |    .|          |                    opcode: "end" (0xb) 0x34-0x35 (1)
