$ fq -d wasm dv imports-13.wasm
    |00 01 02 03 04 05 06 07 08 09 0a 0b 0c 0d 0e 0f|0123456789abcdef|.{}: imports-13.wasm (wasm) 0x0-0x1e (30)
0x00|00 61 73 6d                                    |.asm            |  magic: raw bits (valid) 0x0-0x4 (4)
0x00|            01 00 00 00                        |    ....        |  version: 1 0x4-0x8 (4)
    |                                               |                |  sections[0:1]: 0x8-0x1e (22)
    |                                               |                |    [0]{}: section 0x8-0x1e (22)
0x00|                        02                     |        .       |      id: "import_section" (2) 0x8-0x9 (1)
0x00|                           14                  |         .      |      size: 20 (valid) 0x9-0xa (1)
    |                                               |                |      content{}: 0xa-0x1e (20)
    |                                               |                |        im{}: 0xa-0x1e (20)
0x00|                              01               |          .     |          n: 1 (valid) 0xa-0xb (1)
    |                                               |                |          x[0:1]: 0xb-0x1e (19)
    |                                               |                |            [0]{}: im 0xb-0x1e (19)
    |                                               |                |              mod{}: 0xb-0x10 (5)
0x00|                                 04            |           .    |                n: 4 (valid) 0xb-0xc (1)
0x00|                                    74 65 73 74|            test|                b: "test" 0xc-0x10 (4)
    |                                               |                |              nm{}: 0x10-0x1b (11)
0x10|0a                                             |.               |                n: 10 (valid) 0x10-0x11 (1)
0x10|   67 6c 6f 62 61 6c 2d 66 33 32               | global-f32     |                b: "global-f32" 0x11-0x1b (10)
    |                                               |                |              d{}: 0x1b-0x1e (3)
0x10|                                 03            |           .    |                tag: "global" (0x3) 0x1b-0x1c (1)
    |                                               |                |                gt{}: 0x1c-0x1e (2)
0x10|                                    7d         |            }   |                  t: "f32" (0x7d) 0x1c-0x1d (1)
0x10|                                       00|     |             .| |                  m: "const" (0) 0x1d-0x1e (1)
