$ fq -d wasm dv imports-52.wasm
    |00 01 02 03 04 05 06 07 08 09 0a 0b 0c 0d 0e 0f|0123456789abcdef|.{}: imports-52.wasm (wasm) 0x0-0x47.7 (72)
0x00|00 61 73 6d                                    |.asm            |  magic: raw bits (valid) 0x0-0x3.7 (4)
0x00|            01 00 00 00                        |    ....        |  version: 1 0x4-0x7.7 (4)
    |                                               |                |  sections[0:5]: 0x8-0x47.7 (64)
    |                                               |                |    [0]{}: section 0x8-0xe.7 (7)
0x00|                        01                     |        .       |      id: "type section" (1) 0x8-0x8.7 (1)
0x00|                           05                  |         .      |      size: 5 0x9-0x9.7 (1)
    |                                               |                |      content{}: 0xa-0xe.7 (5)
    |                                               |                |        ft{}: 0xa-0xe.7 (5)
0x00|                              01               |          .     |          n: 1 0xa-0xa.7 (1)
    |                                               |                |          x[0:1]: 0xb-0xe.7 (4)
    |                                               |                |            [0]{}: ft 0xb-0xe.7 (4)
0x00|                                 60            |           `    |              tag: 0x60 (valid) 0xb-0xb.7 (1)
    |                                               |                |              rt1{}: 0xc-0xc.7 (1)
0x00|                                    00         |            .   |                n: 0 0xc-0xc.7 (1)
    |                                               |                |                x[0:0]: 0xd-NA (0)
    |                                               |                |              rt2{}: 0xd-0xe.7 (2)
0x00|                                       01      |             .  |                n: 1 0xd-0xd.7 (1)
    |                                               |                |                x[0:1]: 0xe-0xe.7 (1)
0x00|                                          7f   |              . |                  [0]: "i32" (0x7f) t 0xe-0xe.7 (1)
    |                                               |                |    [1]{}: section 0xf-0x31.7 (35)
0x00|                                             02|               .|      id: "import section" (2) 0xf-0xf.7 (1)
0x10|21                                             |!               |      size: 33 0x10-0x10.7 (1)
    |                                               |                |      content{}: 0x11-0x31.7 (33)
    |                                               |                |        im{}: 0x11-0x31.7 (33)
0x10|   01                                          | .              |          n: 1 0x11-0x11.7 (1)
    |                                               |                |          x[0:1]: 0x12-0x31.7 (32)
    |                                               |                |            [0]{}: im 0x12-0x31.7 (32)
    |                                               |                |              mod{}: 0x12-0x27.7 (22)
0x10|      15                                       |  .             |                n: 21 0x12-0x12.7 (1)
0x10|         67 72 6f 77 6e 2d 69 6d 70 6f 72 74 65|   grown-importe|                b: "grown-imported-memory" 0x13-0x27.7 (21)
0x20|64 2d 6d 65 6d 6f 72 79                        |d-memory        |
    |                                               |                |              nm{}: 0x28-0x2e.7 (7)
0x20|                        06                     |        .       |                n: 6 0x28-0x28.7 (1)
0x20|                           6d 65 6d 6f 72 79   |         memory |                b: "memory" 0x29-0x2e.7 (6)
    |                                               |                |              d{}: 0x2f-0x31.7 (3)
0x20|                                             02|               .|                tag: "mem" (0x2) 0x2f-0x2f.7 (1)
    |                                               |                |                mt{}: 0x30-0x31.7 (2)
    |                                               |                |                  lim{}: 0x30-0x31.7 (2)
0x30|00                                             |.               |                    tag: 0x0 0x30-0x30.7 (1)
0x30|   03                                          | .              |                    n: 3 0x31-0x31.7 (1)
    |                                               |                |    [2]{}: section 0x32-0x35.7 (4)
0x30|      03                                       |  .             |      id: "function section" (3) 0x32-0x32.7 (1)
0x30|         02                                    |   .            |      size: 2 0x33-0x33.7 (1)
    |                                               |                |      content{}: 0x34-0x35.7 (2)
    |                                               |                |        x{}: 0x34-0x35.7 (2)
0x30|            01                                 |    .           |          n: 1 0x34-0x34.7 (1)
    |                                               |                |          x[0:1]: 0x35-0x35.7 (1)
0x30|               00                              |     .          |            [0]: 0 x 0x35-0x35.7 (1)
    |                                               |                |    [3]{}: section 0x36-0x3f.7 (10)
0x30|                  07                           |      .         |      id: "export section" (7) 0x36-0x36.7 (1)
0x30|                     08                        |       .        |      size: 8 0x37-0x37.7 (1)
    |                                               |                |      content{}: 0x38-0x3f.7 (8)
    |                                               |                |        ex{}: 0x38-0x3f.7 (8)
0x30|                        01                     |        .       |          n: 1 0x38-0x38.7 (1)
    |                                               |                |          x[0:1]: 0x39-0x3f.7 (7)
    |                                               |                |            [0]{}: ex 0x39-0x3f.7 (7)
    |                                               |                |              nm{}: 0x39-0x3d.7 (5)
0x30|                           04                  |         .      |                n: 4 0x39-0x39.7 (1)
0x30|                              73 69 7a 65      |          size  |                b: "size" 0x3a-0x3d.7 (4)
    |                                               |                |              d{}: 0x3e-0x3f.7 (2)
0x30|                                          00   |              . |                tag: "funcidx" (0x0) 0x3e-0x3e.7 (1)
0x30|                                             00|               .|                x: 0 0x3f-0x3f.7 (1)
    |                                               |                |    [4]{}: section 0x40-0x47.7 (8)
0x40|0a                                             |.               |      id: "code section" (10) 0x40-0x40.7 (1)
0x40|   06                                          | .              |      size: 6 0x41-0x41.7 (1)
    |                                               |                |      content{}: 0x42-0x47.7 (6)
    |                                               |                |        code{}: 0x42-0x47.7 (6)
0x40|      01                                       |  .             |          n: 1 0x42-0x42.7 (1)
    |                                               |                |          x[0:1]: 0x43-0x47.7 (5)
    |                                               |                |            [0]{}: code 0x43-0x47.7 (5)
0x40|         04                                    |   .            |              size: 4 0x43-0x43.7 (1)
    |                                               |                |              code{}: 0x44-0x47.7 (4)
    |                                               |                |                t{}: 0x44-0x44.7 (1)
0x40|            00                                 |    .           |                  n: 0 0x44-0x44.7 (1)
    |                                               |                |                  x[0:0]: 0x45-NA (0)
    |                                               |                |                e[0:2]: 0x45-0x47.7 (3)
    |                                               |                |                  [0]{}: in 0x45-0x46.7 (2)
0x40|               3f                              |     ?          |                    memory.size: 0x3f (valid) 0x45-0x45.7 (1)
0x40|                  00                           |      .         |                    reserved: 0x0 (valid) 0x46-0x46.7 (1)
    |                                               |                |                  [1]{}: in 0x47-0x47.7 (1)
0x40|                     0b|                       |       .|       |                    end: 0xb (valid) 0x47-0x47.7 (1)
