$ fq -d wasm dv imports-11.wasm
    |00 01 02 03 04 05 06 07 08 09 0a 0b 0c 0d 0e 0f|0123456789abcdef|.{}: imports-11.wasm (wasm) 0x0-0xdd.7 (222)
0x00|00 61 73 6d                                    |.asm            |  magic: raw bits (valid) 0x0-0x3.7 (4)
0x00|            01 00 00 00                        |    ....        |  version: 1 0x4-0x7.7 (4)
    |                                               |                |  sections[0:5]: 0x8-0xdd.7 (214)
    |                                               |                |    [0]{}: section 0x8-0xe.7 (7)
0x00|                        01                     |        .       |      id: "type section" (1) 0x8-0x8.7 (1)
0x00|                           05                  |         .      |      size: 5 0x9-0x9.7 (1)
    |                                               |                |      content{}: 0xa-0xe.7 (5)
    |                                               |                |        ft{}: 0xa-0xe.7 (5)
0x00|                              01               |          .     |          n: 1 0xa-0xa.7 (1)
    |                                               |                |          x[0:1]: 0xb-0xe.7 (4)
    |                                               |                |            [0]{}: ft 0xb-0xe.7 (4)
0x00|                                 60            |           `    |              tag: 0x60 (valid) 0xb-0xb.7 (1)
    |                                               |                |              rt1{}: 0xc-0xc.7 (1)
0x00|                                    00         |            .   |                n: 0 0xc-0xc.7 (1)
    |                                               |                |                x[0:0]: 0xd-NA (0)
    |                                               |                |              rt2{}: 0xd-0xe.7 (2)
0x00|                                       01      |             .  |                n: 1 0xd-0xd.7 (1)
    |                                               |                |                x[0:1]: 0xe-0xe.7 (1)
0x00|                                          7f   |              . |                  [0]: "i32" (0x7f) t 0xe-0xe.7 (1)
    |                                               |                |    [1]{}: section 0xf-0x9c.7 (142)
0x00|                                             02|               .|      id: "import section" (2) 0xf-0xf.7 (1)
0x10|8b 01                                          |..              |      size: 139 0x10-0x11.7 (2)
    |                                               |                |      content{}: 0x12-0x9c.7 (139)
    |                                               |                |        im{}: 0x12-0x9c.7 (139)
0x10|      06                                       |  .             |          n: 6 0x12-0x12.7 (1)
    |                                               |                |          x[0:6]: 0x13-0x9c.7 (138)
    |                                               |                |            [0]{}: im 0x13-0x29.7 (23)
    |                                               |                |              mod{}: 0x13-0x1b.7 (9)
0x10|         08                                    |   .            |                n: 8 0x13-0x13.7 (1)
0x10|            73 70 65 63 74 65 73 74            |    spectest    |                b: "spectest" 0x14-0x1b.7 (8)
    |                                               |                |              nm{}: 0x1c-0x26.7 (11)
0x10|                                    0a         |            .   |                n: 10 0x1c-0x1c.7 (1)
0x10|                                       67 6c 6f|             glo|                b: "global_i32" 0x1d-0x26.7 (10)
0x20|62 61 6c 5f 69 33 32                           |bal_i32         |
    |                                               |                |              d{}: 0x27-0x29.7 (3)
0x20|                     03                        |       .        |                tag: "global" (0x3) 0x27-0x27.7 (1)
    |                                               |                |                gt{}: 0x28-0x29.7 (2)
0x20|                        7f                     |        .       |                  t: "i32" (0x7f) 0x28-0x28.7 (1)
0x20|                           00                  |         .      |                  m: "const" (0) 0x29-0x29.7 (1)
    |                                               |                |            [1]{}: im 0x2a-0x40.7 (23)
    |                                               |                |              mod{}: 0x2a-0x32.7 (9)
0x20|                              08               |          .     |                n: 8 0x2a-0x2a.7 (1)
0x20|                                 73 70 65 63 74|           spect|                b: "spectest" 0x2b-0x32.7 (8)
0x30|65 73 74                                       |est             |
    |                                               |                |              nm{}: 0x33-0x3d.7 (11)
0x30|         0a                                    |   .            |                n: 10 0x33-0x33.7 (1)
0x30|            67 6c 6f 62 61 6c 5f 69 33 32      |    global_i32  |                b: "global_i32" 0x34-0x3d.7 (10)
    |                                               |                |              d{}: 0x3e-0x40.7 (3)
0x30|                                          03   |              . |                tag: "global" (0x3) 0x3e-0x3e.7 (1)
    |                                               |                |                gt{}: 0x3f-0x40.7 (2)
0x30|                                             7f|               .|                  t: "i32" (0x7f) 0x3f-0x3f.7 (1)
0x40|00                                             |.               |                  m: "const" (0) 0x40-0x40.7 (1)
    |                                               |                |            [2]{}: im 0x41-0x57.7 (23)
    |                                               |                |              mod{}: 0x41-0x49.7 (9)
0x40|   08                                          | .              |                n: 8 0x41-0x41.7 (1)
0x40|      73 70 65 63 74 65 73 74                  |  spectest      |                b: "spectest" 0x42-0x49.7 (8)
    |                                               |                |              nm{}: 0x4a-0x54.7 (11)
0x40|                              0a               |          .     |                n: 10 0x4a-0x4a.7 (1)
0x40|                                 67 6c 6f 62 61|           globa|                b: "global_i32" 0x4b-0x54.7 (10)
0x50|6c 5f 69 33 32                                 |l_i32           |
    |                                               |                |              d{}: 0x55-0x57.7 (3)
0x50|               03                              |     .          |                tag: "global" (0x3) 0x55-0x55.7 (1)
    |                                               |                |                gt{}: 0x56-0x57.7 (2)
0x50|                  7f                           |      .         |                  t: "i32" (0x7f) 0x56-0x56.7 (1)
0x50|                     00                        |       .        |                  m: "const" (0) 0x57-0x57.7 (1)
    |                                               |                |            [3]{}: im 0x58-0x6e.7 (23)
    |                                               |                |              mod{}: 0x58-0x60.7 (9)
0x50|                        08                     |        .       |                n: 8 0x58-0x58.7 (1)
0x50|                           73 70 65 63 74 65 73|         spectes|                b: "spectest" 0x59-0x60.7 (8)
0x60|74                                             |t               |
    |                                               |                |              nm{}: 0x61-0x6b.7 (11)
0x60|   0a                                          | .              |                n: 10 0x61-0x61.7 (1)
0x60|      67 6c 6f 62 61 6c 5f 69 33 32            |  global_i32    |                b: "global_i32" 0x62-0x6b.7 (10)
    |                                               |                |              d{}: 0x6c-0x6e.7 (3)
0x60|                                    03         |            .   |                tag: "global" (0x3) 0x6c-0x6c.7 (1)
    |                                               |                |                gt{}: 0x6d-0x6e.7 (2)
0x60|                                       7f      |             .  |                  t: "i32" (0x7f) 0x6d-0x6d.7 (1)
0x60|                                          00   |              . |                  m: "const" (0) 0x6e-0x6e.7 (1)
    |                                               |                |            [4]{}: im 0x6f-0x85.7 (23)
    |                                               |                |              mod{}: 0x6f-0x77.7 (9)
0x60|                                             08|               .|                n: 8 0x6f-0x6f.7 (1)
0x70|73 70 65 63 74 65 73 74                        |spectest        |                b: "spectest" 0x70-0x77.7 (8)
    |                                               |                |              nm{}: 0x78-0x82.7 (11)
0x70|                        0a                     |        .       |                n: 10 0x78-0x78.7 (1)
0x70|                           67 6c 6f 62 61 6c 5f|         global_|                b: "global_f32" 0x79-0x82.7 (10)
0x80|66 33 32                                       |f32             |
    |                                               |                |              d{}: 0x83-0x85.7 (3)
0x80|         03                                    |   .            |                tag: "global" (0x3) 0x83-0x83.7 (1)
    |                                               |                |                gt{}: 0x84-0x85.7 (2)
0x80|            7d                                 |    }           |                  t: "f32" (0x7d) 0x84-0x84.7 (1)
0x80|               00                              |     .          |                  m: "const" (0) 0x85-0x85.7 (1)
    |                                               |                |            [5]{}: im 0x86-0x9c.7 (23)
    |                                               |                |              mod{}: 0x86-0x8e.7 (9)
0x80|                  08                           |      .         |                n: 8 0x86-0x86.7 (1)
0x80|                     73 70 65 63 74 65 73 74   |       spectest |                b: "spectest" 0x87-0x8e.7 (8)
    |                                               |                |              nm{}: 0x8f-0x99.7 (11)
0x80|                                             0a|               .|                n: 10 0x8f-0x8f.7 (1)
0x90|67 6c 6f 62 61 6c 5f 66 36 34                  |global_f64      |                b: "global_f64" 0x90-0x99.7 (10)
    |                                               |                |              d{}: 0x9a-0x9c.7 (3)
0x90|                              03               |          .     |                tag: "global" (0x3) 0x9a-0x9a.7 (1)
    |                                               |                |                gt{}: 0x9b-0x9c.7 (2)
0x90|                                 7c            |           |    |                  t: "f64" (0x7c) 0x9b-0x9b.7 (1)
0x90|                                    00         |            .   |                  m: "const" (0) 0x9c-0x9c.7 (1)
    |                                               |                |    [2]{}: section 0x9d-0xa3.7 (7)
0x90|                                       03      |             .  |      id: "function section" (3) 0x9d-0x9d.7 (1)
0x90|                                          05   |              . |      size: 5 0x9e-0x9e.7 (1)
    |                                               |                |      content{}: 0x9f-0xa3.7 (5)
    |                                               |                |        x{}: 0x9f-0xa3.7 (5)
0x90|                                             04|               .|          n: 4 0x9f-0x9f.7 (1)
    |                                               |                |          x[0:4]: 0xa0-0xa3.7 (4)
0xa0|00                                             |.               |            [0]: 0 x 0xa0-0xa0.7 (1)
0xa0|   00                                          | .              |            [1]: 0 x 0xa1-0xa1.7 (1)
0xa0|      00                                       |  .             |            [2]: 0 x 0xa2-0xa2.7 (1)
0xa0|         00                                    |   .            |            [3]: 0 x 0xa3-0xa3.7 (1)
    |                                               |                |    [3]{}: section 0xa4-0xc6.7 (35)
0xa0|            07                                 |    .           |      id: "export section" (7) 0xa4-0xa4.7 (1)
0xa0|               21                              |     !          |      size: 33 0xa5-0xa5.7 (1)
    |                                               |                |      content{}: 0xa6-0xc6.7 (33)
    |                                               |                |        ex{}: 0xa6-0xc6.7 (33)
0xa0|                  04                           |      .         |          n: 4 0xa6-0xa6.7 (1)
    |                                               |                |          x[0:4]: 0xa7-0xc6.7 (32)
    |                                               |                |            [0]{}: ex 0xa7-0xae.7 (8)
    |                                               |                |              nm{}: 0xa7-0xac.7 (6)
0xa0|                     05                        |       .        |                n: 5 0xa7-0xa7.7 (1)
0xa0|                        67 65 74 2d 30         |        get-0   |                b: "get-0" 0xa8-0xac.7 (5)
    |                                               |                |              d{}: 0xad-0xae.7 (2)
0xa0|                                       00      |             .  |                tag: "funcidx" (0x0) 0xad-0xad.7 (1)
0xa0|                                          00   |              . |                x: 0 0xae-0xae.7 (1)
    |                                               |                |            [1]{}: ex 0xaf-0xb6.7 (8)
    |                                               |                |              nm{}: 0xaf-0xb4.7 (6)
0xa0|                                             05|               .|                n: 5 0xaf-0xaf.7 (1)
0xb0|67 65 74 2d 31                                 |get-1           |                b: "get-1" 0xb0-0xb4.7 (5)
    |                                               |                |              d{}: 0xb5-0xb6.7 (2)
0xb0|               00                              |     .          |                tag: "funcidx" (0x0) 0xb5-0xb5.7 (1)
0xb0|                  01                           |      .         |                x: 1 0xb6-0xb6.7 (1)
    |                                               |                |            [2]{}: ex 0xb7-0xbe.7 (8)
    |                                               |                |              nm{}: 0xb7-0xbc.7 (6)
0xb0|                     05                        |       .        |                n: 5 0xb7-0xb7.7 (1)
0xb0|                        67 65 74 2d 78         |        get-x   |                b: "get-x" 0xb8-0xbc.7 (5)
    |                                               |                |              d{}: 0xbd-0xbe.7 (2)
0xb0|                                       00      |             .  |                tag: "funcidx" (0x0) 0xbd-0xbd.7 (1)
0xb0|                                          02   |              . |                x: 2 0xbe-0xbe.7 (1)
    |                                               |                |            [3]{}: ex 0xbf-0xc6.7 (8)
    |                                               |                |              nm{}: 0xbf-0xc4.7 (6)
0xb0|                                             05|               .|                n: 5 0xbf-0xbf.7 (1)
0xc0|67 65 74 2d 79                                 |get-y           |                b: "get-y" 0xc0-0xc4.7 (5)
    |                                               |                |              d{}: 0xc5-0xc6.7 (2)
0xc0|               00                              |     .          |                tag: "funcidx" (0x0) 0xc5-0xc5.7 (1)
0xc0|                  03                           |      .         |                x: 3 0xc6-0xc6.7 (1)
    |                                               |                |    [4]{}: section 0xc7-0xdd.7 (23)
0xc0|                     0a                        |       .        |      id: "code section" (10) 0xc7-0xc7.7 (1)
0xc0|                        15                     |        .       |      size: 21 0xc8-0xc8.7 (1)
    |                                               |                |      content{}: 0xc9-0xdd.7 (21)
    |                                               |                |        code{}: 0xc9-0xdd.7 (21)
0xc0|                           04                  |         .      |          n: 4 0xc9-0xc9.7 (1)
    |                                               |                |          x[0:4]: 0xca-0xdd.7 (20)
    |                                               |                |            [0]{}: code 0xca-0xce.7 (5)
0xc0|                              04               |          .     |              size: 4 0xca-0xca.7 (1)
    |                                               |                |              code{}: 0xcb-0xce.7 (4)
    |                                               |                |                t{}: 0xcb-0xcb.7 (1)
0xc0|                                 00            |           .    |                  n: 0 0xcb-0xcb.7 (1)
    |                                               |                |                  x[0:0]: 0xcc-NA (0)
    |                                               |                |                e[0:2]: 0xcc-0xce.7 (3)
    |                                               |                |                  [0]{}: in 0xcc-0xcd.7 (2)
0xc0|                                    23         |            #   |                    global.get: 0x23 (valid) 0xcc-0xcc.7 (1)
0xc0|                                       00      |             .  |                    x: 0 0xcd-0xcd.7 (1)
    |                                               |                |                  [1]{}: in 0xce-0xce.7 (1)
0xc0|                                          0b   |              . |                    end: 0xb (valid) 0xce-0xce.7 (1)
    |                                               |                |            [1]{}: code 0xcf-0xd3.7 (5)
0xc0|                                             04|               .|              size: 4 0xcf-0xcf.7 (1)
    |                                               |                |              code{}: 0xd0-0xd3.7 (4)
    |                                               |                |                t{}: 0xd0-0xd0.7 (1)
0xd0|00                                             |.               |                  n: 0 0xd0-0xd0.7 (1)
    |                                               |                |                  x[0:0]: 0xd1-NA (0)
    |                                               |                |                e[0:2]: 0xd1-0xd3.7 (3)
    |                                               |                |                  [0]{}: in 0xd1-0xd2.7 (2)
0xd0|   23                                          | #              |                    global.get: 0x23 (valid) 0xd1-0xd1.7 (1)
0xd0|      01                                       |  .             |                    x: 1 0xd2-0xd2.7 (1)
    |                                               |                |                  [1]{}: in 0xd3-0xd3.7 (1)
0xd0|         0b                                    |   .            |                    end: 0xb (valid) 0xd3-0xd3.7 (1)
    |                                               |                |            [2]{}: code 0xd4-0xd8.7 (5)
0xd0|            04                                 |    .           |              size: 4 0xd4-0xd4.7 (1)
    |                                               |                |              code{}: 0xd5-0xd8.7 (4)
    |                                               |                |                t{}: 0xd5-0xd5.7 (1)
0xd0|               00                              |     .          |                  n: 0 0xd5-0xd5.7 (1)
    |                                               |                |                  x[0:0]: 0xd6-NA (0)
    |                                               |                |                e[0:2]: 0xd6-0xd8.7 (3)
    |                                               |                |                  [0]{}: in 0xd6-0xd7.7 (2)
0xd0|                  23                           |      #         |                    global.get: 0x23 (valid) 0xd6-0xd6.7 (1)
0xd0|                     02                        |       .        |                    x: 2 0xd7-0xd7.7 (1)
    |                                               |                |                  [1]{}: in 0xd8-0xd8.7 (1)
0xd0|                        0b                     |        .       |                    end: 0xb (valid) 0xd8-0xd8.7 (1)
    |                                               |                |            [3]{}: code 0xd9-0xdd.7 (5)
0xd0|                           04                  |         .      |              size: 4 0xd9-0xd9.7 (1)
    |                                               |                |              code{}: 0xda-0xdd.7 (4)
    |                                               |                |                t{}: 0xda-0xda.7 (1)
0xd0|                              00               |          .     |                  n: 0 0xda-0xda.7 (1)
    |                                               |                |                  x[0:0]: 0xdb-NA (0)
    |                                               |                |                e[0:2]: 0xdb-0xdd.7 (3)
    |                                               |                |                  [0]{}: in 0xdb-0xdc.7 (2)
0xd0|                                 23            |           #    |                    global.get: 0x23 (valid) 0xdb-0xdb.7 (1)
0xd0|                                    03         |            .   |                    x: 3 0xdc-0xdc.7 (1)
    |                                               |                |                  [1]{}: in 0xdd-0xdd.7 (1)
0xd0|                                       0b|     |             .| |                    end: 0xb (valid) 0xdd-0xdd.7 (1)
