$ fq -d wasm dv imports-39.wasm
    |00 01 02 03 04 05 06 07 08 09 0a 0b 0c 0d 0e 0f|0123456789abcdef|.{}: imports-39.wasm (wasm) 0x0-0x49 (73)
0x00|00 61 73 6d                                    |.asm            |  magic: raw bits (valid) 0x0-0x4 (4)
0x00|            01 00 00 00                        |    ....        |  version: 1 0x4-0x8 (4)
    |                                               |                |  sections[0:6]: 0x8-0x49 (65)
    |                                               |                |    [0]{}: section 0x8-0x10 (8)
0x00|                        01                     |        .       |      id: "type_section" (1) 0x8-0x9 (1)
0x00|                           06                  |         .      |      size: 6 (valid) 0x9-0xa (1)
    |                                               |                |      content{}: 0xa-0x10 (6)
    |                                               |                |        ft{}: 0xa-0x10 (6)
0x00|                              01               |          .     |          n: 1 (valid) 0xa-0xb (1)
    |                                               |                |          x[0:1]: 0xb-0x10 (5)
    |                                               |                |            [0]{}: ft 0xb-0x10 (5)
0x00|                                 60            |           `    |              tag: 0x60 (valid) 0xb-0xc (1)
    |                                               |                |              rt1{}: 0xc-0xe (2)
0x00|                                    01         |            .   |                n: 1 (valid) 0xc-0xd (1)
    |                                               |                |                x[0:1]: 0xd-0xe (1)
0x00|                                       7f      |             .  |                  [0]: "i32" (0x7f) t 0xd-0xe (1)
    |                                               |                |              rt2{}: 0xe-0x10 (2)
0x00|                                          01   |              . |                n: 1 (valid) 0xe-0xf (1)
    |                                               |                |                x[0:1]: 0xf-0x10 (1)
0x00|                                             7f|               .|                  [0]: "i32" (0x7f) t 0xf-0x10 (1)
    |                                               |                |    [1]{}: section 0x10-0x27 (23)
0x10|02                                             |.               |      id: "import_section" (2) 0x10-0x11 (1)
0x10|   15                                          | .              |      size: 21 (valid) 0x11-0x12 (1)
    |                                               |                |      content{}: 0x12-0x27 (21)
    |                                               |                |        im{}: 0x12-0x27 (21)
0x10|      01                                       |  .             |          n: 1 (valid) 0x12-0x13 (1)
    |                                               |                |          x[0:1]: 0x13-0x27 (20)
    |                                               |                |            [0]{}: im 0x13-0x27 (20)
    |                                               |                |              mod{}: 0x13-0x1c (9)
0x10|         08                                    |   .            |                n: 8 (valid) 0x13-0x14 (1)
0x10|            73 70 65 63 74 65 73 74            |    spectest    |                b: "spectest" 0x14-0x1c (8)
    |                                               |                |              nm{}: 0x1c-0x23 (7)
0x10|                                    06         |            .   |                n: 6 (valid) 0x1c-0x1d (1)
0x10|                                       6d 65 6d|             mem|                b: "memory" 0x1d-0x23 (6)
0x20|6f 72 79                                       |ory             |
    |                                               |                |              d{}: 0x23-0x27 (4)
0x20|         02                                    |   .            |                tag: "mem" (0x2) 0x23-0x24 (1)
    |                                               |                |                mt{}: 0x24-0x27 (3)
    |                                               |                |                  lim{}: 0x24-0x27 (3)
0x20|            01                                 |    .           |                    tag: 0x1 0x24-0x25 (1)
0x20|               01                              |     .          |                    n: 1 (valid) 0x25-0x26 (1)
0x20|                  02                           |      .         |                    m: 2 (valid) 0x26-0x27 (1)
    |                                               |                |    [2]{}: section 0x27-0x2b (4)
0x20|                     03                        |       .        |      id: "function_section" (3) 0x27-0x28 (1)
0x20|                        02                     |        .       |      size: 2 (valid) 0x28-0x29 (1)
    |                                               |                |      content{}: 0x29-0x2b (2)
    |                                               |                |        x{}: 0x29-0x2b (2)
0x20|                           01                  |         .      |          n: 1 (valid) 0x29-0x2a (1)
    |                                               |                |          x[0:1]: 0x2a-0x2b (1)
0x20|                              00               |          .     |            [0]: 0 x (valid) 0x2a-0x2b (1)
    |                                               |                |    [3]{}: section 0x2b-0x35 (10)
0x20|                                 07            |           .    |      id: "export_section" (7) 0x2b-0x2c (1)
0x20|                                    08         |            .   |      size: 8 (valid) 0x2c-0x2d (1)
    |                                               |                |      content{}: 0x2d-0x35 (8)
    |                                               |                |        ex{}: 0x2d-0x35 (8)
0x20|                                       01      |             .  |          n: 1 (valid) 0x2d-0x2e (1)
    |                                               |                |          x[0:1]: 0x2e-0x35 (7)
    |                                               |                |            [0]{}: ex 0x2e-0x35 (7)
    |                                               |                |              nm{}: 0x2e-0x33 (5)
0x20|                                          04   |              . |                n: 4 (valid) 0x2e-0x2f (1)
0x20|                                             6c|               l|                b: "load" 0x2f-0x33 (4)
0x30|6f 61 64                                       |oad             |
    |                                               |                |              d{}: 0x33-0x35 (2)
0x30|         00                                    |   .            |                tag: "funcidx" (0x0) 0x33-0x34 (1)
0x30|            00                                 |    .           |                x: 0 (valid) 0x34-0x35 (1)
    |                                               |                |    [4]{}: section 0x35-0x40 (11)
0x30|               0a                              |     .          |      id: "code_section" (10) 0x35-0x36 (1)
0x30|                  09                           |      .         |      size: 9 (valid) 0x36-0x37 (1)
    |                                               |                |      content{}: 0x37-0x40 (9)
    |                                               |                |        code{}: 0x37-0x40 (9)
0x30|                     01                        |       .        |          n: 1 (valid) 0x37-0x38 (1)
    |                                               |                |          x[0:1]: 0x38-0x40 (8)
    |                                               |                |            [0]{}: code 0x38-0x40 (8)
0x30|                        07                     |        .       |              size: 7 (valid) 0x38-0x39 (1)
    |                                               |                |              code{}: 0x39-0x40 (7)
    |                                               |                |                t{}: 0x39-0x3a (1)
0x30|                           00                  |         .      |                  n: 0 (valid) 0x39-0x3a (1)
    |                                               |                |                  x[0:0]: 0x3a-0x3a (0)
    |                                               |                |                e[0:3]: 0x3a-0x40 (6)
    |                                               |                |                  [0]{}: in 0x3a-0x3c (2)
0x30|                              20               |                |                    opcode: "local.get" (0x20) 0x3a-0x3b (1)
0x30|                                 00            |           .    |                    x: 0 (valid) 0x3b-0x3c (1)
    |                                               |                |                  [1]{}: in 0x3c-0x3f (3)
0x30|                                    28         |            (   |                    opcode: "i32.load" (0x28) 0x3c-0x3d (1)
    |                                               |                |                    m{}: 0x3d-0x3f (2)
0x30|                                       02      |             .  |                      a: 2 (valid) 0x3d-0x3e (1)
0x30|                                          00   |              . |                      o: 0 (valid) 0x3e-0x3f (1)
    |                                               |                |                  [2]{}: in 0x3f-0x40 (1)
0x30|                                             0b|               .|                    opcode: "end" (0xb) 0x3f-0x40 (1)
    |                                               |                |    [5]{}: section 0x40-0x49 (9)
0x40|0b                                             |.               |      id: "data_section" (11) 0x40-0x41 (1)
0x40|   07                                          | .              |      size: 7 (valid) 0x41-0x42 (1)
    |                                               |                |      content{}: 0x42-0x49 (7)
    |                                               |                |        seg{}: 0x42-0x49 (7)
0x40|      01                                       |  .             |          n: 1 (valid) 0x42-0x43 (1)
    |                                               |                |          x[0:1]: 0x43-0x49 (6)
    |                                               |                |            [0]{}: seg 0x43-0x49 (6)
0x40|         00                                    |   .            |              tag: 0 (valid) 0x43-0x44 (1)
    |                                               |                |              e[0:2]: 0x44-0x47 (3)
    |                                               |                |                [0]{}: in 0x44-0x46 (2)
0x40|            41                                 |    A           |                  opcode: "i32.const" (0x41) 0x44-0x45 (1)
0x40|               0a                              |     .          |                  n: 10 (valid) 0x45-0x46 (1)
    |                                               |                |                [1]{}: in 0x46-0x47 (1)
0x40|                  0b                           |      .         |                  opcode: "end" (0xb) 0x46-0x47 (1)
    |                                               |                |              b{}: 0x47-0x49 (2)
0x40|                     01                        |       .        |                n: 1 (valid) 0x47-0x48 (1)
0x40|                        10|                    |        .|      |                x: raw bits 0x48-0x49 (1)
