$ fq -d wasm dv imports-12.wasm
    |00 01 02 03 04 05 06 07 08 09 0a 0b 0c 0d 0e 0f|0123456789abcdef|.{}: imports-12.wasm (wasm) 0x0-0x1d.7 (30)
0x00|00 61 73 6d                                    |.asm            |  magic: raw bits (valid) 0x0-0x3.7 (4)
0x00|            01 00 00 00                        |    ....        |  version: 1 0x4-0x7.7 (4)
    |                                               |                |  sections[0:1]: 0x8-0x1d.7 (22)
    |                                               |                |    [0]{}: section 0x8-0x1d.7 (22)
0x00|                        02                     |        .       |      id: "import section" (2) 0x8-0x8.7 (1)
0x00|                           14                  |         .      |      size: 20 0x9-0x9.7 (1)
    |                                               |                |      content{}: 0xa-0x1d.7 (20)
    |                                               |                |        im{}: 0xa-0x1d.7 (20)
0x00|                              01               |          .     |          n: 1 0xa-0xa.7 (1)
    |                                               |                |          x[0:1]: 0xb-0x1d.7 (19)
    |                                               |                |            [0]{}: im 0xb-0x1d.7 (19)
    |                                               |                |              mod{}: 0xb-0xf.7 (5)
0x00|                                 04            |           .    |                n: 4 0xb-0xb.7 (1)
0x00|                                    74 65 73 74|            test|                b: "test" 0xc-0xf.7 (4)
    |                                               |                |              nm{}: 0x10-0x1a.7 (11)
0x10|0a                                             |.               |                n: 10 0x10-0x10.7 (1)
0x10|   67 6c 6f 62 61 6c 2d 69 33 32               | global-i32     |                b: "global-i32" 0x11-0x1a.7 (10)
    |                                               |                |              d{}: 0x1b-0x1d.7 (3)
0x10|                                 03            |           .    |                tag: "global" (0x3) 0x1b-0x1b.7 (1)
    |                                               |                |                gt{}: 0x1c-0x1d.7 (2)
0x10|                                    7f         |            .   |                  t: "i32" (0x7f) 0x1c-0x1c.7 (1)
0x10|                                       00|     |             .| |                  m: "const" (0) 0x1d-0x1d.7 (1)
