$ fq -d wasm dv imports-5.wasm
    |00 01 02 03 04 05 06 07 08 09 0a 0b 0c 0d 0e 0f|0123456789abcdef|.{}: imports-5.wasm (wasm) 0x0-0x21.7 (34)
0x00|00 61 73 6d                                    |.asm            |  magic: raw bits (valid) 0x0-0x3.7 (4)
0x00|            01 00 00 00                        |    ....        |  version: 1 0x4-0x7.7 (4)
    |                                               |                |  sections[0:2]: 0x8-0x21.7 (26)
    |                                               |                |    [0]{}: section 0x8-0xe.7 (7)
0x00|                        01                     |        .       |      id: "type section" (1) 0x8-0x8.7 (1)
0x00|                           05                  |         .      |      size: 5 0x9-0x9.7 (1)
    |                                               |                |      content{}: 0xa-0xe.7 (5)
    |                                               |                |        ft{}: 0xa-0xe.7 (5)
0x00|                              01               |          .     |          n: 1 0xa-0xa.7 (1)
    |                                               |                |          x[0:1]: 0xb-0xe.7 (4)
    |                                               |                |            [0]{}: ft 0xb-0xe.7 (4)
0x00|                                 60            |           `    |              tag: 0x60 (valid) 0xb-0xb.7 (1)
    |                                               |                |              rt1{}: 0xc-0xd.7 (2)
0x00|                                    01         |            .   |                n: 1 0xc-0xc.7 (1)
    |                                               |                |                x[0:1]: 0xd-0xd.7 (1)
0x00|                                       7f      |             .  |                  [0]: "i32" (0x7f) t 0xd-0xd.7 (1)
    |                                               |                |              rt2{}: 0xe-0xe.7 (1)
0x00|                                          00   |              . |                n: 0 0xe-0xe.7 (1)
    |                                               |                |                x[0:0]: 0xf-NA (0)
    |                                               |                |    [1]{}: section 0xf-0x21.7 (19)
0x00|                                             02|               .|      id: "import section" (2) 0xf-0xf.7 (1)
0x10|11                                             |.               |      size: 17 0x10-0x10.7 (1)
    |                                               |                |      content{}: 0x11-0x21.7 (17)
    |                                               |                |        im{}: 0x11-0x21.7 (17)
0x10|   01                                          | .              |          n: 1 0x11-0x11.7 (1)
    |                                               |                |          x[0:1]: 0x12-0x21.7 (16)
    |                                               |                |            [0]{}: im 0x12-0x21.7 (16)
    |                                               |                |              mod{}: 0x12-0x16.7 (5)
0x10|      04                                       |  .             |                n: 4 0x12-0x12.7 (1)
0x10|         74 65 73 74                           |   test         |                b: "test" 0x13-0x16.7 (4)
    |                                               |                |              nm{}: 0x17-0x1f.7 (9)
0x10|                     08                        |       .        |                n: 8 0x17-0x17.7 (1)
0x10|                        66 75 6e 63 2d 69 33 32|        func-i32|                b: "func-i32" 0x18-0x1f.7 (8)
    |                                               |                |              d{}: 0x20-0x21.7 (2)
0x20|00                                             |.               |                tag: "func" (0x0) 0x20-0x20.7 (1)
0x20|   00|                                         | .|             |                x: 0 0x21-0x21.7 (1)
