$ fq -d wasm dv imports-8.wasm
    |00 01 02 03 04 05 06 07 08 09 0a 0b 0c 0d 0e 0f|0123456789abcdef|.{}: imports-8.wasm (wasm) 0x0-0x23 (35)
0x00|00 61 73 6d                                    |.asm            |  magic: raw bits (valid) 0x0-0x4 (4)
0x00|            01 00 00 00                        |    ....        |  version: 1 0x4-0x8 (4)
    |                                               |                |  sections[0:2]: 0x8-0x23 (27)
    |                                               |                |    [0]{}: section 0x8-0xf (7)
0x00|                        01                     |        .       |      id: "type_section" (1) 0x8-0x9 (1)
0x00|                           05                  |         .      |      size: 5 (valid) 0x9-0xa (1)
    |                                               |                |      content{}: 0xa-0xf (5)
    |                                               |                |        ft{}: 0xa-0xf (5)
0x00|                              01               |          .     |          n: 1 (valid) 0xa-0xb (1)
    |                                               |                |          x[0:1]: 0xb-0xf (4)
    |                                               |                |            [0]{}: ft 0xb-0xf (4)
0x00|                                 60            |           `    |              tag: 0x60 (valid) 0xb-0xc (1)
    |                                               |                |              rt1{}: 0xc-0xd (1)
0x00|                                    00         |            .   |                n: 0 (valid) 0xc-0xd (1)
    |                                               |                |                x[0:0]: 0xd-0xd (0)
    |                                               |                |              rt2{}: 0xd-0xf (2)
0x00|                                       01      |             .  |                n: 1 (valid) 0xd-0xe (1)
    |                                               |                |                x[0:1]: 0xe-0xf (1)
0x00|                                          7d   |              } |                  [0]: "f32" (0x7d) t 0xe-0xf (1)
    |                                               |                |    [1]{}: section 0xf-0x23 (20)
0x00|                                             02|               .|      id: "import_section" (2) 0xf-0x10 (1)
0x10|12                                             |.               |      size: 18 (valid) 0x10-0x11 (1)
    |                                               |                |      content{}: 0x11-0x23 (18)
    |                                               |                |        im{}: 0x11-0x23 (18)
0x10|   01                                          | .              |          n: 1 (valid) 0x11-0x12 (1)
    |                                               |                |          x[0:1]: 0x12-0x23 (17)
    |                                               |                |            [0]{}: im 0x12-0x23 (17)
    |                                               |                |              mod{}: 0x12-0x17 (5)
0x10|      04                                       |  .             |                n: 4 (valid) 0x12-0x13 (1)
0x10|         74 65 73 74                           |   test         |                b: "test" 0x13-0x17 (4)
    |                                               |                |              nm{}: 0x17-0x21 (10)
0x10|                     09                        |       .        |                n: 9 (valid) 0x17-0x18 (1)
0x10|                        66 75 6e 63 2d 3e 66 33|        func->f3|                b: "func->f32" 0x18-0x21 (9)
0x20|32                                             |2               |
    |                                               |                |              d{}: 0x21-0x23 (2)
0x20|   00                                          | .              |                tag: "func" (0x0) 0x21-0x22 (1)
0x20|      00|                                      |  .|            |                x: 0 (valid) 0x22-0x23 (1)
