$ fq -d wasm dv int_exprs-8.wasm
    |00 01 02 03 04 05 06 07 08 09 0a 0b 0c 0d 0e 0f|0123456789abcdef|.{}: int_exprs-8.wasm (wasm) 0x0-0xad.7 (174)
0x00|00 61 73 6d                                    |.asm            |  magic: raw bits (valid) 0x0-0x3.7 (4)
0x00|            01 00 00 00                        |    ....        |  version: 1 0x4-0x7.7 (4)
    |                                               |                |  sections[0:4]: 0x8-0xad.7 (166)
    |                                               |                |    [0]{}: section 0x8-0x14.7 (13)
0x00|                        01                     |        .       |      id: "type section" (1) 0x8-0x8.7 (1)
0x00|                           0b                  |         .      |      size: 11 0x9-0x9.7 (1)
    |                                               |                |      content{}: 0xa-0x14.7 (11)
    |                                               |                |        ft{}: 0xa-0x14.7 (11)
0x00|                              02               |          .     |          n: 2 0xa-0xa.7 (1)
    |                                               |                |          x[0:2]: 0xb-0x14.7 (10)
    |                                               |                |            [0]{}: ft 0xb-0xf.7 (5)
0x00|                                 60            |           `    |              tag: 0x60 (valid) 0xb-0xb.7 (1)
    |                                               |                |              rt1{}: 0xc-0xd.7 (2)
0x00|                                    01         |            .   |                n: 1 0xc-0xc.7 (1)
    |                                               |                |                x[0:1]: 0xd-0xd.7 (1)
0x00|                                       7f      |             .  |                  [0]: "i32" (0x7f) t 0xd-0xd.7 (1)
    |                                               |                |              rt2{}: 0xe-0xf.7 (2)
0x00|                                          01   |              . |                n: 1 0xe-0xe.7 (1)
    |                                               |                |                x[0:1]: 0xf-0xf.7 (1)
0x00|                                             7f|               .|                  [0]: "i32" (0x7f) t 0xf-0xf.7 (1)
    |                                               |                |            [1]{}: ft 0x10-0x14.7 (5)
0x10|60                                             |`               |              tag: 0x60 (valid) 0x10-0x10.7 (1)
    |                                               |                |              rt1{}: 0x11-0x12.7 (2)
0x10|   01                                          | .              |                n: 1 0x11-0x11.7 (1)
    |                                               |                |                x[0:1]: 0x12-0x12.7 (1)
0x10|      7e                                       |  ~             |                  [0]: "i64" (0x7e) t 0x12-0x12.7 (1)
    |                                               |                |              rt2{}: 0x13-0x14.7 (2)
0x10|         01                                    |   .            |                n: 1 0x13-0x13.7 (1)
    |                                               |                |                x[0:1]: 0x14-0x14.7 (1)
0x10|            7e                                 |    ~           |                  [0]: "i64" (0x7e) t 0x14-0x14.7 (1)
    |                                               |                |    [1]{}: section 0x15-0x1b.7 (7)
0x10|               03                              |     .          |      id: "function section" (3) 0x15-0x15.7 (1)
0x10|                  05                           |      .         |      size: 5 0x16-0x16.7 (1)
    |                                               |                |      content{}: 0x17-0x1b.7 (5)
    |                                               |                |        x{}: 0x17-0x1b.7 (5)
0x10|                     04                        |       .        |          n: 4 0x17-0x17.7 (1)
    |                                               |                |          x[0:4]: 0x18-0x1b.7 (4)
0x10|                        00                     |        .       |            [0]: 0 x 0x18-0x18.7 (1)
0x10|                           00                  |         .      |            [1]: 0 x 0x19-0x19.7 (1)
0x10|                              01               |          .     |            [2]: 1 x 0x1a-0x1a.7 (1)
0x10|                                 01            |           .    |            [3]: 1 x 0x1b-0x1b.7 (1)
    |                                               |                |    [2]{}: section 0x1c-0x7e.7 (99)
0x10|                                    07         |            .   |      id: "export section" (7) 0x1c-0x1c.7 (1)
0x10|                                       61      |             a  |      size: 97 0x1d-0x1d.7 (1)
    |                                               |                |      content{}: 0x1e-0x7e.7 (97)
    |                                               |                |        ex{}: 0x1e-0x7e.7 (97)
0x10|                                          04   |              . |          n: 4 0x1e-0x1e.7 (1)
    |                                               |                |          x[0:4]: 0x1f-0x7e.7 (96)
    |                                               |                |            [0]{}: ex 0x1f-0x36.7 (24)
    |                                               |                |              nm{}: 0x1f-0x34.7 (22)
0x10|                                             15|               .|                n: 21 0x1f-0x1f.7 (1)
0x20|69 33 32 2e 6e 6f 5f 66 6f 6c 64 5f 6d 75 6c 5f|i32.no_fold_mul_|                b: "i32.no_fold_mul_div_s" 0x20-0x34.7 (21)
0x30|64 69 76 5f 73                                 |div_s           |
    |                                               |                |              d{}: 0x35-0x36.7 (2)
0x30|               00                              |     .          |                tag: "funcidx" (0x0) 0x35-0x35.7 (1)
0x30|                  00                           |      .         |                x: 0 0x36-0x36.7 (1)
    |                                               |                |            [1]{}: ex 0x37-0x4e.7 (24)
    |                                               |                |              nm{}: 0x37-0x4c.7 (22)
0x30|                     15                        |       .        |                n: 21 0x37-0x37.7 (1)
0x30|                        69 33 32 2e 6e 6f 5f 66|        i32.no_f|                b: "i32.no_fold_mul_div_u" 0x38-0x4c.7 (21)
0x40|6f 6c 64 5f 6d 75 6c 5f 64 69 76 5f 75         |old_mul_div_u   |
    |                                               |                |              d{}: 0x4d-0x4e.7 (2)
0x40|                                       00      |             .  |                tag: "funcidx" (0x0) 0x4d-0x4d.7 (1)
0x40|                                          01   |              . |                x: 1 0x4e-0x4e.7 (1)
    |                                               |                |            [2]{}: ex 0x4f-0x66.7 (24)
    |                                               |                |              nm{}: 0x4f-0x64.7 (22)
0x40|                                             15|               .|                n: 21 0x4f-0x4f.7 (1)
0x50|69 36 34 2e 6e 6f 5f 66 6f 6c 64 5f 6d 75 6c 5f|i64.no_fold_mul_|                b: "i64.no_fold_mul_div_s" 0x50-0x64.7 (21)
0x60|64 69 76 5f 73                                 |div_s           |
    |                                               |                |              d{}: 0x65-0x66.7 (2)
0x60|               00                              |     .          |                tag: "funcidx" (0x0) 0x65-0x65.7 (1)
0x60|                  02                           |      .         |                x: 2 0x66-0x66.7 (1)
    |                                               |                |            [3]{}: ex 0x67-0x7e.7 (24)
    |                                               |                |              nm{}: 0x67-0x7c.7 (22)
0x60|                     15                        |       .        |                n: 21 0x67-0x67.7 (1)
0x60|                        69 36 34 2e 6e 6f 5f 66|        i64.no_f|                b: "i64.no_fold_mul_div_u" 0x68-0x7c.7 (21)
0x70|6f 6c 64 5f 6d 75 6c 5f 64 69 76 5f 75         |old_mul_div_u   |
    |                                               |                |              d{}: 0x7d-0x7e.7 (2)
0x70|                                       00      |             .  |                tag: "funcidx" (0x0) 0x7d-0x7d.7 (1)
0x70|                                          03   |              . |                x: 3 0x7e-0x7e.7 (1)
    |                                               |                |    [3]{}: section 0x7f-0xad.7 (47)
0x70|                                             0a|               .|      id: "code section" (10) 0x7f-0x7f.7 (1)
0x80|2d                                             |-               |      size: 45 0x80-0x80.7 (1)
    |                                               |                |      content{}: 0x81-0xad.7 (45)
    |                                               |                |        code{}: 0x81-0xad.7 (45)
0x80|   04                                          | .              |          n: 4 0x81-0x81.7 (1)
    |                                               |                |          x[0:4]: 0x82-0xad.7 (44)
    |                                               |                |            [0]{}: code 0x82-0x8c.7 (11)
0x80|      0a                                       |  .             |              size: 10 0x82-0x82.7 (1)
    |                                               |                |              code{}: 0x83-0x8c.7 (10)
    |                                               |                |                t{}: 0x83-0x83.7 (1)
0x80|         00                                    |   .            |                  n: 0 0x83-0x83.7 (1)
    |                                               |                |                  x[0:0]: 0x84-NA (0)
    |                                               |                |                e[0:6]: 0x84-0x8c.7 (9)
    |                                               |                |                  [0]{}: in 0x84-0x85.7 (2)
0x80|            20                                 |                |                    local.get: 0x20 (valid) 0x84-0x84.7 (1)
0x80|               00                              |     .          |                    x: 0 0x85-0x85.7 (1)
    |                                               |                |                  [1]{}: in 0x86-0x87.7 (2)
0x80|                  41                           |      A         |                    i32.const: 0x41 (valid) 0x86-0x86.7 (1)
0x80|                     06                        |       .        |                    n: 6 0x87-0x87.7 (1)
    |                                               |                |                  [2]{}: in 0x88-0x88.7 (1)
0x80|                        6c                     |        l       |                    i32.mul: 0x6c (valid) 0x88-0x88.7 (1)
    |                                               |                |                  [3]{}: in 0x89-0x8a.7 (2)
0x80|                           41                  |         A      |                    i32.const: 0x41 (valid) 0x89-0x89.7 (1)
0x80|                              06               |          .     |                    n: 6 0x8a-0x8a.7 (1)
    |                                               |                |                  [4]{}: in 0x8b-0x8b.7 (1)
0x80|                                 6d            |           m    |                    i32.div_s: 0x6d (valid) 0x8b-0x8b.7 (1)
    |                                               |                |                  [5]{}: in 0x8c-0x8c.7 (1)
0x80|                                    0b         |            .   |                    end: 0xb (valid) 0x8c-0x8c.7 (1)
    |                                               |                |            [1]{}: code 0x8d-0x97.7 (11)
0x80|                                       0a      |             .  |              size: 10 0x8d-0x8d.7 (1)
    |                                               |                |              code{}: 0x8e-0x97.7 (10)
    |                                               |                |                t{}: 0x8e-0x8e.7 (1)
0x80|                                          00   |              . |                  n: 0 0x8e-0x8e.7 (1)
    |                                               |                |                  x[0:0]: 0x8f-NA (0)
    |                                               |                |                e[0:6]: 0x8f-0x97.7 (9)
    |                                               |                |                  [0]{}: in 0x8f-0x90.7 (2)
0x80|                                             20|                |                    local.get: 0x20 (valid) 0x8f-0x8f.7 (1)
0x90|00                                             |.               |                    x: 0 0x90-0x90.7 (1)
    |                                               |                |                  [1]{}: in 0x91-0x92.7 (2)
0x90|   41                                          | A              |                    i32.const: 0x41 (valid) 0x91-0x91.7 (1)
0x90|      06                                       |  .             |                    n: 6 0x92-0x92.7 (1)
    |                                               |                |                  [2]{}: in 0x93-0x93.7 (1)
0x90|         6c                                    |   l            |                    i32.mul: 0x6c (valid) 0x93-0x93.7 (1)
    |                                               |                |                  [3]{}: in 0x94-0x95.7 (2)
0x90|            41                                 |    A           |                    i32.const: 0x41 (valid) 0x94-0x94.7 (1)
0x90|               06                              |     .          |                    n: 6 0x95-0x95.7 (1)
    |                                               |                |                  [4]{}: in 0x96-0x96.7 (1)
0x90|                  6e                           |      n         |                    i32.div_u: 0x6e (valid) 0x96-0x96.7 (1)
    |                                               |                |                  [5]{}: in 0x97-0x97.7 (1)
0x90|                     0b                        |       .        |                    end: 0xb (valid) 0x97-0x97.7 (1)
    |                                               |                |            [2]{}: code 0x98-0xa2.7 (11)
0x90|                        0a                     |        .       |              size: 10 0x98-0x98.7 (1)
    |                                               |                |              code{}: 0x99-0xa2.7 (10)
    |                                               |                |                t{}: 0x99-0x99.7 (1)
0x90|                           00                  |         .      |                  n: 0 0x99-0x99.7 (1)
    |                                               |                |                  x[0:0]: 0x9a-NA (0)
    |                                               |                |                e[0:6]: 0x9a-0xa2.7 (9)
    |                                               |                |                  [0]{}: in 0x9a-0x9b.7 (2)
0x90|                              20               |                |                    local.get: 0x20 (valid) 0x9a-0x9a.7 (1)
0x90|                                 00            |           .    |                    x: 0 0x9b-0x9b.7 (1)
    |                                               |                |                  [1]{}: in 0x9c-0x9d.7 (2)
0x90|                                    42         |            B   |                    i64.const: 0x42 (valid) 0x9c-0x9c.7 (1)
0x90|                                       06      |             .  |                    n: 6 0x9d-0x9d.7 (1)
    |                                               |                |                  [2]{}: in 0x9e-0x9e.7 (1)
0x90|                                          7e   |              ~ |                    i64.mul: 0x7e (valid) 0x9e-0x9e.7 (1)
    |                                               |                |                  [3]{}: in 0x9f-0xa0.7 (2)
0x90|                                             42|               B|                    i64.const: 0x42 (valid) 0x9f-0x9f.7 (1)
0xa0|06                                             |.               |                    n: 6 0xa0-0xa0.7 (1)
    |                                               |                |                  [4]{}: in 0xa1-0xa1.7 (1)
0xa0|   7f                                          | .              |                    i64.div_s: 0x7f (valid) 0xa1-0xa1.7 (1)
    |                                               |                |                  [5]{}: in 0xa2-0xa2.7 (1)
0xa0|      0b                                       |  .             |                    end: 0xb (valid) 0xa2-0xa2.7 (1)
    |                                               |                |            [3]{}: code 0xa3-0xad.7 (11)
0xa0|         0a                                    |   .            |              size: 10 0xa3-0xa3.7 (1)
    |                                               |                |              code{}: 0xa4-0xad.7 (10)
    |                                               |                |                t{}: 0xa4-0xa4.7 (1)
0xa0|            00                                 |    .           |                  n: 0 0xa4-0xa4.7 (1)
    |                                               |                |                  x[0:0]: 0xa5-NA (0)
    |                                               |                |                e[0:6]: 0xa5-0xad.7 (9)
    |                                               |                |                  [0]{}: in 0xa5-0xa6.7 (2)
0xa0|               20                              |                |                    local.get: 0x20 (valid) 0xa5-0xa5.7 (1)
0xa0|                  00                           |      .         |                    x: 0 0xa6-0xa6.7 (1)
    |                                               |                |                  [1]{}: in 0xa7-0xa8.7 (2)
0xa0|                     42                        |       B        |                    i64.const: 0x42 (valid) 0xa7-0xa7.7 (1)
0xa0|                        06                     |        .       |                    n: 6 0xa8-0xa8.7 (1)
    |                                               |                |                  [2]{}: in 0xa9-0xa9.7 (1)
0xa0|                           7e                  |         ~      |                    i64.mul: 0x7e (valid) 0xa9-0xa9.7 (1)
    |                                               |                |                  [3]{}: in 0xaa-0xab.7 (2)
0xa0|                              42               |          B     |                    i64.const: 0x42 (valid) 0xaa-0xaa.7 (1)
0xa0|                                 06            |           .    |                    n: 6 0xab-0xab.7 (1)
    |                                               |                |                  [4]{}: in 0xac-0xac.7 (1)
0xa0|                                    80         |            .   |                    i64.div_u: 0x80 (valid) 0xac-0xac.7 (1)
    |                                               |                |                  [5]{}: in 0xad-0xad.7 (1)
0xa0|                                       0b|     |             .| |                    end: 0xb (valid) 0xad-0xad.7 (1)
