$ fq -d wasm dv int_exprs-6.wasm
    |00 01 02 03 04 05 06 07 08 09 0a 0b 0c 0d 0e 0f|0123456789abcdef|.{}: int_exprs-6.wasm (wasm) 0x0-0xa5.7 (166)
0x00|00 61 73 6d                                    |.asm            |  magic: raw bits (valid) 0x0-0x3.7 (4)
0x00|            01 00 00 00                        |    ....        |  version: 1 0x4-0x7.7 (4)
    |                                               |                |  sections[0:4]: 0x8-0xa5.7 (158)
    |                                               |                |    [0]{}: section 0x8-0x14.7 (13)
0x00|                        01                     |        .       |      id: "type section" (1) 0x8-0x8.7 (1)
0x00|                           0b                  |         .      |      size: 11 0x9-0x9.7 (1)
    |                                               |                |      content{}: 0xa-0x14.7 (11)
    |                                               |                |        ft{}: 0xa-0x14.7 (11)
0x00|                              02               |          .     |          n: 2 0xa-0xa.7 (1)
    |                                               |                |          x[0:2]: 0xb-0x14.7 (10)
    |                                               |                |            [0]{}: ft 0xb-0xf.7 (5)
0x00|                                 60            |           `    |              tag: 0x60 (valid) 0xb-0xb.7 (1)
    |                                               |                |              rt1{}: 0xc-0xd.7 (2)
0x00|                                    01         |            .   |                n: 1 0xc-0xc.7 (1)
    |                                               |                |                x[0:1]: 0xd-0xd.7 (1)
0x00|                                       7f      |             .  |                  [0]: "i32" (0x7f) t 0xd-0xd.7 (1)
    |                                               |                |              rt2{}: 0xe-0xf.7 (2)
0x00|                                          01   |              . |                n: 1 0xe-0xe.7 (1)
    |                                               |                |                x[0:1]: 0xf-0xf.7 (1)
0x00|                                             7f|               .|                  [0]: "i32" (0x7f) t 0xf-0xf.7 (1)
    |                                               |                |            [1]{}: ft 0x10-0x14.7 (5)
0x10|60                                             |`               |              tag: 0x60 (valid) 0x10-0x10.7 (1)
    |                                               |                |              rt1{}: 0x11-0x12.7 (2)
0x10|   01                                          | .              |                n: 1 0x11-0x11.7 (1)
    |                                               |                |                x[0:1]: 0x12-0x12.7 (1)
0x10|      7e                                       |  ~             |                  [0]: "i64" (0x7e) t 0x12-0x12.7 (1)
    |                                               |                |              rt2{}: 0x13-0x14.7 (2)
0x10|         01                                    |   .            |                n: 1 0x13-0x13.7 (1)
    |                                               |                |                x[0:1]: 0x14-0x14.7 (1)
0x10|            7e                                 |    ~           |                  [0]: "i64" (0x7e) t 0x14-0x14.7 (1)
    |                                               |                |    [1]{}: section 0x15-0x1b.7 (7)
0x10|               03                              |     .          |      id: "function section" (3) 0x15-0x15.7 (1)
0x10|                  05                           |      .         |      size: 5 0x16-0x16.7 (1)
    |                                               |                |      content{}: 0x17-0x1b.7 (5)
    |                                               |                |        x{}: 0x17-0x1b.7 (5)
0x10|                     04                        |       .        |          n: 4 0x17-0x17.7 (1)
    |                                               |                |          x[0:4]: 0x18-0x1b.7 (4)
0x10|                        00                     |        .       |            [0]: 0 x 0x18-0x18.7 (1)
0x10|                           00                  |         .      |            [1]: 0 x 0x19-0x19.7 (1)
0x10|                              01               |          .     |            [2]: 1 x 0x1a-0x1a.7 (1)
0x10|                                 01            |           .    |            [3]: 1 x 0x1b-0x1b.7 (1)
    |                                               |                |    [2]{}: section 0x1c-0x82.7 (103)
0x10|                                    07         |            .   |      id: "export section" (7) 0x1c-0x1c.7 (1)
0x10|                                       65      |             e  |      size: 101 0x1d-0x1d.7 (1)
    |                                               |                |      content{}: 0x1e-0x82.7 (101)
    |                                               |                |        ex{}: 0x1e-0x82.7 (101)
0x10|                                          04   |              . |          n: 4 0x1e-0x1e.7 (1)
    |                                               |                |          x[0:4]: 0x1f-0x82.7 (100)
    |                                               |                |            [0]{}: ex 0x1f-0x37.7 (25)
    |                                               |                |              nm{}: 0x1f-0x35.7 (23)
0x10|                                             16|               .|                n: 22 0x1f-0x1f.7 (1)
0x20|69 33 32 2e 6e 6f 5f 66 6f 6c 64 5f 64 69 76 5f|i32.no_fold_div_|                b: "i32.no_fold_div_s_self" 0x20-0x35.7 (22)
0x30|73 5f 73 65 6c 66                              |s_self          |
    |                                               |                |              d{}: 0x36-0x37.7 (2)
0x30|                  00                           |      .         |                tag: "funcidx" (0x0) 0x36-0x36.7 (1)
0x30|                     00                        |       .        |                x: 0 0x37-0x37.7 (1)
    |                                               |                |            [1]{}: ex 0x38-0x50.7 (25)
    |                                               |                |              nm{}: 0x38-0x4e.7 (23)
0x30|                        16                     |        .       |                n: 22 0x38-0x38.7 (1)
0x30|                           69 33 32 2e 6e 6f 5f|         i32.no_|                b: "i32.no_fold_div_u_self" 0x39-0x4e.7 (22)
0x40|66 6f 6c 64 5f 64 69 76 5f 75 5f 73 65 6c 66   |fold_div_u_self |
    |                                               |                |              d{}: 0x4f-0x50.7 (2)
0x40|                                             00|               .|                tag: "funcidx" (0x0) 0x4f-0x4f.7 (1)
0x50|01                                             |.               |                x: 1 0x50-0x50.7 (1)
    |                                               |                |            [2]{}: ex 0x51-0x69.7 (25)
    |                                               |                |              nm{}: 0x51-0x67.7 (23)
0x50|   16                                          | .              |                n: 22 0x51-0x51.7 (1)
0x50|      69 36 34 2e 6e 6f 5f 66 6f 6c 64 5f 64 69|  i64.no_fold_di|                b: "i64.no_fold_div_s_self" 0x52-0x67.7 (22)
0x60|76 5f 73 5f 73 65 6c 66                        |v_s_self        |
    |                                               |                |              d{}: 0x68-0x69.7 (2)
0x60|                        00                     |        .       |                tag: "funcidx" (0x0) 0x68-0x68.7 (1)
0x60|                           02                  |         .      |                x: 2 0x69-0x69.7 (1)
    |                                               |                |            [3]{}: ex 0x6a-0x82.7 (25)
    |                                               |                |              nm{}: 0x6a-0x80.7 (23)
0x60|                              16               |          .     |                n: 22 0x6a-0x6a.7 (1)
0x60|                                 69 36 34 2e 6e|           i64.n|                b: "i64.no_fold_div_u_self" 0x6b-0x80.7 (22)
0x70|6f 5f 66 6f 6c 64 5f 64 69 76 5f 75 5f 73 65 6c|o_fold_div_u_sel|
0x80|66                                             |f               |
    |                                               |                |              d{}: 0x81-0x82.7 (2)
0x80|   00                                          | .              |                tag: "funcidx" (0x0) 0x81-0x81.7 (1)
0x80|      03                                       |  .             |                x: 3 0x82-0x82.7 (1)
    |                                               |                |    [3]{}: section 0x83-0xa5.7 (35)
0x80|         0a                                    |   .            |      id: "code section" (10) 0x83-0x83.7 (1)
0x80|            21                                 |    !           |      size: 33 0x84-0x84.7 (1)
    |                                               |                |      content{}: 0x85-0xa5.7 (33)
    |                                               |                |        code{}: 0x85-0xa5.7 (33)
0x80|               04                              |     .          |          n: 4 0x85-0x85.7 (1)
    |                                               |                |          x[0:4]: 0x86-0xa5.7 (32)
    |                                               |                |            [0]{}: code 0x86-0x8d.7 (8)
0x80|                  07                           |      .         |              size: 7 0x86-0x86.7 (1)
    |                                               |                |              code{}: 0x87-0x8d.7 (7)
    |                                               |                |                t{}: 0x87-0x87.7 (1)
0x80|                     00                        |       .        |                  n: 0 0x87-0x87.7 (1)
    |                                               |                |                  x[0:0]: 0x88-NA (0)
    |                                               |                |                e[0:4]: 0x88-0x8d.7 (6)
    |                                               |                |                  [0]{}: in 0x88-0x89.7 (2)
0x80|                        20                     |                |                    local.get: 0x20 (valid) 0x88-0x88.7 (1)
0x80|                           00                  |         .      |                    x: 0 0x89-0x89.7 (1)
    |                                               |                |                  [1]{}: in 0x8a-0x8b.7 (2)
0x80|                              20               |                |                    local.get: 0x20 (valid) 0x8a-0x8a.7 (1)
0x80|                                 00            |           .    |                    x: 0 0x8b-0x8b.7 (1)
    |                                               |                |                  [2]{}: in 0x8c-0x8c.7 (1)
0x80|                                    6d         |            m   |                    i32.div_s: 0x6d (valid) 0x8c-0x8c.7 (1)
    |                                               |                |                  [3]{}: in 0x8d-0x8d.7 (1)
0x80|                                       0b      |             .  |                    end: 0xb (valid) 0x8d-0x8d.7 (1)
    |                                               |                |            [1]{}: code 0x8e-0x95.7 (8)
0x80|                                          07   |              . |              size: 7 0x8e-0x8e.7 (1)
    |                                               |                |              code{}: 0x8f-0x95.7 (7)
    |                                               |                |                t{}: 0x8f-0x8f.7 (1)
0x80|                                             00|               .|                  n: 0 0x8f-0x8f.7 (1)
    |                                               |                |                  x[0:0]: 0x90-NA (0)
    |                                               |                |                e[0:4]: 0x90-0x95.7 (6)
    |                                               |                |                  [0]{}: in 0x90-0x91.7 (2)
0x90|20                                             |                |                    local.get: 0x20 (valid) 0x90-0x90.7 (1)
0x90|   00                                          | .              |                    x: 0 0x91-0x91.7 (1)
    |                                               |                |                  [1]{}: in 0x92-0x93.7 (2)
0x90|      20                                       |                |                    local.get: 0x20 (valid) 0x92-0x92.7 (1)
0x90|         00                                    |   .            |                    x: 0 0x93-0x93.7 (1)
    |                                               |                |                  [2]{}: in 0x94-0x94.7 (1)
0x90|            6e                                 |    n           |                    i32.div_u: 0x6e (valid) 0x94-0x94.7 (1)
    |                                               |                |                  [3]{}: in 0x95-0x95.7 (1)
0x90|               0b                              |     .          |                    end: 0xb (valid) 0x95-0x95.7 (1)
    |                                               |                |            [2]{}: code 0x96-0x9d.7 (8)
0x90|                  07                           |      .         |              size: 7 0x96-0x96.7 (1)
    |                                               |                |              code{}: 0x97-0x9d.7 (7)
    |                                               |                |                t{}: 0x97-0x97.7 (1)
0x90|                     00                        |       .        |                  n: 0 0x97-0x97.7 (1)
    |                                               |                |                  x[0:0]: 0x98-NA (0)
    |                                               |                |                e[0:4]: 0x98-0x9d.7 (6)
    |                                               |                |                  [0]{}: in 0x98-0x99.7 (2)
0x90|                        20                     |                |                    local.get: 0x20 (valid) 0x98-0x98.7 (1)
0x90|                           00                  |         .      |                    x: 0 0x99-0x99.7 (1)
    |                                               |                |                  [1]{}: in 0x9a-0x9b.7 (2)
0x90|                              20               |                |                    local.get: 0x20 (valid) 0x9a-0x9a.7 (1)
0x90|                                 00            |           .    |                    x: 0 0x9b-0x9b.7 (1)
    |                                               |                |                  [2]{}: in 0x9c-0x9c.7 (1)
0x90|                                    7f         |            .   |                    i64.div_s: 0x7f (valid) 0x9c-0x9c.7 (1)
    |                                               |                |                  [3]{}: in 0x9d-0x9d.7 (1)
0x90|                                       0b      |             .  |                    end: 0xb (valid) 0x9d-0x9d.7 (1)
    |                                               |                |            [3]{}: code 0x9e-0xa5.7 (8)
0x90|                                          07   |              . |              size: 7 0x9e-0x9e.7 (1)
    |                                               |                |              code{}: 0x9f-0xa5.7 (7)
    |                                               |                |                t{}: 0x9f-0x9f.7 (1)
0x90|                                             00|               .|                  n: 0 0x9f-0x9f.7 (1)
    |                                               |                |                  x[0:0]: 0xa0-NA (0)
    |                                               |                |                e[0:4]: 0xa0-0xa5.7 (6)
    |                                               |                |                  [0]{}: in 0xa0-0xa1.7 (2)
0xa0|20                                             |                |                    local.get: 0x20 (valid) 0xa0-0xa0.7 (1)
0xa0|   00                                          | .              |                    x: 0 0xa1-0xa1.7 (1)
    |                                               |                |                  [1]{}: in 0xa2-0xa3.7 (2)
0xa0|      20                                       |                |                    local.get: 0x20 (valid) 0xa2-0xa2.7 (1)
0xa0|         00                                    |   .            |                    x: 0 0xa3-0xa3.7 (1)
    |                                               |                |                  [2]{}: in 0xa4-0xa4.7 (1)
0xa0|            80                                 |    .           |                    i64.div_u: 0x80 (valid) 0xa4-0xa4.7 (1)
    |                                               |                |                  [3]{}: in 0xa5-0xa5.7 (1)
0xa0|               0b|                             |     .|         |                    end: 0xb (valid) 0xa5-0xa5.7 (1)
