$ fq -d wasm dv int_exprs-17.wasm
    |00 01 02 03 04 05 06 07 08 09 0a 0b 0c 0d 0e 0f|0123456789abcdef|.{}: int_exprs-17.wasm (wasm) 0x0-0x7a (122)
0x00|00 61 73 6d                                    |.asm            |  magic: raw bits (valid) 0x0-0x4 (4)
0x00|            01 00 00 00                        |    ....        |  version: 1 0x4-0x8 (4)
    |                                               |                |  sections[0:4]: 0x8-0x7a (114)
    |                                               |                |    [0]{}: section 0x8-0x15 (13)
0x00|                        01                     |        .       |      id: "type_section" (1) 0x8-0x9 (1)
0x00|                           0b                  |         .      |      size: 11 (valid) 0x9-0xa (1)
    |                                               |                |      content{}: 0xa-0x15 (11)
    |                                               |                |        ft{}: 0xa-0x15 (11)
0x00|                              02               |          .     |          n: 2 (valid) 0xa-0xb (1)
    |                                               |                |          x[0:2]: 0xb-0x15 (10)
    |                                               |                |            [0]{}: ft 0xb-0x10 (5)
0x00|                                 60            |           `    |              tag: 0x60 (valid) 0xb-0xc (1)
    |                                               |                |              rt1{}: 0xc-0xe (2)
0x00|                                    01         |            .   |                n: 1 (valid) 0xc-0xd (1)
    |                                               |                |                x[0:1]: 0xd-0xe (1)
0x00|                                       7f      |             .  |                  [0]: "i32" (0x7f) t 0xd-0xe (1)
    |                                               |                |              rt2{}: 0xe-0x10 (2)
0x00|                                          01   |              . |                n: 1 (valid) 0xe-0xf (1)
    |                                               |                |                x[0:1]: 0xf-0x10 (1)
0x00|                                             7f|               .|                  [0]: "i32" (0x7f) t 0xf-0x10 (1)
    |                                               |                |            [1]{}: ft 0x10-0x15 (5)
0x10|60                                             |`               |              tag: 0x60 (valid) 0x10-0x11 (1)
    |                                               |                |              rt1{}: 0x11-0x13 (2)
0x10|   01                                          | .              |                n: 1 (valid) 0x11-0x12 (1)
    |                                               |                |                x[0:1]: 0x12-0x13 (1)
0x10|      7e                                       |  ~             |                  [0]: "i64" (0x7e) t 0x12-0x13 (1)
    |                                               |                |              rt2{}: 0x13-0x15 (2)
0x10|         01                                    |   .            |                n: 1 (valid) 0x13-0x14 (1)
    |                                               |                |                x[0:1]: 0x14-0x15 (1)
0x10|            7e                                 |    ~           |                  [0]: "i64" (0x7e) t 0x14-0x15 (1)
    |                                               |                |    [1]{}: section 0x15-0x1c (7)
0x10|               03                              |     .          |      id: "function_section" (3) 0x15-0x16 (1)
0x10|                  05                           |      .         |      size: 5 (valid) 0x16-0x17 (1)
    |                                               |                |      content{}: 0x17-0x1c (5)
    |                                               |                |        x{}: 0x17-0x1c (5)
0x10|                     04                        |       .        |          n: 4 (valid) 0x17-0x18 (1)
    |                                               |                |          x[0:4]: 0x18-0x1c (4)
0x10|                        00                     |        .       |            [0]: 0 x (valid) 0x18-0x19 (1)
0x10|                           00                  |         .      |            [1]: 0 x (valid) 0x19-0x1a (1)
0x10|                              01               |          .     |            [2]: 1 x (valid) 0x1a-0x1b (1)
0x10|                                 01            |           .    |            [3]: 1 x (valid) 0x1b-0x1c (1)
    |                                               |                |    [2]{}: section 0x1c-0x57 (59)
0x10|                                    07         |            .   |      id: "export_section" (7) 0x1c-0x1d (1)
0x10|                                       39      |             9  |      size: 57 (valid) 0x1d-0x1e (1)
    |                                               |                |      content{}: 0x1e-0x57 (57)
    |                                               |                |        ex{}: 0x1e-0x57 (57)
0x10|                                          04   |              . |          n: 4 (valid) 0x1e-0x1f (1)
    |                                               |                |          x[0:4]: 0x1f-0x57 (56)
    |                                               |                |            [0]{}: ex 0x1f-0x2d (14)
    |                                               |                |              nm{}: 0x1f-0x2b (12)
0x10|                                             0b|               .|                n: 11 (valid) 0x1f-0x20 (1)
0x20|69 33 32 2e 72 65 6d 5f 73 5f 37               |i32.rem_s_7     |                b: "i32.rem_s_7" 0x20-0x2b (11)
    |                                               |                |              d{}: 0x2b-0x2d (2)
0x20|                                 00            |           .    |                tag: "funcidx" (0x0) 0x2b-0x2c (1)
0x20|                                    00         |            .   |                x: 0 (valid) 0x2c-0x2d (1)
    |                                               |                |            [1]{}: ex 0x2d-0x3b (14)
    |                                               |                |              nm{}: 0x2d-0x39 (12)
0x20|                                       0b      |             .  |                n: 11 (valid) 0x2d-0x2e (1)
0x20|                                          69 33|              i3|                b: "i32.rem_u_7" 0x2e-0x39 (11)
0x30|32 2e 72 65 6d 5f 75 5f 37                     |2.rem_u_7       |
    |                                               |                |              d{}: 0x39-0x3b (2)
0x30|                           00                  |         .      |                tag: "funcidx" (0x0) 0x39-0x3a (1)
0x30|                              01               |          .     |                x: 1 (valid) 0x3a-0x3b (1)
    |                                               |                |            [2]{}: ex 0x3b-0x49 (14)
    |                                               |                |              nm{}: 0x3b-0x47 (12)
0x30|                                 0b            |           .    |                n: 11 (valid) 0x3b-0x3c (1)
0x30|                                    69 36 34 2e|            i64.|                b: "i64.rem_s_7" 0x3c-0x47 (11)
0x40|72 65 6d 5f 73 5f 37                           |rem_s_7         |
    |                                               |                |              d{}: 0x47-0x49 (2)
0x40|                     00                        |       .        |                tag: "funcidx" (0x0) 0x47-0x48 (1)
0x40|                        02                     |        .       |                x: 2 (valid) 0x48-0x49 (1)
    |                                               |                |            [3]{}: ex 0x49-0x57 (14)
    |                                               |                |              nm{}: 0x49-0x55 (12)
0x40|                           0b                  |         .      |                n: 11 (valid) 0x49-0x4a (1)
0x40|                              69 36 34 2e 72 65|          i64.re|                b: "i64.rem_u_7" 0x4a-0x55 (11)
0x50|6d 5f 75 5f 37                                 |m_u_7           |
    |                                               |                |              d{}: 0x55-0x57 (2)
0x50|               00                              |     .          |                tag: "funcidx" (0x0) 0x55-0x56 (1)
0x50|                  03                           |      .         |                x: 3 (valid) 0x56-0x57 (1)
    |                                               |                |    [3]{}: section 0x57-0x7a (35)
0x50|                     0a                        |       .        |      id: "code_section" (10) 0x57-0x58 (1)
0x50|                        21                     |        !       |      size: 33 (valid) 0x58-0x59 (1)
    |                                               |                |      content{}: 0x59-0x7a (33)
    |                                               |                |        code{}: 0x59-0x7a (33)
0x50|                           04                  |         .      |          n: 4 (valid) 0x59-0x5a (1)
    |                                               |                |          x[0:4]: 0x5a-0x7a (32)
    |                                               |                |            [0]{}: code 0x5a-0x62 (8)
0x50|                              07               |          .     |              size: 7 (valid) 0x5a-0x5b (1)
    |                                               |                |              code{}: 0x5b-0x62 (7)
    |                                               |                |                t{}: 0x5b-0x5c (1)
0x50|                                 00            |           .    |                  n: 0 (valid) 0x5b-0x5c (1)
    |                                               |                |                  x[0:0]: 0x5c-0x5c (0)
    |                                               |                |                e[0:4]: 0x5c-0x62 (6)
    |                                               |                |                  [0]{}: in 0x5c-0x5e (2)
0x50|                                    20         |                |                    opcode: "local.get" (0x20) 0x5c-0x5d (1)
0x50|                                       00      |             .  |                    x: 0 (valid) 0x5d-0x5e (1)
    |                                               |                |                  [1]{}: in 0x5e-0x60 (2)
0x50|                                          41   |              A |                    opcode: "i32.const" (0x41) 0x5e-0x5f (1)
0x50|                                             07|               .|                    n: 7 (valid) 0x5f-0x60 (1)
    |                                               |                |                  [2]{}: in 0x60-0x61 (1)
0x60|6f                                             |o               |                    opcode: "i32.rem_s" (0x6f) 0x60-0x61 (1)
    |                                               |                |                  [3]{}: in 0x61-0x62 (1)
0x60|   0b                                          | .              |                    opcode: "end" (0xb) 0x61-0x62 (1)
    |                                               |                |            [1]{}: code 0x62-0x6a (8)
0x60|      07                                       |  .             |              size: 7 (valid) 0x62-0x63 (1)
    |                                               |                |              code{}: 0x63-0x6a (7)
    |                                               |                |                t{}: 0x63-0x64 (1)
0x60|         00                                    |   .            |                  n: 0 (valid) 0x63-0x64 (1)
    |                                               |                |                  x[0:0]: 0x64-0x64 (0)
    |                                               |                |                e[0:4]: 0x64-0x6a (6)
    |                                               |                |                  [0]{}: in 0x64-0x66 (2)
0x60|            20                                 |                |                    opcode: "local.get" (0x20) 0x64-0x65 (1)
0x60|               00                              |     .          |                    x: 0 (valid) 0x65-0x66 (1)
    |                                               |                |                  [1]{}: in 0x66-0x68 (2)
0x60|                  41                           |      A         |                    opcode: "i32.const" (0x41) 0x66-0x67 (1)
0x60|                     07                        |       .        |                    n: 7 (valid) 0x67-0x68 (1)
    |                                               |                |                  [2]{}: in 0x68-0x69 (1)
0x60|                        70                     |        p       |                    opcode: "i32.rem_u" (0x70) 0x68-0x69 (1)
    |                                               |                |                  [3]{}: in 0x69-0x6a (1)
0x60|                           0b                  |         .      |                    opcode: "end" (0xb) 0x69-0x6a (1)
    |                                               |                |            [2]{}: code 0x6a-0x72 (8)
0x60|                              07               |          .     |              size: 7 (valid) 0x6a-0x6b (1)
    |                                               |                |              code{}: 0x6b-0x72 (7)
    |                                               |                |                t{}: 0x6b-0x6c (1)
0x60|                                 00            |           .    |                  n: 0 (valid) 0x6b-0x6c (1)
    |                                               |                |                  x[0:0]: 0x6c-0x6c (0)
    |                                               |                |                e[0:4]: 0x6c-0x72 (6)
    |                                               |                |                  [0]{}: in 0x6c-0x6e (2)
0x60|                                    20         |                |                    opcode: "local.get" (0x20) 0x6c-0x6d (1)
0x60|                                       00      |             .  |                    x: 0 (valid) 0x6d-0x6e (1)
    |                                               |                |                  [1]{}: in 0x6e-0x70 (2)
0x60|                                          42   |              B |                    opcode: "i64.const" (0x42) 0x6e-0x6f (1)
0x60|                                             07|               .|                    n: 7 0x6f-0x70 (1)
    |                                               |                |                  [2]{}: in 0x70-0x71 (1)
0x70|81                                             |.               |                    opcode: "i64.rem_s" (0x81) 0x70-0x71 (1)
    |                                               |                |                  [3]{}: in 0x71-0x72 (1)
0x70|   0b                                          | .              |                    opcode: "end" (0xb) 0x71-0x72 (1)
    |                                               |                |            [3]{}: code 0x72-0x7a (8)
0x70|      07                                       |  .             |              size: 7 (valid) 0x72-0x73 (1)
    |                                               |                |              code{}: 0x73-0x7a (7)
    |                                               |                |                t{}: 0x73-0x74 (1)
0x70|         00                                    |   .            |                  n: 0 (valid) 0x73-0x74 (1)
    |                                               |                |                  x[0:0]: 0x74-0x74 (0)
    |                                               |                |                e[0:4]: 0x74-0x7a (6)
    |                                               |                |                  [0]{}: in 0x74-0x76 (2)
0x70|            20                                 |                |                    opcode: "local.get" (0x20) 0x74-0x75 (1)
0x70|               00                              |     .          |                    x: 0 (valid) 0x75-0x76 (1)
    |                                               |                |                  [1]{}: in 0x76-0x78 (2)
0x70|                  42                           |      B         |                    opcode: "i64.const" (0x42) 0x76-0x77 (1)
0x70|                     07                        |       .        |                    n: 7 0x77-0x78 (1)
    |                                               |                |                  [2]{}: in 0x78-0x79 (1)
0x70|                        82                     |        .       |                    opcode: "i64.rem_u" (0x82) 0x78-0x79 (1)
    |                                               |                |                  [3]{}: in 0x79-0x7a (1)
0x70|                           0b|                 |         .|     |                    opcode: "end" (0xb) 0x79-0x7a (1)
