$ fq -d wasm dv int_exprs-8.wasm
    |00 01 02 03 04 05 06 07 08 09 0a 0b 0c 0d 0e 0f|0123456789abcdef|.{}: int_exprs-8.wasm (wasm) 0x0-0xae (174)
0x00|00 61 73 6d                                    |.asm            |  magic: raw bits (valid) 0x0-0x4 (4)
0x00|            01 00 00 00                        |    ....        |  version: 1 0x4-0x8 (4)
    |                                               |                |  sections[0:4]: 0x8-0xae (166)
    |                                               |                |    [0]{}: section 0x8-0x15 (13)
0x00|                        01                     |        .       |      id: "type_section" (1) 0x8-0x9 (1)
0x00|                           0b                  |         .      |      size: 11 (valid) 0x9-0xa (1)
    |                                               |                |      content{}: 0xa-0x15 (11)
    |                                               |                |        ft{}: 0xa-0x15 (11)
0x00|                              02               |          .     |          n: 2 (valid) 0xa-0xb (1)
    |                                               |                |          x[0:2]: 0xb-0x15 (10)
    |                                               |                |            [0]{}: ft 0xb-0x10 (5)
0x00|                                 60            |           `    |              tag: 0x60 (valid) 0xb-0xc (1)
    |                                               |                |              rt1{}: 0xc-0xe (2)
0x00|                                    01         |            .   |                n: 1 (valid) 0xc-0xd (1)
    |                                               |                |                x[0:1]: 0xd-0xe (1)
0x00|                                       7f      |             .  |                  [0]: "i32" (0x7f) t 0xd-0xe (1)
    |                                               |                |              rt2{}: 0xe-0x10 (2)
0x00|                                          01   |              . |                n: 1 (valid) 0xe-0xf (1)
    |                                               |                |                x[0:1]: 0xf-0x10 (1)
0x00|                                             7f|               .|                  [0]: "i32" (0x7f) t 0xf-0x10 (1)
    |                                               |                |            [1]{}: ft 0x10-0x15 (5)
0x10|60                                             |`               |              tag: 0x60 (valid) 0x10-0x11 (1)
    |                                               |                |              rt1{}: 0x11-0x13 (2)
0x10|   01                                          | .              |                n: 1 (valid) 0x11-0x12 (1)
    |                                               |                |                x[0:1]: 0x12-0x13 (1)
0x10|      7e                                       |  ~             |                  [0]: "i64" (0x7e) t 0x12-0x13 (1)
    |                                               |                |              rt2{}: 0x13-0x15 (2)
0x10|         01                                    |   .            |                n: 1 (valid) 0x13-0x14 (1)
    |                                               |                |                x[0:1]: 0x14-0x15 (1)
0x10|            7e                                 |    ~           |                  [0]: "i64" (0x7e) t 0x14-0x15 (1)
    |                                               |                |    [1]{}: section 0x15-0x1c (7)
0x10|               03                              |     .          |      id: "function_section" (3) 0x15-0x16 (1)
0x10|                  05                           |      .         |      size: 5 (valid) 0x16-0x17 (1)
    |                                               |                |      content{}: 0x17-0x1c (5)
    |                                               |                |        x{}: 0x17-0x1c (5)
0x10|                     04                        |       .        |          n: 4 (valid) 0x17-0x18 (1)
    |                                               |                |          x[0:4]: 0x18-0x1c (4)
0x10|                        00                     |        .       |            [0]: 0 x (valid) 0x18-0x19 (1)
0x10|                           00                  |         .      |            [1]: 0 x (valid) 0x19-0x1a (1)
0x10|                              01               |          .     |            [2]: 1 x (valid) 0x1a-0x1b (1)
0x10|                                 01            |           .    |            [3]: 1 x (valid) 0x1b-0x1c (1)
    |                                               |                |    [2]{}: section 0x1c-0x7f (99)
0x10|                                    07         |            .   |      id: "export_section" (7) 0x1c-0x1d (1)
0x10|                                       61      |             a  |      size: 97 (valid) 0x1d-0x1e (1)
    |                                               |                |      content{}: 0x1e-0x7f (97)
    |                                               |                |        ex{}: 0x1e-0x7f (97)
0x10|                                          04   |              . |          n: 4 (valid) 0x1e-0x1f (1)
    |                                               |                |          x[0:4]: 0x1f-0x7f (96)
    |                                               |                |            [0]{}: ex 0x1f-0x37 (24)
    |                                               |                |              nm{}: 0x1f-0x35 (22)
0x10|                                             15|               .|                n: 21 (valid) 0x1f-0x20 (1)
0x20|69 33 32 2e 6e 6f 5f 66 6f 6c 64 5f 6d 75 6c 5f|i32.no_fold_mul_|                b: "i32.no_fold_mul_div_s" 0x20-0x35 (21)
0x30|64 69 76 5f 73                                 |div_s           |
    |                                               |                |              d{}: 0x35-0x37 (2)
0x30|               00                              |     .          |                tag: "funcidx" (0x0) 0x35-0x36 (1)
0x30|                  00                           |      .         |                x: 0 (valid) 0x36-0x37 (1)
    |                                               |                |            [1]{}: ex 0x37-0x4f (24)
    |                                               |                |              nm{}: 0x37-0x4d (22)
0x30|                     15                        |       .        |                n: 21 (valid) 0x37-0x38 (1)
0x30|                        69 33 32 2e 6e 6f 5f 66|        i32.no_f|                b: "i32.no_fold_mul_div_u" 0x38-0x4d (21)
0x40|6f 6c 64 5f 6d 75 6c 5f 64 69 76 5f 75         |old_mul_div_u   |
    |                                               |                |              d{}: 0x4d-0x4f (2)
0x40|                                       00      |             .  |                tag: "funcidx" (0x0) 0x4d-0x4e (1)
0x40|                                          01   |              . |                x: 1 (valid) 0x4e-0x4f (1)
    |                                               |                |            [2]{}: ex 0x4f-0x67 (24)
    |                                               |                |              nm{}: 0x4f-0x65 (22)
0x40|                                             15|               .|                n: 21 (valid) 0x4f-0x50 (1)
0x50|69 36 34 2e 6e 6f 5f 66 6f 6c 64 5f 6d 75 6c 5f|i64.no_fold_mul_|                b: "i64.no_fold_mul_div_s" 0x50-0x65 (21)
0x60|64 69 76 5f 73                                 |div_s           |
    |                                               |                |              d{}: 0x65-0x67 (2)
0x60|               00                              |     .          |                tag: "funcidx" (0x0) 0x65-0x66 (1)
0x60|                  02                           |      .         |                x: 2 (valid) 0x66-0x67 (1)
    |                                               |                |            [3]{}: ex 0x67-0x7f (24)
    |                                               |                |              nm{}: 0x67-0x7d (22)
0x60|                     15                        |       .        |                n: 21 (valid) 0x67-0x68 (1)
0x60|                        69 36 34 2e 6e 6f 5f 66|        i64.no_f|                b: "i64.no_fold_mul_div_u" 0x68-0x7d (21)
0x70|6f 6c 64 5f 6d 75 6c 5f 64 69 76 5f 75         |old_mul_div_u   |
    |                                               |                |              d{}: 0x7d-0x7f (2)
0x70|                                       00      |             .  |                tag: "funcidx" (0x0) 0x7d-0x7e (1)
0x70|                                          03   |              . |                x: 3 (valid) 0x7e-0x7f (1)
    |                                               |                |    [3]{}: section 0x7f-0xae (47)
0x70|                                             0a|               .|      id: "code_section" (10) 0x7f-0x80 (1)
0x80|2d                                             |-               |      size: 45 (valid) 0x80-0x81 (1)
    |                                               |                |      content{}: 0x81-0xae (45)
    |                                               |                |        code{}: 0x81-0xae (45)
0x80|   04                                          | .              |          n: 4 (valid) 0x81-0x82 (1)
    |                                               |                |          x[0:4]: 0x82-0xae (44)
    |                                               |                |            [0]{}: code 0x82-0x8d (11)
0x80|      0a                                       |  .             |              size: 10 (valid) 0x82-0x83 (1)
    |                                               |                |              code{}: 0x83-0x8d (10)
    |                                               |                |                t{}: 0x83-0x84 (1)
0x80|         00                                    |   .            |                  n: 0 (valid) 0x83-0x84 (1)
    |                                               |                |                  x[0:0]: 0x84-0x84 (0)
    |                                               |                |                e[0:6]: 0x84-0x8d (9)
    |                                               |                |                  [0]{}: in 0x84-0x86 (2)
0x80|            20                                 |                |                    opcode: "local.get" (0x20) 0x84-0x85 (1)
0x80|               00                              |     .          |                    x: 0 (valid) 0x85-0x86 (1)
    |                                               |                |                  [1]{}: in 0x86-0x88 (2)
0x80|                  41                           |      A         |                    opcode: "i32.const" (0x41) 0x86-0x87 (1)
0x80|                     06                        |       .        |                    n: 6 (valid) 0x87-0x88 (1)
    |                                               |                |                  [2]{}: in 0x88-0x89 (1)
0x80|                        6c                     |        l       |                    opcode: "i32.mul" (0x6c) 0x88-0x89 (1)
    |                                               |                |                  [3]{}: in 0x89-0x8b (2)
0x80|                           41                  |         A      |                    opcode: "i32.const" (0x41) 0x89-0x8a (1)
0x80|                              06               |          .     |                    n: 6 (valid) 0x8a-0x8b (1)
    |                                               |                |                  [4]{}: in 0x8b-0x8c (1)
0x80|                                 6d            |           m    |                    opcode: "i32.div_s" (0x6d) 0x8b-0x8c (1)
    |                                               |                |                  [5]{}: in 0x8c-0x8d (1)
0x80|                                    0b         |            .   |                    opcode: "end" (0xb) 0x8c-0x8d (1)
    |                                               |                |            [1]{}: code 0x8d-0x98 (11)
0x80|                                       0a      |             .  |              size: 10 (valid) 0x8d-0x8e (1)
    |                                               |                |              code{}: 0x8e-0x98 (10)
    |                                               |                |                t{}: 0x8e-0x8f (1)
0x80|                                          00   |              . |                  n: 0 (valid) 0x8e-0x8f (1)
    |                                               |                |                  x[0:0]: 0x8f-0x8f (0)
    |                                               |                |                e[0:6]: 0x8f-0x98 (9)
    |                                               |                |                  [0]{}: in 0x8f-0x91 (2)
0x80|                                             20|                |                    opcode: "local.get" (0x20) 0x8f-0x90 (1)
0x90|00                                             |.               |                    x: 0 (valid) 0x90-0x91 (1)
    |                                               |                |                  [1]{}: in 0x91-0x93 (2)
0x90|   41                                          | A              |                    opcode: "i32.const" (0x41) 0x91-0x92 (1)
0x90|      06                                       |  .             |                    n: 6 (valid) 0x92-0x93 (1)
    |                                               |                |                  [2]{}: in 0x93-0x94 (1)
0x90|         6c                                    |   l            |                    opcode: "i32.mul" (0x6c) 0x93-0x94 (1)
    |                                               |                |                  [3]{}: in 0x94-0x96 (2)
0x90|            41                                 |    A           |                    opcode: "i32.const" (0x41) 0x94-0x95 (1)
0x90|               06                              |     .          |                    n: 6 (valid) 0x95-0x96 (1)
    |                                               |                |                  [4]{}: in 0x96-0x97 (1)
0x90|                  6e                           |      n         |                    opcode: "i32.div_u" (0x6e) 0x96-0x97 (1)
    |                                               |                |                  [5]{}: in 0x97-0x98 (1)
0x90|                     0b                        |       .        |                    opcode: "end" (0xb) 0x97-0x98 (1)
    |                                               |                |            [2]{}: code 0x98-0xa3 (11)
0x90|                        0a                     |        .       |              size: 10 (valid) 0x98-0x99 (1)
    |                                               |                |              code{}: 0x99-0xa3 (10)
    |                                               |                |                t{}: 0x99-0x9a (1)
0x90|                           00                  |         .      |                  n: 0 (valid) 0x99-0x9a (1)
    |                                               |                |                  x[0:0]: 0x9a-0x9a (0)
    |                                               |                |                e[0:6]: 0x9a-0xa3 (9)
    |                                               |                |                  [0]{}: in 0x9a-0x9c (2)
0x90|                              20               |                |                    opcode: "local.get" (0x20) 0x9a-0x9b (1)
0x90|                                 00            |           .    |                    x: 0 (valid) 0x9b-0x9c (1)
    |                                               |                |                  [1]{}: in 0x9c-0x9e (2)
0x90|                                    42         |            B   |                    opcode: "i64.const" (0x42) 0x9c-0x9d (1)
0x90|                                       06      |             .  |                    n: 6 0x9d-0x9e (1)
    |                                               |                |                  [2]{}: in 0x9e-0x9f (1)
0x90|                                          7e   |              ~ |                    opcode: "i64.mul" (0x7e) 0x9e-0x9f (1)
    |                                               |                |                  [3]{}: in 0x9f-0xa1 (2)
0x90|                                             42|               B|                    opcode: "i64.const" (0x42) 0x9f-0xa0 (1)
0xa0|06                                             |.               |                    n: 6 0xa0-0xa1 (1)
    |                                               |                |                  [4]{}: in 0xa1-0xa2 (1)
0xa0|   7f                                          | .              |                    opcode: "i64.div_s" (0x7f) 0xa1-0xa2 (1)
    |                                               |                |                  [5]{}: in 0xa2-0xa3 (1)
0xa0|      0b                                       |  .             |                    opcode: "end" (0xb) 0xa2-0xa3 (1)
    |                                               |                |            [3]{}: code 0xa3-0xae (11)
0xa0|         0a                                    |   .            |              size: 10 (valid) 0xa3-0xa4 (1)
    |                                               |                |              code{}: 0xa4-0xae (10)
    |                                               |                |                t{}: 0xa4-0xa5 (1)
0xa0|            00                                 |    .           |                  n: 0 (valid) 0xa4-0xa5 (1)
    |                                               |                |                  x[0:0]: 0xa5-0xa5 (0)
    |                                               |                |                e[0:6]: 0xa5-0xae (9)
    |                                               |                |                  [0]{}: in 0xa5-0xa7 (2)
0xa0|               20                              |                |                    opcode: "local.get" (0x20) 0xa5-0xa6 (1)
0xa0|                  00                           |      .         |                    x: 0 (valid) 0xa6-0xa7 (1)
    |                                               |                |                  [1]{}: in 0xa7-0xa9 (2)
0xa0|                     42                        |       B        |                    opcode: "i64.const" (0x42) 0xa7-0xa8 (1)
0xa0|                        06                     |        .       |                    n: 6 0xa8-0xa9 (1)
    |                                               |                |                  [2]{}: in 0xa9-0xaa (1)
0xa0|                           7e                  |         ~      |                    opcode: "i64.mul" (0x7e) 0xa9-0xaa (1)
    |                                               |                |                  [3]{}: in 0xaa-0xac (2)
0xa0|                              42               |          B     |                    opcode: "i64.const" (0x42) 0xaa-0xab (1)
0xa0|                                 06            |           .    |                    n: 6 0xab-0xac (1)
    |                                               |                |                  [4]{}: in 0xac-0xad (1)
0xa0|                                    80         |            .   |                    opcode: "i64.div_u" (0x80) 0xac-0xad (1)
    |                                               |                |                  [5]{}: in 0xad-0xae (1)
0xa0|                                       0b|     |             .| |                    opcode: "end" (0xb) 0xad-0xae (1)
