$ fq -d wasm dv int_exprs-0.wasm
    |00 01 02 03 04 05 06 07 08 09 0a 0b 0c 0d 0e 0f|0123456789abcdef|.{}: int_exprs-0.wasm (wasm) 0x0-0xc7.7 (200)
0x00|00 61 73 6d                                    |.asm            |  magic: raw bits (valid) 0x0-0x3.7 (4)
0x00|            01 00 00 00                        |    ....        |  version: 1 0x4-0x7.7 (4)
    |                                               |                |  sections[0:4]: 0x8-0xc7.7 (192)
    |                                               |                |    [0]{}: section 0x8-0x16.7 (15)
0x00|                        01                     |        .       |      id: "type section" (1) 0x8-0x8.7 (1)
0x00|                           0d                  |         .      |      size: 13 0x9-0x9.7 (1)
    |                                               |                |      content{}: 0xa-0x16.7 (13)
    |                                               |                |        ft{}: 0xa-0x16.7 (13)
0x00|                              02               |          .     |          n: 2 0xa-0xa.7 (1)
    |                                               |                |          x[0:2]: 0xb-0x16.7 (12)
    |                                               |                |            [0]{}: ft 0xb-0x10.7 (6)
0x00|                                 60            |           `    |              tag: 0x60 (valid) 0xb-0xb.7 (1)
    |                                               |                |              rt1{}: 0xc-0xe.7 (3)
0x00|                                    02         |            .   |                n: 2 0xc-0xc.7 (1)
    |                                               |                |                x[0:2]: 0xd-0xe.7 (2)
0x00|                                       7f      |             .  |                  [0]: "i32" (0x7f) t 0xd-0xd.7 (1)
0x00|                                          7f   |              . |                  [1]: "i32" (0x7f) t 0xe-0xe.7 (1)
    |                                               |                |              rt2{}: 0xf-0x10.7 (2)
0x00|                                             01|               .|                n: 1 0xf-0xf.7 (1)
    |                                               |                |                x[0:1]: 0x10-0x10.7 (1)
0x10|7f                                             |.               |                  [0]: "i32" (0x7f) t 0x10-0x10.7 (1)
    |                                               |                |            [1]{}: ft 0x11-0x16.7 (6)
0x10|   60                                          | `              |              tag: 0x60 (valid) 0x11-0x11.7 (1)
    |                                               |                |              rt1{}: 0x12-0x14.7 (3)
0x10|      02                                       |  .             |                n: 2 0x12-0x12.7 (1)
    |                                               |                |                x[0:2]: 0x13-0x14.7 (2)
0x10|         7e                                    |   ~            |                  [0]: "i64" (0x7e) t 0x13-0x13.7 (1)
0x10|            7e                                 |    ~           |                  [1]: "i64" (0x7e) t 0x14-0x14.7 (1)
    |                                               |                |              rt2{}: 0x15-0x16.7 (2)
0x10|               01                              |     .          |                n: 1 0x15-0x15.7 (1)
    |                                               |                |                x[0:1]: 0x16-0x16.7 (1)
0x10|                  7f                           |      .         |                  [0]: "i32" (0x7f) t 0x16-0x16.7 (1)
    |                                               |                |    [1]{}: section 0x17-0x1d.7 (7)
0x10|                     03                        |       .        |      id: "function section" (3) 0x17-0x17.7 (1)
0x10|                        05                     |        .       |      size: 5 0x18-0x18.7 (1)
    |                                               |                |      content{}: 0x19-0x1d.7 (5)
    |                                               |                |        x{}: 0x19-0x1d.7 (5)
0x10|                           04                  |         .      |          n: 4 0x19-0x19.7 (1)
    |                                               |                |          x[0:4]: 0x1a-0x1d.7 (4)
0x10|                              00               |          .     |            [0]: 0 x 0x1a-0x1a.7 (1)
0x10|                                 00            |           .    |            [1]: 0 x 0x1b-0x1b.7 (1)
0x10|                                    01         |            .   |            [2]: 1 x 0x1c-0x1c.7 (1)
0x10|                                       01      |             .  |            [3]: 1 x 0x1d-0x1d.7 (1)
    |                                               |                |    [2]{}: section 0x1e-0x8c.7 (111)
0x10|                                          07   |              . |      id: "export section" (7) 0x1e-0x1e.7 (1)
0x10|                                             6d|               m|      size: 109 0x1f-0x1f.7 (1)
    |                                               |                |      content{}: 0x20-0x8c.7 (109)
    |                                               |                |        ex{}: 0x20-0x8c.7 (109)
0x20|04                                             |.               |          n: 4 0x20-0x20.7 (1)
    |                                               |                |          x[0:4]: 0x21-0x8c.7 (108)
    |                                               |                |            [0]{}: ex 0x21-0x3b.7 (27)
    |                                               |                |              nm{}: 0x21-0x39.7 (25)
0x20|   18                                          | .              |                n: 24 0x21-0x21.7 (1)
0x20|      69 33 32 2e 6e 6f 5f 66 6f 6c 64 5f 63 6d|  i32.no_fold_cm|                b: "i32.no_fold_cmp_s_offset" 0x22-0x39.7 (24)
0x30|70 5f 73 5f 6f 66 66 73 65 74                  |p_s_offset      |
    |                                               |                |              d{}: 0x3a-0x3b.7 (2)
0x30|                              00               |          .     |                tag: "funcidx" (0x0) 0x3a-0x3a.7 (1)
0x30|                                 00            |           .    |                x: 0 0x3b-0x3b.7 (1)
    |                                               |                |            [1]{}: ex 0x3c-0x56.7 (27)
    |                                               |                |              nm{}: 0x3c-0x54.7 (25)
0x30|                                    18         |            .   |                n: 24 0x3c-0x3c.7 (1)
0x30|                                       69 33 32|             i32|                b: "i32.no_fold_cmp_u_offset" 0x3d-0x54.7 (24)
0x40|2e 6e 6f 5f 66 6f 6c 64 5f 63 6d 70 5f 75 5f 6f|.no_fold_cmp_u_o|
0x50|66 66 73 65 74                                 |ffset           |
    |                                               |                |              d{}: 0x55-0x56.7 (2)
0x50|               00                              |     .          |                tag: "funcidx" (0x0) 0x55-0x55.7 (1)
0x50|                  01                           |      .         |                x: 1 0x56-0x56.7 (1)
    |                                               |                |            [2]{}: ex 0x57-0x71.7 (27)
    |                                               |                |              nm{}: 0x57-0x6f.7 (25)
0x50|                     18                        |       .        |                n: 24 0x57-0x57.7 (1)
0x50|                        69 36 34 2e 6e 6f 5f 66|        i64.no_f|                b: "i64.no_fold_cmp_s_offset" 0x58-0x6f.7 (24)
0x60|6f 6c 64 5f 63 6d 70 5f 73 5f 6f 66 66 73 65 74|old_cmp_s_offset|
    |                                               |                |              d{}: 0x70-0x71.7 (2)
0x70|00                                             |.               |                tag: "funcidx" (0x0) 0x70-0x70.7 (1)
0x70|   02                                          | .              |                x: 2 0x71-0x71.7 (1)
    |                                               |                |            [3]{}: ex 0x72-0x8c.7 (27)
    |                                               |                |              nm{}: 0x72-0x8a.7 (25)
0x70|      18                                       |  .             |                n: 24 0x72-0x72.7 (1)
0x70|         69 36 34 2e 6e 6f 5f 66 6f 6c 64 5f 63|   i64.no_fold_c|                b: "i64.no_fold_cmp_u_offset" 0x73-0x8a.7 (24)
0x80|6d 70 5f 75 5f 6f 66 66 73 65 74               |mp_u_offset     |
    |                                               |                |              d{}: 0x8b-0x8c.7 (2)
0x80|                                 00            |           .    |                tag: "funcidx" (0x0) 0x8b-0x8b.7 (1)
0x80|                                    03         |            .   |                x: 3 0x8c-0x8c.7 (1)
    |                                               |                |    [3]{}: section 0x8d-0xc7.7 (59)
0x80|                                       0a      |             .  |      id: "code section" (10) 0x8d-0x8d.7 (1)
0x80|                                          39   |              9 |      size: 57 0x8e-0x8e.7 (1)
    |                                               |                |      content{}: 0x8f-0xc7.7 (57)
    |                                               |                |        code{}: 0x8f-0xc7.7 (57)
0x80|                                             04|               .|          n: 4 0x8f-0x8f.7 (1)
    |                                               |                |          x[0:4]: 0x90-0xc7.7 (56)
    |                                               |                |            [0]{}: code 0x90-0x9d.7 (14)
0x90|0d                                             |.               |              size: 13 0x90-0x90.7 (1)
    |                                               |                |              code{}: 0x91-0x9d.7 (13)
    |                                               |                |                t{}: 0x91-0x91.7 (1)
0x90|   00                                          | .              |                  n: 0 0x91-0x91.7 (1)
    |                                               |                |                  x[0:0]: 0x92-NA (0)
    |                                               |                |                e[0:8]: 0x92-0x9d.7 (12)
    |                                               |                |                  [0]{}: in 0x92-0x93.7 (2)
0x90|      20                                       |                |                    local.get: 0x20 (valid) 0x92-0x92.7 (1)
0x90|         00                                    |   .            |                    x: 0 0x93-0x93.7 (1)
    |                                               |                |                  [1]{}: in 0x94-0x95.7 (2)
0x90|            41                                 |    A           |                    i32.const: 0x41 (valid) 0x94-0x94.7 (1)
0x90|               01                              |     .          |                    n: 1 0x95-0x95.7 (1)
    |                                               |                |                  [2]{}: in 0x96-0x96.7 (1)
0x90|                  6a                           |      j         |                    i32.add: 0x6a (valid) 0x96-0x96.7 (1)
    |                                               |                |                  [3]{}: in 0x97-0x98.7 (2)
0x90|                     20                        |                |                    local.get: 0x20 (valid) 0x97-0x97.7 (1)
0x90|                        01                     |        .       |                    x: 1 0x98-0x98.7 (1)
    |                                               |                |                  [4]{}: in 0x99-0x9a.7 (2)
0x90|                           41                  |         A      |                    i32.const: 0x41 (valid) 0x99-0x99.7 (1)
0x90|                              01               |          .     |                    n: 1 0x9a-0x9a.7 (1)
    |                                               |                |                  [5]{}: in 0x9b-0x9b.7 (1)
0x90|                                 6a            |           j    |                    i32.add: 0x6a (valid) 0x9b-0x9b.7 (1)
    |                                               |                |                  [6]{}: in 0x9c-0x9c.7 (1)
0x90|                                    48         |            H   |                    i32.lt_s: 0x48 (valid) 0x9c-0x9c.7 (1)
    |                                               |                |                  [7]{}: in 0x9d-0x9d.7 (1)
0x90|                                       0b      |             .  |                    end: 0xb (valid) 0x9d-0x9d.7 (1)
    |                                               |                |            [1]{}: code 0x9e-0xab.7 (14)
0x90|                                          0d   |              . |              size: 13 0x9e-0x9e.7 (1)
    |                                               |                |              code{}: 0x9f-0xab.7 (13)
    |                                               |                |                t{}: 0x9f-0x9f.7 (1)
0x90|                                             00|               .|                  n: 0 0x9f-0x9f.7 (1)
    |                                               |                |                  x[0:0]: 0xa0-NA (0)
    |                                               |                |                e[0:8]: 0xa0-0xab.7 (12)
    |                                               |                |                  [0]{}: in 0xa0-0xa1.7 (2)
0xa0|20                                             |                |                    local.get: 0x20 (valid) 0xa0-0xa0.7 (1)
0xa0|   00                                          | .              |                    x: 0 0xa1-0xa1.7 (1)
    |                                               |                |                  [1]{}: in 0xa2-0xa3.7 (2)
0xa0|      41                                       |  A             |                    i32.const: 0x41 (valid) 0xa2-0xa2.7 (1)
0xa0|         01                                    |   .            |                    n: 1 0xa3-0xa3.7 (1)
    |                                               |                |                  [2]{}: in 0xa4-0xa4.7 (1)
0xa0|            6a                                 |    j           |                    i32.add: 0x6a (valid) 0xa4-0xa4.7 (1)
    |                                               |                |                  [3]{}: in 0xa5-0xa6.7 (2)
0xa0|               20                              |                |                    local.get: 0x20 (valid) 0xa5-0xa5.7 (1)
0xa0|                  01                           |      .         |                    x: 1 0xa6-0xa6.7 (1)
    |                                               |                |                  [4]{}: in 0xa7-0xa8.7 (2)
0xa0|                     41                        |       A        |                    i32.const: 0x41 (valid) 0xa7-0xa7.7 (1)
0xa0|                        01                     |        .       |                    n: 1 0xa8-0xa8.7 (1)
    |                                               |                |                  [5]{}: in 0xa9-0xa9.7 (1)
0xa0|                           6a                  |         j      |                    i32.add: 0x6a (valid) 0xa9-0xa9.7 (1)
    |                                               |                |                  [6]{}: in 0xaa-0xaa.7 (1)
0xa0|                              49               |          I     |                    i32.lt_u: 0x49 (valid) 0xaa-0xaa.7 (1)
    |                                               |                |                  [7]{}: in 0xab-0xab.7 (1)
0xa0|                                 0b            |           .    |                    end: 0xb (valid) 0xab-0xab.7 (1)
    |                                               |                |            [2]{}: code 0xac-0xb9.7 (14)
0xa0|                                    0d         |            .   |              size: 13 0xac-0xac.7 (1)
    |                                               |                |              code{}: 0xad-0xb9.7 (13)
    |                                               |                |                t{}: 0xad-0xad.7 (1)
0xa0|                                       00      |             .  |                  n: 0 0xad-0xad.7 (1)
    |                                               |                |                  x[0:0]: 0xae-NA (0)
    |                                               |                |                e[0:8]: 0xae-0xb9.7 (12)
    |                                               |                |                  [0]{}: in 0xae-0xaf.7 (2)
0xa0|                                          20   |                |                    local.get: 0x20 (valid) 0xae-0xae.7 (1)
0xa0|                                             00|               .|                    x: 0 0xaf-0xaf.7 (1)
    |                                               |                |                  [1]{}: in 0xb0-0xb1.7 (2)
0xb0|42                                             |B               |                    i64.const: 0x42 (valid) 0xb0-0xb0.7 (1)
0xb0|   01                                          | .              |                    n: 1 0xb1-0xb1.7 (1)
    |                                               |                |                  [2]{}: in 0xb2-0xb2.7 (1)
0xb0|      7c                                       |  |             |                    i64.add: 0x7c (valid) 0xb2-0xb2.7 (1)
    |                                               |                |                  [3]{}: in 0xb3-0xb4.7 (2)
0xb0|         20                                    |                |                    local.get: 0x20 (valid) 0xb3-0xb3.7 (1)
0xb0|            01                                 |    .           |                    x: 1 0xb4-0xb4.7 (1)
    |                                               |                |                  [4]{}: in 0xb5-0xb6.7 (2)
0xb0|               42                              |     B          |                    i64.const: 0x42 (valid) 0xb5-0xb5.7 (1)
0xb0|                  01                           |      .         |                    n: 1 0xb6-0xb6.7 (1)
    |                                               |                |                  [5]{}: in 0xb7-0xb7.7 (1)
0xb0|                     7c                        |       |        |                    i64.add: 0x7c (valid) 0xb7-0xb7.7 (1)
    |                                               |                |                  [6]{}: in 0xb8-0xb8.7 (1)
0xb0|                        53                     |        S       |                    i64.lt_s: 0x53 (valid) 0xb8-0xb8.7 (1)
    |                                               |                |                  [7]{}: in 0xb9-0xb9.7 (1)
0xb0|                           0b                  |         .      |                    end: 0xb (valid) 0xb9-0xb9.7 (1)
    |                                               |                |            [3]{}: code 0xba-0xc7.7 (14)
0xb0|                              0d               |          .     |              size: 13 0xba-0xba.7 (1)
    |                                               |                |              code{}: 0xbb-0xc7.7 (13)
    |                                               |                |                t{}: 0xbb-0xbb.7 (1)
0xb0|                                 00            |           .    |                  n: 0 0xbb-0xbb.7 (1)
    |                                               |                |                  x[0:0]: 0xbc-NA (0)
    |                                               |                |                e[0:8]: 0xbc-0xc7.7 (12)
    |                                               |                |                  [0]{}: in 0xbc-0xbd.7 (2)
0xb0|                                    20         |                |                    local.get: 0x20 (valid) 0xbc-0xbc.7 (1)
0xb0|                                       00      |             .  |                    x: 0 0xbd-0xbd.7 (1)
    |                                               |                |                  [1]{}: in 0xbe-0xbf.7 (2)
0xb0|                                          42   |              B |                    i64.const: 0x42 (valid) 0xbe-0xbe.7 (1)
0xb0|                                             01|               .|                    n: 1 0xbf-0xbf.7 (1)
    |                                               |                |                  [2]{}: in 0xc0-0xc0.7 (1)
0xc0|7c                                             ||               |                    i64.add: 0x7c (valid) 0xc0-0xc0.7 (1)
    |                                               |                |                  [3]{}: in 0xc1-0xc2.7 (2)
0xc0|   20                                          |                |                    local.get: 0x20 (valid) 0xc1-0xc1.7 (1)
0xc0|      01                                       |  .             |                    x: 1 0xc2-0xc2.7 (1)
    |                                               |                |                  [4]{}: in 0xc3-0xc4.7 (2)
0xc0|         42                                    |   B            |                    i64.const: 0x42 (valid) 0xc3-0xc3.7 (1)
0xc0|            01                                 |    .           |                    n: 1 0xc4-0xc4.7 (1)
    |                                               |                |                  [5]{}: in 0xc5-0xc5.7 (1)
0xc0|               7c                              |     |          |                    i64.add: 0x7c (valid) 0xc5-0xc5.7 (1)
    |                                               |                |                  [6]{}: in 0xc6-0xc6.7 (1)
0xc0|                  54                           |      T         |                    i64.lt_u: 0x54 (valid) 0xc6-0xc6.7 (1)
    |                                               |                |                  [7]{}: in 0xc7-0xc7.7 (1)
0xc0|                     0b|                       |       .|       |                    end: 0xb (valid) 0xc7-0xc7.7 (1)
