$ fq -d wasm dv int_exprs-0.wasm
    |00 01 02 03 04 05 06 07 08 09 0a 0b 0c 0d 0e 0f|0123456789abcdef|.{}: int_exprs-0.wasm (wasm) 0x0-0xc8 (200)
0x00|00 61 73 6d                                    |.asm            |  magic: raw bits (valid) 0x0-0x4 (4)
0x00|            01 00 00 00                        |    ....        |  version: 1 0x4-0x8 (4)
    |                                               |                |  sections[0:4]: 0x8-0xc8 (192)
    |                                               |                |    [0]{}: section 0x8-0x17 (15)
0x00|                        01                     |        .       |      id: "type_section" (1) 0x8-0x9 (1)
0x00|                           0d                  |         .      |      size: 13 (valid) 0x9-0xa (1)
    |                                               |                |      content{}: 0xa-0x17 (13)
    |                                               |                |        ft{}: 0xa-0x17 (13)
0x00|                              02               |          .     |          n: 2 (valid) 0xa-0xb (1)
    |                                               |                |          x[0:2]: 0xb-0x17 (12)
    |                                               |                |            [0]{}: ft 0xb-0x11 (6)
0x00|                                 60            |           `    |              tag: 0x60 (valid) 0xb-0xc (1)
    |                                               |                |              rt1{}: 0xc-0xf (3)
0x00|                                    02         |            .   |                n: 2 (valid) 0xc-0xd (1)
    |                                               |                |                x[0:2]: 0xd-0xf (2)
0x00|                                       7f      |             .  |                  [0]: "i32" (0x7f) t 0xd-0xe (1)
0x00|                                          7f   |              . |                  [1]: "i32" (0x7f) t 0xe-0xf (1)
    |                                               |                |              rt2{}: 0xf-0x11 (2)
0x00|                                             01|               .|                n: 1 (valid) 0xf-0x10 (1)
    |                                               |                |                x[0:1]: 0x10-0x11 (1)
0x10|7f                                             |.               |                  [0]: "i32" (0x7f) t 0x10-0x11 (1)
    |                                               |                |            [1]{}: ft 0x11-0x17 (6)
0x10|   60                                          | `              |              tag: 0x60 (valid) 0x11-0x12 (1)
    |                                               |                |              rt1{}: 0x12-0x15 (3)
0x10|      02                                       |  .             |                n: 2 (valid) 0x12-0x13 (1)
    |                                               |                |                x[0:2]: 0x13-0x15 (2)
0x10|         7e                                    |   ~            |                  [0]: "i64" (0x7e) t 0x13-0x14 (1)
0x10|            7e                                 |    ~           |                  [1]: "i64" (0x7e) t 0x14-0x15 (1)
    |                                               |                |              rt2{}: 0x15-0x17 (2)
0x10|               01                              |     .          |                n: 1 (valid) 0x15-0x16 (1)
    |                                               |                |                x[0:1]: 0x16-0x17 (1)
0x10|                  7f                           |      .         |                  [0]: "i32" (0x7f) t 0x16-0x17 (1)
    |                                               |                |    [1]{}: section 0x17-0x1e (7)
0x10|                     03                        |       .        |      id: "function_section" (3) 0x17-0x18 (1)
0x10|                        05                     |        .       |      size: 5 (valid) 0x18-0x19 (1)
    |                                               |                |      content{}: 0x19-0x1e (5)
    |                                               |                |        x{}: 0x19-0x1e (5)
0x10|                           04                  |         .      |          n: 4 (valid) 0x19-0x1a (1)
    |                                               |                |          x[0:4]: 0x1a-0x1e (4)
0x10|                              00               |          .     |            [0]: 0 x (valid) 0x1a-0x1b (1)
0x10|                                 00            |           .    |            [1]: 0 x (valid) 0x1b-0x1c (1)
0x10|                                    01         |            .   |            [2]: 1 x (valid) 0x1c-0x1d (1)
0x10|                                       01      |             .  |            [3]: 1 x (valid) 0x1d-0x1e (1)
    |                                               |                |    [2]{}: section 0x1e-0x8d (111)
0x10|                                          07   |              . |      id: "export_section" (7) 0x1e-0x1f (1)
0x10|                                             6d|               m|      size: 109 (valid) 0x1f-0x20 (1)
    |                                               |                |      content{}: 0x20-0x8d (109)
    |                                               |                |        ex{}: 0x20-0x8d (109)
0x20|04                                             |.               |          n: 4 (valid) 0x20-0x21 (1)
    |                                               |                |          x[0:4]: 0x21-0x8d (108)
    |                                               |                |            [0]{}: ex 0x21-0x3c (27)
    |                                               |                |              nm{}: 0x21-0x3a (25)
0x20|   18                                          | .              |                n: 24 (valid) 0x21-0x22 (1)
0x20|      69 33 32 2e 6e 6f 5f 66 6f 6c 64 5f 63 6d|  i32.no_fold_cm|                b: "i32.no_fold_cmp_s_offset" 0x22-0x3a (24)
0x30|70 5f 73 5f 6f 66 66 73 65 74                  |p_s_offset      |
    |                                               |                |              d{}: 0x3a-0x3c (2)
0x30|                              00               |          .     |                tag: "funcidx" (0x0) 0x3a-0x3b (1)
0x30|                                 00            |           .    |                x: 0 (valid) 0x3b-0x3c (1)
    |                                               |                |            [1]{}: ex 0x3c-0x57 (27)
    |                                               |                |              nm{}: 0x3c-0x55 (25)
0x30|                                    18         |            .   |                n: 24 (valid) 0x3c-0x3d (1)
0x30|                                       69 33 32|             i32|                b: "i32.no_fold_cmp_u_offset" 0x3d-0x55 (24)
0x40|2e 6e 6f 5f 66 6f 6c 64 5f 63 6d 70 5f 75 5f 6f|.no_fold_cmp_u_o|
0x50|66 66 73 65 74                                 |ffset           |
    |                                               |                |              d{}: 0x55-0x57 (2)
0x50|               00                              |     .          |                tag: "funcidx" (0x0) 0x55-0x56 (1)
0x50|                  01                           |      .         |                x: 1 (valid) 0x56-0x57 (1)
    |                                               |                |            [2]{}: ex 0x57-0x72 (27)
    |                                               |                |              nm{}: 0x57-0x70 (25)
0x50|                     18                        |       .        |                n: 24 (valid) 0x57-0x58 (1)
0x50|                        69 36 34 2e 6e 6f 5f 66|        i64.no_f|                b: "i64.no_fold_cmp_s_offset" 0x58-0x70 (24)
0x60|6f 6c 64 5f 63 6d 70 5f 73 5f 6f 66 66 73 65 74|old_cmp_s_offset|
    |                                               |                |              d{}: 0x70-0x72 (2)
0x70|00                                             |.               |                tag: "funcidx" (0x0) 0x70-0x71 (1)
0x70|   02                                          | .              |                x: 2 (valid) 0x71-0x72 (1)
    |                                               |                |            [3]{}: ex 0x72-0x8d (27)
    |                                               |                |              nm{}: 0x72-0x8b (25)
0x70|      18                                       |  .             |                n: 24 (valid) 0x72-0x73 (1)
0x70|         69 36 34 2e 6e 6f 5f 66 6f 6c 64 5f 63|   i64.no_fold_c|                b: "i64.no_fold_cmp_u_offset" 0x73-0x8b (24)
0x80|6d 70 5f 75 5f 6f 66 66 73 65 74               |mp_u_offset     |
    |                                               |                |              d{}: 0x8b-0x8d (2)
0x80|                                 00            |           .    |                tag: "funcidx" (0x0) 0x8b-0x8c (1)
0x80|                                    03         |            .   |                x: 3 (valid) 0x8c-0x8d (1)
    |                                               |                |    [3]{}: section 0x8d-0xc8 (59)
0x80|                                       0a      |             .  |      id: "code_section" (10) 0x8d-0x8e (1)
0x80|                                          39   |              9 |      size: 57 (valid) 0x8e-0x8f (1)
    |                                               |                |      content{}: 0x8f-0xc8 (57)
    |                                               |                |        code{}: 0x8f-0xc8 (57)
0x80|                                             04|               .|          n: 4 (valid) 0x8f-0x90 (1)
    |                                               |                |          x[0:4]: 0x90-0xc8 (56)
    |                                               |                |            [0]{}: code 0x90-0x9e (14)
0x90|0d                                             |.               |              size: 13 (valid) 0x90-0x91 (1)
    |                                               |                |              code{}: 0x91-0x9e (13)
    |                                               |                |                t{}: 0x91-0x92 (1)
0x90|   00                                          | .              |                  n: 0 (valid) 0x91-0x92 (1)
    |                                               |                |                  x[0:0]: 0x92-0x92 (0)
    |                                               |                |                e[0:8]: 0x92-0x9e (12)
    |                                               |                |                  [0]{}: in 0x92-0x94 (2)
0x90|      20                                       |                |                    opcode: "local.get" (0x20) 0x92-0x93 (1)
0x90|         00                                    |   .            |                    x: 0 (valid) 0x93-0x94 (1)
    |                                               |                |                  [1]{}: in 0x94-0x96 (2)
0x90|            41                                 |    A           |                    opcode: "i32.const" (0x41) 0x94-0x95 (1)
0x90|               01                              |     .          |                    n: 1 (valid) 0x95-0x96 (1)
    |                                               |                |                  [2]{}: in 0x96-0x97 (1)
0x90|                  6a                           |      j         |                    opcode: "i32.add" (0x6a) 0x96-0x97 (1)
    |                                               |                |                  [3]{}: in 0x97-0x99 (2)
0x90|                     20                        |                |                    opcode: "local.get" (0x20) 0x97-0x98 (1)
0x90|                        01                     |        .       |                    x: 1 (valid) 0x98-0x99 (1)
    |                                               |                |                  [4]{}: in 0x99-0x9b (2)
0x90|                           41                  |         A      |                    opcode: "i32.const" (0x41) 0x99-0x9a (1)
0x90|                              01               |          .     |                    n: 1 (valid) 0x9a-0x9b (1)
    |                                               |                |                  [5]{}: in 0x9b-0x9c (1)
0x90|                                 6a            |           j    |                    opcode: "i32.add" (0x6a) 0x9b-0x9c (1)
    |                                               |                |                  [6]{}: in 0x9c-0x9d (1)
0x90|                                    48         |            H   |                    opcode: "i32.lt_s" (0x48) 0x9c-0x9d (1)
    |                                               |                |                  [7]{}: in 0x9d-0x9e (1)
0x90|                                       0b      |             .  |                    opcode: "end" (0xb) 0x9d-0x9e (1)
    |                                               |                |            [1]{}: code 0x9e-0xac (14)
0x90|                                          0d   |              . |              size: 13 (valid) 0x9e-0x9f (1)
    |                                               |                |              code{}: 0x9f-0xac (13)
    |                                               |                |                t{}: 0x9f-0xa0 (1)
0x90|                                             00|               .|                  n: 0 (valid) 0x9f-0xa0 (1)
    |                                               |                |                  x[0:0]: 0xa0-0xa0 (0)
    |                                               |                |                e[0:8]: 0xa0-0xac (12)
    |                                               |                |                  [0]{}: in 0xa0-0xa2 (2)
0xa0|20                                             |                |                    opcode: "local.get" (0x20) 0xa0-0xa1 (1)
0xa0|   00                                          | .              |                    x: 0 (valid) 0xa1-0xa2 (1)
    |                                               |                |                  [1]{}: in 0xa2-0xa4 (2)
0xa0|      41                                       |  A             |                    opcode: "i32.const" (0x41) 0xa2-0xa3 (1)
0xa0|         01                                    |   .            |                    n: 1 (valid) 0xa3-0xa4 (1)
    |                                               |                |                  [2]{}: in 0xa4-0xa5 (1)
0xa0|            6a                                 |    j           |                    opcode: "i32.add" (0x6a) 0xa4-0xa5 (1)
    |                                               |                |                  [3]{}: in 0xa5-0xa7 (2)
0xa0|               20                              |                |                    opcode: "local.get" (0x20) 0xa5-0xa6 (1)
0xa0|                  01                           |      .         |                    x: 1 (valid) 0xa6-0xa7 (1)
    |                                               |                |                  [4]{}: in 0xa7-0xa9 (2)
0xa0|                     41                        |       A        |                    opcode: "i32.const" (0x41) 0xa7-0xa8 (1)
0xa0|                        01                     |        .       |                    n: 1 (valid) 0xa8-0xa9 (1)
    |                                               |                |                  [5]{}: in 0xa9-0xaa (1)
0xa0|                           6a                  |         j      |                    opcode: "i32.add" (0x6a) 0xa9-0xaa (1)
    |                                               |                |                  [6]{}: in 0xaa-0xab (1)
0xa0|                              49               |          I     |                    opcode: "i32.lt_u" (0x49) 0xaa-0xab (1)
    |                                               |                |                  [7]{}: in 0xab-0xac (1)
0xa0|                                 0b            |           .    |                    opcode: "end" (0xb) 0xab-0xac (1)
    |                                               |                |            [2]{}: code 0xac-0xba (14)
0xa0|                                    0d         |            .   |              size: 13 (valid) 0xac-0xad (1)
    |                                               |                |              code{}: 0xad-0xba (13)
    |                                               |                |                t{}: 0xad-0xae (1)
0xa0|                                       00      |             .  |                  n: 0 (valid) 0xad-0xae (1)
    |                                               |                |                  x[0:0]: 0xae-0xae (0)
    |                                               |                |                e[0:8]: 0xae-0xba (12)
    |                                               |                |                  [0]{}: in 0xae-0xb0 (2)
0xa0|                                          20   |                |                    opcode: "local.get" (0x20) 0xae-0xaf (1)
0xa0|                                             00|               .|                    x: 0 (valid) 0xaf-0xb0 (1)
    |                                               |                |                  [1]{}: in 0xb0-0xb2 (2)
0xb0|42                                             |B               |                    opcode: "i64.const" (0x42) 0xb0-0xb1 (1)
0xb0|   01                                          | .              |                    n: 1 0xb1-0xb2 (1)
    |                                               |                |                  [2]{}: in 0xb2-0xb3 (1)
0xb0|      7c                                       |  |             |                    opcode: "i64.add" (0x7c) 0xb2-0xb3 (1)
    |                                               |                |                  [3]{}: in 0xb3-0xb5 (2)
0xb0|         20                                    |                |                    opcode: "local.get" (0x20) 0xb3-0xb4 (1)
0xb0|            01                                 |    .           |                    x: 1 (valid) 0xb4-0xb5 (1)
    |                                               |                |                  [4]{}: in 0xb5-0xb7 (2)
0xb0|               42                              |     B          |                    opcode: "i64.const" (0x42) 0xb5-0xb6 (1)
0xb0|                  01                           |      .         |                    n: 1 0xb6-0xb7 (1)
    |                                               |                |                  [5]{}: in 0xb7-0xb8 (1)
0xb0|                     7c                        |       |        |                    opcode: "i64.add" (0x7c) 0xb7-0xb8 (1)
    |                                               |                |                  [6]{}: in 0xb8-0xb9 (1)
0xb0|                        53                     |        S       |                    opcode: "i64.lt_s" (0x53) 0xb8-0xb9 (1)
    |                                               |                |                  [7]{}: in 0xb9-0xba (1)
0xb0|                           0b                  |         .      |                    opcode: "end" (0xb) 0xb9-0xba (1)
    |                                               |                |            [3]{}: code 0xba-0xc8 (14)
0xb0|                              0d               |          .     |              size: 13 (valid) 0xba-0xbb (1)
    |                                               |                |              code{}: 0xbb-0xc8 (13)
    |                                               |                |                t{}: 0xbb-0xbc (1)
0xb0|                                 00            |           .    |                  n: 0 (valid) 0xbb-0xbc (1)
    |                                               |                |                  x[0:0]: 0xbc-0xbc (0)
    |                                               |                |                e[0:8]: 0xbc-0xc8 (12)
    |                                               |                |                  [0]{}: in 0xbc-0xbe (2)
0xb0|                                    20         |                |                    opcode: "local.get" (0x20) 0xbc-0xbd (1)
0xb0|                                       00      |             .  |                    x: 0 (valid) 0xbd-0xbe (1)
    |                                               |                |                  [1]{}: in 0xbe-0xc0 (2)
0xb0|                                          42   |              B |                    opcode: "i64.const" (0x42) 0xbe-0xbf (1)
0xb0|                                             01|               .|                    n: 1 0xbf-0xc0 (1)
    |                                               |                |                  [2]{}: in 0xc0-0xc1 (1)
0xc0|7c                                             ||               |                    opcode: "i64.add" (0x7c) 0xc0-0xc1 (1)
    |                                               |                |                  [3]{}: in 0xc1-0xc3 (2)
0xc0|   20                                          |                |                    opcode: "local.get" (0x20) 0xc1-0xc2 (1)
0xc0|      01                                       |  .             |                    x: 1 (valid) 0xc2-0xc3 (1)
    |                                               |                |                  [4]{}: in 0xc3-0xc5 (2)
0xc0|         42                                    |   B            |                    opcode: "i64.const" (0x42) 0xc3-0xc4 (1)
0xc0|            01                                 |    .           |                    n: 1 0xc4-0xc5 (1)
    |                                               |                |                  [5]{}: in 0xc5-0xc6 (1)
0xc0|               7c                              |     |          |                    opcode: "i64.add" (0x7c) 0xc5-0xc6 (1)
    |                                               |                |                  [6]{}: in 0xc6-0xc7 (1)
0xc0|                  54                           |      T         |                    opcode: "i64.lt_u" (0x54) 0xc6-0xc7 (1)
    |                                               |                |                  [7]{}: in 0xc7-0xc8 (1)
0xc0|                     0b|                       |       .|       |                    opcode: "end" (0xb) 0xc7-0xc8 (1)
