$ fq -d wasm dv int_literals-0.wasm
     |00 01 02 03 04 05 06 07 08 09 0a 0b 0c 0d 0e 0f|0123456789abcdef|.{}: int_literals-0.wasm (wasm) 0x0-0x305.7 (774)
0x000|00 61 73 6d                                    |.asm            |  magic: raw bits (valid) 0x0-0x3.7 (4)
0x000|            01 00 00 00                        |    ....        |  version: 1 0x4-0x7.7 (4)
     |                                               |                |  sections[0:4]: 0x8-0x305.7 (766)
     |                                               |                |    [0]{}: section 0x8-0x12.7 (11)
0x000|                        01                     |        .       |      id: "type section" (1) 0x8-0x8.7 (1)
0x000|                           09                  |         .      |      size: 9 0x9-0x9.7 (1)
     |                                               |                |      content{}: 0xa-0x12.7 (9)
     |                                               |                |        ft{}: 0xa-0x12.7 (9)
0x000|                              02               |          .     |          n: 2 0xa-0xa.7 (1)
     |                                               |                |          x[0:2]: 0xb-0x12.7 (8)
     |                                               |                |            [0]{}: ft 0xb-0xe.7 (4)
0x000|                                 60            |           `    |              tag: 0x60 (valid) 0xb-0xb.7 (1)
     |                                               |                |              rt1{}: 0xc-0xc.7 (1)
0x000|                                    00         |            .   |                n: 0 0xc-0xc.7 (1)
     |                                               |                |                x[0:0]: 0xd-NA (0)
     |                                               |                |              rt2{}: 0xd-0xe.7 (2)
0x000|                                       01      |             .  |                n: 1 0xd-0xd.7 (1)
     |                                               |                |                x[0:1]: 0xe-0xe.7 (1)
0x000|                                          7f   |              . |                  [0]: "i32" (0x7f) t 0xe-0xe.7 (1)
     |                                               |                |            [1]{}: ft 0xf-0x12.7 (4)
0x000|                                             60|               `|              tag: 0x60 (valid) 0xf-0xf.7 (1)
     |                                               |                |              rt1{}: 0x10-0x10.7 (1)
0x010|00                                             |.               |                n: 0 0x10-0x10.7 (1)
     |                                               |                |                x[0:0]: 0x11-NA (0)
     |                                               |                |              rt2{}: 0x11-0x12.7 (2)
0x010|   01                                          | .              |                n: 1 0x11-0x11.7 (1)
     |                                               |                |                x[0:1]: 0x12-0x12.7 (1)
0x010|      7e                                       |  ~             |                  [0]: "i64" (0x7e) t 0x12-0x12.7 (1)
     |                                               |                |    [1]{}: section 0x13-0x33.7 (33)
0x010|         03                                    |   .            |      id: "function section" (3) 0x13-0x13.7 (1)
0x010|            1f                                 |    .           |      size: 31 0x14-0x14.7 (1)
     |                                               |                |      content{}: 0x15-0x33.7 (31)
     |                                               |                |        x{}: 0x15-0x33.7 (31)
0x010|               1e                              |     .          |          n: 30 0x15-0x15.7 (1)
     |                                               |                |          x[0:30]: 0x16-0x33.7 (30)
0x010|                  00                           |      .         |            [0]: 0 x 0x16-0x16.7 (1)
0x010|                     00                        |       .        |            [1]: 0 x 0x17-0x17.7 (1)
0x010|                        00                     |        .       |            [2]: 0 x 0x18-0x18.7 (1)
0x010|                           00                  |         .      |            [3]: 0 x 0x19-0x19.7 (1)
0x010|                              00               |          .     |            [4]: 0 x 0x1a-0x1a.7 (1)
0x010|                                 00            |           .    |            [5]: 0 x 0x1b-0x1b.7 (1)
0x010|                                    00         |            .   |            [6]: 0 x 0x1c-0x1c.7 (1)
0x010|                                       00      |             .  |            [7]: 0 x 0x1d-0x1d.7 (1)
0x010|                                          00   |              . |            [8]: 0 x 0x1e-0x1e.7 (1)
0x010|                                             00|               .|            [9]: 0 x 0x1f-0x1f.7 (1)
0x020|00                                             |.               |            [10]: 0 x 0x20-0x20.7 (1)
0x020|   01                                          | .              |            [11]: 1 x 0x21-0x21.7 (1)
0x020|      01                                       |  .             |            [12]: 1 x 0x22-0x22.7 (1)
0x020|         01                                    |   .            |            [13]: 1 x 0x23-0x23.7 (1)
0x020|            01                                 |    .           |            [14]: 1 x 0x24-0x24.7 (1)
0x020|               01                              |     .          |            [15]: 1 x 0x25-0x25.7 (1)
0x020|                  01                           |      .         |            [16]: 1 x 0x26-0x26.7 (1)
0x020|                     01                        |       .        |            [17]: 1 x 0x27-0x27.7 (1)
0x020|                        01                     |        .       |            [18]: 1 x 0x28-0x28.7 (1)
0x020|                           01                  |         .      |            [19]: 1 x 0x29-0x29.7 (1)
0x020|                              01               |          .     |            [20]: 1 x 0x2a-0x2a.7 (1)
0x020|                                 01            |           .    |            [21]: 1 x 0x2b-0x2b.7 (1)
0x020|                                    00         |            .   |            [22]: 0 x 0x2c-0x2c.7 (1)
0x020|                                       00      |             .  |            [23]: 0 x 0x2d-0x2d.7 (1)
0x020|                                          00   |              . |            [24]: 0 x 0x2e-0x2e.7 (1)
0x020|                                             00|               .|            [25]: 0 x 0x2f-0x2f.7 (1)
0x030|01                                             |.               |            [26]: 1 x 0x30-0x30.7 (1)
0x030|   01                                          | .              |            [27]: 1 x 0x31-0x31.7 (1)
0x030|      01                                       |  .             |            [28]: 1 x 0x32-0x32.7 (1)
0x030|         01                                    |   .            |            [29]: 1 x 0x33-0x33.7 (1)
     |                                               |                |    [2]{}: section 0x34-0x1ed.7 (442)
0x030|            07                                 |    .           |      id: "export section" (7) 0x34-0x34.7 (1)
0x030|               b7 03                           |     ..         |      size: 439 0x35-0x36.7 (2)
     |                                               |                |      content{}: 0x37-0x1ed.7 (439)
     |                                               |                |        ex{}: 0x37-0x1ed.7 (439)
0x030|                     1e                        |       .        |          n: 30 0x37-0x37.7 (1)
     |                                               |                |          x[0:30]: 0x38-0x1ed.7 (438)
     |                                               |                |            [0]{}: ex 0x38-0x42.7 (11)
     |                                               |                |              nm{}: 0x38-0x40.7 (9)
0x030|                        08                     |        .       |                n: 8 0x38-0x38.7 (1)
0x030|                           69 33 32 2e 74 65 73|         i32.tes|                b: "i32.test" 0x39-0x40.7 (8)
0x040|74                                             |t               |
     |                                               |                |              d{}: 0x41-0x42.7 (2)
0x040|   00                                          | .              |                tag: "funcidx" (0x0) 0x41-0x41.7 (1)
0x040|      00                                       |  .             |                x: 0 0x42-0x42.7 (1)
     |                                               |                |            [1]{}: ex 0x43-0x4d.7 (11)
     |                                               |                |              nm{}: 0x43-0x4b.7 (9)
0x040|         08                                    |   .            |                n: 8 0x43-0x43.7 (1)
0x040|            69 33 32 2e 75 6d 61 78            |    i32.umax    |                b: "i32.umax" 0x44-0x4b.7 (8)
     |                                               |                |              d{}: 0x4c-0x4d.7 (2)
0x040|                                    00         |            .   |                tag: "funcidx" (0x0) 0x4c-0x4c.7 (1)
0x040|                                       01      |             .  |                x: 1 0x4d-0x4d.7 (1)
     |                                               |                |            [2]{}: ex 0x4e-0x58.7 (11)
     |                                               |                |              nm{}: 0x4e-0x56.7 (9)
0x040|                                          08   |              . |                n: 8 0x4e-0x4e.7 (1)
0x040|                                             69|               i|                b: "i32.smax" 0x4f-0x56.7 (8)
0x050|33 32 2e 73 6d 61 78                           |32.smax         |
     |                                               |                |              d{}: 0x57-0x58.7 (2)
0x050|                     00                        |       .        |                tag: "funcidx" (0x0) 0x57-0x57.7 (1)
0x050|                        02                     |        .       |                x: 2 0x58-0x58.7 (1)
     |                                               |                |            [3]{}: ex 0x59-0x67.7 (15)
     |                                               |                |              nm{}: 0x59-0x65.7 (13)
0x050|                           0c                  |         .      |                n: 12 0x59-0x59.7 (1)
0x050|                              69 33 32 2e 6e 65|          i32.ne|                b: "i32.neg_smax" 0x5a-0x65.7 (12)
0x060|67 5f 73 6d 61 78                              |g_smax          |
     |                                               |                |              d{}: 0x66-0x67.7 (2)
0x060|                  00                           |      .         |                tag: "funcidx" (0x0) 0x66-0x66.7 (1)
0x060|                     03                        |       .        |                x: 3 0x67-0x67.7 (1)
     |                                               |                |            [4]{}: ex 0x68-0x72.7 (11)
     |                                               |                |              nm{}: 0x68-0x70.7 (9)
0x060|                        08                     |        .       |                n: 8 0x68-0x68.7 (1)
0x060|                           69 33 32 2e 73 6d 69|         i32.smi|                b: "i32.smin" 0x69-0x70.7 (8)
0x070|6e                                             |n               |
     |                                               |                |              d{}: 0x71-0x72.7 (2)
0x070|   00                                          | .              |                tag: "funcidx" (0x0) 0x71-0x71.7 (1)
0x070|      04                                       |  .             |                x: 4 0x72-0x72.7 (1)
     |                                               |                |            [5]{}: ex 0x73-0x81.7 (15)
     |                                               |                |              nm{}: 0x73-0x7f.7 (13)
0x070|         0c                                    |   .            |                n: 12 0x73-0x73.7 (1)
0x070|            69 33 32 2e 61 6c 74 5f 73 6d 69 6e|    i32.alt_smin|                b: "i32.alt_smin" 0x74-0x7f.7 (12)
     |                                               |                |              d{}: 0x80-0x81.7 (2)
0x080|00                                             |.               |                tag: "funcidx" (0x0) 0x80-0x80.7 (1)
0x080|   05                                          | .              |                x: 5 0x81-0x81.7 (1)
     |                                               |                |            [6]{}: ex 0x82-0x90.7 (15)
     |                                               |                |              nm{}: 0x82-0x8e.7 (13)
0x080|      0c                                       |  .             |                n: 12 0x82-0x82.7 (1)
0x080|         69 33 32 2e 69 6e 63 5f 73 6d 69 6e   |   i32.inc_smin |                b: "i32.inc_smin" 0x83-0x8e.7 (12)
     |                                               |                |              d{}: 0x8f-0x90.7 (2)
0x080|                                             00|               .|                tag: "funcidx" (0x0) 0x8f-0x8f.7 (1)
0x090|06                                             |.               |                x: 6 0x90-0x90.7 (1)
     |                                               |                |            [7]{}: ex 0x91-0x9f.7 (15)
     |                                               |                |              nm{}: 0x91-0x9d.7 (13)
0x090|   0c                                          | .              |                n: 12 0x91-0x91.7 (1)
0x090|      69 33 32 2e 6e 65 67 5f 7a 65 72 6f      |  i32.neg_zero  |                b: "i32.neg_zero" 0x92-0x9d.7 (12)
     |                                               |                |              d{}: 0x9e-0x9f.7 (2)
0x090|                                          00   |              . |                tag: "funcidx" (0x0) 0x9e-0x9e.7 (1)
0x090|                                             07|               .|                x: 7 0x9f-0x9f.7 (1)
     |                                               |                |            [8]{}: ex 0xa0-0xaf.7 (16)
     |                                               |                |              nm{}: 0xa0-0xad.7 (14)
0x0a0|0d                                             |.               |                n: 13 0xa0-0xa0.7 (1)
0x0a0|   69 33 32 2e 6e 6f 74 5f 6f 63 74 61 6c      | i32.not_octal  |                b: "i32.not_octal" 0xa1-0xad.7 (13)
     |                                               |                |              d{}: 0xae-0xaf.7 (2)
0x0a0|                                          00   |              . |                tag: "funcidx" (0x0) 0xae-0xae.7 (1)
0x0a0|                                             08|               .|                x: 8 0xaf-0xaf.7 (1)
     |                                               |                |            [9]{}: ex 0xb0-0xc6.7 (23)
     |                                               |                |              nm{}: 0xb0-0xc4.7 (21)
0x0b0|14                                             |.               |                n: 20 0xb0-0xb0.7 (1)
0x0b0|   69 33 32 2e 75 6e 73 69 67 6e 65 64 5f 64 65| i32.unsigned_de|                b: "i32.unsigned_decimal" 0xb1-0xc4.7 (20)
0x0c0|63 69 6d 61 6c                                 |cimal           |
     |                                               |                |              d{}: 0xc5-0xc6.7 (2)
0x0c0|               00                              |     .          |                tag: "funcidx" (0x0) 0xc5-0xc5.7 (1)
0x0c0|                  09                           |      .         |                x: 9 0xc6-0xc6.7 (1)
     |                                               |                |            [10]{}: ex 0xc7-0xd6.7 (16)
     |                                               |                |              nm{}: 0xc7-0xd4.7 (14)
0x0c0|                     0d                        |       .        |                n: 13 0xc7-0xc7.7 (1)
0x0c0|                        69 33 32 2e 70 6c 75 73|        i32.plus|                b: "i32.plus_sign" 0xc8-0xd4.7 (13)
0x0d0|5f 73 69 67 6e                                 |_sign           |
     |                                               |                |              d{}: 0xd5-0xd6.7 (2)
0x0d0|               00                              |     .          |                tag: "funcidx" (0x0) 0xd5-0xd5.7 (1)
0x0d0|                  0a                           |      .         |                x: 10 0xd6-0xd6.7 (1)
     |                                               |                |            [11]{}: ex 0xd7-0xe1.7 (11)
     |                                               |                |              nm{}: 0xd7-0xdf.7 (9)
0x0d0|                     08                        |       .        |                n: 8 0xd7-0xd7.7 (1)
0x0d0|                        69 36 34 2e 74 65 73 74|        i64.test|                b: "i64.test" 0xd8-0xdf.7 (8)
     |                                               |                |              d{}: 0xe0-0xe1.7 (2)
0x0e0|00                                             |.               |                tag: "funcidx" (0x0) 0xe0-0xe0.7 (1)
0x0e0|   0b                                          | .              |                x: 11 0xe1-0xe1.7 (1)
     |                                               |                |            [12]{}: ex 0xe2-0xec.7 (11)
     |                                               |                |              nm{}: 0xe2-0xea.7 (9)
0x0e0|      08                                       |  .             |                n: 8 0xe2-0xe2.7 (1)
0x0e0|         69 36 34 2e 75 6d 61 78               |   i64.umax     |                b: "i64.umax" 0xe3-0xea.7 (8)
     |                                               |                |              d{}: 0xeb-0xec.7 (2)
0x0e0|                                 00            |           .    |                tag: "funcidx" (0x0) 0xeb-0xeb.7 (1)
0x0e0|                                    0c         |            .   |                x: 12 0xec-0xec.7 (1)
     |                                               |                |            [13]{}: ex 0xed-0xf7.7 (11)
     |                                               |                |              nm{}: 0xed-0xf5.7 (9)
0x0e0|                                       08      |             .  |                n: 8 0xed-0xed.7 (1)
0x0e0|                                          69 36|              i6|                b: "i64.smax" 0xee-0xf5.7 (8)
0x0f0|34 2e 73 6d 61 78                              |4.smax          |
     |                                               |                |              d{}: 0xf6-0xf7.7 (2)
0x0f0|                  00                           |      .         |                tag: "funcidx" (0x0) 0xf6-0xf6.7 (1)
0x0f0|                     0d                        |       .        |                x: 13 0xf7-0xf7.7 (1)
     |                                               |                |            [14]{}: ex 0xf8-0x106.7 (15)
     |                                               |                |              nm{}: 0xf8-0x104.7 (13)
0x0f0|                        0c                     |        .       |                n: 12 0xf8-0xf8.7 (1)
0x0f0|                           69 36 34 2e 6e 65 67|         i64.neg|                b: "i64.neg_smax" 0xf9-0x104.7 (12)
0x100|5f 73 6d 61 78                                 |_smax           |
     |                                               |                |              d{}: 0x105-0x106.7 (2)
0x100|               00                              |     .          |                tag: "funcidx" (0x0) 0x105-0x105.7 (1)
0x100|                  0e                           |      .         |                x: 14 0x106-0x106.7 (1)
     |                                               |                |            [15]{}: ex 0x107-0x111.7 (11)
     |                                               |                |              nm{}: 0x107-0x10f.7 (9)
0x100|                     08                        |       .        |                n: 8 0x107-0x107.7 (1)
0x100|                        69 36 34 2e 73 6d 69 6e|        i64.smin|                b: "i64.smin" 0x108-0x10f.7 (8)
     |                                               |                |              d{}: 0x110-0x111.7 (2)
0x110|00                                             |.               |                tag: "funcidx" (0x0) 0x110-0x110.7 (1)
0x110|   0f                                          | .              |                x: 15 0x111-0x111.7 (1)
     |                                               |                |            [16]{}: ex 0x112-0x120.7 (15)
     |                                               |                |              nm{}: 0x112-0x11e.7 (13)
0x110|      0c                                       |  .             |                n: 12 0x112-0x112.7 (1)
0x110|         69 36 34 2e 61 6c 74 5f 73 6d 69 6e   |   i64.alt_smin |                b: "i64.alt_smin" 0x113-0x11e.7 (12)
     |                                               |                |              d{}: 0x11f-0x120.7 (2)
0x110|                                             00|               .|                tag: "funcidx" (0x0) 0x11f-0x11f.7 (1)
0x120|10                                             |.               |                x: 16 0x120-0x120.7 (1)
     |                                               |                |            [17]{}: ex 0x121-0x12f.7 (15)
     |                                               |                |              nm{}: 0x121-0x12d.7 (13)
0x120|   0c                                          | .              |                n: 12 0x121-0x121.7 (1)
0x120|      69 36 34 2e 69 6e 63 5f 73 6d 69 6e      |  i64.inc_smin  |                b: "i64.inc_smin" 0x122-0x12d.7 (12)
     |                                               |                |              d{}: 0x12e-0x12f.7 (2)
0x120|                                          00   |              . |                tag: "funcidx" (0x0) 0x12e-0x12e.7 (1)
0x120|                                             11|               .|                x: 17 0x12f-0x12f.7 (1)
     |                                               |                |            [18]{}: ex 0x130-0x13e.7 (15)
     |                                               |                |              nm{}: 0x130-0x13c.7 (13)
0x130|0c                                             |.               |                n: 12 0x130-0x130.7 (1)
0x130|   69 36 34 2e 6e 65 67 5f 7a 65 72 6f         | i64.neg_zero   |                b: "i64.neg_zero" 0x131-0x13c.7 (12)
     |                                               |                |              d{}: 0x13d-0x13e.7 (2)
0x130|                                       00      |             .  |                tag: "funcidx" (0x0) 0x13d-0x13d.7 (1)
0x130|                                          12   |              . |                x: 18 0x13e-0x13e.7 (1)
     |                                               |                |            [19]{}: ex 0x13f-0x14e.7 (16)
     |                                               |                |              nm{}: 0x13f-0x14c.7 (14)
0x130|                                             0d|               .|                n: 13 0x13f-0x13f.7 (1)
0x140|69 36 34 2e 6e 6f 74 5f 6f 63 74 61 6c         |i64.not_octal   |                b: "i64.not_octal" 0x140-0x14c.7 (13)
     |                                               |                |              d{}: 0x14d-0x14e.7 (2)
0x140|                                       00      |             .  |                tag: "funcidx" (0x0) 0x14d-0x14d.7 (1)
0x140|                                          13   |              . |                x: 19 0x14e-0x14e.7 (1)
     |                                               |                |            [20]{}: ex 0x14f-0x165.7 (23)
     |                                               |                |              nm{}: 0x14f-0x163.7 (21)
0x140|                                             14|               .|                n: 20 0x14f-0x14f.7 (1)
0x150|69 36 34 2e 75 6e 73 69 67 6e 65 64 5f 64 65 63|i64.unsigned_dec|                b: "i64.unsigned_decimal" 0x150-0x163.7 (20)
0x160|69 6d 61 6c                                    |imal            |
     |                                               |                |              d{}: 0x164-0x165.7 (2)
0x160|            00                                 |    .           |                tag: "funcidx" (0x0) 0x164-0x164.7 (1)
0x160|               14                              |     .          |                x: 20 0x165-0x165.7 (1)
     |                                               |                |            [21]{}: ex 0x166-0x175.7 (16)
     |                                               |                |              nm{}: 0x166-0x173.7 (14)
0x160|                  0d                           |      .         |                n: 13 0x166-0x166.7 (1)
0x160|                     69 36 34 2e 70 6c 75 73 5f|       i64.plus_|                b: "i64.plus_sign" 0x167-0x173.7 (13)
0x170|73 69 67 6e                                    |sign            |
     |                                               |                |              d{}: 0x174-0x175.7 (2)
0x170|            00                                 |    .           |                tag: "funcidx" (0x0) 0x174-0x174.7 (1)
0x170|               15                              |     .          |                x: 21 0x175-0x175.7 (1)
     |                                               |                |            [22]{}: ex 0x176-0x184.7 (15)
     |                                               |                |              nm{}: 0x176-0x182.7 (13)
0x170|                  0c                           |      .         |                n: 12 0x176-0x176.7 (1)
0x170|                     69 33 32 2d 64 65 63 2d 73|       i32-dec-s|                b: "i32-dec-sep1" 0x177-0x182.7 (12)
0x180|65 70 31                                       |ep1             |
     |                                               |                |              d{}: 0x183-0x184.7 (2)
0x180|         00                                    |   .            |                tag: "funcidx" (0x0) 0x183-0x183.7 (1)
0x180|            16                                 |    .           |                x: 22 0x184-0x184.7 (1)
     |                                               |                |            [23]{}: ex 0x185-0x193.7 (15)
     |                                               |                |              nm{}: 0x185-0x191.7 (13)
0x180|               0c                              |     .          |                n: 12 0x185-0x185.7 (1)
0x180|                  69 33 32 2d 64 65 63 2d 73 65|      i32-dec-se|                b: "i32-dec-sep2" 0x186-0x191.7 (12)
0x190|70 32                                          |p2              |
     |                                               |                |              d{}: 0x192-0x193.7 (2)
0x190|      00                                       |  .             |                tag: "funcidx" (0x0) 0x192-0x192.7 (1)
0x190|         17                                    |   .            |                x: 23 0x193-0x193.7 (1)
     |                                               |                |            [24]{}: ex 0x194-0x1a2.7 (15)
     |                                               |                |              nm{}: 0x194-0x1a0.7 (13)
0x190|            0c                                 |    .           |                n: 12 0x194-0x194.7 (1)
0x190|               69 33 32 2d 68 65 78 2d 73 65 70|     i32-hex-sep|                b: "i32-hex-sep1" 0x195-0x1a0.7 (12)
0x1a0|31                                             |1               |
     |                                               |                |              d{}: 0x1a1-0x1a2.7 (2)
0x1a0|   00                                          | .              |                tag: "funcidx" (0x0) 0x1a1-0x1a1.7 (1)
0x1a0|      18                                       |  .             |                x: 24 0x1a2-0x1a2.7 (1)
     |                                               |                |            [25]{}: ex 0x1a3-0x1b1.7 (15)
     |                                               |                |              nm{}: 0x1a3-0x1af.7 (13)
0x1a0|         0c                                    |   .            |                n: 12 0x1a3-0x1a3.7 (1)
0x1a0|            69 33 32 2d 68 65 78 2d 73 65 70 32|    i32-hex-sep2|                b: "i32-hex-sep2" 0x1a4-0x1af.7 (12)
     |                                               |                |              d{}: 0x1b0-0x1b1.7 (2)
0x1b0|00                                             |.               |                tag: "funcidx" (0x0) 0x1b0-0x1b0.7 (1)
0x1b0|   19                                          | .              |                x: 25 0x1b1-0x1b1.7 (1)
     |                                               |                |            [26]{}: ex 0x1b2-0x1c0.7 (15)
     |                                               |                |              nm{}: 0x1b2-0x1be.7 (13)
0x1b0|      0c                                       |  .             |                n: 12 0x1b2-0x1b2.7 (1)
0x1b0|         69 36 34 2d 64 65 63 2d 73 65 70 31   |   i64-dec-sep1 |                b: "i64-dec-sep1" 0x1b3-0x1be.7 (12)
     |                                               |                |              d{}: 0x1bf-0x1c0.7 (2)
0x1b0|                                             00|               .|                tag: "funcidx" (0x0) 0x1bf-0x1bf.7 (1)
0x1c0|1a                                             |.               |                x: 26 0x1c0-0x1c0.7 (1)
     |                                               |                |            [27]{}: ex 0x1c1-0x1cf.7 (15)
     |                                               |                |              nm{}: 0x1c1-0x1cd.7 (13)
0x1c0|   0c                                          | .              |                n: 12 0x1c1-0x1c1.7 (1)
0x1c0|      69 36 34 2d 64 65 63 2d 73 65 70 32      |  i64-dec-sep2  |                b: "i64-dec-sep2" 0x1c2-0x1cd.7 (12)
     |                                               |                |              d{}: 0x1ce-0x1cf.7 (2)
0x1c0|                                          00   |              . |                tag: "funcidx" (0x0) 0x1ce-0x1ce.7 (1)
0x1c0|                                             1b|               .|                x: 27 0x1cf-0x1cf.7 (1)
     |                                               |                |            [28]{}: ex 0x1d0-0x1de.7 (15)
     |                                               |                |              nm{}: 0x1d0-0x1dc.7 (13)
0x1d0|0c                                             |.               |                n: 12 0x1d0-0x1d0.7 (1)
0x1d0|   69 36 34 2d 68 65 78 2d 73 65 70 31         | i64-hex-sep1   |                b: "i64-hex-sep1" 0x1d1-0x1dc.7 (12)
     |                                               |                |              d{}: 0x1dd-0x1de.7 (2)
0x1d0|                                       00      |             .  |                tag: "funcidx" (0x0) 0x1dd-0x1dd.7 (1)
0x1d0|                                          1c   |              . |                x: 28 0x1de-0x1de.7 (1)
     |                                               |                |            [29]{}: ex 0x1df-0x1ed.7 (15)
     |                                               |                |              nm{}: 0x1df-0x1eb.7 (13)
0x1d0|                                             0c|               .|                n: 12 0x1df-0x1df.7 (1)
0x1e0|69 36 34 2d 68 65 78 2d 73 65 70 32            |i64-hex-sep2    |                b: "i64-hex-sep2" 0x1e0-0x1eb.7 (12)
     |                                               |                |              d{}: 0x1ec-0x1ed.7 (2)
0x1e0|                                    00         |            .   |                tag: "funcidx" (0x0) 0x1ec-0x1ec.7 (1)
0x1e0|                                       1d      |             .  |                x: 29 0x1ed-0x1ed.7 (1)
     |                                               |                |    [3]{}: section 0x1ee-0x305.7 (280)
0x1e0|                                          0a   |              . |      id: "code section" (10) 0x1ee-0x1ee.7 (1)
0x1e0|                                             95|               .|      size: 277 0x1ef-0x1f0.7 (2)
0x1f0|02                                             |.               |
     |                                               |                |      content{}: 0x1f1-0x305.7 (277)
     |                                               |                |        code{}: 0x1f1-0x305.7 (277)
0x1f0|   1e                                          | .              |          n: 30 0x1f1-0x1f1.7 (1)
     |                                               |                |          x[0:30]: 0x1f2-0x305.7 (276)
     |                                               |                |            [0]{}: code 0x1f2-0x1fb.7 (10)
0x1f0|      09                                       |  .             |              size: 9 0x1f2-0x1f2.7 (1)
     |                                               |                |              code{}: 0x1f3-0x1fb.7 (9)
     |                                               |                |                t{}: 0x1f3-0x1f3.7 (1)
0x1f0|         00                                    |   .            |                  n: 0 0x1f3-0x1f3.7 (1)
     |                                               |                |                  x[0:0]: 0x1f4-NA (0)
     |                                               |                |                e[0:3]: 0x1f4-0x1fb.7 (8)
     |                                               |                |                  [0]{}: in 0x1f4-0x1f9.7 (6)
0x1f0|            41                                 |    A           |                    i32.const: 0x41 (valid) 0x1f4-0x1f4.7 (1)
0x1f0|               8d a0 b7 dd 00                  |     .....      |                    n: 195940365 0x1f5-0x1f9.7 (5)
     |                                               |                |                  [1]{}: in 0x1fa-0x1fa.7 (1)
0x1f0|                              0f               |          .     |                    return: 0xf (valid) 0x1fa-0x1fa.7 (1)
     |                                               |                |                  [2]{}: in 0x1fb-0x1fb.7 (1)
0x1f0|                                 0b            |           .    |                    end: 0xb (valid) 0x1fb-0x1fb.7 (1)
     |                                               |                |            [1]{}: code 0x1fc-0x201.7 (6)
0x1f0|                                    05         |            .   |              size: 5 0x1fc-0x1fc.7 (1)
     |                                               |                |              code{}: 0x1fd-0x201.7 (5)
     |                                               |                |                t{}: 0x1fd-0x1fd.7 (1)
0x1f0|                                       00      |             .  |                  n: 0 0x1fd-0x1fd.7 (1)
     |                                               |                |                  x[0:0]: 0x1fe-NA (0)
     |                                               |                |                e[0:3]: 0x1fe-0x201.7 (4)
     |                                               |                |                  [0]{}: in 0x1fe-0x1ff.7 (2)
0x1f0|                                          41   |              A |                    i32.const: 0x41 (valid) 0x1fe-0x1fe.7 (1)
0x1f0|                                             7f|               .|                    n: -1 0x1ff-0x1ff.7 (1)
     |                                               |                |                  [1]{}: in 0x200-0x200.7 (1)
0x200|0f                                             |.               |                    return: 0xf (valid) 0x200-0x200.7 (1)
     |                                               |                |                  [2]{}: in 0x201-0x201.7 (1)
0x200|   0b                                          | .              |                    end: 0xb (valid) 0x201-0x201.7 (1)
     |                                               |                |            [2]{}: code 0x202-0x20b.7 (10)
0x200|      09                                       |  .             |              size: 9 0x202-0x202.7 (1)
     |                                               |                |              code{}: 0x203-0x20b.7 (9)
     |                                               |                |                t{}: 0x203-0x203.7 (1)
0x200|         00                                    |   .            |                  n: 0 0x203-0x203.7 (1)
     |                                               |                |                  x[0:0]: 0x204-NA (0)
     |                                               |                |                e[0:3]: 0x204-0x20b.7 (8)
     |                                               |                |                  [0]{}: in 0x204-0x209.7 (6)
0x200|            41                                 |    A           |                    i32.const: 0x41 (valid) 0x204-0x204.7 (1)
0x200|               ff ff ff ff 07                  |     .....      |                    n: 2147483647 0x205-0x209.7 (5)
     |                                               |                |                  [1]{}: in 0x20a-0x20a.7 (1)
0x200|                              0f               |          .     |                    return: 0xf (valid) 0x20a-0x20a.7 (1)
     |                                               |                |                  [2]{}: in 0x20b-0x20b.7 (1)
0x200|                                 0b            |           .    |                    end: 0xb (valid) 0x20b-0x20b.7 (1)
     |                                               |                |            [3]{}: code 0x20c-0x215.7 (10)
0x200|                                    09         |            .   |              size: 9 0x20c-0x20c.7 (1)
     |                                               |                |              code{}: 0x20d-0x215.7 (9)
     |                                               |                |                t{}: 0x20d-0x20d.7 (1)
0x200|                                       00      |             .  |                  n: 0 0x20d-0x20d.7 (1)
     |                                               |                |                  x[0:0]: 0x20e-NA (0)
     |                                               |                |                e[0:3]: 0x20e-0x215.7 (8)
     |                                               |                |                  [0]{}: in 0x20e-0x213.7 (6)
0x200|                                          41   |              A |                    i32.const: 0x41 (valid) 0x20e-0x20e.7 (1)
0x200|                                             81|               .|                    n: -2147483647 0x20f-0x213.7 (5)
0x210|80 80 80 78                                    |...x            |
     |                                               |                |                  [1]{}: in 0x214-0x214.7 (1)
0x210|            0f                                 |    .           |                    return: 0xf (valid) 0x214-0x214.7 (1)
     |                                               |                |                  [2]{}: in 0x215-0x215.7 (1)
0x210|               0b                              |     .          |                    end: 0xb (valid) 0x215-0x215.7 (1)
     |                                               |                |            [4]{}: code 0x216-0x21f.7 (10)
0x210|                  09                           |      .         |              size: 9 0x216-0x216.7 (1)
     |                                               |                |              code{}: 0x217-0x21f.7 (9)
     |                                               |                |                t{}: 0x217-0x217.7 (1)
0x210|                     00                        |       .        |                  n: 0 0x217-0x217.7 (1)
     |                                               |                |                  x[0:0]: 0x218-NA (0)
     |                                               |                |                e[0:3]: 0x218-0x21f.7 (8)
     |                                               |                |                  [0]{}: in 0x218-0x21d.7 (6)
0x210|                        41                     |        A       |                    i32.const: 0x41 (valid) 0x218-0x218.7 (1)
0x210|                           80 80 80 80 78      |         ....x  |                    n: -2147483648 0x219-0x21d.7 (5)
     |                                               |                |                  [1]{}: in 0x21e-0x21e.7 (1)
0x210|                                          0f   |              . |                    return: 0xf (valid) 0x21e-0x21e.7 (1)
     |                                               |                |                  [2]{}: in 0x21f-0x21f.7 (1)
0x210|                                             0b|               .|                    end: 0xb (valid) 0x21f-0x21f.7 (1)
     |                                               |                |            [5]{}: code 0x220-0x229.7 (10)
0x220|09                                             |.               |              size: 9 0x220-0x220.7 (1)
     |                                               |                |              code{}: 0x221-0x229.7 (9)
     |                                               |                |                t{}: 0x221-0x221.7 (1)
0x220|   00                                          | .              |                  n: 0 0x221-0x221.7 (1)
     |                                               |                |                  x[0:0]: 0x222-NA (0)
     |                                               |                |                e[0:3]: 0x222-0x229.7 (8)
     |                                               |                |                  [0]{}: in 0x222-0x227.7 (6)
0x220|      41                                       |  A             |                    i32.const: 0x41 (valid) 0x222-0x222.7 (1)
0x220|         80 80 80 80 78                        |   ....x        |                    n: -2147483648 0x223-0x227.7 (5)
     |                                               |                |                  [1]{}: in 0x228-0x228.7 (1)
0x220|                        0f                     |        .       |                    return: 0xf (valid) 0x228-0x228.7 (1)
     |                                               |                |                  [2]{}: in 0x229-0x229.7 (1)
0x220|                           0b                  |         .      |                    end: 0xb (valid) 0x229-0x229.7 (1)
     |                                               |                |            [6]{}: code 0x22a-0x236.7 (13)
0x220|                              0c               |          .     |              size: 12 0x22a-0x22a.7 (1)
     |                                               |                |              code{}: 0x22b-0x236.7 (12)
     |                                               |                |                t{}: 0x22b-0x22b.7 (1)
0x220|                                 00            |           .    |                  n: 0 0x22b-0x22b.7 (1)
     |                                               |                |                  x[0:0]: 0x22c-NA (0)
     |                                               |                |                e[0:5]: 0x22c-0x236.7 (11)
     |                                               |                |                  [0]{}: in 0x22c-0x231.7 (6)
0x220|                                    41         |            A   |                    i32.const: 0x41 (valid) 0x22c-0x22c.7 (1)
0x220|                                       80 80 80|             ...|                    n: -2147483648 0x22d-0x231.7 (5)
0x230|80 78                                          |.x              |
     |                                               |                |                  [1]{}: in 0x232-0x233.7 (2)
0x230|      41                                       |  A             |                    i32.const: 0x41 (valid) 0x232-0x232.7 (1)
0x230|         01                                    |   .            |                    n: 1 0x233-0x233.7 (1)
     |                                               |                |                  [2]{}: in 0x234-0x234.7 (1)
0x230|            6a                                 |    j           |                    i32.add: 0x6a (valid) 0x234-0x234.7 (1)
     |                                               |                |                  [3]{}: in 0x235-0x235.7 (1)
0x230|               0f                              |     .          |                    return: 0xf (valid) 0x235-0x235.7 (1)
     |                                               |                |                  [4]{}: in 0x236-0x236.7 (1)
0x230|                  0b                           |      .         |                    end: 0xb (valid) 0x236-0x236.7 (1)
     |                                               |                |            [7]{}: code 0x237-0x23c.7 (6)
0x230|                     05                        |       .        |              size: 5 0x237-0x237.7 (1)
     |                                               |                |              code{}: 0x238-0x23c.7 (5)
     |                                               |                |                t{}: 0x238-0x238.7 (1)
0x230|                        00                     |        .       |                  n: 0 0x238-0x238.7 (1)
     |                                               |                |                  x[0:0]: 0x239-NA (0)
     |                                               |                |                e[0:3]: 0x239-0x23c.7 (4)
     |                                               |                |                  [0]{}: in 0x239-0x23a.7 (2)
0x230|                           41                  |         A      |                    i32.const: 0x41 (valid) 0x239-0x239.7 (1)
0x230|                              00               |          .     |                    n: 0 0x23a-0x23a.7 (1)
     |                                               |                |                  [1]{}: in 0x23b-0x23b.7 (1)
0x230|                                 0f            |           .    |                    return: 0xf (valid) 0x23b-0x23b.7 (1)
     |                                               |                |                  [2]{}: in 0x23c-0x23c.7 (1)
0x230|                                    0b         |            .   |                    end: 0xb (valid) 0x23c-0x23c.7 (1)
     |                                               |                |            [8]{}: code 0x23d-0x242.7 (6)
0x230|                                       05      |             .  |              size: 5 0x23d-0x23d.7 (1)
     |                                               |                |              code{}: 0x23e-0x242.7 (5)
     |                                               |                |                t{}: 0x23e-0x23e.7 (1)
0x230|                                          00   |              . |                  n: 0 0x23e-0x23e.7 (1)
     |                                               |                |                  x[0:0]: 0x23f-NA (0)
     |                                               |                |                e[0:3]: 0x23f-0x242.7 (4)
     |                                               |                |                  [0]{}: in 0x23f-0x240.7 (2)
0x230|                                             41|               A|                    i32.const: 0x41 (valid) 0x23f-0x23f.7 (1)
0x240|0a                                             |.               |                    n: 10 0x240-0x240.7 (1)
     |                                               |                |                  [1]{}: in 0x241-0x241.7 (1)
0x240|   0f                                          | .              |                    return: 0xf (valid) 0x241-0x241.7 (1)
     |                                               |                |                  [2]{}: in 0x242-0x242.7 (1)
0x240|      0b                                       |  .             |                    end: 0xb (valid) 0x242-0x242.7 (1)
     |                                               |                |            [9]{}: code 0x243-0x248.7 (6)
0x240|         05                                    |   .            |              size: 5 0x243-0x243.7 (1)
     |                                               |                |              code{}: 0x244-0x248.7 (5)
     |                                               |                |                t{}: 0x244-0x244.7 (1)
0x240|            00                                 |    .           |                  n: 0 0x244-0x244.7 (1)
     |                                               |                |                  x[0:0]: 0x245-NA (0)
     |                                               |                |                e[0:3]: 0x245-0x248.7 (4)
     |                                               |                |                  [0]{}: in 0x245-0x246.7 (2)
0x240|               41                              |     A          |                    i32.const: 0x41 (valid) 0x245-0x245.7 (1)
0x240|                  7f                           |      .         |                    n: -1 0x246-0x246.7 (1)
     |                                               |                |                  [1]{}: in 0x247-0x247.7 (1)
0x240|                     0f                        |       .        |                    return: 0xf (valid) 0x247-0x247.7 (1)
     |                                               |                |                  [2]{}: in 0x248-0x248.7 (1)
0x240|                        0b                     |        .       |                    end: 0xb (valid) 0x248-0x248.7 (1)
     |                                               |                |            [10]{}: code 0x249-0x24e.7 (6)
0x240|                           05                  |         .      |              size: 5 0x249-0x249.7 (1)
     |                                               |                |              code{}: 0x24a-0x24e.7 (5)
     |                                               |                |                t{}: 0x24a-0x24a.7 (1)
0x240|                              00               |          .     |                  n: 0 0x24a-0x24a.7 (1)
     |                                               |                |                  x[0:0]: 0x24b-NA (0)
     |                                               |                |                e[0:3]: 0x24b-0x24e.7 (4)
     |                                               |                |                  [0]{}: in 0x24b-0x24c.7 (2)
0x240|                                 41            |           A    |                    i32.const: 0x41 (valid) 0x24b-0x24b.7 (1)
0x240|                                    2a         |            *   |                    n: 42 0x24c-0x24c.7 (1)
     |                                               |                |                  [1]{}: in 0x24d-0x24d.7 (1)
0x240|                                       0f      |             .  |                    return: 0xf (valid) 0x24d-0x24d.7 (1)
     |                                               |                |                  [2]{}: in 0x24e-0x24e.7 (1)
0x240|                                          0b   |              . |                    end: 0xb (valid) 0x24e-0x24e.7 (1)
     |                                               |                |            [11]{}: code 0x24f-0x25c.7 (14)
0x240|                                             0d|               .|              size: 13 0x24f-0x24f.7 (1)
     |                                               |                |              code{}: 0x250-0x25c.7 (13)
     |                                               |                |                t{}: 0x250-0x250.7 (1)
0x250|00                                             |.               |                  n: 0 0x250-0x250.7 (1)
     |                                               |                |                  x[0:0]: 0x251-NA (0)
     |                                               |                |                e[0:3]: 0x251-0x25c.7 (12)
     |                                               |                |                  [0]{}: in 0x251-0x25a.7 (10)
0x250|   42                                          | B              |                    i64.const: 0x42 (valid) 0x251-0x251.7 (1)
0x250|      ee d4 99 dd e0 cd ee d5 0c               |  .........     |                    n: 913028331277281902 0x252-0x25a.7 (9)
     |                                               |                |                  [1]{}: in 0x25b-0x25b.7 (1)
0x250|                                 0f            |           .    |                    return: 0xf (valid) 0x25b-0x25b.7 (1)
     |                                               |                |                  [2]{}: in 0x25c-0x25c.7 (1)
0x250|                                    0b         |            .   |                    end: 0xb (valid) 0x25c-0x25c.7 (1)
     |                                               |                |            [12]{}: code 0x25d-0x262.7 (6)
0x250|                                       05      |             .  |              size: 5 0x25d-0x25d.7 (1)
     |                                               |                |              code{}: 0x25e-0x262.7 (5)
     |                                               |                |                t{}: 0x25e-0x25e.7 (1)
0x250|                                          00   |              . |                  n: 0 0x25e-0x25e.7 (1)
     |                                               |                |                  x[0:0]: 0x25f-NA (0)
     |                                               |                |                e[0:3]: 0x25f-0x262.7 (4)
     |                                               |                |                  [0]{}: in 0x25f-0x260.7 (2)
0x250|                                             42|               B|                    i64.const: 0x42 (valid) 0x25f-0x25f.7 (1)
0x260|7f                                             |.               |                    n: -1 0x260-0x260.7 (1)
     |                                               |                |                  [1]{}: in 0x261-0x261.7 (1)
0x260|   0f                                          | .              |                    return: 0xf (valid) 0x261-0x261.7 (1)
     |                                               |                |                  [2]{}: in 0x262-0x262.7 (1)
0x260|      0b                                       |  .             |                    end: 0xb (valid) 0x262-0x262.7 (1)
     |                                               |                |            [13]{}: code 0x263-0x271.7 (15)
0x260|         0e                                    |   .            |              size: 14 0x263-0x263.7 (1)
     |                                               |                |              code{}: 0x264-0x271.7 (14)
     |                                               |                |                t{}: 0x264-0x264.7 (1)
0x260|            00                                 |    .           |                  n: 0 0x264-0x264.7 (1)
     |                                               |                |                  x[0:0]: 0x265-NA (0)
     |                                               |                |                e[0:3]: 0x265-0x271.7 (13)
     |                                               |                |                  [0]{}: in 0x265-0x26f.7 (11)
0x260|               42                              |     B          |                    i64.const: 0x42 (valid) 0x265-0x265.7 (1)
0x260|                  ff ff ff ff ff ff ff ff ff 00|      ..........|                    n: 9223372036854775807 0x266-0x26f.7 (10)
     |                                               |                |                  [1]{}: in 0x270-0x270.7 (1)
0x270|0f                                             |.               |                    return: 0xf (valid) 0x270-0x270.7 (1)
     |                                               |                |                  [2]{}: in 0x271-0x271.7 (1)
0x270|   0b                                          | .              |                    end: 0xb (valid) 0x271-0x271.7 (1)
     |                                               |                |            [14]{}: code 0x272-0x280.7 (15)
0x270|      0e                                       |  .             |              size: 14 0x272-0x272.7 (1)
     |                                               |                |              code{}: 0x273-0x280.7 (14)
     |                                               |                |                t{}: 0x273-0x273.7 (1)
0x270|         00                                    |   .            |                  n: 0 0x273-0x273.7 (1)
     |                                               |                |                  x[0:0]: 0x274-NA (0)
     |                                               |                |                e[0:3]: 0x274-0x280.7 (13)
     |                                               |                |                  [0]{}: in 0x274-0x27e.7 (11)
0x270|            42                                 |    B           |                    i64.const: 0x42 (valid) 0x274-0x274.7 (1)
0x270|               81 80 80 80 80 80 80 80 80 7f   |     .......... |                    n: -9223372036854775807 0x275-0x27e.7 (10)
     |                                               |                |                  [1]{}: in 0x27f-0x27f.7 (1)
0x270|                                             0f|               .|                    return: 0xf (valid) 0x27f-0x27f.7 (1)
     |                                               |                |                  [2]{}: in 0x280-0x280.7 (1)
0x280|0b                                             |.               |                    end: 0xb (valid) 0x280-0x280.7 (1)
     |                                               |                |            [15]{}: code 0x281-0x28f.7 (15)
0x280|   0e                                          | .              |              size: 14 0x281-0x281.7 (1)
     |                                               |                |              code{}: 0x282-0x28f.7 (14)
     |                                               |                |                t{}: 0x282-0x282.7 (1)
0x280|      00                                       |  .             |                  n: 0 0x282-0x282.7 (1)
     |                                               |                |                  x[0:0]: 0x283-NA (0)
     |                                               |                |                e[0:3]: 0x283-0x28f.7 (13)
     |                                               |                |                  [0]{}: in 0x283-0x28d.7 (11)
0x280|         42                                    |   B            |                    i64.const: 0x42 (valid) 0x283-0x283.7 (1)
0x280|            80 80 80 80 80 80 80 80 80 7f      |    ..........  |                    n: -9223372036854775808 0x284-0x28d.7 (10)
     |                                               |                |                  [1]{}: in 0x28e-0x28e.7 (1)
0x280|                                          0f   |              . |                    return: 0xf (valid) 0x28e-0x28e.7 (1)
     |                                               |                |                  [2]{}: in 0x28f-0x28f.7 (1)
0x280|                                             0b|               .|                    end: 0xb (valid) 0x28f-0x28f.7 (1)
     |                                               |                |            [16]{}: code 0x290-0x29e.7 (15)
0x290|0e                                             |.               |              size: 14 0x290-0x290.7 (1)
     |                                               |                |              code{}: 0x291-0x29e.7 (14)
     |                                               |                |                t{}: 0x291-0x291.7 (1)
0x290|   00                                          | .              |                  n: 0 0x291-0x291.7 (1)
     |                                               |                |                  x[0:0]: 0x292-NA (0)
     |                                               |                |                e[0:3]: 0x292-0x29e.7 (13)
     |                                               |                |                  [0]{}: in 0x292-0x29c.7 (11)
0x290|      42                                       |  B             |                    i64.const: 0x42 (valid) 0x292-0x292.7 (1)
0x290|         80 80 80 80 80 80 80 80 80 7f         |   ..........   |                    n: -9223372036854775808 0x293-0x29c.7 (10)
     |                                               |                |                  [1]{}: in 0x29d-0x29d.7 (1)
0x290|                                       0f      |             .  |                    return: 0xf (valid) 0x29d-0x29d.7 (1)
     |                                               |                |                  [2]{}: in 0x29e-0x29e.7 (1)
0x290|                                          0b   |              . |                    end: 0xb (valid) 0x29e-0x29e.7 (1)
     |                                               |                |            [17]{}: code 0x29f-0x2b0.7 (18)
0x290|                                             11|               .|              size: 17 0x29f-0x29f.7 (1)
     |                                               |                |              code{}: 0x2a0-0x2b0.7 (17)
     |                                               |                |                t{}: 0x2a0-0x2a0.7 (1)
0x2a0|00                                             |.               |                  n: 0 0x2a0-0x2a0.7 (1)
     |                                               |                |                  x[0:0]: 0x2a1-NA (0)
     |                                               |                |                e[0:5]: 0x2a1-0x2b0.7 (16)
     |                                               |                |                  [0]{}: in 0x2a1-0x2ab.7 (11)
0x2a0|   42                                          | B              |                    i64.const: 0x42 (valid) 0x2a1-0x2a1.7 (1)
0x2a0|      80 80 80 80 80 80 80 80 80 7f            |  ..........    |                    n: -9223372036854775808 0x2a2-0x2ab.7 (10)
     |                                               |                |                  [1]{}: in 0x2ac-0x2ad.7 (2)
0x2a0|                                    42         |            B   |                    i64.const: 0x42 (valid) 0x2ac-0x2ac.7 (1)
0x2a0|                                       01      |             .  |                    n: 1 0x2ad-0x2ad.7 (1)
     |                                               |                |                  [2]{}: in 0x2ae-0x2ae.7 (1)
0x2a0|                                          7c   |              | |                    i64.add: 0x7c (valid) 0x2ae-0x2ae.7 (1)
     |                                               |                |                  [3]{}: in 0x2af-0x2af.7 (1)
0x2a0|                                             0f|               .|                    return: 0xf (valid) 0x2af-0x2af.7 (1)
     |                                               |                |                  [4]{}: in 0x2b0-0x2b0.7 (1)
0x2b0|0b                                             |.               |                    end: 0xb (valid) 0x2b0-0x2b0.7 (1)
     |                                               |                |            [18]{}: code 0x2b1-0x2b6.7 (6)
0x2b0|   05                                          | .              |              size: 5 0x2b1-0x2b1.7 (1)
     |                                               |                |              code{}: 0x2b2-0x2b6.7 (5)
     |                                               |                |                t{}: 0x2b2-0x2b2.7 (1)
0x2b0|      00                                       |  .             |                  n: 0 0x2b2-0x2b2.7 (1)
     |                                               |                |                  x[0:0]: 0x2b3-NA (0)
     |                                               |                |                e[0:3]: 0x2b3-0x2b6.7 (4)
     |                                               |                |                  [0]{}: in 0x2b3-0x2b4.7 (2)
0x2b0|         42                                    |   B            |                    i64.const: 0x42 (valid) 0x2b3-0x2b3.7 (1)
0x2b0|            00                                 |    .           |                    n: 0 0x2b4-0x2b4.7 (1)
     |                                               |                |                  [1]{}: in 0x2b5-0x2b5.7 (1)
0x2b0|               0f                              |     .          |                    return: 0xf (valid) 0x2b5-0x2b5.7 (1)
     |                                               |                |                  [2]{}: in 0x2b6-0x2b6.7 (1)
0x2b0|                  0b                           |      .         |                    end: 0xb (valid) 0x2b6-0x2b6.7 (1)
     |                                               |                |            [19]{}: code 0x2b7-0x2bc.7 (6)
0x2b0|                     05                        |       .        |              size: 5 0x2b7-0x2b7.7 (1)
     |                                               |                |              code{}: 0x2b8-0x2bc.7 (5)
     |                                               |                |                t{}: 0x2b8-0x2b8.7 (1)
0x2b0|                        00                     |        .       |                  n: 0 0x2b8-0x2b8.7 (1)
     |                                               |                |                  x[0:0]: 0x2b9-NA (0)
     |                                               |                |                e[0:3]: 0x2b9-0x2bc.7 (4)
     |                                               |                |                  [0]{}: in 0x2b9-0x2ba.7 (2)
0x2b0|                           42                  |         B      |                    i64.const: 0x42 (valid) 0x2b9-0x2b9.7 (1)
0x2b0|                              0a               |          .     |                    n: 10 0x2ba-0x2ba.7 (1)
     |                                               |                |                  [1]{}: in 0x2bb-0x2bb.7 (1)
0x2b0|                                 0f            |           .    |                    return: 0xf (valid) 0x2bb-0x2bb.7 (1)
     |                                               |                |                  [2]{}: in 0x2bc-0x2bc.7 (1)
0x2b0|                                    0b         |            .   |                    end: 0xb (valid) 0x2bc-0x2bc.7 (1)
     |                                               |                |            [20]{}: code 0x2bd-0x2c2.7 (6)
0x2b0|                                       05      |             .  |              size: 5 0x2bd-0x2bd.7 (1)
     |                                               |                |              code{}: 0x2be-0x2c2.7 (5)
     |                                               |                |                t{}: 0x2be-0x2be.7 (1)
0x2b0|                                          00   |              . |                  n: 0 0x2be-0x2be.7 (1)
     |                                               |                |                  x[0:0]: 0x2bf-NA (0)
     |                                               |                |                e[0:3]: 0x2bf-0x2c2.7 (4)
     |                                               |                |                  [0]{}: in 0x2bf-0x2c0.7 (2)
0x2b0|                                             42|               B|                    i64.const: 0x42 (valid) 0x2bf-0x2bf.7 (1)
0x2c0|7f                                             |.               |                    n: -1 0x2c0-0x2c0.7 (1)
     |                                               |                |                  [1]{}: in 0x2c1-0x2c1.7 (1)
0x2c0|   0f                                          | .              |                    return: 0xf (valid) 0x2c1-0x2c1.7 (1)
     |                                               |                |                  [2]{}: in 0x2c2-0x2c2.7 (1)
0x2c0|      0b                                       |  .             |                    end: 0xb (valid) 0x2c2-0x2c2.7 (1)
     |                                               |                |            [21]{}: code 0x2c3-0x2c8.7 (6)
0x2c0|         05                                    |   .            |              size: 5 0x2c3-0x2c3.7 (1)
     |                                               |                |              code{}: 0x2c4-0x2c8.7 (5)
     |                                               |                |                t{}: 0x2c4-0x2c4.7 (1)
0x2c0|            00                                 |    .           |                  n: 0 0x2c4-0x2c4.7 (1)
     |                                               |                |                  x[0:0]: 0x2c5-NA (0)
     |                                               |                |                e[0:3]: 0x2c5-0x2c8.7 (4)
     |                                               |                |                  [0]{}: in 0x2c5-0x2c6.7 (2)
0x2c0|               42                              |     B          |                    i64.const: 0x42 (valid) 0x2c5-0x2c5.7 (1)
0x2c0|                  2a                           |      *         |                    n: 42 0x2c6-0x2c6.7 (1)
     |                                               |                |                  [1]{}: in 0x2c7-0x2c7.7 (1)
0x2c0|                     0f                        |       .        |                    return: 0xf (valid) 0x2c7-0x2c7.7 (1)
     |                                               |                |                  [2]{}: in 0x2c8-0x2c8.7 (1)
0x2c0|                        0b                     |        .       |                    end: 0xb (valid) 0x2c8-0x2c8.7 (1)
     |                                               |                |            [22]{}: code 0x2c9-0x2cf.7 (7)
0x2c0|                           06                  |         .      |              size: 6 0x2c9-0x2c9.7 (1)
     |                                               |                |              code{}: 0x2ca-0x2cf.7 (6)
     |                                               |                |                t{}: 0x2ca-0x2ca.7 (1)
0x2c0|                              00               |          .     |                  n: 0 0x2ca-0x2ca.7 (1)
     |                                               |                |                  x[0:0]: 0x2cb-NA (0)
     |                                               |                |                e[0:2]: 0x2cb-0x2cf.7 (5)
     |                                               |                |                  [0]{}: in 0x2cb-0x2ce.7 (4)
0x2c0|                                 41            |           A    |                    i32.const: 0x41 (valid) 0x2cb-0x2cb.7 (1)
0x2c0|                                    c0 84 3d   |            ..= |                    n: 1000000 0x2cc-0x2ce.7 (3)
     |                                               |                |                  [1]{}: in 0x2cf-0x2cf.7 (1)
0x2c0|                                             0b|               .|                    end: 0xb (valid) 0x2cf-0x2cf.7 (1)
     |                                               |                |            [23]{}: code 0x2d0-0x2d5.7 (6)
0x2d0|05                                             |.               |              size: 5 0x2d0-0x2d0.7 (1)
     |                                               |                |              code{}: 0x2d1-0x2d5.7 (5)
     |                                               |                |                t{}: 0x2d1-0x2d1.7 (1)
0x2d0|   00                                          | .              |                  n: 0 0x2d1-0x2d1.7 (1)
     |                                               |                |                  x[0:0]: 0x2d2-NA (0)
     |                                               |                |                e[0:2]: 0x2d2-0x2d5.7 (4)
     |                                               |                |                  [0]{}: in 0x2d2-0x2d4.7 (3)
0x2d0|      41                                       |  A             |                    i32.const: 0x41 (valid) 0x2d2-0x2d2.7 (1)
0x2d0|         e8 07                                 |   ..           |                    n: 1000 0x2d3-0x2d4.7 (2)
     |                                               |                |                  [1]{}: in 0x2d5-0x2d5.7 (1)
0x2d0|               0b                              |     .          |                    end: 0xb (valid) 0x2d5-0x2d5.7 (1)
     |                                               |                |            [24]{}: code 0x2d6-0x2de.7 (9)
0x2d0|                  08                           |      .         |              size: 8 0x2d6-0x2d6.7 (1)
     |                                               |                |              code{}: 0x2d7-0x2de.7 (8)
     |                                               |                |                t{}: 0x2d7-0x2d7.7 (1)
0x2d0|                     00                        |       .        |                  n: 0 0x2d7-0x2d7.7 (1)
     |                                               |                |                  x[0:0]: 0x2d8-NA (0)
     |                                               |                |                e[0:2]: 0x2d8-0x2de.7 (7)
     |                                               |                |                  [0]{}: in 0x2d8-0x2dd.7 (6)
0x2d0|                        41                     |        A       |                    i32.const: 0x41 (valid) 0x2d8-0x2d8.7 (1)
0x2d0|                           99 81 bc d0 00      |         .....  |                    n: 168755353 0x2d9-0x2dd.7 (5)
     |                                               |                |                  [1]{}: in 0x2de-0x2de.7 (1)
0x2d0|                                          0b   |              . |                    end: 0xb (valid) 0x2de-0x2de.7 (1)
     |                                               |                |            [25]{}: code 0x2df-0x2e5.7 (7)
0x2d0|                                             06|               .|              size: 6 0x2df-0x2df.7 (1)
     |                                               |                |              code{}: 0x2e0-0x2e5.7 (6)
     |                                               |                |                t{}: 0x2e0-0x2e0.7 (1)
0x2e0|00                                             |.               |                  n: 0 0x2e0-0x2e0.7 (1)
     |                                               |                |                  x[0:0]: 0x2e1-NA (0)
     |                                               |                |                e[0:2]: 0x2e1-0x2e5.7 (5)
     |                                               |                |                  [0]{}: in 0x2e1-0x2e4.7 (4)
0x2e0|   41                                          | A              |                    i32.const: 0x41 (valid) 0x2e1-0x2e1.7 (1)
0x2e0|      8f d4 06                                 |  ...           |                    n: 109071 0x2e2-0x2e4.7 (3)
     |                                               |                |                  [1]{}: in 0x2e5-0x2e5.7 (1)
0x2e0|               0b                              |     .          |                    end: 0xb (valid) 0x2e5-0x2e5.7 (1)
     |                                               |                |            [26]{}: code 0x2e6-0x2ec.7 (7)
0x2e0|                  06                           |      .         |              size: 6 0x2e6-0x2e6.7 (1)
     |                                               |                |              code{}: 0x2e7-0x2ec.7 (6)
     |                                               |                |                t{}: 0x2e7-0x2e7.7 (1)
0x2e0|                     00                        |       .        |                  n: 0 0x2e7-0x2e7.7 (1)
     |                                               |                |                  x[0:0]: 0x2e8-NA (0)
     |                                               |                |                e[0:2]: 0x2e8-0x2ec.7 (5)
     |                                               |                |                  [0]{}: in 0x2e8-0x2eb.7 (4)
0x2e0|                        42                     |        B       |                    i64.const: 0x42 (valid) 0x2e8-0x2e8.7 (1)
0x2e0|                           c0 84 3d            |         ..=    |                    n: 1000000 0x2e9-0x2eb.7 (3)
     |                                               |                |                  [1]{}: in 0x2ec-0x2ec.7 (1)
0x2e0|                                    0b         |            .   |                    end: 0xb (valid) 0x2ec-0x2ec.7 (1)
     |                                               |                |            [27]{}: code 0x2ed-0x2f2.7 (6)
0x2e0|                                       05      |             .  |              size: 5 0x2ed-0x2ed.7 (1)
     |                                               |                |              code{}: 0x2ee-0x2f2.7 (5)
     |                                               |                |                t{}: 0x2ee-0x2ee.7 (1)
0x2e0|                                          00   |              . |                  n: 0 0x2ee-0x2ee.7 (1)
     |                                               |                |                  x[0:0]: 0x2ef-NA (0)
     |                                               |                |                e[0:2]: 0x2ef-0x2f2.7 (4)
     |                                               |                |                  [0]{}: in 0x2ef-0x2f1.7 (3)
0x2e0|                                             42|               B|                    i64.const: 0x42 (valid) 0x2ef-0x2ef.7 (1)
0x2f0|e8 07                                          |..              |                    n: 1000 0x2f0-0x2f1.7 (2)
     |                                               |                |                  [1]{}: in 0x2f2-0x2f2.7 (1)
0x2f0|      0b                                       |  .             |                    end: 0xb (valid) 0x2f2-0x2f2.7 (1)
     |                                               |                |            [28]{}: code 0x2f3-0x2fe.7 (12)
0x2f0|         0b                                    |   .            |              size: 11 0x2f3-0x2f3.7 (1)
     |                                               |                |              code{}: 0x2f4-0x2fe.7 (11)
     |                                               |                |                t{}: 0x2f4-0x2f4.7 (1)
0x2f0|            00                                 |    .           |                  n: 0 0x2f4-0x2f4.7 (1)
     |                                               |                |                  x[0:0]: 0x2f5-NA (0)
     |                                               |                |                e[0:2]: 0x2f5-0x2fe.7 (10)
     |                                               |                |                  [0]{}: in 0x2f5-0x2fd.7 (9)
0x2f0|               42                              |     B          |                    i64.const: 0x42 (valid) 0x2f5-0x2f5.7 (1)
0x2f0|                  99 b3 82 80 f0 81 bc 05      |      ........  |                    n: 3078696982321561 0x2f6-0x2fd.7 (8)
     |                                               |                |                  [1]{}: in 0x2fe-0x2fe.7 (1)
0x2f0|                                          0b   |              . |                    end: 0xb (valid) 0x2fe-0x2fe.7 (1)
     |                                               |                |            [29]{}: code 0x2ff-0x305.7 (7)
0x2f0|                                             06|               .|              size: 6 0x2ff-0x2ff.7 (1)
     |                                               |                |              code{}: 0x300-0x305.7 (6)
     |                                               |                |                t{}: 0x300-0x300.7 (1)
0x300|00                                             |.               |                  n: 0 0x300-0x300.7 (1)
     |                                               |                |                  x[0:0]: 0x301-NA (0)
     |                                               |                |                e[0:2]: 0x301-0x305.7 (5)
     |                                               |                |                  [0]{}: in 0x301-0x304.7 (4)
0x300|   42                                          | B              |                    i64.const: 0x42 (valid) 0x301-0x301.7 (1)
0x300|      8f d4 06                                 |  ...           |                    n: 109071 0x302-0x304.7 (3)
     |                                               |                |                  [1]{}: in 0x305-0x305.7 (1)
0x300|               0b|                             |     .|         |                    end: 0xb (valid) 0x305-0x305.7 (1)
