$ fq -d wasm dv int_exprs-14.wasm
    |00 01 02 03 04 05 06 07 08 09 0a 0b 0c 0d 0e 0f|0123456789abcdef|.{}: int_exprs-14.wasm (wasm) 0x0-0x79.7 (122)
0x00|00 61 73 6d                                    |.asm            |  magic: raw bits (valid) 0x0-0x3.7 (4)
0x00|            01 00 00 00                        |    ....        |  version: 1 0x4-0x7.7 (4)
    |                                               |                |  sections[0:4]: 0x8-0x79.7 (114)
    |                                               |                |    [0]{}: section 0x8-0x14.7 (13)
0x00|                        01                     |        .       |      id: "type section" (1) 0x8-0x8.7 (1)
0x00|                           0b                  |         .      |      size: 11 0x9-0x9.7 (1)
    |                                               |                |      content{}: 0xa-0x14.7 (11)
    |                                               |                |        ft{}: 0xa-0x14.7 (11)
0x00|                              02               |          .     |          n: 2 0xa-0xa.7 (1)
    |                                               |                |          x[0:2]: 0xb-0x14.7 (10)
    |                                               |                |            [0]{}: ft 0xb-0xf.7 (5)
0x00|                                 60            |           `    |              tag: 0x60 (valid) 0xb-0xb.7 (1)
    |                                               |                |              rt1{}: 0xc-0xd.7 (2)
0x00|                                    01         |            .   |                n: 1 0xc-0xc.7 (1)
    |                                               |                |                x[0:1]: 0xd-0xd.7 (1)
0x00|                                       7f      |             .  |                  [0]: "i32" (0x7f) t 0xd-0xd.7 (1)
    |                                               |                |              rt2{}: 0xe-0xf.7 (2)
0x00|                                          01   |              . |                n: 1 0xe-0xe.7 (1)
    |                                               |                |                x[0:1]: 0xf-0xf.7 (1)
0x00|                                             7f|               .|                  [0]: "i32" (0x7f) t 0xf-0xf.7 (1)
    |                                               |                |            [1]{}: ft 0x10-0x14.7 (5)
0x10|60                                             |`               |              tag: 0x60 (valid) 0x10-0x10.7 (1)
    |                                               |                |              rt1{}: 0x11-0x12.7 (2)
0x10|   01                                          | .              |                n: 1 0x11-0x11.7 (1)
    |                                               |                |                x[0:1]: 0x12-0x12.7 (1)
0x10|      7e                                       |  ~             |                  [0]: "i64" (0x7e) t 0x12-0x12.7 (1)
    |                                               |                |              rt2{}: 0x13-0x14.7 (2)
0x10|         01                                    |   .            |                n: 1 0x13-0x13.7 (1)
    |                                               |                |                x[0:1]: 0x14-0x14.7 (1)
0x10|            7e                                 |    ~           |                  [0]: "i64" (0x7e) t 0x14-0x14.7 (1)
    |                                               |                |    [1]{}: section 0x15-0x1b.7 (7)
0x10|               03                              |     .          |      id: "function section" (3) 0x15-0x15.7 (1)
0x10|                  05                           |      .         |      size: 5 0x16-0x16.7 (1)
    |                                               |                |      content{}: 0x17-0x1b.7 (5)
    |                                               |                |        x{}: 0x17-0x1b.7 (5)
0x10|                     04                        |       .        |          n: 4 0x17-0x17.7 (1)
    |                                               |                |          x[0:4]: 0x18-0x1b.7 (4)
0x10|                        00                     |        .       |            [0]: 0 x 0x18-0x18.7 (1)
0x10|                           00                  |         .      |            [1]: 0 x 0x19-0x19.7 (1)
0x10|                              01               |          .     |            [2]: 1 x 0x1a-0x1a.7 (1)
0x10|                                 01            |           .    |            [3]: 1 x 0x1b-0x1b.7 (1)
    |                                               |                |    [2]{}: section 0x1c-0x56.7 (59)
0x10|                                    07         |            .   |      id: "export section" (7) 0x1c-0x1c.7 (1)
0x10|                                       39      |             9  |      size: 57 0x1d-0x1d.7 (1)
    |                                               |                |      content{}: 0x1e-0x56.7 (57)
    |                                               |                |        ex{}: 0x1e-0x56.7 (57)
0x10|                                          04   |              . |          n: 4 0x1e-0x1e.7 (1)
    |                                               |                |          x[0:4]: 0x1f-0x56.7 (56)
    |                                               |                |            [0]{}: ex 0x1f-0x2c.7 (14)
    |                                               |                |              nm{}: 0x1f-0x2a.7 (12)
0x10|                                             0b|               .|                n: 11 0x1f-0x1f.7 (1)
0x20|69 33 32 2e 64 69 76 5f 73 5f 37               |i32.div_s_7     |                b: "i32.div_s_7" 0x20-0x2a.7 (11)
    |                                               |                |              d{}: 0x2b-0x2c.7 (2)
0x20|                                 00            |           .    |                tag: "funcidx" (0x0) 0x2b-0x2b.7 (1)
0x20|                                    00         |            .   |                x: 0 0x2c-0x2c.7 (1)
    |                                               |                |            [1]{}: ex 0x2d-0x3a.7 (14)
    |                                               |                |              nm{}: 0x2d-0x38.7 (12)
0x20|                                       0b      |             .  |                n: 11 0x2d-0x2d.7 (1)
0x20|                                          69 33|              i3|                b: "i32.div_u_7" 0x2e-0x38.7 (11)
0x30|32 2e 64 69 76 5f 75 5f 37                     |2.div_u_7       |
    |                                               |                |              d{}: 0x39-0x3a.7 (2)
0x30|                           00                  |         .      |                tag: "funcidx" (0x0) 0x39-0x39.7 (1)
0x30|                              01               |          .     |                x: 1 0x3a-0x3a.7 (1)
    |                                               |                |            [2]{}: ex 0x3b-0x48.7 (14)
    |                                               |                |              nm{}: 0x3b-0x46.7 (12)
0x30|                                 0b            |           .    |                n: 11 0x3b-0x3b.7 (1)
0x30|                                    69 36 34 2e|            i64.|                b: "i64.div_s_7" 0x3c-0x46.7 (11)
0x40|64 69 76 5f 73 5f 37                           |div_s_7         |
    |                                               |                |              d{}: 0x47-0x48.7 (2)
0x40|                     00                        |       .        |                tag: "funcidx" (0x0) 0x47-0x47.7 (1)
0x40|                        02                     |        .       |                x: 2 0x48-0x48.7 (1)
    |                                               |                |            [3]{}: ex 0x49-0x56.7 (14)
    |                                               |                |              nm{}: 0x49-0x54.7 (12)
0x40|                           0b                  |         .      |                n: 11 0x49-0x49.7 (1)
0x40|                              69 36 34 2e 64 69|          i64.di|                b: "i64.div_u_7" 0x4a-0x54.7 (11)
0x50|76 5f 75 5f 37                                 |v_u_7           |
    |                                               |                |              d{}: 0x55-0x56.7 (2)
0x50|               00                              |     .          |                tag: "funcidx" (0x0) 0x55-0x55.7 (1)
0x50|                  03                           |      .         |                x: 3 0x56-0x56.7 (1)
    |                                               |                |    [3]{}: section 0x57-0x79.7 (35)
0x50|                     0a                        |       .        |      id: "code section" (10) 0x57-0x57.7 (1)
0x50|                        21                     |        !       |      size: 33 0x58-0x58.7 (1)
    |                                               |                |      content{}: 0x59-0x79.7 (33)
    |                                               |                |        code{}: 0x59-0x79.7 (33)
0x50|                           04                  |         .      |          n: 4 0x59-0x59.7 (1)
    |                                               |                |          x[0:4]: 0x5a-0x79.7 (32)
    |                                               |                |            [0]{}: code 0x5a-0x61.7 (8)
0x50|                              07               |          .     |              size: 7 0x5a-0x5a.7 (1)
    |                                               |                |              code{}: 0x5b-0x61.7 (7)
    |                                               |                |                t{}: 0x5b-0x5b.7 (1)
0x50|                                 00            |           .    |                  n: 0 0x5b-0x5b.7 (1)
    |                                               |                |                  x[0:0]: 0x5c-NA (0)
    |                                               |                |                e[0:4]: 0x5c-0x61.7 (6)
    |                                               |                |                  [0]{}: in 0x5c-0x5d.7 (2)
0x50|                                    20         |                |                    local.get: 0x20 (valid) 0x5c-0x5c.7 (1)
0x50|                                       00      |             .  |                    x: 0 0x5d-0x5d.7 (1)
    |                                               |                |                  [1]{}: in 0x5e-0x5f.7 (2)
0x50|                                          41   |              A |                    i32.const: 0x41 (valid) 0x5e-0x5e.7 (1)
0x50|                                             07|               .|                    n: 7 0x5f-0x5f.7 (1)
    |                                               |                |                  [2]{}: in 0x60-0x60.7 (1)
0x60|6d                                             |m               |                    i32.div_s: 0x6d (valid) 0x60-0x60.7 (1)
    |                                               |                |                  [3]{}: in 0x61-0x61.7 (1)
0x60|   0b                                          | .              |                    end: 0xb (valid) 0x61-0x61.7 (1)
    |                                               |                |            [1]{}: code 0x62-0x69.7 (8)
0x60|      07                                       |  .             |              size: 7 0x62-0x62.7 (1)
    |                                               |                |              code{}: 0x63-0x69.7 (7)
    |                                               |                |                t{}: 0x63-0x63.7 (1)
0x60|         00                                    |   .            |                  n: 0 0x63-0x63.7 (1)
    |                                               |                |                  x[0:0]: 0x64-NA (0)
    |                                               |                |                e[0:4]: 0x64-0x69.7 (6)
    |                                               |                |                  [0]{}: in 0x64-0x65.7 (2)
0x60|            20                                 |                |                    local.get: 0x20 (valid) 0x64-0x64.7 (1)
0x60|               00                              |     .          |                    x: 0 0x65-0x65.7 (1)
    |                                               |                |                  [1]{}: in 0x66-0x67.7 (2)
0x60|                  41                           |      A         |                    i32.const: 0x41 (valid) 0x66-0x66.7 (1)
0x60|                     07                        |       .        |                    n: 7 0x67-0x67.7 (1)
    |                                               |                |                  [2]{}: in 0x68-0x68.7 (1)
0x60|                        6e                     |        n       |                    i32.div_u: 0x6e (valid) 0x68-0x68.7 (1)
    |                                               |                |                  [3]{}: in 0x69-0x69.7 (1)
0x60|                           0b                  |         .      |                    end: 0xb (valid) 0x69-0x69.7 (1)
    |                                               |                |            [2]{}: code 0x6a-0x71.7 (8)
0x60|                              07               |          .     |              size: 7 0x6a-0x6a.7 (1)
    |                                               |                |              code{}: 0x6b-0x71.7 (7)
    |                                               |                |                t{}: 0x6b-0x6b.7 (1)
0x60|                                 00            |           .    |                  n: 0 0x6b-0x6b.7 (1)
    |                                               |                |                  x[0:0]: 0x6c-NA (0)
    |                                               |                |                e[0:4]: 0x6c-0x71.7 (6)
    |                                               |                |                  [0]{}: in 0x6c-0x6d.7 (2)
0x60|                                    20         |                |                    local.get: 0x20 (valid) 0x6c-0x6c.7 (1)
0x60|                                       00      |             .  |                    x: 0 0x6d-0x6d.7 (1)
    |                                               |                |                  [1]{}: in 0x6e-0x6f.7 (2)
0x60|                                          42   |              B |                    i64.const: 0x42 (valid) 0x6e-0x6e.7 (1)
0x60|                                             07|               .|                    n: 7 0x6f-0x6f.7 (1)
    |                                               |                |                  [2]{}: in 0x70-0x70.7 (1)
0x70|7f                                             |.               |                    i64.div_s: 0x7f (valid) 0x70-0x70.7 (1)
    |                                               |                |                  [3]{}: in 0x71-0x71.7 (1)
0x70|   0b                                          | .              |                    end: 0xb (valid) 0x71-0x71.7 (1)
    |                                               |                |            [3]{}: code 0x72-0x79.7 (8)
0x70|      07                                       |  .             |              size: 7 0x72-0x72.7 (1)
    |                                               |                |              code{}: 0x73-0x79.7 (7)
    |                                               |                |                t{}: 0x73-0x73.7 (1)
0x70|         00                                    |   .            |                  n: 0 0x73-0x73.7 (1)
    |                                               |                |                  x[0:0]: 0x74-NA (0)
    |                                               |                |                e[0:4]: 0x74-0x79.7 (6)
    |                                               |                |                  [0]{}: in 0x74-0x75.7 (2)
0x70|            20                                 |                |                    local.get: 0x20 (valid) 0x74-0x74.7 (1)
0x70|               00                              |     .          |                    x: 0 0x75-0x75.7 (1)
    |                                               |                |                  [1]{}: in 0x76-0x77.7 (2)
0x70|                  42                           |      B         |                    i64.const: 0x42 (valid) 0x76-0x76.7 (1)
0x70|                     07                        |       .        |                    n: 7 0x77-0x77.7 (1)
    |                                               |                |                  [2]{}: in 0x78-0x78.7 (1)
0x70|                        80                     |        .       |                    i64.div_u: 0x80 (valid) 0x78-0x78.7 (1)
    |                                               |                |                  [3]{}: in 0x79-0x79.7 (1)
0x70|                           0b|                 |         .|     |                    end: 0xb (valid) 0x79-0x79.7 (1)
