$ fq -d wasm dv int_exprs-7.wasm
    |00 01 02 03 04 05 06 07 08 09 0a 0b 0c 0d 0e 0f|0123456789abcdef|.{}: int_exprs-7.wasm (wasm) 0x0-0xa6 (166)
0x00|00 61 73 6d                                    |.asm            |  magic: raw bits (valid) 0x0-0x4 (4)
0x00|            01 00 00 00                        |    ....        |  version: 1 0x4-0x8 (4)
    |                                               |                |  sections[0:4]: 0x8-0xa6 (158)
    |                                               |                |    [0]{}: section 0x8-0x15 (13)
0x00|                        01                     |        .       |      id: "type_section" (1) 0x8-0x9 (1)
0x00|                           0b                  |         .      |      size: 11 (valid) 0x9-0xa (1)
    |                                               |                |      content{}: 0xa-0x15 (11)
    |                                               |                |        ft{}: 0xa-0x15 (11)
0x00|                              02               |          .     |          n: 2 (valid) 0xa-0xb (1)
    |                                               |                |          x[0:2]: 0xb-0x15 (10)
    |                                               |                |            [0]{}: ft 0xb-0x10 (5)
0x00|                                 60            |           `    |              tag: 0x60 (valid) 0xb-0xc (1)
    |                                               |                |              rt1{}: 0xc-0xe (2)
0x00|                                    01         |            .   |                n: 1 (valid) 0xc-0xd (1)
    |                                               |                |                x[0:1]: 0xd-0xe (1)
0x00|                                       7f      |             .  |                  [0]: "i32" (0x7f) t 0xd-0xe (1)
    |                                               |                |              rt2{}: 0xe-0x10 (2)
0x00|                                          01   |              . |                n: 1 (valid) 0xe-0xf (1)
    |                                               |                |                x[0:1]: 0xf-0x10 (1)
0x00|                                             7f|               .|                  [0]: "i32" (0x7f) t 0xf-0x10 (1)
    |                                               |                |            [1]{}: ft 0x10-0x15 (5)
0x10|60                                             |`               |              tag: 0x60 (valid) 0x10-0x11 (1)
    |                                               |                |              rt1{}: 0x11-0x13 (2)
0x10|   01                                          | .              |                n: 1 (valid) 0x11-0x12 (1)
    |                                               |                |                x[0:1]: 0x12-0x13 (1)
0x10|      7e                                       |  ~             |                  [0]: "i64" (0x7e) t 0x12-0x13 (1)
    |                                               |                |              rt2{}: 0x13-0x15 (2)
0x10|         01                                    |   .            |                n: 1 (valid) 0x13-0x14 (1)
    |                                               |                |                x[0:1]: 0x14-0x15 (1)
0x10|            7e                                 |    ~           |                  [0]: "i64" (0x7e) t 0x14-0x15 (1)
    |                                               |                |    [1]{}: section 0x15-0x1c (7)
0x10|               03                              |     .          |      id: "function_section" (3) 0x15-0x16 (1)
0x10|                  05                           |      .         |      size: 5 (valid) 0x16-0x17 (1)
    |                                               |                |      content{}: 0x17-0x1c (5)
    |                                               |                |        x{}: 0x17-0x1c (5)
0x10|                     04                        |       .        |          n: 4 (valid) 0x17-0x18 (1)
    |                                               |                |          x[0:4]: 0x18-0x1c (4)
0x10|                        00                     |        .       |            [0]: 0 x (valid) 0x18-0x19 (1)
0x10|                           00                  |         .      |            [1]: 0 x (valid) 0x19-0x1a (1)
0x10|                              01               |          .     |            [2]: 1 x (valid) 0x1a-0x1b (1)
0x10|                                 01            |           .    |            [3]: 1 x (valid) 0x1b-0x1c (1)
    |                                               |                |    [2]{}: section 0x1c-0x83 (103)
0x10|                                    07         |            .   |      id: "export_section" (7) 0x1c-0x1d (1)
0x10|                                       65      |             e  |      size: 101 (valid) 0x1d-0x1e (1)
    |                                               |                |      content{}: 0x1e-0x83 (101)
    |                                               |                |        ex{}: 0x1e-0x83 (101)
0x10|                                          04   |              . |          n: 4 (valid) 0x1e-0x1f (1)
    |                                               |                |          x[0:4]: 0x1f-0x83 (100)
    |                                               |                |            [0]{}: ex 0x1f-0x38 (25)
    |                                               |                |              nm{}: 0x1f-0x36 (23)
0x10|                                             16|               .|                n: 22 (valid) 0x1f-0x20 (1)
0x20|69 33 32 2e 6e 6f 5f 66 6f 6c 64 5f 72 65 6d 5f|i32.no_fold_rem_|                b: "i32.no_fold_rem_s_self" 0x20-0x36 (22)
0x30|73 5f 73 65 6c 66                              |s_self          |
    |                                               |                |              d{}: 0x36-0x38 (2)
0x30|                  00                           |      .         |                tag: "funcidx" (0x0) 0x36-0x37 (1)
0x30|                     00                        |       .        |                x: 0 (valid) 0x37-0x38 (1)
    |                                               |                |            [1]{}: ex 0x38-0x51 (25)
    |                                               |                |              nm{}: 0x38-0x4f (23)
0x30|                        16                     |        .       |                n: 22 (valid) 0x38-0x39 (1)
0x30|                           69 33 32 2e 6e 6f 5f|         i32.no_|                b: "i32.no_fold_rem_u_self" 0x39-0x4f (22)
0x40|66 6f 6c 64 5f 72 65 6d 5f 75 5f 73 65 6c 66   |fold_rem_u_self |
    |                                               |                |              d{}: 0x4f-0x51 (2)
0x40|                                             00|               .|                tag: "funcidx" (0x0) 0x4f-0x50 (1)
0x50|01                                             |.               |                x: 1 (valid) 0x50-0x51 (1)
    |                                               |                |            [2]{}: ex 0x51-0x6a (25)
    |                                               |                |              nm{}: 0x51-0x68 (23)
0x50|   16                                          | .              |                n: 22 (valid) 0x51-0x52 (1)
0x50|      69 36 34 2e 6e 6f 5f 66 6f 6c 64 5f 72 65|  i64.no_fold_re|                b: "i64.no_fold_rem_s_self" 0x52-0x68 (22)
0x60|6d 5f 73 5f 73 65 6c 66                        |m_s_self        |
    |                                               |                |              d{}: 0x68-0x6a (2)
0x60|                        00                     |        .       |                tag: "funcidx" (0x0) 0x68-0x69 (1)
0x60|                           02                  |         .      |                x: 2 (valid) 0x69-0x6a (1)
    |                                               |                |            [3]{}: ex 0x6a-0x83 (25)
    |                                               |                |              nm{}: 0x6a-0x81 (23)
0x60|                              16               |          .     |                n: 22 (valid) 0x6a-0x6b (1)
0x60|                                 69 36 34 2e 6e|           i64.n|                b: "i64.no_fold_rem_u_self" 0x6b-0x81 (22)
0x70|6f 5f 66 6f 6c 64 5f 72 65 6d 5f 75 5f 73 65 6c|o_fold_rem_u_sel|
0x80|66                                             |f               |
    |                                               |                |              d{}: 0x81-0x83 (2)
0x80|   00                                          | .              |                tag: "funcidx" (0x0) 0x81-0x82 (1)
0x80|      03                                       |  .             |                x: 3 (valid) 0x82-0x83 (1)
    |                                               |                |    [3]{}: section 0x83-0xa6 (35)
0x80|         0a                                    |   .            |      id: "code_section" (10) 0x83-0x84 (1)
0x80|            21                                 |    !           |      size: 33 (valid) 0x84-0x85 (1)
    |                                               |                |      content{}: 0x85-0xa6 (33)
    |                                               |                |        code{}: 0x85-0xa6 (33)
0x80|               04                              |     .          |          n: 4 (valid) 0x85-0x86 (1)
    |                                               |                |          x[0:4]: 0x86-0xa6 (32)
    |                                               |                |            [0]{}: code 0x86-0x8e (8)
0x80|                  07                           |      .         |              size: 7 (valid) 0x86-0x87 (1)
    |                                               |                |              code{}: 0x87-0x8e (7)
    |                                               |                |                t{}: 0x87-0x88 (1)
0x80|                     00                        |       .        |                  n: 0 (valid) 0x87-0x88 (1)
    |                                               |                |                  x[0:0]: 0x88-0x88 (0)
    |                                               |                |                e[0:4]: 0x88-0x8e (6)
    |                                               |                |                  [0]{}: in 0x88-0x8a (2)
0x80|                        20                     |                |                    opcode: "local.get" (0x20) 0x88-0x89 (1)
0x80|                           00                  |         .      |                    x: 0 (valid) 0x89-0x8a (1)
    |                                               |                |                  [1]{}: in 0x8a-0x8c (2)
0x80|                              20               |                |                    opcode: "local.get" (0x20) 0x8a-0x8b (1)
0x80|                                 00            |           .    |                    x: 0 (valid) 0x8b-0x8c (1)
    |                                               |                |                  [2]{}: in 0x8c-0x8d (1)
0x80|                                    6f         |            o   |                    opcode: "i32.rem_s" (0x6f) 0x8c-0x8d (1)
    |                                               |                |                  [3]{}: in 0x8d-0x8e (1)
0x80|                                       0b      |             .  |                    opcode: "end" (0xb) 0x8d-0x8e (1)
    |                                               |                |            [1]{}: code 0x8e-0x96 (8)
0x80|                                          07   |              . |              size: 7 (valid) 0x8e-0x8f (1)
    |                                               |                |              code{}: 0x8f-0x96 (7)
    |                                               |                |                t{}: 0x8f-0x90 (1)
0x80|                                             00|               .|                  n: 0 (valid) 0x8f-0x90 (1)
    |                                               |                |                  x[0:0]: 0x90-0x90 (0)
    |                                               |                |                e[0:4]: 0x90-0x96 (6)
    |                                               |                |                  [0]{}: in 0x90-0x92 (2)
0x90|20                                             |                |                    opcode: "local.get" (0x20) 0x90-0x91 (1)
0x90|   00                                          | .              |                    x: 0 (valid) 0x91-0x92 (1)
    |                                               |                |                  [1]{}: in 0x92-0x94 (2)
0x90|      20                                       |                |                    opcode: "local.get" (0x20) 0x92-0x93 (1)
0x90|         00                                    |   .            |                    x: 0 (valid) 0x93-0x94 (1)
    |                                               |                |                  [2]{}: in 0x94-0x95 (1)
0x90|            70                                 |    p           |                    opcode: "i32.rem_u" (0x70) 0x94-0x95 (1)
    |                                               |                |                  [3]{}: in 0x95-0x96 (1)
0x90|               0b                              |     .          |                    opcode: "end" (0xb) 0x95-0x96 (1)
    |                                               |                |            [2]{}: code 0x96-0x9e (8)
0x90|                  07                           |      .         |              size: 7 (valid) 0x96-0x97 (1)
    |                                               |                |              code{}: 0x97-0x9e (7)
    |                                               |                |                t{}: 0x97-0x98 (1)
0x90|                     00                        |       .        |                  n: 0 (valid) 0x97-0x98 (1)
    |                                               |                |                  x[0:0]: 0x98-0x98 (0)
    |                                               |                |                e[0:4]: 0x98-0x9e (6)
    |                                               |                |                  [0]{}: in 0x98-0x9a (2)
0x90|                        20                     |                |                    opcode: "local.get" (0x20) 0x98-0x99 (1)
0x90|                           00                  |         .      |                    x: 0 (valid) 0x99-0x9a (1)
    |                                               |                |                  [1]{}: in 0x9a-0x9c (2)
0x90|                              20               |                |                    opcode: "local.get" (0x20) 0x9a-0x9b (1)
0x90|                                 00            |           .    |                    x: 0 (valid) 0x9b-0x9c (1)
    |                                               |                |                  [2]{}: in 0x9c-0x9d (1)
0x90|                                    81         |            .   |                    opcode: "i64.rem_s" (0x81) 0x9c-0x9d (1)
    |                                               |                |                  [3]{}: in 0x9d-0x9e (1)
0x90|                                       0b      |             .  |                    opcode: "end" (0xb) 0x9d-0x9e (1)
    |                                               |                |            [3]{}: code 0x9e-0xa6 (8)
0x90|                                          07   |              . |              size: 7 (valid) 0x9e-0x9f (1)
    |                                               |                |              code{}: 0x9f-0xa6 (7)
    |                                               |                |                t{}: 0x9f-0xa0 (1)
0x90|                                             00|               .|                  n: 0 (valid) 0x9f-0xa0 (1)
    |                                               |                |                  x[0:0]: 0xa0-0xa0 (0)
    |                                               |                |                e[0:4]: 0xa0-0xa6 (6)
    |                                               |                |                  [0]{}: in 0xa0-0xa2 (2)
0xa0|20                                             |                |                    opcode: "local.get" (0x20) 0xa0-0xa1 (1)
0xa0|   00                                          | .              |                    x: 0 (valid) 0xa1-0xa2 (1)
    |                                               |                |                  [1]{}: in 0xa2-0xa4 (2)
0xa0|      20                                       |                |                    opcode: "local.get" (0x20) 0xa2-0xa3 (1)
0xa0|         00                                    |   .            |                    x: 0 (valid) 0xa3-0xa4 (1)
    |                                               |                |                  [2]{}: in 0xa4-0xa5 (1)
0xa0|            82                                 |    .           |                    opcode: "i64.rem_u" (0x82) 0xa4-0xa5 (1)
    |                                               |                |                  [3]{}: in 0xa5-0xa6 (1)
0xa0|               0b|                             |     .|         |                    opcode: "end" (0xb) 0xa5-0xa6 (1)
