$ fq -d wasm dv int_literals-0.wasm
     |00 01 02 03 04 05 06 07 08 09 0a 0b 0c 0d 0e 0f|0123456789abcdef|.{}: int_literals-0.wasm (wasm) 0x0-0x306 (774)
0x000|00 61 73 6d                                    |.asm            |  magic: raw bits (valid) 0x0-0x4 (4)
0x000|            01 00 00 00                        |    ....        |  version: 1 0x4-0x8 (4)
     |                                               |                |  sections[0:4]: 0x8-0x306 (766)
     |                                               |                |    [0]{}: section 0x8-0x13 (11)
0x000|                        01                     |        .       |      id: "type_section" (1) 0x8-0x9 (1)
0x000|                           09                  |         .      |      size: 9 (valid) 0x9-0xa (1)
     |                                               |                |      content{}: 0xa-0x13 (9)
     |                                               |                |        ft{}: 0xa-0x13 (9)
0x000|                              02               |          .     |          n: 2 (valid) 0xa-0xb (1)
     |                                               |                |          x[0:2]: 0xb-0x13 (8)
     |                                               |                |            [0]{}: ft 0xb-0xf (4)
0x000|                                 60            |           `    |              tag: 0x60 (valid) 0xb-0xc (1)
     |                                               |                |              rt1{}: 0xc-0xd (1)
0x000|                                    00         |            .   |                n: 0 (valid) 0xc-0xd (1)
     |                                               |                |                x[0:0]: 0xd-0xd (0)
     |                                               |                |              rt2{}: 0xd-0xf (2)
0x000|                                       01      |             .  |                n: 1 (valid) 0xd-0xe (1)
     |                                               |                |                x[0:1]: 0xe-0xf (1)
0x000|                                          7f   |              . |                  [0]: "i32" (0x7f) t 0xe-0xf (1)
     |                                               |                |            [1]{}: ft 0xf-0x13 (4)
0x000|                                             60|               `|              tag: 0x60 (valid) 0xf-0x10 (1)
     |                                               |                |              rt1{}: 0x10-0x11 (1)
0x010|00                                             |.               |                n: 0 (valid) 0x10-0x11 (1)
     |                                               |                |                x[0:0]: 0x11-0x11 (0)
     |                                               |                |              rt2{}: 0x11-0x13 (2)
0x010|   01                                          | .              |                n: 1 (valid) 0x11-0x12 (1)
     |                                               |                |                x[0:1]: 0x12-0x13 (1)
0x010|      7e                                       |  ~             |                  [0]: "i64" (0x7e) t 0x12-0x13 (1)
     |                                               |                |    [1]{}: section 0x13-0x34 (33)
0x010|         03                                    |   .            |      id: "function_section" (3) 0x13-0x14 (1)
0x010|            1f                                 |    .           |      size: 31 (valid) 0x14-0x15 (1)
     |                                               |                |      content{}: 0x15-0x34 (31)
     |                                               |                |        x{}: 0x15-0x34 (31)
0x010|               1e                              |     .          |          n: 30 (valid) 0x15-0x16 (1)
     |                                               |                |          x[0:30]: 0x16-0x34 (30)
0x010|                  00                           |      .         |            [0]: 0 x (valid) 0x16-0x17 (1)
0x010|                     00                        |       .        |            [1]: 0 x (valid) 0x17-0x18 (1)
0x010|                        00                     |        .       |            [2]: 0 x (valid) 0x18-0x19 (1)
0x010|                           00                  |         .      |            [3]: 0 x (valid) 0x19-0x1a (1)
0x010|                              00               |          .     |            [4]: 0 x (valid) 0x1a-0x1b (1)
0x010|                                 00            |           .    |            [5]: 0 x (valid) 0x1b-0x1c (1)
0x010|                                    00         |            .   |            [6]: 0 x (valid) 0x1c-0x1d (1)
0x010|                                       00      |             .  |            [7]: 0 x (valid) 0x1d-0x1e (1)
0x010|                                          00   |              . |            [8]: 0 x (valid) 0x1e-0x1f (1)
0x010|                                             00|               .|            [9]: 0 x (valid) 0x1f-0x20 (1)
0x020|00                                             |.               |            [10]: 0 x (valid) 0x20-0x21 (1)
0x020|   01                                          | .              |            [11]: 1 x (valid) 0x21-0x22 (1)
0x020|      01                                       |  .             |            [12]: 1 x (valid) 0x22-0x23 (1)
0x020|         01                                    |   .            |            [13]: 1 x (valid) 0x23-0x24 (1)
0x020|            01                                 |    .           |            [14]: 1 x (valid) 0x24-0x25 (1)
0x020|               01                              |     .          |            [15]: 1 x (valid) 0x25-0x26 (1)
0x020|                  01                           |      .         |            [16]: 1 x (valid) 0x26-0x27 (1)
0x020|                     01                        |       .        |            [17]: 1 x (valid) 0x27-0x28 (1)
0x020|                        01                     |        .       |            [18]: 1 x (valid) 0x28-0x29 (1)
0x020|                           01                  |         .      |            [19]: 1 x (valid) 0x29-0x2a (1)
0x020|                              01               |          .     |            [20]: 1 x (valid) 0x2a-0x2b (1)
0x020|                                 01            |           .    |            [21]: 1 x (valid) 0x2b-0x2c (1)
0x020|                                    00         |            .   |            [22]: 0 x (valid) 0x2c-0x2d (1)
0x020|                                       00      |             .  |            [23]: 0 x (valid) 0x2d-0x2e (1)
0x020|                                          00   |              . |            [24]: 0 x (valid) 0x2e-0x2f (1)
0x020|                                             00|               .|            [25]: 0 x (valid) 0x2f-0x30 (1)
0x030|01                                             |.               |            [26]: 1 x (valid) 0x30-0x31 (1)
0x030|   01                                          | .              |            [27]: 1 x (valid) 0x31-0x32 (1)
0x030|      01                                       |  .             |            [28]: 1 x (valid) 0x32-0x33 (1)
0x030|         01                                    |   .            |            [29]: 1 x (valid) 0x33-0x34 (1)
     |                                               |                |    [2]{}: section 0x34-0x1ee (442)
0x030|            07                                 |    .           |      id: "export_section" (7) 0x34-0x35 (1)
0x030|               b7 03                           |     ..         |      size: 439 (valid) 0x35-0x37 (2)
     |                                               |                |      content{}: 0x37-0x1ee (439)
     |                                               |                |        ex{}: 0x37-0x1ee (439)
0x030|                     1e                        |       .        |          n: 30 (valid) 0x37-0x38 (1)
     |                                               |                |          x[0:30]: 0x38-0x1ee (438)
     |                                               |                |            [0]{}: ex 0x38-0x43 (11)
     |                                               |                |              nm{}: 0x38-0x41 (9)
0x030|                        08                     |        .       |                n: 8 (valid) 0x38-0x39 (1)
0x030|                           69 33 32 2e 74 65 73|         i32.tes|                b: "i32.test" 0x39-0x41 (8)
0x040|74                                             |t               |
     |                                               |                |              d{}: 0x41-0x43 (2)
0x040|   00                                          | .              |                tag: "funcidx" (0x0) 0x41-0x42 (1)
0x040|      00                                       |  .             |                x: 0 (valid) 0x42-0x43 (1)
     |                                               |                |            [1]{}: ex 0x43-0x4e (11)
     |                                               |                |              nm{}: 0x43-0x4c (9)
0x040|         08                                    |   .            |                n: 8 (valid) 0x43-0x44 (1)
0x040|            69 33 32 2e 75 6d 61 78            |    i32.umax    |                b: "i32.umax" 0x44-0x4c (8)
     |                                               |                |              d{}: 0x4c-0x4e (2)
0x040|                                    00         |            .   |                tag: "funcidx" (0x0) 0x4c-0x4d (1)
0x040|                                       01      |             .  |                x: 1 (valid) 0x4d-0x4e (1)
     |                                               |                |            [2]{}: ex 0x4e-0x59 (11)
     |                                               |                |              nm{}: 0x4e-0x57 (9)
0x040|                                          08   |              . |                n: 8 (valid) 0x4e-0x4f (1)
0x040|                                             69|               i|                b: "i32.smax" 0x4f-0x57 (8)
0x050|33 32 2e 73 6d 61 78                           |32.smax         |
     |                                               |                |              d{}: 0x57-0x59 (2)
0x050|                     00                        |       .        |                tag: "funcidx" (0x0) 0x57-0x58 (1)
0x050|                        02                     |        .       |                x: 2 (valid) 0x58-0x59 (1)
     |                                               |                |            [3]{}: ex 0x59-0x68 (15)
     |                                               |                |              nm{}: 0x59-0x66 (13)
0x050|                           0c                  |         .      |                n: 12 (valid) 0x59-0x5a (1)
0x050|                              69 33 32 2e 6e 65|          i32.ne|                b: "i32.neg_smax" 0x5a-0x66 (12)
0x060|67 5f 73 6d 61 78                              |g_smax          |
     |                                               |                |              d{}: 0x66-0x68 (2)
0x060|                  00                           |      .         |                tag: "funcidx" (0x0) 0x66-0x67 (1)
0x060|                     03                        |       .        |                x: 3 (valid) 0x67-0x68 (1)
     |                                               |                |            [4]{}: ex 0x68-0x73 (11)
     |                                               |                |              nm{}: 0x68-0x71 (9)
0x060|                        08                     |        .       |                n: 8 (valid) 0x68-0x69 (1)
0x060|                           69 33 32 2e 73 6d 69|         i32.smi|                b: "i32.smin" 0x69-0x71 (8)
0x070|6e                                             |n               |
     |                                               |                |              d{}: 0x71-0x73 (2)
0x070|   00                                          | .              |                tag: "funcidx" (0x0) 0x71-0x72 (1)
0x070|      04                                       |  .             |                x: 4 (valid) 0x72-0x73 (1)
     |                                               |                |            [5]{}: ex 0x73-0x82 (15)
     |                                               |                |              nm{}: 0x73-0x80 (13)
0x070|         0c                                    |   .            |                n: 12 (valid) 0x73-0x74 (1)
0x070|            69 33 32 2e 61 6c 74 5f 73 6d 69 6e|    i32.alt_smin|                b: "i32.alt_smin" 0x74-0x80 (12)
     |                                               |                |              d{}: 0x80-0x82 (2)
0x080|00                                             |.               |                tag: "funcidx" (0x0) 0x80-0x81 (1)
0x080|   05                                          | .              |                x: 5 (valid) 0x81-0x82 (1)
     |                                               |                |            [6]{}: ex 0x82-0x91 (15)
     |                                               |                |              nm{}: 0x82-0x8f (13)
0x080|      0c                                       |  .             |                n: 12 (valid) 0x82-0x83 (1)
0x080|         69 33 32 2e 69 6e 63 5f 73 6d 69 6e   |   i32.inc_smin |                b: "i32.inc_smin" 0x83-0x8f (12)
     |                                               |                |              d{}: 0x8f-0x91 (2)
0x080|                                             00|               .|                tag: "funcidx" (0x0) 0x8f-0x90 (1)
0x090|06                                             |.               |                x: 6 (valid) 0x90-0x91 (1)
     |                                               |                |            [7]{}: ex 0x91-0xa0 (15)
     |                                               |                |              nm{}: 0x91-0x9e (13)
0x090|   0c                                          | .              |                n: 12 (valid) 0x91-0x92 (1)
0x090|      69 33 32 2e 6e 65 67 5f 7a 65 72 6f      |  i32.neg_zero  |                b: "i32.neg_zero" 0x92-0x9e (12)
     |                                               |                |              d{}: 0x9e-0xa0 (2)
0x090|                                          00   |              . |                tag: "funcidx" (0x0) 0x9e-0x9f (1)
0x090|                                             07|               .|                x: 7 (valid) 0x9f-0xa0 (1)
     |                                               |                |            [8]{}: ex 0xa0-0xb0 (16)
     |                                               |                |              nm{}: 0xa0-0xae (14)
0x0a0|0d                                             |.               |                n: 13 (valid) 0xa0-0xa1 (1)
0x0a0|   69 33 32 2e 6e 6f 74 5f 6f 63 74 61 6c      | i32.not_octal  |                b: "i32.not_octal" 0xa1-0xae (13)
     |                                               |                |              d{}: 0xae-0xb0 (2)
0x0a0|                                          00   |              . |                tag: "funcidx" (0x0) 0xae-0xaf (1)
0x0a0|                                             08|               .|                x: 8 (valid) 0xaf-0xb0 (1)
     |                                               |                |            [9]{}: ex 0xb0-0xc7 (23)
     |                                               |                |              nm{}: 0xb0-0xc5 (21)
0x0b0|14                                             |.               |                n: 20 (valid) 0xb0-0xb1 (1)
0x0b0|   69 33 32 2e 75 6e 73 69 67 6e 65 64 5f 64 65| i32.unsigned_de|                b: "i32.unsigned_decimal" 0xb1-0xc5 (20)
0x0c0|63 69 6d 61 6c                                 |cimal           |
     |                                               |                |              d{}: 0xc5-0xc7 (2)
0x0c0|               00                              |     .          |                tag: "funcidx" (0x0) 0xc5-0xc6 (1)
0x0c0|                  09                           |      .         |                x: 9 (valid) 0xc6-0xc7 (1)
     |                                               |                |            [10]{}: ex 0xc7-0xd7 (16)
     |                                               |                |              nm{}: 0xc7-0xd5 (14)
0x0c0|                     0d                        |       .        |                n: 13 (valid) 0xc7-0xc8 (1)
0x0c0|                        69 33 32 2e 70 6c 75 73|        i32.plus|                b: "i32.plus_sign" 0xc8-0xd5 (13)
0x0d0|5f 73 69 67 6e                                 |_sign           |
     |                                               |                |              d{}: 0xd5-0xd7 (2)
0x0d0|               00                              |     .          |                tag: "funcidx" (0x0) 0xd5-0xd6 (1)
0x0d0|                  0a                           |      .         |                x: 10 (valid) 0xd6-0xd7 (1)
     |                                               |                |            [11]{}: ex 0xd7-0xe2 (11)
     |                                               |                |              nm{}: 0xd7-0xe0 (9)
0x0d0|                     08                        |       .        |                n: 8 (valid) 0xd7-0xd8 (1)
0x0d0|                        69 36 34 2e 74 65 73 74|        i64.test|                b: "i64.test" 0xd8-0xe0 (8)
     |                                               |                |              d{}: 0xe0-0xe2 (2)
0x0e0|00                                             |.               |                tag: "funcidx" (0x0) 0xe0-0xe1 (1)
0x0e0|   0b                                          | .              |                x: 11 (valid) 0xe1-0xe2 (1)
     |                                               |                |            [12]{}: ex 0xe2-0xed (11)
     |                                               |                |              nm{}: 0xe2-0xeb (9)
0x0e0|      08                                       |  .             |                n: 8 (valid) 0xe2-0xe3 (1)
0x0e0|         69 36 34 2e 75 6d 61 78               |   i64.umax     |                b: "i64.umax" 0xe3-0xeb (8)
     |                                               |                |              d{}: 0xeb-0xed (2)
0x0e0|                                 00            |           .    |                tag: "funcidx" (0x0) 0xeb-0xec (1)
0x0e0|                                    0c         |            .   |                x: 12 (valid) 0xec-0xed (1)
     |                                               |                |            [13]{}: ex 0xed-0xf8 (11)
     |                                               |                |              nm{}: 0xed-0xf6 (9)
0x0e0|                                       08      |             .  |                n: 8 (valid) 0xed-0xee (1)
0x0e0|                                          69 36|              i6|                b: "i64.smax" 0xee-0xf6 (8)
0x0f0|34 2e 73 6d 61 78                              |4.smax          |
     |                                               |                |              d{}: 0xf6-0xf8 (2)
0x0f0|                  00                           |      .         |                tag: "funcidx" (0x0) 0xf6-0xf7 (1)
0x0f0|                     0d                        |       .        |                x: 13 (valid) 0xf7-0xf8 (1)
     |                                               |                |            [14]{}: ex 0xf8-0x107 (15)
     |                                               |                |              nm{}: 0xf8-0x105 (13)
0x0f0|                        0c                     |        .       |                n: 12 (valid) 0xf8-0xf9 (1)
0x0f0|                           69 36 34 2e 6e 65 67|         i64.neg|                b: "i64.neg_smax" 0xf9-0x105 (12)
0x100|5f 73 6d 61 78                                 |_smax           |
     |                                               |                |              d{}: 0x105-0x107 (2)
0x100|               00                              |     .          |                tag: "funcidx" (0x0) 0x105-0x106 (1)
0x100|                  0e                           |      .         |                x: 14 (valid) 0x106-0x107 (1)
     |                                               |                |            [15]{}: ex 0x107-0x112 (11)
     |                                               |                |              nm{}: 0x107-0x110 (9)
0x100|                     08                        |       .        |                n: 8 (valid) 0x107-0x108 (1)
0x100|                        69 36 34 2e 73 6d 69 6e|        i64.smin|                b: "i64.smin" 0x108-0x110 (8)
     |                                               |                |              d{}: 0x110-0x112 (2)
0x110|00                                             |.               |                tag: "funcidx" (0x0) 0x110-0x111 (1)
0x110|   0f                                          | .              |                x: 15 (valid) 0x111-0x112 (1)
     |                                               |                |            [16]{}: ex 0x112-0x121 (15)
     |                                               |                |              nm{}: 0x112-0x11f (13)
0x110|      0c                                       |  .             |                n: 12 (valid) 0x112-0x113 (1)
0x110|         69 36 34 2e 61 6c 74 5f 73 6d 69 6e   |   i64.alt_smin |                b: "i64.alt_smin" 0x113-0x11f (12)
     |                                               |                |              d{}: 0x11f-0x121 (2)
0x110|                                             00|               .|                tag: "funcidx" (0x0) 0x11f-0x120 (1)
0x120|10                                             |.               |                x: 16 (valid) 0x120-0x121 (1)
     |                                               |                |            [17]{}: ex 0x121-0x130 (15)
     |                                               |                |              nm{}: 0x121-0x12e (13)
0x120|   0c                                          | .              |                n: 12 (valid) 0x121-0x122 (1)
0x120|      69 36 34 2e 69 6e 63 5f 73 6d 69 6e      |  i64.inc_smin  |                b: "i64.inc_smin" 0x122-0x12e (12)
     |                                               |                |              d{}: 0x12e-0x130 (2)
0x120|                                          00   |              . |                tag: "funcidx" (0x0) 0x12e-0x12f (1)
0x120|                                             11|               .|                x: 17 (valid) 0x12f-0x130 (1)
     |                                               |                |            [18]{}: ex 0x130-0x13f (15)
     |                                               |                |              nm{}: 0x130-0x13d (13)
0x130|0c                                             |.               |                n: 12 (valid) 0x130-0x131 (1)
0x130|   69 36 34 2e 6e 65 67 5f 7a 65 72 6f         | i64.neg_zero   |                b: "i64.neg_zero" 0x131-0x13d (12)
     |                                               |                |              d{}: 0x13d-0x13f (2)
0x130|                                       00      |             .  |                tag: "funcidx" (0x0) 0x13d-0x13e (1)
0x130|                                          12   |              . |                x: 18 (valid) 0x13e-0x13f (1)
     |                                               |                |            [19]{}: ex 0x13f-0x14f (16)
     |                                               |                |              nm{}: 0x13f-0x14d (14)
0x130|                                             0d|               .|                n: 13 (valid) 0x13f-0x140 (1)
0x140|69 36 34 2e 6e 6f 74 5f 6f 63 74 61 6c         |i64.not_octal   |                b: "i64.not_octal" 0x140-0x14d (13)
     |                                               |                |              d{}: 0x14d-0x14f (2)
0x140|                                       00      |             .  |                tag: "funcidx" (0x0) 0x14d-0x14e (1)
0x140|                                          13   |              . |                x: 19 (valid) 0x14e-0x14f (1)
     |                                               |                |            [20]{}: ex 0x14f-0x166 (23)
     |                                               |                |              nm{}: 0x14f-0x164 (21)
0x140|                                             14|               .|                n: 20 (valid) 0x14f-0x150 (1)
0x150|69 36 34 2e 75 6e 73 69 67 6e 65 64 5f 64 65 63|i64.unsigned_dec|                b: "i64.unsigned_decimal" 0x150-0x164 (20)
0x160|69 6d 61 6c                                    |imal            |
     |                                               |                |              d{}: 0x164-0x166 (2)
0x160|            00                                 |    .           |                tag: "funcidx" (0x0) 0x164-0x165 (1)
0x160|               14                              |     .          |                x: 20 (valid) 0x165-0x166 (1)
     |                                               |                |            [21]{}: ex 0x166-0x176 (16)
     |                                               |                |              nm{}: 0x166-0x174 (14)
0x160|                  0d                           |      .         |                n: 13 (valid) 0x166-0x167 (1)
0x160|                     69 36 34 2e 70 6c 75 73 5f|       i64.plus_|                b: "i64.plus_sign" 0x167-0x174 (13)
0x170|73 69 67 6e                                    |sign            |
     |                                               |                |              d{}: 0x174-0x176 (2)
0x170|            00                                 |    .           |                tag: "funcidx" (0x0) 0x174-0x175 (1)
0x170|               15                              |     .          |                x: 21 (valid) 0x175-0x176 (1)
     |                                               |                |            [22]{}: ex 0x176-0x185 (15)
     |                                               |                |              nm{}: 0x176-0x183 (13)
0x170|                  0c                           |      .         |                n: 12 (valid) 0x176-0x177 (1)
0x170|                     69 33 32 2d 64 65 63 2d 73|       i32-dec-s|                b: "i32-dec-sep1" 0x177-0x183 (12)
0x180|65 70 31                                       |ep1             |
     |                                               |                |              d{}: 0x183-0x185 (2)
0x180|         00                                    |   .            |                tag: "funcidx" (0x0) 0x183-0x184 (1)
0x180|            16                                 |    .           |                x: 22 (valid) 0x184-0x185 (1)
     |                                               |                |            [23]{}: ex 0x185-0x194 (15)
     |                                               |                |              nm{}: 0x185-0x192 (13)
0x180|               0c                              |     .          |                n: 12 (valid) 0x185-0x186 (1)
0x180|                  69 33 32 2d 64 65 63 2d 73 65|      i32-dec-se|                b: "i32-dec-sep2" 0x186-0x192 (12)
0x190|70 32                                          |p2              |
     |                                               |                |              d{}: 0x192-0x194 (2)
0x190|      00                                       |  .             |                tag: "funcidx" (0x0) 0x192-0x193 (1)
0x190|         17                                    |   .            |                x: 23 (valid) 0x193-0x194 (1)
     |                                               |                |            [24]{}: ex 0x194-0x1a3 (15)
     |                                               |                |              nm{}: 0x194-0x1a1 (13)
0x190|            0c                                 |    .           |                n: 12 (valid) 0x194-0x195 (1)
0x190|               69 33 32 2d 68 65 78 2d 73 65 70|     i32-hex-sep|                b: "i32-hex-sep1" 0x195-0x1a1 (12)
0x1a0|31                                             |1               |
     |                                               |                |              d{}: 0x1a1-0x1a3 (2)
0x1a0|   00                                          | .              |                tag: "funcidx" (0x0) 0x1a1-0x1a2 (1)
0x1a0|      18                                       |  .             |                x: 24 (valid) 0x1a2-0x1a3 (1)
     |                                               |                |            [25]{}: ex 0x1a3-0x1b2 (15)
     |                                               |                |              nm{}: 0x1a3-0x1b0 (13)
0x1a0|         0c                                    |   .            |                n: 12 (valid) 0x1a3-0x1a4 (1)
0x1a0|            69 33 32 2d 68 65 78 2d 73 65 70 32|    i32-hex-sep2|                b: "i32-hex-sep2" 0x1a4-0x1b0 (12)
     |                                               |                |              d{}: 0x1b0-0x1b2 (2)
0x1b0|00                                             |.               |                tag: "funcidx" (0x0) 0x1b0-0x1b1 (1)
0x1b0|   19                                          | .              |                x: 25 (valid) 0x1b1-0x1b2 (1)
     |                                               |                |            [26]{}: ex 0x1b2-0x1c1 (15)
     |                                               |                |              nm{}: 0x1b2-0x1bf (13)
0x1b0|      0c                                       |  .             |                n: 12 (valid) 0x1b2-0x1b3 (1)
0x1b0|         69 36 34 2d 64 65 63 2d 73 65 70 31   |   i64-dec-sep1 |                b: "i64-dec-sep1" 0x1b3-0x1bf (12)
     |                                               |                |              d{}: 0x1bf-0x1c1 (2)
0x1b0|                                             00|               .|                tag: "funcidx" (0x0) 0x1bf-0x1c0 (1)
0x1c0|1a                                             |.               |                x: 26 (valid) 0x1c0-0x1c1 (1)
     |                                               |                |            [27]{}: ex 0x1c1-0x1d0 (15)
     |                                               |                |              nm{}: 0x1c1-0x1ce (13)
0x1c0|   0c                                          | .              |                n: 12 (valid) 0x1c1-0x1c2 (1)
0x1c0|      69 36 34 2d 64 65 63 2d 73 65 70 32      |  i64-dec-sep2  |                b: "i64-dec-sep2" 0x1c2-0x1ce (12)
     |                                               |                |              d{}: 0x1ce-0x1d0 (2)
0x1c0|                                          00   |              . |                tag: "funcidx" (0x0) 0x1ce-0x1cf (1)
0x1c0|                                             1b|               .|                x: 27 (valid) 0x1cf-0x1d0 (1)
     |                                               |                |            [28]{}: ex 0x1d0-0x1df (15)
     |                                               |                |              nm{}: 0x1d0-0x1dd (13)
0x1d0|0c                                             |.               |                n: 12 (valid) 0x1d0-0x1d1 (1)
0x1d0|   69 36 34 2d 68 65 78 2d 73 65 70 31         | i64-hex-sep1   |                b: "i64-hex-sep1" 0x1d1-0x1dd (12)
     |                                               |                |              d{}: 0x1dd-0x1df (2)
0x1d0|                                       00      |             .  |                tag: "funcidx" (0x0) 0x1dd-0x1de (1)
0x1d0|                                          1c   |              . |                x: 28 (valid) 0x1de-0x1df (1)
     |                                               |                |            [29]{}: ex 0x1df-0x1ee (15)
     |                                               |                |              nm{}: 0x1df-0x1ec (13)
0x1d0|                                             0c|               .|                n: 12 (valid) 0x1df-0x1e0 (1)
0x1e0|69 36 34 2d 68 65 78 2d 73 65 70 32            |i64-hex-sep2    |                b: "i64-hex-sep2" 0x1e0-0x1ec (12)
     |                                               |                |              d{}: 0x1ec-0x1ee (2)
0x1e0|                                    00         |            .   |                tag: "funcidx" (0x0) 0x1ec-0x1ed (1)
0x1e0|                                       1d      |             .  |                x: 29 (valid) 0x1ed-0x1ee (1)
     |                                               |                |    [3]{}: section 0x1ee-0x306 (280)
0x1e0|                                          0a   |              . |      id: "code_section" (10) 0x1ee-0x1ef (1)
0x1e0|                                             95|               .|      size: 277 (valid) 0x1ef-0x1f1 (2)
0x1f0|02                                             |.               |
     |                                               |                |      content{}: 0x1f1-0x306 (277)
     |                                               |                |        code{}: 0x1f1-0x306 (277)
0x1f0|   1e                                          | .              |          n: 30 (valid) 0x1f1-0x1f2 (1)
     |                                               |                |          x[0:30]: 0x1f2-0x306 (276)
     |                                               |                |            [0]{}: code 0x1f2-0x1fc (10)
0x1f0|      09                                       |  .             |              size: 9 (valid) 0x1f2-0x1f3 (1)
     |                                               |                |              code{}: 0x1f3-0x1fc (9)
     |                                               |                |                t{}: 0x1f3-0x1f4 (1)
0x1f0|         00                                    |   .            |                  n: 0 (valid) 0x1f3-0x1f4 (1)
     |                                               |                |                  x[0:0]: 0x1f4-0x1f4 (0)
     |                                               |                |                e[0:3]: 0x1f4-0x1fc (8)
     |                                               |                |                  [0]{}: in 0x1f4-0x1fa (6)
0x1f0|            41                                 |    A           |                    opcode: "i32.const" (0x41) 0x1f4-0x1f5 (1)
0x1f0|               8d a0 b7 dd 00                  |     .....      |                    n: 195940365 (valid) 0x1f5-0x1fa (5)
     |                                               |                |                  [1]{}: in 0x1fa-0x1fb (1)
0x1f0|                              0f               |          .     |                    opcode: "return" (0xf) 0x1fa-0x1fb (1)
     |                                               |                |                  [2]{}: in 0x1fb-0x1fc (1)
0x1f0|                                 0b            |           .    |                    opcode: "end" (0xb) 0x1fb-0x1fc (1)
     |                                               |                |            [1]{}: code 0x1fc-0x202 (6)
0x1f0|                                    05         |            .   |              size: 5 (valid) 0x1fc-0x1fd (1)
     |                                               |                |              code{}: 0x1fd-0x202 (5)
     |                                               |                |                t{}: 0x1fd-0x1fe (1)
0x1f0|                                       00      |             .  |                  n: 0 (valid) 0x1fd-0x1fe (1)
     |                                               |                |                  x[0:0]: 0x1fe-0x1fe (0)
     |                                               |                |                e[0:3]: 0x1fe-0x202 (4)
     |                                               |                |                  [0]{}: in 0x1fe-0x200 (2)
0x1f0|                                          41   |              A |                    opcode: "i32.const" (0x41) 0x1fe-0x1ff (1)
0x1f0|                                             7f|               .|                    n: -1 (valid) 0x1ff-0x200 (1)
     |                                               |                |                  [1]{}: in 0x200-0x201 (1)
0x200|0f                                             |.               |                    opcode: "return" (0xf) 0x200-0x201 (1)
     |                                               |                |                  [2]{}: in 0x201-0x202 (1)
0x200|   0b                                          | .              |                    opcode: "end" (0xb) 0x201-0x202 (1)
     |                                               |                |            [2]{}: code 0x202-0x20c (10)
0x200|      09                                       |  .             |              size: 9 (valid) 0x202-0x203 (1)
     |                                               |                |              code{}: 0x203-0x20c (9)
     |                                               |                |                t{}: 0x203-0x204 (1)
0x200|         00                                    |   .            |                  n: 0 (valid) 0x203-0x204 (1)
     |                                               |                |                  x[0:0]: 0x204-0x204 (0)
     |                                               |                |                e[0:3]: 0x204-0x20c (8)
     |                                               |                |                  [0]{}: in 0x204-0x20a (6)
0x200|            41                                 |    A           |                    opcode: "i32.const" (0x41) 0x204-0x205 (1)
0x200|               ff ff ff ff 07                  |     .....      |                    n: 2147483647 (valid) 0x205-0x20a (5)
     |                                               |                |                  [1]{}: in 0x20a-0x20b (1)
0x200|                              0f               |          .     |                    opcode: "return" (0xf) 0x20a-0x20b (1)
     |                                               |                |                  [2]{}: in 0x20b-0x20c (1)
0x200|                                 0b            |           .    |                    opcode: "end" (0xb) 0x20b-0x20c (1)
     |                                               |                |            [3]{}: code 0x20c-0x216 (10)
0x200|                                    09         |            .   |              size: 9 (valid) 0x20c-0x20d (1)
     |                                               |                |              code{}: 0x20d-0x216 (9)
     |                                               |                |                t{}: 0x20d-0x20e (1)
0x200|                                       00      |             .  |                  n: 0 (valid) 0x20d-0x20e (1)
     |                                               |                |                  x[0:0]: 0x20e-0x20e (0)
     |                                               |                |                e[0:3]: 0x20e-0x216 (8)
     |                                               |                |                  [0]{}: in 0x20e-0x214 (6)
0x200|                                          41   |              A |                    opcode: "i32.const" (0x41) 0x20e-0x20f (1)
0x200|                                             81|               .|                    n: -2147483647 (valid) 0x20f-0x214 (5)
0x210|80 80 80 78                                    |...x            |
     |                                               |                |                  [1]{}: in 0x214-0x215 (1)
0x210|            0f                                 |    .           |                    opcode: "return" (0xf) 0x214-0x215 (1)
     |                                               |                |                  [2]{}: in 0x215-0x216 (1)
0x210|               0b                              |     .          |                    opcode: "end" (0xb) 0x215-0x216 (1)
     |                                               |                |            [4]{}: code 0x216-0x220 (10)
0x210|                  09                           |      .         |              size: 9 (valid) 0x216-0x217 (1)
     |                                               |                |              code{}: 0x217-0x220 (9)
     |                                               |                |                t{}: 0x217-0x218 (1)
0x210|                     00                        |       .        |                  n: 0 (valid) 0x217-0x218 (1)
     |                                               |                |                  x[0:0]: 0x218-0x218 (0)
     |                                               |                |                e[0:3]: 0x218-0x220 (8)
     |                                               |                |                  [0]{}: in 0x218-0x21e (6)
0x210|                        41                     |        A       |                    opcode: "i32.const" (0x41) 0x218-0x219 (1)
0x210|                           80 80 80 80 78      |         ....x  |                    n: -2147483648 (valid) 0x219-0x21e (5)
     |                                               |                |                  [1]{}: in 0x21e-0x21f (1)
0x210|                                          0f   |              . |                    opcode: "return" (0xf) 0x21e-0x21f (1)
     |                                               |                |                  [2]{}: in 0x21f-0x220 (1)
0x210|                                             0b|               .|                    opcode: "end" (0xb) 0x21f-0x220 (1)
     |                                               |                |            [5]{}: code 0x220-0x22a (10)
0x220|09                                             |.               |              size: 9 (valid) 0x220-0x221 (1)
     |                                               |                |              code{}: 0x221-0x22a (9)
     |                                               |                |                t{}: 0x221-0x222 (1)
0x220|   00                                          | .              |                  n: 0 (valid) 0x221-0x222 (1)
     |                                               |                |                  x[0:0]: 0x222-0x222 (0)
     |                                               |                |                e[0:3]: 0x222-0x22a (8)
     |                                               |                |                  [0]{}: in 0x222-0x228 (6)
0x220|      41                                       |  A             |                    opcode: "i32.const" (0x41) 0x222-0x223 (1)
0x220|         80 80 80 80 78                        |   ....x        |                    n: -2147483648 (valid) 0x223-0x228 (5)
     |                                               |                |                  [1]{}: in 0x228-0x229 (1)
0x220|                        0f                     |        .       |                    opcode: "return" (0xf) 0x228-0x229 (1)
     |                                               |                |                  [2]{}: in 0x229-0x22a (1)
0x220|                           0b                  |         .      |                    opcode: "end" (0xb) 0x229-0x22a (1)
     |                                               |                |            [6]{}: code 0x22a-0x237 (13)
0x220|                              0c               |          .     |              size: 12 (valid) 0x22a-0x22b (1)
     |                                               |                |              code{}: 0x22b-0x237 (12)
     |                                               |                |                t{}: 0x22b-0x22c (1)
0x220|                                 00            |           .    |                  n: 0 (valid) 0x22b-0x22c (1)
     |                                               |                |                  x[0:0]: 0x22c-0x22c (0)
     |                                               |                |                e[0:5]: 0x22c-0x237 (11)
     |                                               |                |                  [0]{}: in 0x22c-0x232 (6)
0x220|                                    41         |            A   |                    opcode: "i32.const" (0x41) 0x22c-0x22d (1)
0x220|                                       80 80 80|             ...|                    n: -2147483648 (valid) 0x22d-0x232 (5)
0x230|80 78                                          |.x              |
     |                                               |                |                  [1]{}: in 0x232-0x234 (2)
0x230|      41                                       |  A             |                    opcode: "i32.const" (0x41) 0x232-0x233 (1)
0x230|         01                                    |   .            |                    n: 1 (valid) 0x233-0x234 (1)
     |                                               |                |                  [2]{}: in 0x234-0x235 (1)
0x230|            6a                                 |    j           |                    opcode: "i32.add" (0x6a) 0x234-0x235 (1)
     |                                               |                |                  [3]{}: in 0x235-0x236 (1)
0x230|               0f                              |     .          |                    opcode: "return" (0xf) 0x235-0x236 (1)
     |                                               |                |                  [4]{}: in 0x236-0x237 (1)
0x230|                  0b                           |      .         |                    opcode: "end" (0xb) 0x236-0x237 (1)
     |                                               |                |            [7]{}: code 0x237-0x23d (6)
0x230|                     05                        |       .        |              size: 5 (valid) 0x237-0x238 (1)
     |                                               |                |              code{}: 0x238-0x23d (5)
     |                                               |                |                t{}: 0x238-0x239 (1)
0x230|                        00                     |        .       |                  n: 0 (valid) 0x238-0x239 (1)
     |                                               |                |                  x[0:0]: 0x239-0x239 (0)
     |                                               |                |                e[0:3]: 0x239-0x23d (4)
     |                                               |                |                  [0]{}: in 0x239-0x23b (2)
0x230|                           41                  |         A      |                    opcode: "i32.const" (0x41) 0x239-0x23a (1)
0x230|                              00               |          .     |                    n: 0 (valid) 0x23a-0x23b (1)
     |                                               |                |                  [1]{}: in 0x23b-0x23c (1)
0x230|                                 0f            |           .    |                    opcode: "return" (0xf) 0x23b-0x23c (1)
     |                                               |                |                  [2]{}: in 0x23c-0x23d (1)
0x230|                                    0b         |            .   |                    opcode: "end" (0xb) 0x23c-0x23d (1)
     |                                               |                |            [8]{}: code 0x23d-0x243 (6)
0x230|                                       05      |             .  |              size: 5 (valid) 0x23d-0x23e (1)
     |                                               |                |              code{}: 0x23e-0x243 (5)
     |                                               |                |                t{}: 0x23e-0x23f (1)
0x230|                                          00   |              . |                  n: 0 (valid) 0x23e-0x23f (1)
     |                                               |                |                  x[0:0]: 0x23f-0x23f (0)
     |                                               |                |                e[0:3]: 0x23f-0x243 (4)
     |                                               |                |                  [0]{}: in 0x23f-0x241 (2)
0x230|                                             41|               A|                    opcode: "i32.const" (0x41) 0x23f-0x240 (1)
0x240|0a                                             |.               |                    n: 10 (valid) 0x240-0x241 (1)
     |                                               |                |                  [1]{}: in 0x241-0x242 (1)
0x240|   0f                                          | .              |                    opcode: "return" (0xf) 0x241-0x242 (1)
     |                                               |                |                  [2]{}: in 0x242-0x243 (1)
0x240|      0b                                       |  .             |                    opcode: "end" (0xb) 0x242-0x243 (1)
     |                                               |                |            [9]{}: code 0x243-0x249 (6)
0x240|         05                                    |   .            |              size: 5 (valid) 0x243-0x244 (1)
     |                                               |                |              code{}: 0x244-0x249 (5)
     |                                               |                |                t{}: 0x244-0x245 (1)
0x240|            00                                 |    .           |                  n: 0 (valid) 0x244-0x245 (1)
     |                                               |                |                  x[0:0]: 0x245-0x245 (0)
     |                                               |                |                e[0:3]: 0x245-0x249 (4)
     |                                               |                |                  [0]{}: in 0x245-0x247 (2)
0x240|               41                              |     A          |                    opcode: "i32.const" (0x41) 0x245-0x246 (1)
0x240|                  7f                           |      .         |                    n: -1 (valid) 0x246-0x247 (1)
     |                                               |                |                  [1]{}: in 0x247-0x248 (1)
0x240|                     0f                        |       .        |                    opcode: "return" (0xf) 0x247-0x248 (1)
     |                                               |                |                  [2]{}: in 0x248-0x249 (1)
0x240|                        0b                     |        .       |                    opcode: "end" (0xb) 0x248-0x249 (1)
     |                                               |                |            [10]{}: code 0x249-0x24f (6)
0x240|                           05                  |         .      |              size: 5 (valid) 0x249-0x24a (1)
     |                                               |                |              code{}: 0x24a-0x24f (5)
     |                                               |                |                t{}: 0x24a-0x24b (1)
0x240|                              00               |          .     |                  n: 0 (valid) 0x24a-0x24b (1)
     |                                               |                |                  x[0:0]: 0x24b-0x24b (0)
     |                                               |                |                e[0:3]: 0x24b-0x24f (4)
     |                                               |                |                  [0]{}: in 0x24b-0x24d (2)
0x240|                                 41            |           A    |                    opcode: "i32.const" (0x41) 0x24b-0x24c (1)
0x240|                                    2a         |            *   |                    n: 42 (valid) 0x24c-0x24d (1)
     |                                               |                |                  [1]{}: in 0x24d-0x24e (1)
0x240|                                       0f      |             .  |                    opcode: "return" (0xf) 0x24d-0x24e (1)
     |                                               |                |                  [2]{}: in 0x24e-0x24f (1)
0x240|                                          0b   |              . |                    opcode: "end" (0xb) 0x24e-0x24f (1)
     |                                               |                |            [11]{}: code 0x24f-0x25d (14)
0x240|                                             0d|               .|              size: 13 (valid) 0x24f-0x250 (1)
     |                                               |                |              code{}: 0x250-0x25d (13)
     |                                               |                |                t{}: 0x250-0x251 (1)
0x250|00                                             |.               |                  n: 0 (valid) 0x250-0x251 (1)
     |                                               |                |                  x[0:0]: 0x251-0x251 (0)
     |                                               |                |                e[0:3]: 0x251-0x25d (12)
     |                                               |                |                  [0]{}: in 0x251-0x25b (10)
0x250|   42                                          | B              |                    opcode: "i64.const" (0x42) 0x251-0x252 (1)
0x250|      ee d4 99 dd e0 cd ee d5 0c               |  .........     |                    n: 913028331277281902 0x252-0x25b (9)
     |                                               |                |                  [1]{}: in 0x25b-0x25c (1)
0x250|                                 0f            |           .    |                    opcode: "return" (0xf) 0x25b-0x25c (1)
     |                                               |                |                  [2]{}: in 0x25c-0x25d (1)
0x250|                                    0b         |            .   |                    opcode: "end" (0xb) 0x25c-0x25d (1)
     |                                               |                |            [12]{}: code 0x25d-0x263 (6)
0x250|                                       05      |             .  |              size: 5 (valid) 0x25d-0x25e (1)
     |                                               |                |              code{}: 0x25e-0x263 (5)
     |                                               |                |                t{}: 0x25e-0x25f (1)
0x250|                                          00   |              . |                  n: 0 (valid) 0x25e-0x25f (1)
     |                                               |                |                  x[0:0]: 0x25f-0x25f (0)
     |                                               |                |                e[0:3]: 0x25f-0x263 (4)
     |                                               |                |                  [0]{}: in 0x25f-0x261 (2)
0x250|                                             42|               B|                    opcode: "i64.const" (0x42) 0x25f-0x260 (1)
0x260|7f                                             |.               |                    n: -1 0x260-0x261 (1)
     |                                               |                |                  [1]{}: in 0x261-0x262 (1)
0x260|   0f                                          | .              |                    opcode: "return" (0xf) 0x261-0x262 (1)
     |                                               |                |                  [2]{}: in 0x262-0x263 (1)
0x260|      0b                                       |  .             |                    opcode: "end" (0xb) 0x262-0x263 (1)
     |                                               |                |            [13]{}: code 0x263-0x272 (15)
0x260|         0e                                    |   .            |              size: 14 (valid) 0x263-0x264 (1)
     |                                               |                |              code{}: 0x264-0x272 (14)
     |                                               |                |                t{}: 0x264-0x265 (1)
0x260|            00                                 |    .           |                  n: 0 (valid) 0x264-0x265 (1)
     |                                               |                |                  x[0:0]: 0x265-0x265 (0)
     |                                               |                |                e[0:3]: 0x265-0x272 (13)
     |                                               |                |                  [0]{}: in 0x265-0x270 (11)
0x260|               42                              |     B          |                    opcode: "i64.const" (0x42) 0x265-0x266 (1)
0x260|                  ff ff ff ff ff ff ff ff ff 00|      ..........|                    n: 9223372036854775807 0x266-0x270 (10)
     |                                               |                |                  [1]{}: in 0x270-0x271 (1)
0x270|0f                                             |.               |                    opcode: "return" (0xf) 0x270-0x271 (1)
     |                                               |                |                  [2]{}: in 0x271-0x272 (1)
0x270|   0b                                          | .              |                    opcode: "end" (0xb) 0x271-0x272 (1)
     |                                               |                |            [14]{}: code 0x272-0x281 (15)
0x270|      0e                                       |  .             |              size: 14 (valid) 0x272-0x273 (1)
     |                                               |                |              code{}: 0x273-0x281 (14)
     |                                               |                |                t{}: 0x273-0x274 (1)
0x270|         00                                    |   .            |                  n: 0 (valid) 0x273-0x274 (1)
     |                                               |                |                  x[0:0]: 0x274-0x274 (0)
     |                                               |                |                e[0:3]: 0x274-0x281 (13)
     |                                               |                |                  [0]{}: in 0x274-0x27f (11)
0x270|            42                                 |    B           |                    opcode: "i64.const" (0x42) 0x274-0x275 (1)
0x270|               81 80 80 80 80 80 80 80 80 7f   |     .......... |                    n: -9223372036854775807 0x275-0x27f (10)
     |                                               |                |                  [1]{}: in 0x27f-0x280 (1)
0x270|                                             0f|               .|                    opcode: "return" (0xf) 0x27f-0x280 (1)
     |                                               |                |                  [2]{}: in 0x280-0x281 (1)
0x280|0b                                             |.               |                    opcode: "end" (0xb) 0x280-0x281 (1)
     |                                               |                |            [15]{}: code 0x281-0x290 (15)
0x280|   0e                                          | .              |              size: 14 (valid) 0x281-0x282 (1)
     |                                               |                |              code{}: 0x282-0x290 (14)
     |                                               |                |                t{}: 0x282-0x283 (1)
0x280|      00                                       |  .             |                  n: 0 (valid) 0x282-0x283 (1)
     |                                               |                |                  x[0:0]: 0x283-0x283 (0)
     |                                               |                |                e[0:3]: 0x283-0x290 (13)
     |                                               |                |                  [0]{}: in 0x283-0x28e (11)
0x280|         42                                    |   B            |                    opcode: "i64.const" (0x42) 0x283-0x284 (1)
0x280|            80 80 80 80 80 80 80 80 80 7f      |    ..........  |                    n: -9223372036854775808 0x284-0x28e (10)
     |                                               |                |                  [1]{}: in 0x28e-0x28f (1)
0x280|                                          0f   |              . |                    opcode: "return" (0xf) 0x28e-0x28f (1)
     |                                               |                |                  [2]{}: in 0x28f-0x290 (1)
0x280|                                             0b|               .|                    opcode: "end" (0xb) 0x28f-0x290 (1)
     |                                               |                |            [16]{}: code 0x290-0x29f (15)
0x290|0e                                             |.               |              size: 14 (valid) 0x290-0x291 (1)
     |                                               |                |              code{}: 0x291-0x29f (14)
     |                                               |                |                t{}: 0x291-0x292 (1)
0x290|   00                                          | .              |                  n: 0 (valid) 0x291-0x292 (1)
     |                                               |                |                  x[0:0]: 0x292-0x292 (0)
     |                                               |                |                e[0:3]: 0x292-0x29f (13)
     |                                               |                |                  [0]{}: in 0x292-0x29d (11)
0x290|      42                                       |  B             |                    opcode: "i64.const" (0x42) 0x292-0x293 (1)
0x290|         80 80 80 80 80 80 80 80 80 7f         |   ..........   |                    n: -9223372036854775808 0x293-0x29d (10)
     |                                               |                |                  [1]{}: in 0x29d-0x29e (1)
0x290|                                       0f      |             .  |                    opcode: "return" (0xf) 0x29d-0x29e (1)
     |                                               |                |                  [2]{}: in 0x29e-0x29f (1)
0x290|                                          0b   |              . |                    opcode: "end" (0xb) 0x29e-0x29f (1)
     |                                               |                |            [17]{}: code 0x29f-0x2b1 (18)
0x290|                                             11|               .|              size: 17 (valid) 0x29f-0x2a0 (1)
     |                                               |                |              code{}: 0x2a0-0x2b1 (17)
     |                                               |                |                t{}: 0x2a0-0x2a1 (1)
0x2a0|00                                             |.               |                  n: 0 (valid) 0x2a0-0x2a1 (1)
     |                                               |                |                  x[0:0]: 0x2a1-0x2a1 (0)
     |                                               |                |                e[0:5]: 0x2a1-0x2b1 (16)
     |                                               |                |                  [0]{}: in 0x2a1-0x2ac (11)
0x2a0|   42                                          | B              |                    opcode: "i64.const" (0x42) 0x2a1-0x2a2 (1)
0x2a0|      80 80 80 80 80 80 80 80 80 7f            |  ..........    |                    n: -9223372036854775808 0x2a2-0x2ac (10)
     |                                               |                |                  [1]{}: in 0x2ac-0x2ae (2)
0x2a0|                                    42         |            B   |                    opcode: "i64.const" (0x42) 0x2ac-0x2ad (1)
0x2a0|                                       01      |             .  |                    n: 1 0x2ad-0x2ae (1)
     |                                               |                |                  [2]{}: in 0x2ae-0x2af (1)
0x2a0|                                          7c   |              | |                    opcode: "i64.add" (0x7c) 0x2ae-0x2af (1)
     |                                               |                |                  [3]{}: in 0x2af-0x2b0 (1)
0x2a0|                                             0f|               .|                    opcode: "return" (0xf) 0x2af-0x2b0 (1)
     |                                               |                |                  [4]{}: in 0x2b0-0x2b1 (1)
0x2b0|0b                                             |.               |                    opcode: "end" (0xb) 0x2b0-0x2b1 (1)
     |                                               |                |            [18]{}: code 0x2b1-0x2b7 (6)
0x2b0|   05                                          | .              |              size: 5 (valid) 0x2b1-0x2b2 (1)
     |                                               |                |              code{}: 0x2b2-0x2b7 (5)
     |                                               |                |                t{}: 0x2b2-0x2b3 (1)
0x2b0|      00                                       |  .             |                  n: 0 (valid) 0x2b2-0x2b3 (1)
     |                                               |                |                  x[0:0]: 0x2b3-0x2b3 (0)
     |                                               |                |                e[0:3]: 0x2b3-0x2b7 (4)
     |                                               |                |                  [0]{}: in 0x2b3-0x2b5 (2)
0x2b0|         42                                    |   B            |                    opcode: "i64.const" (0x42) 0x2b3-0x2b4 (1)
0x2b0|            00                                 |    .           |                    n: 0 0x2b4-0x2b5 (1)
     |                                               |                |                  [1]{}: in 0x2b5-0x2b6 (1)
0x2b0|               0f                              |     .          |                    opcode: "return" (0xf) 0x2b5-0x2b6 (1)
     |                                               |                |                  [2]{}: in 0x2b6-0x2b7 (1)
0x2b0|                  0b                           |      .         |                    opcode: "end" (0xb) 0x2b6-0x2b7 (1)
     |                                               |                |            [19]{}: code 0x2b7-0x2bd (6)
0x2b0|                     05                        |       .        |              size: 5 (valid) 0x2b7-0x2b8 (1)
     |                                               |                |              code{}: 0x2b8-0x2bd (5)
     |                                               |                |                t{}: 0x2b8-0x2b9 (1)
0x2b0|                        00                     |        .       |                  n: 0 (valid) 0x2b8-0x2b9 (1)
     |                                               |                |                  x[0:0]: 0x2b9-0x2b9 (0)
     |                                               |                |                e[0:3]: 0x2b9-0x2bd (4)
     |                                               |                |                  [0]{}: in 0x2b9-0x2bb (2)
0x2b0|                           42                  |         B      |                    opcode: "i64.const" (0x42) 0x2b9-0x2ba (1)
0x2b0|                              0a               |          .     |                    n: 10 0x2ba-0x2bb (1)
     |                                               |                |                  [1]{}: in 0x2bb-0x2bc (1)
0x2b0|                                 0f            |           .    |                    opcode: "return" (0xf) 0x2bb-0x2bc (1)
     |                                               |                |                  [2]{}: in 0x2bc-0x2bd (1)
0x2b0|                                    0b         |            .   |                    opcode: "end" (0xb) 0x2bc-0x2bd (1)
     |                                               |                |            [20]{}: code 0x2bd-0x2c3 (6)
0x2b0|                                       05      |             .  |              size: 5 (valid) 0x2bd-0x2be (1)
     |                                               |                |              code{}: 0x2be-0x2c3 (5)
     |                                               |                |                t{}: 0x2be-0x2bf (1)
0x2b0|                                          00   |              . |                  n: 0 (valid) 0x2be-0x2bf (1)
     |                                               |                |                  x[0:0]: 0x2bf-0x2bf (0)
     |                                               |                |                e[0:3]: 0x2bf-0x2c3 (4)
     |                                               |                |                  [0]{}: in 0x2bf-0x2c1 (2)
0x2b0|                                             42|               B|                    opcode: "i64.const" (0x42) 0x2bf-0x2c0 (1)
0x2c0|7f                                             |.               |                    n: -1 0x2c0-0x2c1 (1)
     |                                               |                |                  [1]{}: in 0x2c1-0x2c2 (1)
0x2c0|   0f                                          | .              |                    opcode: "return" (0xf) 0x2c1-0x2c2 (1)
     |                                               |                |                  [2]{}: in 0x2c2-0x2c3 (1)
0x2c0|      0b                                       |  .             |                    opcode: "end" (0xb) 0x2c2-0x2c3 (1)
     |                                               |                |            [21]{}: code 0x2c3-0x2c9 (6)
0x2c0|         05                                    |   .            |              size: 5 (valid) 0x2c3-0x2c4 (1)
     |                                               |                |              code{}: 0x2c4-0x2c9 (5)
     |                                               |                |                t{}: 0x2c4-0x2c5 (1)
0x2c0|            00                                 |    .           |                  n: 0 (valid) 0x2c4-0x2c5 (1)
     |                                               |                |                  x[0:0]: 0x2c5-0x2c5 (0)
     |                                               |                |                e[0:3]: 0x2c5-0x2c9 (4)
     |                                               |                |                  [0]{}: in 0x2c5-0x2c7 (2)
0x2c0|               42                              |     B          |                    opcode: "i64.const" (0x42) 0x2c5-0x2c6 (1)
0x2c0|                  2a                           |      *         |                    n: 42 0x2c6-0x2c7 (1)
     |                                               |                |                  [1]{}: in 0x2c7-0x2c8 (1)
0x2c0|                     0f                        |       .        |                    opcode: "return" (0xf) 0x2c7-0x2c8 (1)
     |                                               |                |                  [2]{}: in 0x2c8-0x2c9 (1)
0x2c0|                        0b                     |        .       |                    opcode: "end" (0xb) 0x2c8-0x2c9 (1)
     |                                               |                |            [22]{}: code 0x2c9-0x2d0 (7)
0x2c0|                           06                  |         .      |              size: 6 (valid) 0x2c9-0x2ca (1)
     |                                               |                |              code{}: 0x2ca-0x2d0 (6)
     |                                               |                |                t{}: 0x2ca-0x2cb (1)
0x2c0|                              00               |          .     |                  n: 0 (valid) 0x2ca-0x2cb (1)
     |                                               |                |                  x[0:0]: 0x2cb-0x2cb (0)
     |                                               |                |                e[0:2]: 0x2cb-0x2d0 (5)
     |                                               |                |                  [0]{}: in 0x2cb-0x2cf (4)
0x2c0|                                 41            |           A    |                    opcode: "i32.const" (0x41) 0x2cb-0x2cc (1)
0x2c0|                                    c0 84 3d   |            ..= |                    n: 1000000 (valid) 0x2cc-0x2cf (3)
     |                                               |                |                  [1]{}: in 0x2cf-0x2d0 (1)
0x2c0|                                             0b|               .|                    opcode: "end" (0xb) 0x2cf-0x2d0 (1)
     |                                               |                |            [23]{}: code 0x2d0-0x2d6 (6)
0x2d0|05                                             |.               |              size: 5 (valid) 0x2d0-0x2d1 (1)
     |                                               |                |              code{}: 0x2d1-0x2d6 (5)
     |                                               |                |                t{}: 0x2d1-0x2d2 (1)
0x2d0|   00                                          | .              |                  n: 0 (valid) 0x2d1-0x2d2 (1)
     |                                               |                |                  x[0:0]: 0x2d2-0x2d2 (0)
     |                                               |                |                e[0:2]: 0x2d2-0x2d6 (4)
     |                                               |                |                  [0]{}: in 0x2d2-0x2d5 (3)
0x2d0|      41                                       |  A             |                    opcode: "i32.const" (0x41) 0x2d2-0x2d3 (1)
0x2d0|         e8 07                                 |   ..           |                    n: 1000 (valid) 0x2d3-0x2d5 (2)
     |                                               |                |                  [1]{}: in 0x2d5-0x2d6 (1)
0x2d0|               0b                              |     .          |                    opcode: "end" (0xb) 0x2d5-0x2d6 (1)
     |                                               |                |            [24]{}: code 0x2d6-0x2df (9)
0x2d0|                  08                           |      .         |              size: 8 (valid) 0x2d6-0x2d7 (1)
     |                                               |                |              code{}: 0x2d7-0x2df (8)
     |                                               |                |                t{}: 0x2d7-0x2d8 (1)
0x2d0|                     00                        |       .        |                  n: 0 (valid) 0x2d7-0x2d8 (1)
     |                                               |                |                  x[0:0]: 0x2d8-0x2d8 (0)
     |                                               |                |                e[0:2]: 0x2d8-0x2df (7)
     |                                               |                |                  [0]{}: in 0x2d8-0x2de (6)
0x2d0|                        41                     |        A       |                    opcode: "i32.const" (0x41) 0x2d8-0x2d9 (1)
0x2d0|                           99 81 bc d0 00      |         .....  |                    n: 168755353 (valid) 0x2d9-0x2de (5)
     |                                               |                |                  [1]{}: in 0x2de-0x2df (1)
0x2d0|                                          0b   |              . |                    opcode: "end" (0xb) 0x2de-0x2df (1)
     |                                               |                |            [25]{}: code 0x2df-0x2e6 (7)
0x2d0|                                             06|               .|              size: 6 (valid) 0x2df-0x2e0 (1)
     |                                               |                |              code{}: 0x2e0-0x2e6 (6)
     |                                               |                |                t{}: 0x2e0-0x2e1 (1)
0x2e0|00                                             |.               |                  n: 0 (valid) 0x2e0-0x2e1 (1)
     |                                               |                |                  x[0:0]: 0x2e1-0x2e1 (0)
     |                                               |                |                e[0:2]: 0x2e1-0x2e6 (5)
     |                                               |                |                  [0]{}: in 0x2e1-0x2e5 (4)
0x2e0|   41                                          | A              |                    opcode: "i32.const" (0x41) 0x2e1-0x2e2 (1)
0x2e0|      8f d4 06                                 |  ...           |                    n: 109071 (valid) 0x2e2-0x2e5 (3)
     |                                               |                |                  [1]{}: in 0x2e5-0x2e6 (1)
0x2e0|               0b                              |     .          |                    opcode: "end" (0xb) 0x2e5-0x2e6 (1)
     |                                               |                |            [26]{}: code 0x2e6-0x2ed (7)
0x2e0|                  06                           |      .         |              size: 6 (valid) 0x2e6-0x2e7 (1)
     |                                               |                |              code{}: 0x2e7-0x2ed (6)
     |                                               |                |                t{}: 0x2e7-0x2e8 (1)
0x2e0|                     00                        |       .        |                  n: 0 (valid) 0x2e7-0x2e8 (1)
     |                                               |                |                  x[0:0]: 0x2e8-0x2e8 (0)
     |                                               |                |                e[0:2]: 0x2e8-0x2ed (5)
     |                                               |                |                  [0]{}: in 0x2e8-0x2ec (4)
0x2e0|                        42                     |        B       |                    opcode: "i64.const" (0x42) 0x2e8-0x2e9 (1)
0x2e0|                           c0 84 3d            |         ..=    |                    n: 1000000 0x2e9-0x2ec (3)
     |                                               |                |                  [1]{}: in 0x2ec-0x2ed (1)
0x2e0|                                    0b         |            .   |                    opcode: "end" (0xb) 0x2ec-0x2ed (1)
     |                                               |                |            [27]{}: code 0x2ed-0x2f3 (6)
0x2e0|                                       05      |             .  |              size: 5 (valid) 0x2ed-0x2ee (1)
     |                                               |                |              code{}: 0x2ee-0x2f3 (5)
     |                                               |                |                t{}: 0x2ee-0x2ef (1)
0x2e0|                                          00   |              . |                  n: 0 (valid) 0x2ee-0x2ef (1)
     |                                               |                |                  x[0:0]: 0x2ef-0x2ef (0)
     |                                               |                |                e[0:2]: 0x2ef-0x2f3 (4)
     |                                               |                |                  [0]{}: in 0x2ef-0x2f2 (3)
0x2e0|                                             42|               B|                    opcode: "i64.const" (0x42) 0x2ef-0x2f0 (1)
0x2f0|e8 07                                          |..              |                    n: 1000 0x2f0-0x2f2 (2)
     |                                               |                |                  [1]{}: in 0x2f2-0x2f3 (1)
0x2f0|      0b                                       |  .             |                    opcode: "end" (0xb) 0x2f2-0x2f3 (1)
     |                                               |                |            [28]{}: code 0x2f3-0x2ff (12)
0x2f0|         0b                                    |   .            |              size: 11 (valid) 0x2f3-0x2f4 (1)
     |                                               |                |              code{}: 0x2f4-0x2ff (11)
     |                                               |                |                t{}: 0x2f4-0x2f5 (1)
0x2f0|            00                                 |    .           |                  n: 0 (valid) 0x2f4-0x2f5 (1)
     |                                               |                |                  x[0:0]: 0x2f5-0x2f5 (0)
     |                                               |                |                e[0:2]: 0x2f5-0x2ff (10)
     |                                               |                |                  [0]{}: in 0x2f5-0x2fe (9)
0x2f0|               42                              |     B          |                    opcode: "i64.const" (0x42) 0x2f5-0x2f6 (1)
0x2f0|                  99 b3 82 80 f0 81 bc 05      |      ........  |                    n: 3078696982321561 0x2f6-0x2fe (8)
     |                                               |                |                  [1]{}: in 0x2fe-0x2ff (1)
0x2f0|                                          0b   |              . |                    opcode: "end" (0xb) 0x2fe-0x2ff (1)
     |                                               |                |            [29]{}: code 0x2ff-0x306 (7)
0x2f0|                                             06|               .|              size: 6 (valid) 0x2ff-0x300 (1)
     |                                               |                |              code{}: 0x300-0x306 (6)
     |                                               |                |                t{}: 0x300-0x301 (1)
0x300|00                                             |.               |                  n: 0 (valid) 0x300-0x301 (1)
     |                                               |                |                  x[0:0]: 0x301-0x301 (0)
     |                                               |                |                e[0:2]: 0x301-0x306 (5)
     |                                               |                |                  [0]{}: in 0x301-0x305 (4)
0x300|   42                                          | B              |                    opcode: "i64.const" (0x42) 0x301-0x302 (1)
0x300|      8f d4 06                                 |  ...           |                    n: 109071 0x302-0x305 (3)
     |                                               |                |                  [1]{}: in 0x305-0x306 (1)
0x300|               0b|                             |     .|         |                    opcode: "end" (0xb) 0x305-0x306 (1)
