$ fq -d wasm dv int_exprs-18.wasm
    |00 01 02 03 04 05 06 07 08 09 0a 0b 0c 0d 0e 0f|0123456789abcdef|.{}: int_exprs-18.wasm (wasm) 0x0-0x5e (94)
0x00|00 61 73 6d                                    |.asm            |  magic: raw bits (valid) 0x0-0x4 (4)
0x00|            01 00 00 00                        |    ....        |  version: 1 0x4-0x8 (4)
    |                                               |                |  sections[0:4]: 0x8-0x5e (86)
    |                                               |                |    [0]{}: section 0x8-0x15 (13)
0x00|                        01                     |        .       |      id: "type_section" (1) 0x8-0x9 (1)
0x00|                           0b                  |         .      |      size: 11 (valid) 0x9-0xa (1)
    |                                               |                |      content{}: 0xa-0x15 (11)
    |                                               |                |        ft{}: 0xa-0x15 (11)
0x00|                              02               |          .     |          n: 2 (valid) 0xa-0xb (1)
    |                                               |                |          x[0:2]: 0xb-0x15 (10)
    |                                               |                |            [0]{}: ft 0xb-0x10 (5)
0x00|                                 60            |           `    |              tag: 0x60 (valid) 0xb-0xc (1)
    |                                               |                |              rt1{}: 0xc-0xe (2)
0x00|                                    01         |            .   |                n: 1 (valid) 0xc-0xd (1)
    |                                               |                |                x[0:1]: 0xd-0xe (1)
0x00|                                       7f      |             .  |                  [0]: "i32" (0x7f) t 0xd-0xe (1)
    |                                               |                |              rt2{}: 0xe-0x10 (2)
0x00|                                          01   |              . |                n: 1 (valid) 0xe-0xf (1)
    |                                               |                |                x[0:1]: 0xf-0x10 (1)
0x00|                                             7f|               .|                  [0]: "i32" (0x7f) t 0xf-0x10 (1)
    |                                               |                |            [1]{}: ft 0x10-0x15 (5)
0x10|60                                             |`               |              tag: 0x60 (valid) 0x10-0x11 (1)
    |                                               |                |              rt1{}: 0x11-0x13 (2)
0x10|   01                                          | .              |                n: 1 (valid) 0x11-0x12 (1)
    |                                               |                |                x[0:1]: 0x12-0x13 (1)
0x10|      7e                                       |  ~             |                  [0]: "i64" (0x7e) t 0x12-0x13 (1)
    |                                               |                |              rt2{}: 0x13-0x15 (2)
0x10|         01                                    |   .            |                n: 1 (valid) 0x13-0x14 (1)
    |                                               |                |                x[0:1]: 0x14-0x15 (1)
0x10|            7e                                 |    ~           |                  [0]: "i64" (0x7e) t 0x14-0x15 (1)
    |                                               |                |    [1]{}: section 0x15-0x1a (5)
0x10|               03                              |     .          |      id: "function_section" (3) 0x15-0x16 (1)
0x10|                  03                           |      .         |      size: 3 (valid) 0x16-0x17 (1)
    |                                               |                |      content{}: 0x17-0x1a (3)
    |                                               |                |        x{}: 0x17-0x1a (3)
0x10|                     02                        |       .        |          n: 2 (valid) 0x17-0x18 (1)
    |                                               |                |          x[0:2]: 0x18-0x1a (2)
0x10|                        00                     |        .       |            [0]: 0 x (valid) 0x18-0x19 (1)
0x10|                           01                  |         .      |            [1]: 1 x (valid) 0x19-0x1a (1)
    |                                               |                |    [2]{}: section 0x1a-0x4b (49)
0x10|                              07               |          .     |      id: "export_section" (7) 0x1a-0x1b (1)
0x10|                                 2f            |           /    |      size: 47 (valid) 0x1b-0x1c (1)
    |                                               |                |      content{}: 0x1c-0x4b (47)
    |                                               |                |        ex{}: 0x1c-0x4b (47)
0x10|                                    02         |            .   |          n: 2 (valid) 0x1c-0x1d (1)
    |                                               |                |          x[0:2]: 0x1d-0x4b (46)
    |                                               |                |            [0]{}: ex 0x1d-0x34 (23)
    |                                               |                |              nm{}: 0x1d-0x32 (21)
0x10|                                       14      |             .  |                n: 20 (valid) 0x1d-0x1e (1)
0x10|                                          69 33|              i3|                b: "i32.no_fold_div_neg1" 0x1e-0x32 (20)
0x20|32 2e 6e 6f 5f 66 6f 6c 64 5f 64 69 76 5f 6e 65|2.no_fold_div_ne|
0x30|67 31                                          |g1              |
    |                                               |                |              d{}: 0x32-0x34 (2)
0x30|      00                                       |  .             |                tag: "funcidx" (0x0) 0x32-0x33 (1)
0x30|         00                                    |   .            |                x: 0 (valid) 0x33-0x34 (1)
    |                                               |                |            [1]{}: ex 0x34-0x4b (23)
    |                                               |                |              nm{}: 0x34-0x49 (21)
0x30|            14                                 |    .           |                n: 20 (valid) 0x34-0x35 (1)
0x30|               69 36 34 2e 6e 6f 5f 66 6f 6c 64|     i64.no_fold|                b: "i64.no_fold_div_neg1" 0x35-0x49 (20)
0x40|5f 64 69 76 5f 6e 65 67 31                     |_div_neg1       |
    |                                               |                |              d{}: 0x49-0x4b (2)
0x40|                           00                  |         .      |                tag: "funcidx" (0x0) 0x49-0x4a (1)
0x40|                              01               |          .     |                x: 1 (valid) 0x4a-0x4b (1)
    |                                               |                |    [3]{}: section 0x4b-0x5e (19)
0x40|                                 0a            |           .    |      id: "code_section" (10) 0x4b-0x4c (1)
0x40|                                    11         |            .   |      size: 17 (valid) 0x4c-0x4d (1)
    |                                               |                |      content{}: 0x4d-0x5e (17)
    |                                               |                |        code{}: 0x4d-0x5e (17)
0x40|                                       02      |             .  |          n: 2 (valid) 0x4d-0x4e (1)
    |                                               |                |          x[0:2]: 0x4e-0x5e (16)
    |                                               |                |            [0]{}: code 0x4e-0x56 (8)
0x40|                                          07   |              . |              size: 7 (valid) 0x4e-0x4f (1)
    |                                               |                |              code{}: 0x4f-0x56 (7)
    |                                               |                |                t{}: 0x4f-0x50 (1)
0x40|                                             00|               .|                  n: 0 (valid) 0x4f-0x50 (1)
    |                                               |                |                  x[0:0]: 0x50-0x50 (0)
    |                                               |                |                e[0:4]: 0x50-0x56 (6)
    |                                               |                |                  [0]{}: in 0x50-0x52 (2)
0x50|20                                             |                |                    opcode: "local.get" (0x20) 0x50-0x51 (1)
0x50|   00                                          | .              |                    x: 0 (valid) 0x51-0x52 (1)
    |                                               |                |                  [1]{}: in 0x52-0x54 (2)
0x50|      41                                       |  A             |                    opcode: "i32.const" (0x41) 0x52-0x53 (1)
0x50|         7f                                    |   .            |                    n: -1 (valid) 0x53-0x54 (1)
    |                                               |                |                  [2]{}: in 0x54-0x55 (1)
0x50|            6d                                 |    m           |                    opcode: "i32.div_s" (0x6d) 0x54-0x55 (1)
    |                                               |                |                  [3]{}: in 0x55-0x56 (1)
0x50|               0b                              |     .          |                    opcode: "end" (0xb) 0x55-0x56 (1)
    |                                               |                |            [1]{}: code 0x56-0x5e (8)
0x50|                  07                           |      .         |              size: 7 (valid) 0x56-0x57 (1)
    |                                               |                |              code{}: 0x57-0x5e (7)
    |                                               |                |                t{}: 0x57-0x58 (1)
0x50|                     00                        |       .        |                  n: 0 (valid) 0x57-0x58 (1)
    |                                               |                |                  x[0:0]: 0x58-0x58 (0)
    |                                               |                |                e[0:4]: 0x58-0x5e (6)
    |                                               |                |                  [0]{}: in 0x58-0x5a (2)
0x50|                        20                     |                |                    opcode: "local.get" (0x20) 0x58-0x59 (1)
0x50|                           00                  |         .      |                    x: 0 (valid) 0x59-0x5a (1)
    |                                               |                |                  [1]{}: in 0x5a-0x5c (2)
0x50|                              42               |          B     |                    opcode: "i64.const" (0x42) 0x5a-0x5b (1)
0x50|                                 7f            |           .    |                    n: -1 0x5b-0x5c (1)
    |                                               |                |                  [2]{}: in 0x5c-0x5d (1)
0x50|                                    7f         |            .   |                    opcode: "i64.div_s" (0x7f) 0x5c-0x5d (1)
    |                                               |                |                  [3]{}: in 0x5d-0x5e (1)
0x50|                                       0b|     |             .| |                    opcode: "end" (0xb) 0x5d-0x5e (1)
