$ fq -d wasm dv labels-0.wasm
     |00 01 02 03 04 05 06 07 08 09 0a 0b 0c 0d 0e 0f|0123456789abcdef|.{}: labels-0.wasm (wasm) 0x0-0x3cc (972)
0x000|00 61 73 6d                                    |.asm            |  magic: raw bits (valid) 0x0-0x4 (4)
0x000|            01 00 00 00                        |    ....        |  version: 1 0x4-0x8 (4)
     |                                               |                |  sections[0:4]: 0x8-0x3cc (964)
     |                                               |                |    [0]{}: section 0x8-0x14 (12)
0x000|                        01                     |        .       |      id: "type_section" (1) 0x8-0x9 (1)
0x000|                           0a                  |         .      |      size: 10 (valid) 0x9-0xa (1)
     |                                               |                |      content{}: 0xa-0x14 (10)
     |                                               |                |        ft{}: 0xa-0x14 (10)
0x000|                              02               |          .     |          n: 2 (valid) 0xa-0xb (1)
     |                                               |                |          x[0:2]: 0xb-0x14 (9)
     |                                               |                |            [0]{}: ft 0xb-0xf (4)
0x000|                                 60            |           `    |              tag: 0x60 (valid) 0xb-0xc (1)
     |                                               |                |              rt1{}: 0xc-0xd (1)
0x000|                                    00         |            .   |                n: 0 (valid) 0xc-0xd (1)
     |                                               |                |                x[0:0]: 0xd-0xd (0)
     |                                               |                |              rt2{}: 0xd-0xf (2)
0x000|                                       01      |             .  |                n: 1 (valid) 0xd-0xe (1)
     |                                               |                |                x[0:1]: 0xe-0xf (1)
0x000|                                          7f   |              . |                  [0]: "i32" (0x7f) t 0xe-0xf (1)
     |                                               |                |            [1]{}: ft 0xf-0x14 (5)
0x000|                                             60|               `|              tag: 0x60 (valid) 0xf-0x10 (1)
     |                                               |                |              rt1{}: 0x10-0x12 (2)
0x010|01                                             |.               |                n: 1 (valid) 0x10-0x11 (1)
     |                                               |                |                x[0:1]: 0x11-0x12 (1)
0x010|   7f                                          | .              |                  [0]: "i32" (0x7f) t 0x11-0x12 (1)
     |                                               |                |              rt2{}: 0x12-0x14 (2)
0x010|      01                                       |  .             |                n: 1 (valid) 0x12-0x13 (1)
     |                                               |                |                x[0:1]: 0x13-0x14 (1)
0x010|         7f                                    |   .            |                  [0]: "i32" (0x7f) t 0x13-0x14 (1)
     |                                               |                |    [1]{}: section 0x14-0x29 (21)
0x010|            03                                 |    .           |      id: "function_section" (3) 0x14-0x15 (1)
0x010|               13                              |     .          |      size: 19 (valid) 0x15-0x16 (1)
     |                                               |                |      content{}: 0x16-0x29 (19)
     |                                               |                |        x{}: 0x16-0x29 (19)
0x010|                  12                           |      .         |          n: 18 (valid) 0x16-0x17 (1)
     |                                               |                |          x[0:18]: 0x17-0x29 (18)
0x010|                     00                        |       .        |            [0]: 0 x (valid) 0x17-0x18 (1)
0x010|                        00                     |        .       |            [1]: 0 x (valid) 0x18-0x19 (1)
0x010|                           00                  |         .      |            [2]: 0 x (valid) 0x19-0x1a (1)
0x010|                              00               |          .     |            [3]: 0 x (valid) 0x1a-0x1b (1)
0x010|                                 01            |           .    |            [4]: 1 x (valid) 0x1b-0x1c (1)
0x010|                                    00         |            .   |            [5]: 0 x (valid) 0x1c-0x1d (1)
0x010|                                       00      |             .  |            [6]: 0 x (valid) 0x1d-0x1e (1)
0x010|                                          00   |              . |            [7]: 0 x (valid) 0x1e-0x1f (1)
0x010|                                             00|               .|            [8]: 0 x (valid) 0x1f-0x20 (1)
0x020|01                                             |.               |            [9]: 1 x (valid) 0x20-0x21 (1)
0x020|   01                                          | .              |            [10]: 1 x (valid) 0x21-0x22 (1)
0x020|      00                                       |  .             |            [11]: 0 x (valid) 0x22-0x23 (1)
0x020|         00                                    |   .            |            [12]: 0 x (valid) 0x23-0x24 (1)
0x020|            00                                 |    .           |            [13]: 0 x (valid) 0x24-0x25 (1)
0x020|               00                              |     .          |            [14]: 0 x (valid) 0x25-0x26 (1)
0x020|                  00                           |      .         |            [15]: 0 x (valid) 0x26-0x27 (1)
0x020|                     00                        |       .        |            [16]: 0 x (valid) 0x27-0x28 (1)
0x020|                        00                     |        .       |            [17]: 0 x (valid) 0x28-0x29 (1)
     |                                               |                |    [2]{}: section 0x29-0xc6 (157)
0x020|                           07                  |         .      |      id: "export_section" (7) 0x29-0x2a (1)
0x020|                              9a 01            |          ..    |      size: 154 (valid) 0x2a-0x2c (2)
     |                                               |                |      content{}: 0x2c-0xc6 (154)
     |                                               |                |        ex{}: 0x2c-0xc6 (154)
0x020|                                    12         |            .   |          n: 18 (valid) 0x2c-0x2d (1)
     |                                               |                |          x[0:18]: 0x2d-0xc6 (153)
     |                                               |                |            [0]{}: ex 0x2d-0x35 (8)
     |                                               |                |              nm{}: 0x2d-0x33 (6)
0x020|                                       05      |             .  |                n: 5 (valid) 0x2d-0x2e (1)
0x020|                                          62 6c|              bl|                b: "block" 0x2e-0x33 (5)
0x030|6f 63 6b                                       |ock             |
     |                                               |                |              d{}: 0x33-0x35 (2)
0x030|         00                                    |   .            |                tag: "funcidx" (0x0) 0x33-0x34 (1)
0x030|            00                                 |    .           |                x: 0 (valid) 0x34-0x35 (1)
     |                                               |                |            [1]{}: ex 0x35-0x3d (8)
     |                                               |                |              nm{}: 0x35-0x3b (6)
0x030|               05                              |     .          |                n: 5 (valid) 0x35-0x36 (1)
0x030|                  6c 6f 6f 70 31               |      loop1     |                b: "loop1" 0x36-0x3b (5)
     |                                               |                |              d{}: 0x3b-0x3d (2)
0x030|                                 00            |           .    |                tag: "funcidx" (0x0) 0x3b-0x3c (1)
0x030|                                    01         |            .   |                x: 1 (valid) 0x3c-0x3d (1)
     |                                               |                |            [2]{}: ex 0x3d-0x45 (8)
     |                                               |                |              nm{}: 0x3d-0x43 (6)
0x030|                                       05      |             .  |                n: 5 (valid) 0x3d-0x3e (1)
0x030|                                          6c 6f|              lo|                b: "loop2" 0x3e-0x43 (5)
0x040|6f 70 32                                       |op2             |
     |                                               |                |              d{}: 0x43-0x45 (2)
0x040|         00                                    |   .            |                tag: "funcidx" (0x0) 0x43-0x44 (1)
0x040|            02                                 |    .           |                x: 2 (valid) 0x44-0x45 (1)
     |                                               |                |            [3]{}: ex 0x45-0x4d (8)
     |                                               |                |              nm{}: 0x45-0x4b (6)
0x040|               05                              |     .          |                n: 5 (valid) 0x45-0x46 (1)
0x040|                  6c 6f 6f 70 33               |      loop3     |                b: "loop3" 0x46-0x4b (5)
     |                                               |                |              d{}: 0x4b-0x4d (2)
0x040|                                 00            |           .    |                tag: "funcidx" (0x0) 0x4b-0x4c (1)
0x040|                                    03         |            .   |                x: 3 (valid) 0x4c-0x4d (1)
     |                                               |                |            [4]{}: ex 0x4d-0x55 (8)
     |                                               |                |              nm{}: 0x4d-0x53 (6)
0x040|                                       05      |             .  |                n: 5 (valid) 0x4d-0x4e (1)
0x040|                                          6c 6f|              lo|                b: "loop4" 0x4e-0x53 (5)
0x050|6f 70 34                                       |op4             |
     |                                               |                |              d{}: 0x53-0x55 (2)
0x050|         00                                    |   .            |                tag: "funcidx" (0x0) 0x53-0x54 (1)
0x050|            04                                 |    .           |                x: 4 (valid) 0x54-0x55 (1)
     |                                               |                |            [5]{}: ex 0x55-0x5d (8)
     |                                               |                |              nm{}: 0x55-0x5b (6)
0x050|               05                              |     .          |                n: 5 (valid) 0x55-0x56 (1)
0x050|                  6c 6f 6f 70 35               |      loop5     |                b: "loop5" 0x56-0x5b (5)
     |                                               |                |              d{}: 0x5b-0x5d (2)
0x050|                                 00            |           .    |                tag: "funcidx" (0x0) 0x5b-0x5c (1)
0x050|                                    05         |            .   |                x: 5 (valid) 0x5c-0x5d (1)
     |                                               |                |            [6]{}: ex 0x5d-0x65 (8)
     |                                               |                |              nm{}: 0x5d-0x63 (6)
0x050|                                       05      |             .  |                n: 5 (valid) 0x5d-0x5e (1)
0x050|                                          6c 6f|              lo|                b: "loop6" 0x5e-0x63 (5)
0x060|6f 70 36                                       |op6             |
     |                                               |                |              d{}: 0x63-0x65 (2)
0x060|         00                                    |   .            |                tag: "funcidx" (0x0) 0x63-0x64 (1)
0x060|            06                                 |    .           |                x: 6 (valid) 0x64-0x65 (1)
     |                                               |                |            [7]{}: ex 0x65-0x6a (5)
     |                                               |                |              nm{}: 0x65-0x68 (3)
0x060|               02                              |     .          |                n: 2 (valid) 0x65-0x66 (1)
0x060|                  69 66                        |      if        |                b: "if" 0x66-0x68 (2)
     |                                               |                |              d{}: 0x68-0x6a (2)
0x060|                        00                     |        .       |                tag: "funcidx" (0x0) 0x68-0x69 (1)
0x060|                           07                  |         .      |                x: 7 (valid) 0x69-0x6a (1)
     |                                               |                |            [8]{}: ex 0x6a-0x70 (6)
     |                                               |                |              nm{}: 0x6a-0x6e (4)
0x060|                              03               |          .     |                n: 3 (valid) 0x6a-0x6b (1)
0x060|                                 69 66 32      |           if2  |                b: "if2" 0x6b-0x6e (3)
     |                                               |                |              d{}: 0x6e-0x70 (2)
0x060|                                          00   |              . |                tag: "funcidx" (0x0) 0x6e-0x6f (1)
0x060|                                             08|               .|                x: 8 (valid) 0x6f-0x70 (1)
     |                                               |                |            [9]{}: ex 0x70-0x79 (9)
     |                                               |                |              nm{}: 0x70-0x77 (7)
0x070|06                                             |.               |                n: 6 (valid) 0x70-0x71 (1)
0x070|   73 77 69 74 63 68                           | switch         |                b: "switch" 0x71-0x77 (6)
     |                                               |                |              d{}: 0x77-0x79 (2)
0x070|                     00                        |       .        |                tag: "funcidx" (0x0) 0x77-0x78 (1)
0x070|                        09                     |        .       |                x: 9 (valid) 0x78-0x79 (1)
     |                                               |                |            [10]{}: ex 0x79-0x82 (9)
     |                                               |                |              nm{}: 0x79-0x80 (7)
0x070|                           06                  |         .      |                n: 6 (valid) 0x79-0x7a (1)
0x070|                              72 65 74 75 72 6e|          return|                b: "return" 0x7a-0x80 (6)
     |                                               |                |              d{}: 0x80-0x82 (2)
0x080|00                                             |.               |                tag: "funcidx" (0x0) 0x80-0x81 (1)
0x080|   0a                                          | .              |                x: 10 (valid) 0x81-0x82 (1)
     |                                               |                |            [11]{}: ex 0x82-0x8b (9)
     |                                               |                |              nm{}: 0x82-0x89 (7)
0x080|      06                                       |  .             |                n: 6 (valid) 0x82-0x83 (1)
0x080|         62 72 5f 69 66 30                     |   br_if0       |                b: "br_if0" 0x83-0x89 (6)
     |                                               |                |              d{}: 0x89-0x8b (2)
0x080|                           00                  |         .      |                tag: "funcidx" (0x0) 0x89-0x8a (1)
0x080|                              0b               |          .     |                x: 11 (valid) 0x8a-0x8b (1)
     |                                               |                |            [12]{}: ex 0x8b-0x94 (9)
     |                                               |                |              nm{}: 0x8b-0x92 (7)
0x080|                                 06            |           .    |                n: 6 (valid) 0x8b-0x8c (1)
0x080|                                    62 72 5f 69|            br_i|                b: "br_if1" 0x8c-0x92 (6)
0x090|66 31                                          |f1              |
     |                                               |                |              d{}: 0x92-0x94 (2)
0x090|      00                                       |  .             |                tag: "funcidx" (0x0) 0x92-0x93 (1)
0x090|         0c                                    |   .            |                x: 12 (valid) 0x93-0x94 (1)
     |                                               |                |            [13]{}: ex 0x94-0x9d (9)
     |                                               |                |              nm{}: 0x94-0x9b (7)
0x090|            06                                 |    .           |                n: 6 (valid) 0x94-0x95 (1)
0x090|               62 72 5f 69 66 32               |     br_if2     |                b: "br_if2" 0x95-0x9b (6)
     |                                               |                |              d{}: 0x9b-0x9d (2)
0x090|                                 00            |           .    |                tag: "funcidx" (0x0) 0x9b-0x9c (1)
0x090|                                    0d         |            .   |                x: 13 (valid) 0x9c-0x9d (1)
     |                                               |                |            [14]{}: ex 0x9d-0xa6 (9)
     |                                               |                |              nm{}: 0x9d-0xa4 (7)
0x090|                                       06      |             .  |                n: 6 (valid) 0x9d-0x9e (1)
0x090|                                          62 72|              br|                b: "br_if3" 0x9e-0xa4 (6)
0x0a0|5f 69 66 33                                    |_if3            |
     |                                               |                |              d{}: 0xa4-0xa6 (2)
0x0a0|            00                                 |    .           |                tag: "funcidx" (0x0) 0xa4-0xa5 (1)
0x0a0|               0e                              |     .          |                x: 14 (valid) 0xa5-0xa6 (1)
     |                                               |                |            [15]{}: ex 0xa6-0xab (5)
     |                                               |                |              nm{}: 0xa6-0xa9 (3)
0x0a0|                  02                           |      .         |                n: 2 (valid) 0xa6-0xa7 (1)
0x0a0|                     62 72                     |       br       |                b: "br" 0xa7-0xa9 (2)
     |                                               |                |              d{}: 0xa9-0xab (2)
0x0a0|                           00                  |         .      |                tag: "funcidx" (0x0) 0xa9-0xaa (1)
0x0a0|                              0f               |          .     |                x: 15 (valid) 0xaa-0xab (1)
     |                                               |                |            [16]{}: ex 0xab-0xb7 (12)
     |                                               |                |              nm{}: 0xab-0xb5 (10)
0x0a0|                                 09            |           .    |                n: 9 (valid) 0xab-0xac (1)
0x0a0|                                    73 68 61 64|            shad|                b: "shadowing" 0xac-0xb5 (9)
0x0b0|6f 77 69 6e 67                                 |owing           |
     |                                               |                |              d{}: 0xb5-0xb7 (2)
0x0b0|               00                              |     .          |                tag: "funcidx" (0x0) 0xb5-0xb6 (1)
0x0b0|                  10                           |      .         |                x: 16 (valid) 0xb6-0xb7 (1)
     |                                               |                |            [17]{}: ex 0xb7-0xc6 (15)
     |                                               |                |              nm{}: 0xb7-0xc4 (13)
0x0b0|                     0c                        |       .        |                n: 12 (valid) 0xb7-0xb8 (1)
0x0b0|                        72 65 64 65 66 69 6e 69|        redefini|                b: "redefinition" 0xb8-0xc4 (12)
0x0c0|74 69 6f 6e                                    |tion            |
     |                                               |                |              d{}: 0xc4-0xc6 (2)
0x0c0|            00                                 |    .           |                tag: "funcidx" (0x0) 0xc4-0xc5 (1)
0x0c0|               11                              |     .          |                x: 17 (valid) 0xc5-0xc6 (1)
     |                                               |                |    [3]{}: section 0xc6-0x3cc (774)
0x0c0|                  0a                           |      .         |      id: "code_section" (10) 0xc6-0xc7 (1)
0x0c0|                     83 06                     |       ..       |      size: 771 (valid) 0xc7-0xc9 (2)
     |                                               |                |      content{}: 0xc9-0x3cc (771)
     |                                               |                |        code{}: 0xc9-0x3cc (771)
0x0c0|                           12                  |         .      |          n: 18 (valid) 0xc9-0xca (1)
     |                                               |                |          x[0:18]: 0xca-0x3cc (770)
     |                                               |                |            [0]{}: code 0xca-0xd6 (12)
0x0c0|                              0b               |          .     |              size: 11 (valid) 0xca-0xcb (1)
     |                                               |                |              code{}: 0xcb-0xd6 (11)
     |                                               |                |                t{}: 0xcb-0xcc (1)
0x0c0|                                 00            |           .    |                  n: 0 (valid) 0xcb-0xcc (1)
     |                                               |                |                  x[0:0]: 0xcc-0xcc (0)
     |                                               |                |                e[0:2]: 0xcc-0xd6 (10)
     |                                               |                |                  [0]{}: in 0xcc-0xd5 (9)
0x0c0|                                    02         |            .   |                    opcode: "block" (0x2) 0xcc-0xcd (1)
0x0c0|                                       7f      |             .  |                    bt: "i32" (127) 0xcd-0xce (1)
     |                                               |                |                    instructions[0:3]: 0xce-0xd4 (6)
     |                                               |                |                      [0]{}: instr 0xce-0xd0 (2)
0x0c0|                                          41   |              A |                        opcode: "i32.const" (0x41) 0xce-0xcf (1)
0x0c0|                                             01|               .|                        n: 1 (valid) 0xcf-0xd0 (1)
     |                                               |                |                      [1]{}: instr 0xd0-0xd2 (2)
0x0d0|0c                                             |.               |                        opcode: "br" (0xc) 0xd0-0xd1 (1)
0x0d0|   00                                          | .              |                        l: 0 (valid) 0xd1-0xd2 (1)
     |                                               |                |                      [2]{}: instr 0xd2-0xd4 (2)
0x0d0|      41                                       |  A             |                        opcode: "i32.const" (0x41) 0xd2-0xd3 (1)
0x0d0|         00                                    |   .            |                        n: 0 (valid) 0xd3-0xd4 (1)
0x0d0|            0b                                 |    .           |                    end: 0xb (valid) 0xd4-0xd5 (1)
     |                                               |                |                  [1]{}: in 0xd5-0xd6 (1)
0x0d0|               0b                              |     .          |                    opcode: "end" (0xb) 0xd5-0xd6 (1)
     |                                               |                |            [1]{}: code 0xd6-0xfa (36)
0x0d0|                  23                           |      #         |              size: 35 (valid) 0xd6-0xd7 (1)
     |                                               |                |              code{}: 0xd7-0xfa (35)
     |                                               |                |                t{}: 0xd7-0xda (3)
0x0d0|                     01                        |       .        |                  n: 1 (valid) 0xd7-0xd8 (1)
     |                                               |                |                  x[0:1]: 0xd8-0xda (2)
     |                                               |                |                    [0]{}: t 0xd8-0xda (2)
0x0d0|                        01                     |        .       |                      n: 1 (valid) 0xd8-0xd9 (1)
0x0d0|                           7f                  |         .      |                      t: "i32" (0x7f) 0xd9-0xda (1)
     |                                               |                |                e[0:4]: 0xda-0xfa (32)
     |                                               |                |                  [0]{}: in 0xda-0xdc (2)
0x0d0|                              41               |          A     |                    opcode: "i32.const" (0x41) 0xda-0xdb (1)
0x0d0|                                 00            |           .    |                    n: 0 (valid) 0xdb-0xdc (1)
     |                                               |                |                  [1]{}: in 0xdc-0xde (2)
0x0d0|                                    21         |            !   |                    opcode: "local.set" (0x21) 0xdc-0xdd (1)
0x0d0|                                       00      |             .  |                    x: 0 (valid) 0xdd-0xde (1)
     |                                               |                |                  [2]{}: in 0xde-0xf9 (27)
0x0d0|                                          02   |              . |                    opcode: "block" (0x2) 0xde-0xdf (1)
0x0d0|                                             7f|               .|                    bt: "i32" (127) 0xdf-0xe0 (1)
     |                                               |                |                    instructions[0:1]: 0xe0-0xf8 (24)
     |                                               |                |                      [0]{}: instr 0xe0-0xf8 (24)
0x0e0|03                                             |.               |                        opcode: "loop" (0x3) 0xe0-0xe1 (1)
0x0e0|   7f                                          | .              |                        bt: "i32" (127) 0xe1-0xe2 (1)
     |                                               |                |                        instructions[0:9]: 0xe2-0xf7 (21)
     |                                               |                |                          [0]{}: instr 0xe2-0xe4 (2)
0x0e0|      20                                       |                |                            opcode: "local.get" (0x20) 0xe2-0xe3 (1)
0x0e0|         00                                    |   .            |                            x: 0 (valid) 0xe3-0xe4 (1)
     |                                               |                |                          [1]{}: instr 0xe4-0xe6 (2)
0x0e0|            41                                 |    A           |                            opcode: "i32.const" (0x41) 0xe4-0xe5 (1)
0x0e0|               01                              |     .          |                            n: 1 (valid) 0xe5-0xe6 (1)
     |                                               |                |                          [2]{}: instr 0xe6-0xe7 (1)
0x0e0|                  6a                           |      j         |                            opcode: "i32.add" (0x6a) 0xe6-0xe7 (1)
     |                                               |                |                          [3]{}: instr 0xe7-0xe9 (2)
0x0e0|                     21                        |       !        |                            opcode: "local.set" (0x21) 0xe7-0xe8 (1)
0x0e0|                        00                     |        .       |                            x: 0 (valid) 0xe8-0xe9 (1)
     |                                               |                |                          [4]{}: instr 0xe9-0xeb (2)
0x0e0|                           20                  |                |                            opcode: "local.get" (0x20) 0xe9-0xea (1)
0x0e0|                              00               |          .     |                            x: 0 (valid) 0xea-0xeb (1)
     |                                               |                |                          [5]{}: instr 0xeb-0xed (2)
0x0e0|                                 41            |           A    |                            opcode: "i32.const" (0x41) 0xeb-0xec (1)
0x0e0|                                    05         |            .   |                            n: 5 (valid) 0xec-0xed (1)
     |                                               |                |                          [6]{}: instr 0xed-0xee (1)
0x0e0|                                       46      |             F  |                            opcode: "i32.eq" (0x46) 0xed-0xee (1)
     |                                               |                |                          [7]{}: instr 0xee-0xf5 (7)
0x0e0|                                          04   |              . |                            opcode: "if" (0x4) 0xee-0xef (1)
0x0e0|                                             40|               @|                            bt: "ε" (64) 0xef-0xf0 (1)
     |                                               |                |                            in1[0:2]: 0xf0-0xf4 (4)
     |                                               |                |                              [0]{}: instr 0xf0-0xf2 (2)
0x0f0|20                                             |                |                                opcode: "local.get" (0x20) 0xf0-0xf1 (1)
0x0f0|   00                                          | .              |                                x: 0 (valid) 0xf1-0xf2 (1)
     |                                               |                |                              [1]{}: instr 0xf2-0xf4 (2)
0x0f0|      0c                                       |  .             |                                opcode: "br" (0xc) 0xf2-0xf3 (1)
0x0f0|         02                                    |   .            |                                l: 2 (valid) 0xf3-0xf4 (1)
0x0f0|            0b                                 |    .           |                            end: 0xb (valid) 0xf4-0xf5 (1)
     |                                               |                |                          [8]{}: instr 0xf5-0xf7 (2)
0x0f0|               0c                              |     .          |                            opcode: "br" (0xc) 0xf5-0xf6 (1)
0x0f0|                  00                           |      .         |                            l: 0 (valid) 0xf6-0xf7 (1)
0x0f0|                     0b                        |       .        |                        end: 0xb (valid) 0xf7-0xf8 (1)
0x0f0|                        0b                     |        .       |                    end: 0xb (valid) 0xf8-0xf9 (1)
     |                                               |                |                  [3]{}: in 0xf9-0xfa (1)
0x0f0|                           0b                  |         .      |                    opcode: "end" (0xb) 0xf9-0xfa (1)
     |                                               |                |            [2]{}: code 0xfa-0x12f (53)
0x0f0|                              34               |          4     |              size: 52 (valid) 0xfa-0xfb (1)
     |                                               |                |              code{}: 0xfb-0x12f (52)
     |                                               |                |                t{}: 0xfb-0xfe (3)
0x0f0|                                 01            |           .    |                  n: 1 (valid) 0xfb-0xfc (1)
     |                                               |                |                  x[0:1]: 0xfc-0xfe (2)
     |                                               |                |                    [0]{}: t 0xfc-0xfe (2)
0x0f0|                                    01         |            .   |                      n: 1 (valid) 0xfc-0xfd (1)
0x0f0|                                       7f      |             .  |                      t: "i32" (0x7f) 0xfd-0xfe (1)
     |                                               |                |                e[0:4]: 0xfe-0x12f (49)
     |                                               |                |                  [0]{}: in 0xfe-0x100 (2)
0x0f0|                                          41   |              A |                    opcode: "i32.const" (0x41) 0xfe-0xff (1)
0x0f0|                                             00|               .|                    n: 0 (valid) 0xff-0x100 (1)
     |                                               |                |                  [1]{}: in 0x100-0x102 (2)
0x100|21                                             |!               |                    opcode: "local.set" (0x21) 0x100-0x101 (1)
0x100|   00                                          | .              |                    x: 0 (valid) 0x101-0x102 (1)
     |                                               |                |                  [2]{}: in 0x102-0x12e (44)
0x100|      02                                       |  .             |                    opcode: "block" (0x2) 0x102-0x103 (1)
0x100|         7f                                    |   .            |                    bt: "i32" (127) 0x103-0x104 (1)
     |                                               |                |                    instructions[0:1]: 0x104-0x12d (41)
     |                                               |                |                      [0]{}: instr 0x104-0x12d (41)
0x100|            03                                 |    .           |                        opcode: "loop" (0x3) 0x104-0x105 (1)
0x100|               7f                              |     .          |                        bt: "i32" (127) 0x105-0x106 (1)
     |                                               |                |                        instructions[0:17]: 0x106-0x12c (38)
     |                                               |                |                          [0]{}: instr 0x106-0x108 (2)
0x100|                  20                           |                |                            opcode: "local.get" (0x20) 0x106-0x107 (1)
0x100|                     00                        |       .        |                            x: 0 (valid) 0x107-0x108 (1)
     |                                               |                |                          [1]{}: instr 0x108-0x10a (2)
0x100|                        41                     |        A       |                            opcode: "i32.const" (0x41) 0x108-0x109 (1)
0x100|                           01                  |         .      |                            n: 1 (valid) 0x109-0x10a (1)
     |                                               |                |                          [2]{}: instr 0x10a-0x10b (1)
0x100|                              6a               |          j     |                            opcode: "i32.add" (0x6a) 0x10a-0x10b (1)
     |                                               |                |                          [3]{}: instr 0x10b-0x10d (2)
0x100|                                 21            |           !    |                            opcode: "local.set" (0x21) 0x10b-0x10c (1)
0x100|                                    00         |            .   |                            x: 0 (valid) 0x10c-0x10d (1)
     |                                               |                |                          [4]{}: instr 0x10d-0x10f (2)
0x100|                                       20      |                |                            opcode: "local.get" (0x20) 0x10d-0x10e (1)
0x100|                                          00   |              . |                            x: 0 (valid) 0x10e-0x10f (1)
     |                                               |                |                          [5]{}: instr 0x10f-0x111 (2)
0x100|                                             41|               A|                            opcode: "i32.const" (0x41) 0x10f-0x110 (1)
0x110|05                                             |.               |                            n: 5 (valid) 0x110-0x111 (1)
     |                                               |                |                          [6]{}: instr 0x111-0x112 (1)
0x110|   46                                          | F              |                            opcode: "i32.eq" (0x46) 0x111-0x112 (1)
     |                                               |                |                          [7]{}: instr 0x112-0x117 (5)
0x110|      04                                       |  .             |                            opcode: "if" (0x4) 0x112-0x113 (1)
0x110|         40                                    |   @            |                            bt: "ε" (64) 0x113-0x114 (1)
     |                                               |                |                            in1[0:1]: 0x114-0x116 (2)
     |                                               |                |                              [0]{}: instr 0x114-0x116 (2)
0x110|            0c                                 |    .           |                                opcode: "br" (0xc) 0x114-0x115 (1)
0x110|               01                              |     .          |                                l: 1 (valid) 0x115-0x116 (1)
0x110|                  0b                           |      .         |                            end: 0xb (valid) 0x116-0x117 (1)
     |                                               |                |                          [8]{}: instr 0x117-0x119 (2)
0x110|                     20                        |                |                            opcode: "local.get" (0x20) 0x117-0x118 (1)
0x110|                        00                     |        .       |                            x: 0 (valid) 0x118-0x119 (1)
     |                                               |                |                          [9]{}: instr 0x119-0x11b (2)
0x110|                           41                  |         A      |                            opcode: "i32.const" (0x41) 0x119-0x11a (1)
0x110|                              08               |          .     |                            n: 8 (valid) 0x11a-0x11b (1)
     |                                               |                |                          [10]{}: instr 0x11b-0x11c (1)
0x110|                                 46            |           F    |                            opcode: "i32.eq" (0x46) 0x11b-0x11c (1)
     |                                               |                |                          [11]{}: instr 0x11c-0x123 (7)
0x110|                                    04         |            .   |                            opcode: "if" (0x4) 0x11c-0x11d (1)
0x110|                                       40      |             @  |                            bt: "ε" (64) 0x11d-0x11e (1)
     |                                               |                |                            in1[0:2]: 0x11e-0x122 (4)
     |                                               |                |                              [0]{}: instr 0x11e-0x120 (2)
0x110|                                          20   |                |                                opcode: "local.get" (0x20) 0x11e-0x11f (1)
0x110|                                             00|               .|                                x: 0 (valid) 0x11f-0x120 (1)
     |                                               |                |                              [1]{}: instr 0x120-0x122 (2)
0x120|0c                                             |.               |                                opcode: "br" (0xc) 0x120-0x121 (1)
0x120|   02                                          | .              |                                l: 2 (valid) 0x121-0x122 (1)
0x120|      0b                                       |  .             |                            end: 0xb (valid) 0x122-0x123 (1)
     |                                               |                |                          [12]{}: instr 0x123-0x125 (2)
0x120|         20                                    |                |                            opcode: "local.get" (0x20) 0x123-0x124 (1)
0x120|            00                                 |    .           |                            x: 0 (valid) 0x124-0x125 (1)
     |                                               |                |                          [13]{}: instr 0x125-0x127 (2)
0x120|               41                              |     A          |                            opcode: "i32.const" (0x41) 0x125-0x126 (1)
0x120|                  01                           |      .         |                            n: 1 (valid) 0x126-0x127 (1)
     |                                               |                |                          [14]{}: instr 0x127-0x128 (1)
0x120|                     6a                        |       j        |                            opcode: "i32.add" (0x6a) 0x127-0x128 (1)
     |                                               |                |                          [15]{}: instr 0x128-0x12a (2)
0x120|                        21                     |        !       |                            opcode: "local.set" (0x21) 0x128-0x129 (1)
0x120|                           00                  |         .      |                            x: 0 (valid) 0x129-0x12a (1)
     |                                               |                |                          [16]{}: instr 0x12a-0x12c (2)
0x120|                              0c               |          .     |                            opcode: "br" (0xc) 0x12a-0x12b (1)
0x120|                                 00            |           .    |                            l: 0 (valid) 0x12b-0x12c (1)
0x120|                                    0b         |            .   |                        end: 0xb (valid) 0x12c-0x12d (1)
0x120|                                       0b      |             .  |                    end: 0xb (valid) 0x12d-0x12e (1)
     |                                               |                |                  [3]{}: in 0x12e-0x12f (1)
0x120|                                          0b   |              . |                    opcode: "end" (0xb) 0x12e-0x12f (1)
     |                                               |                |            [3]{}: code 0x12f-0x153 (36)
0x120|                                             23|               #|              size: 35 (valid) 0x12f-0x130 (1)
     |                                               |                |              code{}: 0x130-0x153 (35)
     |                                               |                |                t{}: 0x130-0x133 (3)
0x130|01                                             |.               |                  n: 1 (valid) 0x130-0x131 (1)
     |                                               |                |                  x[0:1]: 0x131-0x133 (2)
     |                                               |                |                    [0]{}: t 0x131-0x133 (2)
0x130|   01                                          | .              |                      n: 1 (valid) 0x131-0x132 (1)
0x130|      7f                                       |  .             |                      t: "i32" (0x7f) 0x132-0x133 (1)
     |                                               |                |                e[0:4]: 0x133-0x153 (32)
     |                                               |                |                  [0]{}: in 0x133-0x135 (2)
0x130|         41                                    |   A            |                    opcode: "i32.const" (0x41) 0x133-0x134 (1)
0x130|            00                                 |    .           |                    n: 0 (valid) 0x134-0x135 (1)
     |                                               |                |                  [1]{}: in 0x135-0x137 (2)
0x130|               21                              |     !          |                    opcode: "local.set" (0x21) 0x135-0x136 (1)
0x130|                  00                           |      .         |                    x: 0 (valid) 0x136-0x137 (1)
     |                                               |                |                  [2]{}: in 0x137-0x152 (27)
0x130|                     02                        |       .        |                    opcode: "block" (0x2) 0x137-0x138 (1)
0x130|                        7f                     |        .       |                    bt: "i32" (127) 0x138-0x139 (1)
     |                                               |                |                    instructions[0:1]: 0x139-0x151 (24)
     |                                               |                |                      [0]{}: instr 0x139-0x151 (24)
0x130|                           03                  |         .      |                        opcode: "loop" (0x3) 0x139-0x13a (1)
0x130|                              7f               |          .     |                        bt: "i32" (127) 0x13a-0x13b (1)
     |                                               |                |                        instructions[0:9]: 0x13b-0x150 (21)
     |                                               |                |                          [0]{}: instr 0x13b-0x13d (2)
0x130|                                 20            |                |                            opcode: "local.get" (0x20) 0x13b-0x13c (1)
0x130|                                    00         |            .   |                            x: 0 (valid) 0x13c-0x13d (1)
     |                                               |                |                          [1]{}: instr 0x13d-0x13f (2)
0x130|                                       41      |             A  |                            opcode: "i32.const" (0x41) 0x13d-0x13e (1)
0x130|                                          01   |              . |                            n: 1 (valid) 0x13e-0x13f (1)
     |                                               |                |                          [2]{}: instr 0x13f-0x140 (1)
0x130|                                             6a|               j|                            opcode: "i32.add" (0x6a) 0x13f-0x140 (1)
     |                                               |                |                          [3]{}: instr 0x140-0x142 (2)
0x140|21                                             |!               |                            opcode: "local.set" (0x21) 0x140-0x141 (1)
0x140|   00                                          | .              |                            x: 0 (valid) 0x141-0x142 (1)
     |                                               |                |                          [4]{}: instr 0x142-0x144 (2)
0x140|      20                                       |                |                            opcode: "local.get" (0x20) 0x142-0x143 (1)
0x140|         00                                    |   .            |                            x: 0 (valid) 0x143-0x144 (1)
     |                                               |                |                          [5]{}: instr 0x144-0x146 (2)
0x140|            41                                 |    A           |                            opcode: "i32.const" (0x41) 0x144-0x145 (1)
0x140|               05                              |     .          |                            n: 5 (valid) 0x145-0x146 (1)
     |                                               |                |                          [6]{}: instr 0x146-0x147 (1)
0x140|                  46                           |      F         |                            opcode: "i32.eq" (0x46) 0x146-0x147 (1)
     |                                               |                |                          [7]{}: instr 0x147-0x14e (7)
0x140|                     04                        |       .        |                            opcode: "if" (0x4) 0x147-0x148 (1)
0x140|                        40                     |        @       |                            bt: "ε" (64) 0x148-0x149 (1)
     |                                               |                |                            in1[0:2]: 0x149-0x14d (4)
     |                                               |                |                              [0]{}: instr 0x149-0x14b (2)
0x140|                           20                  |                |                                opcode: "local.get" (0x20) 0x149-0x14a (1)
0x140|                              00               |          .     |                                x: 0 (valid) 0x14a-0x14b (1)
     |                                               |                |                              [1]{}: instr 0x14b-0x14d (2)
0x140|                                 0c            |           .    |                                opcode: "br" (0xc) 0x14b-0x14c (1)
0x140|                                    02         |            .   |                                l: 2 (valid) 0x14c-0x14d (1)
0x140|                                       0b      |             .  |                            end: 0xb (valid) 0x14d-0x14e (1)
     |                                               |                |                          [8]{}: instr 0x14e-0x150 (2)
0x140|                                          20   |                |                            opcode: "local.get" (0x20) 0x14e-0x14f (1)
0x140|                                             00|               .|                            x: 0 (valid) 0x14f-0x150 (1)
0x150|0b                                             |.               |                        end: 0xb (valid) 0x150-0x151 (1)
0x150|   0b                                          | .              |                    end: 0xb (valid) 0x151-0x152 (1)
     |                                               |                |                  [3]{}: in 0x152-0x153 (1)
0x150|      0b                                       |  .             |                    opcode: "end" (0xb) 0x152-0x153 (1)
     |                                               |                |            [4]{}: code 0x153-0x177 (36)
0x150|         23                                    |   #            |              size: 35 (valid) 0x153-0x154 (1)
     |                                               |                |              code{}: 0x154-0x177 (35)
     |                                               |                |                t{}: 0x154-0x157 (3)
0x150|            01                                 |    .           |                  n: 1 (valid) 0x154-0x155 (1)
     |                                               |                |                  x[0:1]: 0x155-0x157 (2)
     |                                               |                |                    [0]{}: t 0x155-0x157 (2)
0x150|               01                              |     .          |                      n: 1 (valid) 0x155-0x156 (1)
0x150|                  7f                           |      .         |                      t: "i32" (0x7f) 0x156-0x157 (1)
     |                                               |                |                e[0:4]: 0x157-0x177 (32)
     |                                               |                |                  [0]{}: in 0x157-0x159 (2)
0x150|                     41                        |       A        |                    opcode: "i32.const" (0x41) 0x157-0x158 (1)
0x150|                        01                     |        .       |                    n: 1 (valid) 0x158-0x159 (1)
     |                                               |                |                  [1]{}: in 0x159-0x15b (2)
0x150|                           21                  |         !      |                    opcode: "local.set" (0x21) 0x159-0x15a (1)
0x150|                              01               |          .     |                    x: 1 (valid) 0x15a-0x15b (1)
     |                                               |                |                  [2]{}: in 0x15b-0x176 (27)
0x150|                                 02            |           .    |                    opcode: "block" (0x2) 0x15b-0x15c (1)
0x150|                                    7f         |            .   |                    bt: "i32" (127) 0x15c-0x15d (1)
     |                                               |                |                    instructions[0:1]: 0x15d-0x175 (24)
     |                                               |                |                      [0]{}: instr 0x15d-0x175 (24)
0x150|                                       03      |             .  |                        opcode: "loop" (0x3) 0x15d-0x15e (1)
0x150|                                          7f   |              . |                        bt: "i32" (127) 0x15e-0x15f (1)
     |                                               |                |                        instructions[0:9]: 0x15f-0x174 (21)
     |                                               |                |                          [0]{}: instr 0x15f-0x161 (2)
0x150|                                             20|                |                            opcode: "local.get" (0x20) 0x15f-0x160 (1)
0x160|01                                             |.               |                            x: 1 (valid) 0x160-0x161 (1)
     |                                               |                |                          [1]{}: instr 0x161-0x163 (2)
0x160|   20                                          |                |                            opcode: "local.get" (0x20) 0x161-0x162 (1)
0x160|      01                                       |  .             |                            x: 1 (valid) 0x162-0x163 (1)
     |                                               |                |                          [2]{}: instr 0x163-0x164 (1)
0x160|         6a                                    |   j            |                            opcode: "i32.add" (0x6a) 0x163-0x164 (1)
     |                                               |                |                          [3]{}: instr 0x164-0x166 (2)
0x160|            21                                 |    !           |                            opcode: "local.set" (0x21) 0x164-0x165 (1)
0x160|               01                              |     .          |                            x: 1 (valid) 0x165-0x166 (1)
     |                                               |                |                          [4]{}: instr 0x166-0x168 (2)
0x160|                  20                           |                |                            opcode: "local.get" (0x20) 0x166-0x167 (1)
0x160|                     01                        |       .        |                            x: 1 (valid) 0x167-0x168 (1)
     |                                               |                |                          [5]{}: instr 0x168-0x16a (2)
0x160|                        20                     |                |                            opcode: "local.get" (0x20) 0x168-0x169 (1)
0x160|                           00                  |         .      |                            x: 0 (valid) 0x169-0x16a (1)
     |                                               |                |                          [6]{}: instr 0x16a-0x16b (1)
0x160|                              4b               |          K     |                            opcode: "i32.gt_u" (0x4b) 0x16a-0x16b (1)
     |                                               |                |                          [7]{}: instr 0x16b-0x172 (7)
0x160|                                 04            |           .    |                            opcode: "if" (0x4) 0x16b-0x16c (1)
0x160|                                    40         |            @   |                            bt: "ε" (64) 0x16c-0x16d (1)
     |                                               |                |                            in1[0:2]: 0x16d-0x171 (4)
     |                                               |                |                              [0]{}: instr 0x16d-0x16f (2)
0x160|                                       20      |                |                                opcode: "local.get" (0x20) 0x16d-0x16e (1)
0x160|                                          01   |              . |                                x: 1 (valid) 0x16e-0x16f (1)
     |                                               |                |                              [1]{}: instr 0x16f-0x171 (2)
0x160|                                             0c|               .|                                opcode: "br" (0xc) 0x16f-0x170 (1)
0x170|02                                             |.               |                                l: 2 (valid) 0x170-0x171 (1)
0x170|   0b                                          | .              |                            end: 0xb (valid) 0x171-0x172 (1)
     |                                               |                |                          [8]{}: instr 0x172-0x174 (2)
0x170|      0c                                       |  .             |                            opcode: "br" (0xc) 0x172-0x173 (1)
0x170|         00                                    |   .            |                            l: 0 (valid) 0x173-0x174 (1)
0x170|            0b                                 |    .           |                        end: 0xb (valid) 0x174-0x175 (1)
0x170|               0b                              |     .          |                    end: 0xb (valid) 0x175-0x176 (1)
     |                                               |                |                  [3]{}: in 0x176-0x177 (1)
0x170|                  0b                           |      .         |                    opcode: "end" (0xb) 0x176-0x177 (1)
     |                                               |                |            [5]{}: code 0x177-0x182 (11)
0x170|                     0a                        |       .        |              size: 10 (valid) 0x177-0x178 (1)
     |                                               |                |              code{}: 0x178-0x182 (10)
     |                                               |                |                t{}: 0x178-0x179 (1)
0x170|                        00                     |        .       |                  n: 0 (valid) 0x178-0x179 (1)
     |                                               |                |                  x[0:0]: 0x179-0x179 (0)
     |                                               |                |                e[0:4]: 0x179-0x182 (9)
     |                                               |                |                  [0]{}: in 0x179-0x17e (5)
0x170|                           03                  |         .      |                    opcode: "loop" (0x3) 0x179-0x17a (1)
0x170|                              7f               |          .     |                    bt: "i32" (127) 0x17a-0x17b (1)
     |                                               |                |                    instructions[0:1]: 0x17b-0x17d (2)
     |                                               |                |                      [0]{}: instr 0x17b-0x17d (2)
0x170|                                 41            |           A    |                        opcode: "i32.const" (0x41) 0x17b-0x17c (1)
0x170|                                    01         |            .   |                        n: 1 (valid) 0x17c-0x17d (1)
0x170|                                       0b      |             .  |                    end: 0xb (valid) 0x17d-0x17e (1)
     |                                               |                |                  [1]{}: in 0x17e-0x180 (2)
0x170|                                          41   |              A |                    opcode: "i32.const" (0x41) 0x17e-0x17f (1)
0x170|                                             01|               .|                    n: 1 (valid) 0x17f-0x180 (1)
     |                                               |                |                  [2]{}: in 0x180-0x181 (1)
0x180|6a                                             |j               |                    opcode: "i32.add" (0x6a) 0x180-0x181 (1)
     |                                               |                |                  [3]{}: in 0x181-0x182 (1)
0x180|   0b                                          | .              |                    opcode: "end" (0xb) 0x181-0x182 (1)
     |                                               |                |            [6]{}: code 0x182-0x18e (12)
0x180|      0b                                       |  .             |              size: 11 (valid) 0x182-0x183 (1)
     |                                               |                |              code{}: 0x183-0x18e (11)
     |                                               |                |                t{}: 0x183-0x184 (1)
0x180|         00                                    |   .            |                  n: 0 (valid) 0x183-0x184 (1)
     |                                               |                |                  x[0:0]: 0x184-0x184 (0)
     |                                               |                |                e[0:2]: 0x184-0x18e (10)
     |                                               |                |                  [0]{}: in 0x184-0x18d (9)
0x180|            03                                 |    .           |                    opcode: "loop" (0x3) 0x184-0x185 (1)
0x180|               7f                              |     .          |                    bt: "i32" (127) 0x185-0x186 (1)
     |                                               |                |                    instructions[0:3]: 0x186-0x18c (6)
     |                                               |                |                      [0]{}: instr 0x186-0x188 (2)
0x180|                  41                           |      A         |                        opcode: "i32.const" (0x41) 0x186-0x187 (1)
0x180|                     00                        |       .        |                        n: 0 (valid) 0x187-0x188 (1)
     |                                               |                |                      [1]{}: instr 0x188-0x18a (2)
0x180|                        0d                     |        .       |                        opcode: "br_if" (0xd) 0x188-0x189 (1)
0x180|                           00                  |         .      |                        l: 0 (valid) 0x189-0x18a (1)
     |                                               |                |                      [2]{}: instr 0x18a-0x18c (2)
0x180|                              41               |          A     |                        opcode: "i32.const" (0x41) 0x18a-0x18b (1)
0x180|                                 03            |           .    |                        n: 3 (valid) 0x18b-0x18c (1)
0x180|                                    0b         |            .   |                    end: 0xb (valid) 0x18c-0x18d (1)
     |                                               |                |                  [1]{}: in 0x18d-0x18e (1)
0x180|                                       0b      |             .  |                    opcode: "end" (0xb) 0x18d-0x18e (1)
     |                                               |                |            [7]{}: code 0x18e-0x214 (134)
0x180|                                          84 01|              ..|              size: 132 (valid) 0x18e-0x190 (2)
     |                                               |                |              code{}: 0x190-0x214 (132)
     |                                               |                |                t{}: 0x190-0x193 (3)
0x190|01                                             |.               |                  n: 1 (valid) 0x190-0x191 (1)
     |                                               |                |                  x[0:1]: 0x191-0x193 (2)
     |                                               |                |                    [0]{}: t 0x191-0x193 (2)
0x190|   01                                          | .              |                      n: 1 (valid) 0x191-0x192 (1)
0x190|      7f                                       |  .             |                      t: "i32" (0x7f) 0x192-0x193 (1)
     |                                               |                |                e[0:5]: 0x193-0x214 (129)
     |                                               |                |                  [0]{}: in 0x193-0x195 (2)
0x190|         41                                    |   A            |                    opcode: "i32.const" (0x41) 0x193-0x194 (1)
0x190|            00                                 |    .           |                    n: 0 (valid) 0x194-0x195 (1)
     |                                               |                |                  [1]{}: in 0x195-0x197 (2)
0x190|               21                              |     !          |                    opcode: "local.set" (0x21) 0x195-0x196 (1)
0x190|                  00                           |      .         |                    x: 0 (valid) 0x196-0x197 (1)
     |                                               |                |                  [2]{}: in 0x197-0x211 (122)
0x190|                     02                        |       .        |                    opcode: "block" (0x2) 0x197-0x198 (1)
0x190|                        40                     |        @       |                    bt: "ε" (64) 0x198-0x199 (1)
     |                                               |                |                    instructions[0:30]: 0x199-0x210 (119)
     |                                               |                |                      [0]{}: instr 0x199-0x19b (2)
0x190|                           41                  |         A      |                        opcode: "i32.const" (0x41) 0x199-0x19a (1)
0x190|                              01               |          .     |                        n: 1 (valid) 0x19a-0x19b (1)
     |                                               |                |                      [1]{}: instr 0x19b-0x1a5 (10)
0x190|                                 04            |           .    |                        opcode: "if" (0x4) 0x19b-0x19c (1)
0x190|                                    40         |            @   |                        bt: "ε" (64) 0x19c-0x19d (1)
     |                                               |                |                        in1[0:3]: 0x19d-0x1a4 (7)
     |                                               |                |                          [0]{}: instr 0x19d-0x19f (2)
0x190|                                       0c      |             .  |                            opcode: "br" (0xc) 0x19d-0x19e (1)
0x190|                                          00   |              . |                            l: 0 (valid) 0x19e-0x19f (1)
     |                                               |                |                          [1]{}: instr 0x19f-0x1a2 (3)
0x190|                                             41|               A|                            opcode: "i32.const" (0x41) 0x19f-0x1a0 (1)
0x1a0|9a 05                                          |..              |                            n: 666 (valid) 0x1a0-0x1a2 (2)
     |                                               |                |                          [2]{}: instr 0x1a2-0x1a4 (2)
0x1a0|      21                                       |  !             |                            opcode: "local.set" (0x21) 0x1a2-0x1a3 (1)
0x1a0|         00                                    |   .            |                            x: 0 (valid) 0x1a3-0x1a4 (1)
0x1a0|            0b                                 |    .           |                        end: 0xb (valid) 0x1a4-0x1a5 (1)
     |                                               |                |                      [2]{}: instr 0x1a5-0x1a7 (2)
0x1a0|               20                              |                |                        opcode: "local.get" (0x20) 0x1a5-0x1a6 (1)
0x1a0|                  00                           |      .         |                        x: 0 (valid) 0x1a6-0x1a7 (1)
     |                                               |                |                      [3]{}: instr 0x1a7-0x1a9 (2)
0x1a0|                     41                        |       A        |                        opcode: "i32.const" (0x41) 0x1a7-0x1a8 (1)
0x1a0|                        01                     |        .       |                        n: 1 (valid) 0x1a8-0x1a9 (1)
     |                                               |                |                      [4]{}: instr 0x1a9-0x1aa (1)
0x1a0|                           6a                  |         j      |                        opcode: "i32.add" (0x6a) 0x1a9-0x1aa (1)
     |                                               |                |                      [5]{}: instr 0x1aa-0x1ac (2)
0x1a0|                              21               |          !     |                        opcode: "local.set" (0x21) 0x1aa-0x1ab (1)
0x1a0|                                 00            |           .    |                        x: 0 (valid) 0x1ab-0x1ac (1)
     |                                               |                |                      [6]{}: instr 0x1ac-0x1ae (2)
0x1a0|                                    41         |            A   |                        opcode: "i32.const" (0x41) 0x1ac-0x1ad (1)
0x1a0|                                       01      |             .  |                        n: 1 (valid) 0x1ad-0x1ae (1)
     |                                               |                |                      [7]{}: instr 0x1ae-0x1be (16)
0x1a0|                                          04   |              . |                        opcode: "if" (0x4) 0x1ae-0x1af (1)
0x1a0|                                             40|               @|                        bt: "ε" (64) 0x1af-0x1b0 (1)
     |                                               |                |                        in1[0:3]: 0x1b0-0x1b7 (7)
     |                                               |                |                          [0]{}: instr 0x1b0-0x1b2 (2)
0x1b0|0c                                             |.               |                            opcode: "br" (0xc) 0x1b0-0x1b1 (1)
0x1b0|   00                                          | .              |                            l: 0 (valid) 0x1b1-0x1b2 (1)
     |                                               |                |                          [1]{}: instr 0x1b2-0x1b5 (3)
0x1b0|      41                                       |  A             |                            opcode: "i32.const" (0x41) 0x1b2-0x1b3 (1)
0x1b0|         9a 05                                 |   ..           |                            n: 666 (valid) 0x1b3-0x1b5 (2)
     |                                               |                |                          [2]{}: instr 0x1b5-0x1b7 (2)
0x1b0|               21                              |     !          |                            opcode: "local.set" (0x21) 0x1b5-0x1b6 (1)
0x1b0|                  00                           |      .         |                            x: 0 (valid) 0x1b6-0x1b7 (1)
0x1b0|                     05                        |       .        |                        else: 0x5 (valid) 0x1b7-0x1b8 (1)
     |                                               |                |                        in2[0:2]: 0x1b8-0x1bd (5)
     |                                               |                |                          [0]{}: instr 0x1b8-0x1bb (3)
0x1b0|                        41                     |        A       |                            opcode: "i32.const" (0x41) 0x1b8-0x1b9 (1)
0x1b0|                           f8 06               |         ..     |                            n: 888 (valid) 0x1b9-0x1bb (2)
     |                                               |                |                          [1]{}: instr 0x1bb-0x1bd (2)
0x1b0|                                 21            |           !    |                            opcode: "local.set" (0x21) 0x1bb-0x1bc (1)
0x1b0|                                    00         |            .   |                            x: 0 (valid) 0x1bc-0x1bd (1)
0x1b0|                                       0b      |             .  |                        end: 0xb (valid) 0x1bd-0x1be (1)
     |                                               |                |                      [8]{}: instr 0x1be-0x1c0 (2)
0x1b0|                                          20   |                |                        opcode: "local.get" (0x20) 0x1be-0x1bf (1)
0x1b0|                                             00|               .|                        x: 0 (valid) 0x1bf-0x1c0 (1)
     |                                               |                |                      [9]{}: instr 0x1c0-0x1c2 (2)
0x1c0|41                                             |A               |                        opcode: "i32.const" (0x41) 0x1c0-0x1c1 (1)
0x1c0|   01                                          | .              |                        n: 1 (valid) 0x1c1-0x1c2 (1)
     |                                               |                |                      [10]{}: instr 0x1c2-0x1c3 (1)
0x1c0|      6a                                       |  j             |                        opcode: "i32.add" (0x6a) 0x1c2-0x1c3 (1)
     |                                               |                |                      [11]{}: instr 0x1c3-0x1c5 (2)
0x1c0|         21                                    |   !            |                        opcode: "local.set" (0x21) 0x1c3-0x1c4 (1)
0x1c0|            00                                 |    .           |                        x: 0 (valid) 0x1c4-0x1c5 (1)
     |                                               |                |                      [12]{}: instr 0x1c5-0x1c7 (2)
0x1c0|               41                              |     A          |                        opcode: "i32.const" (0x41) 0x1c5-0x1c6 (1)
0x1c0|                  01                           |      .         |                        n: 1 (valid) 0x1c6-0x1c7 (1)
     |                                               |                |                      [13]{}: instr 0x1c7-0x1d7 (16)
0x1c0|                     04                        |       .        |                        opcode: "if" (0x4) 0x1c7-0x1c8 (1)
0x1c0|                        40                     |        @       |                        bt: "ε" (64) 0x1c8-0x1c9 (1)
     |                                               |                |                        in1[0:3]: 0x1c9-0x1d0 (7)
     |                                               |                |                          [0]{}: instr 0x1c9-0x1cb (2)
0x1c0|                           0c                  |         .      |                            opcode: "br" (0xc) 0x1c9-0x1ca (1)
0x1c0|                              00               |          .     |                            l: 0 (valid) 0x1ca-0x1cb (1)
     |                                               |                |                          [1]{}: instr 0x1cb-0x1ce (3)
0x1c0|                                 41            |           A    |                            opcode: "i32.const" (0x41) 0x1cb-0x1cc (1)
0x1c0|                                    9a 05      |            ..  |                            n: 666 (valid) 0x1cc-0x1ce (2)
     |                                               |                |                          [2]{}: instr 0x1ce-0x1d0 (2)
0x1c0|                                          21   |              ! |                            opcode: "local.set" (0x21) 0x1ce-0x1cf (1)
0x1c0|                                             00|               .|                            x: 0 (valid) 0x1cf-0x1d0 (1)
0x1d0|05                                             |.               |                        else: 0x5 (valid) 0x1d0-0x1d1 (1)
     |                                               |                |                        in2[0:2]: 0x1d1-0x1d6 (5)
     |                                               |                |                          [0]{}: instr 0x1d1-0x1d4 (3)
0x1d0|   41                                          | A              |                            opcode: "i32.const" (0x41) 0x1d1-0x1d2 (1)
0x1d0|      f8 06                                    |  ..            |                            n: 888 (valid) 0x1d2-0x1d4 (2)
     |                                               |                |                          [1]{}: instr 0x1d4-0x1d6 (2)
0x1d0|            21                                 |    !           |                            opcode: "local.set" (0x21) 0x1d4-0x1d5 (1)
0x1d0|               00                              |     .          |                            x: 0 (valid) 0x1d5-0x1d6 (1)
0x1d0|                  0b                           |      .         |                        end: 0xb (valid) 0x1d6-0x1d7 (1)
     |                                               |                |                      [14]{}: instr 0x1d7-0x1d9 (2)
0x1d0|                     20                        |                |                        opcode: "local.get" (0x20) 0x1d7-0x1d8 (1)
0x1d0|                        00                     |        .       |                        x: 0 (valid) 0x1d8-0x1d9 (1)
     |                                               |                |                      [15]{}: instr 0x1d9-0x1db (2)
0x1d0|                           41                  |         A      |                        opcode: "i32.const" (0x41) 0x1d9-0x1da (1)
0x1d0|                              01               |          .     |                        n: 1 (valid) 0x1da-0x1db (1)
     |                                               |                |                      [16]{}: instr 0x1db-0x1dc (1)
0x1d0|                                 6a            |           j    |                        opcode: "i32.add" (0x6a) 0x1db-0x1dc (1)
     |                                               |                |                      [17]{}: instr 0x1dc-0x1de (2)
0x1d0|                                    21         |            !   |                        opcode: "local.set" (0x21) 0x1dc-0x1dd (1)
0x1d0|                                       00      |             .  |                        x: 0 (valid) 0x1dd-0x1de (1)
     |                                               |                |                      [18]{}: instr 0x1de-0x1e0 (2)
0x1d0|                                          41   |              A |                        opcode: "i32.const" (0x41) 0x1de-0x1df (1)
0x1d0|                                             00|               .|                        n: 0 (valid) 0x1df-0x1e0 (1)
     |                                               |                |                      [19]{}: instr 0x1e0-0x1f0 (16)
0x1e0|04                                             |.               |                        opcode: "if" (0x4) 0x1e0-0x1e1 (1)
0x1e0|   40                                          | @              |                        bt: "ε" (64) 0x1e1-0x1e2 (1)
     |                                               |                |                        in1[0:2]: 0x1e2-0x1e7 (5)
     |                                               |                |                          [0]{}: instr 0x1e2-0x1e5 (3)
0x1e0|      41                                       |  A             |                            opcode: "i32.const" (0x41) 0x1e2-0x1e3 (1)
0x1e0|         f8 06                                 |   ..           |                            n: 888 (valid) 0x1e3-0x1e5 (2)
     |                                               |                |                          [1]{}: instr 0x1e5-0x1e7 (2)
0x1e0|               21                              |     !          |                            opcode: "local.set" (0x21) 0x1e5-0x1e6 (1)
0x1e0|                  00                           |      .         |                            x: 0 (valid) 0x1e6-0x1e7 (1)
0x1e0|                     05                        |       .        |                        else: 0x5 (valid) 0x1e7-0x1e8 (1)
     |                                               |                |                        in2[0:3]: 0x1e8-0x1ef (7)
     |                                               |                |                          [0]{}: instr 0x1e8-0x1ea (2)
0x1e0|                        0c                     |        .       |                            opcode: "br" (0xc) 0x1e8-0x1e9 (1)
0x1e0|                           00                  |         .      |                            l: 0 (valid) 0x1e9-0x1ea (1)
     |                                               |                |                          [1]{}: instr 0x1ea-0x1ed (3)
0x1e0|                              41               |          A     |                            opcode: "i32.const" (0x41) 0x1ea-0x1eb (1)
0x1e0|                                 9a 05         |           ..   |                            n: 666 (valid) 0x1eb-0x1ed (2)
     |                                               |                |                          [2]{}: instr 0x1ed-0x1ef (2)
0x1e0|                                       21      |             !  |                            opcode: "local.set" (0x21) 0x1ed-0x1ee (1)
0x1e0|                                          00   |              . |                            x: 0 (valid) 0x1ee-0x1ef (1)
0x1e0|                                             0b|               .|                        end: 0xb (valid) 0x1ef-0x1f0 (1)
     |                                               |                |                      [20]{}: instr 0x1f0-0x1f2 (2)
0x1f0|20                                             |                |                        opcode: "local.get" (0x20) 0x1f0-0x1f1 (1)
0x1f0|   00                                          | .              |                        x: 0 (valid) 0x1f1-0x1f2 (1)
     |                                               |                |                      [21]{}: instr 0x1f2-0x1f4 (2)
0x1f0|      41                                       |  A             |                        opcode: "i32.const" (0x41) 0x1f2-0x1f3 (1)
0x1f0|         01                                    |   .            |                        n: 1 (valid) 0x1f3-0x1f4 (1)
     |                                               |                |                      [22]{}: instr 0x1f4-0x1f5 (1)
0x1f0|            6a                                 |    j           |                        opcode: "i32.add" (0x6a) 0x1f4-0x1f5 (1)
     |                                               |                |                      [23]{}: instr 0x1f5-0x1f7 (2)
0x1f0|               21                              |     !          |                        opcode: "local.set" (0x21) 0x1f5-0x1f6 (1)
0x1f0|                  00                           |      .         |                        x: 0 (valid) 0x1f6-0x1f7 (1)
     |                                               |                |                      [24]{}: instr 0x1f7-0x1f9 (2)
0x1f0|                     41                        |       A        |                        opcode: "i32.const" (0x41) 0x1f7-0x1f8 (1)
0x1f0|                        00                     |        .       |                        n: 0 (valid) 0x1f8-0x1f9 (1)
     |                                               |                |                      [25]{}: instr 0x1f9-0x209 (16)
0x1f0|                           04                  |         .      |                        opcode: "if" (0x4) 0x1f9-0x1fa (1)
0x1f0|                              40               |          @     |                        bt: "ε" (64) 0x1fa-0x1fb (1)
     |                                               |                |                        in1[0:2]: 0x1fb-0x200 (5)
     |                                               |                |                          [0]{}: instr 0x1fb-0x1fe (3)
0x1f0|                                 41            |           A    |                            opcode: "i32.const" (0x41) 0x1fb-0x1fc (1)
0x1f0|                                    f8 06      |            ..  |                            n: 888 (valid) 0x1fc-0x1fe (2)
     |                                               |                |                          [1]{}: instr 0x1fe-0x200 (2)
0x1f0|                                          21   |              ! |                            opcode: "local.set" (0x21) 0x1fe-0x1ff (1)
0x1f0|                                             00|               .|                            x: 0 (valid) 0x1ff-0x200 (1)
0x200|05                                             |.               |                        else: 0x5 (valid) 0x200-0x201 (1)
     |                                               |                |                        in2[0:3]: 0x201-0x208 (7)
     |                                               |                |                          [0]{}: instr 0x201-0x203 (2)
0x200|   0c                                          | .              |                            opcode: "br" (0xc) 0x201-0x202 (1)
0x200|      00                                       |  .             |                            l: 0 (valid) 0x202-0x203 (1)
     |                                               |                |                          [1]{}: instr 0x203-0x206 (3)
0x200|         41                                    |   A            |                            opcode: "i32.const" (0x41) 0x203-0x204 (1)
0x200|            9a 05                              |    ..          |                            n: 666 (valid) 0x204-0x206 (2)
     |                                               |                |                          [2]{}: instr 0x206-0x208 (2)
0x200|                  21                           |      !         |                            opcode: "local.set" (0x21) 0x206-0x207 (1)
0x200|                     00                        |       .        |                            x: 0 (valid) 0x207-0x208 (1)
0x200|                        0b                     |        .       |                        end: 0xb (valid) 0x208-0x209 (1)
     |                                               |                |                      [26]{}: instr 0x209-0x20b (2)
0x200|                           20                  |                |                        opcode: "local.get" (0x20) 0x209-0x20a (1)
0x200|                              00               |          .     |                        x: 0 (valid) 0x20a-0x20b (1)
     |                                               |                |                      [27]{}: instr 0x20b-0x20d (2)
0x200|                                 41            |           A    |                        opcode: "i32.const" (0x41) 0x20b-0x20c (1)
0x200|                                    01         |            .   |                        n: 1 (valid) 0x20c-0x20d (1)
     |                                               |                |                      [28]{}: instr 0x20d-0x20e (1)
0x200|                                       6a      |             j  |                        opcode: "i32.add" (0x6a) 0x20d-0x20e (1)
     |                                               |                |                      [29]{}: instr 0x20e-0x210 (2)
0x200|                                          21   |              ! |                        opcode: "local.set" (0x21) 0x20e-0x20f (1)
0x200|                                             00|               .|                        x: 0 (valid) 0x20f-0x210 (1)
0x210|0b                                             |.               |                    end: 0xb (valid) 0x210-0x211 (1)
     |                                               |                |                  [3]{}: in 0x211-0x213 (2)
0x210|   20                                          |                |                    opcode: "local.get" (0x20) 0x211-0x212 (1)
0x210|      00                                       |  .             |                    x: 0 (valid) 0x212-0x213 (1)
     |                                               |                |                  [4]{}: in 0x213-0x214 (1)
0x210|         0b                                    |   .            |                    opcode: "end" (0xb) 0x213-0x214 (1)
     |                                               |                |            [8]{}: code 0x214-0x29a (134)
0x210|            84 01                              |    ..          |              size: 132 (valid) 0x214-0x216 (2)
     |                                               |                |              code{}: 0x216-0x29a (132)
     |                                               |                |                t{}: 0x216-0x219 (3)
0x210|                  01                           |      .         |                  n: 1 (valid) 0x216-0x217 (1)
     |                                               |                |                  x[0:1]: 0x217-0x219 (2)
     |                                               |                |                    [0]{}: t 0x217-0x219 (2)
0x210|                     01                        |       .        |                      n: 1 (valid) 0x217-0x218 (1)
0x210|                        7f                     |        .       |                      t: "i32" (0x7f) 0x218-0x219 (1)
     |                                               |                |                e[0:5]: 0x219-0x29a (129)
     |                                               |                |                  [0]{}: in 0x219-0x21b (2)
0x210|                           41                  |         A      |                    opcode: "i32.const" (0x41) 0x219-0x21a (1)
0x210|                              00               |          .     |                    n: 0 (valid) 0x21a-0x21b (1)
     |                                               |                |                  [1]{}: in 0x21b-0x21d (2)
0x210|                                 21            |           !    |                    opcode: "local.set" (0x21) 0x21b-0x21c (1)
0x210|                                    00         |            .   |                    x: 0 (valid) 0x21c-0x21d (1)
     |                                               |                |                  [2]{}: in 0x21d-0x297 (122)
0x210|                                       02      |             .  |                    opcode: "block" (0x2) 0x21d-0x21e (1)
0x210|                                          40   |              @ |                    bt: "ε" (64) 0x21e-0x21f (1)
     |                                               |                |                    instructions[0:30]: 0x21f-0x296 (119)
     |                                               |                |                      [0]{}: instr 0x21f-0x221 (2)
0x210|                                             41|               A|                        opcode: "i32.const" (0x41) 0x21f-0x220 (1)
0x220|01                                             |.               |                        n: 1 (valid) 0x220-0x221 (1)
     |                                               |                |                      [1]{}: instr 0x221-0x22b (10)
0x220|   04                                          | .              |                        opcode: "if" (0x4) 0x221-0x222 (1)
0x220|      40                                       |  @             |                        bt: "ε" (64) 0x222-0x223 (1)
     |                                               |                |                        in1[0:3]: 0x223-0x22a (7)
     |                                               |                |                          [0]{}: instr 0x223-0x225 (2)
0x220|         0c                                    |   .            |                            opcode: "br" (0xc) 0x223-0x224 (1)
0x220|            00                                 |    .           |                            l: 0 (valid) 0x224-0x225 (1)
     |                                               |                |                          [1]{}: instr 0x225-0x228 (3)
0x220|               41                              |     A          |                            opcode: "i32.const" (0x41) 0x225-0x226 (1)
0x220|                  9a 05                        |      ..        |                            n: 666 (valid) 0x226-0x228 (2)
     |                                               |                |                          [2]{}: instr 0x228-0x22a (2)
0x220|                        21                     |        !       |                            opcode: "local.set" (0x21) 0x228-0x229 (1)
0x220|                           00                  |         .      |                            x: 0 (valid) 0x229-0x22a (1)
0x220|                              0b               |          .     |                        end: 0xb (valid) 0x22a-0x22b (1)
     |                                               |                |                      [2]{}: instr 0x22b-0x22d (2)
0x220|                                 20            |                |                        opcode: "local.get" (0x20) 0x22b-0x22c (1)
0x220|                                    00         |            .   |                        x: 0 (valid) 0x22c-0x22d (1)
     |                                               |                |                      [3]{}: instr 0x22d-0x22f (2)
0x220|                                       41      |             A  |                        opcode: "i32.const" (0x41) 0x22d-0x22e (1)
0x220|                                          01   |              . |                        n: 1 (valid) 0x22e-0x22f (1)
     |                                               |                |                      [4]{}: instr 0x22f-0x230 (1)
0x220|                                             6a|               j|                        opcode: "i32.add" (0x6a) 0x22f-0x230 (1)
     |                                               |                |                      [5]{}: instr 0x230-0x232 (2)
0x230|21                                             |!               |                        opcode: "local.set" (0x21) 0x230-0x231 (1)
0x230|   00                                          | .              |                        x: 0 (valid) 0x231-0x232 (1)
     |                                               |                |                      [6]{}: instr 0x232-0x234 (2)
0x230|      41                                       |  A             |                        opcode: "i32.const" (0x41) 0x232-0x233 (1)
0x230|         01                                    |   .            |                        n: 1 (valid) 0x233-0x234 (1)
     |                                               |                |                      [7]{}: instr 0x234-0x244 (16)
0x230|            04                                 |    .           |                        opcode: "if" (0x4) 0x234-0x235 (1)
0x230|               40                              |     @          |                        bt: "ε" (64) 0x235-0x236 (1)
     |                                               |                |                        in1[0:3]: 0x236-0x23d (7)
     |                                               |                |                          [0]{}: instr 0x236-0x238 (2)
0x230|                  0c                           |      .         |                            opcode: "br" (0xc) 0x236-0x237 (1)
0x230|                     00                        |       .        |                            l: 0 (valid) 0x237-0x238 (1)
     |                                               |                |                          [1]{}: instr 0x238-0x23b (3)
0x230|                        41                     |        A       |                            opcode: "i32.const" (0x41) 0x238-0x239 (1)
0x230|                           9a 05               |         ..     |                            n: 666 (valid) 0x239-0x23b (2)
     |                                               |                |                          [2]{}: instr 0x23b-0x23d (2)
0x230|                                 21            |           !    |                            opcode: "local.set" (0x21) 0x23b-0x23c (1)
0x230|                                    00         |            .   |                            x: 0 (valid) 0x23c-0x23d (1)
0x230|                                       05      |             .  |                        else: 0x5 (valid) 0x23d-0x23e (1)
     |                                               |                |                        in2[0:2]: 0x23e-0x243 (5)
     |                                               |                |                          [0]{}: instr 0x23e-0x241 (3)
0x230|                                          41   |              A |                            opcode: "i32.const" (0x41) 0x23e-0x23f (1)
0x230|                                             f8|               .|                            n: 888 (valid) 0x23f-0x241 (2)
0x240|06                                             |.               |
     |                                               |                |                          [1]{}: instr 0x241-0x243 (2)
0x240|   21                                          | !              |                            opcode: "local.set" (0x21) 0x241-0x242 (1)
0x240|      00                                       |  .             |                            x: 0 (valid) 0x242-0x243 (1)
0x240|         0b                                    |   .            |                        end: 0xb (valid) 0x243-0x244 (1)
     |                                               |                |                      [8]{}: instr 0x244-0x246 (2)
0x240|            20                                 |                |                        opcode: "local.get" (0x20) 0x244-0x245 (1)
0x240|               00                              |     .          |                        x: 0 (valid) 0x245-0x246 (1)
     |                                               |                |                      [9]{}: instr 0x246-0x248 (2)
0x240|                  41                           |      A         |                        opcode: "i32.const" (0x41) 0x246-0x247 (1)
0x240|                     01                        |       .        |                        n: 1 (valid) 0x247-0x248 (1)
     |                                               |                |                      [10]{}: instr 0x248-0x249 (1)
0x240|                        6a                     |        j       |                        opcode: "i32.add" (0x6a) 0x248-0x249 (1)
     |                                               |                |                      [11]{}: instr 0x249-0x24b (2)
0x240|                           21                  |         !      |                        opcode: "local.set" (0x21) 0x249-0x24a (1)
0x240|                              00               |          .     |                        x: 0 (valid) 0x24a-0x24b (1)
     |                                               |                |                      [12]{}: instr 0x24b-0x24d (2)
0x240|                                 41            |           A    |                        opcode: "i32.const" (0x41) 0x24b-0x24c (1)
0x240|                                    01         |            .   |                        n: 1 (valid) 0x24c-0x24d (1)
     |                                               |                |                      [13]{}: instr 0x24d-0x25d (16)
0x240|                                       04      |             .  |                        opcode: "if" (0x4) 0x24d-0x24e (1)
0x240|                                          40   |              @ |                        bt: "ε" (64) 0x24e-0x24f (1)
     |                                               |                |                        in1[0:3]: 0x24f-0x256 (7)
     |                                               |                |                          [0]{}: instr 0x24f-0x251 (2)
0x240|                                             0c|               .|                            opcode: "br" (0xc) 0x24f-0x250 (1)
0x250|00                                             |.               |                            l: 0 (valid) 0x250-0x251 (1)
     |                                               |                |                          [1]{}: instr 0x251-0x254 (3)
0x250|   41                                          | A              |                            opcode: "i32.const" (0x41) 0x251-0x252 (1)
0x250|      9a 05                                    |  ..            |                            n: 666 (valid) 0x252-0x254 (2)
     |                                               |                |                          [2]{}: instr 0x254-0x256 (2)
0x250|            21                                 |    !           |                            opcode: "local.set" (0x21) 0x254-0x255 (1)
0x250|               00                              |     .          |                            x: 0 (valid) 0x255-0x256 (1)
0x250|                  05                           |      .         |                        else: 0x5 (valid) 0x256-0x257 (1)
     |                                               |                |                        in2[0:2]: 0x257-0x25c (5)
     |                                               |                |                          [0]{}: instr 0x257-0x25a (3)
0x250|                     41                        |       A        |                            opcode: "i32.const" (0x41) 0x257-0x258 (1)
0x250|                        f8 06                  |        ..      |                            n: 888 (valid) 0x258-0x25a (2)
     |                                               |                |                          [1]{}: instr 0x25a-0x25c (2)
0x250|                              21               |          !     |                            opcode: "local.set" (0x21) 0x25a-0x25b (1)
0x250|                                 00            |           .    |                            x: 0 (valid) 0x25b-0x25c (1)
0x250|                                    0b         |            .   |                        end: 0xb (valid) 0x25c-0x25d (1)
     |                                               |                |                      [14]{}: instr 0x25d-0x25f (2)
0x250|                                       20      |                |                        opcode: "local.get" (0x20) 0x25d-0x25e (1)
0x250|                                          00   |              . |                        x: 0 (valid) 0x25e-0x25f (1)
     |                                               |                |                      [15]{}: instr 0x25f-0x261 (2)
0x250|                                             41|               A|                        opcode: "i32.const" (0x41) 0x25f-0x260 (1)
0x260|01                                             |.               |                        n: 1 (valid) 0x260-0x261 (1)
     |                                               |                |                      [16]{}: instr 0x261-0x262 (1)
0x260|   6a                                          | j              |                        opcode: "i32.add" (0x6a) 0x261-0x262 (1)
     |                                               |                |                      [17]{}: instr 0x262-0x264 (2)
0x260|      21                                       |  !             |                        opcode: "local.set" (0x21) 0x262-0x263 (1)
0x260|         00                                    |   .            |                        x: 0 (valid) 0x263-0x264 (1)
     |                                               |                |                      [18]{}: instr 0x264-0x266 (2)
0x260|            41                                 |    A           |                        opcode: "i32.const" (0x41) 0x264-0x265 (1)
0x260|               00                              |     .          |                        n: 0 (valid) 0x265-0x266 (1)
     |                                               |                |                      [19]{}: instr 0x266-0x276 (16)
0x260|                  04                           |      .         |                        opcode: "if" (0x4) 0x266-0x267 (1)
0x260|                     40                        |       @        |                        bt: "ε" (64) 0x267-0x268 (1)
     |                                               |                |                        in1[0:2]: 0x268-0x26d (5)
     |                                               |                |                          [0]{}: instr 0x268-0x26b (3)
0x260|                        41                     |        A       |                            opcode: "i32.const" (0x41) 0x268-0x269 (1)
0x260|                           f8 06               |         ..     |                            n: 888 (valid) 0x269-0x26b (2)
     |                                               |                |                          [1]{}: instr 0x26b-0x26d (2)
0x260|                                 21            |           !    |                            opcode: "local.set" (0x21) 0x26b-0x26c (1)
0x260|                                    00         |            .   |                            x: 0 (valid) 0x26c-0x26d (1)
0x260|                                       05      |             .  |                        else: 0x5 (valid) 0x26d-0x26e (1)
     |                                               |                |                        in2[0:3]: 0x26e-0x275 (7)
     |                                               |                |                          [0]{}: instr 0x26e-0x270 (2)
0x260|                                          0c   |              . |                            opcode: "br" (0xc) 0x26e-0x26f (1)
0x260|                                             00|               .|                            l: 0 (valid) 0x26f-0x270 (1)
     |                                               |                |                          [1]{}: instr 0x270-0x273 (3)
0x270|41                                             |A               |                            opcode: "i32.const" (0x41) 0x270-0x271 (1)
0x270|   9a 05                                       | ..             |                            n: 666 (valid) 0x271-0x273 (2)
     |                                               |                |                          [2]{}: instr 0x273-0x275 (2)
0x270|         21                                    |   !            |                            opcode: "local.set" (0x21) 0x273-0x274 (1)
0x270|            00                                 |    .           |                            x: 0 (valid) 0x274-0x275 (1)
0x270|               0b                              |     .          |                        end: 0xb (valid) 0x275-0x276 (1)
     |                                               |                |                      [20]{}: instr 0x276-0x278 (2)
0x270|                  20                           |                |                        opcode: "local.get" (0x20) 0x276-0x277 (1)
0x270|                     00                        |       .        |                        x: 0 (valid) 0x277-0x278 (1)
     |                                               |                |                      [21]{}: instr 0x278-0x27a (2)
0x270|                        41                     |        A       |                        opcode: "i32.const" (0x41) 0x278-0x279 (1)
0x270|                           01                  |         .      |                        n: 1 (valid) 0x279-0x27a (1)
     |                                               |                |                      [22]{}: instr 0x27a-0x27b (1)
0x270|                              6a               |          j     |                        opcode: "i32.add" (0x6a) 0x27a-0x27b (1)
     |                                               |                |                      [23]{}: instr 0x27b-0x27d (2)
0x270|                                 21            |           !    |                        opcode: "local.set" (0x21) 0x27b-0x27c (1)
0x270|                                    00         |            .   |                        x: 0 (valid) 0x27c-0x27d (1)
     |                                               |                |                      [24]{}: instr 0x27d-0x27f (2)
0x270|                                       41      |             A  |                        opcode: "i32.const" (0x41) 0x27d-0x27e (1)
0x270|                                          00   |              . |                        n: 0 (valid) 0x27e-0x27f (1)
     |                                               |                |                      [25]{}: instr 0x27f-0x28f (16)
0x270|                                             04|               .|                        opcode: "if" (0x4) 0x27f-0x280 (1)
0x280|40                                             |@               |                        bt: "ε" (64) 0x280-0x281 (1)
     |                                               |                |                        in1[0:2]: 0x281-0x286 (5)
     |                                               |                |                          [0]{}: instr 0x281-0x284 (3)
0x280|   41                                          | A              |                            opcode: "i32.const" (0x41) 0x281-0x282 (1)
0x280|      f8 06                                    |  ..            |                            n: 888 (valid) 0x282-0x284 (2)
     |                                               |                |                          [1]{}: instr 0x284-0x286 (2)
0x280|            21                                 |    !           |                            opcode: "local.set" (0x21) 0x284-0x285 (1)
0x280|               00                              |     .          |                            x: 0 (valid) 0x285-0x286 (1)
0x280|                  05                           |      .         |                        else: 0x5 (valid) 0x286-0x287 (1)
     |                                               |                |                        in2[0:3]: 0x287-0x28e (7)
     |                                               |                |                          [0]{}: instr 0x287-0x289 (2)
0x280|                     0c                        |       .        |                            opcode: "br" (0xc) 0x287-0x288 (1)
0x280|                        00                     |        .       |                            l: 0 (valid) 0x288-0x289 (1)
     |                                               |                |                          [1]{}: instr 0x289-0x28c (3)
0x280|                           41                  |         A      |                            opcode: "i32.const" (0x41) 0x289-0x28a (1)
0x280|                              9a 05            |          ..    |                            n: 666 (valid) 0x28a-0x28c (2)
     |                                               |                |                          [2]{}: instr 0x28c-0x28e (2)
0x280|                                    21         |            !   |                            opcode: "local.set" (0x21) 0x28c-0x28d (1)
0x280|                                       00      |             .  |                            x: 0 (valid) 0x28d-0x28e (1)
0x280|                                          0b   |              . |                        end: 0xb (valid) 0x28e-0x28f (1)
     |                                               |                |                      [26]{}: instr 0x28f-0x291 (2)
0x280|                                             20|                |                        opcode: "local.get" (0x20) 0x28f-0x290 (1)
0x290|00                                             |.               |                        x: 0 (valid) 0x290-0x291 (1)
     |                                               |                |                      [27]{}: instr 0x291-0x293 (2)
0x290|   41                                          | A              |                        opcode: "i32.const" (0x41) 0x291-0x292 (1)
0x290|      01                                       |  .             |                        n: 1 (valid) 0x292-0x293 (1)
     |                                               |                |                      [28]{}: instr 0x293-0x294 (1)
0x290|         6a                                    |   j            |                        opcode: "i32.add" (0x6a) 0x293-0x294 (1)
     |                                               |                |                      [29]{}: instr 0x294-0x296 (2)
0x290|            21                                 |    !           |                        opcode: "local.set" (0x21) 0x294-0x295 (1)
0x290|               00                              |     .          |                        x: 0 (valid) 0x295-0x296 (1)
0x290|                  0b                           |      .         |                    end: 0xb (valid) 0x296-0x297 (1)
     |                                               |                |                  [3]{}: in 0x297-0x299 (2)
0x290|                     20                        |                |                    opcode: "local.get" (0x20) 0x297-0x298 (1)
0x290|                        00                     |        .       |                    x: 0 (valid) 0x298-0x299 (1)
     |                                               |                |                  [4]{}: in 0x299-0x29a (1)
0x290|                           0b                  |         .      |                    opcode: "end" (0xb) 0x299-0x29a (1)
     |                                               |                |            [9]{}: code 0x29a-0x2c8 (46)
0x290|                              2d               |          -     |              size: 45 (valid) 0x29a-0x29b (1)
     |                                               |                |              code{}: 0x29b-0x2c8 (45)
     |                                               |                |                t{}: 0x29b-0x29c (1)
0x290|                                 00            |           .    |                  n: 0 (valid) 0x29b-0x29c (1)
     |                                               |                |                  x[0:0]: 0x29c-0x29c (0)
     |                                               |                |                e[0:2]: 0x29c-0x2c8 (44)
     |                                               |                |                  [0]{}: in 0x29c-0x2c7 (43)
0x290|                                    02         |            .   |                    opcode: "block" (0x2) 0x29c-0x29d (1)
0x290|                                       7f      |             .  |                    bt: "i32" (127) 0x29d-0x29e (1)
     |                                               |                |                    instructions[0:3]: 0x29e-0x2c6 (40)
     |                                               |                |                      [0]{}: instr 0x29e-0x2a0 (2)
0x290|                                          41   |              A |                        opcode: "i32.const" (0x41) 0x29e-0x29f (1)
0x290|                                             0a|               .|                        n: 10 (valid) 0x29f-0x2a0 (1)
     |                                               |                |                      [1]{}: instr 0x2a0-0x2c5 (37)
0x2a0|02                                             |.               |                        opcode: "block" (0x2) 0x2a0-0x2a1 (1)
0x2a0|   7f                                          | .              |                        bt: "i32" (127) 0x2a1-0x2a2 (1)
     |                                               |                |                        instructions[0:2]: 0x2a2-0x2c4 (34)
     |                                               |                |                          [0]{}: instr 0x2a2-0x2c2 (32)
0x2a0|      02                                       |  .             |                            opcode: "block" (0x2) 0x2a2-0x2a3 (1)
0x2a0|         40                                    |   @            |                            bt: "ε" (64) 0x2a3-0x2a4 (1)
     |                                               |                |                            instructions[0:1]: 0x2a4-0x2c1 (29)
     |                                               |                |                              [0]{}: instr 0x2a4-0x2c1 (29)
0x2a0|            02                                 |    .           |                                opcode: "block" (0x2) 0x2a4-0x2a5 (1)
0x2a0|               40                              |     @          |                                bt: "ε" (64) 0x2a5-0x2a6 (1)
     |                                               |                |                                instructions[0:3]: 0x2a6-0x2c0 (26)
     |                                               |                |                                  [0]{}: instr 0x2a6-0x2bc (22)
0x2a0|                  02                           |      .         |                                    opcode: "block" (0x2) 0x2a6-0x2a7 (1)
0x2a0|                     40                        |       @        |                                    bt: "ε" (64) 0x2a7-0x2a8 (1)
     |                                               |                |                                    instructions[0:3]: 0x2a8-0x2bb (19)
     |                                               |                |                                      [0]{}: instr 0x2a8-0x2b7 (15)
0x2a0|                        02                     |        .       |                                        opcode: "block" (0x2) 0x2a8-0x2a9 (1)
0x2a0|                           40                  |         @      |                                        bt: "ε" (64) 0x2a9-0x2aa (1)
     |                                               |                |                                        instructions[0:1]: 0x2aa-0x2b6 (12)
     |                                               |                |                                          [0]{}: instr 0x2aa-0x2b6 (12)
0x2a0|                              02               |          .     |                                            opcode: "block" (0x2) 0x2aa-0x2ab (1)
0x2a0|                                 40            |           @    |                                            bt: "ε" (64) 0x2ab-0x2ac (1)
     |                                               |                |                                            instructions[0:2]: 0x2ac-0x2b5 (9)
     |                                               |                |                                              [0]{}: instr 0x2ac-0x2ae (2)
0x2a0|                                    20         |                |                                                opcode: "local.get" (0x20) 0x2ac-0x2ad (1)
0x2a0|                                       00      |             .  |                                                x: 0 (valid) 0x2ad-0x2ae (1)
     |                                               |                |                                              [1]{}: instr 0x2ae-0x2b5 (7)
0x2a0|                                          0e   |              . |                                                opcode: "br_table" (0xe) 0x2ae-0x2af (1)
     |                                               |                |                                                l{}: 0x2af-0x2b4 (5)
0x2a0|                                             04|               .|                                                  n: 4 (valid) 0x2af-0x2b0 (1)
     |                                               |                |                                                  x[0:4]: 0x2b0-0x2b4 (4)
0x2b0|04                                             |.               |                                                    [0]: 4 l (valid) 0x2b0-0x2b1 (1)
0x2b0|   00                                          | .              |                                                    [1]: 0 l (valid) 0x2b1-0x2b2 (1)
0x2b0|      01                                       |  .             |                                                    [2]: 1 l (valid) 0x2b2-0x2b3 (1)
0x2b0|         02                                    |   .            |                                                    [3]: 2 l (valid) 0x2b3-0x2b4 (1)
0x2b0|            03                                 |    .           |                                                lN: 3 (valid) 0x2b4-0x2b5 (1)
0x2b0|               0b                              |     .          |                                            end: 0xb (valid) 0x2b5-0x2b6 (1)
0x2b0|                  0b                           |      .         |                                        end: 0xb (valid) 0x2b6-0x2b7 (1)
     |                                               |                |                                      [1]{}: instr 0x2b7-0x2b9 (2)
0x2b0|                     41                        |       A        |                                        opcode: "i32.const" (0x41) 0x2b7-0x2b8 (1)
0x2b0|                        02                     |        .       |                                        n: 2 (valid) 0x2b8-0x2b9 (1)
     |                                               |                |                                      [2]{}: instr 0x2b9-0x2bb (2)
0x2b0|                           0c                  |         .      |                                        opcode: "br" (0xc) 0x2b9-0x2ba (1)
0x2b0|                              03               |          .     |                                        l: 3 (valid) 0x2ba-0x2bb (1)
0x2b0|                                 0b            |           .    |                                    end: 0xb (valid) 0x2bb-0x2bc (1)
     |                                               |                |                                  [1]{}: instr 0x2bc-0x2be (2)
0x2b0|                                    41         |            A   |                                    opcode: "i32.const" (0x41) 0x2bc-0x2bd (1)
0x2b0|                                       03      |             .  |                                    n: 3 (valid) 0x2bd-0x2be (1)
     |                                               |                |                                  [2]{}: instr 0x2be-0x2c0 (2)
0x2b0|                                          0c   |              . |                                    opcode: "br" (0xc) 0x2be-0x2bf (1)
0x2b0|                                             03|               .|                                    l: 3 (valid) 0x2bf-0x2c0 (1)
0x2c0|0b                                             |.               |                                end: 0xb (valid) 0x2c0-0x2c1 (1)
0x2c0|   0b                                          | .              |                            end: 0xb (valid) 0x2c1-0x2c2 (1)
     |                                               |                |                          [1]{}: instr 0x2c2-0x2c4 (2)
0x2c0|      41                                       |  A             |                            opcode: "i32.const" (0x41) 0x2c2-0x2c3 (1)
0x2c0|         05                                    |   .            |                            n: 5 (valid) 0x2c3-0x2c4 (1)
0x2c0|            0b                                 |    .           |                        end: 0xb (valid) 0x2c4-0x2c5 (1)
     |                                               |                |                      [2]{}: instr 0x2c5-0x2c6 (1)
0x2c0|               6c                              |     l          |                        opcode: "i32.mul" (0x6c) 0x2c5-0x2c6 (1)
0x2c0|                  0b                           |      .         |                    end: 0xb (valid) 0x2c6-0x2c7 (1)
     |                                               |                |                  [1]{}: in 0x2c7-0x2c8 (1)
0x2c0|                     0b                        |       .        |                    opcode: "end" (0xb) 0x2c7-0x2c8 (1)
     |                                               |                |            [10]{}: code 0x2c8-0x2e1 (25)
0x2c0|                        18                     |        .       |              size: 24 (valid) 0x2c8-0x2c9 (1)
     |                                               |                |              code{}: 0x2c9-0x2e1 (24)
     |                                               |                |                t{}: 0x2c9-0x2ca (1)
0x2c0|                           00                  |         .      |                  n: 0 (valid) 0x2c9-0x2ca (1)
     |                                               |                |                  x[0:0]: 0x2ca-0x2ca (0)
     |                                               |                |                e[0:3]: 0x2ca-0x2e1 (23)
     |                                               |                |                  [0]{}: in 0x2ca-0x2de (20)
0x2c0|                              02               |          .     |                    opcode: "block" (0x2) 0x2ca-0x2cb (1)
0x2c0|                                 40            |           @    |                    bt: "ε" (64) 0x2cb-0x2cc (1)
     |                                               |                |                    instructions[0:1]: 0x2cc-0x2dd (17)
     |                                               |                |                      [0]{}: instr 0x2cc-0x2dd (17)
0x2c0|                                    02         |            .   |                        opcode: "block" (0x2) 0x2cc-0x2cd (1)
0x2c0|                                       40      |             @  |                        bt: "ε" (64) 0x2cd-0x2ce (1)
     |                                               |                |                        instructions[0:3]: 0x2ce-0x2dc (14)
     |                                               |                |                          [0]{}: instr 0x2ce-0x2d9 (11)
0x2c0|                                          02   |              . |                            opcode: "block" (0x2) 0x2ce-0x2cf (1)
0x2c0|                                             40|               @|                            bt: "ε" (64) 0x2cf-0x2d0 (1)
     |                                               |                |                            instructions[0:3]: 0x2d0-0x2d8 (8)
     |                                               |                |                              [0]{}: instr 0x2d0-0x2d2 (2)
0x2d0|20                                             |                |                                opcode: "local.get" (0x20) 0x2d0-0x2d1 (1)
0x2d0|   00                                          | .              |                                x: 0 (valid) 0x2d1-0x2d2 (1)
     |                                               |                |                              [1]{}: instr 0x2d2-0x2d6 (4)
0x2d0|      0e                                       |  .             |                                opcode: "br_table" (0xe) 0x2d2-0x2d3 (1)
     |                                               |                |                                l{}: 0x2d3-0x2d5 (2)
0x2d0|         01                                    |   .            |                                  n: 1 (valid) 0x2d3-0x2d4 (1)
     |                                               |                |                                  x[0:1]: 0x2d4-0x2d5 (1)
0x2d0|            00                                 |    .           |                                    [0]: 0 l (valid) 0x2d4-0x2d5 (1)
0x2d0|               01                              |     .          |                                lN: 1 (valid) 0x2d5-0x2d6 (1)
     |                                               |                |                              [2]{}: instr 0x2d6-0x2d8 (2)
0x2d0|                  0c                           |      .         |                                opcode: "br" (0xc) 0x2d6-0x2d7 (1)
0x2d0|                     02                        |       .        |                                l: 2 (valid) 0x2d7-0x2d8 (1)
0x2d0|                        0b                     |        .       |                            end: 0xb (valid) 0x2d8-0x2d9 (1)
     |                                               |                |                          [1]{}: instr 0x2d9-0x2db (2)
0x2d0|                           41                  |         A      |                            opcode: "i32.const" (0x41) 0x2d9-0x2da (1)
0x2d0|                              00               |          .     |                            n: 0 (valid) 0x2da-0x2db (1)
     |                                               |                |                          [2]{}: instr 0x2db-0x2dc (1)
0x2d0|                                 0f            |           .    |                            opcode: "return" (0xf) 0x2db-0x2dc (1)
0x2d0|                                    0b         |            .   |                        end: 0xb (valid) 0x2dc-0x2dd (1)
0x2d0|                                       0b      |             .  |                    end: 0xb (valid) 0x2dd-0x2de (1)
     |                                               |                |                  [1]{}: in 0x2de-0x2e0 (2)
0x2d0|                                          41   |              A |                    opcode: "i32.const" (0x41) 0x2de-0x2df (1)
0x2d0|                                             02|               .|                    n: 2 (valid) 0x2df-0x2e0 (1)
     |                                               |                |                  [2]{}: in 0x2e0-0x2e1 (1)
0x2e0|0b                                             |.               |                    opcode: "end" (0xb) 0x2e0-0x2e1 (1)
     |                                               |                |            [11]{}: code 0x2e1-0x338 (87)
0x2e0|   56                                          | V              |              size: 86 (valid) 0x2e1-0x2e2 (1)
     |                                               |                |              code{}: 0x2e2-0x338 (86)
     |                                               |                |                t{}: 0x2e2-0x2e5 (3)
0x2e0|      01                                       |  .             |                  n: 1 (valid) 0x2e2-0x2e3 (1)
     |                                               |                |                  x[0:1]: 0x2e3-0x2e5 (2)
     |                                               |                |                    [0]{}: t 0x2e3-0x2e5 (2)
0x2e0|         01                                    |   .            |                      n: 1 (valid) 0x2e3-0x2e4 (1)
0x2e0|            7f                                 |    .           |                      t: "i32" (0x7f) 0x2e4-0x2e5 (1)
     |                                               |                |                e[0:4]: 0x2e5-0x338 (83)
     |                                               |                |                  [0]{}: in 0x2e5-0x2e7 (2)
0x2e0|               41                              |     A          |                    opcode: "i32.const" (0x41) 0x2e5-0x2e6 (1)
0x2e0|                  00                           |      .         |                    n: 0 (valid) 0x2e6-0x2e7 (1)
     |                                               |                |                  [1]{}: in 0x2e7-0x2e9 (2)
0x2e0|                     21                        |       !        |                    opcode: "local.set" (0x21) 0x2e7-0x2e8 (1)
0x2e0|                        00                     |        .       |                    x: 0 (valid) 0x2e8-0x2e9 (1)
     |                                               |                |                  [2]{}: in 0x2e9-0x337 (78)
0x2e0|                           02                  |         .      |                    opcode: "block" (0x2) 0x2e9-0x2ea (1)
0x2e0|                              7f               |          .     |                    bt: "i32" (127) 0x2ea-0x2eb (1)
     |                                               |                |                    instructions[0:18]: 0x2eb-0x336 (75)
     |                                               |                |                      [0]{}: instr 0x2eb-0x304 (25)
0x2e0|                                 02            |           .    |                        opcode: "block" (0x2) 0x2eb-0x2ec (1)
0x2e0|                                    40         |            @   |                        bt: "ε" (64) 0x2ec-0x2ed (1)
     |                                               |                |                        instructions[0:12]: 0x2ed-0x303 (22)
     |                                               |                |                          [0]{}: instr 0x2ed-0x2ef (2)
0x2e0|                                       41      |             A  |                            opcode: "i32.const" (0x41) 0x2ed-0x2ee (1)
0x2e0|                                          00   |              . |                            n: 0 (valid) 0x2ee-0x2ef (1)
     |                                               |                |                          [1]{}: instr 0x2ef-0x2f1 (2)
0x2e0|                                             0d|               .|                            opcode: "br_if" (0xd) 0x2ef-0x2f0 (1)
0x2f0|00                                             |.               |                            l: 0 (valid) 0x2f0-0x2f1 (1)
     |                                               |                |                          [2]{}: instr 0x2f1-0x2f3 (2)
0x2f0|   20                                          |                |                            opcode: "local.get" (0x20) 0x2f1-0x2f2 (1)
0x2f0|      00                                       |  .             |                            x: 0 (valid) 0x2f2-0x2f3 (1)
     |                                               |                |                          [3]{}: instr 0x2f3-0x2f5 (2)
0x2f0|         41                                    |   A            |                            opcode: "i32.const" (0x41) 0x2f3-0x2f4 (1)
0x2f0|            01                                 |    .           |                            n: 1 (valid) 0x2f4-0x2f5 (1)
     |                                               |                |                          [4]{}: instr 0x2f5-0x2f6 (1)
0x2f0|               72                              |     r          |                            opcode: "i32.or" (0x72) 0x2f5-0x2f6 (1)
     |                                               |                |                          [5]{}: instr 0x2f6-0x2f8 (2)
0x2f0|                  21                           |      !         |                            opcode: "local.set" (0x21) 0x2f6-0x2f7 (1)
0x2f0|                     00                        |       .        |                            x: 0 (valid) 0x2f7-0x2f8 (1)
     |                                               |                |                          [6]{}: instr 0x2f8-0x2fa (2)
0x2f0|                        41                     |        A       |                            opcode: "i32.const" (0x41) 0x2f8-0x2f9 (1)
0x2f0|                           01                  |         .      |                            n: 1 (valid) 0x2f9-0x2fa (1)
     |                                               |                |                          [7]{}: instr 0x2fa-0x2fc (2)
0x2f0|                              0d               |          .     |                            opcode: "br_if" (0xd) 0x2fa-0x2fb (1)
0x2f0|                                 00            |           .    |                            l: 0 (valid) 0x2fb-0x2fc (1)
     |                                               |                |                          [8]{}: instr 0x2fc-0x2fe (2)
0x2f0|                                    20         |                |                            opcode: "local.get" (0x20) 0x2fc-0x2fd (1)
0x2f0|                                       00      |             .  |                            x: 0 (valid) 0x2fd-0x2fe (1)
     |                                               |                |                          [9]{}: instr 0x2fe-0x300 (2)
0x2f0|                                          41   |              A |                            opcode: "i32.const" (0x41) 0x2fe-0x2ff (1)
0x2f0|                                             02|               .|                            n: 2 (valid) 0x2ff-0x300 (1)
     |                                               |                |                          [10]{}: instr 0x300-0x301 (1)
0x300|72                                             |r               |                            opcode: "i32.or" (0x72) 0x300-0x301 (1)
     |                                               |                |                          [11]{}: instr 0x301-0x303 (2)
0x300|   21                                          | !              |                            opcode: "local.set" (0x21) 0x301-0x302 (1)
0x300|      00                                       |  .             |                            x: 0 (valid) 0x302-0x303 (1)
0x300|         0b                                    |   .            |                        end: 0xb (valid) 0x303-0x304 (1)
     |                                               |                |                      [1]{}: instr 0x304-0x310 (12)
0x300|            02                                 |    .           |                        opcode: "block" (0x2) 0x304-0x305 (1)
0x300|               7f                              |     .          |                        bt: "i32" (127) 0x305-0x306 (1)
     |                                               |                |                        instructions[0:5]: 0x306-0x30f (9)
     |                                               |                |                          [0]{}: instr 0x306-0x308 (2)
0x300|                  20                           |                |                            opcode: "local.get" (0x20) 0x306-0x307 (1)
0x300|                     00                        |       .        |                            x: 0 (valid) 0x307-0x308 (1)
     |                                               |                |                          [1]{}: instr 0x308-0x30a (2)
0x300|                        41                     |        A       |                            opcode: "i32.const" (0x41) 0x308-0x309 (1)
0x300|                           04                  |         .      |                            n: 4 (valid) 0x309-0x30a (1)
     |                                               |                |                          [2]{}: instr 0x30a-0x30b (1)
0x300|                              72               |          r     |                            opcode: "i32.or" (0x72) 0x30a-0x30b (1)
     |                                               |                |                          [3]{}: instr 0x30b-0x30d (2)
0x300|                                 21            |           !    |                            opcode: "local.set" (0x21) 0x30b-0x30c (1)
0x300|                                    00         |            .   |                            x: 0 (valid) 0x30c-0x30d (1)
     |                                               |                |                          [4]{}: instr 0x30d-0x30f (2)
0x300|                                       20      |                |                            opcode: "local.get" (0x20) 0x30d-0x30e (1)
0x300|                                          00   |              . |                            x: 0 (valid) 0x30e-0x30f (1)
0x300|                                             0b|               .|                        end: 0xb (valid) 0x30f-0x310 (1)
     |                                               |                |                      [2]{}: instr 0x310-0x312 (2)
0x310|41                                             |A               |                        opcode: "i32.const" (0x41) 0x310-0x311 (1)
0x310|   00                                          | .              |                        n: 0 (valid) 0x311-0x312 (1)
     |                                               |                |                      [3]{}: instr 0x312-0x314 (2)
0x310|      0d                                       |  .             |                        opcode: "br_if" (0xd) 0x312-0x313 (1)
0x310|         00                                    |   .            |                        l: 0 (valid) 0x313-0x314 (1)
     |                                               |                |                      [4]{}: instr 0x314-0x315 (1)
0x310|            1a                                 |    .           |                        opcode: "drop" (0x1a) 0x314-0x315 (1)
     |                                               |                |                      [5]{}: instr 0x315-0x317 (2)
0x310|               20                              |                |                        opcode: "local.get" (0x20) 0x315-0x316 (1)
0x310|                  00                           |      .         |                        x: 0 (valid) 0x316-0x317 (1)
     |                                               |                |                      [6]{}: instr 0x317-0x319 (2)
0x310|                     41                        |       A        |                        opcode: "i32.const" (0x41) 0x317-0x318 (1)
0x310|                        08                     |        .       |                        n: 8 (valid) 0x318-0x319 (1)
     |                                               |                |                      [7]{}: instr 0x319-0x31a (1)
0x310|                           72                  |         r      |                        opcode: "i32.or" (0x72) 0x319-0x31a (1)
     |                                               |                |                      [8]{}: instr 0x31a-0x31c (2)
0x310|                              21               |          !     |                        opcode: "local.set" (0x21) 0x31a-0x31b (1)
0x310|                                 00            |           .    |                        x: 0 (valid) 0x31b-0x31c (1)
     |                                               |                |                      [9]{}: instr 0x31c-0x328 (12)
0x310|                                    02         |            .   |                        opcode: "block" (0x2) 0x31c-0x31d (1)
0x310|                                       7f      |             .  |                        bt: "i32" (127) 0x31d-0x31e (1)
     |                                               |                |                        instructions[0:5]: 0x31e-0x327 (9)
     |                                               |                |                          [0]{}: instr 0x31e-0x320 (2)
0x310|                                          20   |                |                            opcode: "local.get" (0x20) 0x31e-0x31f (1)
0x310|                                             00|               .|                            x: 0 (valid) 0x31f-0x320 (1)
     |                                               |                |                          [1]{}: instr 0x320-0x322 (2)
0x320|41                                             |A               |                            opcode: "i32.const" (0x41) 0x320-0x321 (1)
0x320|   10                                          | .              |                            n: 16 (valid) 0x321-0x322 (1)
     |                                               |                |                          [2]{}: instr 0x322-0x323 (1)
0x320|      72                                       |  r             |                            opcode: "i32.or" (0x72) 0x322-0x323 (1)
     |                                               |                |                          [3]{}: instr 0x323-0x325 (2)
0x320|         21                                    |   !            |                            opcode: "local.set" (0x21) 0x323-0x324 (1)
0x320|            00                                 |    .           |                            x: 0 (valid) 0x324-0x325 (1)
     |                                               |                |                          [4]{}: instr 0x325-0x327 (2)
0x320|               20                              |                |                            opcode: "local.get" (0x20) 0x325-0x326 (1)
0x320|                  00                           |      .         |                            x: 0 (valid) 0x326-0x327 (1)
0x320|                     0b                        |       .        |                        end: 0xb (valid) 0x327-0x328 (1)
     |                                               |                |                      [10]{}: instr 0x328-0x32a (2)
0x320|                        41                     |        A       |                        opcode: "i32.const" (0x41) 0x328-0x329 (1)
0x320|                           01                  |         .      |                        n: 1 (valid) 0x329-0x32a (1)
     |                                               |                |                      [11]{}: instr 0x32a-0x32c (2)
0x320|                              0d               |          .     |                        opcode: "br_if" (0xd) 0x32a-0x32b (1)
0x320|                                 00            |           .    |                        l: 0 (valid) 0x32b-0x32c (1)
     |                                               |                |                      [12]{}: instr 0x32c-0x32d (1)
0x320|                                    1a         |            .   |                        opcode: "drop" (0x1a) 0x32c-0x32d (1)
     |                                               |                |                      [13]{}: instr 0x32d-0x32f (2)
0x320|                                       20      |                |                        opcode: "local.get" (0x20) 0x32d-0x32e (1)
0x320|                                          00   |              . |                        x: 0 (valid) 0x32e-0x32f (1)
     |                                               |                |                      [14]{}: instr 0x32f-0x331 (2)
0x320|                                             41|               A|                        opcode: "i32.const" (0x41) 0x32f-0x330 (1)
0x330|20                                             |                |                        n: 32 (valid) 0x330-0x331 (1)
     |                                               |                |                      [15]{}: instr 0x331-0x332 (1)
0x330|   72                                          | r              |                        opcode: "i32.or" (0x72) 0x331-0x332 (1)
     |                                               |                |                      [16]{}: instr 0x332-0x334 (2)
0x330|      21                                       |  !             |                        opcode: "local.set" (0x21) 0x332-0x333 (1)
0x330|         00                                    |   .            |                        x: 0 (valid) 0x333-0x334 (1)
     |                                               |                |                      [17]{}: instr 0x334-0x336 (2)
0x330|            20                                 |                |                        opcode: "local.get" (0x20) 0x334-0x335 (1)
0x330|               00                              |     .          |                        x: 0 (valid) 0x335-0x336 (1)
0x330|                  0b                           |      .         |                    end: 0xb (valid) 0x336-0x337 (1)
     |                                               |                |                  [3]{}: in 0x337-0x338 (1)
0x330|                     0b                        |       .        |                    opcode: "end" (0xb) 0x337-0x338 (1)
     |                                               |                |            [12]{}: code 0x338-0x34c (20)
0x330|                        13                     |        .       |              size: 19 (valid) 0x338-0x339 (1)
     |                                               |                |              code{}: 0x339-0x34c (19)
     |                                               |                |                t{}: 0x339-0x33a (1)
0x330|                           00                  |         .      |                  n: 0 (valid) 0x339-0x33a (1)
     |                                               |                |                  x[0:0]: 0x33a-0x33a (0)
     |                                               |                |                e[0:2]: 0x33a-0x34c (18)
     |                                               |                |                  [0]{}: in 0x33a-0x34b (17)
0x330|                              02               |          .     |                    opcode: "block" (0x2) 0x33a-0x33b (1)
0x330|                                 7f            |           .    |                    bt: "i32" (127) 0x33b-0x33c (1)
     |                                               |                |                    instructions[0:5]: 0x33c-0x34a (14)
     |                                               |                |                      [0]{}: instr 0x33c-0x343 (7)
0x330|                                    02         |            .   |                        opcode: "block" (0x2) 0x33c-0x33d (1)
0x330|                                       7f      |             .  |                        bt: "i32" (127) 0x33d-0x33e (1)
     |                                               |                |                        instructions[0:2]: 0x33e-0x342 (4)
     |                                               |                |                          [0]{}: instr 0x33e-0x340 (2)
0x330|                                          41   |              A |                            opcode: "i32.const" (0x41) 0x33e-0x33f (1)
0x330|                                             01|               .|                            n: 1 (valid) 0x33f-0x340 (1)
     |                                               |                |                          [1]{}: instr 0x340-0x342 (2)
0x340|0c                                             |.               |                            opcode: "br" (0xc) 0x340-0x341 (1)
0x340|   00                                          | .              |                            l: 0 (valid) 0x341-0x342 (1)
0x340|      0b                                       |  .             |                        end: 0xb (valid) 0x342-0x343 (1)
     |                                               |                |                      [1]{}: instr 0x343-0x345 (2)
0x340|         41                                    |   A            |                        opcode: "i32.const" (0x41) 0x343-0x344 (1)
0x340|            01                                 |    .           |                        n: 1 (valid) 0x344-0x345 (1)
     |                                               |                |                      [2]{}: instr 0x345-0x347 (2)
0x340|               0d                              |     .          |                        opcode: "br_if" (0xd) 0x345-0x346 (1)
0x340|                  00                           |      .         |                        l: 0 (valid) 0x346-0x347 (1)
     |                                               |                |                      [3]{}: instr 0x347-0x348 (1)
0x340|                     1a                        |       .        |                        opcode: "drop" (0x1a) 0x347-0x348 (1)
     |                                               |                |                      [4]{}: instr 0x348-0x34a (2)
0x340|                        41                     |        A       |                        opcode: "i32.const" (0x41) 0x348-0x349 (1)
0x340|                           00                  |         .      |                        n: 0 (valid) 0x349-0x34a (1)
0x340|                              0b               |          .     |                    end: 0xb (valid) 0x34a-0x34b (1)
     |                                               |                |                  [1]{}: in 0x34b-0x34c (1)
0x340|                                 0b            |           .    |                    opcode: "end" (0xb) 0x34b-0x34c (1)
     |                                               |                |            [13]{}: code 0x34c-0x365 (25)
0x340|                                    18         |            .   |              size: 24 (valid) 0x34c-0x34d (1)
     |                                               |                |              code{}: 0x34d-0x365 (24)
     |                                               |                |                t{}: 0x34d-0x34e (1)
0x340|                                       00      |             .  |                  n: 0 (valid) 0x34d-0x34e (1)
     |                                               |                |                  x[0:0]: 0x34e-0x34e (0)
     |                                               |                |                e[0:2]: 0x34e-0x365 (23)
     |                                               |                |                  [0]{}: in 0x34e-0x364 (22)
0x340|                                          02   |              . |                    opcode: "block" (0x2) 0x34e-0x34f (1)
0x340|                                             7f|               .|                    bt: "i32" (127) 0x34f-0x350 (1)
     |                                               |                |                    instructions[0:3]: 0x350-0x363 (19)
     |                                               |                |                      [0]{}: instr 0x350-0x352 (2)
0x350|41                                             |A               |                        opcode: "i32.const" (0x41) 0x350-0x351 (1)
0x350|   01                                          | .              |                        n: 1 (valid) 0x351-0x352 (1)
     |                                               |                |                      [1]{}: instr 0x352-0x361 (15)
0x350|      04                                       |  .             |                        opcode: "if" (0x4) 0x352-0x353 (1)
0x350|         40                                    |   @            |                        bt: "ε" (64) 0x353-0x354 (1)
     |                                               |                |                        in1[0:4]: 0x354-0x360 (12)
     |                                               |                |                          [0]{}: instr 0x354-0x35b (7)
0x350|            02                                 |    .           |                            opcode: "block" (0x2) 0x354-0x355 (1)
0x350|               7f                              |     .          |                            bt: "i32" (127) 0x355-0x356 (1)
     |                                               |                |                            instructions[0:2]: 0x356-0x35a (4)
     |                                               |                |                              [0]{}: instr 0x356-0x358 (2)
0x350|                  41                           |      A         |                                opcode: "i32.const" (0x41) 0x356-0x357 (1)
0x350|                     01                        |       .        |                                n: 1 (valid) 0x357-0x358 (1)
     |                                               |                |                              [1]{}: instr 0x358-0x35a (2)
0x350|                        0c                     |        .       |                                opcode: "br" (0xc) 0x358-0x359 (1)
0x350|                           00                  |         .      |                                l: 0 (valid) 0x359-0x35a (1)
0x350|                              0b               |          .     |                            end: 0xb (valid) 0x35a-0x35b (1)
     |                                               |                |                          [1]{}: instr 0x35b-0x35d (2)
0x350|                                 41            |           A    |                            opcode: "i32.const" (0x41) 0x35b-0x35c (1)
0x350|                                    01         |            .   |                            n: 1 (valid) 0x35c-0x35d (1)
     |                                               |                |                          [2]{}: instr 0x35d-0x35f (2)
0x350|                                       0d      |             .  |                            opcode: "br_if" (0xd) 0x35d-0x35e (1)
0x350|                                          01   |              . |                            l: 1 (valid) 0x35e-0x35f (1)
     |                                               |                |                          [3]{}: instr 0x35f-0x360 (1)
0x350|                                             1a|               .|                            opcode: "drop" (0x1a) 0x35f-0x360 (1)
0x360|0b                                             |.               |                        end: 0xb (valid) 0x360-0x361 (1)
     |                                               |                |                      [2]{}: instr 0x361-0x363 (2)
0x360|   41                                          | A              |                        opcode: "i32.const" (0x41) 0x361-0x362 (1)
0x360|      00                                       |  .             |                        n: 0 (valid) 0x362-0x363 (1)
0x360|         0b                                    |   .            |                    end: 0xb (valid) 0x363-0x364 (1)
     |                                               |                |                  [1]{}: in 0x364-0x365 (1)
0x360|            0b                                 |    .           |                    opcode: "end" (0xb) 0x364-0x365 (1)
     |                                               |                |            [14]{}: code 0x365-0x38a (37)
0x360|               24                              |     $          |              size: 36 (valid) 0x365-0x366 (1)
     |                                               |                |              code{}: 0x366-0x38a (36)
     |                                               |                |                t{}: 0x366-0x369 (3)
0x360|                  01                           |      .         |                  n: 1 (valid) 0x366-0x367 (1)
     |                                               |                |                  x[0:1]: 0x367-0x369 (2)
     |                                               |                |                    [0]{}: t 0x367-0x369 (2)
0x360|                     01                        |       .        |                      n: 1 (valid) 0x367-0x368 (1)
0x360|                        7f                     |        .       |                      t: "i32" (0x7f) 0x368-0x369 (1)
     |                                               |                |                e[0:6]: 0x369-0x38a (33)
     |                                               |                |                  [0]{}: in 0x369-0x383 (26)
0x360|                           02                  |         .      |                    opcode: "block" (0x2) 0x369-0x36a (1)
0x360|                              7f               |          .     |                    bt: "i32" (127) 0x36a-0x36b (1)
     |                                               |                |                    instructions[0:5]: 0x36b-0x382 (23)
     |                                               |                |                      [0]{}: instr 0x36b-0x374 (9)
0x360|                                 02            |           .    |                        opcode: "block" (0x2) 0x36b-0x36c (1)
0x360|                                    7f         |            .   |                        bt: "i32" (127) 0x36c-0x36d (1)
     |                                               |                |                        instructions[0:3]: 0x36d-0x373 (6)
     |                                               |                |                          [0]{}: instr 0x36d-0x36f (2)
0x360|                                       41      |             A  |                            opcode: "i32.const" (0x41) 0x36d-0x36e (1)
0x360|                                          01   |              . |                            n: 1 (valid) 0x36e-0x36f (1)
     |                                               |                |                          [1]{}: instr 0x36f-0x371 (2)
0x360|                                             21|               !|                            opcode: "local.set" (0x21) 0x36f-0x370 (1)
0x370|00                                             |.               |                            x: 0 (valid) 0x370-0x371 (1)
     |                                               |                |                          [2]{}: instr 0x371-0x373 (2)
0x370|   20                                          |                |                            opcode: "local.get" (0x20) 0x371-0x372 (1)
0x370|      00                                       |  .             |                            x: 0 (valid) 0x372-0x373 (1)
0x370|         0b                                    |   .            |                        end: 0xb (valid) 0x373-0x374 (1)
     |                                               |                |                      [1]{}: instr 0x374-0x37d (9)
0x370|            02                                 |    .           |                        opcode: "block" (0x2) 0x374-0x375 (1)
0x370|               7f                              |     .          |                        bt: "i32" (127) 0x375-0x376 (1)
     |                                               |                |                        instructions[0:3]: 0x376-0x37c (6)
     |                                               |                |                          [0]{}: instr 0x376-0x378 (2)
0x370|                  41                           |      A         |                            opcode: "i32.const" (0x41) 0x376-0x377 (1)
0x370|                     02                        |       .        |                            n: 2 (valid) 0x377-0x378 (1)
     |                                               |                |                          [1]{}: instr 0x378-0x37a (2)
0x370|                        21                     |        !       |                            opcode: "local.set" (0x21) 0x378-0x379 (1)
0x370|                           00                  |         .      |                            x: 0 (valid) 0x379-0x37a (1)
     |                                               |                |                          [2]{}: instr 0x37a-0x37c (2)
0x370|                              20               |                |                            opcode: "local.get" (0x20) 0x37a-0x37b (1)
0x370|                                 00            |           .    |                            x: 0 (valid) 0x37b-0x37c (1)
0x370|                                    0b         |            .   |                        end: 0xb (valid) 0x37c-0x37d (1)
     |                                               |                |                      [2]{}: instr 0x37d-0x37f (2)
0x370|                                       0d      |             .  |                        opcode: "br_if" (0xd) 0x37d-0x37e (1)
0x370|                                          00   |              . |                        l: 0 (valid) 0x37e-0x37f (1)
     |                                               |                |                      [3]{}: instr 0x37f-0x380 (1)
0x370|                                             1a|               .|                        opcode: "drop" (0x1a) 0x37f-0x380 (1)
     |                                               |                |                      [4]{}: instr 0x380-0x382 (2)
0x380|41                                             |A               |                        opcode: "i32.const" (0x41) 0x380-0x381 (1)
0x380|   00                                          | .              |                        n: 0 (valid) 0x381-0x382 (1)
0x380|      0b                                       |  .             |                    end: 0xb (valid) 0x382-0x383 (1)
     |                                               |                |                  [1]{}: in 0x383-0x385 (2)
0x380|         41                                    |   A            |                    opcode: "i32.const" (0x41) 0x383-0x384 (1)
0x380|            00                                 |    .           |                    n: 0 (valid) 0x384-0x385 (1)
     |                                               |                |                  [2]{}: in 0x385-0x386 (1)
0x380|               6a                              |     j          |                    opcode: "i32.add" (0x6a) 0x385-0x386 (1)
     |                                               |                |                  [3]{}: in 0x386-0x387 (1)
0x380|                  1a                           |      .         |                    opcode: "drop" (0x1a) 0x386-0x387 (1)
     |                                               |                |                  [4]{}: in 0x387-0x389 (2)
0x380|                     20                        |                |                    opcode: "local.get" (0x20) 0x387-0x388 (1)
0x380|                        00                     |        .       |                    x: 0 (valid) 0x388-0x389 (1)
     |                                               |                |                  [5]{}: in 0x389-0x38a (1)
0x380|                           0b                  |         .      |                    opcode: "end" (0xb) 0x389-0x38a (1)
     |                                               |                |            [15]{}: code 0x38a-0x3ac (34)
0x380|                              21               |          !     |              size: 33 (valid) 0x38a-0x38b (1)
     |                                               |                |              code{}: 0x38b-0x3ac (33)
     |                                               |                |                t{}: 0x38b-0x38c (1)
0x380|                                 00            |           .    |                  n: 0 (valid) 0x38b-0x38c (1)
     |                                               |                |                  x[0:0]: 0x38c-0x38c (0)
     |                                               |                |                e[0:2]: 0x38c-0x3ac (32)
     |                                               |                |                  [0]{}: in 0x38c-0x3ab (31)
0x380|                                    02         |            .   |                    opcode: "block" (0x2) 0x38c-0x38d (1)
0x380|                                       7f      |             .  |                    bt: "i32" (127) 0x38d-0x38e (1)
     |                                               |                |                    instructions[0:3]: 0x38e-0x3aa (28)
     |                                               |                |                      [0]{}: instr 0x38e-0x390 (2)
0x380|                                          41   |              A |                        opcode: "i32.const" (0x41) 0x38e-0x38f (1)
0x380|                                             01|               .|                        n: 1 (valid) 0x38f-0x390 (1)
     |                                               |                |                      [1]{}: instr 0x390-0x3a8 (24)
0x390|04                                             |.               |                        opcode: "if" (0x4) 0x390-0x391 (1)
0x390|   40                                          | @              |                        bt: "ε" (64) 0x391-0x392 (1)
     |                                               |                |                        in1[0:2]: 0x392-0x39b (9)
     |                                               |                |                          [0]{}: instr 0x392-0x399 (7)
0x390|      02                                       |  .             |                            opcode: "block" (0x2) 0x392-0x393 (1)
0x390|         7f                                    |   .            |                            bt: "i32" (127) 0x393-0x394 (1)
     |                                               |                |                            instructions[0:2]: 0x394-0x398 (4)
     |                                               |                |                              [0]{}: instr 0x394-0x396 (2)
0x390|            41                                 |    A           |                                opcode: "i32.const" (0x41) 0x394-0x395 (1)
0x390|               01                              |     .          |                                n: 1 (valid) 0x395-0x396 (1)
     |                                               |                |                              [1]{}: instr 0x396-0x398 (2)
0x390|                  0c                           |      .         |                                opcode: "br" (0xc) 0x396-0x397 (1)
0x390|                     00                        |       .        |                                l: 0 (valid) 0x397-0x398 (1)
0x390|                        0b                     |        .       |                            end: 0xb (valid) 0x398-0x399 (1)
     |                                               |                |                          [1]{}: instr 0x399-0x39b (2)
0x390|                           0c                  |         .      |                            opcode: "br" (0xc) 0x399-0x39a (1)
0x390|                              01               |          .     |                            l: 1 (valid) 0x39a-0x39b (1)
0x390|                                 05            |           .    |                        else: 0x5 (valid) 0x39b-0x39c (1)
     |                                               |                |                        in2[0:1]: 0x39c-0x3a7 (11)
     |                                               |                |                          [0]{}: instr 0x39c-0x3a7 (11)
0x390|                                    02         |            .   |                            opcode: "block" (0x2) 0x39c-0x39d (1)
0x390|                                       40      |             @  |                            bt: "ε" (64) 0x39d-0x39e (1)
     |                                               |                |                            instructions[0:2]: 0x39e-0x3a6 (8)
     |                                               |                |                              [0]{}: instr 0x39e-0x3a5 (7)
0x390|                                          02   |              . |                                opcode: "block" (0x2) 0x39e-0x39f (1)
0x390|                                             7f|               .|                                bt: "i32" (127) 0x39f-0x3a0 (1)
     |                                               |                |                                instructions[0:2]: 0x3a0-0x3a4 (4)
     |                                               |                |                                  [0]{}: instr 0x3a0-0x3a2 (2)
0x3a0|41                                             |A               |                                    opcode: "i32.const" (0x41) 0x3a0-0x3a1 (1)
0x3a0|   01                                          | .              |                                    n: 1 (valid) 0x3a1-0x3a2 (1)
     |                                               |                |                                  [1]{}: instr 0x3a2-0x3a4 (2)
0x3a0|      0c                                       |  .             |                                    opcode: "br" (0xc) 0x3a2-0x3a3 (1)
0x3a0|         00                                    |   .            |                                    l: 0 (valid) 0x3a3-0x3a4 (1)
0x3a0|            0b                                 |    .           |                                end: 0xb (valid) 0x3a4-0x3a5 (1)
     |                                               |                |                              [1]{}: instr 0x3a5-0x3a6 (1)
0x3a0|               1a                              |     .          |                                opcode: "drop" (0x1a) 0x3a5-0x3a6 (1)
0x3a0|                  0b                           |      .         |                            end: 0xb (valid) 0x3a6-0x3a7 (1)
0x3a0|                     0b                        |       .        |                        end: 0xb (valid) 0x3a7-0x3a8 (1)
     |                                               |                |                      [2]{}: instr 0x3a8-0x3aa (2)
0x3a0|                        41                     |        A       |                        opcode: "i32.const" (0x41) 0x3a8-0x3a9 (1)
0x3a0|                           01                  |         .      |                        n: 1 (valid) 0x3a9-0x3aa (1)
0x3a0|                              0b               |          .     |                    end: 0xb (valid) 0x3aa-0x3ab (1)
     |                                               |                |                  [1]{}: in 0x3ab-0x3ac (1)
0x3a0|                                 0b            |           .    |                    opcode: "end" (0xb) 0x3ab-0x3ac (1)
     |                                               |                |            [16]{}: code 0x3ac-0x3b9 (13)
0x3a0|                                    0c         |            .   |              size: 12 (valid) 0x3ac-0x3ad (1)
     |                                               |                |              code{}: 0x3ad-0x3b9 (12)
     |                                               |                |                t{}: 0x3ad-0x3ae (1)
0x3a0|                                       00      |             .  |                  n: 0 (valid) 0x3ad-0x3ae (1)
     |                                               |                |                  x[0:0]: 0x3ae-0x3ae (0)
     |                                               |                |                e[0:2]: 0x3ae-0x3b9 (11)
     |                                               |                |                  [0]{}: in 0x3ae-0x3b8 (10)
0x3a0|                                          02   |              . |                    opcode: "block" (0x2) 0x3ae-0x3af (1)
0x3a0|                                             7f|               .|                    bt: "i32" (127) 0x3af-0x3b0 (1)
     |                                               |                |                    instructions[0:4]: 0x3b0-0x3b7 (7)
     |                                               |                |                      [0]{}: instr 0x3b0-0x3b2 (2)
0x3b0|41                                             |A               |                        opcode: "i32.const" (0x41) 0x3b0-0x3b1 (1)
0x3b0|   01                                          | .              |                        n: 1 (valid) 0x3b1-0x3b2 (1)
     |                                               |                |                      [1]{}: instr 0x3b2-0x3b4 (2)
0x3b0|      0c                                       |  .             |                        opcode: "br" (0xc) 0x3b2-0x3b3 (1)
0x3b0|         00                                    |   .            |                        l: 0 (valid) 0x3b3-0x3b4 (1)
     |                                               |                |                      [2]{}: instr 0x3b4-0x3b6 (2)
0x3b0|            41                                 |    A           |                        opcode: "i32.const" (0x41) 0x3b4-0x3b5 (1)
0x3b0|               02                              |     .          |                        n: 2 (valid) 0x3b5-0x3b6 (1)
     |                                               |                |                      [3]{}: instr 0x3b6-0x3b7 (1)
0x3b0|                  73                           |      s         |                        opcode: "i32.xor" (0x73) 0x3b6-0x3b7 (1)
0x3b0|                     0b                        |       .        |                    end: 0xb (valid) 0x3b7-0x3b8 (1)
     |                                               |                |                  [1]{}: in 0x3b8-0x3b9 (1)
0x3b0|                        0b                     |        .       |                    opcode: "end" (0xb) 0x3b8-0x3b9 (1)
     |                                               |                |            [17]{}: code 0x3b9-0x3cc (19)
0x3b0|                           12                  |         .      |              size: 18 (valid) 0x3b9-0x3ba (1)
     |                                               |                |              code{}: 0x3ba-0x3cc (18)
     |                                               |                |                t{}: 0x3ba-0x3bb (1)
0x3b0|                              00               |          .     |                  n: 0 (valid) 0x3ba-0x3bb (1)
     |                                               |                |                  x[0:0]: 0x3bb-0x3bb (0)
     |                                               |                |                e[0:2]: 0x3bb-0x3cc (17)
     |                                               |                |                  [0]{}: in 0x3bb-0x3cb (16)
0x3b0|                                 02            |           .    |                    opcode: "block" (0x2) 0x3bb-0x3bc (1)
0x3b0|                                    7f         |            .   |                    bt: "i32" (127) 0x3bc-0x3bd (1)
     |                                               |                |                    instructions[0:3]: 0x3bd-0x3ca (13)
     |                                               |                |                      [0]{}: instr 0x3bd-0x3c2 (5)
0x3b0|                                       02      |             .  |                        opcode: "block" (0x2) 0x3bd-0x3be (1)
0x3b0|                                          7f   |              . |                        bt: "i32" (127) 0x3be-0x3bf (1)
     |                                               |                |                        instructions[0:1]: 0x3bf-0x3c1 (2)
     |                                               |                |                          [0]{}: instr 0x3bf-0x3c1 (2)
0x3b0|                                             41|               A|                            opcode: "i32.const" (0x41) 0x3bf-0x3c0 (1)
0x3c0|02                                             |.               |                            n: 2 (valid) 0x3c0-0x3c1 (1)
0x3c0|   0b                                          | .              |                        end: 0xb (valid) 0x3c1-0x3c2 (1)
     |                                               |                |                      [1]{}: instr 0x3c2-0x3c9 (7)
0x3c0|      02                                       |  .             |                        opcode: "block" (0x2) 0x3c2-0x3c3 (1)
0x3c0|         7f                                    |   .            |                        bt: "i32" (127) 0x3c3-0x3c4 (1)
     |                                               |                |                        instructions[0:2]: 0x3c4-0x3c8 (4)
     |                                               |                |                          [0]{}: instr 0x3c4-0x3c6 (2)
0x3c0|            41                                 |    A           |                            opcode: "i32.const" (0x41) 0x3c4-0x3c5 (1)
0x3c0|               03                              |     .          |                            n: 3 (valid) 0x3c5-0x3c6 (1)
     |                                               |                |                          [1]{}: instr 0x3c6-0x3c8 (2)
0x3c0|                  0c                           |      .         |                            opcode: "br" (0xc) 0x3c6-0x3c7 (1)
0x3c0|                     00                        |       .        |                            l: 0 (valid) 0x3c7-0x3c8 (1)
0x3c0|                        0b                     |        .       |                        end: 0xb (valid) 0x3c8-0x3c9 (1)
     |                                               |                |                      [2]{}: instr 0x3c9-0x3ca (1)
0x3c0|                           6a                  |         j      |                        opcode: "i32.add" (0x6a) 0x3c9-0x3ca (1)
0x3c0|                              0b               |          .     |                    end: 0xb (valid) 0x3ca-0x3cb (1)
     |                                               |                |                  [1]{}: in 0x3cb-0x3cc (1)
0x3c0|                                 0b|           |           .|   |                    opcode: "end" (0xb) 0x3cb-0x3cc (1)
