$ fq -d wasm dv labels-0.wasm
     |00 01 02 03 04 05 06 07 08 09 0a 0b 0c 0d 0e 0f|0123456789abcdef|.{}: labels-0.wasm (wasm) 0x0-0x3cb.7 (972)
0x000|00 61 73 6d                                    |.asm            |  magic: raw bits (valid) 0x0-0x3.7 (4)
0x000|            01 00 00 00                        |    ....        |  version: 1 0x4-0x7.7 (4)
     |                                               |                |  sections[0:4]: 0x8-0x3cb.7 (964)
     |                                               |                |    [0]{}: section 0x8-0x13.7 (12)
0x000|                        01                     |        .       |      id: "type section" (1) 0x8-0x8.7 (1)
0x000|                           0a                  |         .      |      size: 10 0x9-0x9.7 (1)
     |                                               |                |      content{}: 0xa-0x13.7 (10)
     |                                               |                |        ft{}: 0xa-0x13.7 (10)
0x000|                              02               |          .     |          n: 2 0xa-0xa.7 (1)
     |                                               |                |          x[0:2]: 0xb-0x13.7 (9)
     |                                               |                |            [0]{}: ft 0xb-0xe.7 (4)
0x000|                                 60            |           `    |              tag: 0x60 (valid) 0xb-0xb.7 (1)
     |                                               |                |              rt1{}: 0xc-0xc.7 (1)
0x000|                                    00         |            .   |                n: 0 0xc-0xc.7 (1)
     |                                               |                |                x[0:0]: 0xd-NA (0)
     |                                               |                |              rt2{}: 0xd-0xe.7 (2)
0x000|                                       01      |             .  |                n: 1 0xd-0xd.7 (1)
     |                                               |                |                x[0:1]: 0xe-0xe.7 (1)
0x000|                                          7f   |              . |                  [0]: "i32" (0x7f) t 0xe-0xe.7 (1)
     |                                               |                |            [1]{}: ft 0xf-0x13.7 (5)
0x000|                                             60|               `|              tag: 0x60 (valid) 0xf-0xf.7 (1)
     |                                               |                |              rt1{}: 0x10-0x11.7 (2)
0x010|01                                             |.               |                n: 1 0x10-0x10.7 (1)
     |                                               |                |                x[0:1]: 0x11-0x11.7 (1)
0x010|   7f                                          | .              |                  [0]: "i32" (0x7f) t 0x11-0x11.7 (1)
     |                                               |                |              rt2{}: 0x12-0x13.7 (2)
0x010|      01                                       |  .             |                n: 1 0x12-0x12.7 (1)
     |                                               |                |                x[0:1]: 0x13-0x13.7 (1)
0x010|         7f                                    |   .            |                  [0]: "i32" (0x7f) t 0x13-0x13.7 (1)
     |                                               |                |    [1]{}: section 0x14-0x28.7 (21)
0x010|            03                                 |    .           |      id: "function section" (3) 0x14-0x14.7 (1)
0x010|               13                              |     .          |      size: 19 0x15-0x15.7 (1)
     |                                               |                |      content{}: 0x16-0x28.7 (19)
     |                                               |                |        x{}: 0x16-0x28.7 (19)
0x010|                  12                           |      .         |          n: 18 0x16-0x16.7 (1)
     |                                               |                |          x[0:18]: 0x17-0x28.7 (18)
0x010|                     00                        |       .        |            [0]: 0 x 0x17-0x17.7 (1)
0x010|                        00                     |        .       |            [1]: 0 x 0x18-0x18.7 (1)
0x010|                           00                  |         .      |            [2]: 0 x 0x19-0x19.7 (1)
0x010|                              00               |          .     |            [3]: 0 x 0x1a-0x1a.7 (1)
0x010|                                 01            |           .    |            [4]: 1 x 0x1b-0x1b.7 (1)
0x010|                                    00         |            .   |            [5]: 0 x 0x1c-0x1c.7 (1)
0x010|                                       00      |             .  |            [6]: 0 x 0x1d-0x1d.7 (1)
0x010|                                          00   |              . |            [7]: 0 x 0x1e-0x1e.7 (1)
0x010|                                             00|               .|            [8]: 0 x 0x1f-0x1f.7 (1)
0x020|01                                             |.               |            [9]: 1 x 0x20-0x20.7 (1)
0x020|   01                                          | .              |            [10]: 1 x 0x21-0x21.7 (1)
0x020|      00                                       |  .             |            [11]: 0 x 0x22-0x22.7 (1)
0x020|         00                                    |   .            |            [12]: 0 x 0x23-0x23.7 (1)
0x020|            00                                 |    .           |            [13]: 0 x 0x24-0x24.7 (1)
0x020|               00                              |     .          |            [14]: 0 x 0x25-0x25.7 (1)
0x020|                  00                           |      .         |            [15]: 0 x 0x26-0x26.7 (1)
0x020|                     00                        |       .        |            [16]: 0 x 0x27-0x27.7 (1)
0x020|                        00                     |        .       |            [17]: 0 x 0x28-0x28.7 (1)
     |                                               |                |    [2]{}: section 0x29-0xc5.7 (157)
0x020|                           07                  |         .      |      id: "export section" (7) 0x29-0x29.7 (1)
0x020|                              9a 01            |          ..    |      size: 154 0x2a-0x2b.7 (2)
     |                                               |                |      content{}: 0x2c-0xc5.7 (154)
     |                                               |                |        ex{}: 0x2c-0xc5.7 (154)
0x020|                                    12         |            .   |          n: 18 0x2c-0x2c.7 (1)
     |                                               |                |          x[0:18]: 0x2d-0xc5.7 (153)
     |                                               |                |            [0]{}: ex 0x2d-0x34.7 (8)
     |                                               |                |              nm{}: 0x2d-0x32.7 (6)
0x020|                                       05      |             .  |                n: 5 0x2d-0x2d.7 (1)
0x020|                                          62 6c|              bl|                b: "block" 0x2e-0x32.7 (5)
0x030|6f 63 6b                                       |ock             |
     |                                               |                |              d{}: 0x33-0x34.7 (2)
0x030|         00                                    |   .            |                tag: "funcidx" (0x0) 0x33-0x33.7 (1)
0x030|            00                                 |    .           |                x: 0 0x34-0x34.7 (1)
     |                                               |                |            [1]{}: ex 0x35-0x3c.7 (8)
     |                                               |                |              nm{}: 0x35-0x3a.7 (6)
0x030|               05                              |     .          |                n: 5 0x35-0x35.7 (1)
0x030|                  6c 6f 6f 70 31               |      loop1     |                b: "loop1" 0x36-0x3a.7 (5)
     |                                               |                |              d{}: 0x3b-0x3c.7 (2)
0x030|                                 00            |           .    |                tag: "funcidx" (0x0) 0x3b-0x3b.7 (1)
0x030|                                    01         |            .   |                x: 1 0x3c-0x3c.7 (1)
     |                                               |                |            [2]{}: ex 0x3d-0x44.7 (8)
     |                                               |                |              nm{}: 0x3d-0x42.7 (6)
0x030|                                       05      |             .  |                n: 5 0x3d-0x3d.7 (1)
0x030|                                          6c 6f|              lo|                b: "loop2" 0x3e-0x42.7 (5)
0x040|6f 70 32                                       |op2             |
     |                                               |                |              d{}: 0x43-0x44.7 (2)
0x040|         00                                    |   .            |                tag: "funcidx" (0x0) 0x43-0x43.7 (1)
0x040|            02                                 |    .           |                x: 2 0x44-0x44.7 (1)
     |                                               |                |            [3]{}: ex 0x45-0x4c.7 (8)
     |                                               |                |              nm{}: 0x45-0x4a.7 (6)
0x040|               05                              |     .          |                n: 5 0x45-0x45.7 (1)
0x040|                  6c 6f 6f 70 33               |      loop3     |                b: "loop3" 0x46-0x4a.7 (5)
     |                                               |                |              d{}: 0x4b-0x4c.7 (2)
0x040|                                 00            |           .    |                tag: "funcidx" (0x0) 0x4b-0x4b.7 (1)
0x040|                                    03         |            .   |                x: 3 0x4c-0x4c.7 (1)
     |                                               |                |            [4]{}: ex 0x4d-0x54.7 (8)
     |                                               |                |              nm{}: 0x4d-0x52.7 (6)
0x040|                                       05      |             .  |                n: 5 0x4d-0x4d.7 (1)
0x040|                                          6c 6f|              lo|                b: "loop4" 0x4e-0x52.7 (5)
0x050|6f 70 34                                       |op4             |
     |                                               |                |              d{}: 0x53-0x54.7 (2)
0x050|         00                                    |   .            |                tag: "funcidx" (0x0) 0x53-0x53.7 (1)
0x050|            04                                 |    .           |                x: 4 0x54-0x54.7 (1)
     |                                               |                |            [5]{}: ex 0x55-0x5c.7 (8)
     |                                               |                |              nm{}: 0x55-0x5a.7 (6)
0x050|               05                              |     .          |                n: 5 0x55-0x55.7 (1)
0x050|                  6c 6f 6f 70 35               |      loop5     |                b: "loop5" 0x56-0x5a.7 (5)
     |                                               |                |              d{}: 0x5b-0x5c.7 (2)
0x050|                                 00            |           .    |                tag: "funcidx" (0x0) 0x5b-0x5b.7 (1)
0x050|                                    05         |            .   |                x: 5 0x5c-0x5c.7 (1)
     |                                               |                |            [6]{}: ex 0x5d-0x64.7 (8)
     |                                               |                |              nm{}: 0x5d-0x62.7 (6)
0x050|                                       05      |             .  |                n: 5 0x5d-0x5d.7 (1)
0x050|                                          6c 6f|              lo|                b: "loop6" 0x5e-0x62.7 (5)
0x060|6f 70 36                                       |op6             |
     |                                               |                |              d{}: 0x63-0x64.7 (2)
0x060|         00                                    |   .            |                tag: "funcidx" (0x0) 0x63-0x63.7 (1)
0x060|            06                                 |    .           |                x: 6 0x64-0x64.7 (1)
     |                                               |                |            [7]{}: ex 0x65-0x69.7 (5)
     |                                               |                |              nm{}: 0x65-0x67.7 (3)
0x060|               02                              |     .          |                n: 2 0x65-0x65.7 (1)
0x060|                  69 66                        |      if        |                b: "if" 0x66-0x67.7 (2)
     |                                               |                |              d{}: 0x68-0x69.7 (2)
0x060|                        00                     |        .       |                tag: "funcidx" (0x0) 0x68-0x68.7 (1)
0x060|                           07                  |         .      |                x: 7 0x69-0x69.7 (1)
     |                                               |                |            [8]{}: ex 0x6a-0x6f.7 (6)
     |                                               |                |              nm{}: 0x6a-0x6d.7 (4)
0x060|                              03               |          .     |                n: 3 0x6a-0x6a.7 (1)
0x060|                                 69 66 32      |           if2  |                b: "if2" 0x6b-0x6d.7 (3)
     |                                               |                |              d{}: 0x6e-0x6f.7 (2)
0x060|                                          00   |              . |                tag: "funcidx" (0x0) 0x6e-0x6e.7 (1)
0x060|                                             08|               .|                x: 8 0x6f-0x6f.7 (1)
     |                                               |                |            [9]{}: ex 0x70-0x78.7 (9)
     |                                               |                |              nm{}: 0x70-0x76.7 (7)
0x070|06                                             |.               |                n: 6 0x70-0x70.7 (1)
0x070|   73 77 69 74 63 68                           | switch         |                b: "switch" 0x71-0x76.7 (6)
     |                                               |                |              d{}: 0x77-0x78.7 (2)
0x070|                     00                        |       .        |                tag: "funcidx" (0x0) 0x77-0x77.7 (1)
0x070|                        09                     |        .       |                x: 9 0x78-0x78.7 (1)
     |                                               |                |            [10]{}: ex 0x79-0x81.7 (9)
     |                                               |                |              nm{}: 0x79-0x7f.7 (7)
0x070|                           06                  |         .      |                n: 6 0x79-0x79.7 (1)
0x070|                              72 65 74 75 72 6e|          return|                b: "return" 0x7a-0x7f.7 (6)
     |                                               |                |              d{}: 0x80-0x81.7 (2)
0x080|00                                             |.               |                tag: "funcidx" (0x0) 0x80-0x80.7 (1)
0x080|   0a                                          | .              |                x: 10 0x81-0x81.7 (1)
     |                                               |                |            [11]{}: ex 0x82-0x8a.7 (9)
     |                                               |                |              nm{}: 0x82-0x88.7 (7)
0x080|      06                                       |  .             |                n: 6 0x82-0x82.7 (1)
0x080|         62 72 5f 69 66 30                     |   br_if0       |                b: "br_if0" 0x83-0x88.7 (6)
     |                                               |                |              d{}: 0x89-0x8a.7 (2)
0x080|                           00                  |         .      |                tag: "funcidx" (0x0) 0x89-0x89.7 (1)
0x080|                              0b               |          .     |                x: 11 0x8a-0x8a.7 (1)
     |                                               |                |            [12]{}: ex 0x8b-0x93.7 (9)
     |                                               |                |              nm{}: 0x8b-0x91.7 (7)
0x080|                                 06            |           .    |                n: 6 0x8b-0x8b.7 (1)
0x080|                                    62 72 5f 69|            br_i|                b: "br_if1" 0x8c-0x91.7 (6)
0x090|66 31                                          |f1              |
     |                                               |                |              d{}: 0x92-0x93.7 (2)
0x090|      00                                       |  .             |                tag: "funcidx" (0x0) 0x92-0x92.7 (1)
0x090|         0c                                    |   .            |                x: 12 0x93-0x93.7 (1)
     |                                               |                |            [13]{}: ex 0x94-0x9c.7 (9)
     |                                               |                |              nm{}: 0x94-0x9a.7 (7)
0x090|            06                                 |    .           |                n: 6 0x94-0x94.7 (1)
0x090|               62 72 5f 69 66 32               |     br_if2     |                b: "br_if2" 0x95-0x9a.7 (6)
     |                                               |                |              d{}: 0x9b-0x9c.7 (2)
0x090|                                 00            |           .    |                tag: "funcidx" (0x0) 0x9b-0x9b.7 (1)
0x090|                                    0d         |            .   |                x: 13 0x9c-0x9c.7 (1)
     |                                               |                |            [14]{}: ex 0x9d-0xa5.7 (9)
     |                                               |                |              nm{}: 0x9d-0xa3.7 (7)
0x090|                                       06      |             .  |                n: 6 0x9d-0x9d.7 (1)
0x090|                                          62 72|              br|                b: "br_if3" 0x9e-0xa3.7 (6)
0x0a0|5f 69 66 33                                    |_if3            |
     |                                               |                |              d{}: 0xa4-0xa5.7 (2)
0x0a0|            00                                 |    .           |                tag: "funcidx" (0x0) 0xa4-0xa4.7 (1)
0x0a0|               0e                              |     .          |                x: 14 0xa5-0xa5.7 (1)
     |                                               |                |            [15]{}: ex 0xa6-0xaa.7 (5)
     |                                               |                |              nm{}: 0xa6-0xa8.7 (3)
0x0a0|                  02                           |      .         |                n: 2 0xa6-0xa6.7 (1)
0x0a0|                     62 72                     |       br       |                b: "br" 0xa7-0xa8.7 (2)
     |                                               |                |              d{}: 0xa9-0xaa.7 (2)
0x0a0|                           00                  |         .      |                tag: "funcidx" (0x0) 0xa9-0xa9.7 (1)
0x0a0|                              0f               |          .     |                x: 15 0xaa-0xaa.7 (1)
     |                                               |                |            [16]{}: ex 0xab-0xb6.7 (12)
     |                                               |                |              nm{}: 0xab-0xb4.7 (10)
0x0a0|                                 09            |           .    |                n: 9 0xab-0xab.7 (1)
0x0a0|                                    73 68 61 64|            shad|                b: "shadowing" 0xac-0xb4.7 (9)
0x0b0|6f 77 69 6e 67                                 |owing           |
     |                                               |                |              d{}: 0xb5-0xb6.7 (2)
0x0b0|               00                              |     .          |                tag: "funcidx" (0x0) 0xb5-0xb5.7 (1)
0x0b0|                  10                           |      .         |                x: 16 0xb6-0xb6.7 (1)
     |                                               |                |            [17]{}: ex 0xb7-0xc5.7 (15)
     |                                               |                |              nm{}: 0xb7-0xc3.7 (13)
0x0b0|                     0c                        |       .        |                n: 12 0xb7-0xb7.7 (1)
0x0b0|                        72 65 64 65 66 69 6e 69|        redefini|                b: "redefinition" 0xb8-0xc3.7 (12)
0x0c0|74 69 6f 6e                                    |tion            |
     |                                               |                |              d{}: 0xc4-0xc5.7 (2)
0x0c0|            00                                 |    .           |                tag: "funcidx" (0x0) 0xc4-0xc4.7 (1)
0x0c0|               11                              |     .          |                x: 17 0xc5-0xc5.7 (1)
     |                                               |                |    [3]{}: section 0xc6-0x3cb.7 (774)
0x0c0|                  0a                           |      .         |      id: "code section" (10) 0xc6-0xc6.7 (1)
0x0c0|                     83 06                     |       ..       |      size: 771 0xc7-0xc8.7 (2)
     |                                               |                |      content{}: 0xc9-0x3cb.7 (771)
     |                                               |                |        code{}: 0xc9-0x3cb.7 (771)
0x0c0|                           12                  |         .      |          n: 18 0xc9-0xc9.7 (1)
     |                                               |                |          x[0:18]: 0xca-0x3cb.7 (770)
     |                                               |                |            [0]{}: code 0xca-0xd5.7 (12)
0x0c0|                              0b               |          .     |              size: 11 0xca-0xca.7 (1)
     |                                               |                |              code{}: 0xcb-0xd5.7 (11)
     |                                               |                |                t{}: 0xcb-0xcb.7 (1)
0x0c0|                                 00            |           .    |                  n: 0 0xcb-0xcb.7 (1)
     |                                               |                |                  x[0:0]: 0xcc-NA (0)
     |                                               |                |                e[0:2]: 0xcc-0xd5.7 (10)
     |                                               |                |                  [0]{}: in 0xcc-0xd4.7 (9)
0x0c0|                                    02         |            .   |                    block: 0x2 (valid) 0xcc-0xcc.7 (1)
0x0c0|                                       7f      |             .  |                    bt: "i32" (127) 0xcd-0xcd.7 (1)
     |                                               |                |                    instructions[0:3]: 0xce-0xd3.7 (6)
     |                                               |                |                      [0]{}: instr 0xce-0xcf.7 (2)
0x0c0|                                          41   |              A |                        i32.const: 0x41 (valid) 0xce-0xce.7 (1)
0x0c0|                                             01|               .|                        n: 1 0xcf-0xcf.7 (1)
     |                                               |                |                      [1]{}: instr 0xd0-0xd1.7 (2)
0x0d0|0c                                             |.               |                        br: 0xc (valid) 0xd0-0xd0.7 (1)
0x0d0|   00                                          | .              |                        l: 0 0xd1-0xd1.7 (1)
     |                                               |                |                      [2]{}: instr 0xd2-0xd3.7 (2)
0x0d0|      41                                       |  A             |                        i32.const: 0x41 (valid) 0xd2-0xd2.7 (1)
0x0d0|         00                                    |   .            |                        n: 0 0xd3-0xd3.7 (1)
0x0d0|            0b                                 |    .           |                    end: 11 (valid) 0xd4-0xd4.7 (1)
     |                                               |                |                  [1]{}: in 0xd5-0xd5.7 (1)
0x0d0|               0b                              |     .          |                    end: 0xb (valid) 0xd5-0xd5.7 (1)
     |                                               |                |            [1]{}: code 0xd6-0xf9.7 (36)
0x0d0|                  23                           |      #         |              size: 35 0xd6-0xd6.7 (1)
     |                                               |                |              code{}: 0xd7-0xf9.7 (35)
     |                                               |                |                t{}: 0xd7-0xd9.7 (3)
0x0d0|                     01                        |       .        |                  n: 1 0xd7-0xd7.7 (1)
     |                                               |                |                  x[0:1]: 0xd8-0xd9.7 (2)
     |                                               |                |                    [0]{}: t 0xd8-0xd9.7 (2)
0x0d0|                        01                     |        .       |                      n: 1 0xd8-0xd8.7 (1)
0x0d0|                           7f                  |         .      |                      t: "i32" (0x7f) 0xd9-0xd9.7 (1)
     |                                               |                |                e[0:4]: 0xda-0xf9.7 (32)
     |                                               |                |                  [0]{}: in 0xda-0xdb.7 (2)
0x0d0|                              41               |          A     |                    i32.const: 0x41 (valid) 0xda-0xda.7 (1)
0x0d0|                                 00            |           .    |                    n: 0 0xdb-0xdb.7 (1)
     |                                               |                |                  [1]{}: in 0xdc-0xdd.7 (2)
0x0d0|                                    21         |            !   |                    local.set: 0x21 (valid) 0xdc-0xdc.7 (1)
0x0d0|                                       00      |             .  |                    x: 0 0xdd-0xdd.7 (1)
     |                                               |                |                  [2]{}: in 0xde-0xf8.7 (27)
0x0d0|                                          02   |              . |                    block: 0x2 (valid) 0xde-0xde.7 (1)
0x0d0|                                             7f|               .|                    bt: "i32" (127) 0xdf-0xdf.7 (1)
     |                                               |                |                    instructions[0:1]: 0xe0-0xf7.7 (24)
     |                                               |                |                      [0]{}: instr 0xe0-0xf7.7 (24)
0x0e0|03                                             |.               |                        loop: 0x3 (valid) 0xe0-0xe0.7 (1)
0x0e0|   7f                                          | .              |                        bt: "i32" (127) 0xe1-0xe1.7 (1)
     |                                               |                |                        instructions[0:9]: 0xe2-0xf6.7 (21)
     |                                               |                |                          [0]{}: instr 0xe2-0xe3.7 (2)
0x0e0|      20                                       |                |                            local.get: 0x20 (valid) 0xe2-0xe2.7 (1)
0x0e0|         00                                    |   .            |                            x: 0 0xe3-0xe3.7 (1)
     |                                               |                |                          [1]{}: instr 0xe4-0xe5.7 (2)
0x0e0|            41                                 |    A           |                            i32.const: 0x41 (valid) 0xe4-0xe4.7 (1)
0x0e0|               01                              |     .          |                            n: 1 0xe5-0xe5.7 (1)
     |                                               |                |                          [2]{}: instr 0xe6-0xe6.7 (1)
0x0e0|                  6a                           |      j         |                            i32.add: 0x6a (valid) 0xe6-0xe6.7 (1)
     |                                               |                |                          [3]{}: instr 0xe7-0xe8.7 (2)
0x0e0|                     21                        |       !        |                            local.set: 0x21 (valid) 0xe7-0xe7.7 (1)
0x0e0|                        00                     |        .       |                            x: 0 0xe8-0xe8.7 (1)
     |                                               |                |                          [4]{}: instr 0xe9-0xea.7 (2)
0x0e0|                           20                  |                |                            local.get: 0x20 (valid) 0xe9-0xe9.7 (1)
0x0e0|                              00               |          .     |                            x: 0 0xea-0xea.7 (1)
     |                                               |                |                          [5]{}: instr 0xeb-0xec.7 (2)
0x0e0|                                 41            |           A    |                            i32.const: 0x41 (valid) 0xeb-0xeb.7 (1)
0x0e0|                                    05         |            .   |                            n: 5 0xec-0xec.7 (1)
     |                                               |                |                          [6]{}: instr 0xed-0xed.7 (1)
0x0e0|                                       46      |             F  |                            i32.eq: 0x46 (valid) 0xed-0xed.7 (1)
     |                                               |                |                          [7]{}: instr 0xee-0xf4.7 (7)
0x0e0|                                          04   |              . |                            if: 0x4 (valid) 0xee-0xee.7 (1)
0x0e0|                                             40|               @|                            bt: "ε" (64) 0xef-0xef.7 (1)
     |                                               |                |                            in1[0:2]: 0xf0-0xf3.7 (4)
     |                                               |                |                              [0]{}: instr 0xf0-0xf1.7 (2)
0x0f0|20                                             |                |                                local.get: 0x20 (valid) 0xf0-0xf0.7 (1)
0x0f0|   00                                          | .              |                                x: 0 0xf1-0xf1.7 (1)
     |                                               |                |                              [1]{}: instr 0xf2-0xf3.7 (2)
0x0f0|      0c                                       |  .             |                                br: 0xc (valid) 0xf2-0xf2.7 (1)
0x0f0|         02                                    |   .            |                                l: 2 0xf3-0xf3.7 (1)
0x0f0|            0b                                 |    .           |                            end: 11 (valid) 0xf4-0xf4.7 (1)
     |                                               |                |                          [8]{}: instr 0xf5-0xf6.7 (2)
0x0f0|               0c                              |     .          |                            br: 0xc (valid) 0xf5-0xf5.7 (1)
0x0f0|                  00                           |      .         |                            l: 0 0xf6-0xf6.7 (1)
0x0f0|                     0b                        |       .        |                        end: 11 (valid) 0xf7-0xf7.7 (1)
0x0f0|                        0b                     |        .       |                    end: 11 (valid) 0xf8-0xf8.7 (1)
     |                                               |                |                  [3]{}: in 0xf9-0xf9.7 (1)
0x0f0|                           0b                  |         .      |                    end: 0xb (valid) 0xf9-0xf9.7 (1)
     |                                               |                |            [2]{}: code 0xfa-0x12e.7 (53)
0x0f0|                              34               |          4     |              size: 52 0xfa-0xfa.7 (1)
     |                                               |                |              code{}: 0xfb-0x12e.7 (52)
     |                                               |                |                t{}: 0xfb-0xfd.7 (3)
0x0f0|                                 01            |           .    |                  n: 1 0xfb-0xfb.7 (1)
     |                                               |                |                  x[0:1]: 0xfc-0xfd.7 (2)
     |                                               |                |                    [0]{}: t 0xfc-0xfd.7 (2)
0x0f0|                                    01         |            .   |                      n: 1 0xfc-0xfc.7 (1)
0x0f0|                                       7f      |             .  |                      t: "i32" (0x7f) 0xfd-0xfd.7 (1)
     |                                               |                |                e[0:4]: 0xfe-0x12e.7 (49)
     |                                               |                |                  [0]{}: in 0xfe-0xff.7 (2)
0x0f0|                                          41   |              A |                    i32.const: 0x41 (valid) 0xfe-0xfe.7 (1)
0x0f0|                                             00|               .|                    n: 0 0xff-0xff.7 (1)
     |                                               |                |                  [1]{}: in 0x100-0x101.7 (2)
0x100|21                                             |!               |                    local.set: 0x21 (valid) 0x100-0x100.7 (1)
0x100|   00                                          | .              |                    x: 0 0x101-0x101.7 (1)
     |                                               |                |                  [2]{}: in 0x102-0x12d.7 (44)
0x100|      02                                       |  .             |                    block: 0x2 (valid) 0x102-0x102.7 (1)
0x100|         7f                                    |   .            |                    bt: "i32" (127) 0x103-0x103.7 (1)
     |                                               |                |                    instructions[0:1]: 0x104-0x12c.7 (41)
     |                                               |                |                      [0]{}: instr 0x104-0x12c.7 (41)
0x100|            03                                 |    .           |                        loop: 0x3 (valid) 0x104-0x104.7 (1)
0x100|               7f                              |     .          |                        bt: "i32" (127) 0x105-0x105.7 (1)
     |                                               |                |                        instructions[0:17]: 0x106-0x12b.7 (38)
     |                                               |                |                          [0]{}: instr 0x106-0x107.7 (2)
0x100|                  20                           |                |                            local.get: 0x20 (valid) 0x106-0x106.7 (1)
0x100|                     00                        |       .        |                            x: 0 0x107-0x107.7 (1)
     |                                               |                |                          [1]{}: instr 0x108-0x109.7 (2)
0x100|                        41                     |        A       |                            i32.const: 0x41 (valid) 0x108-0x108.7 (1)
0x100|                           01                  |         .      |                            n: 1 0x109-0x109.7 (1)
     |                                               |                |                          [2]{}: instr 0x10a-0x10a.7 (1)
0x100|                              6a               |          j     |                            i32.add: 0x6a (valid) 0x10a-0x10a.7 (1)
     |                                               |                |                          [3]{}: instr 0x10b-0x10c.7 (2)
0x100|                                 21            |           !    |                            local.set: 0x21 (valid) 0x10b-0x10b.7 (1)
0x100|                                    00         |            .   |                            x: 0 0x10c-0x10c.7 (1)
     |                                               |                |                          [4]{}: instr 0x10d-0x10e.7 (2)
0x100|                                       20      |                |                            local.get: 0x20 (valid) 0x10d-0x10d.7 (1)
0x100|                                          00   |              . |                            x: 0 0x10e-0x10e.7 (1)
     |                                               |                |                          [5]{}: instr 0x10f-0x110.7 (2)
0x100|                                             41|               A|                            i32.const: 0x41 (valid) 0x10f-0x10f.7 (1)
0x110|05                                             |.               |                            n: 5 0x110-0x110.7 (1)
     |                                               |                |                          [6]{}: instr 0x111-0x111.7 (1)
0x110|   46                                          | F              |                            i32.eq: 0x46 (valid) 0x111-0x111.7 (1)
     |                                               |                |                          [7]{}: instr 0x112-0x116.7 (5)
0x110|      04                                       |  .             |                            if: 0x4 (valid) 0x112-0x112.7 (1)
0x110|         40                                    |   @            |                            bt: "ε" (64) 0x113-0x113.7 (1)
     |                                               |                |                            in1[0:1]: 0x114-0x115.7 (2)
     |                                               |                |                              [0]{}: instr 0x114-0x115.7 (2)
0x110|            0c                                 |    .           |                                br: 0xc (valid) 0x114-0x114.7 (1)
0x110|               01                              |     .          |                                l: 1 0x115-0x115.7 (1)
0x110|                  0b                           |      .         |                            end: 11 (valid) 0x116-0x116.7 (1)
     |                                               |                |                          [8]{}: instr 0x117-0x118.7 (2)
0x110|                     20                        |                |                            local.get: 0x20 (valid) 0x117-0x117.7 (1)
0x110|                        00                     |        .       |                            x: 0 0x118-0x118.7 (1)
     |                                               |                |                          [9]{}: instr 0x119-0x11a.7 (2)
0x110|                           41                  |         A      |                            i32.const: 0x41 (valid) 0x119-0x119.7 (1)
0x110|                              08               |          .     |                            n: 8 0x11a-0x11a.7 (1)
     |                                               |                |                          [10]{}: instr 0x11b-0x11b.7 (1)
0x110|                                 46            |           F    |                            i32.eq: 0x46 (valid) 0x11b-0x11b.7 (1)
     |                                               |                |                          [11]{}: instr 0x11c-0x122.7 (7)
0x110|                                    04         |            .   |                            if: 0x4 (valid) 0x11c-0x11c.7 (1)
0x110|                                       40      |             @  |                            bt: "ε" (64) 0x11d-0x11d.7 (1)
     |                                               |                |                            in1[0:2]: 0x11e-0x121.7 (4)
     |                                               |                |                              [0]{}: instr 0x11e-0x11f.7 (2)
0x110|                                          20   |                |                                local.get: 0x20 (valid) 0x11e-0x11e.7 (1)
0x110|                                             00|               .|                                x: 0 0x11f-0x11f.7 (1)
     |                                               |                |                              [1]{}: instr 0x120-0x121.7 (2)
0x120|0c                                             |.               |                                br: 0xc (valid) 0x120-0x120.7 (1)
0x120|   02                                          | .              |                                l: 2 0x121-0x121.7 (1)
0x120|      0b                                       |  .             |                            end: 11 (valid) 0x122-0x122.7 (1)
     |                                               |                |                          [12]{}: instr 0x123-0x124.7 (2)
0x120|         20                                    |                |                            local.get: 0x20 (valid) 0x123-0x123.7 (1)
0x120|            00                                 |    .           |                            x: 0 0x124-0x124.7 (1)
     |                                               |                |                          [13]{}: instr 0x125-0x126.7 (2)
0x120|               41                              |     A          |                            i32.const: 0x41 (valid) 0x125-0x125.7 (1)
0x120|                  01                           |      .         |                            n: 1 0x126-0x126.7 (1)
     |                                               |                |                          [14]{}: instr 0x127-0x127.7 (1)
0x120|                     6a                        |       j        |                            i32.add: 0x6a (valid) 0x127-0x127.7 (1)
     |                                               |                |                          [15]{}: instr 0x128-0x129.7 (2)
0x120|                        21                     |        !       |                            local.set: 0x21 (valid) 0x128-0x128.7 (1)
0x120|                           00                  |         .      |                            x: 0 0x129-0x129.7 (1)
     |                                               |                |                          [16]{}: instr 0x12a-0x12b.7 (2)
0x120|                              0c               |          .     |                            br: 0xc (valid) 0x12a-0x12a.7 (1)
0x120|                                 00            |           .    |                            l: 0 0x12b-0x12b.7 (1)
0x120|                                    0b         |            .   |                        end: 11 (valid) 0x12c-0x12c.7 (1)
0x120|                                       0b      |             .  |                    end: 11 (valid) 0x12d-0x12d.7 (1)
     |                                               |                |                  [3]{}: in 0x12e-0x12e.7 (1)
0x120|                                          0b   |              . |                    end: 0xb (valid) 0x12e-0x12e.7 (1)
     |                                               |                |            [3]{}: code 0x12f-0x152.7 (36)
0x120|                                             23|               #|              size: 35 0x12f-0x12f.7 (1)
     |                                               |                |              code{}: 0x130-0x152.7 (35)
     |                                               |                |                t{}: 0x130-0x132.7 (3)
0x130|01                                             |.               |                  n: 1 0x130-0x130.7 (1)
     |                                               |                |                  x[0:1]: 0x131-0x132.7 (2)
     |                                               |                |                    [0]{}: t 0x131-0x132.7 (2)
0x130|   01                                          | .              |                      n: 1 0x131-0x131.7 (1)
0x130|      7f                                       |  .             |                      t: "i32" (0x7f) 0x132-0x132.7 (1)
     |                                               |                |                e[0:4]: 0x133-0x152.7 (32)
     |                                               |                |                  [0]{}: in 0x133-0x134.7 (2)
0x130|         41                                    |   A            |                    i32.const: 0x41 (valid) 0x133-0x133.7 (1)
0x130|            00                                 |    .           |                    n: 0 0x134-0x134.7 (1)
     |                                               |                |                  [1]{}: in 0x135-0x136.7 (2)
0x130|               21                              |     !          |                    local.set: 0x21 (valid) 0x135-0x135.7 (1)
0x130|                  00                           |      .         |                    x: 0 0x136-0x136.7 (1)
     |                                               |                |                  [2]{}: in 0x137-0x151.7 (27)
0x130|                     02                        |       .        |                    block: 0x2 (valid) 0x137-0x137.7 (1)
0x130|                        7f                     |        .       |                    bt: "i32" (127) 0x138-0x138.7 (1)
     |                                               |                |                    instructions[0:1]: 0x139-0x150.7 (24)
     |                                               |                |                      [0]{}: instr 0x139-0x150.7 (24)
0x130|                           03                  |         .      |                        loop: 0x3 (valid) 0x139-0x139.7 (1)
0x130|                              7f               |          .     |                        bt: "i32" (127) 0x13a-0x13a.7 (1)
     |                                               |                |                        instructions[0:9]: 0x13b-0x14f.7 (21)
     |                                               |                |                          [0]{}: instr 0x13b-0x13c.7 (2)
0x130|                                 20            |                |                            local.get: 0x20 (valid) 0x13b-0x13b.7 (1)
0x130|                                    00         |            .   |                            x: 0 0x13c-0x13c.7 (1)
     |                                               |                |                          [1]{}: instr 0x13d-0x13e.7 (2)
0x130|                                       41      |             A  |                            i32.const: 0x41 (valid) 0x13d-0x13d.7 (1)
0x130|                                          01   |              . |                            n: 1 0x13e-0x13e.7 (1)
     |                                               |                |                          [2]{}: instr 0x13f-0x13f.7 (1)
0x130|                                             6a|               j|                            i32.add: 0x6a (valid) 0x13f-0x13f.7 (1)
     |                                               |                |                          [3]{}: instr 0x140-0x141.7 (2)
0x140|21                                             |!               |                            local.set: 0x21 (valid) 0x140-0x140.7 (1)
0x140|   00                                          | .              |                            x: 0 0x141-0x141.7 (1)
     |                                               |                |                          [4]{}: instr 0x142-0x143.7 (2)
0x140|      20                                       |                |                            local.get: 0x20 (valid) 0x142-0x142.7 (1)
0x140|         00                                    |   .            |                            x: 0 0x143-0x143.7 (1)
     |                                               |                |                          [5]{}: instr 0x144-0x145.7 (2)
0x140|            41                                 |    A           |                            i32.const: 0x41 (valid) 0x144-0x144.7 (1)
0x140|               05                              |     .          |                            n: 5 0x145-0x145.7 (1)
     |                                               |                |                          [6]{}: instr 0x146-0x146.7 (1)
0x140|                  46                           |      F         |                            i32.eq: 0x46 (valid) 0x146-0x146.7 (1)
     |                                               |                |                          [7]{}: instr 0x147-0x14d.7 (7)
0x140|                     04                        |       .        |                            if: 0x4 (valid) 0x147-0x147.7 (1)
0x140|                        40                     |        @       |                            bt: "ε" (64) 0x148-0x148.7 (1)
     |                                               |                |                            in1[0:2]: 0x149-0x14c.7 (4)
     |                                               |                |                              [0]{}: instr 0x149-0x14a.7 (2)
0x140|                           20                  |                |                                local.get: 0x20 (valid) 0x149-0x149.7 (1)
0x140|                              00               |          .     |                                x: 0 0x14a-0x14a.7 (1)
     |                                               |                |                              [1]{}: instr 0x14b-0x14c.7 (2)
0x140|                                 0c            |           .    |                                br: 0xc (valid) 0x14b-0x14b.7 (1)
0x140|                                    02         |            .   |                                l: 2 0x14c-0x14c.7 (1)
0x140|                                       0b      |             .  |                            end: 11 (valid) 0x14d-0x14d.7 (1)
     |                                               |                |                          [8]{}: instr 0x14e-0x14f.7 (2)
0x140|                                          20   |                |                            local.get: 0x20 (valid) 0x14e-0x14e.7 (1)
0x140|                                             00|               .|                            x: 0 0x14f-0x14f.7 (1)
0x150|0b                                             |.               |                        end: 11 (valid) 0x150-0x150.7 (1)
0x150|   0b                                          | .              |                    end: 11 (valid) 0x151-0x151.7 (1)
     |                                               |                |                  [3]{}: in 0x152-0x152.7 (1)
0x150|      0b                                       |  .             |                    end: 0xb (valid) 0x152-0x152.7 (1)
     |                                               |                |            [4]{}: code 0x153-0x176.7 (36)
0x150|         23                                    |   #            |              size: 35 0x153-0x153.7 (1)
     |                                               |                |              code{}: 0x154-0x176.7 (35)
     |                                               |                |                t{}: 0x154-0x156.7 (3)
0x150|            01                                 |    .           |                  n: 1 0x154-0x154.7 (1)
     |                                               |                |                  x[0:1]: 0x155-0x156.7 (2)
     |                                               |                |                    [0]{}: t 0x155-0x156.7 (2)
0x150|               01                              |     .          |                      n: 1 0x155-0x155.7 (1)
0x150|                  7f                           |      .         |                      t: "i32" (0x7f) 0x156-0x156.7 (1)
     |                                               |                |                e[0:4]: 0x157-0x176.7 (32)
     |                                               |                |                  [0]{}: in 0x157-0x158.7 (2)
0x150|                     41                        |       A        |                    i32.const: 0x41 (valid) 0x157-0x157.7 (1)
0x150|                        01                     |        .       |                    n: 1 0x158-0x158.7 (1)
     |                                               |                |                  [1]{}: in 0x159-0x15a.7 (2)
0x150|                           21                  |         !      |                    local.set: 0x21 (valid) 0x159-0x159.7 (1)
0x150|                              01               |          .     |                    x: 1 0x15a-0x15a.7 (1)
     |                                               |                |                  [2]{}: in 0x15b-0x175.7 (27)
0x150|                                 02            |           .    |                    block: 0x2 (valid) 0x15b-0x15b.7 (1)
0x150|                                    7f         |            .   |                    bt: "i32" (127) 0x15c-0x15c.7 (1)
     |                                               |                |                    instructions[0:1]: 0x15d-0x174.7 (24)
     |                                               |                |                      [0]{}: instr 0x15d-0x174.7 (24)
0x150|                                       03      |             .  |                        loop: 0x3 (valid) 0x15d-0x15d.7 (1)
0x150|                                          7f   |              . |                        bt: "i32" (127) 0x15e-0x15e.7 (1)
     |                                               |                |                        instructions[0:9]: 0x15f-0x173.7 (21)
     |                                               |                |                          [0]{}: instr 0x15f-0x160.7 (2)
0x150|                                             20|                |                            local.get: 0x20 (valid) 0x15f-0x15f.7 (1)
0x160|01                                             |.               |                            x: 1 0x160-0x160.7 (1)
     |                                               |                |                          [1]{}: instr 0x161-0x162.7 (2)
0x160|   20                                          |                |                            local.get: 0x20 (valid) 0x161-0x161.7 (1)
0x160|      01                                       |  .             |                            x: 1 0x162-0x162.7 (1)
     |                                               |                |                          [2]{}: instr 0x163-0x163.7 (1)
0x160|         6a                                    |   j            |                            i32.add: 0x6a (valid) 0x163-0x163.7 (1)
     |                                               |                |                          [3]{}: instr 0x164-0x165.7 (2)
0x160|            21                                 |    !           |                            local.set: 0x21 (valid) 0x164-0x164.7 (1)
0x160|               01                              |     .          |                            x: 1 0x165-0x165.7 (1)
     |                                               |                |                          [4]{}: instr 0x166-0x167.7 (2)
0x160|                  20                           |                |                            local.get: 0x20 (valid) 0x166-0x166.7 (1)
0x160|                     01                        |       .        |                            x: 1 0x167-0x167.7 (1)
     |                                               |                |                          [5]{}: instr 0x168-0x169.7 (2)
0x160|                        20                     |                |                            local.get: 0x20 (valid) 0x168-0x168.7 (1)
0x160|                           00                  |         .      |                            x: 0 0x169-0x169.7 (1)
     |                                               |                |                          [6]{}: instr 0x16a-0x16a.7 (1)
0x160|                              4b               |          K     |                            i32.gt_u: 0x4b (valid) 0x16a-0x16a.7 (1)
     |                                               |                |                          [7]{}: instr 0x16b-0x171.7 (7)
0x160|                                 04            |           .    |                            if: 0x4 (valid) 0x16b-0x16b.7 (1)
0x160|                                    40         |            @   |                            bt: "ε" (64) 0x16c-0x16c.7 (1)
     |                                               |                |                            in1[0:2]: 0x16d-0x170.7 (4)
     |                                               |                |                              [0]{}: instr 0x16d-0x16e.7 (2)
0x160|                                       20      |                |                                local.get: 0x20 (valid) 0x16d-0x16d.7 (1)
0x160|                                          01   |              . |                                x: 1 0x16e-0x16e.7 (1)
     |                                               |                |                              [1]{}: instr 0x16f-0x170.7 (2)
0x160|                                             0c|               .|                                br: 0xc (valid) 0x16f-0x16f.7 (1)
0x170|02                                             |.               |                                l: 2 0x170-0x170.7 (1)
0x170|   0b                                          | .              |                            end: 11 (valid) 0x171-0x171.7 (1)
     |                                               |                |                          [8]{}: instr 0x172-0x173.7 (2)
0x170|      0c                                       |  .             |                            br: 0xc (valid) 0x172-0x172.7 (1)
0x170|         00                                    |   .            |                            l: 0 0x173-0x173.7 (1)
0x170|            0b                                 |    .           |                        end: 11 (valid) 0x174-0x174.7 (1)
0x170|               0b                              |     .          |                    end: 11 (valid) 0x175-0x175.7 (1)
     |                                               |                |                  [3]{}: in 0x176-0x176.7 (1)
0x170|                  0b                           |      .         |                    end: 0xb (valid) 0x176-0x176.7 (1)
     |                                               |                |            [5]{}: code 0x177-0x181.7 (11)
0x170|                     0a                        |       .        |              size: 10 0x177-0x177.7 (1)
     |                                               |                |              code{}: 0x178-0x181.7 (10)
     |                                               |                |                t{}: 0x178-0x178.7 (1)
0x170|                        00                     |        .       |                  n: 0 0x178-0x178.7 (1)
     |                                               |                |                  x[0:0]: 0x179-NA (0)
     |                                               |                |                e[0:4]: 0x179-0x181.7 (9)
     |                                               |                |                  [0]{}: in 0x179-0x17d.7 (5)
0x170|                           03                  |         .      |                    loop: 0x3 (valid) 0x179-0x179.7 (1)
0x170|                              7f               |          .     |                    bt: "i32" (127) 0x17a-0x17a.7 (1)
     |                                               |                |                    instructions[0:1]: 0x17b-0x17c.7 (2)
     |                                               |                |                      [0]{}: instr 0x17b-0x17c.7 (2)
0x170|                                 41            |           A    |                        i32.const: 0x41 (valid) 0x17b-0x17b.7 (1)
0x170|                                    01         |            .   |                        n: 1 0x17c-0x17c.7 (1)
0x170|                                       0b      |             .  |                    end: 11 (valid) 0x17d-0x17d.7 (1)
     |                                               |                |                  [1]{}: in 0x17e-0x17f.7 (2)
0x170|                                          41   |              A |                    i32.const: 0x41 (valid) 0x17e-0x17e.7 (1)
0x170|                                             01|               .|                    n: 1 0x17f-0x17f.7 (1)
     |                                               |                |                  [2]{}: in 0x180-0x180.7 (1)
0x180|6a                                             |j               |                    i32.add: 0x6a (valid) 0x180-0x180.7 (1)
     |                                               |                |                  [3]{}: in 0x181-0x181.7 (1)
0x180|   0b                                          | .              |                    end: 0xb (valid) 0x181-0x181.7 (1)
     |                                               |                |            [6]{}: code 0x182-0x18d.7 (12)
0x180|      0b                                       |  .             |              size: 11 0x182-0x182.7 (1)
     |                                               |                |              code{}: 0x183-0x18d.7 (11)
     |                                               |                |                t{}: 0x183-0x183.7 (1)
0x180|         00                                    |   .            |                  n: 0 0x183-0x183.7 (1)
     |                                               |                |                  x[0:0]: 0x184-NA (0)
     |                                               |                |                e[0:2]: 0x184-0x18d.7 (10)
     |                                               |                |                  [0]{}: in 0x184-0x18c.7 (9)
0x180|            03                                 |    .           |                    loop: 0x3 (valid) 0x184-0x184.7 (1)
0x180|               7f                              |     .          |                    bt: "i32" (127) 0x185-0x185.7 (1)
     |                                               |                |                    instructions[0:3]: 0x186-0x18b.7 (6)
     |                                               |                |                      [0]{}: instr 0x186-0x187.7 (2)
0x180|                  41                           |      A         |                        i32.const: 0x41 (valid) 0x186-0x186.7 (1)
0x180|                     00                        |       .        |                        n: 0 0x187-0x187.7 (1)
     |                                               |                |                      [1]{}: instr 0x188-0x189.7 (2)
0x180|                        0d                     |        .       |                        br_if: 0xd (valid) 0x188-0x188.7 (1)
0x180|                           00                  |         .      |                        l: 0 0x189-0x189.7 (1)
     |                                               |                |                      [2]{}: instr 0x18a-0x18b.7 (2)
0x180|                              41               |          A     |                        i32.const: 0x41 (valid) 0x18a-0x18a.7 (1)
0x180|                                 03            |           .    |                        n: 3 0x18b-0x18b.7 (1)
0x180|                                    0b         |            .   |                    end: 11 (valid) 0x18c-0x18c.7 (1)
     |                                               |                |                  [1]{}: in 0x18d-0x18d.7 (1)
0x180|                                       0b      |             .  |                    end: 0xb (valid) 0x18d-0x18d.7 (1)
     |                                               |                |            [7]{}: code 0x18e-0x213.7 (134)
0x180|                                          84 01|              ..|              size: 132 0x18e-0x18f.7 (2)
     |                                               |                |              code{}: 0x190-0x213.7 (132)
     |                                               |                |                t{}: 0x190-0x192.7 (3)
0x190|01                                             |.               |                  n: 1 0x190-0x190.7 (1)
     |                                               |                |                  x[0:1]: 0x191-0x192.7 (2)
     |                                               |                |                    [0]{}: t 0x191-0x192.7 (2)
0x190|   01                                          | .              |                      n: 1 0x191-0x191.7 (1)
0x190|      7f                                       |  .             |                      t: "i32" (0x7f) 0x192-0x192.7 (1)
     |                                               |                |                e[0:5]: 0x193-0x213.7 (129)
     |                                               |                |                  [0]{}: in 0x193-0x194.7 (2)
0x190|         41                                    |   A            |                    i32.const: 0x41 (valid) 0x193-0x193.7 (1)
0x190|            00                                 |    .           |                    n: 0 0x194-0x194.7 (1)
     |                                               |                |                  [1]{}: in 0x195-0x196.7 (2)
0x190|               21                              |     !          |                    local.set: 0x21 (valid) 0x195-0x195.7 (1)
0x190|                  00                           |      .         |                    x: 0 0x196-0x196.7 (1)
     |                                               |                |                  [2]{}: in 0x197-0x210.7 (122)
0x190|                     02                        |       .        |                    block: 0x2 (valid) 0x197-0x197.7 (1)
0x190|                        40                     |        @       |                    bt: "ε" (64) 0x198-0x198.7 (1)
     |                                               |                |                    instructions[0:30]: 0x199-0x20f.7 (119)
     |                                               |                |                      [0]{}: instr 0x199-0x19a.7 (2)
0x190|                           41                  |         A      |                        i32.const: 0x41 (valid) 0x199-0x199.7 (1)
0x190|                              01               |          .     |                        n: 1 0x19a-0x19a.7 (1)
     |                                               |                |                      [1]{}: instr 0x19b-0x1a4.7 (10)
0x190|                                 04            |           .    |                        if: 0x4 (valid) 0x19b-0x19b.7 (1)
0x190|                                    40         |            @   |                        bt: "ε" (64) 0x19c-0x19c.7 (1)
     |                                               |                |                        in1[0:3]: 0x19d-0x1a3.7 (7)
     |                                               |                |                          [0]{}: instr 0x19d-0x19e.7 (2)
0x190|                                       0c      |             .  |                            br: 0xc (valid) 0x19d-0x19d.7 (1)
0x190|                                          00   |              . |                            l: 0 0x19e-0x19e.7 (1)
     |                                               |                |                          [1]{}: instr 0x19f-0x1a1.7 (3)
0x190|                                             41|               A|                            i32.const: 0x41 (valid) 0x19f-0x19f.7 (1)
0x1a0|9a 05                                          |..              |                            n: 666 0x1a0-0x1a1.7 (2)
     |                                               |                |                          [2]{}: instr 0x1a2-0x1a3.7 (2)
0x1a0|      21                                       |  !             |                            local.set: 0x21 (valid) 0x1a2-0x1a2.7 (1)
0x1a0|         00                                    |   .            |                            x: 0 0x1a3-0x1a3.7 (1)
0x1a0|            0b                                 |    .           |                        end: 11 (valid) 0x1a4-0x1a4.7 (1)
     |                                               |                |                      [2]{}: instr 0x1a5-0x1a6.7 (2)
0x1a0|               20                              |                |                        local.get: 0x20 (valid) 0x1a5-0x1a5.7 (1)
0x1a0|                  00                           |      .         |                        x: 0 0x1a6-0x1a6.7 (1)
     |                                               |                |                      [3]{}: instr 0x1a7-0x1a8.7 (2)
0x1a0|                     41                        |       A        |                        i32.const: 0x41 (valid) 0x1a7-0x1a7.7 (1)
0x1a0|                        01                     |        .       |                        n: 1 0x1a8-0x1a8.7 (1)
     |                                               |                |                      [4]{}: instr 0x1a9-0x1a9.7 (1)
0x1a0|                           6a                  |         j      |                        i32.add: 0x6a (valid) 0x1a9-0x1a9.7 (1)
     |                                               |                |                      [5]{}: instr 0x1aa-0x1ab.7 (2)
0x1a0|                              21               |          !     |                        local.set: 0x21 (valid) 0x1aa-0x1aa.7 (1)
0x1a0|                                 00            |           .    |                        x: 0 0x1ab-0x1ab.7 (1)
     |                                               |                |                      [6]{}: instr 0x1ac-0x1ad.7 (2)
0x1a0|                                    41         |            A   |                        i32.const: 0x41 (valid) 0x1ac-0x1ac.7 (1)
0x1a0|                                       01      |             .  |                        n: 1 0x1ad-0x1ad.7 (1)
     |                                               |                |                      [7]{}: instr 0x1ae-0x1bd.7 (16)
0x1a0|                                          04   |              . |                        if: 0x4 (valid) 0x1ae-0x1ae.7 (1)
0x1a0|                                             40|               @|                        bt: "ε" (64) 0x1af-0x1af.7 (1)
     |                                               |                |                        in1[0:3]: 0x1b0-0x1b6.7 (7)
     |                                               |                |                          [0]{}: instr 0x1b0-0x1b1.7 (2)
0x1b0|0c                                             |.               |                            br: 0xc (valid) 0x1b0-0x1b0.7 (1)
0x1b0|   00                                          | .              |                            l: 0 0x1b1-0x1b1.7 (1)
     |                                               |                |                          [1]{}: instr 0x1b2-0x1b4.7 (3)
0x1b0|      41                                       |  A             |                            i32.const: 0x41 (valid) 0x1b2-0x1b2.7 (1)
0x1b0|         9a 05                                 |   ..           |                            n: 666 0x1b3-0x1b4.7 (2)
     |                                               |                |                          [2]{}: instr 0x1b5-0x1b6.7 (2)
0x1b0|               21                              |     !          |                            local.set: 0x21 (valid) 0x1b5-0x1b5.7 (1)
0x1b0|                  00                           |      .         |                            x: 0 0x1b6-0x1b6.7 (1)
0x1b0|                     05                        |       .        |                        else: 0x5 (valid) 0x1b7-0x1b7.7 (1)
     |                                               |                |                        in2[0:2]: 0x1b8-0x1bc.7 (5)
     |                                               |                |                          [0]{}: instr 0x1b8-0x1ba.7 (3)
0x1b0|                        41                     |        A       |                            i32.const: 0x41 (valid) 0x1b8-0x1b8.7 (1)
0x1b0|                           f8 06               |         ..     |                            n: 888 0x1b9-0x1ba.7 (2)
     |                                               |                |                          [1]{}: instr 0x1bb-0x1bc.7 (2)
0x1b0|                                 21            |           !    |                            local.set: 0x21 (valid) 0x1bb-0x1bb.7 (1)
0x1b0|                                    00         |            .   |                            x: 0 0x1bc-0x1bc.7 (1)
0x1b0|                                       0b      |             .  |                        end: 11 (valid) 0x1bd-0x1bd.7 (1)
     |                                               |                |                      [8]{}: instr 0x1be-0x1bf.7 (2)
0x1b0|                                          20   |                |                        local.get: 0x20 (valid) 0x1be-0x1be.7 (1)
0x1b0|                                             00|               .|                        x: 0 0x1bf-0x1bf.7 (1)
     |                                               |                |                      [9]{}: instr 0x1c0-0x1c1.7 (2)
0x1c0|41                                             |A               |                        i32.const: 0x41 (valid) 0x1c0-0x1c0.7 (1)
0x1c0|   01                                          | .              |                        n: 1 0x1c1-0x1c1.7 (1)
     |                                               |                |                      [10]{}: instr 0x1c2-0x1c2.7 (1)
0x1c0|      6a                                       |  j             |                        i32.add: 0x6a (valid) 0x1c2-0x1c2.7 (1)
     |                                               |                |                      [11]{}: instr 0x1c3-0x1c4.7 (2)
0x1c0|         21                                    |   !            |                        local.set: 0x21 (valid) 0x1c3-0x1c3.7 (1)
0x1c0|            00                                 |    .           |                        x: 0 0x1c4-0x1c4.7 (1)
     |                                               |                |                      [12]{}: instr 0x1c5-0x1c6.7 (2)
0x1c0|               41                              |     A          |                        i32.const: 0x41 (valid) 0x1c5-0x1c5.7 (1)
0x1c0|                  01                           |      .         |                        n: 1 0x1c6-0x1c6.7 (1)
     |                                               |                |                      [13]{}: instr 0x1c7-0x1d6.7 (16)
0x1c0|                     04                        |       .        |                        if: 0x4 (valid) 0x1c7-0x1c7.7 (1)
0x1c0|                        40                     |        @       |                        bt: "ε" (64) 0x1c8-0x1c8.7 (1)
     |                                               |                |                        in1[0:3]: 0x1c9-0x1cf.7 (7)
     |                                               |                |                          [0]{}: instr 0x1c9-0x1ca.7 (2)
0x1c0|                           0c                  |         .      |                            br: 0xc (valid) 0x1c9-0x1c9.7 (1)
0x1c0|                              00               |          .     |                            l: 0 0x1ca-0x1ca.7 (1)
     |                                               |                |                          [1]{}: instr 0x1cb-0x1cd.7 (3)
0x1c0|                                 41            |           A    |                            i32.const: 0x41 (valid) 0x1cb-0x1cb.7 (1)
0x1c0|                                    9a 05      |            ..  |                            n: 666 0x1cc-0x1cd.7 (2)
     |                                               |                |                          [2]{}: instr 0x1ce-0x1cf.7 (2)
0x1c0|                                          21   |              ! |                            local.set: 0x21 (valid) 0x1ce-0x1ce.7 (1)
0x1c0|                                             00|               .|                            x: 0 0x1cf-0x1cf.7 (1)
0x1d0|05                                             |.               |                        else: 0x5 (valid) 0x1d0-0x1d0.7 (1)
     |                                               |                |                        in2[0:2]: 0x1d1-0x1d5.7 (5)
     |                                               |                |                          [0]{}: instr 0x1d1-0x1d3.7 (3)
0x1d0|   41                                          | A              |                            i32.const: 0x41 (valid) 0x1d1-0x1d1.7 (1)
0x1d0|      f8 06                                    |  ..            |                            n: 888 0x1d2-0x1d3.7 (2)
     |                                               |                |                          [1]{}: instr 0x1d4-0x1d5.7 (2)
0x1d0|            21                                 |    !           |                            local.set: 0x21 (valid) 0x1d4-0x1d4.7 (1)
0x1d0|               00                              |     .          |                            x: 0 0x1d5-0x1d5.7 (1)
0x1d0|                  0b                           |      .         |                        end: 11 (valid) 0x1d6-0x1d6.7 (1)
     |                                               |                |                      [14]{}: instr 0x1d7-0x1d8.7 (2)
0x1d0|                     20                        |                |                        local.get: 0x20 (valid) 0x1d7-0x1d7.7 (1)
0x1d0|                        00                     |        .       |                        x: 0 0x1d8-0x1d8.7 (1)
     |                                               |                |                      [15]{}: instr 0x1d9-0x1da.7 (2)
0x1d0|                           41                  |         A      |                        i32.const: 0x41 (valid) 0x1d9-0x1d9.7 (1)
0x1d0|                              01               |          .     |                        n: 1 0x1da-0x1da.7 (1)
     |                                               |                |                      [16]{}: instr 0x1db-0x1db.7 (1)
0x1d0|                                 6a            |           j    |                        i32.add: 0x6a (valid) 0x1db-0x1db.7 (1)
     |                                               |                |                      [17]{}: instr 0x1dc-0x1dd.7 (2)
0x1d0|                                    21         |            !   |                        local.set: 0x21 (valid) 0x1dc-0x1dc.7 (1)
0x1d0|                                       00      |             .  |                        x: 0 0x1dd-0x1dd.7 (1)
     |                                               |                |                      [18]{}: instr 0x1de-0x1df.7 (2)
0x1d0|                                          41   |              A |                        i32.const: 0x41 (valid) 0x1de-0x1de.7 (1)
0x1d0|                                             00|               .|                        n: 0 0x1df-0x1df.7 (1)
     |                                               |                |                      [19]{}: instr 0x1e0-0x1ef.7 (16)
0x1e0|04                                             |.               |                        if: 0x4 (valid) 0x1e0-0x1e0.7 (1)
0x1e0|   40                                          | @              |                        bt: "ε" (64) 0x1e1-0x1e1.7 (1)
     |                                               |                |                        in1[0:2]: 0x1e2-0x1e6.7 (5)
     |                                               |                |                          [0]{}: instr 0x1e2-0x1e4.7 (3)
0x1e0|      41                                       |  A             |                            i32.const: 0x41 (valid) 0x1e2-0x1e2.7 (1)
0x1e0|         f8 06                                 |   ..           |                            n: 888 0x1e3-0x1e4.7 (2)
     |                                               |                |                          [1]{}: instr 0x1e5-0x1e6.7 (2)
0x1e0|               21                              |     !          |                            local.set: 0x21 (valid) 0x1e5-0x1e5.7 (1)
0x1e0|                  00                           |      .         |                            x: 0 0x1e6-0x1e6.7 (1)
0x1e0|                     05                        |       .        |                        else: 0x5 (valid) 0x1e7-0x1e7.7 (1)
     |                                               |                |                        in2[0:3]: 0x1e8-0x1ee.7 (7)
     |                                               |                |                          [0]{}: instr 0x1e8-0x1e9.7 (2)
0x1e0|                        0c                     |        .       |                            br: 0xc (valid) 0x1e8-0x1e8.7 (1)
0x1e0|                           00                  |         .      |                            l: 0 0x1e9-0x1e9.7 (1)
     |                                               |                |                          [1]{}: instr 0x1ea-0x1ec.7 (3)
0x1e0|                              41               |          A     |                            i32.const: 0x41 (valid) 0x1ea-0x1ea.7 (1)
0x1e0|                                 9a 05         |           ..   |                            n: 666 0x1eb-0x1ec.7 (2)
     |                                               |                |                          [2]{}: instr 0x1ed-0x1ee.7 (2)
0x1e0|                                       21      |             !  |                            local.set: 0x21 (valid) 0x1ed-0x1ed.7 (1)
0x1e0|                                          00   |              . |                            x: 0 0x1ee-0x1ee.7 (1)
0x1e0|                                             0b|               .|                        end: 11 (valid) 0x1ef-0x1ef.7 (1)
     |                                               |                |                      [20]{}: instr 0x1f0-0x1f1.7 (2)
0x1f0|20                                             |                |                        local.get: 0x20 (valid) 0x1f0-0x1f0.7 (1)
0x1f0|   00                                          | .              |                        x: 0 0x1f1-0x1f1.7 (1)
     |                                               |                |                      [21]{}: instr 0x1f2-0x1f3.7 (2)
0x1f0|      41                                       |  A             |                        i32.const: 0x41 (valid) 0x1f2-0x1f2.7 (1)
0x1f0|         01                                    |   .            |                        n: 1 0x1f3-0x1f3.7 (1)
     |                                               |                |                      [22]{}: instr 0x1f4-0x1f4.7 (1)
0x1f0|            6a                                 |    j           |                        i32.add: 0x6a (valid) 0x1f4-0x1f4.7 (1)
     |                                               |                |                      [23]{}: instr 0x1f5-0x1f6.7 (2)
0x1f0|               21                              |     !          |                        local.set: 0x21 (valid) 0x1f5-0x1f5.7 (1)
0x1f0|                  00                           |      .         |                        x: 0 0x1f6-0x1f6.7 (1)
     |                                               |                |                      [24]{}: instr 0x1f7-0x1f8.7 (2)
0x1f0|                     41                        |       A        |                        i32.const: 0x41 (valid) 0x1f7-0x1f7.7 (1)
0x1f0|                        00                     |        .       |                        n: 0 0x1f8-0x1f8.7 (1)
     |                                               |                |                      [25]{}: instr 0x1f9-0x208.7 (16)
0x1f0|                           04                  |         .      |                        if: 0x4 (valid) 0x1f9-0x1f9.7 (1)
0x1f0|                              40               |          @     |                        bt: "ε" (64) 0x1fa-0x1fa.7 (1)
     |                                               |                |                        in1[0:2]: 0x1fb-0x1ff.7 (5)
     |                                               |                |                          [0]{}: instr 0x1fb-0x1fd.7 (3)
0x1f0|                                 41            |           A    |                            i32.const: 0x41 (valid) 0x1fb-0x1fb.7 (1)
0x1f0|                                    f8 06      |            ..  |                            n: 888 0x1fc-0x1fd.7 (2)
     |                                               |                |                          [1]{}: instr 0x1fe-0x1ff.7 (2)
0x1f0|                                          21   |              ! |                            local.set: 0x21 (valid) 0x1fe-0x1fe.7 (1)
0x1f0|                                             00|               .|                            x: 0 0x1ff-0x1ff.7 (1)
0x200|05                                             |.               |                        else: 0x5 (valid) 0x200-0x200.7 (1)
     |                                               |                |                        in2[0:3]: 0x201-0x207.7 (7)
     |                                               |                |                          [0]{}: instr 0x201-0x202.7 (2)
0x200|   0c                                          | .              |                            br: 0xc (valid) 0x201-0x201.7 (1)
0x200|      00                                       |  .             |                            l: 0 0x202-0x202.7 (1)
     |                                               |                |                          [1]{}: instr 0x203-0x205.7 (3)
0x200|         41                                    |   A            |                            i32.const: 0x41 (valid) 0x203-0x203.7 (1)
0x200|            9a 05                              |    ..          |                            n: 666 0x204-0x205.7 (2)
     |                                               |                |                          [2]{}: instr 0x206-0x207.7 (2)
0x200|                  21                           |      !         |                            local.set: 0x21 (valid) 0x206-0x206.7 (1)
0x200|                     00                        |       .        |                            x: 0 0x207-0x207.7 (1)
0x200|                        0b                     |        .       |                        end: 11 (valid) 0x208-0x208.7 (1)
     |                                               |                |                      [26]{}: instr 0x209-0x20a.7 (2)
0x200|                           20                  |                |                        local.get: 0x20 (valid) 0x209-0x209.7 (1)
0x200|                              00               |          .     |                        x: 0 0x20a-0x20a.7 (1)
     |                                               |                |                      [27]{}: instr 0x20b-0x20c.7 (2)
0x200|                                 41            |           A    |                        i32.const: 0x41 (valid) 0x20b-0x20b.7 (1)
0x200|                                    01         |            .   |                        n: 1 0x20c-0x20c.7 (1)
     |                                               |                |                      [28]{}: instr 0x20d-0x20d.7 (1)
0x200|                                       6a      |             j  |                        i32.add: 0x6a (valid) 0x20d-0x20d.7 (1)
     |                                               |                |                      [29]{}: instr 0x20e-0x20f.7 (2)
0x200|                                          21   |              ! |                        local.set: 0x21 (valid) 0x20e-0x20e.7 (1)
0x200|                                             00|               .|                        x: 0 0x20f-0x20f.7 (1)
0x210|0b                                             |.               |                    end: 11 (valid) 0x210-0x210.7 (1)
     |                                               |                |                  [3]{}: in 0x211-0x212.7 (2)
0x210|   20                                          |                |                    local.get: 0x20 (valid) 0x211-0x211.7 (1)
0x210|      00                                       |  .             |                    x: 0 0x212-0x212.7 (1)
     |                                               |                |                  [4]{}: in 0x213-0x213.7 (1)
0x210|         0b                                    |   .            |                    end: 0xb (valid) 0x213-0x213.7 (1)
     |                                               |                |            [8]{}: code 0x214-0x299.7 (134)
0x210|            84 01                              |    ..          |              size: 132 0x214-0x215.7 (2)
     |                                               |                |              code{}: 0x216-0x299.7 (132)
     |                                               |                |                t{}: 0x216-0x218.7 (3)
0x210|                  01                           |      .         |                  n: 1 0x216-0x216.7 (1)
     |                                               |                |                  x[0:1]: 0x217-0x218.7 (2)
     |                                               |                |                    [0]{}: t 0x217-0x218.7 (2)
0x210|                     01                        |       .        |                      n: 1 0x217-0x217.7 (1)
0x210|                        7f                     |        .       |                      t: "i32" (0x7f) 0x218-0x218.7 (1)
     |                                               |                |                e[0:5]: 0x219-0x299.7 (129)
     |                                               |                |                  [0]{}: in 0x219-0x21a.7 (2)
0x210|                           41                  |         A      |                    i32.const: 0x41 (valid) 0x219-0x219.7 (1)
0x210|                              00               |          .     |                    n: 0 0x21a-0x21a.7 (1)
     |                                               |                |                  [1]{}: in 0x21b-0x21c.7 (2)
0x210|                                 21            |           !    |                    local.set: 0x21 (valid) 0x21b-0x21b.7 (1)
0x210|                                    00         |            .   |                    x: 0 0x21c-0x21c.7 (1)
     |                                               |                |                  [2]{}: in 0x21d-0x296.7 (122)
0x210|                                       02      |             .  |                    block: 0x2 (valid) 0x21d-0x21d.7 (1)
0x210|                                          40   |              @ |                    bt: "ε" (64) 0x21e-0x21e.7 (1)
     |                                               |                |                    instructions[0:30]: 0x21f-0x295.7 (119)
     |                                               |                |                      [0]{}: instr 0x21f-0x220.7 (2)
0x210|                                             41|               A|                        i32.const: 0x41 (valid) 0x21f-0x21f.7 (1)
0x220|01                                             |.               |                        n: 1 0x220-0x220.7 (1)
     |                                               |                |                      [1]{}: instr 0x221-0x22a.7 (10)
0x220|   04                                          | .              |                        if: 0x4 (valid) 0x221-0x221.7 (1)
0x220|      40                                       |  @             |                        bt: "ε" (64) 0x222-0x222.7 (1)
     |                                               |                |                        in1[0:3]: 0x223-0x229.7 (7)
     |                                               |                |                          [0]{}: instr 0x223-0x224.7 (2)
0x220|         0c                                    |   .            |                            br: 0xc (valid) 0x223-0x223.7 (1)
0x220|            00                                 |    .           |                            l: 0 0x224-0x224.7 (1)
     |                                               |                |                          [1]{}: instr 0x225-0x227.7 (3)
0x220|               41                              |     A          |                            i32.const: 0x41 (valid) 0x225-0x225.7 (1)
0x220|                  9a 05                        |      ..        |                            n: 666 0x226-0x227.7 (2)
     |                                               |                |                          [2]{}: instr 0x228-0x229.7 (2)
0x220|                        21                     |        !       |                            local.set: 0x21 (valid) 0x228-0x228.7 (1)
0x220|                           00                  |         .      |                            x: 0 0x229-0x229.7 (1)
0x220|                              0b               |          .     |                        end: 11 (valid) 0x22a-0x22a.7 (1)
     |                                               |                |                      [2]{}: instr 0x22b-0x22c.7 (2)
0x220|                                 20            |                |                        local.get: 0x20 (valid) 0x22b-0x22b.7 (1)
0x220|                                    00         |            .   |                        x: 0 0x22c-0x22c.7 (1)
     |                                               |                |                      [3]{}: instr 0x22d-0x22e.7 (2)
0x220|                                       41      |             A  |                        i32.const: 0x41 (valid) 0x22d-0x22d.7 (1)
0x220|                                          01   |              . |                        n: 1 0x22e-0x22e.7 (1)
     |                                               |                |                      [4]{}: instr 0x22f-0x22f.7 (1)
0x220|                                             6a|               j|                        i32.add: 0x6a (valid) 0x22f-0x22f.7 (1)
     |                                               |                |                      [5]{}: instr 0x230-0x231.7 (2)
0x230|21                                             |!               |                        local.set: 0x21 (valid) 0x230-0x230.7 (1)
0x230|   00                                          | .              |                        x: 0 0x231-0x231.7 (1)
     |                                               |                |                      [6]{}: instr 0x232-0x233.7 (2)
0x230|      41                                       |  A             |                        i32.const: 0x41 (valid) 0x232-0x232.7 (1)
0x230|         01                                    |   .            |                        n: 1 0x233-0x233.7 (1)
     |                                               |                |                      [7]{}: instr 0x234-0x243.7 (16)
0x230|            04                                 |    .           |                        if: 0x4 (valid) 0x234-0x234.7 (1)
0x230|               40                              |     @          |                        bt: "ε" (64) 0x235-0x235.7 (1)
     |                                               |                |                        in1[0:3]: 0x236-0x23c.7 (7)
     |                                               |                |                          [0]{}: instr 0x236-0x237.7 (2)
0x230|                  0c                           |      .         |                            br: 0xc (valid) 0x236-0x236.7 (1)
0x230|                     00                        |       .        |                            l: 0 0x237-0x237.7 (1)
     |                                               |                |                          [1]{}: instr 0x238-0x23a.7 (3)
0x230|                        41                     |        A       |                            i32.const: 0x41 (valid) 0x238-0x238.7 (1)
0x230|                           9a 05               |         ..     |                            n: 666 0x239-0x23a.7 (2)
     |                                               |                |                          [2]{}: instr 0x23b-0x23c.7 (2)
0x230|                                 21            |           !    |                            local.set: 0x21 (valid) 0x23b-0x23b.7 (1)
0x230|                                    00         |            .   |                            x: 0 0x23c-0x23c.7 (1)
0x230|                                       05      |             .  |                        else: 0x5 (valid) 0x23d-0x23d.7 (1)
     |                                               |                |                        in2[0:2]: 0x23e-0x242.7 (5)
     |                                               |                |                          [0]{}: instr 0x23e-0x240.7 (3)
0x230|                                          41   |              A |                            i32.const: 0x41 (valid) 0x23e-0x23e.7 (1)
0x230|                                             f8|               .|                            n: 888 0x23f-0x240.7 (2)
0x240|06                                             |.               |
     |                                               |                |                          [1]{}: instr 0x241-0x242.7 (2)
0x240|   21                                          | !              |                            local.set: 0x21 (valid) 0x241-0x241.7 (1)
0x240|      00                                       |  .             |                            x: 0 0x242-0x242.7 (1)
0x240|         0b                                    |   .            |                        end: 11 (valid) 0x243-0x243.7 (1)
     |                                               |                |                      [8]{}: instr 0x244-0x245.7 (2)
0x240|            20                                 |                |                        local.get: 0x20 (valid) 0x244-0x244.7 (1)
0x240|               00                              |     .          |                        x: 0 0x245-0x245.7 (1)
     |                                               |                |                      [9]{}: instr 0x246-0x247.7 (2)
0x240|                  41                           |      A         |                        i32.const: 0x41 (valid) 0x246-0x246.7 (1)
0x240|                     01                        |       .        |                        n: 1 0x247-0x247.7 (1)
     |                                               |                |                      [10]{}: instr 0x248-0x248.7 (1)
0x240|                        6a                     |        j       |                        i32.add: 0x6a (valid) 0x248-0x248.7 (1)
     |                                               |                |                      [11]{}: instr 0x249-0x24a.7 (2)
0x240|                           21                  |         !      |                        local.set: 0x21 (valid) 0x249-0x249.7 (1)
0x240|                              00               |          .     |                        x: 0 0x24a-0x24a.7 (1)
     |                                               |                |                      [12]{}: instr 0x24b-0x24c.7 (2)
0x240|                                 41            |           A    |                        i32.const: 0x41 (valid) 0x24b-0x24b.7 (1)
0x240|                                    01         |            .   |                        n: 1 0x24c-0x24c.7 (1)
     |                                               |                |                      [13]{}: instr 0x24d-0x25c.7 (16)
0x240|                                       04      |             .  |                        if: 0x4 (valid) 0x24d-0x24d.7 (1)
0x240|                                          40   |              @ |                        bt: "ε" (64) 0x24e-0x24e.7 (1)
     |                                               |                |                        in1[0:3]: 0x24f-0x255.7 (7)
     |                                               |                |                          [0]{}: instr 0x24f-0x250.7 (2)
0x240|                                             0c|               .|                            br: 0xc (valid) 0x24f-0x24f.7 (1)
0x250|00                                             |.               |                            l: 0 0x250-0x250.7 (1)
     |                                               |                |                          [1]{}: instr 0x251-0x253.7 (3)
0x250|   41                                          | A              |                            i32.const: 0x41 (valid) 0x251-0x251.7 (1)
0x250|      9a 05                                    |  ..            |                            n: 666 0x252-0x253.7 (2)
     |                                               |                |                          [2]{}: instr 0x254-0x255.7 (2)
0x250|            21                                 |    !           |                            local.set: 0x21 (valid) 0x254-0x254.7 (1)
0x250|               00                              |     .          |                            x: 0 0x255-0x255.7 (1)
0x250|                  05                           |      .         |                        else: 0x5 (valid) 0x256-0x256.7 (1)
     |                                               |                |                        in2[0:2]: 0x257-0x25b.7 (5)
     |                                               |                |                          [0]{}: instr 0x257-0x259.7 (3)
0x250|                     41                        |       A        |                            i32.const: 0x41 (valid) 0x257-0x257.7 (1)
0x250|                        f8 06                  |        ..      |                            n: 888 0x258-0x259.7 (2)
     |                                               |                |                          [1]{}: instr 0x25a-0x25b.7 (2)
0x250|                              21               |          !     |                            local.set: 0x21 (valid) 0x25a-0x25a.7 (1)
0x250|                                 00            |           .    |                            x: 0 0x25b-0x25b.7 (1)
0x250|                                    0b         |            .   |                        end: 11 (valid) 0x25c-0x25c.7 (1)
     |                                               |                |                      [14]{}: instr 0x25d-0x25e.7 (2)
0x250|                                       20      |                |                        local.get: 0x20 (valid) 0x25d-0x25d.7 (1)
0x250|                                          00   |              . |                        x: 0 0x25e-0x25e.7 (1)
     |                                               |                |                      [15]{}: instr 0x25f-0x260.7 (2)
0x250|                                             41|               A|                        i32.const: 0x41 (valid) 0x25f-0x25f.7 (1)
0x260|01                                             |.               |                        n: 1 0x260-0x260.7 (1)
     |                                               |                |                      [16]{}: instr 0x261-0x261.7 (1)
0x260|   6a                                          | j              |                        i32.add: 0x6a (valid) 0x261-0x261.7 (1)
     |                                               |                |                      [17]{}: instr 0x262-0x263.7 (2)
0x260|      21                                       |  !             |                        local.set: 0x21 (valid) 0x262-0x262.7 (1)
0x260|         00                                    |   .            |                        x: 0 0x263-0x263.7 (1)
     |                                               |                |                      [18]{}: instr 0x264-0x265.7 (2)
0x260|            41                                 |    A           |                        i32.const: 0x41 (valid) 0x264-0x264.7 (1)
0x260|               00                              |     .          |                        n: 0 0x265-0x265.7 (1)
     |                                               |                |                      [19]{}: instr 0x266-0x275.7 (16)
0x260|                  04                           |      .         |                        if: 0x4 (valid) 0x266-0x266.7 (1)
0x260|                     40                        |       @        |                        bt: "ε" (64) 0x267-0x267.7 (1)
     |                                               |                |                        in1[0:2]: 0x268-0x26c.7 (5)
     |                                               |                |                          [0]{}: instr 0x268-0x26a.7 (3)
0x260|                        41                     |        A       |                            i32.const: 0x41 (valid) 0x268-0x268.7 (1)
0x260|                           f8 06               |         ..     |                            n: 888 0x269-0x26a.7 (2)
     |                                               |                |                          [1]{}: instr 0x26b-0x26c.7 (2)
0x260|                                 21            |           !    |                            local.set: 0x21 (valid) 0x26b-0x26b.7 (1)
0x260|                                    00         |            .   |                            x: 0 0x26c-0x26c.7 (1)
0x260|                                       05      |             .  |                        else: 0x5 (valid) 0x26d-0x26d.7 (1)
     |                                               |                |                        in2[0:3]: 0x26e-0x274.7 (7)
     |                                               |                |                          [0]{}: instr 0x26e-0x26f.7 (2)
0x260|                                          0c   |              . |                            br: 0xc (valid) 0x26e-0x26e.7 (1)
0x260|                                             00|               .|                            l: 0 0x26f-0x26f.7 (1)
     |                                               |                |                          [1]{}: instr 0x270-0x272.7 (3)
0x270|41                                             |A               |                            i32.const: 0x41 (valid) 0x270-0x270.7 (1)
0x270|   9a 05                                       | ..             |                            n: 666 0x271-0x272.7 (2)
     |                                               |                |                          [2]{}: instr 0x273-0x274.7 (2)
0x270|         21                                    |   !            |                            local.set: 0x21 (valid) 0x273-0x273.7 (1)
0x270|            00                                 |    .           |                            x: 0 0x274-0x274.7 (1)
0x270|               0b                              |     .          |                        end: 11 (valid) 0x275-0x275.7 (1)
     |                                               |                |                      [20]{}: instr 0x276-0x277.7 (2)
0x270|                  20                           |                |                        local.get: 0x20 (valid) 0x276-0x276.7 (1)
0x270|                     00                        |       .        |                        x: 0 0x277-0x277.7 (1)
     |                                               |                |                      [21]{}: instr 0x278-0x279.7 (2)
0x270|                        41                     |        A       |                        i32.const: 0x41 (valid) 0x278-0x278.7 (1)
0x270|                           01                  |         .      |                        n: 1 0x279-0x279.7 (1)
     |                                               |                |                      [22]{}: instr 0x27a-0x27a.7 (1)
0x270|                              6a               |          j     |                        i32.add: 0x6a (valid) 0x27a-0x27a.7 (1)
     |                                               |                |                      [23]{}: instr 0x27b-0x27c.7 (2)
0x270|                                 21            |           !    |                        local.set: 0x21 (valid) 0x27b-0x27b.7 (1)
0x270|                                    00         |            .   |                        x: 0 0x27c-0x27c.7 (1)
     |                                               |                |                      [24]{}: instr 0x27d-0x27e.7 (2)
0x270|                                       41      |             A  |                        i32.const: 0x41 (valid) 0x27d-0x27d.7 (1)
0x270|                                          00   |              . |                        n: 0 0x27e-0x27e.7 (1)
     |                                               |                |                      [25]{}: instr 0x27f-0x28e.7 (16)
0x270|                                             04|               .|                        if: 0x4 (valid) 0x27f-0x27f.7 (1)
0x280|40                                             |@               |                        bt: "ε" (64) 0x280-0x280.7 (1)
     |                                               |                |                        in1[0:2]: 0x281-0x285.7 (5)
     |                                               |                |                          [0]{}: instr 0x281-0x283.7 (3)
0x280|   41                                          | A              |                            i32.const: 0x41 (valid) 0x281-0x281.7 (1)
0x280|      f8 06                                    |  ..            |                            n: 888 0x282-0x283.7 (2)
     |                                               |                |                          [1]{}: instr 0x284-0x285.7 (2)
0x280|            21                                 |    !           |                            local.set: 0x21 (valid) 0x284-0x284.7 (1)
0x280|               00                              |     .          |                            x: 0 0x285-0x285.7 (1)
0x280|                  05                           |      .         |                        else: 0x5 (valid) 0x286-0x286.7 (1)
     |                                               |                |                        in2[0:3]: 0x287-0x28d.7 (7)
     |                                               |                |                          [0]{}: instr 0x287-0x288.7 (2)
0x280|                     0c                        |       .        |                            br: 0xc (valid) 0x287-0x287.7 (1)
0x280|                        00                     |        .       |                            l: 0 0x288-0x288.7 (1)
     |                                               |                |                          [1]{}: instr 0x289-0x28b.7 (3)
0x280|                           41                  |         A      |                            i32.const: 0x41 (valid) 0x289-0x289.7 (1)
0x280|                              9a 05            |          ..    |                            n: 666 0x28a-0x28b.7 (2)
     |                                               |                |                          [2]{}: instr 0x28c-0x28d.7 (2)
0x280|                                    21         |            !   |                            local.set: 0x21 (valid) 0x28c-0x28c.7 (1)
0x280|                                       00      |             .  |                            x: 0 0x28d-0x28d.7 (1)
0x280|                                          0b   |              . |                        end: 11 (valid) 0x28e-0x28e.7 (1)
     |                                               |                |                      [26]{}: instr 0x28f-0x290.7 (2)
0x280|                                             20|                |                        local.get: 0x20 (valid) 0x28f-0x28f.7 (1)
0x290|00                                             |.               |                        x: 0 0x290-0x290.7 (1)
     |                                               |                |                      [27]{}: instr 0x291-0x292.7 (2)
0x290|   41                                          | A              |                        i32.const: 0x41 (valid) 0x291-0x291.7 (1)
0x290|      01                                       |  .             |                        n: 1 0x292-0x292.7 (1)
     |                                               |                |                      [28]{}: instr 0x293-0x293.7 (1)
0x290|         6a                                    |   j            |                        i32.add: 0x6a (valid) 0x293-0x293.7 (1)
     |                                               |                |                      [29]{}: instr 0x294-0x295.7 (2)
0x290|            21                                 |    !           |                        local.set: 0x21 (valid) 0x294-0x294.7 (1)
0x290|               00                              |     .          |                        x: 0 0x295-0x295.7 (1)
0x290|                  0b                           |      .         |                    end: 11 (valid) 0x296-0x296.7 (1)
     |                                               |                |                  [3]{}: in 0x297-0x298.7 (2)
0x290|                     20                        |                |                    local.get: 0x20 (valid) 0x297-0x297.7 (1)
0x290|                        00                     |        .       |                    x: 0 0x298-0x298.7 (1)
     |                                               |                |                  [4]{}: in 0x299-0x299.7 (1)
0x290|                           0b                  |         .      |                    end: 0xb (valid) 0x299-0x299.7 (1)
     |                                               |                |            [9]{}: code 0x29a-0x2c7.7 (46)
0x290|                              2d               |          -     |              size: 45 0x29a-0x29a.7 (1)
     |                                               |                |              code{}: 0x29b-0x2c7.7 (45)
     |                                               |                |                t{}: 0x29b-0x29b.7 (1)
0x290|                                 00            |           .    |                  n: 0 0x29b-0x29b.7 (1)
     |                                               |                |                  x[0:0]: 0x29c-NA (0)
     |                                               |                |                e[0:2]: 0x29c-0x2c7.7 (44)
     |                                               |                |                  [0]{}: in 0x29c-0x2c6.7 (43)
0x290|                                    02         |            .   |                    block: 0x2 (valid) 0x29c-0x29c.7 (1)
0x290|                                       7f      |             .  |                    bt: "i32" (127) 0x29d-0x29d.7 (1)
     |                                               |                |                    instructions[0:3]: 0x29e-0x2c5.7 (40)
     |                                               |                |                      [0]{}: instr 0x29e-0x29f.7 (2)
0x290|                                          41   |              A |                        i32.const: 0x41 (valid) 0x29e-0x29e.7 (1)
0x290|                                             0a|               .|                        n: 10 0x29f-0x29f.7 (1)
     |                                               |                |                      [1]{}: instr 0x2a0-0x2c4.7 (37)
0x2a0|02                                             |.               |                        block: 0x2 (valid) 0x2a0-0x2a0.7 (1)
0x2a0|   7f                                          | .              |                        bt: "i32" (127) 0x2a1-0x2a1.7 (1)
     |                                               |                |                        instructions[0:2]: 0x2a2-0x2c3.7 (34)
     |                                               |                |                          [0]{}: instr 0x2a2-0x2c1.7 (32)
0x2a0|      02                                       |  .             |                            block: 0x2 (valid) 0x2a2-0x2a2.7 (1)
0x2a0|         40                                    |   @            |                            bt: "ε" (64) 0x2a3-0x2a3.7 (1)
     |                                               |                |                            instructions[0:1]: 0x2a4-0x2c0.7 (29)
     |                                               |                |                              [0]{}: instr 0x2a4-0x2c0.7 (29)
0x2a0|            02                                 |    .           |                                block: 0x2 (valid) 0x2a4-0x2a4.7 (1)
0x2a0|               40                              |     @          |                                bt: "ε" (64) 0x2a5-0x2a5.7 (1)
     |                                               |                |                                instructions[0:3]: 0x2a6-0x2bf.7 (26)
     |                                               |                |                                  [0]{}: instr 0x2a6-0x2bb.7 (22)
0x2a0|                  02                           |      .         |                                    block: 0x2 (valid) 0x2a6-0x2a6.7 (1)
0x2a0|                     40                        |       @        |                                    bt: "ε" (64) 0x2a7-0x2a7.7 (1)
     |                                               |                |                                    instructions[0:3]: 0x2a8-0x2ba.7 (19)
     |                                               |                |                                      [0]{}: instr 0x2a8-0x2b6.7 (15)
0x2a0|                        02                     |        .       |                                        block: 0x2 (valid) 0x2a8-0x2a8.7 (1)
0x2a0|                           40                  |         @      |                                        bt: "ε" (64) 0x2a9-0x2a9.7 (1)
     |                                               |                |                                        instructions[0:1]: 0x2aa-0x2b5.7 (12)
     |                                               |                |                                          [0]{}: instr 0x2aa-0x2b5.7 (12)
0x2a0|                              02               |          .     |                                            block: 0x2 (valid) 0x2aa-0x2aa.7 (1)
0x2a0|                                 40            |           @    |                                            bt: "ε" (64) 0x2ab-0x2ab.7 (1)
     |                                               |                |                                            instructions[0:2]: 0x2ac-0x2b4.7 (9)
     |                                               |                |                                              [0]{}: instr 0x2ac-0x2ad.7 (2)
0x2a0|                                    20         |                |                                                local.get: 0x20 (valid) 0x2ac-0x2ac.7 (1)
0x2a0|                                       00      |             .  |                                                x: 0 0x2ad-0x2ad.7 (1)
     |                                               |                |                                              [1]{}: instr 0x2ae-0x2b4.7 (7)
0x2a0|                                          0e   |              . |                                                br_table: 0xe (valid) 0x2ae-0x2ae.7 (1)
     |                                               |                |                                                l{}: 0x2af-0x2b3.7 (5)
0x2a0|                                             04|               .|                                                  n: 4 0x2af-0x2af.7 (1)
     |                                               |                |                                                  x[0:4]: 0x2b0-0x2b3.7 (4)
0x2b0|04                                             |.               |                                                    [0]: 4 l 0x2b0-0x2b0.7 (1)
0x2b0|   00                                          | .              |                                                    [1]: 0 l 0x2b1-0x2b1.7 (1)
0x2b0|      01                                       |  .             |                                                    [2]: 1 l 0x2b2-0x2b2.7 (1)
0x2b0|         02                                    |   .            |                                                    [3]: 2 l 0x2b3-0x2b3.7 (1)
0x2b0|            03                                 |    .           |                                                lN: 3 0x2b4-0x2b4.7 (1)
0x2b0|               0b                              |     .          |                                            end: 11 (valid) 0x2b5-0x2b5.7 (1)
0x2b0|                  0b                           |      .         |                                        end: 11 (valid) 0x2b6-0x2b6.7 (1)
     |                                               |                |                                      [1]{}: instr 0x2b7-0x2b8.7 (2)
0x2b0|                     41                        |       A        |                                        i32.const: 0x41 (valid) 0x2b7-0x2b7.7 (1)
0x2b0|                        02                     |        .       |                                        n: 2 0x2b8-0x2b8.7 (1)
     |                                               |                |                                      [2]{}: instr 0x2b9-0x2ba.7 (2)
0x2b0|                           0c                  |         .      |                                        br: 0xc (valid) 0x2b9-0x2b9.7 (1)
0x2b0|                              03               |          .     |                                        l: 3 0x2ba-0x2ba.7 (1)
0x2b0|                                 0b            |           .    |                                    end: 11 (valid) 0x2bb-0x2bb.7 (1)
     |                                               |                |                                  [1]{}: instr 0x2bc-0x2bd.7 (2)
0x2b0|                                    41         |            A   |                                    i32.const: 0x41 (valid) 0x2bc-0x2bc.7 (1)
0x2b0|                                       03      |             .  |                                    n: 3 0x2bd-0x2bd.7 (1)
     |                                               |                |                                  [2]{}: instr 0x2be-0x2bf.7 (2)
0x2b0|                                          0c   |              . |                                    br: 0xc (valid) 0x2be-0x2be.7 (1)
0x2b0|                                             03|               .|                                    l: 3 0x2bf-0x2bf.7 (1)
0x2c0|0b                                             |.               |                                end: 11 (valid) 0x2c0-0x2c0.7 (1)
0x2c0|   0b                                          | .              |                            end: 11 (valid) 0x2c1-0x2c1.7 (1)
     |                                               |                |                          [1]{}: instr 0x2c2-0x2c3.7 (2)
0x2c0|      41                                       |  A             |                            i32.const: 0x41 (valid) 0x2c2-0x2c2.7 (1)
0x2c0|         05                                    |   .            |                            n: 5 0x2c3-0x2c3.7 (1)
0x2c0|            0b                                 |    .           |                        end: 11 (valid) 0x2c4-0x2c4.7 (1)
     |                                               |                |                      [2]{}: instr 0x2c5-0x2c5.7 (1)
0x2c0|               6c                              |     l          |                        i32.mul: 0x6c (valid) 0x2c5-0x2c5.7 (1)
0x2c0|                  0b                           |      .         |                    end: 11 (valid) 0x2c6-0x2c6.7 (1)
     |                                               |                |                  [1]{}: in 0x2c7-0x2c7.7 (1)
0x2c0|                     0b                        |       .        |                    end: 0xb (valid) 0x2c7-0x2c7.7 (1)
     |                                               |                |            [10]{}: code 0x2c8-0x2e0.7 (25)
0x2c0|                        18                     |        .       |              size: 24 0x2c8-0x2c8.7 (1)
     |                                               |                |              code{}: 0x2c9-0x2e0.7 (24)
     |                                               |                |                t{}: 0x2c9-0x2c9.7 (1)
0x2c0|                           00                  |         .      |                  n: 0 0x2c9-0x2c9.7 (1)
     |                                               |                |                  x[0:0]: 0x2ca-NA (0)
     |                                               |                |                e[0:3]: 0x2ca-0x2e0.7 (23)
     |                                               |                |                  [0]{}: in 0x2ca-0x2dd.7 (20)
0x2c0|                              02               |          .     |                    block: 0x2 (valid) 0x2ca-0x2ca.7 (1)
0x2c0|                                 40            |           @    |                    bt: "ε" (64) 0x2cb-0x2cb.7 (1)
     |                                               |                |                    instructions[0:1]: 0x2cc-0x2dc.7 (17)
     |                                               |                |                      [0]{}: instr 0x2cc-0x2dc.7 (17)
0x2c0|                                    02         |            .   |                        block: 0x2 (valid) 0x2cc-0x2cc.7 (1)
0x2c0|                                       40      |             @  |                        bt: "ε" (64) 0x2cd-0x2cd.7 (1)
     |                                               |                |                        instructions[0:3]: 0x2ce-0x2db.7 (14)
     |                                               |                |                          [0]{}: instr 0x2ce-0x2d8.7 (11)
0x2c0|                                          02   |              . |                            block: 0x2 (valid) 0x2ce-0x2ce.7 (1)
0x2c0|                                             40|               @|                            bt: "ε" (64) 0x2cf-0x2cf.7 (1)
     |                                               |                |                            instructions[0:3]: 0x2d0-0x2d7.7 (8)
     |                                               |                |                              [0]{}: instr 0x2d0-0x2d1.7 (2)
0x2d0|20                                             |                |                                local.get: 0x20 (valid) 0x2d0-0x2d0.7 (1)
0x2d0|   00                                          | .              |                                x: 0 0x2d1-0x2d1.7 (1)
     |                                               |                |                              [1]{}: instr 0x2d2-0x2d5.7 (4)
0x2d0|      0e                                       |  .             |                                br_table: 0xe (valid) 0x2d2-0x2d2.7 (1)
     |                                               |                |                                l{}: 0x2d3-0x2d4.7 (2)
0x2d0|         01                                    |   .            |                                  n: 1 0x2d3-0x2d3.7 (1)
     |                                               |                |                                  x[0:1]: 0x2d4-0x2d4.7 (1)
0x2d0|            00                                 |    .           |                                    [0]: 0 l 0x2d4-0x2d4.7 (1)
0x2d0|               01                              |     .          |                                lN: 1 0x2d5-0x2d5.7 (1)
     |                                               |                |                              [2]{}: instr 0x2d6-0x2d7.7 (2)
0x2d0|                  0c                           |      .         |                                br: 0xc (valid) 0x2d6-0x2d6.7 (1)
0x2d0|                     02                        |       .        |                                l: 2 0x2d7-0x2d7.7 (1)
0x2d0|                        0b                     |        .       |                            end: 11 (valid) 0x2d8-0x2d8.7 (1)
     |                                               |                |                          [1]{}: instr 0x2d9-0x2da.7 (2)
0x2d0|                           41                  |         A      |                            i32.const: 0x41 (valid) 0x2d9-0x2d9.7 (1)
0x2d0|                              00               |          .     |                            n: 0 0x2da-0x2da.7 (1)
     |                                               |                |                          [2]{}: instr 0x2db-0x2db.7 (1)
0x2d0|                                 0f            |           .    |                            return: 0xf (valid) 0x2db-0x2db.7 (1)
0x2d0|                                    0b         |            .   |                        end: 11 (valid) 0x2dc-0x2dc.7 (1)
0x2d0|                                       0b      |             .  |                    end: 11 (valid) 0x2dd-0x2dd.7 (1)
     |                                               |                |                  [1]{}: in 0x2de-0x2df.7 (2)
0x2d0|                                          41   |              A |                    i32.const: 0x41 (valid) 0x2de-0x2de.7 (1)
0x2d0|                                             02|               .|                    n: 2 0x2df-0x2df.7 (1)
     |                                               |                |                  [2]{}: in 0x2e0-0x2e0.7 (1)
0x2e0|0b                                             |.               |                    end: 0xb (valid) 0x2e0-0x2e0.7 (1)
     |                                               |                |            [11]{}: code 0x2e1-0x337.7 (87)
0x2e0|   56                                          | V              |              size: 86 0x2e1-0x2e1.7 (1)
     |                                               |                |              code{}: 0x2e2-0x337.7 (86)
     |                                               |                |                t{}: 0x2e2-0x2e4.7 (3)
0x2e0|      01                                       |  .             |                  n: 1 0x2e2-0x2e2.7 (1)
     |                                               |                |                  x[0:1]: 0x2e3-0x2e4.7 (2)
     |                                               |                |                    [0]{}: t 0x2e3-0x2e4.7 (2)
0x2e0|         01                                    |   .            |                      n: 1 0x2e3-0x2e3.7 (1)
0x2e0|            7f                                 |    .           |                      t: "i32" (0x7f) 0x2e4-0x2e4.7 (1)
     |                                               |                |                e[0:4]: 0x2e5-0x337.7 (83)
     |                                               |                |                  [0]{}: in 0x2e5-0x2e6.7 (2)
0x2e0|               41                              |     A          |                    i32.const: 0x41 (valid) 0x2e5-0x2e5.7 (1)
0x2e0|                  00                           |      .         |                    n: 0 0x2e6-0x2e6.7 (1)
     |                                               |                |                  [1]{}: in 0x2e7-0x2e8.7 (2)
0x2e0|                     21                        |       !        |                    local.set: 0x21 (valid) 0x2e7-0x2e7.7 (1)
0x2e0|                        00                     |        .       |                    x: 0 0x2e8-0x2e8.7 (1)
     |                                               |                |                  [2]{}: in 0x2e9-0x336.7 (78)
0x2e0|                           02                  |         .      |                    block: 0x2 (valid) 0x2e9-0x2e9.7 (1)
0x2e0|                              7f               |          .     |                    bt: "i32" (127) 0x2ea-0x2ea.7 (1)
     |                                               |                |                    instructions[0:18]: 0x2eb-0x335.7 (75)
     |                                               |                |                      [0]{}: instr 0x2eb-0x303.7 (25)
0x2e0|                                 02            |           .    |                        block: 0x2 (valid) 0x2eb-0x2eb.7 (1)
0x2e0|                                    40         |            @   |                        bt: "ε" (64) 0x2ec-0x2ec.7 (1)
     |                                               |                |                        instructions[0:12]: 0x2ed-0x302.7 (22)
     |                                               |                |                          [0]{}: instr 0x2ed-0x2ee.7 (2)
0x2e0|                                       41      |             A  |                            i32.const: 0x41 (valid) 0x2ed-0x2ed.7 (1)
0x2e0|                                          00   |              . |                            n: 0 0x2ee-0x2ee.7 (1)
     |                                               |                |                          [1]{}: instr 0x2ef-0x2f0.7 (2)
0x2e0|                                             0d|               .|                            br_if: 0xd (valid) 0x2ef-0x2ef.7 (1)
0x2f0|00                                             |.               |                            l: 0 0x2f0-0x2f0.7 (1)
     |                                               |                |                          [2]{}: instr 0x2f1-0x2f2.7 (2)
0x2f0|   20                                          |                |                            local.get: 0x20 (valid) 0x2f1-0x2f1.7 (1)
0x2f0|      00                                       |  .             |                            x: 0 0x2f2-0x2f2.7 (1)
     |                                               |                |                          [3]{}: instr 0x2f3-0x2f4.7 (2)
0x2f0|         41                                    |   A            |                            i32.const: 0x41 (valid) 0x2f3-0x2f3.7 (1)
0x2f0|            01                                 |    .           |                            n: 1 0x2f4-0x2f4.7 (1)
     |                                               |                |                          [4]{}: instr 0x2f5-0x2f5.7 (1)
0x2f0|               72                              |     r          |                            i32.or: 0x72 (valid) 0x2f5-0x2f5.7 (1)
     |                                               |                |                          [5]{}: instr 0x2f6-0x2f7.7 (2)
0x2f0|                  21                           |      !         |                            local.set: 0x21 (valid) 0x2f6-0x2f6.7 (1)
0x2f0|                     00                        |       .        |                            x: 0 0x2f7-0x2f7.7 (1)
     |                                               |                |                          [6]{}: instr 0x2f8-0x2f9.7 (2)
0x2f0|                        41                     |        A       |                            i32.const: 0x41 (valid) 0x2f8-0x2f8.7 (1)
0x2f0|                           01                  |         .      |                            n: 1 0x2f9-0x2f9.7 (1)
     |                                               |                |                          [7]{}: instr 0x2fa-0x2fb.7 (2)
0x2f0|                              0d               |          .     |                            br_if: 0xd (valid) 0x2fa-0x2fa.7 (1)
0x2f0|                                 00            |           .    |                            l: 0 0x2fb-0x2fb.7 (1)
     |                                               |                |                          [8]{}: instr 0x2fc-0x2fd.7 (2)
0x2f0|                                    20         |                |                            local.get: 0x20 (valid) 0x2fc-0x2fc.7 (1)
0x2f0|                                       00      |             .  |                            x: 0 0x2fd-0x2fd.7 (1)
     |                                               |                |                          [9]{}: instr 0x2fe-0x2ff.7 (2)
0x2f0|                                          41   |              A |                            i32.const: 0x41 (valid) 0x2fe-0x2fe.7 (1)
0x2f0|                                             02|               .|                            n: 2 0x2ff-0x2ff.7 (1)
     |                                               |                |                          [10]{}: instr 0x300-0x300.7 (1)
0x300|72                                             |r               |                            i32.or: 0x72 (valid) 0x300-0x300.7 (1)
     |                                               |                |                          [11]{}: instr 0x301-0x302.7 (2)
0x300|   21                                          | !              |                            local.set: 0x21 (valid) 0x301-0x301.7 (1)
0x300|      00                                       |  .             |                            x: 0 0x302-0x302.7 (1)
0x300|         0b                                    |   .            |                        end: 11 (valid) 0x303-0x303.7 (1)
     |                                               |                |                      [1]{}: instr 0x304-0x30f.7 (12)
0x300|            02                                 |    .           |                        block: 0x2 (valid) 0x304-0x304.7 (1)
0x300|               7f                              |     .          |                        bt: "i32" (127) 0x305-0x305.7 (1)
     |                                               |                |                        instructions[0:5]: 0x306-0x30e.7 (9)
     |                                               |                |                          [0]{}: instr 0x306-0x307.7 (2)
0x300|                  20                           |                |                            local.get: 0x20 (valid) 0x306-0x306.7 (1)
0x300|                     00                        |       .        |                            x: 0 0x307-0x307.7 (1)
     |                                               |                |                          [1]{}: instr 0x308-0x309.7 (2)
0x300|                        41                     |        A       |                            i32.const: 0x41 (valid) 0x308-0x308.7 (1)
0x300|                           04                  |         .      |                            n: 4 0x309-0x309.7 (1)
     |                                               |                |                          [2]{}: instr 0x30a-0x30a.7 (1)
0x300|                              72               |          r     |                            i32.or: 0x72 (valid) 0x30a-0x30a.7 (1)
     |                                               |                |                          [3]{}: instr 0x30b-0x30c.7 (2)
0x300|                                 21            |           !    |                            local.set: 0x21 (valid) 0x30b-0x30b.7 (1)
0x300|                                    00         |            .   |                            x: 0 0x30c-0x30c.7 (1)
     |                                               |                |                          [4]{}: instr 0x30d-0x30e.7 (2)
0x300|                                       20      |                |                            local.get: 0x20 (valid) 0x30d-0x30d.7 (1)
0x300|                                          00   |              . |                            x: 0 0x30e-0x30e.7 (1)
0x300|                                             0b|               .|                        end: 11 (valid) 0x30f-0x30f.7 (1)
     |                                               |                |                      [2]{}: instr 0x310-0x311.7 (2)
0x310|41                                             |A               |                        i32.const: 0x41 (valid) 0x310-0x310.7 (1)
0x310|   00                                          | .              |                        n: 0 0x311-0x311.7 (1)
     |                                               |                |                      [3]{}: instr 0x312-0x313.7 (2)
0x310|      0d                                       |  .             |                        br_if: 0xd (valid) 0x312-0x312.7 (1)
0x310|         00                                    |   .            |                        l: 0 0x313-0x313.7 (1)
     |                                               |                |                      [4]{}: instr 0x314-0x314.7 (1)
0x310|            1a                                 |    .           |                        drop: 0x1a (valid) 0x314-0x314.7 (1)
     |                                               |                |                      [5]{}: instr 0x315-0x316.7 (2)
0x310|               20                              |                |                        local.get: 0x20 (valid) 0x315-0x315.7 (1)
0x310|                  00                           |      .         |                        x: 0 0x316-0x316.7 (1)
     |                                               |                |                      [6]{}: instr 0x317-0x318.7 (2)
0x310|                     41                        |       A        |                        i32.const: 0x41 (valid) 0x317-0x317.7 (1)
0x310|                        08                     |        .       |                        n: 8 0x318-0x318.7 (1)
     |                                               |                |                      [7]{}: instr 0x319-0x319.7 (1)
0x310|                           72                  |         r      |                        i32.or: 0x72 (valid) 0x319-0x319.7 (1)
     |                                               |                |                      [8]{}: instr 0x31a-0x31b.7 (2)
0x310|                              21               |          !     |                        local.set: 0x21 (valid) 0x31a-0x31a.7 (1)
0x310|                                 00            |           .    |                        x: 0 0x31b-0x31b.7 (1)
     |                                               |                |                      [9]{}: instr 0x31c-0x327.7 (12)
0x310|                                    02         |            .   |                        block: 0x2 (valid) 0x31c-0x31c.7 (1)
0x310|                                       7f      |             .  |                        bt: "i32" (127) 0x31d-0x31d.7 (1)
     |                                               |                |                        instructions[0:5]: 0x31e-0x326.7 (9)
     |                                               |                |                          [0]{}: instr 0x31e-0x31f.7 (2)
0x310|                                          20   |                |                            local.get: 0x20 (valid) 0x31e-0x31e.7 (1)
0x310|                                             00|               .|                            x: 0 0x31f-0x31f.7 (1)
     |                                               |                |                          [1]{}: instr 0x320-0x321.7 (2)
0x320|41                                             |A               |                            i32.const: 0x41 (valid) 0x320-0x320.7 (1)
0x320|   10                                          | .              |                            n: 16 0x321-0x321.7 (1)
     |                                               |                |                          [2]{}: instr 0x322-0x322.7 (1)
0x320|      72                                       |  r             |                            i32.or: 0x72 (valid) 0x322-0x322.7 (1)
     |                                               |                |                          [3]{}: instr 0x323-0x324.7 (2)
0x320|         21                                    |   !            |                            local.set: 0x21 (valid) 0x323-0x323.7 (1)
0x320|            00                                 |    .           |                            x: 0 0x324-0x324.7 (1)
     |                                               |                |                          [4]{}: instr 0x325-0x326.7 (2)
0x320|               20                              |                |                            local.get: 0x20 (valid) 0x325-0x325.7 (1)
0x320|                  00                           |      .         |                            x: 0 0x326-0x326.7 (1)
0x320|                     0b                        |       .        |                        end: 11 (valid) 0x327-0x327.7 (1)
     |                                               |                |                      [10]{}: instr 0x328-0x329.7 (2)
0x320|                        41                     |        A       |                        i32.const: 0x41 (valid) 0x328-0x328.7 (1)
0x320|                           01                  |         .      |                        n: 1 0x329-0x329.7 (1)
     |                                               |                |                      [11]{}: instr 0x32a-0x32b.7 (2)
0x320|                              0d               |          .     |                        br_if: 0xd (valid) 0x32a-0x32a.7 (1)
0x320|                                 00            |           .    |                        l: 0 0x32b-0x32b.7 (1)
     |                                               |                |                      [12]{}: instr 0x32c-0x32c.7 (1)
0x320|                                    1a         |            .   |                        drop: 0x1a (valid) 0x32c-0x32c.7 (1)
     |                                               |                |                      [13]{}: instr 0x32d-0x32e.7 (2)
0x320|                                       20      |                |                        local.get: 0x20 (valid) 0x32d-0x32d.7 (1)
0x320|                                          00   |              . |                        x: 0 0x32e-0x32e.7 (1)
     |                                               |                |                      [14]{}: instr 0x32f-0x330.7 (2)
0x320|                                             41|               A|                        i32.const: 0x41 (valid) 0x32f-0x32f.7 (1)
0x330|20                                             |                |                        n: 32 0x330-0x330.7 (1)
     |                                               |                |                      [15]{}: instr 0x331-0x331.7 (1)
0x330|   72                                          | r              |                        i32.or: 0x72 (valid) 0x331-0x331.7 (1)
     |                                               |                |                      [16]{}: instr 0x332-0x333.7 (2)
0x330|      21                                       |  !             |                        local.set: 0x21 (valid) 0x332-0x332.7 (1)
0x330|         00                                    |   .            |                        x: 0 0x333-0x333.7 (1)
     |                                               |                |                      [17]{}: instr 0x334-0x335.7 (2)
0x330|            20                                 |                |                        local.get: 0x20 (valid) 0x334-0x334.7 (1)
0x330|               00                              |     .          |                        x: 0 0x335-0x335.7 (1)
0x330|                  0b                           |      .         |                    end: 11 (valid) 0x336-0x336.7 (1)
     |                                               |                |                  [3]{}: in 0x337-0x337.7 (1)
0x330|                     0b                        |       .        |                    end: 0xb (valid) 0x337-0x337.7 (1)
     |                                               |                |            [12]{}: code 0x338-0x34b.7 (20)
0x330|                        13                     |        .       |              size: 19 0x338-0x338.7 (1)
     |                                               |                |              code{}: 0x339-0x34b.7 (19)
     |                                               |                |                t{}: 0x339-0x339.7 (1)
0x330|                           00                  |         .      |                  n: 0 0x339-0x339.7 (1)
     |                                               |                |                  x[0:0]: 0x33a-NA (0)
     |                                               |                |                e[0:2]: 0x33a-0x34b.7 (18)
     |                                               |                |                  [0]{}: in 0x33a-0x34a.7 (17)
0x330|                              02               |          .     |                    block: 0x2 (valid) 0x33a-0x33a.7 (1)
0x330|                                 7f            |           .    |                    bt: "i32" (127) 0x33b-0x33b.7 (1)
     |                                               |                |                    instructions[0:5]: 0x33c-0x349.7 (14)
     |                                               |                |                      [0]{}: instr 0x33c-0x342.7 (7)
0x330|                                    02         |            .   |                        block: 0x2 (valid) 0x33c-0x33c.7 (1)
0x330|                                       7f      |             .  |                        bt: "i32" (127) 0x33d-0x33d.7 (1)
     |                                               |                |                        instructions[0:2]: 0x33e-0x341.7 (4)
     |                                               |                |                          [0]{}: instr 0x33e-0x33f.7 (2)
0x330|                                          41   |              A |                            i32.const: 0x41 (valid) 0x33e-0x33e.7 (1)
0x330|                                             01|               .|                            n: 1 0x33f-0x33f.7 (1)
     |                                               |                |                          [1]{}: instr 0x340-0x341.7 (2)
0x340|0c                                             |.               |                            br: 0xc (valid) 0x340-0x340.7 (1)
0x340|   00                                          | .              |                            l: 0 0x341-0x341.7 (1)
0x340|      0b                                       |  .             |                        end: 11 (valid) 0x342-0x342.7 (1)
     |                                               |                |                      [1]{}: instr 0x343-0x344.7 (2)
0x340|         41                                    |   A            |                        i32.const: 0x41 (valid) 0x343-0x343.7 (1)
0x340|            01                                 |    .           |                        n: 1 0x344-0x344.7 (1)
     |                                               |                |                      [2]{}: instr 0x345-0x346.7 (2)
0x340|               0d                              |     .          |                        br_if: 0xd (valid) 0x345-0x345.7 (1)
0x340|                  00                           |      .         |                        l: 0 0x346-0x346.7 (1)
     |                                               |                |                      [3]{}: instr 0x347-0x347.7 (1)
0x340|                     1a                        |       .        |                        drop: 0x1a (valid) 0x347-0x347.7 (1)
     |                                               |                |                      [4]{}: instr 0x348-0x349.7 (2)
0x340|                        41                     |        A       |                        i32.const: 0x41 (valid) 0x348-0x348.7 (1)
0x340|                           00                  |         .      |                        n: 0 0x349-0x349.7 (1)
0x340|                              0b               |          .     |                    end: 11 (valid) 0x34a-0x34a.7 (1)
     |                                               |                |                  [1]{}: in 0x34b-0x34b.7 (1)
0x340|                                 0b            |           .    |                    end: 0xb (valid) 0x34b-0x34b.7 (1)
     |                                               |                |            [13]{}: code 0x34c-0x364.7 (25)
0x340|                                    18         |            .   |              size: 24 0x34c-0x34c.7 (1)
     |                                               |                |              code{}: 0x34d-0x364.7 (24)
     |                                               |                |                t{}: 0x34d-0x34d.7 (1)
0x340|                                       00      |             .  |                  n: 0 0x34d-0x34d.7 (1)
     |                                               |                |                  x[0:0]: 0x34e-NA (0)
     |                                               |                |                e[0:2]: 0x34e-0x364.7 (23)
     |                                               |                |                  [0]{}: in 0x34e-0x363.7 (22)
0x340|                                          02   |              . |                    block: 0x2 (valid) 0x34e-0x34e.7 (1)
0x340|                                             7f|               .|                    bt: "i32" (127) 0x34f-0x34f.7 (1)
     |                                               |                |                    instructions[0:3]: 0x350-0x362.7 (19)
     |                                               |                |                      [0]{}: instr 0x350-0x351.7 (2)
0x350|41                                             |A               |                        i32.const: 0x41 (valid) 0x350-0x350.7 (1)
0x350|   01                                          | .              |                        n: 1 0x351-0x351.7 (1)
     |                                               |                |                      [1]{}: instr 0x352-0x360.7 (15)
0x350|      04                                       |  .             |                        if: 0x4 (valid) 0x352-0x352.7 (1)
0x350|         40                                    |   @            |                        bt: "ε" (64) 0x353-0x353.7 (1)
     |                                               |                |                        in1[0:4]: 0x354-0x35f.7 (12)
     |                                               |                |                          [0]{}: instr 0x354-0x35a.7 (7)
0x350|            02                                 |    .           |                            block: 0x2 (valid) 0x354-0x354.7 (1)
0x350|               7f                              |     .          |                            bt: "i32" (127) 0x355-0x355.7 (1)
     |                                               |                |                            instructions[0:2]: 0x356-0x359.7 (4)
     |                                               |                |                              [0]{}: instr 0x356-0x357.7 (2)
0x350|                  41                           |      A         |                                i32.const: 0x41 (valid) 0x356-0x356.7 (1)
0x350|                     01                        |       .        |                                n: 1 0x357-0x357.7 (1)
     |                                               |                |                              [1]{}: instr 0x358-0x359.7 (2)
0x350|                        0c                     |        .       |                                br: 0xc (valid) 0x358-0x358.7 (1)
0x350|                           00                  |         .      |                                l: 0 0x359-0x359.7 (1)
0x350|                              0b               |          .     |                            end: 11 (valid) 0x35a-0x35a.7 (1)
     |                                               |                |                          [1]{}: instr 0x35b-0x35c.7 (2)
0x350|                                 41            |           A    |                            i32.const: 0x41 (valid) 0x35b-0x35b.7 (1)
0x350|                                    01         |            .   |                            n: 1 0x35c-0x35c.7 (1)
     |                                               |                |                          [2]{}: instr 0x35d-0x35e.7 (2)
0x350|                                       0d      |             .  |                            br_if: 0xd (valid) 0x35d-0x35d.7 (1)
0x350|                                          01   |              . |                            l: 1 0x35e-0x35e.7 (1)
     |                                               |                |                          [3]{}: instr 0x35f-0x35f.7 (1)
0x350|                                             1a|               .|                            drop: 0x1a (valid) 0x35f-0x35f.7 (1)
0x360|0b                                             |.               |                        end: 11 (valid) 0x360-0x360.7 (1)
     |                                               |                |                      [2]{}: instr 0x361-0x362.7 (2)
0x360|   41                                          | A              |                        i32.const: 0x41 (valid) 0x361-0x361.7 (1)
0x360|      00                                       |  .             |                        n: 0 0x362-0x362.7 (1)
0x360|         0b                                    |   .            |                    end: 11 (valid) 0x363-0x363.7 (1)
     |                                               |                |                  [1]{}: in 0x364-0x364.7 (1)
0x360|            0b                                 |    .           |                    end: 0xb (valid) 0x364-0x364.7 (1)
     |                                               |                |            [14]{}: code 0x365-0x389.7 (37)
0x360|               24                              |     $          |              size: 36 0x365-0x365.7 (1)
     |                                               |                |              code{}: 0x366-0x389.7 (36)
     |                                               |                |                t{}: 0x366-0x368.7 (3)
0x360|                  01                           |      .         |                  n: 1 0x366-0x366.7 (1)
     |                                               |                |                  x[0:1]: 0x367-0x368.7 (2)
     |                                               |                |                    [0]{}: t 0x367-0x368.7 (2)
0x360|                     01                        |       .        |                      n: 1 0x367-0x367.7 (1)
0x360|                        7f                     |        .       |                      t: "i32" (0x7f) 0x368-0x368.7 (1)
     |                                               |                |                e[0:6]: 0x369-0x389.7 (33)
     |                                               |                |                  [0]{}: in 0x369-0x382.7 (26)
0x360|                           02                  |         .      |                    block: 0x2 (valid) 0x369-0x369.7 (1)
0x360|                              7f               |          .     |                    bt: "i32" (127) 0x36a-0x36a.7 (1)
     |                                               |                |                    instructions[0:5]: 0x36b-0x381.7 (23)
     |                                               |                |                      [0]{}: instr 0x36b-0x373.7 (9)
0x360|                                 02            |           .    |                        block: 0x2 (valid) 0x36b-0x36b.7 (1)
0x360|                                    7f         |            .   |                        bt: "i32" (127) 0x36c-0x36c.7 (1)
     |                                               |                |                        instructions[0:3]: 0x36d-0x372.7 (6)
     |                                               |                |                          [0]{}: instr 0x36d-0x36e.7 (2)
0x360|                                       41      |             A  |                            i32.const: 0x41 (valid) 0x36d-0x36d.7 (1)
0x360|                                          01   |              . |                            n: 1 0x36e-0x36e.7 (1)
     |                                               |                |                          [1]{}: instr 0x36f-0x370.7 (2)
0x360|                                             21|               !|                            local.set: 0x21 (valid) 0x36f-0x36f.7 (1)
0x370|00                                             |.               |                            x: 0 0x370-0x370.7 (1)
     |                                               |                |                          [2]{}: instr 0x371-0x372.7 (2)
0x370|   20                                          |                |                            local.get: 0x20 (valid) 0x371-0x371.7 (1)
0x370|      00                                       |  .             |                            x: 0 0x372-0x372.7 (1)
0x370|         0b                                    |   .            |                        end: 11 (valid) 0x373-0x373.7 (1)
     |                                               |                |                      [1]{}: instr 0x374-0x37c.7 (9)
0x370|            02                                 |    .           |                        block: 0x2 (valid) 0x374-0x374.7 (1)
0x370|               7f                              |     .          |                        bt: "i32" (127) 0x375-0x375.7 (1)
     |                                               |                |                        instructions[0:3]: 0x376-0x37b.7 (6)
     |                                               |                |                          [0]{}: instr 0x376-0x377.7 (2)
0x370|                  41                           |      A         |                            i32.const: 0x41 (valid) 0x376-0x376.7 (1)
0x370|                     02                        |       .        |                            n: 2 0x377-0x377.7 (1)
     |                                               |                |                          [1]{}: instr 0x378-0x379.7 (2)
0x370|                        21                     |        !       |                            local.set: 0x21 (valid) 0x378-0x378.7 (1)
0x370|                           00                  |         .      |                            x: 0 0x379-0x379.7 (1)
     |                                               |                |                          [2]{}: instr 0x37a-0x37b.7 (2)
0x370|                              20               |                |                            local.get: 0x20 (valid) 0x37a-0x37a.7 (1)
0x370|                                 00            |           .    |                            x: 0 0x37b-0x37b.7 (1)
0x370|                                    0b         |            .   |                        end: 11 (valid) 0x37c-0x37c.7 (1)
     |                                               |                |                      [2]{}: instr 0x37d-0x37e.7 (2)
0x370|                                       0d      |             .  |                        br_if: 0xd (valid) 0x37d-0x37d.7 (1)
0x370|                                          00   |              . |                        l: 0 0x37e-0x37e.7 (1)
     |                                               |                |                      [3]{}: instr 0x37f-0x37f.7 (1)
0x370|                                             1a|               .|                        drop: 0x1a (valid) 0x37f-0x37f.7 (1)
     |                                               |                |                      [4]{}: instr 0x380-0x381.7 (2)
0x380|41                                             |A               |                        i32.const: 0x41 (valid) 0x380-0x380.7 (1)
0x380|   00                                          | .              |                        n: 0 0x381-0x381.7 (1)
0x380|      0b                                       |  .             |                    end: 11 (valid) 0x382-0x382.7 (1)
     |                                               |                |                  [1]{}: in 0x383-0x384.7 (2)
0x380|         41                                    |   A            |                    i32.const: 0x41 (valid) 0x383-0x383.7 (1)
0x380|            00                                 |    .           |                    n: 0 0x384-0x384.7 (1)
     |                                               |                |                  [2]{}: in 0x385-0x385.7 (1)
0x380|               6a                              |     j          |                    i32.add: 0x6a (valid) 0x385-0x385.7 (1)
     |                                               |                |                  [3]{}: in 0x386-0x386.7 (1)
0x380|                  1a                           |      .         |                    drop: 0x1a (valid) 0x386-0x386.7 (1)
     |                                               |                |                  [4]{}: in 0x387-0x388.7 (2)
0x380|                     20                        |                |                    local.get: 0x20 (valid) 0x387-0x387.7 (1)
0x380|                        00                     |        .       |                    x: 0 0x388-0x388.7 (1)
     |                                               |                |                  [5]{}: in 0x389-0x389.7 (1)
0x380|                           0b                  |         .      |                    end: 0xb (valid) 0x389-0x389.7 (1)
     |                                               |                |            [15]{}: code 0x38a-0x3ab.7 (34)
0x380|                              21               |          !     |              size: 33 0x38a-0x38a.7 (1)
     |                                               |                |              code{}: 0x38b-0x3ab.7 (33)
     |                                               |                |                t{}: 0x38b-0x38b.7 (1)
0x380|                                 00            |           .    |                  n: 0 0x38b-0x38b.7 (1)
     |                                               |                |                  x[0:0]: 0x38c-NA (0)
     |                                               |                |                e[0:2]: 0x38c-0x3ab.7 (32)
     |                                               |                |                  [0]{}: in 0x38c-0x3aa.7 (31)
0x380|                                    02         |            .   |                    block: 0x2 (valid) 0x38c-0x38c.7 (1)
0x380|                                       7f      |             .  |                    bt: "i32" (127) 0x38d-0x38d.7 (1)
     |                                               |                |                    instructions[0:3]: 0x38e-0x3a9.7 (28)
     |                                               |                |                      [0]{}: instr 0x38e-0x38f.7 (2)
0x380|                                          41   |              A |                        i32.const: 0x41 (valid) 0x38e-0x38e.7 (1)
0x380|                                             01|               .|                        n: 1 0x38f-0x38f.7 (1)
     |                                               |                |                      [1]{}: instr 0x390-0x3a7.7 (24)
0x390|04                                             |.               |                        if: 0x4 (valid) 0x390-0x390.7 (1)
0x390|   40                                          | @              |                        bt: "ε" (64) 0x391-0x391.7 (1)
     |                                               |                |                        in1[0:2]: 0x392-0x39a.7 (9)
     |                                               |                |                          [0]{}: instr 0x392-0x398.7 (7)
0x390|      02                                       |  .             |                            block: 0x2 (valid) 0x392-0x392.7 (1)
0x390|         7f                                    |   .            |                            bt: "i32" (127) 0x393-0x393.7 (1)
     |                                               |                |                            instructions[0:2]: 0x394-0x397.7 (4)
     |                                               |                |                              [0]{}: instr 0x394-0x395.7 (2)
0x390|            41                                 |    A           |                                i32.const: 0x41 (valid) 0x394-0x394.7 (1)
0x390|               01                              |     .          |                                n: 1 0x395-0x395.7 (1)
     |                                               |                |                              [1]{}: instr 0x396-0x397.7 (2)
0x390|                  0c                           |      .         |                                br: 0xc (valid) 0x396-0x396.7 (1)
0x390|                     00                        |       .        |                                l: 0 0x397-0x397.7 (1)
0x390|                        0b                     |        .       |                            end: 11 (valid) 0x398-0x398.7 (1)
     |                                               |                |                          [1]{}: instr 0x399-0x39a.7 (2)
0x390|                           0c                  |         .      |                            br: 0xc (valid) 0x399-0x399.7 (1)
0x390|                              01               |          .     |                            l: 1 0x39a-0x39a.7 (1)
0x390|                                 05            |           .    |                        else: 0x5 (valid) 0x39b-0x39b.7 (1)
     |                                               |                |                        in2[0:1]: 0x39c-0x3a6.7 (11)
     |                                               |                |                          [0]{}: instr 0x39c-0x3a6.7 (11)
0x390|                                    02         |            .   |                            block: 0x2 (valid) 0x39c-0x39c.7 (1)
0x390|                                       40      |             @  |                            bt: "ε" (64) 0x39d-0x39d.7 (1)
     |                                               |                |                            instructions[0:2]: 0x39e-0x3a5.7 (8)
     |                                               |                |                              [0]{}: instr 0x39e-0x3a4.7 (7)
0x390|                                          02   |              . |                                block: 0x2 (valid) 0x39e-0x39e.7 (1)
0x390|                                             7f|               .|                                bt: "i32" (127) 0x39f-0x39f.7 (1)
     |                                               |                |                                instructions[0:2]: 0x3a0-0x3a3.7 (4)
     |                                               |                |                                  [0]{}: instr 0x3a0-0x3a1.7 (2)
0x3a0|41                                             |A               |                                    i32.const: 0x41 (valid) 0x3a0-0x3a0.7 (1)
0x3a0|   01                                          | .              |                                    n: 1 0x3a1-0x3a1.7 (1)
     |                                               |                |                                  [1]{}: instr 0x3a2-0x3a3.7 (2)
0x3a0|      0c                                       |  .             |                                    br: 0xc (valid) 0x3a2-0x3a2.7 (1)
0x3a0|         00                                    |   .            |                                    l: 0 0x3a3-0x3a3.7 (1)
0x3a0|            0b                                 |    .           |                                end: 11 (valid) 0x3a4-0x3a4.7 (1)
     |                                               |                |                              [1]{}: instr 0x3a5-0x3a5.7 (1)
0x3a0|               1a                              |     .          |                                drop: 0x1a (valid) 0x3a5-0x3a5.7 (1)
0x3a0|                  0b                           |      .         |                            end: 11 (valid) 0x3a6-0x3a6.7 (1)
0x3a0|                     0b                        |       .        |                        end: 11 (valid) 0x3a7-0x3a7.7 (1)
     |                                               |                |                      [2]{}: instr 0x3a8-0x3a9.7 (2)
0x3a0|                        41                     |        A       |                        i32.const: 0x41 (valid) 0x3a8-0x3a8.7 (1)
0x3a0|                           01                  |         .      |                        n: 1 0x3a9-0x3a9.7 (1)
0x3a0|                              0b               |          .     |                    end: 11 (valid) 0x3aa-0x3aa.7 (1)
     |                                               |                |                  [1]{}: in 0x3ab-0x3ab.7 (1)
0x3a0|                                 0b            |           .    |                    end: 0xb (valid) 0x3ab-0x3ab.7 (1)
     |                                               |                |            [16]{}: code 0x3ac-0x3b8.7 (13)
0x3a0|                                    0c         |            .   |              size: 12 0x3ac-0x3ac.7 (1)
     |                                               |                |              code{}: 0x3ad-0x3b8.7 (12)
     |                                               |                |                t{}: 0x3ad-0x3ad.7 (1)
0x3a0|                                       00      |             .  |                  n: 0 0x3ad-0x3ad.7 (1)
     |                                               |                |                  x[0:0]: 0x3ae-NA (0)
     |                                               |                |                e[0:2]: 0x3ae-0x3b8.7 (11)
     |                                               |                |                  [0]{}: in 0x3ae-0x3b7.7 (10)
0x3a0|                                          02   |              . |                    block: 0x2 (valid) 0x3ae-0x3ae.7 (1)
0x3a0|                                             7f|               .|                    bt: "i32" (127) 0x3af-0x3af.7 (1)
     |                                               |                |                    instructions[0:4]: 0x3b0-0x3b6.7 (7)
     |                                               |                |                      [0]{}: instr 0x3b0-0x3b1.7 (2)
0x3b0|41                                             |A               |                        i32.const: 0x41 (valid) 0x3b0-0x3b0.7 (1)
0x3b0|   01                                          | .              |                        n: 1 0x3b1-0x3b1.7 (1)
     |                                               |                |                      [1]{}: instr 0x3b2-0x3b3.7 (2)
0x3b0|      0c                                       |  .             |                        br: 0xc (valid) 0x3b2-0x3b2.7 (1)
0x3b0|         00                                    |   .            |                        l: 0 0x3b3-0x3b3.7 (1)
     |                                               |                |                      [2]{}: instr 0x3b4-0x3b5.7 (2)
0x3b0|            41                                 |    A           |                        i32.const: 0x41 (valid) 0x3b4-0x3b4.7 (1)
0x3b0|               02                              |     .          |                        n: 2 0x3b5-0x3b5.7 (1)
     |                                               |                |                      [3]{}: instr 0x3b6-0x3b6.7 (1)
0x3b0|                  73                           |      s         |                        i32.xor: 0x73 (valid) 0x3b6-0x3b6.7 (1)
0x3b0|                     0b                        |       .        |                    end: 11 (valid) 0x3b7-0x3b7.7 (1)
     |                                               |                |                  [1]{}: in 0x3b8-0x3b8.7 (1)
0x3b0|                        0b                     |        .       |                    end: 0xb (valid) 0x3b8-0x3b8.7 (1)
     |                                               |                |            [17]{}: code 0x3b9-0x3cb.7 (19)
0x3b0|                           12                  |         .      |              size: 18 0x3b9-0x3b9.7 (1)
     |                                               |                |              code{}: 0x3ba-0x3cb.7 (18)
     |                                               |                |                t{}: 0x3ba-0x3ba.7 (1)
0x3b0|                              00               |          .     |                  n: 0 0x3ba-0x3ba.7 (1)
     |                                               |                |                  x[0:0]: 0x3bb-NA (0)
     |                                               |                |                e[0:2]: 0x3bb-0x3cb.7 (17)
     |                                               |                |                  [0]{}: in 0x3bb-0x3ca.7 (16)
0x3b0|                                 02            |           .    |                    block: 0x2 (valid) 0x3bb-0x3bb.7 (1)
0x3b0|                                    7f         |            .   |                    bt: "i32" (127) 0x3bc-0x3bc.7 (1)
     |                                               |                |                    instructions[0:3]: 0x3bd-0x3c9.7 (13)
     |                                               |                |                      [0]{}: instr 0x3bd-0x3c1.7 (5)
0x3b0|                                       02      |             .  |                        block: 0x2 (valid) 0x3bd-0x3bd.7 (1)
0x3b0|                                          7f   |              . |                        bt: "i32" (127) 0x3be-0x3be.7 (1)
     |                                               |                |                        instructions[0:1]: 0x3bf-0x3c0.7 (2)
     |                                               |                |                          [0]{}: instr 0x3bf-0x3c0.7 (2)
0x3b0|                                             41|               A|                            i32.const: 0x41 (valid) 0x3bf-0x3bf.7 (1)
0x3c0|02                                             |.               |                            n: 2 0x3c0-0x3c0.7 (1)
0x3c0|   0b                                          | .              |                        end: 11 (valid) 0x3c1-0x3c1.7 (1)
     |                                               |                |                      [1]{}: instr 0x3c2-0x3c8.7 (7)
0x3c0|      02                                       |  .             |                        block: 0x2 (valid) 0x3c2-0x3c2.7 (1)
0x3c0|         7f                                    |   .            |                        bt: "i32" (127) 0x3c3-0x3c3.7 (1)
     |                                               |                |                        instructions[0:2]: 0x3c4-0x3c7.7 (4)
     |                                               |                |                          [0]{}: instr 0x3c4-0x3c5.7 (2)
0x3c0|            41                                 |    A           |                            i32.const: 0x41 (valid) 0x3c4-0x3c4.7 (1)
0x3c0|               03                              |     .          |                            n: 3 0x3c5-0x3c5.7 (1)
     |                                               |                |                          [1]{}: instr 0x3c6-0x3c7.7 (2)
0x3c0|                  0c                           |      .         |                            br: 0xc (valid) 0x3c6-0x3c6.7 (1)
0x3c0|                     00                        |       .        |                            l: 0 0x3c7-0x3c7.7 (1)
0x3c0|                        0b                     |        .       |                        end: 11 (valid) 0x3c8-0x3c8.7 (1)
     |                                               |                |                      [2]{}: instr 0x3c9-0x3c9.7 (1)
0x3c0|                           6a                  |         j      |                        i32.add: 0x6a (valid) 0x3c9-0x3c9.7 (1)
0x3c0|                              0b               |          .     |                    end: 11 (valid) 0x3ca-0x3ca.7 (1)
     |                                               |                |                  [1]{}: in 0x3cb-0x3cb.7 (1)
0x3c0|                                 0b|           |           .|   |                    end: 0xb (valid) 0x3cb-0x3cb.7 (1)
