$ fq -d wasm dv linking-3.wasm
    |00 01 02 03 04 05 06 07 08 09 0a 0b 0c 0d 0e 0f|0123456789abcdef|.{}: linking-3.wasm (wasm) 0x0-0x69.7 (106)
0x00|00 61 73 6d                                    |.asm            |  magic: raw bits (valid) 0x0-0x3.7 (4)
0x00|            01 00 00 00                        |    ....        |  version: 1 0x4-0x7.7 (4)
    |                                               |                |  sections[0:5]: 0x8-0x69.7 (98)
    |                                               |                |    [0]{}: section 0x8-0x12.7 (11)
0x00|                        01                     |        .       |      id: "type section" (1) 0x8-0x8.7 (1)
0x00|                           09                  |         .      |      size: 9 0x9-0x9.7 (1)
    |                                               |                |      content{}: 0xa-0x12.7 (9)
    |                                               |                |        ft{}: 0xa-0x12.7 (9)
0x00|                              02               |          .     |          n: 2 0xa-0xa.7 (1)
    |                                               |                |          x[0:2]: 0xb-0x12.7 (8)
    |                                               |                |            [0]{}: ft 0xb-0xe.7 (4)
0x00|                                 60            |           `    |              tag: 0x60 (valid) 0xb-0xb.7 (1)
    |                                               |                |              rt1{}: 0xc-0xc.7 (1)
0x00|                                    00         |            .   |                n: 0 0xc-0xc.7 (1)
    |                                               |                |                x[0:0]: 0xd-NA (0)
    |                                               |                |              rt2{}: 0xd-0xe.7 (2)
0x00|                                       01      |             .  |                n: 1 0xd-0xd.7 (1)
    |                                               |                |                x[0:1]: 0xe-0xe.7 (1)
0x00|                                          7f   |              . |                  [0]: "i32" (0x7f) t 0xe-0xe.7 (1)
    |                                               |                |            [1]{}: ft 0xf-0x12.7 (4)
0x00|                                             60|               `|              tag: 0x60 (valid) 0xf-0xf.7 (1)
    |                                               |                |              rt1{}: 0x10-0x11.7 (2)
0x10|01                                             |.               |                n: 1 0x10-0x10.7 (1)
    |                                               |                |                x[0:1]: 0x11-0x11.7 (1)
0x10|   7f                                          | .              |                  [0]: "i32" (0x7f) t 0x11-0x11.7 (1)
    |                                               |                |              rt2{}: 0x12-0x12.7 (1)
0x10|      00                                       |  .             |                n: 0 0x12-0x12.7 (1)
    |                                               |                |                x[0:0]: 0x13-NA (0)
    |                                               |                |    [1]{}: section 0x13-0x18.7 (6)
0x10|         03                                    |   .            |      id: "function section" (3) 0x13-0x13.7 (1)
0x10|            04                                 |    .           |      size: 4 0x14-0x14.7 (1)
    |                                               |                |      content{}: 0x15-0x18.7 (4)
    |                                               |                |        x{}: 0x15-0x18.7 (4)
0x10|               03                              |     .          |          n: 3 0x15-0x15.7 (1)
    |                                               |                |          x[0:3]: 0x16-0x18.7 (3)
0x10|                  00                           |      .         |            [0]: 0 x 0x16-0x16.7 (1)
0x10|                     00                        |       .        |            [1]: 0 x 0x17-0x17.7 (1)
0x10|                        01                     |        .       |            [2]: 1 x 0x18-0x18.7 (1)
    |                                               |                |    [2]{}: section 0x19-0x26.7 (14)
0x10|                           06                  |         .      |      id: "global section" (6) 0x19-0x19.7 (1)
0x10|                              0c               |          .     |      size: 12 0x1a-0x1a.7 (1)
    |                                               |                |      content{}: 0x1b-0x26.7 (12)
    |                                               |                |        glob{}: 0x1b-0x26.7 (12)
0x10|                                 02            |           .    |          n: 2 0x1b-0x1b.7 (1)
    |                                               |                |          x[0:2]: 0x1c-0x26.7 (11)
    |                                               |                |            [0]{}: glob 0x1c-0x20.7 (5)
    |                                               |                |              gt{}: 0x1c-0x1d.7 (2)
0x10|                                    7f         |            .   |                t: "i32" (0x7f) 0x1c-0x1c.7 (1)
0x10|                                       00      |             .  |                m: "const" (0) 0x1d-0x1d.7 (1)
    |                                               |                |              e[0:2]: 0x1e-0x20.7 (3)
    |                                               |                |                [0]{}: in 0x1e-0x1f.7 (2)
0x10|                                          41   |              A |                  i32.const: 0x41 (valid) 0x1e-0x1e.7 (1)
0x10|                                             2a|               *|                  n: 42 0x1f-0x1f.7 (1)
    |                                               |                |                [1]{}: in 0x20-0x20.7 (1)
0x20|0b                                             |.               |                  end: 0xb (valid) 0x20-0x20.7 (1)
    |                                               |                |            [1]{}: glob 0x21-0x26.7 (6)
    |                                               |                |              gt{}: 0x21-0x22.7 (2)
0x20|   7f                                          | .              |                t: "i32" (0x7f) 0x21-0x21.7 (1)
0x20|      01                                       |  .             |                m: "var" (1) 0x22-0x22.7 (1)
    |                                               |                |              e[0:2]: 0x23-0x26.7 (4)
    |                                               |                |                [0]{}: in 0x23-0x25.7 (3)
0x20|         41                                    |   A            |                  i32.const: 0x41 (valid) 0x23-0x23.7 (1)
0x20|            8e 01                              |    ..          |                  n: 142 0x24-0x25.7 (2)
    |                                               |                |                [1]{}: in 0x26-0x26.7 (1)
0x20|                  0b                           |      .         |                  end: 0xb (valid) 0x26-0x26.7 (1)
    |                                               |                |    [3]{}: section 0x27-0x55.7 (47)
0x20|                     07                        |       .        |      id: "export section" (7) 0x27-0x27.7 (1)
0x20|                        2d                     |        -       |      size: 45 0x28-0x28.7 (1)
    |                                               |                |      content{}: 0x29-0x55.7 (45)
    |                                               |                |        ex{}: 0x29-0x55.7 (45)
0x20|                           05                  |         .      |          n: 5 0x29-0x29.7 (1)
    |                                               |                |          x[0:5]: 0x2a-0x55.7 (44)
    |                                               |                |            [0]{}: ex 0x2a-0x30.7 (7)
    |                                               |                |              nm{}: 0x2a-0x2e.7 (5)
0x20|                              04               |          .     |                n: 4 0x2a-0x2a.7 (1)
0x20|                                 67 6c 6f 62   |           glob |                b: "glob" 0x2b-0x2e.7 (4)
    |                                               |                |              d{}: 0x2f-0x30.7 (2)
0x20|                                             03|               .|                tag: "globalidx" (0x3) 0x2f-0x2f.7 (1)
0x30|00                                             |.               |                x: 0 0x30-0x30.7 (1)
    |                                               |                |            [1]{}: ex 0x31-0x36.7 (6)
    |                                               |                |              nm{}: 0x31-0x34.7 (4)
0x30|   03                                          | .              |                n: 3 0x31-0x31.7 (1)
0x30|      67 65 74                                 |  get           |                b: "get" 0x32-0x34.7 (3)
    |                                               |                |              d{}: 0x35-0x36.7 (2)
0x30|               00                              |     .          |                tag: "funcidx" (0x0) 0x35-0x35.7 (1)
0x30|                  00                           |      .         |                x: 0 0x36-0x36.7 (1)
    |                                               |                |            [2]{}: ex 0x37-0x41.7 (11)
    |                                               |                |              nm{}: 0x37-0x3f.7 (9)
0x30|                     08                        |       .        |                n: 8 0x37-0x37.7 (1)
0x30|                        6d 75 74 5f 67 6c 6f 62|        mut_glob|                b: "mut_glob" 0x38-0x3f.7 (8)
    |                                               |                |              d{}: 0x40-0x41.7 (2)
0x40|03                                             |.               |                tag: "globalidx" (0x3) 0x40-0x40.7 (1)
0x40|   01                                          | .              |                x: 1 0x41-0x41.7 (1)
    |                                               |                |            [3]{}: ex 0x42-0x4b.7 (10)
    |                                               |                |              nm{}: 0x42-0x49.7 (8)
0x40|      07                                       |  .             |                n: 7 0x42-0x42.7 (1)
0x40|         67 65 74 5f 6d 75 74                  |   get_mut      |                b: "get_mut" 0x43-0x49.7 (7)
    |                                               |                |              d{}: 0x4a-0x4b.7 (2)
0x40|                              00               |          .     |                tag: "funcidx" (0x0) 0x4a-0x4a.7 (1)
0x40|                                 01            |           .    |                x: 1 0x4b-0x4b.7 (1)
    |                                               |                |            [4]{}: ex 0x4c-0x55.7 (10)
    |                                               |                |              nm{}: 0x4c-0x53.7 (8)
0x40|                                    07         |            .   |                n: 7 0x4c-0x4c.7 (1)
0x40|                                       73 65 74|             set|                b: "set_mut" 0x4d-0x53.7 (7)
0x50|5f 6d 75 74                                    |_mut            |
    |                                               |                |              d{}: 0x54-0x55.7 (2)
0x50|            00                                 |    .           |                tag: "funcidx" (0x0) 0x54-0x54.7 (1)
0x50|               02                              |     .          |                x: 2 0x55-0x55.7 (1)
    |                                               |                |    [4]{}: section 0x56-0x69.7 (20)
0x50|                  0a                           |      .         |      id: "code section" (10) 0x56-0x56.7 (1)
0x50|                     12                        |       .        |      size: 18 0x57-0x57.7 (1)
    |                                               |                |      content{}: 0x58-0x69.7 (18)
    |                                               |                |        code{}: 0x58-0x69.7 (18)
0x50|                        03                     |        .       |          n: 3 0x58-0x58.7 (1)
    |                                               |                |          x[0:3]: 0x59-0x69.7 (17)
    |                                               |                |            [0]{}: code 0x59-0x5d.7 (5)
0x50|                           04                  |         .      |              size: 4 0x59-0x59.7 (1)
    |                                               |                |              code{}: 0x5a-0x5d.7 (4)
    |                                               |                |                t{}: 0x5a-0x5a.7 (1)
0x50|                              00               |          .     |                  n: 0 0x5a-0x5a.7 (1)
    |                                               |                |                  x[0:0]: 0x5b-NA (0)
    |                                               |                |                e[0:2]: 0x5b-0x5d.7 (3)
    |                                               |                |                  [0]{}: in 0x5b-0x5c.7 (2)
0x50|                                 23            |           #    |                    global.get: 0x23 (valid) 0x5b-0x5b.7 (1)
0x50|                                    00         |            .   |                    x: 0 0x5c-0x5c.7 (1)
    |                                               |                |                  [1]{}: in 0x5d-0x5d.7 (1)
0x50|                                       0b      |             .  |                    end: 0xb (valid) 0x5d-0x5d.7 (1)
    |                                               |                |            [1]{}: code 0x5e-0x62.7 (5)
0x50|                                          04   |              . |              size: 4 0x5e-0x5e.7 (1)
    |                                               |                |              code{}: 0x5f-0x62.7 (4)
    |                                               |                |                t{}: 0x5f-0x5f.7 (1)
0x50|                                             00|               .|                  n: 0 0x5f-0x5f.7 (1)
    |                                               |                |                  x[0:0]: 0x60-NA (0)
    |                                               |                |                e[0:2]: 0x60-0x62.7 (3)
    |                                               |                |                  [0]{}: in 0x60-0x61.7 (2)
0x60|23                                             |#               |                    global.get: 0x23 (valid) 0x60-0x60.7 (1)
0x60|   01                                          | .              |                    x: 1 0x61-0x61.7 (1)
    |                                               |                |                  [1]{}: in 0x62-0x62.7 (1)
0x60|      0b                                       |  .             |                    end: 0xb (valid) 0x62-0x62.7 (1)
    |                                               |                |            [2]{}: code 0x63-0x69.7 (7)
0x60|         06                                    |   .            |              size: 6 0x63-0x63.7 (1)
    |                                               |                |              code{}: 0x64-0x69.7 (6)
    |                                               |                |                t{}: 0x64-0x64.7 (1)
0x60|            00                                 |    .           |                  n: 0 0x64-0x64.7 (1)
    |                                               |                |                  x[0:0]: 0x65-NA (0)
    |                                               |                |                e[0:3]: 0x65-0x69.7 (5)
    |                                               |                |                  [0]{}: in 0x65-0x66.7 (2)
0x60|               20                              |                |                    local.get: 0x20 (valid) 0x65-0x65.7 (1)
0x60|                  00                           |      .         |                    x: 0 0x66-0x66.7 (1)
    |                                               |                |                  [1]{}: in 0x67-0x68.7 (2)
0x60|                     24                        |       $        |                    global.set: 0x24 (valid) 0x67-0x67.7 (1)
0x60|                        01                     |        .       |                    x: 1 0x68-0x68.7 (1)
    |                                               |                |                  [2]{}: in 0x69-0x69.7 (1)
0x60|                           0b|                 |         .|     |                    end: 0xb (valid) 0x69-0x69.7 (1)
