$ fq -d wasm dv linking-8.wasm
    |00 01 02 03 04 05 06 07 08 09 0a 0b 0c 0d 0e 0f|0123456789abcdef|.{}: linking-8.wasm (wasm) 0x0-0x7f (127)
0x00|00 61 73 6d                                    |.asm            |  magic: raw bits (valid) 0x0-0x4 (4)
0x00|            01 00 00 00                        |    ....        |  version: 1 0x4-0x8 (4)
    |                                               |                |  sections[0:7]: 0x8-0x7f (119)
    |                                               |                |    [0]{}: section 0x8-0x17 (15)
0x00|                        01                     |        .       |      id: "type_section" (1) 0x8-0x9 (1)
0x00|                           0d                  |         .      |      size: 13 (valid) 0x9-0xa (1)
    |                                               |                |      content{}: 0xa-0x17 (13)
    |                                               |                |        ft{}: 0xa-0x17 (13)
0x00|                              03               |          .     |          n: 3 (valid) 0xa-0xb (1)
    |                                               |                |          x[0:3]: 0xb-0x17 (12)
    |                                               |                |            [0]{}: ft 0xb-0xe (3)
0x00|                                 60            |           `    |              tag: 0x60 (valid) 0xb-0xc (1)
    |                                               |                |              rt1{}: 0xc-0xd (1)
0x00|                                    00         |            .   |                n: 0 (valid) 0xc-0xd (1)
    |                                               |                |                x[0:0]: 0xd-0xd (0)
    |                                               |                |              rt2{}: 0xd-0xe (1)
0x00|                                       00      |             .  |                n: 0 (valid) 0xd-0xe (1)
    |                                               |                |                x[0:0]: 0xe-0xe (0)
    |                                               |                |            [1]{}: ft 0xe-0x12 (4)
0x00|                                          60   |              ` |              tag: 0x60 (valid) 0xe-0xf (1)
    |                                               |                |              rt1{}: 0xf-0x10 (1)
0x00|                                             00|               .|                n: 0 (valid) 0xf-0x10 (1)
    |                                               |                |                x[0:0]: 0x10-0x10 (0)
    |                                               |                |              rt2{}: 0x10-0x12 (2)
0x10|01                                             |.               |                n: 1 (valid) 0x10-0x11 (1)
    |                                               |                |                x[0:1]: 0x11-0x12 (1)
0x10|   7f                                          | .              |                  [0]: "i32" (0x7f) t 0x11-0x12 (1)
    |                                               |                |            [2]{}: ft 0x12-0x17 (5)
0x10|      60                                       |  `             |              tag: 0x60 (valid) 0x12-0x13 (1)
    |                                               |                |              rt1{}: 0x13-0x15 (2)
0x10|         01                                    |   .            |                n: 1 (valid) 0x13-0x14 (1)
    |                                               |                |                x[0:1]: 0x14-0x15 (1)
0x10|            7f                                 |    .           |                  [0]: "i32" (0x7f) t 0x14-0x15 (1)
    |                                               |                |              rt2{}: 0x15-0x17 (2)
0x10|               01                              |     .          |                n: 1 (valid) 0x15-0x16 (1)
    |                                               |                |                x[0:1]: 0x16-0x17 (1)
0x10|                  7f                           |      .         |                  [0]: "i32" (0x7f) t 0x16-0x17 (1)
    |                                               |                |    [1]{}: section 0x17-0x2b (20)
0x10|                     02                        |       .        |      id: "import_section" (2) 0x17-0x18 (1)
0x10|                        12                     |        .       |      size: 18 (valid) 0x18-0x19 (1)
    |                                               |                |      content{}: 0x19-0x2b (18)
    |                                               |                |        im{}: 0x19-0x2b (18)
0x10|                           02                  |         .      |          n: 2 (valid) 0x19-0x1a (1)
    |                                               |                |          x[0:2]: 0x1a-0x2b (17)
    |                                               |                |            [0]{}: im 0x1a-0x24 (10)
    |                                               |                |              mod{}: 0x1a-0x1d (3)
0x10|                              02               |          .     |                n: 2 (valid) 0x1a-0x1b (1)
0x10|                                 4d 74         |           Mt   |                b: "Mt" 0x1b-0x1d (2)
    |                                               |                |              nm{}: 0x1d-0x22 (5)
0x10|                                       04      |             .  |                n: 4 (valid) 0x1d-0x1e (1)
0x10|                                          63 61|              ca|                b: "call" 0x1e-0x22 (4)
0x20|6c 6c                                          |ll              |
    |                                               |                |              d{}: 0x22-0x24 (2)
0x20|      00                                       |  .             |                tag: "func" (0x0) 0x22-0x23 (1)
0x20|         02                                    |   .            |                x: 2 (valid) 0x23-0x24 (1)
    |                                               |                |            [1]{}: im 0x24-0x2b (7)
    |                                               |                |              mod{}: 0x24-0x27 (3)
0x20|            02                                 |    .           |                n: 2 (valid) 0x24-0x25 (1)
0x20|               4d 74                           |     Mt         |                b: "Mt" 0x25-0x27 (2)
    |                                               |                |              nm{}: 0x27-0x29 (2)
0x20|                     01                        |       .        |                n: 1 (valid) 0x27-0x28 (1)
0x20|                        68                     |        h       |                b: "h" 0x28-0x29 (1)
    |                                               |                |              d{}: 0x29-0x2b (2)
0x20|                           00                  |         .      |                tag: "func" (0x0) 0x29-0x2a (1)
0x20|                              01               |          .     |                x: 1 (valid) 0x2a-0x2b (1)
    |                                               |                |    [2]{}: section 0x2b-0x31 (6)
0x20|                                 03            |           .    |      id: "function_section" (3) 0x2b-0x2c (1)
0x20|                                    04         |            .   |      size: 4 (valid) 0x2c-0x2d (1)
    |                                               |                |      content{}: 0x2d-0x31 (4)
    |                                               |                |        x{}: 0x2d-0x31 (4)
0x20|                                       03      |             .  |          n: 3 (valid) 0x2d-0x2e (1)
    |                                               |                |          x[0:3]: 0x2e-0x31 (3)
0x20|                                          01   |              . |            [0]: 1 x (valid) 0x2e-0x2f (1)
0x20|                                             02|               .|            [1]: 2 x (valid) 0x2f-0x30 (1)
0x30|02                                             |.               |            [2]: 2 x (valid) 0x30-0x31 (1)
    |                                               |                |    [3]{}: section 0x31-0x38 (7)
0x30|   04                                          | .              |      id: "table_section" (4) 0x31-0x32 (1)
0x30|      05                                       |  .             |      size: 5 (valid) 0x32-0x33 (1)
    |                                               |                |      content{}: 0x33-0x38 (5)
    |                                               |                |        tab{}: 0x33-0x38 (5)
0x30|         01                                    |   .            |          n: 1 (valid) 0x33-0x34 (1)
    |                                               |                |          x[0:1]: 0x34-0x38 (4)
    |                                               |                |            [0]{}: tab 0x34-0x38 (4)
0x30|            70                                 |    p           |              et: "funcref" (112) 0x34-0x35 (1)
    |                                               |                |              lim{}: 0x35-0x38 (3)
0x30|               01                              |     .          |                tag: 0x1 0x35-0x36 (1)
0x30|                  05                           |      .         |                n: 5 (valid) 0x36-0x37 (1)
0x30|                     05                        |       .        |                m: 5 (valid) 0x37-0x38 (1)
    |                                               |                |    [4]{}: section 0x38-0x5b (35)
0x30|                        07                     |        .       |      id: "export_section" (7) 0x38-0x39 (1)
0x30|                           21                  |         !      |      size: 33 (valid) 0x39-0x3a (1)
    |                                               |                |      content{}: 0x3a-0x5b (33)
    |                                               |                |        ex{}: 0x3a-0x5b (33)
0x30|                              03               |          .     |          n: 3 (valid) 0x3a-0x3b (1)
    |                                               |                |          x[0:3]: 0x3b-0x5b (32)
    |                                               |                |            [0]{}: ex 0x3b-0x45 (10)
    |                                               |                |              nm{}: 0x3b-0x43 (8)
0x30|                                 07            |           .    |                n: 7 (valid) 0x3b-0x3c (1)
0x30|                                    4d 74 2e 63|            Mt.c|                b: "Mt.call" 0x3c-0x43 (7)
0x40|61 6c 6c                                       |all             |
    |                                               |                |              d{}: 0x43-0x45 (2)
0x40|         00                                    |   .            |                tag: "funcidx" (0x0) 0x43-0x44 (1)
0x40|            00                                 |    .           |                x: 0 (valid) 0x44-0x45 (1)
    |                                               |                |            [1]{}: ex 0x45-0x54 (15)
    |                                               |                |              nm{}: 0x45-0x52 (13)
0x40|               0c                              |     .          |                n: 12 (valid) 0x45-0x46 (1)
0x40|                  63 61 6c 6c 20 4d 74 2e 63 61|      call Mt.ca|                b: "call Mt.call" 0x46-0x52 (12)
0x50|6c 6c                                          |ll              |
    |                                               |                |              d{}: 0x52-0x54 (2)
0x50|      00                                       |  .             |                tag: "funcidx" (0x0) 0x52-0x53 (1)
0x50|         03                                    |   .            |                x: 3 (valid) 0x53-0x54 (1)
    |                                               |                |            [2]{}: ex 0x54-0x5b (7)
    |                                               |                |              nm{}: 0x54-0x59 (5)
0x50|            04                                 |    .           |                n: 4 (valid) 0x54-0x55 (1)
0x50|               63 61 6c 6c                     |     call       |                b: "call" 0x55-0x59 (4)
    |                                               |                |              d{}: 0x59-0x5b (2)
0x50|                           00                  |         .      |                tag: "funcidx" (0x0) 0x59-0x5a (1)
0x50|                              04               |          .     |                x: 4 (valid) 0x5a-0x5b (1)
    |                                               |                |    [5]{}: section 0x5b-0x68 (13)
0x50|                                 09            |           .    |      id: "element_section" (9) 0x5b-0x5c (1)
0x50|                                    0b         |            .   |      size: 11 (valid) 0x5c-0x5d (1)
    |                                               |                |      element{}: 0x5d-0x68 (11)
    |                                               |                |        seg{}: 0x5d-0x68 (11)
0x50|                                       01      |             .  |          n: 1 (valid) 0x5d-0x5e (1)
    |                                               |                |          x[0:1]: 0x5e-0x68 (10)
    |                                               |                |            [0]{}: seg 0x5e-0x68 (10)
0x50|                                          00   |              . |              tag: 0 (valid) 0x5e-0x5f (1)
    |                                               |                |              e[0:2]: 0x5f-0x62 (3)
    |                                               |                |                [0]{}: in 0x5f-0x61 (2)
0x50|                                             41|               A|                  opcode: "i32.const" (0x41) 0x5f-0x60 (1)
0x60|00                                             |.               |                  n: 0 (valid) 0x60-0x61 (1)
    |                                               |                |                [1]{}: in 0x61-0x62 (1)
0x60|   0b                                          | .              |                  opcode: "end" (0xb) 0x61-0x62 (1)
    |                                               |                |              y{}: 0x62-0x68 (6)
0x60|      05                                       |  .             |                n: 5 (valid) 0x62-0x63 (1)
    |                                               |                |                x[0:5]: 0x63-0x68 (5)
0x60|         02                                    |   .            |                  [0]: 2 y (valid) 0x63-0x64 (1)
0x60|            02                                 |    .           |                  [1]: 2 y (valid) 0x64-0x65 (1)
0x60|               02                              |     .          |                  [2]: 2 y (valid) 0x65-0x66 (1)
0x60|                  01                           |      .         |                  [3]: 1 y (valid) 0x66-0x67 (1)
0x60|                     00                        |       .        |                  [4]: 0 y (valid) 0x67-0x68 (1)
    |                                               |                |    [6]{}: section 0x68-0x7f (23)
0x60|                        0a                     |        .       |      id: "code_section" (10) 0x68-0x69 (1)
0x60|                           15                  |         .      |      size: 21 (valid) 0x69-0x6a (1)
    |                                               |                |      content{}: 0x6a-0x7f (21)
    |                                               |                |        code{}: 0x6a-0x7f (21)
0x60|                              03               |          .     |          n: 3 (valid) 0x6a-0x6b (1)
    |                                               |                |          x[0:3]: 0x6b-0x7f (20)
    |                                               |                |            [0]{}: code 0x6b-0x70 (5)
0x60|                                 04            |           .    |              size: 4 (valid) 0x6b-0x6c (1)
    |                                               |                |              code{}: 0x6c-0x70 (4)
    |                                               |                |                t{}: 0x6c-0x6d (1)
0x60|                                    00         |            .   |                  n: 0 (valid) 0x6c-0x6d (1)
    |                                               |                |                  x[0:0]: 0x6d-0x6d (0)
    |                                               |                |                e[0:2]: 0x6d-0x70 (3)
    |                                               |                |                  [0]{}: in 0x6d-0x6f (2)
0x60|                                       41      |             A  |                    opcode: "i32.const" (0x41) 0x6d-0x6e (1)
0x60|                                          05   |              . |                    n: 5 (valid) 0x6e-0x6f (1)
    |                                               |                |                  [1]{}: in 0x6f-0x70 (1)
0x60|                                             0b|               .|                    opcode: "end" (0xb) 0x6f-0x70 (1)
    |                                               |                |            [1]{}: code 0x70-0x77 (7)
0x70|06                                             |.               |              size: 6 (valid) 0x70-0x71 (1)
    |                                               |                |              code{}: 0x71-0x77 (6)
    |                                               |                |                t{}: 0x71-0x72 (1)
0x70|   00                                          | .              |                  n: 0 (valid) 0x71-0x72 (1)
    |                                               |                |                  x[0:0]: 0x72-0x72 (0)
    |                                               |                |                e[0:3]: 0x72-0x77 (5)
    |                                               |                |                  [0]{}: in 0x72-0x74 (2)
0x70|      20                                       |                |                    opcode: "local.get" (0x20) 0x72-0x73 (1)
0x70|         00                                    |   .            |                    x: 0 (valid) 0x73-0x74 (1)
    |                                               |                |                  [1]{}: in 0x74-0x76 (2)
0x70|            10                                 |    .           |                    opcode: "call" (0x10) 0x74-0x75 (1)
0x70|               00                              |     .          |                    x: 0 (valid) 0x75-0x76 (1)
    |                                               |                |                  [2]{}: in 0x76-0x77 (1)
0x70|                  0b                           |      .         |                    opcode: "end" (0xb) 0x76-0x77 (1)
    |                                               |                |            [2]{}: code 0x77-0x7f (8)
0x70|                     07                        |       .        |              size: 7 (valid) 0x77-0x78 (1)
    |                                               |                |              code{}: 0x78-0x7f (7)
    |                                               |                |                t{}: 0x78-0x79 (1)
0x70|                        00                     |        .       |                  n: 0 (valid) 0x78-0x79 (1)
    |                                               |                |                  x[0:0]: 0x79-0x79 (0)
    |                                               |                |                e[0:3]: 0x79-0x7f (6)
    |                                               |                |                  [0]{}: in 0x79-0x7b (2)
0x70|                           20                  |                |                    opcode: "local.get" (0x20) 0x79-0x7a (1)
0x70|                              00               |          .     |                    x: 0 (valid) 0x7a-0x7b (1)
    |                                               |                |                  [1]{}: in 0x7b-0x7e (3)
0x70|                                 11            |           .    |                    opcode: "call_indirect" (0x11) 0x7b-0x7c (1)
0x70|                                    01         |            .   |                    y: 1 (valid) 0x7c-0x7d (1)
0x70|                                       00      |             .  |                    x: 0 (valid) 0x7d-0x7e (1)
    |                                               |                |                  [2]{}: in 0x7e-0x7f (1)
0x70|                                          0b|  |              .||                    opcode: "end" (0xb) 0x7e-0x7f (1)
