$ fq -d wasm dv linking-7.wasm
    |00 01 02 03 04 05 06 07 08 09 0a 0b 0c 0d 0e 0f|0123456789abcdef|.{}: linking-7.wasm (wasm) 0x0-0x57.7 (88)
0x00|00 61 73 6d                                    |.asm            |  magic: raw bits (valid) 0x0-0x3.7 (4)
0x00|            01 00 00 00                        |    ....        |  version: 1 0x4-0x7.7 (4)
    |                                               |                |  sections[0:6]: 0x8-0x57.7 (80)
    |                                               |                |    [0]{}: section 0x8-0x16.7 (15)
0x00|                        01                     |        .       |      id: "type section" (1) 0x8-0x8.7 (1)
0x00|                           0d                  |         .      |      size: 13 0x9-0x9.7 (1)
    |                                               |                |      content{}: 0xa-0x16.7 (13)
    |                                               |                |        ft{}: 0xa-0x16.7 (13)
0x00|                              03               |          .     |          n: 3 0xa-0xa.7 (1)
    |                                               |                |          x[0:3]: 0xb-0x16.7 (12)
    |                                               |                |            [0]{}: ft 0xb-0xe.7 (4)
0x00|                                 60            |           `    |              tag: 0x60 (valid) 0xb-0xb.7 (1)
    |                                               |                |              rt1{}: 0xc-0xc.7 (1)
0x00|                                    00         |            .   |                n: 0 0xc-0xc.7 (1)
    |                                               |                |                x[0:0]: 0xd-NA (0)
    |                                               |                |              rt2{}: 0xd-0xe.7 (2)
0x00|                                       01      |             .  |                n: 1 0xd-0xd.7 (1)
    |                                               |                |                x[0:1]: 0xe-0xe.7 (1)
0x00|                                          7f   |              . |                  [0]: "i32" (0x7f) t 0xe-0xe.7 (1)
    |                                               |                |            [1]{}: ft 0xf-0x11.7 (3)
0x00|                                             60|               `|              tag: 0x60 (valid) 0xf-0xf.7 (1)
    |                                               |                |              rt1{}: 0x10-0x10.7 (1)
0x10|00                                             |.               |                n: 0 0x10-0x10.7 (1)
    |                                               |                |                x[0:0]: 0x11-NA (0)
    |                                               |                |              rt2{}: 0x11-0x11.7 (1)
0x10|   00                                          | .              |                n: 0 0x11-0x11.7 (1)
    |                                               |                |                x[0:0]: 0x12-NA (0)
    |                                               |                |            [2]{}: ft 0x12-0x16.7 (5)
0x10|      60                                       |  `             |              tag: 0x60 (valid) 0x12-0x12.7 (1)
    |                                               |                |              rt1{}: 0x13-0x14.7 (2)
0x10|         01                                    |   .            |                n: 1 0x13-0x13.7 (1)
    |                                               |                |                x[0:1]: 0x14-0x14.7 (1)
0x10|            7f                                 |    .           |                  [0]: "i32" (0x7f) t 0x14-0x14.7 (1)
    |                                               |                |              rt2{}: 0x15-0x16.7 (2)
0x10|               01                              |     .          |                n: 1 0x15-0x15.7 (1)
    |                                               |                |                x[0:1]: 0x16-0x16.7 (1)
0x10|                  7f                           |      .         |                  [0]: "i32" (0x7f) t 0x16-0x16.7 (1)
    |                                               |                |    [1]{}: section 0x17-0x1c.7 (6)
0x10|                     03                        |       .        |      id: "function section" (3) 0x17-0x17.7 (1)
0x10|                        04                     |        .       |      size: 4 0x18-0x18.7 (1)
    |                                               |                |      content{}: 0x19-0x1c.7 (4)
    |                                               |                |        x{}: 0x19-0x1c.7 (4)
0x10|                           03                  |         .      |          n: 3 0x19-0x19.7 (1)
    |                                               |                |          x[0:3]: 0x1a-0x1c.7 (3)
0x10|                              00               |          .     |            [0]: 0 x 0x1a-0x1a.7 (1)
0x10|                                 00            |           .    |            [1]: 0 x 0x1b-0x1b.7 (1)
0x10|                                    02         |            .   |            [2]: 2 x 0x1c-0x1c.7 (1)
    |                                               |                |    [2]{}: section 0x1d-0x22.7 (6)
0x10|                                       04      |             .  |      id: "table section" (4) 0x1d-0x1d.7 (1)
0x10|                                          04   |              . |      size: 4 0x1e-0x1e.7 (1)
    |                                               |                |      content{}: 0x1f-0x22.7 (4)
    |                                               |                |        tab{}: 0x1f-0x22.7 (4)
0x10|                                             01|               .|          n: 1 0x1f-0x1f.7 (1)
    |                                               |                |          x[0:1]: 0x20-0x22.7 (3)
    |                                               |                |            [0]{}: tab 0x20-0x22.7 (3)
0x20|70                                             |p               |              et: "funcref" (112) 0x20-0x20.7 (1)
    |                                               |                |              lim{}: 0x21-0x22.7 (2)
0x20|   00                                          | .              |                tag: 0x0 0x21-0x21.7 (1)
0x20|      0a                                       |  .             |                n: 10 0x22-0x22.7 (1)
    |                                               |                |    [3]{}: section 0x23-0x36.7 (20)
0x20|         07                                    |   .            |      id: "export section" (7) 0x23-0x23.7 (1)
0x20|            12                                 |    .           |      size: 18 0x24-0x24.7 (1)
    |                                               |                |      content{}: 0x25-0x36.7 (18)
    |                                               |                |        ex{}: 0x25-0x36.7 (18)
0x20|               03                              |     .          |          n: 3 0x25-0x25.7 (1)
    |                                               |                |          x[0:3]: 0x26-0x36.7 (17)
    |                                               |                |            [0]{}: ex 0x26-0x2b.7 (6)
    |                                               |                |              nm{}: 0x26-0x29.7 (4)
0x20|                  03                           |      .         |                n: 3 0x26-0x26.7 (1)
0x20|                     74 61 62                  |       tab      |                b: "tab" 0x27-0x29.7 (3)
    |                                               |                |              d{}: 0x2a-0x2b.7 (2)
0x20|                              01               |          .     |                tag: "tableidx" (0x1) 0x2a-0x2a.7 (1)
0x20|                                 00            |           .    |                x: 0 0x2b-0x2b.7 (1)
    |                                               |                |            [1]{}: ex 0x2c-0x2f.7 (4)
    |                                               |                |              nm{}: 0x2c-0x2d.7 (2)
0x20|                                    01         |            .   |                n: 1 0x2c-0x2c.7 (1)
0x20|                                       68      |             h  |                b: "h" 0x2d-0x2d.7 (1)
    |                                               |                |              d{}: 0x2e-0x2f.7 (2)
0x20|                                          00   |              . |                tag: "funcidx" (0x0) 0x2e-0x2e.7 (1)
0x20|                                             01|               .|                x: 1 0x2f-0x2f.7 (1)
    |                                               |                |            [2]{}: ex 0x30-0x36.7 (7)
    |                                               |                |              nm{}: 0x30-0x34.7 (5)
0x30|04                                             |.               |                n: 4 0x30-0x30.7 (1)
0x30|   63 61 6c 6c                                 | call           |                b: "call" 0x31-0x34.7 (4)
    |                                               |                |              d{}: 0x35-0x36.7 (2)
0x30|               00                              |     .          |                tag: "funcidx" (0x0) 0x35-0x35.7 (1)
0x30|                  02                           |      .         |                x: 2 0x36-0x36.7 (1)
    |                                               |                |    [4]{}: section 0x37-0x42.7 (12)
0x30|                     09                        |       .        |      id: "element section" (9) 0x37-0x37.7 (1)
0x30|                        0a                     |        .       |      size: 10 0x38-0x38.7 (1)
    |                                               |                |      element{}: 0x39-0x42.7 (10)
    |                                               |                |        seg{}: 0x39-0x42.7 (10)
0x30|                           01                  |         .      |          n: 1 0x39-0x39.7 (1)
    |                                               |                |          x[0:1]: 0x3a-0x42.7 (9)
    |                                               |                |            [0]{}: seg 0x3a-0x42.7 (9)
0x30|                              00               |          .     |              tag: 0 0x3a-0x3a.7 (1)
    |                                               |                |              e[0:2]: 0x3b-0x3d.7 (3)
    |                                               |                |                [0]{}: in 0x3b-0x3c.7 (2)
0x30|                                 41            |           A    |                  i32.const: 0x41 (valid) 0x3b-0x3b.7 (1)
0x30|                                    02         |            .   |                  n: 2 0x3c-0x3c.7 (1)
    |                                               |                |                [1]{}: in 0x3d-0x3d.7 (1)
0x30|                                       0b      |             .  |                  end: 0xb (valid) 0x3d-0x3d.7 (1)
    |                                               |                |              y{}: 0x3e-0x42.7 (5)
0x30|                                          04   |              . |                n: 4 0x3e-0x3e.7 (1)
    |                                               |                |                x[0:4]: 0x3f-0x42.7 (4)
0x30|                                             00|               .|                  [0]: 0 y 0x3f-0x3f.7 (1)
0x40|00                                             |.               |                  [1]: 0 y 0x40-0x40.7 (1)
0x40|   00                                          | .              |                  [2]: 0 y 0x41-0x41.7 (1)
0x40|      00                                       |  .             |                  [3]: 0 y 0x42-0x42.7 (1)
    |                                               |                |    [5]{}: section 0x43-0x57.7 (21)
0x40|         0a                                    |   .            |      id: "code section" (10) 0x43-0x43.7 (1)
0x40|            13                                 |    .           |      size: 19 0x44-0x44.7 (1)
    |                                               |                |      content{}: 0x45-0x57.7 (19)
    |                                               |                |        code{}: 0x45-0x57.7 (19)
0x40|               03                              |     .          |          n: 3 0x45-0x45.7 (1)
    |                                               |                |          x[0:3]: 0x46-0x57.7 (18)
    |                                               |                |            [0]{}: code 0x46-0x4a.7 (5)
0x40|                  04                           |      .         |              size: 4 0x46-0x46.7 (1)
    |                                               |                |              code{}: 0x47-0x4a.7 (4)
    |                                               |                |                t{}: 0x47-0x47.7 (1)
0x40|                     00                        |       .        |                  n: 0 0x47-0x47.7 (1)
    |                                               |                |                  x[0:0]: 0x48-NA (0)
    |                                               |                |                e[0:2]: 0x48-0x4a.7 (3)
    |                                               |                |                  [0]{}: in 0x48-0x49.7 (2)
0x40|                        41                     |        A       |                    i32.const: 0x41 (valid) 0x48-0x48.7 (1)
0x40|                           04                  |         .      |                    n: 4 0x49-0x49.7 (1)
    |                                               |                |                  [1]{}: in 0x4a-0x4a.7 (1)
0x40|                              0b               |          .     |                    end: 0xb (valid) 0x4a-0x4a.7 (1)
    |                                               |                |            [1]{}: code 0x4b-0x4f.7 (5)
0x40|                                 04            |           .    |              size: 4 0x4b-0x4b.7 (1)
    |                                               |                |              code{}: 0x4c-0x4f.7 (4)
    |                                               |                |                t{}: 0x4c-0x4c.7 (1)
0x40|                                    00         |            .   |                  n: 0 0x4c-0x4c.7 (1)
    |                                               |                |                  x[0:0]: 0x4d-NA (0)
    |                                               |                |                e[0:2]: 0x4d-0x4f.7 (3)
    |                                               |                |                  [0]{}: in 0x4d-0x4e.7 (2)
0x40|                                       41      |             A  |                    i32.const: 0x41 (valid) 0x4d-0x4d.7 (1)
0x40|                                          7c   |              | |                    n: -4 0x4e-0x4e.7 (1)
    |                                               |                |                  [1]{}: in 0x4f-0x4f.7 (1)
0x40|                                             0b|               .|                    end: 0xb (valid) 0x4f-0x4f.7 (1)
    |                                               |                |            [2]{}: code 0x50-0x57.7 (8)
0x50|07                                             |.               |              size: 7 0x50-0x50.7 (1)
    |                                               |                |              code{}: 0x51-0x57.7 (7)
    |                                               |                |                t{}: 0x51-0x51.7 (1)
0x50|   00                                          | .              |                  n: 0 0x51-0x51.7 (1)
    |                                               |                |                  x[0:0]: 0x52-NA (0)
    |                                               |                |                e[0:3]: 0x52-0x57.7 (6)
    |                                               |                |                  [0]{}: in 0x52-0x53.7 (2)
0x50|      20                                       |                |                    local.get: 0x20 (valid) 0x52-0x52.7 (1)
0x50|         00                                    |   .            |                    x: 0 0x53-0x53.7 (1)
    |                                               |                |                  [1]{}: in 0x54-0x56.7 (3)
0x50|            11                                 |    .           |                    call: 0x11 (valid) 0x54-0x54.7 (1)
0x50|               00                              |     .          |                    y: 0 0x55-0x55.7 (1)
0x50|                  00                           |      .         |                    x: 0 0x56-0x56.7 (1)
    |                                               |                |                  [2]{}: in 0x57-0x57.7 (1)
0x50|                     0b|                       |       .|       |                    end: 0xb (valid) 0x57-0x57.7 (1)
