$ fq -d wasm dv linking-1.wasm
    |00 01 02 03 04 05 06 07 08 09 0a 0b 0c 0d 0e 0f|0123456789abcdef|.{}: linking-1.wasm (wasm) 0x0-0x56.7 (87)
0x00|00 61 73 6d                                    |.asm            |  magic: raw bits (valid) 0x0-0x3.7 (4)
0x00|            01 00 00 00                        |    ....        |  version: 1 0x4-0x7.7 (4)
    |                                               |                |  sections[0:5]: 0x8-0x56.7 (79)
    |                                               |                |    [0]{}: section 0x8-0xe.7 (7)
0x00|                        01                     |        .       |      id: "type section" (1) 0x8-0x8.7 (1)
0x00|                           05                  |         .      |      size: 5 0x9-0x9.7 (1)
    |                                               |                |      content{}: 0xa-0xe.7 (5)
    |                                               |                |        ft{}: 0xa-0xe.7 (5)
0x00|                              01               |          .     |          n: 1 0xa-0xa.7 (1)
    |                                               |                |          x[0:1]: 0xb-0xe.7 (4)
    |                                               |                |            [0]{}: ft 0xb-0xe.7 (4)
0x00|                                 60            |           `    |              tag: 0x60 (valid) 0xb-0xb.7 (1)
    |                                               |                |              rt1{}: 0xc-0xc.7 (1)
0x00|                                    00         |            .   |                n: 0 0xc-0xc.7 (1)
    |                                               |                |                x[0:0]: 0xd-NA (0)
    |                                               |                |              rt2{}: 0xd-0xe.7 (2)
0x00|                                       01      |             .  |                n: 1 0xd-0xd.7 (1)
    |                                               |                |                x[0:1]: 0xe-0xe.7 (1)
0x00|                                          7f   |              . |                  [0]: "i32" (0x7f) t 0xe-0xe.7 (1)
    |                                               |                |    [1]{}: section 0xf-0x1b.7 (13)
0x00|                                             02|               .|      id: "import section" (2) 0xf-0xf.7 (1)
0x10|0b                                             |.               |      size: 11 0x10-0x10.7 (1)
    |                                               |                |      content{}: 0x11-0x1b.7 (11)
    |                                               |                |        im{}: 0x11-0x1b.7 (11)
0x10|   01                                          | .              |          n: 1 0x11-0x11.7 (1)
    |                                               |                |          x[0:1]: 0x12-0x1b.7 (10)
    |                                               |                |            [0]{}: im 0x12-0x1b.7 (10)
    |                                               |                |              mod{}: 0x12-0x14.7 (3)
0x10|      02                                       |  .             |                n: 2 0x12-0x12.7 (1)
0x10|         4d 66                                 |   Mf           |                b: "Mf" 0x13-0x14.7 (2)
    |                                               |                |              nm{}: 0x15-0x19.7 (5)
0x10|               04                              |     .          |                n: 4 0x15-0x15.7 (1)
0x10|                  63 61 6c 6c                  |      call      |                b: "call" 0x16-0x19.7 (4)
    |                                               |                |              d{}: 0x1a-0x1b.7 (2)
0x10|                              00               |          .     |                tag: "func" (0x0) 0x1a-0x1a.7 (1)
0x10|                                 00            |           .    |                x: 0 0x1b-0x1b.7 (1)
    |                                               |                |    [2]{}: section 0x1c-0x21.7 (6)
0x10|                                    03         |            .   |      id: "function section" (3) 0x1c-0x1c.7 (1)
0x10|                                       04      |             .  |      size: 4 0x1d-0x1d.7 (1)
    |                                               |                |      content{}: 0x1e-0x21.7 (4)
    |                                               |                |        x{}: 0x1e-0x21.7 (4)
0x10|                                          03   |              . |          n: 3 0x1e-0x1e.7 (1)
    |                                               |                |          x[0:3]: 0x1f-0x21.7 (3)
0x10|                                             00|               .|            [0]: 0 x 0x1f-0x1f.7 (1)
0x20|00                                             |.               |            [1]: 0 x 0x20-0x20.7 (1)
0x20|   00                                          | .              |            [2]: 0 x 0x21-0x21.7 (1)
    |                                               |                |    [3]{}: section 0x22-0x44.7 (35)
0x20|      07                                       |  .             |      id: "export section" (7) 0x22-0x22.7 (1)
0x20|         21                                    |   !            |      size: 33 0x23-0x23.7 (1)
    |                                               |                |      content{}: 0x24-0x44.7 (33)
    |                                               |                |        ex{}: 0x24-0x44.7 (33)
0x20|            03                                 |    .           |          n: 3 0x24-0x24.7 (1)
    |                                               |                |          x[0:3]: 0x25-0x44.7 (32)
    |                                               |                |            [0]{}: ex 0x25-0x2e.7 (10)
    |                                               |                |              nm{}: 0x25-0x2c.7 (8)
0x20|               07                              |     .          |                n: 7 0x25-0x25.7 (1)
0x20|                  4d 66 2e 63 61 6c 6c         |      Mf.call   |                b: "Mf.call" 0x26-0x2c.7 (7)
    |                                               |                |              d{}: 0x2d-0x2e.7 (2)
0x20|                                       00      |             .  |                tag: "funcidx" (0x0) 0x2d-0x2d.7 (1)
0x20|                                          00   |              . |                x: 0 0x2e-0x2e.7 (1)
    |                                               |                |            [1]{}: ex 0x2f-0x3d.7 (15)
    |                                               |                |              nm{}: 0x2f-0x3b.7 (13)
0x20|                                             0c|               .|                n: 12 0x2f-0x2f.7 (1)
0x30|63 61 6c 6c 20 4d 66 2e 63 61 6c 6c            |call Mf.call    |                b: "call Mf.call" 0x30-0x3b.7 (12)
    |                                               |                |              d{}: 0x3c-0x3d.7 (2)
0x30|                                    00         |            .   |                tag: "funcidx" (0x0) 0x3c-0x3c.7 (1)
0x30|                                       01      |             .  |                x: 1 0x3d-0x3d.7 (1)
    |                                               |                |            [2]{}: ex 0x3e-0x44.7 (7)
    |                                               |                |              nm{}: 0x3e-0x42.7 (5)
0x30|                                          04   |              . |                n: 4 0x3e-0x3e.7 (1)
0x30|                                             63|               c|                b: "call" 0x3f-0x42.7 (4)
0x40|61 6c 6c                                       |all             |
    |                                               |                |              d{}: 0x43-0x44.7 (2)
0x40|         00                                    |   .            |                tag: "funcidx" (0x0) 0x43-0x43.7 (1)
0x40|            02                                 |    .           |                x: 2 0x44-0x44.7 (1)
    |                                               |                |    [4]{}: section 0x45-0x56.7 (18)
0x40|               0a                              |     .          |      id: "code section" (10) 0x45-0x45.7 (1)
0x40|                  10                           |      .         |      size: 16 0x46-0x46.7 (1)
    |                                               |                |      content{}: 0x47-0x56.7 (16)
    |                                               |                |        code{}: 0x47-0x56.7 (16)
0x40|                     03                        |       .        |          n: 3 0x47-0x47.7 (1)
    |                                               |                |          x[0:3]: 0x48-0x56.7 (15)
    |                                               |                |            [0]{}: code 0x48-0x4c.7 (5)
0x40|                        04                     |        .       |              size: 4 0x48-0x48.7 (1)
    |                                               |                |              code{}: 0x49-0x4c.7 (4)
    |                                               |                |                t{}: 0x49-0x49.7 (1)
0x40|                           00                  |         .      |                  n: 0 0x49-0x49.7 (1)
    |                                               |                |                  x[0:0]: 0x4a-NA (0)
    |                                               |                |                e[0:2]: 0x4a-0x4c.7 (3)
    |                                               |                |                  [0]{}: in 0x4a-0x4b.7 (2)
0x40|                              10               |          .     |                    call: 0x10 (valid) 0x4a-0x4a.7 (1)
0x40|                                 00            |           .    |                    x: 0 0x4b-0x4b.7 (1)
    |                                               |                |                  [1]{}: in 0x4c-0x4c.7 (1)
0x40|                                    0b         |            .   |                    end: 0xb (valid) 0x4c-0x4c.7 (1)
    |                                               |                |            [1]{}: code 0x4d-0x51.7 (5)
0x40|                                       04      |             .  |              size: 4 0x4d-0x4d.7 (1)
    |                                               |                |              code{}: 0x4e-0x51.7 (4)
    |                                               |                |                t{}: 0x4e-0x4e.7 (1)
0x40|                                          00   |              . |                  n: 0 0x4e-0x4e.7 (1)
    |                                               |                |                  x[0:0]: 0x4f-NA (0)
    |                                               |                |                e[0:2]: 0x4f-0x51.7 (3)
    |                                               |                |                  [0]{}: in 0x4f-0x50.7 (2)
0x40|                                             10|               .|                    call: 0x10 (valid) 0x4f-0x4f.7 (1)
0x50|03                                             |.               |                    x: 3 0x50-0x50.7 (1)
    |                                               |                |                  [1]{}: in 0x51-0x51.7 (1)
0x50|   0b                                          | .              |                    end: 0xb (valid) 0x51-0x51.7 (1)
    |                                               |                |            [2]{}: code 0x52-0x56.7 (5)
0x50|      04                                       |  .             |              size: 4 0x52-0x52.7 (1)
    |                                               |                |              code{}: 0x53-0x56.7 (4)
    |                                               |                |                t{}: 0x53-0x53.7 (1)
0x50|         00                                    |   .            |                  n: 0 0x53-0x53.7 (1)
    |                                               |                |                  x[0:0]: 0x54-NA (0)
    |                                               |                |                e[0:2]: 0x54-0x56.7 (3)
    |                                               |                |                  [0]{}: in 0x54-0x55.7 (2)
0x50|            41                                 |    A           |                    i32.const: 0x41 (valid) 0x54-0x54.7 (1)
0x50|               03                              |     .          |                    n: 3 0x55-0x55.7 (1)
    |                                               |                |                  [1]{}: in 0x56-0x56.7 (1)
0x50|                  0b|                          |      .|        |                    end: 0xb (valid) 0x56-0x56.7 (1)
