$ fq -d wasm dv linking-18.wasm
    |00 01 02 03 04 05 06 07 08 09 0a 0b 0c 0d 0e 0f|0123456789abcdef|.{}: linking-18.wasm (wasm) 0x0-0x1f.7 (32)
0x00|00 61 73 6d                                    |.asm            |  magic: raw bits (valid) 0x0-0x3.7 (4)
0x00|            01 00 00 00                        |    ....        |  version: 1 0x4-0x7.7 (4)
    |                                               |                |  sections[0:2]: 0x8-0x1f.7 (24)
    |                                               |                |    [0]{}: section 0x8-0x14.7 (13)
0x00|                        02                     |        .       |      id: "import_section" (2) 0x8-0x8.7 (1)
0x00|                           0b                  |         .      |      size: 11 (valid) 0x9-0x9.7 (1)
    |                                               |                |      content{}: 0xa-0x14.7 (11)
    |                                               |                |        im{}: 0xa-0x14.7 (11)
0x00|                              01               |          .     |          n: 1 (valid) 0xa-0xa.7 (1)
    |                                               |                |          x[0:1]: 0xb-0x14.7 (10)
    |                                               |                |            [0]{}: im 0xb-0x14.7 (10)
    |                                               |                |              mod{}: 0xb-0xd.7 (3)
0x00|                                 02            |           .    |                n: 2 (valid) 0xb-0xb.7 (1)
0x00|                                    4d 6d      |            Mm  |                b: "Mm" 0xc-0xd.7 (2)
    |                                               |                |              nm{}: 0xe-0x11.7 (4)
0x00|                                          03   |              . |                n: 3 (valid) 0xe-0xe.7 (1)
0x00|                                             6d|               m|                b: "mem" 0xf-0x11.7 (3)
0x10|65 6d                                          |em              |
    |                                               |                |              d{}: 0x12-0x14.7 (3)
0x10|      02                                       |  .             |                tag: "mem" (0x2) 0x12-0x12.7 (1)
    |                                               |                |                mt{}: 0x13-0x14.7 (2)
    |                                               |                |                  lim{}: 0x13-0x14.7 (2)
0x10|         00                                    |   .            |                    tag: 0x0 0x13-0x13.7 (1)
0x10|            00                                 |    .           |                    n: 0 (valid) 0x14-0x14.7 (1)
    |                                               |                |    [1]{}: section 0x15-0x1f.7 (11)
0x10|               0b                              |     .          |      id: "data_section" (11) 0x15-0x15.7 (1)
0x10|                  09                           |      .         |      size: 9 (valid) 0x16-0x16.7 (1)
    |                                               |                |      content{}: 0x17-0x1f.7 (9)
    |                                               |                |        seg{}: 0x17-0x1f.7 (9)
0x10|                     01                        |       .        |          n: 1 (valid) 0x17-0x17.7 (1)
    |                                               |                |          x[0:1]: 0x18-0x1f.7 (8)
    |                                               |                |            [0]{}: seg 0x18-0x1f.7 (8)
0x10|                        00                     |        .       |              tag: 0 (valid) 0x18-0x18.7 (1)
    |                                               |                |              e[0:2]: 0x19-0x1d.7 (5)
    |                                               |                |                [0]{}: in 0x19-0x1c.7 (4)
0x10|                           41                  |         A      |                  opcode: "i32.const" (0x41) 0x19-0x19.7 (1)
0x10|                              ff ff 03         |          ...   |                  n: 65535 (valid) 0x1a-0x1c.7 (3)
    |                                               |                |                [1]{}: in 0x1d-0x1d.7 (1)
0x10|                                       0b      |             .  |                  opcode: "end" (0xb) 0x1d-0x1d.7 (1)
    |                                               |                |              b{}: 0x1e-0x1f.7 (2)
0x10|                                          01   |              . |                n: 1 (valid) 0x1e-0x1e.7 (1)
0x10|                                             61|               a|                x: raw bits 0x1f-0x1f.7 (1)
