$ fq -d wasm dv linking-16.wasm
    |00 01 02 03 04 05 06 07 08 09 0a 0b 0c 0d 0e 0f|0123456789abcdef|.{}: linking-16.wasm (wasm) 0x0-0x52.7 (83)
0x00|00 61 73 6d                                    |.asm            |  magic: raw bits (valid) 0x0-0x3.7 (4)
0x00|            01 00 00 00                        |    ....        |  version: 1 0x4-0x7.7 (4)
    |                                               |                |  sections[0:7]: 0x8-0x52.7 (75)
    |                                               |                |    [0]{}: section 0x8-0xf.7 (8)
0x00|                        01                     |        .       |      id: "type section" (1) 0x8-0x8.7 (1)
0x00|                           06                  |         .      |      size: 6 0x9-0x9.7 (1)
    |                                               |                |      content{}: 0xa-0xf.7 (6)
    |                                               |                |        ft{}: 0xa-0xf.7 (6)
0x00|                              01               |          .     |          n: 1 0xa-0xa.7 (1)
    |                                               |                |          x[0:1]: 0xb-0xf.7 (5)
    |                                               |                |            [0]{}: ft 0xb-0xf.7 (5)
0x00|                                 60            |           `    |              tag: 0x60 (valid) 0xb-0xb.7 (1)
    |                                               |                |              rt1{}: 0xc-0xd.7 (2)
0x00|                                    01         |            .   |                n: 1 0xc-0xc.7 (1)
    |                                               |                |                x[0:1]: 0xd-0xd.7 (1)
0x00|                                       7f      |             .  |                  [0]: "i32" (0x7f) t 0xd-0xd.7 (1)
    |                                               |                |              rt2{}: 0xe-0xf.7 (2)
0x00|                                          01   |              . |                n: 1 0xe-0xe.7 (1)
    |                                               |                |                x[0:1]: 0xf-0xf.7 (1)
0x00|                                             7f|               .|                  [0]: "i32" (0x7f) t 0xf-0xf.7 (1)
    |                                               |                |    [1]{}: section 0x10-0x1c.7 (13)
0x10|02                                             |.               |      id: "import section" (2) 0x10-0x10.7 (1)
0x10|   0b                                          | .              |      size: 11 0x11-0x11.7 (1)
    |                                               |                |      content{}: 0x12-0x1c.7 (11)
    |                                               |                |        im{}: 0x12-0x1c.7 (11)
0x10|      01                                       |  .             |          n: 1 0x12-0x12.7 (1)
    |                                               |                |          x[0:1]: 0x13-0x1c.7 (10)
    |                                               |                |            [0]{}: im 0x13-0x1c.7 (10)
    |                                               |                |              mod{}: 0x13-0x15.7 (3)
0x10|         02                                    |   .            |                n: 2 0x13-0x13.7 (1)
0x10|            4d 6d                              |    Mm          |                b: "Mm" 0x14-0x15.7 (2)
    |                                               |                |              nm{}: 0x16-0x1a.7 (5)
0x10|                  04                           |      .         |                n: 4 0x16-0x16.7 (1)
0x10|                     6c 6f 61 64               |       load     |                b: "load" 0x17-0x1a.7 (4)
    |                                               |                |              d{}: 0x1b-0x1c.7 (2)
0x10|                                 00            |           .    |                tag: "func" (0x0) 0x1b-0x1b.7 (1)
0x10|                                    00         |            .   |                x: 0 0x1c-0x1c.7 (1)
    |                                               |                |    [2]{}: section 0x1d-0x20.7 (4)
0x10|                                       03      |             .  |      id: "function section" (3) 0x1d-0x1d.7 (1)
0x10|                                          02   |              . |      size: 2 0x1e-0x1e.7 (1)
    |                                               |                |      content{}: 0x1f-0x20.7 (2)
    |                                               |                |        x{}: 0x1f-0x20.7 (2)
0x10|                                             01|               .|          n: 1 0x1f-0x1f.7 (1)
    |                                               |                |          x[0:1]: 0x20-0x20.7 (1)
0x20|00                                             |.               |            [0]: 0 x 0x20-0x20.7 (1)
    |                                               |                |    [3]{}: section 0x21-0x25.7 (5)
0x20|   05                                          | .              |      id: "memory section" (5) 0x21-0x21.7 (1)
0x20|      03                                       |  .             |      size: 3 0x22-0x22.7 (1)
    |                                               |                |      content{}: 0x23-0x25.7 (3)
    |                                               |                |        mem{}: 0x23-0x25.7 (3)
0x20|         01                                    |   .            |          n: 1 0x23-0x23.7 (1)
    |                                               |                |          x[0:1]: 0x24-0x25.7 (2)
    |                                               |                |            [0]{}: mem 0x24-0x25.7 (2)
    |                                               |                |              lim{}: 0x24-0x25.7 (2)
0x20|            00                                 |    .           |                tag: 0x0 0x24-0x24.7 (1)
0x20|               01                              |     .          |                n: 1 0x25-0x25.7 (1)
    |                                               |                |    [4]{}: section 0x26-0x39.7 (20)
0x20|                  07                           |      .         |      id: "export section" (7) 0x26-0x26.7 (1)
0x20|                     12                        |       .        |      size: 18 0x27-0x27.7 (1)
    |                                               |                |      content{}: 0x28-0x39.7 (18)
    |                                               |                |        ex{}: 0x28-0x39.7 (18)
0x20|                        02                     |        .       |          n: 2 0x28-0x28.7 (1)
    |                                               |                |          x[0:2]: 0x29-0x39.7 (17)
    |                                               |                |            [0]{}: ex 0x29-0x32.7 (10)
    |                                               |                |              nm{}: 0x29-0x30.7 (8)
0x20|                           07                  |         .      |                n: 7 0x29-0x29.7 (1)
0x20|                              4d 6d 2e 6c 6f 61|          Mm.loa|                b: "Mm.load" 0x2a-0x30.7 (7)
0x30|64                                             |d               |
    |                                               |                |              d{}: 0x31-0x32.7 (2)
0x30|   00                                          | .              |                tag: "funcidx" (0x0) 0x31-0x31.7 (1)
0x30|      00                                       |  .             |                x: 0 0x32-0x32.7 (1)
    |                                               |                |            [1]{}: ex 0x33-0x39.7 (7)
    |                                               |                |              nm{}: 0x33-0x37.7 (5)
0x30|         04                                    |   .            |                n: 4 0x33-0x33.7 (1)
0x30|            6c 6f 61 64                        |    load        |                b: "load" 0x34-0x37.7 (4)
    |                                               |                |              d{}: 0x38-0x39.7 (2)
0x30|                        00                     |        .       |                tag: "funcidx" (0x0) 0x38-0x38.7 (1)
0x30|                           01                  |         .      |                x: 1 0x39-0x39.7 (1)
    |                                               |                |    [5]{}: section 0x3a-0x44.7 (11)
0x30|                              0a               |          .     |      id: "code section" (10) 0x3a-0x3a.7 (1)
0x30|                                 09            |           .    |      size: 9 0x3b-0x3b.7 (1)
    |                                               |                |      content{}: 0x3c-0x44.7 (9)
    |                                               |                |        code{}: 0x3c-0x44.7 (9)
0x30|                                    01         |            .   |          n: 1 0x3c-0x3c.7 (1)
    |                                               |                |          x[0:1]: 0x3d-0x44.7 (8)
    |                                               |                |            [0]{}: code 0x3d-0x44.7 (8)
0x30|                                       07      |             .  |              size: 7 0x3d-0x3d.7 (1)
    |                                               |                |              code{}: 0x3e-0x44.7 (7)
    |                                               |                |                t{}: 0x3e-0x3e.7 (1)
0x30|                                          00   |              . |                  n: 0 0x3e-0x3e.7 (1)
    |                                               |                |                  x[0:0]: 0x3f-NA (0)
    |                                               |                |                e[0:3]: 0x3f-0x44.7 (6)
    |                                               |                |                  [0]{}: in 0x3f-0x40.7 (2)
0x30|                                             20|                |                    local.get: 0x20 (valid) 0x3f-0x3f.7 (1)
0x40|00                                             |.               |                    x: 0 0x40-0x40.7 (1)
    |                                               |                |                  [1]{}: in 0x41-0x43.7 (3)
0x40|   2d                                          | -              |                    i32.load8_u: 0x2d (valid) 0x41-0x41.7 (1)
    |                                               |                |                    m{}: 0x42-0x43.7 (2)
0x40|      00                                       |  .             |                      a: 0 0x42-0x42.7 (1)
0x40|         00                                    |   .            |                      o: 0 0x43-0x43.7 (1)
    |                                               |                |                  [2]{}: in 0x44-0x44.7 (1)
0x40|            0b                                 |    .           |                    end: 0xb (valid) 0x44-0x44.7 (1)
    |                                               |                |    [6]{}: section 0x45-0x52.7 (14)
0x40|               0b                              |     .          |      id: "data section" (11) 0x45-0x45.7 (1)
0x40|                  0c                           |      .         |      size: 12 0x46-0x46.7 (1)
    |                                               |                |      content{}: 0x47-0x52.7 (12)
    |                                               |                |        seg{}: 0x47-0x52.7 (12)
0x40|                     01                        |       .        |          n: 1 0x47-0x47.7 (1)
    |                                               |                |          x[0:1]: 0x48-0x52.7 (11)
    |                                               |                |            [0]{}: seg 0x48-0x52.7 (11)
0x40|                        00                     |        .       |              tag: 0 0x48-0x48.7 (1)
    |                                               |                |              e[0:2]: 0x49-0x4b.7 (3)
    |                                               |                |                [0]{}: in 0x49-0x4a.7 (2)
0x40|                           41                  |         A      |                  i32.const: 0x41 (valid) 0x49-0x49.7 (1)
0x40|                              0a               |          .     |                  n: 10 0x4a-0x4a.7 (1)
    |                                               |                |                [1]{}: in 0x4b-0x4b.7 (1)
0x40|                                 0b            |           .    |                  end: 0xb (valid) 0x4b-0x4b.7 (1)
    |                                               |                |              b{}: 0x4c-0x52.7 (7)
0x40|                                    06         |            .   |                n: 6 0x4c-0x4c.7 (1)
0x40|                                       f0 f1 f2|             ...|                x: raw bits 0x4d-0x52.7 (6)
0x50|f3 f4 f5|                                      |...|            |
