$ fq -d wasm dv linking-15.wasm
    |00 01 02 03 04 05 06 07 08 09 0a 0b 0c 0d 0e 0f|0123456789abcdef|.{}: linking-15.wasm (wasm) 0x0-0x47 (71)
0x00|00 61 73 6d                                    |.asm            |  magic: raw bits (valid) 0x0-0x4 (4)
0x00|            01 00 00 00                        |    ....        |  version: 1 0x4-0x8 (4)
    |                                               |                |  sections[0:6]: 0x8-0x47 (63)
    |                                               |                |    [0]{}: section 0x8-0x10 (8)
0x00|                        01                     |        .       |      id: "type_section" (1) 0x8-0x9 (1)
0x00|                           06                  |         .      |      size: 6 (valid) 0x9-0xa (1)
    |                                               |                |      content{}: 0xa-0x10 (6)
    |                                               |                |        ft{}: 0xa-0x10 (6)
0x00|                              01               |          .     |          n: 1 (valid) 0xa-0xb (1)
    |                                               |                |          x[0:1]: 0xb-0x10 (5)
    |                                               |                |            [0]{}: ft 0xb-0x10 (5)
0x00|                                 60            |           `    |              tag: 0x60 (valid) 0xb-0xc (1)
    |                                               |                |              rt1{}: 0xc-0xe (2)
0x00|                                    01         |            .   |                n: 1 (valid) 0xc-0xd (1)
    |                                               |                |                x[0:1]: 0xd-0xe (1)
0x00|                                       7f      |             .  |                  [0]: "i32" (0x7f) t 0xd-0xe (1)
    |                                               |                |              rt2{}: 0xe-0x10 (2)
0x00|                                          01   |              . |                n: 1 (valid) 0xe-0xf (1)
    |                                               |                |                x[0:1]: 0xf-0x10 (1)
0x00|                                             7f|               .|                  [0]: "i32" (0x7f) t 0xf-0x10 (1)
    |                                               |                |    [1]{}: section 0x10-0x14 (4)
0x10|03                                             |.               |      id: "function_section" (3) 0x10-0x11 (1)
0x10|   02                                          | .              |      size: 2 (valid) 0x11-0x12 (1)
    |                                               |                |      content{}: 0x12-0x14 (2)
    |                                               |                |        x{}: 0x12-0x14 (2)
0x10|      01                                       |  .             |          n: 1 (valid) 0x12-0x13 (1)
    |                                               |                |          x[0:1]: 0x13-0x14 (1)
0x10|         00                                    |   .            |            [0]: 0 x (valid) 0x13-0x14 (1)
    |                                               |                |    [2]{}: section 0x14-0x1a (6)
0x10|            05                                 |    .           |      id: "memory_section" (5) 0x14-0x15 (1)
0x10|               04                              |     .          |      size: 4 (valid) 0x15-0x16 (1)
    |                                               |                |      content{}: 0x16-0x1a (4)
    |                                               |                |        mem{}: 0x16-0x1a (4)
0x10|                  01                           |      .         |          n: 1 (valid) 0x16-0x17 (1)
    |                                               |                |          x[0:1]: 0x17-0x1a (3)
    |                                               |                |            [0]{}: mem 0x17-0x1a (3)
    |                                               |                |              lim{}: 0x17-0x1a (3)
0x10|                     01                        |       .        |                tag: 0x1 0x17-0x18 (1)
0x10|                        01                     |        .       |                n: 1 (valid) 0x18-0x19 (1)
0x10|                           05                  |         .      |                m: 5 (valid) 0x19-0x1a (1)
    |                                               |                |    [3]{}: section 0x1a-0x2a (16)
0x10|                              07               |          .     |      id: "export_section" (7) 0x1a-0x1b (1)
0x10|                                 0e            |           .    |      size: 14 (valid) 0x1b-0x1c (1)
    |                                               |                |      content{}: 0x1c-0x2a (14)
    |                                               |                |        ex{}: 0x1c-0x2a (14)
0x10|                                    02         |            .   |          n: 2 (valid) 0x1c-0x1d (1)
    |                                               |                |          x[0:2]: 0x1d-0x2a (13)
    |                                               |                |            [0]{}: ex 0x1d-0x23 (6)
    |                                               |                |              nm{}: 0x1d-0x21 (4)
0x10|                                       03      |             .  |                n: 3 (valid) 0x1d-0x1e (1)
0x10|                                          6d 65|              me|                b: "mem" 0x1e-0x21 (3)
0x20|6d                                             |m               |
    |                                               |                |              d{}: 0x21-0x23 (2)
0x20|   02                                          | .              |                tag: "memidx" (0x2) 0x21-0x22 (1)
0x20|      00                                       |  .             |                x: 0 (valid) 0x22-0x23 (1)
    |                                               |                |            [1]{}: ex 0x23-0x2a (7)
    |                                               |                |              nm{}: 0x23-0x28 (5)
0x20|         04                                    |   .            |                n: 4 (valid) 0x23-0x24 (1)
0x20|            6c 6f 61 64                        |    load        |                b: "load" 0x24-0x28 (4)
    |                                               |                |              d{}: 0x28-0x2a (2)
0x20|                        00                     |        .       |                tag: "funcidx" (0x0) 0x28-0x29 (1)
0x20|                           00                  |         .      |                x: 0 (valid) 0x29-0x2a (1)
    |                                               |                |    [4]{}: section 0x2a-0x35 (11)
0x20|                              0a               |          .     |      id: "code_section" (10) 0x2a-0x2b (1)
0x20|                                 09            |           .    |      size: 9 (valid) 0x2b-0x2c (1)
    |                                               |                |      content{}: 0x2c-0x35 (9)
    |                                               |                |        code{}: 0x2c-0x35 (9)
0x20|                                    01         |            .   |          n: 1 (valid) 0x2c-0x2d (1)
    |                                               |                |          x[0:1]: 0x2d-0x35 (8)
    |                                               |                |            [0]{}: code 0x2d-0x35 (8)
0x20|                                       07      |             .  |              size: 7 (valid) 0x2d-0x2e (1)
    |                                               |                |              code{}: 0x2e-0x35 (7)
    |                                               |                |                t{}: 0x2e-0x2f (1)
0x20|                                          00   |              . |                  n: 0 (valid) 0x2e-0x2f (1)
    |                                               |                |                  x[0:0]: 0x2f-0x2f (0)
    |                                               |                |                e[0:3]: 0x2f-0x35 (6)
    |                                               |                |                  [0]{}: in 0x2f-0x31 (2)
0x20|                                             20|                |                    opcode: "local.get" (0x20) 0x2f-0x30 (1)
0x30|00                                             |.               |                    x: 0 (valid) 0x30-0x31 (1)
    |                                               |                |                  [1]{}: in 0x31-0x34 (3)
0x30|   2d                                          | -              |                    opcode: "i32.load8_u" (0x2d) 0x31-0x32 (1)
    |                                               |                |                    m{}: 0x32-0x34 (2)
0x30|      00                                       |  .             |                      a: 0 (valid) 0x32-0x33 (1)
0x30|         00                                    |   .            |                      o: 0 (valid) 0x33-0x34 (1)
    |                                               |                |                  [2]{}: in 0x34-0x35 (1)
0x30|            0b                                 |    .           |                    opcode: "end" (0xb) 0x34-0x35 (1)
    |                                               |                |    [5]{}: section 0x35-0x47 (18)
0x30|               0b                              |     .          |      id: "data_section" (11) 0x35-0x36 (1)
0x30|                  10                           |      .         |      size: 16 (valid) 0x36-0x37 (1)
    |                                               |                |      content{}: 0x37-0x47 (16)
    |                                               |                |        seg{}: 0x37-0x47 (16)
0x30|                     01                        |       .        |          n: 1 (valid) 0x37-0x38 (1)
    |                                               |                |          x[0:1]: 0x38-0x47 (15)
    |                                               |                |            [0]{}: seg 0x38-0x47 (15)
0x30|                        00                     |        .       |              tag: 0 (valid) 0x38-0x39 (1)
    |                                               |                |              e[0:2]: 0x39-0x3c (3)
    |                                               |                |                [0]{}: in 0x39-0x3b (2)
0x30|                           41                  |         A      |                  opcode: "i32.const" (0x41) 0x39-0x3a (1)
0x30|                              0a               |          .     |                  n: 10 (valid) 0x3a-0x3b (1)
    |                                               |                |                [1]{}: in 0x3b-0x3c (1)
0x30|                                 0b            |           .    |                  opcode: "end" (0xb) 0x3b-0x3c (1)
    |                                               |                |              b{}: 0x3c-0x47 (11)
0x30|                                    0a         |            .   |                n: 10 (valid) 0x3c-0x3d (1)
0x30|                                       00 01 02|             ...|                x: raw bits 0x3d-0x47 (10)
0x40|03 04 05 06 07 08 09|                          |.......|        |
