$ fq -d wasm dv linking-0.wasm
    |00 01 02 03 04 05 06 07 08 09 0a 0b 0c 0d 0e 0f|0123456789abcdef|.{}: linking-0.wasm (wasm) 0x0-0x2a.7 (43)
0x00|00 61 73 6d                                    |.asm            |  magic: raw bits (valid) 0x0-0x3.7 (4)
0x00|            01 00 00 00                        |    ....        |  version: 1 0x4-0x7.7 (4)
    |                                               |                |  sections[0:4]: 0x8-0x2a.7 (35)
    |                                               |                |    [0]{}: section 0x8-0xe.7 (7)
0x00|                        01                     |        .       |      id: "type section" (1) 0x8-0x8.7 (1)
0x00|                           05                  |         .      |      size: 5 0x9-0x9.7 (1)
    |                                               |                |      content{}: 0xa-0xe.7 (5)
    |                                               |                |        ft{}: 0xa-0xe.7 (5)
0x00|                              01               |          .     |          n: 1 0xa-0xa.7 (1)
    |                                               |                |          x[0:1]: 0xb-0xe.7 (4)
    |                                               |                |            [0]{}: ft 0xb-0xe.7 (4)
0x00|                                 60            |           `    |              tag: 0x60 (valid) 0xb-0xb.7 (1)
    |                                               |                |              rt1{}: 0xc-0xc.7 (1)
0x00|                                    00         |            .   |                n: 0 0xc-0xc.7 (1)
    |                                               |                |                x[0:0]: 0xd-NA (0)
    |                                               |                |              rt2{}: 0xd-0xe.7 (2)
0x00|                                       01      |             .  |                n: 1 0xd-0xd.7 (1)
    |                                               |                |                x[0:1]: 0xe-0xe.7 (1)
0x00|                                          7f   |              . |                  [0]: "i32" (0x7f) t 0xe-0xe.7 (1)
    |                                               |                |    [1]{}: section 0xf-0x13.7 (5)
0x00|                                             03|               .|      id: "function section" (3) 0xf-0xf.7 (1)
0x10|03                                             |.               |      size: 3 0x10-0x10.7 (1)
    |                                               |                |      content{}: 0x11-0x13.7 (3)
    |                                               |                |        x{}: 0x11-0x13.7 (3)
0x10|   02                                          | .              |          n: 2 0x11-0x11.7 (1)
    |                                               |                |          x[0:2]: 0x12-0x13.7 (2)
0x10|      00                                       |  .             |            [0]: 0 x 0x12-0x12.7 (1)
0x10|         00                                    |   .            |            [1]: 0 x 0x13-0x13.7 (1)
    |                                               |                |    [2]{}: section 0x14-0x1d.7 (10)
0x10|            07                                 |    .           |      id: "export section" (7) 0x14-0x14.7 (1)
0x10|               08                              |     .          |      size: 8 0x15-0x15.7 (1)
    |                                               |                |      content{}: 0x16-0x1d.7 (8)
    |                                               |                |        ex{}: 0x16-0x1d.7 (8)
0x10|                  01                           |      .         |          n: 1 0x16-0x16.7 (1)
    |                                               |                |          x[0:1]: 0x17-0x1d.7 (7)
    |                                               |                |            [0]{}: ex 0x17-0x1d.7 (7)
    |                                               |                |              nm{}: 0x17-0x1b.7 (5)
0x10|                     04                        |       .        |                n: 4 0x17-0x17.7 (1)
0x10|                        63 61 6c 6c            |        call    |                b: "call" 0x18-0x1b.7 (4)
    |                                               |                |              d{}: 0x1c-0x1d.7 (2)
0x10|                                    00         |            .   |                tag: "funcidx" (0x0) 0x1c-0x1c.7 (1)
0x10|                                       00      |             .  |                x: 0 0x1d-0x1d.7 (1)
    |                                               |                |    [3]{}: section 0x1e-0x2a.7 (13)
0x10|                                          0a   |              . |      id: "code section" (10) 0x1e-0x1e.7 (1)
0x10|                                             0b|               .|      size: 11 0x1f-0x1f.7 (1)
    |                                               |                |      content{}: 0x20-0x2a.7 (11)
    |                                               |                |        code{}: 0x20-0x2a.7 (11)
0x20|02                                             |.               |          n: 2 0x20-0x20.7 (1)
    |                                               |                |          x[0:2]: 0x21-0x2a.7 (10)
    |                                               |                |            [0]{}: code 0x21-0x25.7 (5)
0x20|   04                                          | .              |              size: 4 0x21-0x21.7 (1)
    |                                               |                |              code{}: 0x22-0x25.7 (4)
    |                                               |                |                t{}: 0x22-0x22.7 (1)
0x20|      00                                       |  .             |                  n: 0 0x22-0x22.7 (1)
    |                                               |                |                  x[0:0]: 0x23-NA (0)
    |                                               |                |                e[0:2]: 0x23-0x25.7 (3)
    |                                               |                |                  [0]{}: in 0x23-0x24.7 (2)
0x20|         10                                    |   .            |                    call: 0x10 (valid) 0x23-0x23.7 (1)
0x20|            01                                 |    .           |                    x: 1 0x24-0x24.7 (1)
    |                                               |                |                  [1]{}: in 0x25-0x25.7 (1)
0x20|               0b                              |     .          |                    end: 0xb (valid) 0x25-0x25.7 (1)
    |                                               |                |            [1]{}: code 0x26-0x2a.7 (5)
0x20|                  04                           |      .         |              size: 4 0x26-0x26.7 (1)
    |                                               |                |              code{}: 0x27-0x2a.7 (4)
    |                                               |                |                t{}: 0x27-0x27.7 (1)
0x20|                     00                        |       .        |                  n: 0 0x27-0x27.7 (1)
    |                                               |                |                  x[0:0]: 0x28-NA (0)
    |                                               |                |                e[0:2]: 0x28-0x2a.7 (3)
    |                                               |                |                  [0]{}: in 0x28-0x29.7 (2)
0x20|                        41                     |        A       |                    i32.const: 0x41 (valid) 0x28-0x28.7 (1)
0x20|                           02                  |         .      |                    n: 2 0x29-0x29.7 (1)
    |                                               |                |                  [1]{}: in 0x2a-0x2a.7 (1)
0x20|                              0b|              |          .|    |                    end: 0xb (valid) 0x2a-0x2a.7 (1)
