$ fq -d wasm dv linking-5.wasm
    |00 01 02 03 04 05 06 07 08 09 0a 0b 0c 0d 0e 0f|0123456789abcdef|.{}: linking-5.wasm (wasm) 0x0-0x5e (94)
0x00|00 61 73 6d                                    |.asm            |  magic: raw bits (valid) 0x0-0x4 (4)
0x00|            01 00 00 00                        |    ....        |  version: 1 0x4-0x8 (4)
    |                                               |                |  sections[0:2]: 0x8-0x5e (86)
    |                                               |                |    [0]{}: section 0x8-0x1f (23)
0x00|                        06                     |        .       |      id: "global_section" (6) 0x8-0x9 (1)
0x00|                           15                  |         .      |      size: 21 (valid) 0x9-0xa (1)
    |                                               |                |      content{}: 0xa-0x1f (21)
    |                                               |                |        glob{}: 0xa-0x1f (21)
0x00|                              04               |          .     |          n: 4 (valid) 0xa-0xb (1)
    |                                               |                |          x[0:4]: 0xb-0x1f (20)
    |                                               |                |            [0]{}: glob 0xb-0x10 (5)
    |                                               |                |              gt{}: 0xb-0xd (2)
0x00|                                 70            |           p    |                t: "funcref" (0x70) 0xb-0xc (1)
0x00|                                    00         |            .   |                m: "const" (0) 0xc-0xd (1)
    |                                               |                |              e[0:2]: 0xd-0x10 (3)
    |                                               |                |                [0]{}: in 0xd-0xf (2)
0x00|                                       d0      |             .  |                  opcode: "ref.null" (0xd0) 0xd-0xe (1)
0x00|                                          70   |              p |                  t: "funcref" (112) 0xe-0xf (1)
    |                                               |                |                [1]{}: in 0xf-0x10 (1)
0x00|                                             0b|               .|                  opcode: "end" (0xb) 0xf-0x10 (1)
    |                                               |                |            [1]{}: glob 0x10-0x15 (5)
    |                                               |                |              gt{}: 0x10-0x12 (2)
0x10|70                                             |p               |                t: "funcref" (0x70) 0x10-0x11 (1)
0x10|   01                                          | .              |                m: "var" (1) 0x11-0x12 (1)
    |                                               |                |              e[0:2]: 0x12-0x15 (3)
    |                                               |                |                [0]{}: in 0x12-0x14 (2)
0x10|      d0                                       |  .             |                  opcode: "ref.null" (0xd0) 0x12-0x13 (1)
0x10|         70                                    |   p            |                  t: "funcref" (112) 0x13-0x14 (1)
    |                                               |                |                [1]{}: in 0x14-0x15 (1)
0x10|            0b                                 |    .           |                  opcode: "end" (0xb) 0x14-0x15 (1)
    |                                               |                |            [2]{}: glob 0x15-0x1a (5)
    |                                               |                |              gt{}: 0x15-0x17 (2)
0x10|               6f                              |     o          |                t: "externref" (0x6f) 0x15-0x16 (1)
0x10|                  00                           |      .         |                m: "const" (0) 0x16-0x17 (1)
    |                                               |                |              e[0:2]: 0x17-0x1a (3)
    |                                               |                |                [0]{}: in 0x17-0x19 (2)
0x10|                     d0                        |       .        |                  opcode: "ref.null" (0xd0) 0x17-0x18 (1)
0x10|                        6f                     |        o       |                  t: "externref" (111) 0x18-0x19 (1)
    |                                               |                |                [1]{}: in 0x19-0x1a (1)
0x10|                           0b                  |         .      |                  opcode: "end" (0xb) 0x19-0x1a (1)
    |                                               |                |            [3]{}: glob 0x1a-0x1f (5)
    |                                               |                |              gt{}: 0x1a-0x1c (2)
0x10|                              6f               |          o     |                t: "externref" (0x6f) 0x1a-0x1b (1)
0x10|                                 01            |           .    |                m: "var" (1) 0x1b-0x1c (1)
    |                                               |                |              e[0:2]: 0x1c-0x1f (3)
    |                                               |                |                [0]{}: in 0x1c-0x1e (2)
0x10|                                    d0         |            .   |                  opcode: "ref.null" (0xd0) 0x1c-0x1d (1)
0x10|                                       6f      |             o  |                  t: "externref" (111) 0x1d-0x1e (1)
    |                                               |                |                [1]{}: in 0x1e-0x1f (1)
0x10|                                          0b   |              . |                  opcode: "end" (0xb) 0x1e-0x1f (1)
    |                                               |                |    [1]{}: section 0x1f-0x5e (63)
0x10|                                             07|               .|      id: "export_section" (7) 0x1f-0x20 (1)
0x20|3d                                             |=               |      size: 61 (valid) 0x20-0x21 (1)
    |                                               |                |      content{}: 0x21-0x5e (61)
    |                                               |                |        ex{}: 0x21-0x5e (61)
0x20|   04                                          | .              |          n: 4 (valid) 0x21-0x22 (1)
    |                                               |                |          x[0:4]: 0x22-0x5e (60)
    |                                               |                |            [0]{}: ex 0x22-0x31 (15)
    |                                               |                |              nm{}: 0x22-0x2f (13)
0x20|      0c                                       |  .             |                n: 12 (valid) 0x22-0x23 (1)
0x20|         67 2d 63 6f 6e 73 74 2d 66 75 6e 63   |   g-const-func |                b: "g-const-func" 0x23-0x2f (12)
    |                                               |                |              d{}: 0x2f-0x31 (2)
0x20|                                             03|               .|                tag: "globalidx" (0x3) 0x2f-0x30 (1)
0x30|00                                             |.               |                x: 0 (valid) 0x30-0x31 (1)
    |                                               |                |            [1]{}: ex 0x31-0x3e (13)
    |                                               |                |              nm{}: 0x31-0x3c (11)
0x30|   0a                                          | .              |                n: 10 (valid) 0x31-0x32 (1)
0x30|      67 2d 76 61 72 2d 66 75 6e 63            |  g-var-func    |                b: "g-var-func" 0x32-0x3c (10)
    |                                               |                |              d{}: 0x3c-0x3e (2)
0x30|                                    03         |            .   |                tag: "globalidx" (0x3) 0x3c-0x3d (1)
0x30|                                       01      |             .  |                x: 1 (valid) 0x3d-0x3e (1)
    |                                               |                |            [2]{}: ex 0x3e-0x4f (17)
    |                                               |                |              nm{}: 0x3e-0x4d (15)
0x30|                                          0e   |              . |                n: 14 (valid) 0x3e-0x3f (1)
0x30|                                             67|               g|                b: "g-const-extern" 0x3f-0x4d (14)
0x40|2d 63 6f 6e 73 74 2d 65 78 74 65 72 6e         |-const-extern   |
    |                                               |                |              d{}: 0x4d-0x4f (2)
0x40|                                       03      |             .  |                tag: "globalidx" (0x3) 0x4d-0x4e (1)
0x40|                                          02   |              . |                x: 2 (valid) 0x4e-0x4f (1)
    |                                               |                |            [3]{}: ex 0x4f-0x5e (15)
    |                                               |                |              nm{}: 0x4f-0x5c (13)
0x40|                                             0c|               .|                n: 12 (valid) 0x4f-0x50 (1)
0x50|67 2d 76 61 72 2d 65 78 74 65 72 6e            |g-var-extern    |                b: "g-var-extern" 0x50-0x5c (12)
    |                                               |                |              d{}: 0x5c-0x5e (2)
0x50|                                    03         |            .   |                tag: "globalidx" (0x3) 0x5c-0x5d (1)
0x50|                                       03|     |             .| |                x: 3 (valid) 0x5d-0x5e (1)
