$ fq -d wasm dv linking-1.wasm
    |00 01 02 03 04 05 06 07 08 09 0a 0b 0c 0d 0e 0f|0123456789abcdef|.{}: linking-1.wasm (wasm) 0x0-0x57 (87)
0x00|00 61 73 6d                                    |.asm            |  magic: raw bits (valid) 0x0-0x4 (4)
0x00|            01 00 00 00                        |    ....        |  version: 1 0x4-0x8 (4)
    |                                               |                |  sections[0:5]: 0x8-0x57 (79)
    |                                               |                |    [0]{}: section 0x8-0xf (7)
0x00|                        01                     |        .       |      id: "type_section" (1) 0x8-0x9 (1)
0x00|                           05                  |         .      |      size: 5 (valid) 0x9-0xa (1)
    |                                               |                |      content{}: 0xa-0xf (5)
    |                                               |                |        ft{}: 0xa-0xf (5)
0x00|                              01               |          .     |          n: 1 (valid) 0xa-0xb (1)
    |                                               |                |          x[0:1]: 0xb-0xf (4)
    |                                               |                |            [0]{}: ft 0xb-0xf (4)
0x00|                                 60            |           `    |              tag: 0x60 (valid) 0xb-0xc (1)
    |                                               |                |              rt1{}: 0xc-0xd (1)
0x00|                                    00         |            .   |                n: 0 (valid) 0xc-0xd (1)
    |                                               |                |                x[0:0]: 0xd-0xd (0)
    |                                               |                |              rt2{}: 0xd-0xf (2)
0x00|                                       01      |             .  |                n: 1 (valid) 0xd-0xe (1)
    |                                               |                |                x[0:1]: 0xe-0xf (1)
0x00|                                          7f   |              . |                  [0]: "i32" (0x7f) t 0xe-0xf (1)
    |                                               |                |    [1]{}: section 0xf-0x1c (13)
0x00|                                             02|               .|      id: "import_section" (2) 0xf-0x10 (1)
0x10|0b                                             |.               |      size: 11 (valid) 0x10-0x11 (1)
    |                                               |                |      content{}: 0x11-0x1c (11)
    |                                               |                |        im{}: 0x11-0x1c (11)
0x10|   01                                          | .              |          n: 1 (valid) 0x11-0x12 (1)
    |                                               |                |          x[0:1]: 0x12-0x1c (10)
    |                                               |                |            [0]{}: im 0x12-0x1c (10)
    |                                               |                |              mod{}: 0x12-0x15 (3)
0x10|      02                                       |  .             |                n: 2 (valid) 0x12-0x13 (1)
0x10|         4d 66                                 |   Mf           |                b: "Mf" 0x13-0x15 (2)
    |                                               |                |              nm{}: 0x15-0x1a (5)
0x10|               04                              |     .          |                n: 4 (valid) 0x15-0x16 (1)
0x10|                  63 61 6c 6c                  |      call      |                b: "call" 0x16-0x1a (4)
    |                                               |                |              d{}: 0x1a-0x1c (2)
0x10|                              00               |          .     |                tag: "func" (0x0) 0x1a-0x1b (1)
0x10|                                 00            |           .    |                x: 0 (valid) 0x1b-0x1c (1)
    |                                               |                |    [2]{}: section 0x1c-0x22 (6)
0x10|                                    03         |            .   |      id: "function_section" (3) 0x1c-0x1d (1)
0x10|                                       04      |             .  |      size: 4 (valid) 0x1d-0x1e (1)
    |                                               |                |      content{}: 0x1e-0x22 (4)
    |                                               |                |        x{}: 0x1e-0x22 (4)
0x10|                                          03   |              . |          n: 3 (valid) 0x1e-0x1f (1)
    |                                               |                |          x[0:3]: 0x1f-0x22 (3)
0x10|                                             00|               .|            [0]: 0 x (valid) 0x1f-0x20 (1)
0x20|00                                             |.               |            [1]: 0 x (valid) 0x20-0x21 (1)
0x20|   00                                          | .              |            [2]: 0 x (valid) 0x21-0x22 (1)
    |                                               |                |    [3]{}: section 0x22-0x45 (35)
0x20|      07                                       |  .             |      id: "export_section" (7) 0x22-0x23 (1)
0x20|         21                                    |   !            |      size: 33 (valid) 0x23-0x24 (1)
    |                                               |                |      content{}: 0x24-0x45 (33)
    |                                               |                |        ex{}: 0x24-0x45 (33)
0x20|            03                                 |    .           |          n: 3 (valid) 0x24-0x25 (1)
    |                                               |                |          x[0:3]: 0x25-0x45 (32)
    |                                               |                |            [0]{}: ex 0x25-0x2f (10)
    |                                               |                |              nm{}: 0x25-0x2d (8)
0x20|               07                              |     .          |                n: 7 (valid) 0x25-0x26 (1)
0x20|                  4d 66 2e 63 61 6c 6c         |      Mf.call   |                b: "Mf.call" 0x26-0x2d (7)
    |                                               |                |              d{}: 0x2d-0x2f (2)
0x20|                                       00      |             .  |                tag: "funcidx" (0x0) 0x2d-0x2e (1)
0x20|                                          00   |              . |                x: 0 (valid) 0x2e-0x2f (1)
    |                                               |                |            [1]{}: ex 0x2f-0x3e (15)
    |                                               |                |              nm{}: 0x2f-0x3c (13)
0x20|                                             0c|               .|                n: 12 (valid) 0x2f-0x30 (1)
0x30|63 61 6c 6c 20 4d 66 2e 63 61 6c 6c            |call Mf.call    |                b: "call Mf.call" 0x30-0x3c (12)
    |                                               |                |              d{}: 0x3c-0x3e (2)
0x30|                                    00         |            .   |                tag: "funcidx" (0x0) 0x3c-0x3d (1)
0x30|                                       01      |             .  |                x: 1 (valid) 0x3d-0x3e (1)
    |                                               |                |            [2]{}: ex 0x3e-0x45 (7)
    |                                               |                |              nm{}: 0x3e-0x43 (5)
0x30|                                          04   |              . |                n: 4 (valid) 0x3e-0x3f (1)
0x30|                                             63|               c|                b: "call" 0x3f-0x43 (4)
0x40|61 6c 6c                                       |all             |
    |                                               |                |              d{}: 0x43-0x45 (2)
0x40|         00                                    |   .            |                tag: "funcidx" (0x0) 0x43-0x44 (1)
0x40|            02                                 |    .           |                x: 2 (valid) 0x44-0x45 (1)
    |                                               |                |    [4]{}: section 0x45-0x57 (18)
0x40|               0a                              |     .          |      id: "code_section" (10) 0x45-0x46 (1)
0x40|                  10                           |      .         |      size: 16 (valid) 0x46-0x47 (1)
    |                                               |                |      content{}: 0x47-0x57 (16)
    |                                               |                |        code{}: 0x47-0x57 (16)
0x40|                     03                        |       .        |          n: 3 (valid) 0x47-0x48 (1)
    |                                               |                |          x[0:3]: 0x48-0x57 (15)
    |                                               |                |            [0]{}: code 0x48-0x4d (5)
0x40|                        04                     |        .       |              size: 4 (valid) 0x48-0x49 (1)
    |                                               |                |              code{}: 0x49-0x4d (4)
    |                                               |                |                t{}: 0x49-0x4a (1)
0x40|                           00                  |         .      |                  n: 0 (valid) 0x49-0x4a (1)
    |                                               |                |                  x[0:0]: 0x4a-0x4a (0)
    |                                               |                |                e[0:2]: 0x4a-0x4d (3)
    |                                               |                |                  [0]{}: in 0x4a-0x4c (2)
0x40|                              10               |          .     |                    opcode: "call" (0x10) 0x4a-0x4b (1)
0x40|                                 00            |           .    |                    x: 0 (valid) 0x4b-0x4c (1)
    |                                               |                |                  [1]{}: in 0x4c-0x4d (1)
0x40|                                    0b         |            .   |                    opcode: "end" (0xb) 0x4c-0x4d (1)
    |                                               |                |            [1]{}: code 0x4d-0x52 (5)
0x40|                                       04      |             .  |              size: 4 (valid) 0x4d-0x4e (1)
    |                                               |                |              code{}: 0x4e-0x52 (4)
    |                                               |                |                t{}: 0x4e-0x4f (1)
0x40|                                          00   |              . |                  n: 0 (valid) 0x4e-0x4f (1)
    |                                               |                |                  x[0:0]: 0x4f-0x4f (0)
    |                                               |                |                e[0:2]: 0x4f-0x52 (3)
    |                                               |                |                  [0]{}: in 0x4f-0x51 (2)
0x40|                                             10|               .|                    opcode: "call" (0x10) 0x4f-0x50 (1)
0x50|03                                             |.               |                    x: 3 (valid) 0x50-0x51 (1)
    |                                               |                |                  [1]{}: in 0x51-0x52 (1)
0x50|   0b                                          | .              |                    opcode: "end" (0xb) 0x51-0x52 (1)
    |                                               |                |            [2]{}: code 0x52-0x57 (5)
0x50|      04                                       |  .             |              size: 4 (valid) 0x52-0x53 (1)
    |                                               |                |              code{}: 0x53-0x57 (4)
    |                                               |                |                t{}: 0x53-0x54 (1)
0x50|         00                                    |   .            |                  n: 0 (valid) 0x53-0x54 (1)
    |                                               |                |                  x[0:0]: 0x54-0x54 (0)
    |                                               |                |                e[0:2]: 0x54-0x57 (3)
    |                                               |                |                  [0]{}: in 0x54-0x56 (2)
0x50|            41                                 |    A           |                    opcode: "i32.const" (0x41) 0x54-0x55 (1)
0x50|               03                              |     .          |                    n: 3 (valid) 0x55-0x56 (1)
    |                                               |                |                  [1]{}: in 0x56-0x57 (1)
0x50|                  0b|                          |      .|        |                    opcode: "end" (0xb) 0x56-0x57 (1)
