$ fq -d wasm dv linking-0.wasm
    |00 01 02 03 04 05 06 07 08 09 0a 0b 0c 0d 0e 0f|0123456789abcdef|.{}: linking-0.wasm (wasm) 0x0-0x2b (43)
0x00|00 61 73 6d                                    |.asm            |  magic: raw bits (valid) 0x0-0x4 (4)
0x00|            01 00 00 00                        |    ....        |  version: 1 0x4-0x8 (4)
    |                                               |                |  sections[0:4]: 0x8-0x2b (35)
    |                                               |                |    [0]{}: section 0x8-0xf (7)
0x00|                        01                     |        .       |      id: "type_section" (1) 0x8-0x9 (1)
0x00|                           05                  |         .      |      size: 5 (valid) 0x9-0xa (1)
    |                                               |                |      content{}: 0xa-0xf (5)
    |                                               |                |        ft{}: 0xa-0xf (5)
0x00|                              01               |          .     |          n: 1 (valid) 0xa-0xb (1)
    |                                               |                |          x[0:1]: 0xb-0xf (4)
    |                                               |                |            [0]{}: ft 0xb-0xf (4)
0x00|                                 60            |           `    |              tag: 0x60 (valid) 0xb-0xc (1)
    |                                               |                |              rt1{}: 0xc-0xd (1)
0x00|                                    00         |            .   |                n: 0 (valid) 0xc-0xd (1)
    |                                               |                |                x[0:0]: 0xd-0xd (0)
    |                                               |                |              rt2{}: 0xd-0xf (2)
0x00|                                       01      |             .  |                n: 1 (valid) 0xd-0xe (1)
    |                                               |                |                x[0:1]: 0xe-0xf (1)
0x00|                                          7f   |              . |                  [0]: "i32" (0x7f) t 0xe-0xf (1)
    |                                               |                |    [1]{}: section 0xf-0x14 (5)
0x00|                                             03|               .|      id: "function_section" (3) 0xf-0x10 (1)
0x10|03                                             |.               |      size: 3 (valid) 0x10-0x11 (1)
    |                                               |                |      content{}: 0x11-0x14 (3)
    |                                               |                |        x{}: 0x11-0x14 (3)
0x10|   02                                          | .              |          n: 2 (valid) 0x11-0x12 (1)
    |                                               |                |          x[0:2]: 0x12-0x14 (2)
0x10|      00                                       |  .             |            [0]: 0 x (valid) 0x12-0x13 (1)
0x10|         00                                    |   .            |            [1]: 0 x (valid) 0x13-0x14 (1)
    |                                               |                |    [2]{}: section 0x14-0x1e (10)
0x10|            07                                 |    .           |      id: "export_section" (7) 0x14-0x15 (1)
0x10|               08                              |     .          |      size: 8 (valid) 0x15-0x16 (1)
    |                                               |                |      content{}: 0x16-0x1e (8)
    |                                               |                |        ex{}: 0x16-0x1e (8)
0x10|                  01                           |      .         |          n: 1 (valid) 0x16-0x17 (1)
    |                                               |                |          x[0:1]: 0x17-0x1e (7)
    |                                               |                |            [0]{}: ex 0x17-0x1e (7)
    |                                               |                |              nm{}: 0x17-0x1c (5)
0x10|                     04                        |       .        |                n: 4 (valid) 0x17-0x18 (1)
0x10|                        63 61 6c 6c            |        call    |                b: "call" 0x18-0x1c (4)
    |                                               |                |              d{}: 0x1c-0x1e (2)
0x10|                                    00         |            .   |                tag: "funcidx" (0x0) 0x1c-0x1d (1)
0x10|                                       00      |             .  |                x: 0 (valid) 0x1d-0x1e (1)
    |                                               |                |    [3]{}: section 0x1e-0x2b (13)
0x10|                                          0a   |              . |      id: "code_section" (10) 0x1e-0x1f (1)
0x10|                                             0b|               .|      size: 11 (valid) 0x1f-0x20 (1)
    |                                               |                |      content{}: 0x20-0x2b (11)
    |                                               |                |        code{}: 0x20-0x2b (11)
0x20|02                                             |.               |          n: 2 (valid) 0x20-0x21 (1)
    |                                               |                |          x[0:2]: 0x21-0x2b (10)
    |                                               |                |            [0]{}: code 0x21-0x26 (5)
0x20|   04                                          | .              |              size: 4 (valid) 0x21-0x22 (1)
    |                                               |                |              code{}: 0x22-0x26 (4)
    |                                               |                |                t{}: 0x22-0x23 (1)
0x20|      00                                       |  .             |                  n: 0 (valid) 0x22-0x23 (1)
    |                                               |                |                  x[0:0]: 0x23-0x23 (0)
    |                                               |                |                e[0:2]: 0x23-0x26 (3)
    |                                               |                |                  [0]{}: in 0x23-0x25 (2)
0x20|         10                                    |   .            |                    opcode: "call" (0x10) 0x23-0x24 (1)
0x20|            01                                 |    .           |                    x: 1 (valid) 0x24-0x25 (1)
    |                                               |                |                  [1]{}: in 0x25-0x26 (1)
0x20|               0b                              |     .          |                    opcode: "end" (0xb) 0x25-0x26 (1)
    |                                               |                |            [1]{}: code 0x26-0x2b (5)
0x20|                  04                           |      .         |              size: 4 (valid) 0x26-0x27 (1)
    |                                               |                |              code{}: 0x27-0x2b (4)
    |                                               |                |                t{}: 0x27-0x28 (1)
0x20|                     00                        |       .        |                  n: 0 (valid) 0x27-0x28 (1)
    |                                               |                |                  x[0:0]: 0x28-0x28 (0)
    |                                               |                |                e[0:2]: 0x28-0x2b (3)
    |                                               |                |                  [0]{}: in 0x28-0x2a (2)
0x20|                        41                     |        A       |                    opcode: "i32.const" (0x41) 0x28-0x29 (1)
0x20|                           02                  |         .      |                    n: 2 (valid) 0x29-0x2a (1)
    |                                               |                |                  [1]{}: in 0x2a-0x2b (1)
0x20|                              0b|              |          .|    |                    opcode: "end" (0xb) 0x2a-0x2b (1)
