$ fq -d wasm dv linking-9.wasm
    |00 01 02 03 04 05 06 07 08 09 0a 0b 0c 0d 0e 0f|0123456789abcdef|.{}: linking-9.wasm (wasm) 0x0-0x52 (82)
0x00|00 61 73 6d                                    |.asm            |  magic: raw bits (valid) 0x0-0x4 (4)
0x00|            01 00 00 00                        |    ....        |  version: 1 0x4-0x8 (4)
    |                                               |                |  sections[0:6]: 0x8-0x52 (74)
    |                                               |                |    [0]{}: section 0x8-0x14 (12)
0x00|                        01                     |        .       |      id: "type_section" (1) 0x8-0x9 (1)
0x00|                           0a                  |         .      |      size: 10 (valid) 0x9-0xa (1)
    |                                               |                |      content{}: 0xa-0x14 (10)
    |                                               |                |        ft{}: 0xa-0x14 (10)
0x00|                              02               |          .     |          n: 2 (valid) 0xa-0xb (1)
    |                                               |                |          x[0:2]: 0xb-0x14 (9)
    |                                               |                |            [0]{}: ft 0xb-0xf (4)
0x00|                                 60            |           `    |              tag: 0x60 (valid) 0xb-0xc (1)
    |                                               |                |              rt1{}: 0xc-0xd (1)
0x00|                                    00         |            .   |                n: 0 (valid) 0xc-0xd (1)
    |                                               |                |                x[0:0]: 0xd-0xd (0)
    |                                               |                |              rt2{}: 0xd-0xf (2)
0x00|                                       01      |             .  |                n: 1 (valid) 0xd-0xe (1)
    |                                               |                |                x[0:1]: 0xe-0xf (1)
0x00|                                          7f   |              . |                  [0]: "i32" (0x7f) t 0xe-0xf (1)
    |                                               |                |            [1]{}: ft 0xf-0x14 (5)
0x00|                                             60|               `|              tag: 0x60 (valid) 0xf-0x10 (1)
    |                                               |                |              rt1{}: 0x10-0x12 (2)
0x10|01                                             |.               |                n: 1 (valid) 0x10-0x11 (1)
    |                                               |                |                x[0:1]: 0x11-0x12 (1)
0x10|   7f                                          | .              |                  [0]: "i32" (0x7f) t 0x11-0x12 (1)
    |                                               |                |              rt2{}: 0x12-0x14 (2)
0x10|      01                                       |  .             |                n: 1 (valid) 0x12-0x13 (1)
    |                                               |                |                x[0:1]: 0x13-0x14 (1)
0x10|         7f                                    |   .            |                  [0]: "i32" (0x7f) t 0x13-0x14 (1)
    |                                               |                |    [1]{}: section 0x14-0x29 (21)
0x10|            02                                 |    .           |      id: "import_section" (2) 0x14-0x15 (1)
0x10|               13                              |     .          |      size: 19 (valid) 0x15-0x16 (1)
    |                                               |                |      content{}: 0x16-0x29 (19)
    |                                               |                |        im{}: 0x16-0x29 (19)
0x10|                  02                           |      .         |          n: 2 (valid) 0x16-0x17 (1)
    |                                               |                |          x[0:2]: 0x17-0x29 (18)
    |                                               |                |            [0]{}: im 0x17-0x1e (7)
    |                                               |                |              mod{}: 0x17-0x1a (3)
0x10|                     02                        |       .        |                n: 2 (valid) 0x17-0x18 (1)
0x10|                        4d 74                  |        Mt      |                b: "Mt" 0x18-0x1a (2)
    |                                               |                |              nm{}: 0x1a-0x1c (2)
0x10|                              01               |          .     |                n: 1 (valid) 0x1a-0x1b (1)
0x10|                                 68            |           h    |                b: "h" 0x1b-0x1c (1)
    |                                               |                |              d{}: 0x1c-0x1e (2)
0x10|                                    00         |            .   |                tag: "func" (0x0) 0x1c-0x1d (1)
0x10|                                       00      |             .  |                x: 0 (valid) 0x1d-0x1e (1)
    |                                               |                |            [1]{}: im 0x1e-0x29 (11)
    |                                               |                |              mod{}: 0x1e-0x21 (3)
0x10|                                          02   |              . |                n: 2 (valid) 0x1e-0x1f (1)
0x10|                                             4d|               M|                b: "Mt" 0x1f-0x21 (2)
0x20|74                                             |t               |
    |                                               |                |              nm{}: 0x21-0x25 (4)
0x20|   03                                          | .              |                n: 3 (valid) 0x21-0x22 (1)
0x20|      74 61 62                                 |  tab           |                b: "tab" 0x22-0x25 (3)
    |                                               |                |              d{}: 0x25-0x29 (4)
0x20|               01                              |     .          |                tag: "table" (0x1) 0x25-0x26 (1)
    |                                               |                |                tt{}: 0x26-0x29 (3)
0x20|                  70                           |      p         |                  et: "funcref" (112) 0x26-0x27 (1)
    |                                               |                |                  lim{}: 0x27-0x29 (2)
0x20|                     00                        |       .        |                    tag: 0x0 0x27-0x28 (1)
0x20|                        05                     |        .       |                    n: 5 (valid) 0x28-0x29 (1)
    |                                               |                |    [2]{}: section 0x29-0x2e (5)
0x20|                           03                  |         .      |      id: "function_section" (3) 0x29-0x2a (1)
0x20|                              03               |          .     |      size: 3 (valid) 0x2a-0x2b (1)
    |                                               |                |      content{}: 0x2b-0x2e (3)
    |                                               |                |        x{}: 0x2b-0x2e (3)
0x20|                                 02            |           .    |          n: 2 (valid) 0x2b-0x2c (1)
    |                                               |                |          x[0:2]: 0x2c-0x2e (2)
0x20|                                    00         |            .   |            [0]: 0 x (valid) 0x2c-0x2d (1)
0x20|                                       01      |             .  |            [1]: 1 x (valid) 0x2d-0x2e (1)
    |                                               |                |    [3]{}: section 0x2e-0x38 (10)
0x20|                                          07   |              . |      id: "export_section" (7) 0x2e-0x2f (1)
0x20|                                             08|               .|      size: 8 (valid) 0x2f-0x30 (1)
    |                                               |                |      content{}: 0x30-0x38 (8)
    |                                               |                |        ex{}: 0x30-0x38 (8)
0x30|01                                             |.               |          n: 1 (valid) 0x30-0x31 (1)
    |                                               |                |          x[0:1]: 0x31-0x38 (7)
    |                                               |                |            [0]{}: ex 0x31-0x38 (7)
    |                                               |                |              nm{}: 0x31-0x36 (5)
0x30|   04                                          | .              |                n: 4 (valid) 0x31-0x32 (1)
0x30|      63 61 6c 6c                              |  call          |                b: "call" 0x32-0x36 (4)
    |                                               |                |              d{}: 0x36-0x38 (2)
0x30|                  00                           |      .         |                tag: "funcidx" (0x0) 0x36-0x37 (1)
0x30|                     02                        |       .        |                x: 2 (valid) 0x37-0x38 (1)
    |                                               |                |    [4]{}: section 0x38-0x42 (10)
0x30|                        09                     |        .       |      id: "element_section" (9) 0x38-0x39 (1)
0x30|                           08                  |         .      |      size: 8 (valid) 0x39-0x3a (1)
    |                                               |                |      element{}: 0x3a-0x42 (8)
    |                                               |                |        seg{}: 0x3a-0x42 (8)
0x30|                              01               |          .     |          n: 1 (valid) 0x3a-0x3b (1)
    |                                               |                |          x[0:1]: 0x3b-0x42 (7)
    |                                               |                |            [0]{}: seg 0x3b-0x42 (7)
0x30|                                 00            |           .    |              tag: 0 (valid) 0x3b-0x3c (1)
    |                                               |                |              e[0:2]: 0x3c-0x3f (3)
    |                                               |                |                [0]{}: in 0x3c-0x3e (2)
0x30|                                    41         |            A   |                  opcode: "i32.const" (0x41) 0x3c-0x3d (1)
0x30|                                       01      |             .  |                  n: 1 (valid) 0x3d-0x3e (1)
    |                                               |                |                [1]{}: in 0x3e-0x3f (1)
0x30|                                          0b   |              . |                  opcode: "end" (0xb) 0x3e-0x3f (1)
    |                                               |                |              y{}: 0x3f-0x42 (3)
0x30|                                             02|               .|                n: 2 (valid) 0x3f-0x40 (1)
    |                                               |                |                x[0:2]: 0x40-0x42 (2)
0x40|01                                             |.               |                  [0]: 1 y (valid) 0x40-0x41 (1)
0x40|   00                                          | .              |                  [1]: 0 y (valid) 0x41-0x42 (1)
    |                                               |                |    [5]{}: section 0x42-0x52 (16)
0x40|      0a                                       |  .             |      id: "code_section" (10) 0x42-0x43 (1)
0x40|         0e                                    |   .            |      size: 14 (valid) 0x43-0x44 (1)
    |                                               |                |      content{}: 0x44-0x52 (14)
    |                                               |                |        code{}: 0x44-0x52 (14)
0x40|            02                                 |    .           |          n: 2 (valid) 0x44-0x45 (1)
    |                                               |                |          x[0:2]: 0x45-0x52 (13)
    |                                               |                |            [0]{}: code 0x45-0x4a (5)
0x40|               04                              |     .          |              size: 4 (valid) 0x45-0x46 (1)
    |                                               |                |              code{}: 0x46-0x4a (4)
    |                                               |                |                t{}: 0x46-0x47 (1)
0x40|                  00                           |      .         |                  n: 0 (valid) 0x46-0x47 (1)
    |                                               |                |                  x[0:0]: 0x47-0x47 (0)
    |                                               |                |                e[0:2]: 0x47-0x4a (3)
    |                                               |                |                  [0]{}: in 0x47-0x49 (2)
0x40|                     41                        |       A        |                    opcode: "i32.const" (0x41) 0x47-0x48 (1)
0x40|                        06                     |        .       |                    n: 6 (valid) 0x48-0x49 (1)
    |                                               |                |                  [1]{}: in 0x49-0x4a (1)
0x40|                           0b                  |         .      |                    opcode: "end" (0xb) 0x49-0x4a (1)
    |                                               |                |            [1]{}: code 0x4a-0x52 (8)
0x40|                              07               |          .     |              size: 7 (valid) 0x4a-0x4b (1)
    |                                               |                |              code{}: 0x4b-0x52 (7)
    |                                               |                |                t{}: 0x4b-0x4c (1)
0x40|                                 00            |           .    |                  n: 0 (valid) 0x4b-0x4c (1)
    |                                               |                |                  x[0:0]: 0x4c-0x4c (0)
    |                                               |                |                e[0:3]: 0x4c-0x52 (6)
    |                                               |                |                  [0]{}: in 0x4c-0x4e (2)
0x40|                                    20         |                |                    opcode: "local.get" (0x20) 0x4c-0x4d (1)
0x40|                                       00      |             .  |                    x: 0 (valid) 0x4d-0x4e (1)
    |                                               |                |                  [1]{}: in 0x4e-0x51 (3)
0x40|                                          11   |              . |                    opcode: "call_indirect" (0x11) 0x4e-0x4f (1)
0x40|                                             00|               .|                    y: 0 (valid) 0x4f-0x50 (1)
0x50|00                                             |.               |                    x: 0 (valid) 0x50-0x51 (1)
    |                                               |                |                  [2]{}: in 0x51-0x52 (1)
0x50|   0b|                                         | .|             |                    opcode: "end" (0xb) 0x51-0x52 (1)
