$ fq -d wasm dv linking-3.wasm
    |00 01 02 03 04 05 06 07 08 09 0a 0b 0c 0d 0e 0f|0123456789abcdef|.{}: linking-3.wasm (wasm) 0x0-0x6a (106)
0x00|00 61 73 6d                                    |.asm            |  magic: raw bits (valid) 0x0-0x4 (4)
0x00|            01 00 00 00                        |    ....        |  version: 1 0x4-0x8 (4)
    |                                               |                |  sections[0:5]: 0x8-0x6a (98)
    |                                               |                |    [0]{}: section 0x8-0x13 (11)
0x00|                        01                     |        .       |      id: "type_section" (1) 0x8-0x9 (1)
0x00|                           09                  |         .      |      size: 9 (valid) 0x9-0xa (1)
    |                                               |                |      content{}: 0xa-0x13 (9)
    |                                               |                |        ft{}: 0xa-0x13 (9)
0x00|                              02               |          .     |          n: 2 (valid) 0xa-0xb (1)
    |                                               |                |          x[0:2]: 0xb-0x13 (8)
    |                                               |                |            [0]{}: ft 0xb-0xf (4)
0x00|                                 60            |           `    |              tag: 0x60 (valid) 0xb-0xc (1)
    |                                               |                |              rt1{}: 0xc-0xd (1)
0x00|                                    00         |            .   |                n: 0 (valid) 0xc-0xd (1)
    |                                               |                |                x[0:0]: 0xd-0xd (0)
    |                                               |                |              rt2{}: 0xd-0xf (2)
0x00|                                       01      |             .  |                n: 1 (valid) 0xd-0xe (1)
    |                                               |                |                x[0:1]: 0xe-0xf (1)
0x00|                                          7f   |              . |                  [0]: "i32" (0x7f) t 0xe-0xf (1)
    |                                               |                |            [1]{}: ft 0xf-0x13 (4)
0x00|                                             60|               `|              tag: 0x60 (valid) 0xf-0x10 (1)
    |                                               |                |              rt1{}: 0x10-0x12 (2)
0x10|01                                             |.               |                n: 1 (valid) 0x10-0x11 (1)
    |                                               |                |                x[0:1]: 0x11-0x12 (1)
0x10|   7f                                          | .              |                  [0]: "i32" (0x7f) t 0x11-0x12 (1)
    |                                               |                |              rt2{}: 0x12-0x13 (1)
0x10|      00                                       |  .             |                n: 0 (valid) 0x12-0x13 (1)
    |                                               |                |                x[0:0]: 0x13-0x13 (0)
    |                                               |                |    [1]{}: section 0x13-0x19 (6)
0x10|         03                                    |   .            |      id: "function_section" (3) 0x13-0x14 (1)
0x10|            04                                 |    .           |      size: 4 (valid) 0x14-0x15 (1)
    |                                               |                |      content{}: 0x15-0x19 (4)
    |                                               |                |        x{}: 0x15-0x19 (4)
0x10|               03                              |     .          |          n: 3 (valid) 0x15-0x16 (1)
    |                                               |                |          x[0:3]: 0x16-0x19 (3)
0x10|                  00                           |      .         |            [0]: 0 x (valid) 0x16-0x17 (1)
0x10|                     00                        |       .        |            [1]: 0 x (valid) 0x17-0x18 (1)
0x10|                        01                     |        .       |            [2]: 1 x (valid) 0x18-0x19 (1)
    |                                               |                |    [2]{}: section 0x19-0x27 (14)
0x10|                           06                  |         .      |      id: "global_section" (6) 0x19-0x1a (1)
0x10|                              0c               |          .     |      size: 12 (valid) 0x1a-0x1b (1)
    |                                               |                |      content{}: 0x1b-0x27 (12)
    |                                               |                |        glob{}: 0x1b-0x27 (12)
0x10|                                 02            |           .    |          n: 2 (valid) 0x1b-0x1c (1)
    |                                               |                |          x[0:2]: 0x1c-0x27 (11)
    |                                               |                |            [0]{}: glob 0x1c-0x21 (5)
    |                                               |                |              gt{}: 0x1c-0x1e (2)
0x10|                                    7f         |            .   |                t: "i32" (0x7f) 0x1c-0x1d (1)
0x10|                                       00      |             .  |                m: "const" (0) 0x1d-0x1e (1)
    |                                               |                |              e[0:2]: 0x1e-0x21 (3)
    |                                               |                |                [0]{}: in 0x1e-0x20 (2)
0x10|                                          41   |              A |                  opcode: "i32.const" (0x41) 0x1e-0x1f (1)
0x10|                                             2a|               *|                  n: 42 (valid) 0x1f-0x20 (1)
    |                                               |                |                [1]{}: in 0x20-0x21 (1)
0x20|0b                                             |.               |                  opcode: "end" (0xb) 0x20-0x21 (1)
    |                                               |                |            [1]{}: glob 0x21-0x27 (6)
    |                                               |                |              gt{}: 0x21-0x23 (2)
0x20|   7f                                          | .              |                t: "i32" (0x7f) 0x21-0x22 (1)
0x20|      01                                       |  .             |                m: "var" (1) 0x22-0x23 (1)
    |                                               |                |              e[0:2]: 0x23-0x27 (4)
    |                                               |                |                [0]{}: in 0x23-0x26 (3)
0x20|         41                                    |   A            |                  opcode: "i32.const" (0x41) 0x23-0x24 (1)
0x20|            8e 01                              |    ..          |                  n: 142 (valid) 0x24-0x26 (2)
    |                                               |                |                [1]{}: in 0x26-0x27 (1)
0x20|                  0b                           |      .         |                  opcode: "end" (0xb) 0x26-0x27 (1)
    |                                               |                |    [3]{}: section 0x27-0x56 (47)
0x20|                     07                        |       .        |      id: "export_section" (7) 0x27-0x28 (1)
0x20|                        2d                     |        -       |      size: 45 (valid) 0x28-0x29 (1)
    |                                               |                |      content{}: 0x29-0x56 (45)
    |                                               |                |        ex{}: 0x29-0x56 (45)
0x20|                           05                  |         .      |          n: 5 (valid) 0x29-0x2a (1)
    |                                               |                |          x[0:5]: 0x2a-0x56 (44)
    |                                               |                |            [0]{}: ex 0x2a-0x31 (7)
    |                                               |                |              nm{}: 0x2a-0x2f (5)
0x20|                              04               |          .     |                n: 4 (valid) 0x2a-0x2b (1)
0x20|                                 67 6c 6f 62   |           glob |                b: "glob" 0x2b-0x2f (4)
    |                                               |                |              d{}: 0x2f-0x31 (2)
0x20|                                             03|               .|                tag: "globalidx" (0x3) 0x2f-0x30 (1)
0x30|00                                             |.               |                x: 0 (valid) 0x30-0x31 (1)
    |                                               |                |            [1]{}: ex 0x31-0x37 (6)
    |                                               |                |              nm{}: 0x31-0x35 (4)
0x30|   03                                          | .              |                n: 3 (valid) 0x31-0x32 (1)
0x30|      67 65 74                                 |  get           |                b: "get" 0x32-0x35 (3)
    |                                               |                |              d{}: 0x35-0x37 (2)
0x30|               00                              |     .          |                tag: "funcidx" (0x0) 0x35-0x36 (1)
0x30|                  00                           |      .         |                x: 0 (valid) 0x36-0x37 (1)
    |                                               |                |            [2]{}: ex 0x37-0x42 (11)
    |                                               |                |              nm{}: 0x37-0x40 (9)
0x30|                     08                        |       .        |                n: 8 (valid) 0x37-0x38 (1)
0x30|                        6d 75 74 5f 67 6c 6f 62|        mut_glob|                b: "mut_glob" 0x38-0x40 (8)
    |                                               |                |              d{}: 0x40-0x42 (2)
0x40|03                                             |.               |                tag: "globalidx" (0x3) 0x40-0x41 (1)
0x40|   01                                          | .              |                x: 1 (valid) 0x41-0x42 (1)
    |                                               |                |            [3]{}: ex 0x42-0x4c (10)
    |                                               |                |              nm{}: 0x42-0x4a (8)
0x40|      07                                       |  .             |                n: 7 (valid) 0x42-0x43 (1)
0x40|         67 65 74 5f 6d 75 74                  |   get_mut      |                b: "get_mut" 0x43-0x4a (7)
    |                                               |                |              d{}: 0x4a-0x4c (2)
0x40|                              00               |          .     |                tag: "funcidx" (0x0) 0x4a-0x4b (1)
0x40|                                 01            |           .    |                x: 1 (valid) 0x4b-0x4c (1)
    |                                               |                |            [4]{}: ex 0x4c-0x56 (10)
    |                                               |                |              nm{}: 0x4c-0x54 (8)
0x40|                                    07         |            .   |                n: 7 (valid) 0x4c-0x4d (1)
0x40|                                       73 65 74|             set|                b: "set_mut" 0x4d-0x54 (7)
0x50|5f 6d 75 74                                    |_mut            |
    |                                               |                |              d{}: 0x54-0x56 (2)
0x50|            00                                 |    .           |                tag: "funcidx" (0x0) 0x54-0x55 (1)
0x50|               02                              |     .          |                x: 2 (valid) 0x55-0x56 (1)
    |                                               |                |    [4]{}: section 0x56-0x6a (20)
0x50|                  0a                           |      .         |      id: "code_section" (10) 0x56-0x57 (1)
0x50|                     12                        |       .        |      size: 18 (valid) 0x57-0x58 (1)
    |                                               |                |      content{}: 0x58-0x6a (18)
    |                                               |                |        code{}: 0x58-0x6a (18)
0x50|                        03                     |        .       |          n: 3 (valid) 0x58-0x59 (1)
    |                                               |                |          x[0:3]: 0x59-0x6a (17)
    |                                               |                |            [0]{}: code 0x59-0x5e (5)
0x50|                           04                  |         .      |              size: 4 (valid) 0x59-0x5a (1)
    |                                               |                |              code{}: 0x5a-0x5e (4)
    |                                               |                |                t{}: 0x5a-0x5b (1)
0x50|                              00               |          .     |                  n: 0 (valid) 0x5a-0x5b (1)
    |                                               |                |                  x[0:0]: 0x5b-0x5b (0)
    |                                               |                |                e[0:2]: 0x5b-0x5e (3)
    |                                               |                |                  [0]{}: in 0x5b-0x5d (2)
0x50|                                 23            |           #    |                    opcode: "global.get" (0x23) 0x5b-0x5c (1)
0x50|                                    00         |            .   |                    x: 0 (valid) 0x5c-0x5d (1)
    |                                               |                |                  [1]{}: in 0x5d-0x5e (1)
0x50|                                       0b      |             .  |                    opcode: "end" (0xb) 0x5d-0x5e (1)
    |                                               |                |            [1]{}: code 0x5e-0x63 (5)
0x50|                                          04   |              . |              size: 4 (valid) 0x5e-0x5f (1)
    |                                               |                |              code{}: 0x5f-0x63 (4)
    |                                               |                |                t{}: 0x5f-0x60 (1)
0x50|                                             00|               .|                  n: 0 (valid) 0x5f-0x60 (1)
    |                                               |                |                  x[0:0]: 0x60-0x60 (0)
    |                                               |                |                e[0:2]: 0x60-0x63 (3)
    |                                               |                |                  [0]{}: in 0x60-0x62 (2)
0x60|23                                             |#               |                    opcode: "global.get" (0x23) 0x60-0x61 (1)
0x60|   01                                          | .              |                    x: 1 (valid) 0x61-0x62 (1)
    |                                               |                |                  [1]{}: in 0x62-0x63 (1)
0x60|      0b                                       |  .             |                    opcode: "end" (0xb) 0x62-0x63 (1)
    |                                               |                |            [2]{}: code 0x63-0x6a (7)
0x60|         06                                    |   .            |              size: 6 (valid) 0x63-0x64 (1)
    |                                               |                |              code{}: 0x64-0x6a (6)
    |                                               |                |                t{}: 0x64-0x65 (1)
0x60|            00                                 |    .           |                  n: 0 (valid) 0x64-0x65 (1)
    |                                               |                |                  x[0:0]: 0x65-0x65 (0)
    |                                               |                |                e[0:3]: 0x65-0x6a (5)
    |                                               |                |                  [0]{}: in 0x65-0x67 (2)
0x60|               20                              |                |                    opcode: "local.get" (0x20) 0x65-0x66 (1)
0x60|                  00                           |      .         |                    x: 0 (valid) 0x66-0x67 (1)
    |                                               |                |                  [1]{}: in 0x67-0x69 (2)
0x60|                     24                        |       $        |                    opcode: "global.set" (0x24) 0x67-0x68 (1)
0x60|                        01                     |        .       |                    x: 1 (valid) 0x68-0x69 (1)
    |                                               |                |                  [2]{}: in 0x69-0x6a (1)
0x60|                           0b|                 |         .|     |                    opcode: "end" (0xb) 0x69-0x6a (1)
