$ fq -d wasm dv linking-17.wasm
    |00 01 02 03 04 05 06 07 08 09 0a 0b 0c 0d 0e 0f|0123456789abcdef|.{}: linking-17.wasm (wasm) 0x0-0x46 (70)
0x00|00 61 73 6d                                    |.asm            |  magic: raw bits (valid) 0x0-0x4 (4)
0x00|            01 00 00 00                        |    ....        |  version: 1 0x4-0x8 (4)
    |                                               |                |  sections[0:6]: 0x8-0x46 (62)
    |                                               |                |    [0]{}: section 0x8-0x10 (8)
0x00|                        01                     |        .       |      id: "type_section" (1) 0x8-0x9 (1)
0x00|                           06                  |         .      |      size: 6 (valid) 0x9-0xa (1)
    |                                               |                |      content{}: 0xa-0x10 (6)
    |                                               |                |        ft{}: 0xa-0x10 (6)
0x00|                              01               |          .     |          n: 1 (valid) 0xa-0xb (1)
    |                                               |                |          x[0:1]: 0xb-0x10 (5)
    |                                               |                |            [0]{}: ft 0xb-0x10 (5)
0x00|                                 60            |           `    |              tag: 0x60 (valid) 0xb-0xc (1)
    |                                               |                |              rt1{}: 0xc-0xe (2)
0x00|                                    01         |            .   |                n: 1 (valid) 0xc-0xd (1)
    |                                               |                |                x[0:1]: 0xd-0xe (1)
0x00|                                       7f      |             .  |                  [0]: "i32" (0x7f) t 0xd-0xe (1)
    |                                               |                |              rt2{}: 0xe-0x10 (2)
0x00|                                          01   |              . |                n: 1 (valid) 0xe-0xf (1)
    |                                               |                |                x[0:1]: 0xf-0x10 (1)
0x00|                                             7f|               .|                  [0]: "i32" (0x7f) t 0xf-0x10 (1)
    |                                               |                |    [1]{}: section 0x10-0x1d (13)
0x10|02                                             |.               |      id: "import_section" (2) 0x10-0x11 (1)
0x10|   0b                                          | .              |      size: 11 (valid) 0x11-0x12 (1)
    |                                               |                |      content{}: 0x12-0x1d (11)
    |                                               |                |        im{}: 0x12-0x1d (11)
0x10|      01                                       |  .             |          n: 1 (valid) 0x12-0x13 (1)
    |                                               |                |          x[0:1]: 0x13-0x1d (10)
    |                                               |                |            [0]{}: im 0x13-0x1d (10)
    |                                               |                |              mod{}: 0x13-0x16 (3)
0x10|         02                                    |   .            |                n: 2 (valid) 0x13-0x14 (1)
0x10|            4d 6d                              |    Mm          |                b: "Mm" 0x14-0x16 (2)
    |                                               |                |              nm{}: 0x16-0x1a (4)
0x10|                  03                           |      .         |                n: 3 (valid) 0x16-0x17 (1)
0x10|                     6d 65 6d                  |       mem      |                b: "mem" 0x17-0x1a (3)
    |                                               |                |              d{}: 0x1a-0x1d (3)
0x10|                              02               |          .     |                tag: "mem" (0x2) 0x1a-0x1b (1)
    |                                               |                |                mt{}: 0x1b-0x1d (2)
    |                                               |                |                  lim{}: 0x1b-0x1d (2)
0x10|                                 00            |           .    |                    tag: 0x0 0x1b-0x1c (1)
0x10|                                    01         |            .   |                    n: 1 (valid) 0x1c-0x1d (1)
    |                                               |                |    [2]{}: section 0x1d-0x21 (4)
0x10|                                       03      |             .  |      id: "function_section" (3) 0x1d-0x1e (1)
0x10|                                          02   |              . |      size: 2 (valid) 0x1e-0x1f (1)
    |                                               |                |      content{}: 0x1f-0x21 (2)
    |                                               |                |        x{}: 0x1f-0x21 (2)
0x10|                                             01|               .|          n: 1 (valid) 0x1f-0x20 (1)
    |                                               |                |          x[0:1]: 0x20-0x21 (1)
0x20|00                                             |.               |            [0]: 0 x (valid) 0x20-0x21 (1)
    |                                               |                |    [3]{}: section 0x21-0x2b (10)
0x20|   07                                          | .              |      id: "export_section" (7) 0x21-0x22 (1)
0x20|      08                                       |  .             |      size: 8 (valid) 0x22-0x23 (1)
    |                                               |                |      content{}: 0x23-0x2b (8)
    |                                               |                |        ex{}: 0x23-0x2b (8)
0x20|         01                                    |   .            |          n: 1 (valid) 0x23-0x24 (1)
    |                                               |                |          x[0:1]: 0x24-0x2b (7)
    |                                               |                |            [0]{}: ex 0x24-0x2b (7)
    |                                               |                |              nm{}: 0x24-0x29 (5)
0x20|            04                                 |    .           |                n: 4 (valid) 0x24-0x25 (1)
0x20|               6c 6f 61 64                     |     load       |                b: "load" 0x25-0x29 (4)
    |                                               |                |              d{}: 0x29-0x2b (2)
0x20|                           00                  |         .      |                tag: "funcidx" (0x0) 0x29-0x2a (1)
0x20|                              00               |          .     |                x: 0 (valid) 0x2a-0x2b (1)
    |                                               |                |    [4]{}: section 0x2b-0x36 (11)
0x20|                                 0a            |           .    |      id: "code_section" (10) 0x2b-0x2c (1)
0x20|                                    09         |            .   |      size: 9 (valid) 0x2c-0x2d (1)
    |                                               |                |      content{}: 0x2d-0x36 (9)
    |                                               |                |        code{}: 0x2d-0x36 (9)
0x20|                                       01      |             .  |          n: 1 (valid) 0x2d-0x2e (1)
    |                                               |                |          x[0:1]: 0x2e-0x36 (8)
    |                                               |                |            [0]{}: code 0x2e-0x36 (8)
0x20|                                          07   |              . |              size: 7 (valid) 0x2e-0x2f (1)
    |                                               |                |              code{}: 0x2f-0x36 (7)
    |                                               |                |                t{}: 0x2f-0x30 (1)
0x20|                                             00|               .|                  n: 0 (valid) 0x2f-0x30 (1)
    |                                               |                |                  x[0:0]: 0x30-0x30 (0)
    |                                               |                |                e[0:3]: 0x30-0x36 (6)
    |                                               |                |                  [0]{}: in 0x30-0x32 (2)
0x30|20                                             |                |                    opcode: "local.get" (0x20) 0x30-0x31 (1)
0x30|   00                                          | .              |                    x: 0 (valid) 0x31-0x32 (1)
    |                                               |                |                  [1]{}: in 0x32-0x35 (3)
0x30|      2d                                       |  -             |                    opcode: "i32.load8_u" (0x2d) 0x32-0x33 (1)
    |                                               |                |                    m{}: 0x33-0x35 (2)
0x30|         00                                    |   .            |                      a: 0 (valid) 0x33-0x34 (1)
0x30|            00                                 |    .           |                      o: 0 (valid) 0x34-0x35 (1)
    |                                               |                |                  [2]{}: in 0x35-0x36 (1)
0x30|               0b                              |     .          |                    opcode: "end" (0xb) 0x35-0x36 (1)
    |                                               |                |    [5]{}: section 0x36-0x46 (16)
0x30|                  0b                           |      .         |      id: "data_section" (11) 0x36-0x37 (1)
0x30|                     0e                        |       .        |      size: 14 (valid) 0x37-0x38 (1)
    |                                               |                |      content{}: 0x38-0x46 (14)
    |                                               |                |        seg{}: 0x38-0x46 (14)
0x30|                        01                     |        .       |          n: 1 (valid) 0x38-0x39 (1)
    |                                               |                |          x[0:1]: 0x39-0x46 (13)
    |                                               |                |            [0]{}: seg 0x39-0x46 (13)
0x30|                           00                  |         .      |              tag: 0 (valid) 0x39-0x3a (1)
    |                                               |                |              e[0:2]: 0x3a-0x3d (3)
    |                                               |                |                [0]{}: in 0x3a-0x3c (2)
0x30|                              41               |          A     |                  opcode: "i32.const" (0x41) 0x3a-0x3b (1)
0x30|                                 05            |           .    |                  n: 5 (valid) 0x3b-0x3c (1)
    |                                               |                |                [1]{}: in 0x3c-0x3d (1)
0x30|                                    0b         |            .   |                  opcode: "end" (0xb) 0x3c-0x3d (1)
    |                                               |                |              b{}: 0x3d-0x46 (9)
0x30|                                       08      |             .  |                n: 8 (valid) 0x3d-0x3e (1)
0x30|                                          a0 a1|              ..|                x: raw bits 0x3e-0x46 (8)
0x40|a2 a3 a4 a5 a6 a7|                             |......|         |
