$ fq -d wasm dv linking-7.wasm
    |00 01 02 03 04 05 06 07 08 09 0a 0b 0c 0d 0e 0f|0123456789abcdef|.{}: linking-7.wasm (wasm) 0x0-0x58 (88)
0x00|00 61 73 6d                                    |.asm            |  magic: raw bits (valid) 0x0-0x4 (4)
0x00|            01 00 00 00                        |    ....        |  version: 1 0x4-0x8 (4)
    |                                               |                |  sections[0:6]: 0x8-0x58 (80)
    |                                               |                |    [0]{}: section 0x8-0x17 (15)
0x00|                        01                     |        .       |      id: "type_section" (1) 0x8-0x9 (1)
0x00|                           0d                  |         .      |      size: 13 (valid) 0x9-0xa (1)
    |                                               |                |      content{}: 0xa-0x17 (13)
    |                                               |                |        ft{}: 0xa-0x17 (13)
0x00|                              03               |          .     |          n: 3 (valid) 0xa-0xb (1)
    |                                               |                |          x[0:3]: 0xb-0x17 (12)
    |                                               |                |            [0]{}: ft 0xb-0xf (4)
0x00|                                 60            |           `    |              tag: 0x60 (valid) 0xb-0xc (1)
    |                                               |                |              rt1{}: 0xc-0xd (1)
0x00|                                    00         |            .   |                n: 0 (valid) 0xc-0xd (1)
    |                                               |                |                x[0:0]: 0xd-0xd (0)
    |                                               |                |              rt2{}: 0xd-0xf (2)
0x00|                                       01      |             .  |                n: 1 (valid) 0xd-0xe (1)
    |                                               |                |                x[0:1]: 0xe-0xf (1)
0x00|                                          7f   |              . |                  [0]: "i32" (0x7f) t 0xe-0xf (1)
    |                                               |                |            [1]{}: ft 0xf-0x12 (3)
0x00|                                             60|               `|              tag: 0x60 (valid) 0xf-0x10 (1)
    |                                               |                |              rt1{}: 0x10-0x11 (1)
0x10|00                                             |.               |                n: 0 (valid) 0x10-0x11 (1)
    |                                               |                |                x[0:0]: 0x11-0x11 (0)
    |                                               |                |              rt2{}: 0x11-0x12 (1)
0x10|   00                                          | .              |                n: 0 (valid) 0x11-0x12 (1)
    |                                               |                |                x[0:0]: 0x12-0x12 (0)
    |                                               |                |            [2]{}: ft 0x12-0x17 (5)
0x10|      60                                       |  `             |              tag: 0x60 (valid) 0x12-0x13 (1)
    |                                               |                |              rt1{}: 0x13-0x15 (2)
0x10|         01                                    |   .            |                n: 1 (valid) 0x13-0x14 (1)
    |                                               |                |                x[0:1]: 0x14-0x15 (1)
0x10|            7f                                 |    .           |                  [0]: "i32" (0x7f) t 0x14-0x15 (1)
    |                                               |                |              rt2{}: 0x15-0x17 (2)
0x10|               01                              |     .          |                n: 1 (valid) 0x15-0x16 (1)
    |                                               |                |                x[0:1]: 0x16-0x17 (1)
0x10|                  7f                           |      .         |                  [0]: "i32" (0x7f) t 0x16-0x17 (1)
    |                                               |                |    [1]{}: section 0x17-0x1d (6)
0x10|                     03                        |       .        |      id: "function_section" (3) 0x17-0x18 (1)
0x10|                        04                     |        .       |      size: 4 (valid) 0x18-0x19 (1)
    |                                               |                |      content{}: 0x19-0x1d (4)
    |                                               |                |        x{}: 0x19-0x1d (4)
0x10|                           03                  |         .      |          n: 3 (valid) 0x19-0x1a (1)
    |                                               |                |          x[0:3]: 0x1a-0x1d (3)
0x10|                              00               |          .     |            [0]: 0 x (valid) 0x1a-0x1b (1)
0x10|                                 00            |           .    |            [1]: 0 x (valid) 0x1b-0x1c (1)
0x10|                                    02         |            .   |            [2]: 2 x (valid) 0x1c-0x1d (1)
    |                                               |                |    [2]{}: section 0x1d-0x23 (6)
0x10|                                       04      |             .  |      id: "table_section" (4) 0x1d-0x1e (1)
0x10|                                          04   |              . |      size: 4 (valid) 0x1e-0x1f (1)
    |                                               |                |      content{}: 0x1f-0x23 (4)
    |                                               |                |        tab{}: 0x1f-0x23 (4)
0x10|                                             01|               .|          n: 1 (valid) 0x1f-0x20 (1)
    |                                               |                |          x[0:1]: 0x20-0x23 (3)
    |                                               |                |            [0]{}: tab 0x20-0x23 (3)
0x20|70                                             |p               |              et: "funcref" (112) 0x20-0x21 (1)
    |                                               |                |              lim{}: 0x21-0x23 (2)
0x20|   00                                          | .              |                tag: 0x0 0x21-0x22 (1)
0x20|      0a                                       |  .             |                n: 10 (valid) 0x22-0x23 (1)
    |                                               |                |    [3]{}: section 0x23-0x37 (20)
0x20|         07                                    |   .            |      id: "export_section" (7) 0x23-0x24 (1)
0x20|            12                                 |    .           |      size: 18 (valid) 0x24-0x25 (1)
    |                                               |                |      content{}: 0x25-0x37 (18)
    |                                               |                |        ex{}: 0x25-0x37 (18)
0x20|               03                              |     .          |          n: 3 (valid) 0x25-0x26 (1)
    |                                               |                |          x[0:3]: 0x26-0x37 (17)
    |                                               |                |            [0]{}: ex 0x26-0x2c (6)
    |                                               |                |              nm{}: 0x26-0x2a (4)
0x20|                  03                           |      .         |                n: 3 (valid) 0x26-0x27 (1)
0x20|                     74 61 62                  |       tab      |                b: "tab" 0x27-0x2a (3)
    |                                               |                |              d{}: 0x2a-0x2c (2)
0x20|                              01               |          .     |                tag: "tableidx" (0x1) 0x2a-0x2b (1)
0x20|                                 00            |           .    |                x: 0 (valid) 0x2b-0x2c (1)
    |                                               |                |            [1]{}: ex 0x2c-0x30 (4)
    |                                               |                |              nm{}: 0x2c-0x2e (2)
0x20|                                    01         |            .   |                n: 1 (valid) 0x2c-0x2d (1)
0x20|                                       68      |             h  |                b: "h" 0x2d-0x2e (1)
    |                                               |                |              d{}: 0x2e-0x30 (2)
0x20|                                          00   |              . |                tag: "funcidx" (0x0) 0x2e-0x2f (1)
0x20|                                             01|               .|                x: 1 (valid) 0x2f-0x30 (1)
    |                                               |                |            [2]{}: ex 0x30-0x37 (7)
    |                                               |                |              nm{}: 0x30-0x35 (5)
0x30|04                                             |.               |                n: 4 (valid) 0x30-0x31 (1)
0x30|   63 61 6c 6c                                 | call           |                b: "call" 0x31-0x35 (4)
    |                                               |                |              d{}: 0x35-0x37 (2)
0x30|               00                              |     .          |                tag: "funcidx" (0x0) 0x35-0x36 (1)
0x30|                  02                           |      .         |                x: 2 (valid) 0x36-0x37 (1)
    |                                               |                |    [4]{}: section 0x37-0x43 (12)
0x30|                     09                        |       .        |      id: "element_section" (9) 0x37-0x38 (1)
0x30|                        0a                     |        .       |      size: 10 (valid) 0x38-0x39 (1)
    |                                               |                |      element{}: 0x39-0x43 (10)
    |                                               |                |        seg{}: 0x39-0x43 (10)
0x30|                           01                  |         .      |          n: 1 (valid) 0x39-0x3a (1)
    |                                               |                |          x[0:1]: 0x3a-0x43 (9)
    |                                               |                |            [0]{}: seg 0x3a-0x43 (9)
0x30|                              00               |          .     |              tag: 0 (valid) 0x3a-0x3b (1)
    |                                               |                |              e[0:2]: 0x3b-0x3e (3)
    |                                               |                |                [0]{}: in 0x3b-0x3d (2)
0x30|                                 41            |           A    |                  opcode: "i32.const" (0x41) 0x3b-0x3c (1)
0x30|                                    02         |            .   |                  n: 2 (valid) 0x3c-0x3d (1)
    |                                               |                |                [1]{}: in 0x3d-0x3e (1)
0x30|                                       0b      |             .  |                  opcode: "end" (0xb) 0x3d-0x3e (1)
    |                                               |                |              y{}: 0x3e-0x43 (5)
0x30|                                          04   |              . |                n: 4 (valid) 0x3e-0x3f (1)
    |                                               |                |                x[0:4]: 0x3f-0x43 (4)
0x30|                                             00|               .|                  [0]: 0 y (valid) 0x3f-0x40 (1)
0x40|00                                             |.               |                  [1]: 0 y (valid) 0x40-0x41 (1)
0x40|   00                                          | .              |                  [2]: 0 y (valid) 0x41-0x42 (1)
0x40|      00                                       |  .             |                  [3]: 0 y (valid) 0x42-0x43 (1)
    |                                               |                |    [5]{}: section 0x43-0x58 (21)
0x40|         0a                                    |   .            |      id: "code_section" (10) 0x43-0x44 (1)
0x40|            13                                 |    .           |      size: 19 (valid) 0x44-0x45 (1)
    |                                               |                |      content{}: 0x45-0x58 (19)
    |                                               |                |        code{}: 0x45-0x58 (19)
0x40|               03                              |     .          |          n: 3 (valid) 0x45-0x46 (1)
    |                                               |                |          x[0:3]: 0x46-0x58 (18)
    |                                               |                |            [0]{}: code 0x46-0x4b (5)
0x40|                  04                           |      .         |              size: 4 (valid) 0x46-0x47 (1)
    |                                               |                |              code{}: 0x47-0x4b (4)
    |                                               |                |                t{}: 0x47-0x48 (1)
0x40|                     00                        |       .        |                  n: 0 (valid) 0x47-0x48 (1)
    |                                               |                |                  x[0:0]: 0x48-0x48 (0)
    |                                               |                |                e[0:2]: 0x48-0x4b (3)
    |                                               |                |                  [0]{}: in 0x48-0x4a (2)
0x40|                        41                     |        A       |                    opcode: "i32.const" (0x41) 0x48-0x49 (1)
0x40|                           04                  |         .      |                    n: 4 (valid) 0x49-0x4a (1)
    |                                               |                |                  [1]{}: in 0x4a-0x4b (1)
0x40|                              0b               |          .     |                    opcode: "end" (0xb) 0x4a-0x4b (1)
    |                                               |                |            [1]{}: code 0x4b-0x50 (5)
0x40|                                 04            |           .    |              size: 4 (valid) 0x4b-0x4c (1)
    |                                               |                |              code{}: 0x4c-0x50 (4)
    |                                               |                |                t{}: 0x4c-0x4d (1)
0x40|                                    00         |            .   |                  n: 0 (valid) 0x4c-0x4d (1)
    |                                               |                |                  x[0:0]: 0x4d-0x4d (0)
    |                                               |                |                e[0:2]: 0x4d-0x50 (3)
    |                                               |                |                  [0]{}: in 0x4d-0x4f (2)
0x40|                                       41      |             A  |                    opcode: "i32.const" (0x41) 0x4d-0x4e (1)
0x40|                                          7c   |              | |                    n: -4 (valid) 0x4e-0x4f (1)
    |                                               |                |                  [1]{}: in 0x4f-0x50 (1)
0x40|                                             0b|               .|                    opcode: "end" (0xb) 0x4f-0x50 (1)
    |                                               |                |            [2]{}: code 0x50-0x58 (8)
0x50|07                                             |.               |              size: 7 (valid) 0x50-0x51 (1)
    |                                               |                |              code{}: 0x51-0x58 (7)
    |                                               |                |                t{}: 0x51-0x52 (1)
0x50|   00                                          | .              |                  n: 0 (valid) 0x51-0x52 (1)
    |                                               |                |                  x[0:0]: 0x52-0x52 (0)
    |                                               |                |                e[0:3]: 0x52-0x58 (6)
    |                                               |                |                  [0]{}: in 0x52-0x54 (2)
0x50|      20                                       |                |                    opcode: "local.get" (0x20) 0x52-0x53 (1)
0x50|         00                                    |   .            |                    x: 0 (valid) 0x53-0x54 (1)
    |                                               |                |                  [1]{}: in 0x54-0x57 (3)
0x50|            11                                 |    .           |                    opcode: "call_indirect" (0x11) 0x54-0x55 (1)
0x50|               00                              |     .          |                    y: 0 (valid) 0x55-0x56 (1)
0x50|                  00                           |      .         |                    x: 0 (valid) 0x56-0x57 (1)
    |                                               |                |                  [2]{}: in 0x57-0x58 (1)
0x50|                     0b|                       |       .|       |                    opcode: "end" (0xb) 0x57-0x58 (1)
