$ fq -d wasm dv linking-19.wasm
    |00 01 02 03 04 05 06 07 08 09 0a 0b 0c 0d 0e 0f|0123456789abcdef|.{}: linking-19.wasm (wasm) 0x0-0x36 (54)
0x00|00 61 73 6d                                    |.asm            |  magic: raw bits (valid) 0x0-0x4 (4)
0x00|            01 00 00 00                        |    ....        |  version: 1 0x4-0x8 (4)
    |                                               |                |  sections[0:5]: 0x8-0x36 (46)
    |                                               |                |    [0]{}: section 0x8-0x10 (8)
0x00|                        01                     |        .       |      id: "type_section" (1) 0x8-0x9 (1)
0x00|                           06                  |         .      |      size: 6 (valid) 0x9-0xa (1)
    |                                               |                |      content{}: 0xa-0x10 (6)
    |                                               |                |        ft{}: 0xa-0x10 (6)
0x00|                              01               |          .     |          n: 1 (valid) 0xa-0xb (1)
    |                                               |                |          x[0:1]: 0xb-0x10 (5)
    |                                               |                |            [0]{}: ft 0xb-0x10 (5)
0x00|                                 60            |           `    |              tag: 0x60 (valid) 0xb-0xc (1)
    |                                               |                |              rt1{}: 0xc-0xe (2)
0x00|                                    01         |            .   |                n: 1 (valid) 0xc-0xd (1)
    |                                               |                |                x[0:1]: 0xd-0xe (1)
0x00|                                       7f      |             .  |                  [0]: "i32" (0x7f) t 0xd-0xe (1)
    |                                               |                |              rt2{}: 0xe-0x10 (2)
0x00|                                          01   |              . |                n: 1 (valid) 0xe-0xf (1)
    |                                               |                |                x[0:1]: 0xf-0x10 (1)
0x00|                                             7f|               .|                  [0]: "i32" (0x7f) t 0xf-0x10 (1)
    |                                               |                |    [1]{}: section 0x10-0x1e (14)
0x10|02                                             |.               |      id: "import_section" (2) 0x10-0x11 (1)
0x10|   0c                                          | .              |      size: 12 (valid) 0x11-0x12 (1)
    |                                               |                |      content{}: 0x12-0x1e (12)
    |                                               |                |        im{}: 0x12-0x1e (12)
0x10|      01                                       |  .             |          n: 1 (valid) 0x12-0x13 (1)
    |                                               |                |          x[0:1]: 0x13-0x1e (11)
    |                                               |                |            [0]{}: im 0x13-0x1e (11)
    |                                               |                |              mod{}: 0x13-0x16 (3)
0x10|         02                                    |   .            |                n: 2 (valid) 0x13-0x14 (1)
0x10|            4d 6d                              |    Mm          |                b: "Mm" 0x14-0x16 (2)
    |                                               |                |              nm{}: 0x16-0x1a (4)
0x10|                  03                           |      .         |                n: 3 (valid) 0x16-0x17 (1)
0x10|                     6d 65 6d                  |       mem      |                b: "mem" 0x17-0x1a (3)
    |                                               |                |              d{}: 0x1a-0x1e (4)
0x10|                              02               |          .     |                tag: "mem" (0x2) 0x1a-0x1b (1)
    |                                               |                |                mt{}: 0x1b-0x1e (3)
    |                                               |                |                  lim{}: 0x1b-0x1e (3)
0x10|                                 01            |           .    |                    tag: 0x1 0x1b-0x1c (1)
0x10|                                    01         |            .   |                    n: 1 (valid) 0x1c-0x1d (1)
0x10|                                       08      |             .  |                    m: 8 (valid) 0x1d-0x1e (1)
    |                                               |                |    [2]{}: section 0x1e-0x22 (4)
0x10|                                          03   |              . |      id: "function_section" (3) 0x1e-0x1f (1)
0x10|                                             02|               .|      size: 2 (valid) 0x1f-0x20 (1)
    |                                               |                |      content{}: 0x20-0x22 (2)
    |                                               |                |        x{}: 0x20-0x22 (2)
0x20|01                                             |.               |          n: 1 (valid) 0x20-0x21 (1)
    |                                               |                |          x[0:1]: 0x21-0x22 (1)
0x20|   00                                          | .              |            [0]: 0 x (valid) 0x21-0x22 (1)
    |                                               |                |    [3]{}: section 0x22-0x2c (10)
0x20|      07                                       |  .             |      id: "export_section" (7) 0x22-0x23 (1)
0x20|         08                                    |   .            |      size: 8 (valid) 0x23-0x24 (1)
    |                                               |                |      content{}: 0x24-0x2c (8)
    |                                               |                |        ex{}: 0x24-0x2c (8)
0x20|            01                                 |    .           |          n: 1 (valid) 0x24-0x25 (1)
    |                                               |                |          x[0:1]: 0x25-0x2c (7)
    |                                               |                |            [0]{}: ex 0x25-0x2c (7)
    |                                               |                |              nm{}: 0x25-0x2a (5)
0x20|               04                              |     .          |                n: 4 (valid) 0x25-0x26 (1)
0x20|                  67 72 6f 77                  |      grow      |                b: "grow" 0x26-0x2a (4)
    |                                               |                |              d{}: 0x2a-0x2c (2)
0x20|                              00               |          .     |                tag: "funcidx" (0x0) 0x2a-0x2b (1)
0x20|                                 00            |           .    |                x: 0 (valid) 0x2b-0x2c (1)
    |                                               |                |    [4]{}: section 0x2c-0x36 (10)
0x20|                                    0a         |            .   |      id: "code_section" (10) 0x2c-0x2d (1)
0x20|                                       08      |             .  |      size: 8 (valid) 0x2d-0x2e (1)
    |                                               |                |      content{}: 0x2e-0x36 (8)
    |                                               |                |        code{}: 0x2e-0x36 (8)
0x20|                                          01   |              . |          n: 1 (valid) 0x2e-0x2f (1)
    |                                               |                |          x[0:1]: 0x2f-0x36 (7)
    |                                               |                |            [0]{}: code 0x2f-0x36 (7)
0x20|                                             06|               .|              size: 6 (valid) 0x2f-0x30 (1)
    |                                               |                |              code{}: 0x30-0x36 (6)
    |                                               |                |                t{}: 0x30-0x31 (1)
0x30|00                                             |.               |                  n: 0 (valid) 0x30-0x31 (1)
    |                                               |                |                  x[0:0]: 0x31-0x31 (0)
    |                                               |                |                e[0:3]: 0x31-0x36 (5)
    |                                               |                |                  [0]{}: in 0x31-0x33 (2)
0x30|   20                                          |                |                    opcode: "local.get" (0x20) 0x31-0x32 (1)
0x30|      00                                       |  .             |                    x: 0 (valid) 0x32-0x33 (1)
    |                                               |                |                  [1]{}: in 0x33-0x35 (2)
0x30|         40                                    |   @            |                    opcode: "memory.grow" (0x40) 0x33-0x34 (1)
0x30|            00                                 |    .           |                    reserved: 0x0 (valid) 0x34-0x35 (1)
    |                                               |                |                  [2]{}: in 0x35-0x36 (1)
0x30|               0b|                             |     .|         |                    opcode: "end" (0xb) 0x35-0x36 (1)
