$ fq -d wasm dv linking-14.wasm
    |00 01 02 03 04 05 06 07 08 09 0a 0b 0c 0d 0e 0f|0123456789abcdef|.{}: linking-14.wasm (wasm) 0x0-0x37 (55)
0x00|00 61 73 6d                                    |.asm            |  magic: raw bits (valid) 0x0-0x4 (4)
0x00|            01 00 00 00                        |    ....        |  version: 1 0x4-0x8 (4)
    |                                               |                |  sections[0:1]: 0x8-0x37 (47)
    |                                               |                |    [0]{}: section 0x8-0x37 (47)
0x00|                        02                     |        .       |      id: "import_section" (2) 0x8-0x9 (1)
0x00|                           2d                  |         -      |      size: 45 (valid) 0x9-0xa (1)
    |                                               |                |      content{}: 0xa-0x37 (45)
    |                                               |                |        im{}: 0xa-0x37 (45)
0x00|                              02               |          .     |          n: 2 (valid) 0xa-0xb (1)
    |                                               |                |          x[0:2]: 0xb-0x37 (44)
    |                                               |                |            [0]{}: im 0xb-0x20 (21)
    |                                               |                |              mod{}: 0xb-0x15 (10)
0x00|                                 09            |           .    |                n: 9 (valid) 0xb-0xc (1)
0x00|                                    4d 74 61 62|            Mtab|                b: "Mtable_ex" 0xc-0x15 (9)
0x10|6c 65 5f 65 78                                 |le_ex           |
    |                                               |                |              nm{}: 0x15-0x1c (7)
0x10|               06                              |     .          |                n: 6 (valid) 0x15-0x16 (1)
0x10|                  74 2d 66 75 6e 63            |      t-func    |                b: "t-func" 0x16-0x1c (6)
    |                                               |                |              d{}: 0x1c-0x20 (4)
0x10|                                    01         |            .   |                tag: "table" (0x1) 0x1c-0x1d (1)
    |                                               |                |                tt{}: 0x1d-0x20 (3)
0x10|                                       70      |             p  |                  et: "funcref" (112) 0x1d-0x1e (1)
    |                                               |                |                  lim{}: 0x1e-0x20 (2)
0x10|                                          00   |              . |                    tag: 0x0 0x1e-0x1f (1)
0x10|                                             01|               .|                    n: 1 (valid) 0x1f-0x20 (1)
    |                                               |                |            [1]{}: im 0x20-0x37 (23)
    |                                               |                |              mod{}: 0x20-0x2a (10)
0x20|09                                             |.               |                n: 9 (valid) 0x20-0x21 (1)
0x20|   4d 74 61 62 6c 65 5f 65 78                  | Mtable_ex      |                b: "Mtable_ex" 0x21-0x2a (9)
    |                                               |                |              nm{}: 0x2a-0x33 (9)
0x20|                              08               |          .     |                n: 8 (valid) 0x2a-0x2b (1)
0x20|                                 74 2d 65 78 74|           t-ext|                b: "t-extern" 0x2b-0x33 (8)
0x30|65 72 6e                                       |ern             |
    |                                               |                |              d{}: 0x33-0x37 (4)
0x30|         01                                    |   .            |                tag: "table" (0x1) 0x33-0x34 (1)
    |                                               |                |                tt{}: 0x34-0x37 (3)
0x30|            6f                                 |    o           |                  et: "externref" (111) 0x34-0x35 (1)
    |                                               |                |                  lim{}: 0x35-0x37 (2)
0x30|               00                              |     .          |                    tag: 0x0 0x35-0x36 (1)
0x30|                  01|                          |      .|        |                    n: 1 (valid) 0x36-0x37 (1)
