$ fq -d wasm dv linking-13.wasm
    |00 01 02 03 04 05 06 07 08 09 0a 0b 0c 0d 0e 0f|0123456789abcdef|.{}: linking-13.wasm (wasm) 0x0-0x28 (40)
0x00|00 61 73 6d                                    |.asm            |  magic: raw bits (valid) 0x0-0x4 (4)
0x00|            01 00 00 00                        |    ....        |  version: 1 0x4-0x8 (4)
    |                                               |                |  sections[0:2]: 0x8-0x28 (32)
    |                                               |                |    [0]{}: section 0x8-0x11 (9)
0x00|                        04                     |        .       |      id: "table_section" (4) 0x8-0x9 (1)
0x00|                           07                  |         .      |      size: 7 (valid) 0x9-0xa (1)
    |                                               |                |      content{}: 0xa-0x11 (7)
    |                                               |                |        tab{}: 0xa-0x11 (7)
0x00|                              02               |          .     |          n: 2 (valid) 0xa-0xb (1)
    |                                               |                |          x[0:2]: 0xb-0x11 (6)
    |                                               |                |            [0]{}: tab 0xb-0xe (3)
0x00|                                 70            |           p    |              et: "funcref" (112) 0xb-0xc (1)
    |                                               |                |              lim{}: 0xc-0xe (2)
0x00|                                    00         |            .   |                tag: 0x0 0xc-0xd (1)
0x00|                                       01      |             .  |                n: 1 (valid) 0xd-0xe (1)
    |                                               |                |            [1]{}: tab 0xe-0x11 (3)
0x00|                                          6f   |              o |              et: "externref" (111) 0xe-0xf (1)
    |                                               |                |              lim{}: 0xf-0x11 (2)
0x00|                                             00|               .|                tag: 0x0 0xf-0x10 (1)
0x10|01                                             |.               |                n: 1 (valid) 0x10-0x11 (1)
    |                                               |                |    [1]{}: section 0x11-0x28 (23)
0x10|   07                                          | .              |      id: "export_section" (7) 0x11-0x12 (1)
0x10|      15                                       |  .             |      size: 21 (valid) 0x12-0x13 (1)
    |                                               |                |      content{}: 0x13-0x28 (21)
    |                                               |                |        ex{}: 0x13-0x28 (21)
0x10|         02                                    |   .            |          n: 2 (valid) 0x13-0x14 (1)
    |                                               |                |          x[0:2]: 0x14-0x28 (20)
    |                                               |                |            [0]{}: ex 0x14-0x1d (9)
    |                                               |                |              nm{}: 0x14-0x1b (7)
0x10|            06                                 |    .           |                n: 6 (valid) 0x14-0x15 (1)
0x10|               74 2d 66 75 6e 63               |     t-func     |                b: "t-func" 0x15-0x1b (6)
    |                                               |                |              d{}: 0x1b-0x1d (2)
0x10|                                 01            |           .    |                tag: "tableidx" (0x1) 0x1b-0x1c (1)
0x10|                                    00         |            .   |                x: 0 (valid) 0x1c-0x1d (1)
    |                                               |                |            [1]{}: ex 0x1d-0x28 (11)
    |                                               |                |              nm{}: 0x1d-0x26 (9)
0x10|                                       08      |             .  |                n: 8 (valid) 0x1d-0x1e (1)
0x10|                                          74 2d|              t-|                b: "t-extern" 0x1e-0x26 (8)
0x20|65 78 74 65 72 6e                              |extern          |
    |                                               |                |              d{}: 0x26-0x28 (2)
0x20|                  01                           |      .         |                tag: "tableidx" (0x1) 0x26-0x27 (1)
0x20|                     01|                       |       .|       |                x: 1 (valid) 0x27-0x28 (1)
