$ fq -d wasm dv linking-12.wasm
    |00 01 02 03 04 05 06 07 08 09 0a 0b 0c 0d 0e 0f|0123456789abcdef|.{}: linking-12.wasm (wasm) 0x0-0x22 (34)
0x00|00 61 73 6d                                    |.asm            |  magic: raw bits (valid) 0x0-0x4 (4)
0x00|            01 00 00 00                        |    ....        |  version: 1 0x4-0x8 (4)
    |                                               |                |  sections[0:3]: 0x8-0x22 (26)
    |                                               |                |    [0]{}: section 0x8-0x13 (11)
0x00|                        02                     |        .       |      id: "import_section" (2) 0x8-0x9 (1)
0x00|                           09                  |         .      |      size: 9 (valid) 0x9-0xa (1)
    |                                               |                |      content{}: 0xa-0x13 (9)
    |                                               |                |        im{}: 0xa-0x13 (9)
0x00|                              01               |          .     |          n: 1 (valid) 0xa-0xb (1)
    |                                               |                |          x[0:1]: 0xb-0x13 (8)
    |                                               |                |            [0]{}: im 0xb-0x13 (8)
    |                                               |                |              mod{}: 0xb-0xe (3)
0x00|                                 02            |           .    |                n: 2 (valid) 0xb-0xc (1)
0x00|                                    47 31      |            G1  |                b: "G1" 0xc-0xe (2)
    |                                               |                |              nm{}: 0xe-0x10 (2)
0x00|                                          01   |              . |                n: 1 (valid) 0xe-0xf (1)
0x00|                                             67|               g|                b: "g" 0xf-0x10 (1)
    |                                               |                |              d{}: 0x10-0x13 (3)
0x10|03                                             |.               |                tag: "global" (0x3) 0x10-0x11 (1)
    |                                               |                |                gt{}: 0x11-0x13 (2)
0x10|   7f                                          | .              |                  t: "i32" (0x7f) 0x11-0x12 (1)
0x10|      00                                       |  .             |                  m: "const" (0) 0x12-0x13 (1)
    |                                               |                |    [1]{}: section 0x13-0x1b (8)
0x10|         06                                    |   .            |      id: "global_section" (6) 0x13-0x14 (1)
0x10|            06                                 |    .           |      size: 6 (valid) 0x14-0x15 (1)
    |                                               |                |      content{}: 0x15-0x1b (6)
    |                                               |                |        glob{}: 0x15-0x1b (6)
0x10|               01                              |     .          |          n: 1 (valid) 0x15-0x16 (1)
    |                                               |                |          x[0:1]: 0x16-0x1b (5)
    |                                               |                |            [0]{}: glob 0x16-0x1b (5)
    |                                               |                |              gt{}: 0x16-0x18 (2)
0x10|                  7f                           |      .         |                t: "i32" (0x7f) 0x16-0x17 (1)
0x10|                     00                        |       .        |                m: "const" (0) 0x17-0x18 (1)
    |                                               |                |              e[0:2]: 0x18-0x1b (3)
    |                                               |                |                [0]{}: in 0x18-0x1a (2)
0x10|                        23                     |        #       |                  opcode: "global.get" (0x23) 0x18-0x19 (1)
0x10|                           00                  |         .      |                  x: 0 (valid) 0x19-0x1a (1)
    |                                               |                |                [1]{}: in 0x1a-0x1b (1)
0x10|                              0b               |          .     |                  opcode: "end" (0xb) 0x1a-0x1b (1)
    |                                               |                |    [2]{}: section 0x1b-0x22 (7)
0x10|                                 07            |           .    |      id: "export_section" (7) 0x1b-0x1c (1)
0x10|                                    05         |            .   |      size: 5 (valid) 0x1c-0x1d (1)
    |                                               |                |      content{}: 0x1d-0x22 (5)
    |                                               |                |        ex{}: 0x1d-0x22 (5)
0x10|                                       01      |             .  |          n: 1 (valid) 0x1d-0x1e (1)
    |                                               |                |          x[0:1]: 0x1e-0x22 (4)
    |                                               |                |            [0]{}: ex 0x1e-0x22 (4)
    |                                               |                |              nm{}: 0x1e-0x20 (2)
0x10|                                          01   |              . |                n: 1 (valid) 0x1e-0x1f (1)
0x10|                                             67|               g|                b: "g" 0x1f-0x20 (1)
    |                                               |                |              d{}: 0x20-0x22 (2)
0x20|03                                             |.               |                tag: "globalidx" (0x3) 0x20-0x21 (1)
0x20|   01|                                         | .|             |                x: 1 (valid) 0x21-0x22 (1)
