$ fq -d wasm dv linking-16.wasm
    |00 01 02 03 04 05 06 07 08 09 0a 0b 0c 0d 0e 0f|0123456789abcdef|.{}: linking-16.wasm (wasm) 0x0-0x53 (83)
0x00|00 61 73 6d                                    |.asm            |  magic: raw bits (valid) 0x0-0x4 (4)
0x00|            01 00 00 00                        |    ....        |  version: 1 0x4-0x8 (4)
    |                                               |                |  sections[0:7]: 0x8-0x53 (75)
    |                                               |                |    [0]{}: section 0x8-0x10 (8)
0x00|                        01                     |        .       |      id: "type_section" (1) 0x8-0x9 (1)
0x00|                           06                  |         .      |      size: 6 (valid) 0x9-0xa (1)
    |                                               |                |      content{}: 0xa-0x10 (6)
    |                                               |                |        ft{}: 0xa-0x10 (6)
0x00|                              01               |          .     |          n: 1 (valid) 0xa-0xb (1)
    |                                               |                |          x[0:1]: 0xb-0x10 (5)
    |                                               |                |            [0]{}: ft 0xb-0x10 (5)
0x00|                                 60            |           `    |              tag: 0x60 (valid) 0xb-0xc (1)
    |                                               |                |              rt1{}: 0xc-0xe (2)
0x00|                                    01         |            .   |                n: 1 (valid) 0xc-0xd (1)
    |                                               |                |                x[0:1]: 0xd-0xe (1)
0x00|                                       7f      |             .  |                  [0]: "i32" (0x7f) t 0xd-0xe (1)
    |                                               |                |              rt2{}: 0xe-0x10 (2)
0x00|                                          01   |              . |                n: 1 (valid) 0xe-0xf (1)
    |                                               |                |                x[0:1]: 0xf-0x10 (1)
0x00|                                             7f|               .|                  [0]: "i32" (0x7f) t 0xf-0x10 (1)
    |                                               |                |    [1]{}: section 0x10-0x1d (13)
0x10|02                                             |.               |      id: "import_section" (2) 0x10-0x11 (1)
0x10|   0b                                          | .              |      size: 11 (valid) 0x11-0x12 (1)
    |                                               |                |      content{}: 0x12-0x1d (11)
    |                                               |                |        im{}: 0x12-0x1d (11)
0x10|      01                                       |  .             |          n: 1 (valid) 0x12-0x13 (1)
    |                                               |                |          x[0:1]: 0x13-0x1d (10)
    |                                               |                |            [0]{}: im 0x13-0x1d (10)
    |                                               |                |              mod{}: 0x13-0x16 (3)
0x10|         02                                    |   .            |                n: 2 (valid) 0x13-0x14 (1)
0x10|            4d 6d                              |    Mm          |                b: "Mm" 0x14-0x16 (2)
    |                                               |                |              nm{}: 0x16-0x1b (5)
0x10|                  04                           |      .         |                n: 4 (valid) 0x16-0x17 (1)
0x10|                     6c 6f 61 64               |       load     |                b: "load" 0x17-0x1b (4)
    |                                               |                |              d{}: 0x1b-0x1d (2)
0x10|                                 00            |           .    |                tag: "func" (0x0) 0x1b-0x1c (1)
0x10|                                    00         |            .   |                x: 0 (valid) 0x1c-0x1d (1)
    |                                               |                |    [2]{}: section 0x1d-0x21 (4)
0x10|                                       03      |             .  |      id: "function_section" (3) 0x1d-0x1e (1)
0x10|                                          02   |              . |      size: 2 (valid) 0x1e-0x1f (1)
    |                                               |                |      content{}: 0x1f-0x21 (2)
    |                                               |                |        x{}: 0x1f-0x21 (2)
0x10|                                             01|               .|          n: 1 (valid) 0x1f-0x20 (1)
    |                                               |                |          x[0:1]: 0x20-0x21 (1)
0x20|00                                             |.               |            [0]: 0 x (valid) 0x20-0x21 (1)
    |                                               |                |    [3]{}: section 0x21-0x26 (5)
0x20|   05                                          | .              |      id: "memory_section" (5) 0x21-0x22 (1)
0x20|      03                                       |  .             |      size: 3 (valid) 0x22-0x23 (1)
    |                                               |                |      content{}: 0x23-0x26 (3)
    |                                               |                |        mem{}: 0x23-0x26 (3)
0x20|         01                                    |   .            |          n: 1 (valid) 0x23-0x24 (1)
    |                                               |                |          x[0:1]: 0x24-0x26 (2)
    |                                               |                |            [0]{}: mem 0x24-0x26 (2)
    |                                               |                |              lim{}: 0x24-0x26 (2)
0x20|            00                                 |    .           |                tag: 0x0 0x24-0x25 (1)
0x20|               01                              |     .          |                n: 1 (valid) 0x25-0x26 (1)
    |                                               |                |    [4]{}: section 0x26-0x3a (20)
0x20|                  07                           |      .         |      id: "export_section" (7) 0x26-0x27 (1)
0x20|                     12                        |       .        |      size: 18 (valid) 0x27-0x28 (1)
    |                                               |                |      content{}: 0x28-0x3a (18)
    |                                               |                |        ex{}: 0x28-0x3a (18)
0x20|                        02                     |        .       |          n: 2 (valid) 0x28-0x29 (1)
    |                                               |                |          x[0:2]: 0x29-0x3a (17)
    |                                               |                |            [0]{}: ex 0x29-0x33 (10)
    |                                               |                |              nm{}: 0x29-0x31 (8)
0x20|                           07                  |         .      |                n: 7 (valid) 0x29-0x2a (1)
0x20|                              4d 6d 2e 6c 6f 61|          Mm.loa|                b: "Mm.load" 0x2a-0x31 (7)
0x30|64                                             |d               |
    |                                               |                |              d{}: 0x31-0x33 (2)
0x30|   00                                          | .              |                tag: "funcidx" (0x0) 0x31-0x32 (1)
0x30|      00                                       |  .             |                x: 0 (valid) 0x32-0x33 (1)
    |                                               |                |            [1]{}: ex 0x33-0x3a (7)
    |                                               |                |              nm{}: 0x33-0x38 (5)
0x30|         04                                    |   .            |                n: 4 (valid) 0x33-0x34 (1)
0x30|            6c 6f 61 64                        |    load        |                b: "load" 0x34-0x38 (4)
    |                                               |                |              d{}: 0x38-0x3a (2)
0x30|                        00                     |        .       |                tag: "funcidx" (0x0) 0x38-0x39 (1)
0x30|                           01                  |         .      |                x: 1 (valid) 0x39-0x3a (1)
    |                                               |                |    [5]{}: section 0x3a-0x45 (11)
0x30|                              0a               |          .     |      id: "code_section" (10) 0x3a-0x3b (1)
0x30|                                 09            |           .    |      size: 9 (valid) 0x3b-0x3c (1)
    |                                               |                |      content{}: 0x3c-0x45 (9)
    |                                               |                |        code{}: 0x3c-0x45 (9)
0x30|                                    01         |            .   |          n: 1 (valid) 0x3c-0x3d (1)
    |                                               |                |          x[0:1]: 0x3d-0x45 (8)
    |                                               |                |            [0]{}: code 0x3d-0x45 (8)
0x30|                                       07      |             .  |              size: 7 (valid) 0x3d-0x3e (1)
    |                                               |                |              code{}: 0x3e-0x45 (7)
    |                                               |                |                t{}: 0x3e-0x3f (1)
0x30|                                          00   |              . |                  n: 0 (valid) 0x3e-0x3f (1)
    |                                               |                |                  x[0:0]: 0x3f-0x3f (0)
    |                                               |                |                e[0:3]: 0x3f-0x45 (6)
    |                                               |                |                  [0]{}: in 0x3f-0x41 (2)
0x30|                                             20|                |                    opcode: "local.get" (0x20) 0x3f-0x40 (1)
0x40|00                                             |.               |                    x: 0 (valid) 0x40-0x41 (1)
    |                                               |                |                  [1]{}: in 0x41-0x44 (3)
0x40|   2d                                          | -              |                    opcode: "i32.load8_u" (0x2d) 0x41-0x42 (1)
    |                                               |                |                    m{}: 0x42-0x44 (2)
0x40|      00                                       |  .             |                      a: 0 (valid) 0x42-0x43 (1)
0x40|         00                                    |   .            |                      o: 0 (valid) 0x43-0x44 (1)
    |                                               |                |                  [2]{}: in 0x44-0x45 (1)
0x40|            0b                                 |    .           |                    opcode: "end" (0xb) 0x44-0x45 (1)
    |                                               |                |    [6]{}: section 0x45-0x53 (14)
0x40|               0b                              |     .          |      id: "data_section" (11) 0x45-0x46 (1)
0x40|                  0c                           |      .         |      size: 12 (valid) 0x46-0x47 (1)
    |                                               |                |      content{}: 0x47-0x53 (12)
    |                                               |                |        seg{}: 0x47-0x53 (12)
0x40|                     01                        |       .        |          n: 1 (valid) 0x47-0x48 (1)
    |                                               |                |          x[0:1]: 0x48-0x53 (11)
    |                                               |                |            [0]{}: seg 0x48-0x53 (11)
0x40|                        00                     |        .       |              tag: 0 (valid) 0x48-0x49 (1)
    |                                               |                |              e[0:2]: 0x49-0x4c (3)
    |                                               |                |                [0]{}: in 0x49-0x4b (2)
0x40|                           41                  |         A      |                  opcode: "i32.const" (0x41) 0x49-0x4a (1)
0x40|                              0a               |          .     |                  n: 10 (valid) 0x4a-0x4b (1)
    |                                               |                |                [1]{}: in 0x4b-0x4c (1)
0x40|                                 0b            |           .    |                  opcode: "end" (0xb) 0x4b-0x4c (1)
    |                                               |                |              b{}: 0x4c-0x53 (7)
0x40|                                    06         |            .   |                n: 6 (valid) 0x4c-0x4d (1)
0x40|                                       f0 f1 f2|             ...|                x: raw bits 0x4d-0x53 (6)
0x50|f3 f4 f5|                                      |...|            |
