$ fq -d wasm dv linking-20.wasm
    |00 01 02 03 04 05 06 07 08 09 0a 0b 0c 0d 0e 0f|0123456789abcdef|.{}: linking-20.wasm (wasm) 0x0-0x65 (101)
0x00|00 61 73 6d                                    |.asm            |  magic: raw bits (valid) 0x0-0x4 (4)
0x00|            01 00 00 00                        |    ....        |  version: 1 0x4-0x8 (4)
    |                                               |                |  sections[0:6]: 0x8-0x65 (93)
    |                                               |                |    [0]{}: section 0x8-0xf (7)
0x00|                        01                     |        .       |      id: "type_section" (1) 0x8-0x9 (1)
0x00|                           05                  |         .      |      size: 5 (valid) 0x9-0xa (1)
    |                                               |                |      content{}: 0xa-0xf (5)
    |                                               |                |        ft{}: 0xa-0xf (5)
0x00|                              01               |          .     |          n: 1 (valid) 0xa-0xb (1)
    |                                               |                |          x[0:1]: 0xb-0xf (4)
    |                                               |                |            [0]{}: ft 0xb-0xf (4)
0x00|                                 60            |           `    |              tag: 0x60 (valid) 0xb-0xc (1)
    |                                               |                |              rt1{}: 0xc-0xd (1)
0x00|                                    00         |            .   |                n: 0 (valid) 0xc-0xd (1)
    |                                               |                |                x[0:0]: 0xd-0xd (0)
    |                                               |                |              rt2{}: 0xd-0xf (2)
0x00|                                       01      |             .  |                n: 1 (valid) 0xd-0xe (1)
    |                                               |                |                x[0:1]: 0xe-0xf (1)
0x00|                                          7f   |              . |                  [0]: "i32" (0x7f) t 0xe-0xf (1)
    |                                               |                |    [1]{}: section 0xf-0x14 (5)
0x00|                                             03|               .|      id: "function_section" (3) 0xf-0x10 (1)
0x10|03                                             |.               |      size: 3 (valid) 0x10-0x11 (1)
    |                                               |                |      content{}: 0x11-0x14 (3)
    |                                               |                |        x{}: 0x11-0x14 (3)
0x10|   02                                          | .              |          n: 2 (valid) 0x11-0x12 (1)
    |                                               |                |          x[0:2]: 0x12-0x14 (2)
0x10|      00                                       |  .             |            [0]: 0 x (valid) 0x12-0x13 (1)
0x10|         00                                    |   .            |            [1]: 0 x (valid) 0x13-0x14 (1)
    |                                               |                |    [2]{}: section 0x14-0x1a (6)
0x10|            04                                 |    .           |      id: "table_section" (4) 0x14-0x15 (1)
0x10|               04                              |     .          |      size: 4 (valid) 0x15-0x16 (1)
    |                                               |                |      content{}: 0x16-0x1a (4)
    |                                               |                |        tab{}: 0x16-0x1a (4)
0x10|                  01                           |      .         |          n: 1 (valid) 0x16-0x17 (1)
    |                                               |                |          x[0:1]: 0x17-0x1a (3)
    |                                               |                |            [0]{}: tab 0x17-0x1a (3)
0x10|                     70                        |       p        |              et: "funcref" (112) 0x17-0x18 (1)
    |                                               |                |              lim{}: 0x18-0x1a (2)
0x10|                        00                     |        .       |                tag: 0x0 0x18-0x19 (1)
0x10|                           01                  |         .      |                n: 1 (valid) 0x19-0x1a (1)
    |                                               |                |    [3]{}: section 0x1a-0x1f (5)
0x10|                              05               |          .     |      id: "memory_section" (5) 0x1a-0x1b (1)
0x10|                                 03            |           .    |      size: 3 (valid) 0x1b-0x1c (1)
    |                                               |                |      content{}: 0x1c-0x1f (3)
    |                                               |                |        mem{}: 0x1c-0x1f (3)
0x10|                                    01         |            .   |          n: 1 (valid) 0x1c-0x1d (1)
    |                                               |                |          x[0:1]: 0x1d-0x1f (2)
    |                                               |                |            [0]{}: mem 0x1d-0x1f (2)
    |                                               |                |              lim{}: 0x1d-0x1f (2)
0x10|                                       00      |             .  |                tag: 0x0 0x1d-0x1e (1)
0x10|                                          01   |              . |                n: 1 (valid) 0x1e-0x1f (1)
    |                                               |                |    [4]{}: section 0x1f-0x52 (51)
0x10|                                             07|               .|      id: "export_section" (7) 0x1f-0x20 (1)
0x20|31                                             |1               |      size: 49 (valid) 0x20-0x21 (1)
    |                                               |                |      content{}: 0x21-0x52 (49)
    |                                               |                |        ex{}: 0x21-0x52 (49)
0x20|   04                                          | .              |          n: 4 (valid) 0x21-0x22 (1)
    |                                               |                |          x[0:4]: 0x22-0x52 (48)
    |                                               |                |            [0]{}: ex 0x22-0x2b (9)
    |                                               |                |              nm{}: 0x22-0x29 (7)
0x20|      06                                       |  .             |                n: 6 (valid) 0x22-0x23 (1)
0x20|         6d 65 6d 6f 72 79                     |   memory       |                b: "memory" 0x23-0x29 (6)
    |                                               |                |              d{}: 0x29-0x2b (2)
0x20|                           02                  |         .      |                tag: "memidx" (0x2) 0x29-0x2a (1)
0x20|                              00               |          .     |                x: 0 (valid) 0x2a-0x2b (1)
    |                                               |                |            [1]{}: ex 0x2b-0x33 (8)
    |                                               |                |              nm{}: 0x2b-0x31 (6)
0x20|                                 05            |           .    |                n: 5 (valid) 0x2b-0x2c (1)
0x20|                                    74 61 62 6c|            tabl|                b: "table" 0x2c-0x31 (5)
0x30|65                                             |e               |
    |                                               |                |              d{}: 0x31-0x33 (2)
0x30|   01                                          | .              |                tag: "tableidx" (0x1) 0x31-0x32 (1)
0x30|      00                                       |  .             |                x: 0 (valid) 0x32-0x33 (1)
    |                                               |                |            [2]{}: ex 0x33-0x43 (16)
    |                                               |                |              nm{}: 0x33-0x41 (14)
0x30|         0d                                    |   .            |                n: 13 (valid) 0x33-0x34 (1)
0x30|            67 65 74 20 6d 65 6d 6f 72 79 5b 30|    get memory[0|                b: "get memory[0]" 0x34-0x41 (13)
0x40|5d                                             |]               |
    |                                               |                |              d{}: 0x41-0x43 (2)
0x40|   00                                          | .              |                tag: "funcidx" (0x0) 0x41-0x42 (1)
0x40|      00                                       |  .             |                x: 0 (valid) 0x42-0x43 (1)
    |                                               |                |            [3]{}: ex 0x43-0x52 (15)
    |                                               |                |              nm{}: 0x43-0x50 (13)
0x40|         0c                                    |   .            |                n: 12 (valid) 0x43-0x44 (1)
0x40|            67 65 74 20 74 61 62 6c 65 5b 30 5d|    get table[0]|                b: "get table[0]" 0x44-0x50 (12)
    |                                               |                |              d{}: 0x50-0x52 (2)
0x50|00                                             |.               |                tag: "funcidx" (0x0) 0x50-0x51 (1)
0x50|   01                                          | .              |                x: 1 (valid) 0x51-0x52 (1)
    |                                               |                |    [5]{}: section 0x52-0x65 (19)
0x50|      0a                                       |  .             |      id: "code_section" (10) 0x52-0x53 (1)
0x50|         11                                    |   .            |      size: 17 (valid) 0x53-0x54 (1)
    |                                               |                |      content{}: 0x54-0x65 (17)
    |                                               |                |        code{}: 0x54-0x65 (17)
0x50|            02                                 |    .           |          n: 2 (valid) 0x54-0x55 (1)
    |                                               |                |          x[0:2]: 0x55-0x65 (16)
    |                                               |                |            [0]{}: code 0x55-0x5d (8)
0x50|               07                              |     .          |              size: 7 (valid) 0x55-0x56 (1)
    |                                               |                |              code{}: 0x56-0x5d (7)
    |                                               |                |                t{}: 0x56-0x57 (1)
0x50|                  00                           |      .         |                  n: 0 (valid) 0x56-0x57 (1)
    |                                               |                |                  x[0:0]: 0x57-0x57 (0)
    |                                               |                |                e[0:3]: 0x57-0x5d (6)
    |                                               |                |                  [0]{}: in 0x57-0x59 (2)
0x50|                     41                        |       A        |                    opcode: "i32.const" (0x41) 0x57-0x58 (1)
0x50|                        00                     |        .       |                    n: 0 (valid) 0x58-0x59 (1)
    |                                               |                |                  [1]{}: in 0x59-0x5c (3)
0x50|                           2d                  |         -      |                    opcode: "i32.load8_u" (0x2d) 0x59-0x5a (1)
    |                                               |                |                    m{}: 0x5a-0x5c (2)
0x50|                              00               |          .     |                      a: 0 (valid) 0x5a-0x5b (1)
0x50|                                 00            |           .    |                      o: 0 (valid) 0x5b-0x5c (1)
    |                                               |                |                  [2]{}: in 0x5c-0x5d (1)
0x50|                                    0b         |            .   |                    opcode: "end" (0xb) 0x5c-0x5d (1)
    |                                               |                |            [1]{}: code 0x5d-0x65 (8)
0x50|                                       07      |             .  |              size: 7 (valid) 0x5d-0x5e (1)
    |                                               |                |              code{}: 0x5e-0x65 (7)
    |                                               |                |                t{}: 0x5e-0x5f (1)
0x50|                                          00   |              . |                  n: 0 (valid) 0x5e-0x5f (1)
    |                                               |                |                  x[0:0]: 0x5f-0x5f (0)
    |                                               |                |                e[0:3]: 0x5f-0x65 (6)
    |                                               |                |                  [0]{}: in 0x5f-0x61 (2)
0x50|                                             41|               A|                    opcode: "i32.const" (0x41) 0x5f-0x60 (1)
0x60|00                                             |.               |                    n: 0 (valid) 0x60-0x61 (1)
    |                                               |                |                  [1]{}: in 0x61-0x64 (3)
0x60|   11                                          | .              |                    opcode: "call_indirect" (0x11) 0x61-0x62 (1)
0x60|      00                                       |  .             |                    y: 0 (valid) 0x62-0x63 (1)
0x60|         00                                    |   .            |                    x: 0 (valid) 0x63-0x64 (1)
    |                                               |                |                  [2]{}: in 0x64-0x65 (1)
0x60|            0b|                                |    .|          |                    opcode: "end" (0xb) 0x64-0x65 (1)
